ARM GAS  C:\Users\RECEPC~1\AppData\Local\Temp\ccmGFOwu.s 			page 1


   1              		.syntax unified
   2              		.cpu cortex-m3
   3              		.fpu softvfp
   4              		.eabi_attribute 20, 1
   5              		.eabi_attribute 21, 1
   6              		.eabi_attribute 23, 3
   7              		.eabi_attribute 24, 1
   8              		.eabi_attribute 25, 1
   9              		.eabi_attribute 26, 1
  10              		.eabi_attribute 30, 6
  11              		.eabi_attribute 34, 1
  12              		.eabi_attribute 18, 4
  13              		.thumb
  14              		.file	"I2C_1.c"
  15              		.text
  16              	.Ltext0:
  17              		.cfi_sections	.debug_frame
  18              		.global	I2C_1_initVar
  19              		.bss
  20              		.type	I2C_1_initVar, %object
  21              		.size	I2C_1_initVar, 1
  22              	I2C_1_initVar:
  23 0000 00       		.space	1
  24              		.comm	I2C_1_state,1,1
  25              		.section	.text.I2C_1_Init,"ax",%progbits
  26              		.align	2
  27              		.global	I2C_1_Init
  28              		.thumb
  29              		.thumb_func
  30              		.type	I2C_1_Init, %function
  31              	I2C_1_Init:
  32              	.LFB0:
  33              		.file 1 ".\\Generated_Source\\PSoC5\\I2C_1.c"
   1:.\Generated_Source\PSoC5/I2C_1.c **** /*******************************************************************************
   2:.\Generated_Source\PSoC5/I2C_1.c **** * File Name: I2C_1.c
   3:.\Generated_Source\PSoC5/I2C_1.c **** * Version 3.50
   4:.\Generated_Source\PSoC5/I2C_1.c **** *
   5:.\Generated_Source\PSoC5/I2C_1.c **** * Description:
   6:.\Generated_Source\PSoC5/I2C_1.c **** *  This file provides the source code of APIs for the I2C component.
   7:.\Generated_Source\PSoC5/I2C_1.c **** *  The actual protocol and operation code resides in the interrupt service
   8:.\Generated_Source\PSoC5/I2C_1.c **** *  routine file.
   9:.\Generated_Source\PSoC5/I2C_1.c **** *
  10:.\Generated_Source\PSoC5/I2C_1.c **** *******************************************************************************
  11:.\Generated_Source\PSoC5/I2C_1.c **** * Copyright 2008-2015, Cypress Semiconductor Corporation. All rights reserved.
  12:.\Generated_Source\PSoC5/I2C_1.c **** * You may use this file only in accordance with the license, terms, conditions,
  13:.\Generated_Source\PSoC5/I2C_1.c **** * disclaimers, and limitations in the end user license agreement accompanying
  14:.\Generated_Source\PSoC5/I2C_1.c **** * the software package with which this file was provided.
  15:.\Generated_Source\PSoC5/I2C_1.c **** *******************************************************************************/
  16:.\Generated_Source\PSoC5/I2C_1.c **** 
  17:.\Generated_Source\PSoC5/I2C_1.c **** #include "I2C_1_PVT.h"
  18:.\Generated_Source\PSoC5/I2C_1.c **** 
  19:.\Generated_Source\PSoC5/I2C_1.c **** 
  20:.\Generated_Source\PSoC5/I2C_1.c **** /**********************************
  21:.\Generated_Source\PSoC5/I2C_1.c **** *      System variables
  22:.\Generated_Source\PSoC5/I2C_1.c **** **********************************/
  23:.\Generated_Source\PSoC5/I2C_1.c **** 
  24:.\Generated_Source\PSoC5/I2C_1.c **** uint8 I2C_1_initVar = 0u; /* Defines if component was initialized */
ARM GAS  C:\Users\RECEPC~1\AppData\Local\Temp\ccmGFOwu.s 			page 2


  25:.\Generated_Source\PSoC5/I2C_1.c **** 
  26:.\Generated_Source\PSoC5/I2C_1.c **** volatile uint8 I2C_1_state;  /* Current state of I2C FSM */
  27:.\Generated_Source\PSoC5/I2C_1.c **** 
  28:.\Generated_Source\PSoC5/I2C_1.c **** 
  29:.\Generated_Source\PSoC5/I2C_1.c **** /*******************************************************************************
  30:.\Generated_Source\PSoC5/I2C_1.c **** * Function Name: I2C_1_Init
  31:.\Generated_Source\PSoC5/I2C_1.c **** ********************************************************************************
  32:.\Generated_Source\PSoC5/I2C_1.c **** *
  33:.\Generated_Source\PSoC5/I2C_1.c **** * Summary:
  34:.\Generated_Source\PSoC5/I2C_1.c **** *  Initializes I2C registers with initial values provided from customizer.
  35:.\Generated_Source\PSoC5/I2C_1.c **** *
  36:.\Generated_Source\PSoC5/I2C_1.c **** * Parameters:
  37:.\Generated_Source\PSoC5/I2C_1.c **** *  None.
  38:.\Generated_Source\PSoC5/I2C_1.c **** *
  39:.\Generated_Source\PSoC5/I2C_1.c **** * Return:
  40:.\Generated_Source\PSoC5/I2C_1.c **** *  None.
  41:.\Generated_Source\PSoC5/I2C_1.c **** *
  42:.\Generated_Source\PSoC5/I2C_1.c **** * Global variables:
  43:.\Generated_Source\PSoC5/I2C_1.c **** *  None.
  44:.\Generated_Source\PSoC5/I2C_1.c **** *
  45:.\Generated_Source\PSoC5/I2C_1.c **** * Reentrant:
  46:.\Generated_Source\PSoC5/I2C_1.c **** *  No.
  47:.\Generated_Source\PSoC5/I2C_1.c **** *
  48:.\Generated_Source\PSoC5/I2C_1.c **** *******************************************************************************/
  49:.\Generated_Source\PSoC5/I2C_1.c **** void I2C_1_Init(void) 
  50:.\Generated_Source\PSoC5/I2C_1.c **** {
  34              		.loc 1 50 0
  35              		.cfi_startproc
  36              		@ args = 0, pretend = 0, frame = 0
  37              		@ frame_needed = 1, uses_anonymous_args = 0
  38 0000 80B5     		push	{r7, lr}
  39              		.cfi_def_cfa_offset 8
  40              		.cfi_offset 7, -8
  41              		.cfi_offset 14, -4
  42 0002 00AF     		add	r7, sp, #0
  43              		.cfi_def_cfa_register 7
  51:.\Generated_Source\PSoC5/I2C_1.c **** #if (I2C_1_FF_IMPLEMENTED)
  52:.\Generated_Source\PSoC5/I2C_1.c ****     /* Configure fixed function block */
  53:.\Generated_Source\PSoC5/I2C_1.c ****     I2C_1_CFG_REG  = I2C_1_DEFAULT_CFG;
  44              		.loc 1 53 0
  45 0004 134B     		ldr	r3, .L2
  46 0006 0222     		movs	r2, #2
  47 0008 1A70     		strb	r2, [r3]
  54:.\Generated_Source\PSoC5/I2C_1.c ****     I2C_1_XCFG_REG = I2C_1_DEFAULT_XCFG;
  48              		.loc 1 54 0
  49 000a 134B     		ldr	r3, .L2+4
  50 000c 8122     		movs	r2, #129
  51 000e 1A70     		strb	r2, [r3]
  55:.\Generated_Source\PSoC5/I2C_1.c ****     I2C_1_ADDR_REG = I2C_1_DEFAULT_ADDR;
  52              		.loc 1 55 0
  53 0010 124B     		ldr	r3, .L2+8
  54 0012 0822     		movs	r2, #8
  55 0014 1A70     		strb	r2, [r3]
  56:.\Generated_Source\PSoC5/I2C_1.c ****     I2C_1_CLKDIV1_REG = LO8(I2C_1_DEFAULT_DIVIDE_FACTOR);
  56              		.loc 1 56 0
  57 0016 124B     		ldr	r3, .L2+12
  58 0018 2622     		movs	r2, #38
ARM GAS  C:\Users\RECEPC~1\AppData\Local\Temp\ccmGFOwu.s 			page 3


  59 001a 1A70     		strb	r2, [r3]
  57:.\Generated_Source\PSoC5/I2C_1.c ****     I2C_1_CLKDIV2_REG = HI8(I2C_1_DEFAULT_DIVIDE_FACTOR);
  60              		.loc 1 57 0
  61 001c 114B     		ldr	r3, .L2+16
  62 001e 0022     		movs	r2, #0
  63 0020 1A70     		strb	r2, [r3]
  58:.\Generated_Source\PSoC5/I2C_1.c **** 
  59:.\Generated_Source\PSoC5/I2C_1.c **** #else
  60:.\Generated_Source\PSoC5/I2C_1.c ****     uint8 intState;
  61:.\Generated_Source\PSoC5/I2C_1.c **** 
  62:.\Generated_Source\PSoC5/I2C_1.c ****     /* Configure control and interrupt sources */
  63:.\Generated_Source\PSoC5/I2C_1.c ****     I2C_1_CFG_REG      = I2C_1_DEFAULT_CFG;
  64:.\Generated_Source\PSoC5/I2C_1.c ****     I2C_1_INT_MASK_REG = I2C_1_DEFAULT_INT_MASK;
  65:.\Generated_Source\PSoC5/I2C_1.c **** 
  66:.\Generated_Source\PSoC5/I2C_1.c ****     /* Enable interrupt generation in status */
  67:.\Generated_Source\PSoC5/I2C_1.c ****     intState = CyEnterCriticalSection();
  68:.\Generated_Source\PSoC5/I2C_1.c ****     I2C_1_INT_ENABLE_REG |= I2C_1_INTR_ENABLE;
  69:.\Generated_Source\PSoC5/I2C_1.c ****     CyExitCriticalSection(intState);
  70:.\Generated_Source\PSoC5/I2C_1.c **** 
  71:.\Generated_Source\PSoC5/I2C_1.c ****     /* Configure bit counter */
  72:.\Generated_Source\PSoC5/I2C_1.c ****     #if (I2C_1_MODE_SLAVE_ENABLED)
  73:.\Generated_Source\PSoC5/I2C_1.c ****         I2C_1_PERIOD_REG = I2C_1_DEFAULT_PERIOD;
  74:.\Generated_Source\PSoC5/I2C_1.c ****     #endif  /* (I2C_1_MODE_SLAVE_ENABLED) */
  75:.\Generated_Source\PSoC5/I2C_1.c **** 
  76:.\Generated_Source\PSoC5/I2C_1.c ****     /* Configure clock generator */
  77:.\Generated_Source\PSoC5/I2C_1.c ****     #if (I2C_1_MODE_MASTER_ENABLED)
  78:.\Generated_Source\PSoC5/I2C_1.c ****         I2C_1_MCLK_PRD_REG = I2C_1_DEFAULT_MCLK_PRD;
  79:.\Generated_Source\PSoC5/I2C_1.c ****         I2C_1_MCLK_CMP_REG = I2C_1_DEFAULT_MCLK_CMP;
  80:.\Generated_Source\PSoC5/I2C_1.c ****     #endif /* (I2C_1_MODE_MASTER_ENABLED) */
  81:.\Generated_Source\PSoC5/I2C_1.c **** #endif /* (I2C_1_FF_IMPLEMENTED) */
  82:.\Generated_Source\PSoC5/I2C_1.c **** 
  83:.\Generated_Source\PSoC5/I2C_1.c **** #if (I2C_1_TIMEOUT_ENABLED)
  84:.\Generated_Source\PSoC5/I2C_1.c ****     I2C_1_TimeoutInit();
  85:.\Generated_Source\PSoC5/I2C_1.c **** #endif /* (I2C_1_TIMEOUT_ENABLED) */
  86:.\Generated_Source\PSoC5/I2C_1.c **** 
  87:.\Generated_Source\PSoC5/I2C_1.c ****     /* Configure internal interrupt */
  88:.\Generated_Source\PSoC5/I2C_1.c ****     CyIntDisable    (I2C_1_ISR_NUMBER);
  64              		.loc 1 88 0
  65 0022 114B     		ldr	r3, .L2+20
  66 0024 4FF40042 		mov	r2, #32768
  67 0028 1A60     		str	r2, [r3]
  89:.\Generated_Source\PSoC5/I2C_1.c ****     CyIntSetPriority(I2C_1_ISR_NUMBER, I2C_1_ISR_PRIORITY);
  68              		.loc 1 89 0
  69 002a 0F20     		movs	r0, #15
  70 002c 0521     		movs	r1, #5
  71 002e FFF7FEFF 		bl	CyIntSetPriority
  90:.\Generated_Source\PSoC5/I2C_1.c ****     #if (I2C_1_INTERN_I2C_INTR_HANDLER)
  91:.\Generated_Source\PSoC5/I2C_1.c ****         (void) CyIntSetVector(I2C_1_ISR_NUMBER, &I2C_1_ISR);
  72              		.loc 1 91 0
  73 0032 0F20     		movs	r0, #15
  74 0034 0D49     		ldr	r1, .L2+24
  75 0036 FFF7FEFF 		bl	CyIntSetVector
  92:.\Generated_Source\PSoC5/I2C_1.c ****     #endif /* (I2C_1_INTERN_I2C_INTR_HANDLER) */
  93:.\Generated_Source\PSoC5/I2C_1.c **** 
  94:.\Generated_Source\PSoC5/I2C_1.c ****     /* Set FSM to default state */
  95:.\Generated_Source\PSoC5/I2C_1.c ****     I2C_1_state = I2C_1_SM_IDLE;
  76              		.loc 1 95 0
ARM GAS  C:\Users\RECEPC~1\AppData\Local\Temp\ccmGFOwu.s 			page 4


  77 003a 0D4B     		ldr	r3, .L2+28
  78 003c 1022     		movs	r2, #16
  79 003e 1A70     		strb	r2, [r3]
  96:.\Generated_Source\PSoC5/I2C_1.c **** 
  97:.\Generated_Source\PSoC5/I2C_1.c **** #if (I2C_1_MODE_SLAVE_ENABLED)
  98:.\Generated_Source\PSoC5/I2C_1.c ****     /* Clear status and buffers index */
  99:.\Generated_Source\PSoC5/I2C_1.c ****     I2C_1_slStatus = 0u;
 100:.\Generated_Source\PSoC5/I2C_1.c ****     I2C_1_slRdBufIndex = 0u;
 101:.\Generated_Source\PSoC5/I2C_1.c ****     I2C_1_slWrBufIndex = 0u;
 102:.\Generated_Source\PSoC5/I2C_1.c **** 
 103:.\Generated_Source\PSoC5/I2C_1.c ****     /* Configure matched address */
 104:.\Generated_Source\PSoC5/I2C_1.c ****     I2C_1_SlaveSetAddress(I2C_1_DEFAULT_ADDR);
 105:.\Generated_Source\PSoC5/I2C_1.c **** #endif /* (I2C_1_MODE_SLAVE_ENABLED) */
 106:.\Generated_Source\PSoC5/I2C_1.c **** 
 107:.\Generated_Source\PSoC5/I2C_1.c **** #if (I2C_1_MODE_MASTER_ENABLED)
 108:.\Generated_Source\PSoC5/I2C_1.c ****     /* Clear status and buffers index */
 109:.\Generated_Source\PSoC5/I2C_1.c ****     I2C_1_mstrStatus = 0u;
  80              		.loc 1 109 0
  81 0040 0C4B     		ldr	r3, .L2+32
  82 0042 0022     		movs	r2, #0
  83 0044 1A70     		strb	r2, [r3]
 110:.\Generated_Source\PSoC5/I2C_1.c ****     I2C_1_mstrRdBufIndex = 0u;
  84              		.loc 1 110 0
  85 0046 0C4B     		ldr	r3, .L2+36
  86 0048 0022     		movs	r2, #0
  87 004a 1A70     		strb	r2, [r3]
 111:.\Generated_Source\PSoC5/I2C_1.c ****     I2C_1_mstrWrBufIndex = 0u;
  88              		.loc 1 111 0
  89 004c 0B4B     		ldr	r3, .L2+40
  90 004e 0022     		movs	r2, #0
  91 0050 1A70     		strb	r2, [r3]
 112:.\Generated_Source\PSoC5/I2C_1.c **** #endif /* (I2C_1_MODE_MASTER_ENABLED) */
 113:.\Generated_Source\PSoC5/I2C_1.c **** }
  92              		.loc 1 113 0
  93 0052 80BD     		pop	{r7, pc}
  94              	.L3:
  95              		.align	2
  96              	.L2:
  97 0054 D6490040 		.word	1073760726
  98 0058 C8490040 		.word	1073760712
  99 005c CA490040 		.word	1073760714
 100 0060 DB490040 		.word	1073760731
 101 0064 DC490040 		.word	1073760732
 102 0068 80E100E0 		.word	-536813184
 103 006c 00000000 		.word	I2C_1_ISR
 104 0070 00000000 		.word	I2C_1_state
 105 0074 00000000 		.word	I2C_1_mstrStatus
 106 0078 00000000 		.word	I2C_1_mstrRdBufIndex
 107 007c 00000000 		.word	I2C_1_mstrWrBufIndex
 108              		.cfi_endproc
 109              	.LFE0:
 110              		.size	I2C_1_Init, .-I2C_1_Init
 111              		.section	.text.I2C_1_Enable,"ax",%progbits
 112              		.align	2
 113              		.global	I2C_1_Enable
 114              		.thumb
 115              		.thumb_func
ARM GAS  C:\Users\RECEPC~1\AppData\Local\Temp\ccmGFOwu.s 			page 5


 116              		.type	I2C_1_Enable, %function
 117              	I2C_1_Enable:
 118              	.LFB1:
 114:.\Generated_Source\PSoC5/I2C_1.c **** 
 115:.\Generated_Source\PSoC5/I2C_1.c **** 
 116:.\Generated_Source\PSoC5/I2C_1.c **** /*******************************************************************************
 117:.\Generated_Source\PSoC5/I2C_1.c **** * Function Name: I2C_1_Enable
 118:.\Generated_Source\PSoC5/I2C_1.c **** ********************************************************************************
 119:.\Generated_Source\PSoC5/I2C_1.c **** *
 120:.\Generated_Source\PSoC5/I2C_1.c **** * Summary:
 121:.\Generated_Source\PSoC5/I2C_1.c **** *  Enables I2C operations.
 122:.\Generated_Source\PSoC5/I2C_1.c **** *
 123:.\Generated_Source\PSoC5/I2C_1.c **** * Parameters:
 124:.\Generated_Source\PSoC5/I2C_1.c **** *  None.
 125:.\Generated_Source\PSoC5/I2C_1.c **** *
 126:.\Generated_Source\PSoC5/I2C_1.c **** * Return:
 127:.\Generated_Source\PSoC5/I2C_1.c **** *  None.
 128:.\Generated_Source\PSoC5/I2C_1.c **** *
 129:.\Generated_Source\PSoC5/I2C_1.c **** * Global variables:
 130:.\Generated_Source\PSoC5/I2C_1.c **** *  None.
 131:.\Generated_Source\PSoC5/I2C_1.c **** *
 132:.\Generated_Source\PSoC5/I2C_1.c **** *******************************************************************************/
 133:.\Generated_Source\PSoC5/I2C_1.c **** void I2C_1_Enable(void) 
 134:.\Generated_Source\PSoC5/I2C_1.c **** {
 119              		.loc 1 134 0
 120              		.cfi_startproc
 121              		@ args = 0, pretend = 0, frame = 8
 122              		@ frame_needed = 1, uses_anonymous_args = 0
 123 0000 80B5     		push	{r7, lr}
 124              		.cfi_def_cfa_offset 8
 125              		.cfi_offset 7, -8
 126              		.cfi_offset 14, -4
 127 0002 82B0     		sub	sp, sp, #8
 128              		.cfi_def_cfa_offset 16
 129 0004 00AF     		add	r7, sp, #0
 130              		.cfi_def_cfa_register 7
 135:.\Generated_Source\PSoC5/I2C_1.c **** #if (I2C_1_FF_IMPLEMENTED)
 136:.\Generated_Source\PSoC5/I2C_1.c ****     uint8 intState;
 137:.\Generated_Source\PSoC5/I2C_1.c **** 
 138:.\Generated_Source\PSoC5/I2C_1.c ****     /* Enable power to block */
 139:.\Generated_Source\PSoC5/I2C_1.c ****     intState = CyEnterCriticalSection();
 131              		.loc 1 139 0
 132 0006 FFF7FEFF 		bl	CyEnterCriticalSection
 133 000a 0346     		mov	r3, r0
 134 000c FB71     		strb	r3, [r7, #7]
 140:.\Generated_Source\PSoC5/I2C_1.c ****     I2C_1_ACT_PWRMGR_REG  |= I2C_1_ACT_PWR_EN;
 135              		.loc 1 140 0
 136 000e 0B4B     		ldr	r3, .L5
 137 0010 0A4A     		ldr	r2, .L5
 138 0012 1278     		ldrb	r2, [r2]
 139 0014 D2B2     		uxtb	r2, r2
 140 0016 42F00402 		orr	r2, r2, #4
 141 001a D2B2     		uxtb	r2, r2
 142 001c 1A70     		strb	r2, [r3]
 141:.\Generated_Source\PSoC5/I2C_1.c ****     I2C_1_STBY_PWRMGR_REG |= I2C_1_STBY_PWR_EN;
 143              		.loc 1 141 0
 144 001e 084B     		ldr	r3, .L5+4
ARM GAS  C:\Users\RECEPC~1\AppData\Local\Temp\ccmGFOwu.s 			page 6


 145 0020 074A     		ldr	r2, .L5+4
 146 0022 1278     		ldrb	r2, [r2]
 147 0024 D2B2     		uxtb	r2, r2
 148 0026 42F00402 		orr	r2, r2, #4
 149 002a D2B2     		uxtb	r2, r2
 150 002c 1A70     		strb	r2, [r3]
 142:.\Generated_Source\PSoC5/I2C_1.c ****     CyExitCriticalSection(intState);
 151              		.loc 1 142 0
 152 002e FB79     		ldrb	r3, [r7, #7]	@ zero_extendqisi2
 153 0030 1846     		mov	r0, r3
 154 0032 FFF7FEFF 		bl	CyExitCriticalSection
 143:.\Generated_Source\PSoC5/I2C_1.c **** #else
 144:.\Generated_Source\PSoC5/I2C_1.c ****     #if (I2C_1_MODE_SLAVE_ENABLED)
 145:.\Generated_Source\PSoC5/I2C_1.c ****         /* Enable bit counter */
 146:.\Generated_Source\PSoC5/I2C_1.c ****         uint8 intState = CyEnterCriticalSection();
 147:.\Generated_Source\PSoC5/I2C_1.c ****         I2C_1_COUNTER_AUX_CTL_REG |= I2C_1_CNT7_ENABLE;
 148:.\Generated_Source\PSoC5/I2C_1.c ****         CyExitCriticalSection(intState);
 149:.\Generated_Source\PSoC5/I2C_1.c ****     #endif /* (I2C_1_MODE_SLAVE_ENABLED) */
 150:.\Generated_Source\PSoC5/I2C_1.c **** 
 151:.\Generated_Source\PSoC5/I2C_1.c ****     /* Enable slave or master bits */
 152:.\Generated_Source\PSoC5/I2C_1.c ****     I2C_1_CFG_REG |= I2C_1_ENABLE_MS;
 153:.\Generated_Source\PSoC5/I2C_1.c **** #endif /* (I2C_1_FF_IMPLEMENTED) */
 154:.\Generated_Source\PSoC5/I2C_1.c **** 
 155:.\Generated_Source\PSoC5/I2C_1.c **** #if (I2C_1_TIMEOUT_ENABLED)
 156:.\Generated_Source\PSoC5/I2C_1.c ****     I2C_1_TimeoutEnable();
 157:.\Generated_Source\PSoC5/I2C_1.c **** #endif /* (I2C_1_TIMEOUT_ENABLED) */
 158:.\Generated_Source\PSoC5/I2C_1.c **** }
 155              		.loc 1 158 0
 156 0036 0837     		adds	r7, r7, #8
 157 0038 BD46     		mov	sp, r7
 158              		@ sp needed
 159 003a 80BD     		pop	{r7, pc}
 160              	.L6:
 161              		.align	2
 162              	.L5:
 163 003c A5430040 		.word	1073759141
 164 0040 B5430040 		.word	1073759157
 165              		.cfi_endproc
 166              	.LFE1:
 167              		.size	I2C_1_Enable, .-I2C_1_Enable
 168              		.section	.text.I2C_1_Start,"ax",%progbits
 169              		.align	2
 170              		.global	I2C_1_Start
 171              		.thumb
 172              		.thumb_func
 173              		.type	I2C_1_Start, %function
 174              	I2C_1_Start:
 175              	.LFB2:
 159:.\Generated_Source\PSoC5/I2C_1.c **** 
 160:.\Generated_Source\PSoC5/I2C_1.c **** 
 161:.\Generated_Source\PSoC5/I2C_1.c **** /*******************************************************************************
 162:.\Generated_Source\PSoC5/I2C_1.c **** * Function Name: I2C_1_Start
 163:.\Generated_Source\PSoC5/I2C_1.c **** ********************************************************************************
 164:.\Generated_Source\PSoC5/I2C_1.c **** *
 165:.\Generated_Source\PSoC5/I2C_1.c **** * Summary:
 166:.\Generated_Source\PSoC5/I2C_1.c **** *  Starts the I2C hardware. Enables Active mode power template bits or clock
 167:.\Generated_Source\PSoC5/I2C_1.c **** *  gating as appropriate. It is required to be executed before I2C bus
ARM GAS  C:\Users\RECEPC~1\AppData\Local\Temp\ccmGFOwu.s 			page 7


 168:.\Generated_Source\PSoC5/I2C_1.c **** *  operation.
 169:.\Generated_Source\PSoC5/I2C_1.c **** *
 170:.\Generated_Source\PSoC5/I2C_1.c **** * Parameters:
 171:.\Generated_Source\PSoC5/I2C_1.c **** *  None.
 172:.\Generated_Source\PSoC5/I2C_1.c **** *
 173:.\Generated_Source\PSoC5/I2C_1.c **** * Return:
 174:.\Generated_Source\PSoC5/I2C_1.c **** *  None.
 175:.\Generated_Source\PSoC5/I2C_1.c **** *
 176:.\Generated_Source\PSoC5/I2C_1.c **** * Side Effects:
 177:.\Generated_Source\PSoC5/I2C_1.c **** *  This component automatically enables its interrupt.  If I2C is enabled !
 178:.\Generated_Source\PSoC5/I2C_1.c **** *  without the interrupt enabled, it can lock up the I2C bus.
 179:.\Generated_Source\PSoC5/I2C_1.c **** *
 180:.\Generated_Source\PSoC5/I2C_1.c **** * Global variables:
 181:.\Generated_Source\PSoC5/I2C_1.c **** *  I2C_1_initVar - This variable is used to check the initial
 182:.\Generated_Source\PSoC5/I2C_1.c **** *                             configuration, modified on the first
 183:.\Generated_Source\PSoC5/I2C_1.c **** *                             function call.
 184:.\Generated_Source\PSoC5/I2C_1.c **** *
 185:.\Generated_Source\PSoC5/I2C_1.c **** * Reentrant:
 186:.\Generated_Source\PSoC5/I2C_1.c **** *  No.
 187:.\Generated_Source\PSoC5/I2C_1.c **** *
 188:.\Generated_Source\PSoC5/I2C_1.c **** *******************************************************************************/
 189:.\Generated_Source\PSoC5/I2C_1.c **** void I2C_1_Start(void) 
 190:.\Generated_Source\PSoC5/I2C_1.c **** {
 176              		.loc 1 190 0
 177              		.cfi_startproc
 178              		@ args = 0, pretend = 0, frame = 0
 179              		@ frame_needed = 1, uses_anonymous_args = 0
 180 0000 80B5     		push	{r7, lr}
 181              		.cfi_def_cfa_offset 8
 182              		.cfi_offset 7, -8
 183              		.cfi_offset 14, -4
 184 0002 00AF     		add	r7, sp, #0
 185              		.cfi_def_cfa_register 7
 191:.\Generated_Source\PSoC5/I2C_1.c ****     if (0u == I2C_1_initVar)
 186              		.loc 1 191 0
 187 0004 074B     		ldr	r3, .L9
 188 0006 1B78     		ldrb	r3, [r3]	@ zero_extendqisi2
 189 0008 002B     		cmp	r3, #0
 190 000a 04D1     		bne	.L8
 192:.\Generated_Source\PSoC5/I2C_1.c ****     {
 193:.\Generated_Source\PSoC5/I2C_1.c ****         I2C_1_Init();
 191              		.loc 1 193 0
 192 000c FFF7FEFF 		bl	I2C_1_Init
 194:.\Generated_Source\PSoC5/I2C_1.c ****         I2C_1_initVar = 1u; /* Component initialized */
 193              		.loc 1 194 0
 194 0010 044B     		ldr	r3, .L9
 195 0012 0122     		movs	r2, #1
 196 0014 1A70     		strb	r2, [r3]
 197              	.L8:
 195:.\Generated_Source\PSoC5/I2C_1.c ****     }
 196:.\Generated_Source\PSoC5/I2C_1.c **** 
 197:.\Generated_Source\PSoC5/I2C_1.c ****     I2C_1_Enable();
 198              		.loc 1 197 0
 199 0016 FFF7FEFF 		bl	I2C_1_Enable
 198:.\Generated_Source\PSoC5/I2C_1.c ****     I2C_1_EnableInt();
 200              		.loc 1 198 0
 201 001a 034B     		ldr	r3, .L9+4
ARM GAS  C:\Users\RECEPC~1\AppData\Local\Temp\ccmGFOwu.s 			page 8


 202 001c 4FF40042 		mov	r2, #32768
 203 0020 1A60     		str	r2, [r3]
 199:.\Generated_Source\PSoC5/I2C_1.c **** }
 204              		.loc 1 199 0
 205 0022 80BD     		pop	{r7, pc}
 206              	.L10:
 207              		.align	2
 208              	.L9:
 209 0024 00000000 		.word	I2C_1_initVar
 210 0028 00E100E0 		.word	-536813312
 211              		.cfi_endproc
 212              	.LFE2:
 213              		.size	I2C_1_Start, .-I2C_1_Start
 214              		.section	.text.I2C_1_Stop,"ax",%progbits
 215              		.align	2
 216              		.global	I2C_1_Stop
 217              		.thumb
 218              		.thumb_func
 219              		.type	I2C_1_Stop, %function
 220              	I2C_1_Stop:
 221              	.LFB3:
 200:.\Generated_Source\PSoC5/I2C_1.c **** 
 201:.\Generated_Source\PSoC5/I2C_1.c **** 
 202:.\Generated_Source\PSoC5/I2C_1.c **** /*******************************************************************************
 203:.\Generated_Source\PSoC5/I2C_1.c **** * Function Name: I2C_1_Stop
 204:.\Generated_Source\PSoC5/I2C_1.c **** ********************************************************************************
 205:.\Generated_Source\PSoC5/I2C_1.c **** *
 206:.\Generated_Source\PSoC5/I2C_1.c **** * Summary:
 207:.\Generated_Source\PSoC5/I2C_1.c **** *  Disables I2C hardware and disables I2C interrupt. Disables Active mode power
 208:.\Generated_Source\PSoC5/I2C_1.c **** *  template bits or clock gating as appropriate.
 209:.\Generated_Source\PSoC5/I2C_1.c **** *
 210:.\Generated_Source\PSoC5/I2C_1.c **** * Parameters:
 211:.\Generated_Source\PSoC5/I2C_1.c **** *  None.
 212:.\Generated_Source\PSoC5/I2C_1.c **** *
 213:.\Generated_Source\PSoC5/I2C_1.c **** * Return:
 214:.\Generated_Source\PSoC5/I2C_1.c **** *  None.
 215:.\Generated_Source\PSoC5/I2C_1.c **** *
 216:.\Generated_Source\PSoC5/I2C_1.c **** *******************************************************************************/
 217:.\Generated_Source\PSoC5/I2C_1.c **** void I2C_1_Stop(void) 
 218:.\Generated_Source\PSoC5/I2C_1.c **** {
 222              		.loc 1 218 0
 223              		.cfi_startproc
 224              		@ args = 0, pretend = 0, frame = 8
 225              		@ frame_needed = 1, uses_anonymous_args = 0
 226 0000 80B5     		push	{r7, lr}
 227              		.cfi_def_cfa_offset 8
 228              		.cfi_offset 7, -8
 229              		.cfi_offset 14, -4
 230 0002 82B0     		sub	sp, sp, #8
 231              		.cfi_def_cfa_offset 16
 232 0004 00AF     		add	r7, sp, #0
 233              		.cfi_def_cfa_register 7
 219:.\Generated_Source\PSoC5/I2C_1.c ****     I2C_1_DisableInt();
 234              		.loc 1 219 0
 235 0006 364B     		ldr	r3, .L12
 236 0008 4FF40042 		mov	r2, #32768
 237 000c 1A60     		str	r2, [r3]
ARM GAS  C:\Users\RECEPC~1\AppData\Local\Temp\ccmGFOwu.s 			page 9


 238              	.LBB2:
 220:.\Generated_Source\PSoC5/I2C_1.c **** 
 221:.\Generated_Source\PSoC5/I2C_1.c **** #if (I2C_1_TIMEOUT_ENABLED)
 222:.\Generated_Source\PSoC5/I2C_1.c ****     I2C_1_TimeoutStop();
 223:.\Generated_Source\PSoC5/I2C_1.c **** #endif  /* End (I2C_1_TIMEOUT_ENABLED) */
 224:.\Generated_Source\PSoC5/I2C_1.c **** 
 225:.\Generated_Source\PSoC5/I2C_1.c **** #if (I2C_1_FF_IMPLEMENTED)
 226:.\Generated_Source\PSoC5/I2C_1.c ****     {
 227:.\Generated_Source\PSoC5/I2C_1.c ****         uint8 intState;
 228:.\Generated_Source\PSoC5/I2C_1.c ****         uint16 blockResetCycles;
 229:.\Generated_Source\PSoC5/I2C_1.c **** 
 230:.\Generated_Source\PSoC5/I2C_1.c ****         /* Store registers effected by block disable */
 231:.\Generated_Source\PSoC5/I2C_1.c ****         I2C_1_backup.addr    = I2C_1_ADDR_REG;
 239              		.loc 1 231 0
 240 000e 354B     		ldr	r3, .L12+4
 241 0010 1B78     		ldrb	r3, [r3]
 242 0012 DAB2     		uxtb	r2, r3
 243 0014 344B     		ldr	r3, .L12+8
 244 0016 DA70     		strb	r2, [r3, #3]
 232:.\Generated_Source\PSoC5/I2C_1.c ****         I2C_1_backup.clkDiv1 = I2C_1_CLKDIV1_REG;
 245              		.loc 1 232 0
 246 0018 344B     		ldr	r3, .L12+12
 247 001a 1B78     		ldrb	r3, [r3]
 248 001c DAB2     		uxtb	r2, r3
 249 001e 324B     		ldr	r3, .L12+8
 250 0020 1A71     		strb	r2, [r3, #4]
 233:.\Generated_Source\PSoC5/I2C_1.c ****         I2C_1_backup.clkDiv2 = I2C_1_CLKDIV2_REG;
 251              		.loc 1 233 0
 252 0022 334B     		ldr	r3, .L12+16
 253 0024 1B78     		ldrb	r3, [r3]
 254 0026 DAB2     		uxtb	r2, r3
 255 0028 2F4B     		ldr	r3, .L12+8
 256 002a 5A71     		strb	r2, [r3, #5]
 234:.\Generated_Source\PSoC5/I2C_1.c **** 
 235:.\Generated_Source\PSoC5/I2C_1.c ****         /* Calculate number of cycles to reset block */
 236:.\Generated_Source\PSoC5/I2C_1.c ****         blockResetCycles = ((uint16) ((uint16) I2C_1_CLKDIV2_REG << 8u) | I2C_1_CLKDIV1_REG) + 1u;
 257              		.loc 1 236 0
 258 002c 304B     		ldr	r3, .L12+16
 259 002e 1B78     		ldrb	r3, [r3]
 260 0030 DBB2     		uxtb	r3, r3
 261 0032 1B02     		lsls	r3, r3, #8
 262 0034 9AB2     		uxth	r2, r3
 263 0036 2D4B     		ldr	r3, .L12+12
 264 0038 1B78     		ldrb	r3, [r3]
 265 003a DBB2     		uxtb	r3, r3
 266 003c 1343     		orrs	r3, r3, r2
 267 003e 9BB2     		uxth	r3, r3
 268 0040 0133     		adds	r3, r3, #1
 269 0042 FB80     		strh	r3, [r7, #6]	@ movhi
 237:.\Generated_Source\PSoC5/I2C_1.c **** 
 238:.\Generated_Source\PSoC5/I2C_1.c ****         /* Disable block */
 239:.\Generated_Source\PSoC5/I2C_1.c ****         I2C_1_CFG_REG &= (uint8) ~I2C_1_CFG_EN_SLAVE;
 270              		.loc 1 239 0
 271 0044 2B4B     		ldr	r3, .L12+20
 272 0046 2B4A     		ldr	r2, .L12+20
 273 0048 1278     		ldrb	r2, [r2]
 274 004a D2B2     		uxtb	r2, r2
ARM GAS  C:\Users\RECEPC~1\AppData\Local\Temp\ccmGFOwu.s 			page 10


 275 004c 22F00102 		bic	r2, r2, #1
 276 0050 D2B2     		uxtb	r2, r2
 277 0052 1A70     		strb	r2, [r3]
 240:.\Generated_Source\PSoC5/I2C_1.c ****         /* Wait for block reset before disable power */
 241:.\Generated_Source\PSoC5/I2C_1.c ****         CyDelayCycles((uint32) blockResetCycles);
 278              		.loc 1 241 0
 279 0054 FB88     		ldrh	r3, [r7, #6]
 280 0056 1846     		mov	r0, r3
 281 0058 FFF7FEFF 		bl	CyDelayCycles
 242:.\Generated_Source\PSoC5/I2C_1.c **** 
 243:.\Generated_Source\PSoC5/I2C_1.c ****         /* Disable power to block */
 244:.\Generated_Source\PSoC5/I2C_1.c ****         intState = CyEnterCriticalSection();
 282              		.loc 1 244 0
 283 005c FFF7FEFF 		bl	CyEnterCriticalSection
 284 0060 0346     		mov	r3, r0
 285 0062 7B71     		strb	r3, [r7, #5]
 245:.\Generated_Source\PSoC5/I2C_1.c ****         I2C_1_ACT_PWRMGR_REG  &= (uint8) ~I2C_1_ACT_PWR_EN;
 286              		.loc 1 245 0
 287 0064 244B     		ldr	r3, .L12+24
 288 0066 244A     		ldr	r2, .L12+24
 289 0068 1278     		ldrb	r2, [r2]
 290 006a D2B2     		uxtb	r2, r2
 291 006c 22F00402 		bic	r2, r2, #4
 292 0070 D2B2     		uxtb	r2, r2
 293 0072 1A70     		strb	r2, [r3]
 246:.\Generated_Source\PSoC5/I2C_1.c ****         I2C_1_STBY_PWRMGR_REG &= (uint8) ~I2C_1_STBY_PWR_EN;
 294              		.loc 1 246 0
 295 0074 214B     		ldr	r3, .L12+28
 296 0076 214A     		ldr	r2, .L12+28
 297 0078 1278     		ldrb	r2, [r2]
 298 007a D2B2     		uxtb	r2, r2
 299 007c 22F00402 		bic	r2, r2, #4
 300 0080 D2B2     		uxtb	r2, r2
 301 0082 1A70     		strb	r2, [r3]
 247:.\Generated_Source\PSoC5/I2C_1.c ****         CyExitCriticalSection(intState);
 302              		.loc 1 247 0
 303 0084 7B79     		ldrb	r3, [r7, #5]	@ zero_extendqisi2
 304 0086 1846     		mov	r0, r3
 305 0088 FFF7FEFF 		bl	CyExitCriticalSection
 248:.\Generated_Source\PSoC5/I2C_1.c **** 
 249:.\Generated_Source\PSoC5/I2C_1.c ****         /* Enable block */
 250:.\Generated_Source\PSoC5/I2C_1.c ****         I2C_1_CFG_REG |= (uint8) I2C_1_ENABLE_MS;
 306              		.loc 1 250 0
 307 008c 194B     		ldr	r3, .L12+20
 308 008e 194A     		ldr	r2, .L12+20
 309 0090 1278     		ldrb	r2, [r2]
 310 0092 D2B2     		uxtb	r2, r2
 311 0094 42F00202 		orr	r2, r2, #2
 312 0098 D2B2     		uxtb	r2, r2
 313 009a 1A70     		strb	r2, [r3]
 251:.\Generated_Source\PSoC5/I2C_1.c **** 
 252:.\Generated_Source\PSoC5/I2C_1.c ****         /* Restore registers effected by block disable. Ticket ID#198004 */
 253:.\Generated_Source\PSoC5/I2C_1.c ****         I2C_1_ADDR_REG    = I2C_1_backup.addr;
 314              		.loc 1 253 0
 315 009c 114B     		ldr	r3, .L12+4
 316 009e 124A     		ldr	r2, .L12+8
 317 00a0 D278     		ldrb	r2, [r2, #3]	@ zero_extendqisi2
ARM GAS  C:\Users\RECEPC~1\AppData\Local\Temp\ccmGFOwu.s 			page 11


 318 00a2 1A70     		strb	r2, [r3]
 254:.\Generated_Source\PSoC5/I2C_1.c ****         I2C_1_ADDR_REG    = I2C_1_backup.addr;
 319              		.loc 1 254 0
 320 00a4 0F4B     		ldr	r3, .L12+4
 321 00a6 104A     		ldr	r2, .L12+8
 322 00a8 D278     		ldrb	r2, [r2, #3]	@ zero_extendqisi2
 323 00aa 1A70     		strb	r2, [r3]
 255:.\Generated_Source\PSoC5/I2C_1.c ****         I2C_1_CLKDIV1_REG = I2C_1_backup.clkDiv1;
 324              		.loc 1 255 0
 325 00ac 0F4B     		ldr	r3, .L12+12
 326 00ae 0E4A     		ldr	r2, .L12+8
 327 00b0 1279     		ldrb	r2, [r2, #4]	@ zero_extendqisi2
 328 00b2 1A70     		strb	r2, [r3]
 256:.\Generated_Source\PSoC5/I2C_1.c ****         I2C_1_CLKDIV2_REG = I2C_1_backup.clkDiv2;
 329              		.loc 1 256 0
 330 00b4 0E4B     		ldr	r3, .L12+16
 331 00b6 0C4A     		ldr	r2, .L12+8
 332 00b8 5279     		ldrb	r2, [r2, #5]	@ zero_extendqisi2
 333 00ba 1A70     		strb	r2, [r3]
 334              	.LBE2:
 257:.\Generated_Source\PSoC5/I2C_1.c ****     }
 258:.\Generated_Source\PSoC5/I2C_1.c **** #else
 259:.\Generated_Source\PSoC5/I2C_1.c **** 
 260:.\Generated_Source\PSoC5/I2C_1.c ****     /* Disable slave or master bits */
 261:.\Generated_Source\PSoC5/I2C_1.c ****     I2C_1_CFG_REG &= (uint8) ~I2C_1_ENABLE_MS;
 262:.\Generated_Source\PSoC5/I2C_1.c **** 
 263:.\Generated_Source\PSoC5/I2C_1.c **** #if (I2C_1_MODE_SLAVE_ENABLED)
 264:.\Generated_Source\PSoC5/I2C_1.c ****     {
 265:.\Generated_Source\PSoC5/I2C_1.c ****         /* Disable bit counter */
 266:.\Generated_Source\PSoC5/I2C_1.c ****         uint8 intState = CyEnterCriticalSection();
 267:.\Generated_Source\PSoC5/I2C_1.c ****         I2C_1_COUNTER_AUX_CTL_REG &= (uint8) ~I2C_1_CNT7_ENABLE;
 268:.\Generated_Source\PSoC5/I2C_1.c ****         CyExitCriticalSection(intState);
 269:.\Generated_Source\PSoC5/I2C_1.c ****     }
 270:.\Generated_Source\PSoC5/I2C_1.c **** #endif /* (I2C_1_MODE_SLAVE_ENABLED) */
 271:.\Generated_Source\PSoC5/I2C_1.c **** 
 272:.\Generated_Source\PSoC5/I2C_1.c ****     /* Clear interrupt source register */
 273:.\Generated_Source\PSoC5/I2C_1.c ****     (void) I2C_1_CSR_REG;
 274:.\Generated_Source\PSoC5/I2C_1.c **** #endif /* (I2C_1_FF_IMPLEMENTED) */
 275:.\Generated_Source\PSoC5/I2C_1.c **** 
 276:.\Generated_Source\PSoC5/I2C_1.c ****     /* Disable interrupt on stop (enabled by write transaction) */
 277:.\Generated_Source\PSoC5/I2C_1.c ****     I2C_1_DISABLE_INT_ON_STOP;
 335              		.loc 1 277 0
 336 00bc 0D4B     		ldr	r3, .L12+20
 337 00be 0D4A     		ldr	r2, .L12+20
 338 00c0 1278     		ldrb	r2, [r2]
 339 00c2 D2B2     		uxtb	r2, r2
 340 00c4 22F01002 		bic	r2, r2, #16
 341 00c8 D2B2     		uxtb	r2, r2
 342 00ca 1A70     		strb	r2, [r3]
 278:.\Generated_Source\PSoC5/I2C_1.c ****     I2C_1_ClearPendingInt();
 343              		.loc 1 278 0
 344 00cc 0C4B     		ldr	r3, .L12+32
 345 00ce 4FF40042 		mov	r2, #32768
 346 00d2 1A60     		str	r2, [r3]
 279:.\Generated_Source\PSoC5/I2C_1.c **** 
 280:.\Generated_Source\PSoC5/I2C_1.c ****     /* Reset FSM to default state */
 281:.\Generated_Source\PSoC5/I2C_1.c ****     I2C_1_state = I2C_1_SM_IDLE;
ARM GAS  C:\Users\RECEPC~1\AppData\Local\Temp\ccmGFOwu.s 			page 12


 347              		.loc 1 281 0
 348 00d4 0B4B     		ldr	r3, .L12+36
 349 00d6 1022     		movs	r2, #16
 350 00d8 1A70     		strb	r2, [r3]
 282:.\Generated_Source\PSoC5/I2C_1.c **** 
 283:.\Generated_Source\PSoC5/I2C_1.c ****     /* Clear busy statuses */
 284:.\Generated_Source\PSoC5/I2C_1.c **** #if (I2C_1_MODE_SLAVE_ENABLED)
 285:.\Generated_Source\PSoC5/I2C_1.c ****     I2C_1_slStatus &= (uint8) ~(I2C_1_SSTAT_RD_BUSY | I2C_1_SSTAT_WR_BUSY);
 286:.\Generated_Source\PSoC5/I2C_1.c **** #endif /* (I2C_1_MODE_SLAVE_ENABLED) */
 287:.\Generated_Source\PSoC5/I2C_1.c **** }
 351              		.loc 1 287 0
 352 00da 0837     		adds	r7, r7, #8
 353 00dc BD46     		mov	sp, r7
 354              		@ sp needed
 355 00de 80BD     		pop	{r7, pc}
 356              	.L13:
 357              		.align	2
 358              	.L12:
 359 00e0 80E100E0 		.word	-536813184
 360 00e4 CA490040 		.word	1073760714
 361 00e8 00000000 		.word	I2C_1_backup
 362 00ec DB490040 		.word	1073760731
 363 00f0 DC490040 		.word	1073760732
 364 00f4 D6490040 		.word	1073760726
 365 00f8 A5430040 		.word	1073759141
 366 00fc B5430040 		.word	1073759157
 367 0100 80E200E0 		.word	-536812928
 368 0104 00000000 		.word	I2C_1_state
 369              		.cfi_endproc
 370              	.LFE3:
 371              		.size	I2C_1_Stop, .-I2C_1_Stop
 372              		.text
 373              	.Letext0:
 374              		.file 2 ".\\Generated_Source\\PSoC5\\cytypes.h"
 375              		.file 3 ".\\Generated_Source\\PSoC5\\I2C_1.h"
 376              		.file 4 ".\\Generated_Source\\PSoC5\\I2C_1_PVT.h"