ARM GAS  C:\Users\SISTEM~1\AppData\Local\Temp\ccCGHuKi.s 			page 1


   1              		.syntax unified
   2              		.cpu cortex-m3
   3              		.fpu softvfp
   4              		.eabi_attribute 20, 1
   5              		.eabi_attribute 21, 1
   6              		.eabi_attribute 23, 3
   7              		.eabi_attribute 24, 1
   8              		.eabi_attribute 25, 1
   9              		.eabi_attribute 26, 1
  10              		.eabi_attribute 30, 6
  11              		.eabi_attribute 34, 1
  12              		.eabi_attribute 18, 4
  13              		.thumb
  14              		.file	"main.c"
  15              		.text
  16              	.Ltext0:
  17              		.cfi_sections	.debug_frame
  18              		.comm	count_teclas1,1,1
  19              		.comm	comas1,1,1
  20              		.comm	comas2,1,1
  21              		.comm	id_coma1,1,1
  22              		.comm	id_teclado1,1,1
  23              		.comm	count_teclas2,1,1
  24              		.comm	id_coma2,1,1
  25              		.comm	id_teclado2,1,1
  26              		.comm	posx1,2,2
  27              		.comm	posy1,2,2
  28              		.comm	sizeletra1,2,2
  29              		.comm	posx2,2,2
  30              		.comm	posy2,2,2
  31              		.comm	sizeletra2,2,2
  32              		.comm	teclas1,1,1
  33              		.comm	teclas2,1,1
  34              		.comm	flujo_LCD1,1,1
  35              		.comm	flujo_LCD2,1,1
  36              		.comm	Buffer_LCD1,30,4
  37              		.comm	Buffer_LCD2,30,4
  38              		.comm	count_protector,1,1
  39              		.comm	count_protector2,1,1
  40              		.comm	password_lcd,9,4
  41              		.comm	imagen_grado,2,2
  42              		.comm	prox_caso,8,4
  43              		.comm	bloqueo_LCD,3,4
  44              		.comm	id_estacion,5,4
  45              		.comm	id_venta,8,4
  46              		.comm	trama_totales,200,4
  47              		.comm	ppux10,1,1
  48              		.comm	nombre_pro1,17,4
  49              		.comm	nombre_pro2,17,4
  50              		.comm	nombre_pro3,17,4
  51              		.comm	version,4,4
  52              		.comm	lado1,93,4
  53              		.comm	lado2,93,4
  54              		.comm	nombre,33,4
  55              		.comm	nit,15,4
  56              		.comm	telefono,20,4
  57              		.comm	direccion,33,4
ARM GAS  C:\Users\SISTEM~1\AppData\Local\Temp\ccCGHuKi.s 			page 2


  58              		.comm	lema1,32,4
  59              		.comm	lema2,32,4
  60              		.comm	id_logo,2,4
  61              		.comm	km,2,4
  62              		.comm	fecha,3,4
  63              		.comm	hora,2,4
  64              		.comm	rventa1,97,4
  65              		.comm	rventa2,97,4
  66              		.comm	ok_RF,1,1
  67              		.comm	ok_datosRF,1,1
  68              		.comm	rf_mod,200,4
  69              		.comm	buffer_i2c,64,4
  70              		.comm	crc_total,1,1
  71              		.comm	print1,2,4
  72              		.comm	print2,2,4
  73              		.global	letras
  74              		.data
  75              		.align	2
  76              		.type	letras, %object
  77              		.size	letras, 26
  78              	letras:
  79 0000 25       		.byte	37
  80 0001 42       		.byte	66
  81 0002 31       		.byte	49
  82 0003 27       		.byte	39
  83 0004 1D       		.byte	29
  84 0005 28       		.byte	40
  85 0006 29       		.byte	41
  86 0007 2A       		.byte	42
  87 0008 22       		.byte	34
  88 0009 2B       		.byte	43
  89 000a 2C       		.byte	44
  90 000b 2D       		.byte	45
  91 000c 35       		.byte	53
  92 000d 34       		.byte	52
  93 000e 23       		.byte	35
  94 000f 24       		.byte	36
  95 0010 1B       		.byte	27
  96 0011 1E       		.byte	30
  97 0012 26       		.byte	38
  98 0013 1F       		.byte	31
  99 0014 21       		.byte	33
 100 0015 32       		.byte	50
 101 0016 1C       		.byte	28
 102 0017 30       		.byte	48
 103 0018 20       		.byte	32
 104 0019 2F       		.byte	47
 105              		.global	clave_config
 106 001a 0000     		.align	2
 107              		.type	clave_config, %object
 108              		.size	clave_config, 5
 109              	clave_config:
 110 001c 30323431 		.ascii	"02412"
 110      32
 111              		.global	test
 112 0021 000000   		.align	2
 113              		.type	test, %object
ARM GAS  C:\Users\SISTEM~1\AppData\Local\Temp\ccCGHuKi.s 			page 3


 114              		.size	test, 18
 115              	test:
 116 0024 54657374 		.ascii	"Test de Impresora\000"
 116      20646520 
 116      496D7072 
 116      65736F72 
 116      6100
 117              		.comm	num_decimal2,2,2
 118              		.comm	idaux,8,4
 119              		.comm	state_rf,1,1
 120 0036 0000     		.section	.text.init,"ax",%progbits
 121              		.align	2
 122              		.global	init
 123              		.thumb
 124              		.thumb_func
 125              		.type	init, %function
 126              	init:
 127              	.LFB63:
 128              		.file 1 ".\\main.c"
   1:.\main.c      **** /*
   2:.\main.c      **** ***************************************************************************************************
   3:.\main.c      **** *                                           GRP550M CODE2
   4:.\main.c      **** *
   5:.\main.c      **** *                             (c) Copyright 2013; Sistemas Insepet LTDA
   6:.\main.c      **** *
   7:.\main.c      **** *               All rights reserved.  Protected by international copyright laws.
   8:.\main.c      **** *               Knowledge of the source code may NOT be used to develop a similar product.
   9:.\main.c      **** *               Please help us continue to provide the Embedded community with the finest
  10:.\main.c      **** *               software available.  Your honesty is greatly appreciated.
  11:.\main.c      **** ***************************************************************************************************
  12:.\main.c      **** */
  13:.\main.c      **** 
  14:.\main.c      **** /*
  15:.\main.c      **** ***************************************************************************************************
  16:.\main.c      **** *
  17:.\main.c      **** *                                               GRP550M CODE
  18:.\main.c      **** *
  19:.\main.c      **** *                                             CYPRESS PSoC5LP
  20:.\main.c      **** *                                                with the
  21:.\main.c      **** *                                            CY8C5969AXI-LP035
  22:.\main.c      **** *
  23:.\main.c      **** * Filename      : main.c
  24:.\main.c      **** * Version       : V2.00
  25:.\main.c      **** * Programmer(s) : 
  26:.\main.c      ****                   
  27:.\main.c      **** ***************************************************************************************************
  28:.\main.c      **** */
  29:.\main.c      **** 
  30:.\main.c      **** /*
  31:.\main.c      **** ***************************************************************************************************
  32:.\main.c      **** *                                             INCLUDE FILES
  33:.\main.c      **** ***************************************************************************************************
  34:.\main.c      **** */
  35:.\main.c      **** 
  36:.\main.c      **** #include <device.h>
  37:.\main.c      **** #include <math.h>
  38:.\main.c      **** #include <stdio.h>
ARM GAS  C:\Users\SISTEM~1\AppData\Local\Temp\ccCGHuKi.s 			page 4


  39:.\main.c      **** #include <stdlib.h>
  40:.\main.c      **** #include <string.h>
  41:.\main.c      **** #include "Protocolo.h"
  42:.\main.c      **** #include "VariablesG.h"
  43:.\main.c      **** #include "Print.h"
  44:.\main.c      **** #include "LCD.h"
  45:.\main.c      **** #include "ibutton.h"
  46:.\main.c      **** #include "i2c.h"
  47:.\main.c      **** 
  48:.\main.c      **** /*
  49:.\main.c      **** ***************************************************************************************************
  50:.\main.c      **** *                                             DECLARACION DE FUNCIONES
  51:.\main.c      **** ***************************************************************************************************
  52:.\main.c      **** */
  53:.\main.c      **** uint8 letras[26]={0x25,0x42,0x31,0x27,0x1D,0x28,0x29,0x2A,0x22,0x2B,0x2C,0x2D,0x35,0x34,0x23,0x24,0
  54:.\main.c      **** uint8 clave_config[5]="02412";
  55:.\main.c      **** uint8 test[18]="Test de Impresora";
  56:.\main.c      **** uint16 num_decimal2;
  57:.\main.c      **** CY_ISR(animacion);
  58:.\main.c      **** CY_ISR(animacion2);
  59:.\main.c      **** CY_ISR(modo_mux);
  60:.\main.c      **** uint8 idaux[8];
  61:.\main.c      **** uint8 state_rf;
  62:.\main.c      **** /*
  63:.\main.c      **** ***************************************************************************************************
  64:.\main.c      **** *                                         init( void )
  65:.\main.c      **** *
  66:.\main.c      **** * Description : 
  67:.\main.c      **** *               
  68:.\main.c      **** *
  69:.\main.c      **** * Argument(s) : none
  70:.\main.c      **** *
  71:.\main.c      **** * Return(s)   : none
  72:.\main.c      **** *
  73:.\main.c      **** * Caller(s)   : 
  74:.\main.c      **** *
  75:.\main.c      **** * Note(s)     : none.
  76:.\main.c      **** ***************************************************************************************************
  77:.\main.c      **** */
  78:.\main.c      **** void init(void){
 129              		.loc 1 78 0
 130              		.cfi_startproc
 131              		@ args = 0, pretend = 0, frame = 8
 132              		@ frame_needed = 1, uses_anonymous_args = 0
 133 0000 90B5     		push	{r4, r7, lr}
 134              		.cfi_def_cfa_offset 12
 135              		.cfi_offset 4, -12
 136              		.cfi_offset 7, -8
 137              		.cfi_offset 14, -4
 138 0002 83B0     		sub	sp, sp, #12
 139              		.cfi_def_cfa_offset 24
 140 0004 00AF     		add	r7, sp, #0
 141              		.cfi_def_cfa_register 7
  79:.\main.c      **** 	uint8 x;
  80:.\main.c      ****     CyGlobalIntEnable;
 142              		.loc 1 80 0
 143              	@ 80 ".\main.c" 1
ARM GAS  C:\Users\SISTEM~1\AppData\Local\Temp\ccCGHuKi.s 			page 5


 144 0006 62B6     		CPSIE   i
 145              	@ 0 "" 2
  81:.\main.c      ****     Surtidor_EnableRxInt();
 146              		.loc 1 81 0
 147              		.thumb
 148 0008 804B     		ldr	r3, .L14
 149 000a 2022     		movs	r2, #32
 150 000c 1A60     		str	r2, [r3]
  82:.\main.c      **** 	PC_Start();
 151              		.loc 1 82 0
 152 000e FFF7FEFF 		bl	PC_Start
  83:.\main.c      ****     PC_EnableRxInt();
 153              		.loc 1 83 0
 154 0012 7E4B     		ldr	r3, .L14
 155 0014 1022     		movs	r2, #16
 156 0016 1A60     		str	r2, [r3]
  84:.\main.c      ****     I2C_1_Start();
 157              		.loc 1 84 0
 158 0018 FFF7FEFF 		bl	I2C_1_Start
  85:.\main.c      ****     Surtidor_Start();
 159              		.loc 1 85 0
 160 001c FFF7FEFF 		bl	Surtidor_Start
  86:.\main.c      ****     Impresora_Start();
 161              		.loc 1 86 0
 162 0020 FFF7FEFF 		bl	Impresora_Start
  87:.\main.c      ****     LCD_1_Start();
 163              		.loc 1 87 0
 164 0024 FFF7FEFF 		bl	LCD_1_Start
  88:.\main.c      ****     LCD_2_Start();
 165              		.loc 1 88 0
 166 0028 FFF7FEFF 		bl	LCD_2_Start
  89:.\main.c      ****     LCD_1_EnableRxInt();
 167              		.loc 1 89 0
 168 002c 774B     		ldr	r3, .L14
 169 002e 0222     		movs	r2, #2
 170 0030 1A60     		str	r2, [r3]
  90:.\main.c      **** 	LCD_2_EnableRxInt();
 171              		.loc 1 90 0
 172 0032 764B     		ldr	r3, .L14
 173 0034 0422     		movs	r2, #4
 174 0036 1A60     		str	r2, [r3]
  91:.\main.c      ****     LP_Start();	
 175              		.loc 1 91 0
 176 0038 FFF7FEFF 		bl	LP_Start
  92:.\main.c      ****     LP_EnableRxInt();    	
 177              		.loc 1 92 0
 178 003c 734B     		ldr	r3, .L14
 179 003e 0822     		movs	r2, #8
 180 0040 1A60     		str	r2, [r3]
  93:.\main.c      **** 	EEPROM_Start();
 181              		.loc 1 93 0
 182 0042 FFF7FEFF 		bl	EEPROM_Start
  94:.\main.c      **** 	//Timer_Modo_Start();
  95:.\main.c      **** 	//isr_5_StartEx(modo_mux);
  96:.\main.c      **** 	/***********Iniciacionde variables***************/
  97:.\main.c      **** 	lado1.grado[0][0]=0;
 183              		.loc 1 97 0
ARM GAS  C:\Users\SISTEM~1\AppData\Local\Temp\ccCGHuKi.s 			page 6


 184 0046 724B     		ldr	r3, .L14+4
 185 0048 0022     		movs	r2, #0
 186 004a 83F85920 		strb	r2, [r3, #89]
  98:.\main.c      **** 	lado1.grado[1][0]=0;
 187              		.loc 1 98 0
 188 004e 704B     		ldr	r3, .L14+4
 189 0050 0022     		movs	r2, #0
 190 0052 83F85A20 		strb	r2, [r3, #90]
  99:.\main.c      **** 	lado1.grado[2][0]=0;
 191              		.loc 1 99 0
 192 0056 6E4B     		ldr	r3, .L14+4
 193 0058 0022     		movs	r2, #0
 194 005a 83F85B20 		strb	r2, [r3, #91]
 100:.\main.c      **** 	lado2.grado[0][0]=0;
 195              		.loc 1 100 0
 196 005e 6D4B     		ldr	r3, .L14+8
 197 0060 0022     		movs	r2, #0
 198 0062 83F85920 		strb	r2, [r3, #89]
 101:.\main.c      **** 	lado2.grado[1][0]=0;
 199              		.loc 1 101 0
 200 0066 6B4B     		ldr	r3, .L14+8
 201 0068 0022     		movs	r2, #0
 202 006a 83F85A20 		strb	r2, [r3, #90]
 102:.\main.c      **** 	lado2.grado[2][0]=0;
 203              		.loc 1 102 0
 204 006e 694B     		ldr	r3, .L14+8
 205 0070 0022     		movs	r2, #0
 206 0072 83F85B20 		strb	r2, [r3, #91]
 103:.\main.c      **** 	/*for(y=0;y<=2;y++){
 104:.\main.c      **** 		for(x=0;x<=23;x++){
 105:.\main.c      **** 			lado1.totales[y][x]=0;
 106:.\main.c      **** 		}
 107:.\main.c      **** 	}
 108:.\main.c      **** 	for(y=0;y<=2;y++){
 109:.\main.c      **** 		for(x=0;x<=23;x++){
 110:.\main.c      **** 			lado2.totales[y][x]=0;
 111:.\main.c      **** 		}
 112:.\main.c      **** 	}*/	
 113:.\main.c      ****     CyDelay(5);
 207              		.loc 1 113 0
 208 0076 0520     		movs	r0, #5
 209 0078 FFF7FEFF 		bl	CyDelay
 114:.\main.c      **** 	/******************Lectura de EEPROM*************/
 115:.\main.c      **** 	for(x=0;x<=7;x++){										//Id venta
 210              		.loc 1 115 0
 211 007c 0023     		movs	r3, #0
 212 007e FB71     		strb	r3, [r7, #7]
 213 0080 0CE0     		b	.L2
 214              	.L3:
 116:.\main.c      **** 		id_venta[x]=EEPROM_ReadByte(x);
 215              		.loc 1 116 0 discriminator 2
 216 0082 FC79     		ldrb	r4, [r7, #7]	@ zero_extendqisi2
 217 0084 FB79     		ldrb	r3, [r7, #7]	@ zero_extendqisi2
 218 0086 9BB2     		uxth	r3, r3
 219 0088 1846     		mov	r0, r3
 220 008a FFF7FEFF 		bl	EEPROM_ReadByte
 221 008e 0346     		mov	r3, r0
ARM GAS  C:\Users\SISTEM~1\AppData\Local\Temp\ccCGHuKi.s 			page 7


 222 0090 1A46     		mov	r2, r3
 223 0092 614B     		ldr	r3, .L14+12
 224 0094 1A55     		strb	r2, [r3, r4]
 115:.\main.c      **** 	for(x=0;x<=7;x++){										//Id venta
 225              		.loc 1 115 0 discriminator 2
 226 0096 FB79     		ldrb	r3, [r7, #7]	@ zero_extendqisi2
 227 0098 0133     		adds	r3, r3, #1
 228 009a FB71     		strb	r3, [r7, #7]
 229              	.L2:
 115:.\main.c      **** 	for(x=0;x<=7;x++){										//Id venta
 230              		.loc 1 115 0 is_stmt 0 discriminator 1
 231 009c FB79     		ldrb	r3, [r7, #7]	@ zero_extendqisi2
 232 009e 072B     		cmp	r3, #7
 233 00a0 EFD9     		bls	.L3
 117:.\main.c      **** 	}
 118:.\main.c      **** 	if(id_venta[0]!=7){
 234              		.loc 1 118 0 is_stmt 1
 235 00a2 5D4B     		ldr	r3, .L14+12
 236 00a4 1B78     		ldrb	r3, [r3]
 237 00a6 DBB2     		uxtb	r3, r3
 238 00a8 072B     		cmp	r3, #7
 239 00aa 2AD0     		beq	.L4
 119:.\main.c      **** 		id_venta[0]=7;	
 240              		.loc 1 119 0
 241 00ac 5A4B     		ldr	r3, .L14+12
 242 00ae 0722     		movs	r2, #7
 243 00b0 1A70     		strb	r2, [r3]
 120:.\main.c      **** 		id_venta[1]='0';
 244              		.loc 1 120 0
 245 00b2 594B     		ldr	r3, .L14+12
 246 00b4 3022     		movs	r2, #48
 247 00b6 5A70     		strb	r2, [r3, #1]
 121:.\main.c      **** 		id_venta[2]='0';
 248              		.loc 1 121 0
 249 00b8 574B     		ldr	r3, .L14+12
 250 00ba 3022     		movs	r2, #48
 251 00bc 9A70     		strb	r2, [r3, #2]
 122:.\main.c      **** 		id_venta[3]='0';
 252              		.loc 1 122 0
 253 00be 564B     		ldr	r3, .L14+12
 254 00c0 3022     		movs	r2, #48
 255 00c2 DA70     		strb	r2, [r3, #3]
 123:.\main.c      **** 		id_venta[4]='1';
 256              		.loc 1 123 0
 257 00c4 544B     		ldr	r3, .L14+12
 258 00c6 3122     		movs	r2, #49
 259 00c8 1A71     		strb	r2, [r3, #4]
 124:.\main.c      **** 		id_venta[5]='0';
 260              		.loc 1 124 0
 261 00ca 534B     		ldr	r3, .L14+12
 262 00cc 3022     		movs	r2, #48
 263 00ce 5A71     		strb	r2, [r3, #5]
 125:.\main.c      **** 		id_venta[6]='2';
 264              		.loc 1 125 0
 265 00d0 514B     		ldr	r3, .L14+12
 266 00d2 3222     		movs	r2, #50
 267 00d4 9A71     		strb	r2, [r3, #6]
ARM GAS  C:\Users\SISTEM~1\AppData\Local\Temp\ccCGHuKi.s 			page 8


 126:.\main.c      **** 		id_venta[7]='9';
 268              		.loc 1 126 0
 269 00d6 504B     		ldr	r3, .L14+12
 270 00d8 3922     		movs	r2, #57
 271 00da DA71     		strb	r2, [r3, #7]
 127:.\main.c      **** 		for(x=0;x<=7;x++){									
 272              		.loc 1 127 0
 273 00dc 0023     		movs	r3, #0
 274 00de FB71     		strb	r3, [r7, #7]
 275 00e0 0CE0     		b	.L5
 276              	.L6:
 128:.\main.c      **** 			EEPROM_WriteByte(id_venta[x], x);
 277              		.loc 1 128 0 discriminator 2
 278 00e2 FB79     		ldrb	r3, [r7, #7]	@ zero_extendqisi2
 279 00e4 4C4A     		ldr	r2, .L14+12
 280 00e6 D35C     		ldrb	r3, [r2, r3]
 281 00e8 DAB2     		uxtb	r2, r3
 282 00ea FB79     		ldrb	r3, [r7, #7]	@ zero_extendqisi2
 283 00ec 9BB2     		uxth	r3, r3
 284 00ee 1046     		mov	r0, r2
 285 00f0 1946     		mov	r1, r3
 286 00f2 FFF7FEFF 		bl	EEPROM_WriteByte
 127:.\main.c      **** 		for(x=0;x<=7;x++){									
 287              		.loc 1 127 0 discriminator 2
 288 00f6 FB79     		ldrb	r3, [r7, #7]	@ zero_extendqisi2
 289 00f8 0133     		adds	r3, r3, #1
 290 00fa FB71     		strb	r3, [r7, #7]
 291              	.L5:
 127:.\main.c      **** 		for(x=0;x<=7;x++){									
 292              		.loc 1 127 0 is_stmt 0 discriminator 1
 293 00fc FB79     		ldrb	r3, [r7, #7]	@ zero_extendqisi2
 294 00fe 072B     		cmp	r3, #7
 295 0100 EFD9     		bls	.L6
 296              	.L4:
 129:.\main.c      **** 		}
 130:.\main.c      **** 	}
 131:.\main.c      **** 	num_decimal2=((id_venta[4]&0x0F)*1000)+((id_venta[3]&0x0F)*100)+((id_venta[2]&0x0F)*10)+((id_venta
 297              		.loc 1 131 0 is_stmt 1
 298 0102 454B     		ldr	r3, .L14+12
 299 0104 1B79     		ldrb	r3, [r3, #4]
 300 0106 DBB2     		uxtb	r3, r3
 301 0108 03F00F03 		and	r3, r3, #15
 302 010c 9BB2     		uxth	r3, r3
 303 010e 1A46     		mov	r2, r3	@ movhi
 304 0110 5201     		lsls	r2, r2, #5
 305 0112 D21A     		subs	r2, r2, r3
 306 0114 9200     		lsls	r2, r2, #2
 307 0116 1344     		add	r3, r3, r2
 308 0118 DB00     		lsls	r3, r3, #3
 309 011a 9AB2     		uxth	r2, r3
 310 011c 3E4B     		ldr	r3, .L14+12
 311 011e DB78     		ldrb	r3, [r3, #3]
 312 0120 DBB2     		uxtb	r3, r3
 313 0122 03F00F03 		and	r3, r3, #15
 314 0126 9BB2     		uxth	r3, r3
 315 0128 1946     		mov	r1, r3	@ movhi
 316 012a 8900     		lsls	r1, r1, #2
ARM GAS  C:\Users\SISTEM~1\AppData\Local\Temp\ccCGHuKi.s 			page 9


 317 012c 0B44     		add	r3, r3, r1
 318 012e 1946     		mov	r1, r3	@ movhi
 319 0130 8800     		lsls	r0, r1, #2
 320 0132 1946     		mov	r1, r3	@ movhi
 321 0134 0346     		mov	r3, r0	@ movhi
 322 0136 0B44     		add	r3, r3, r1
 323 0138 9B00     		lsls	r3, r3, #2
 324 013a 9BB2     		uxth	r3, r3
 325 013c 1344     		add	r3, r3, r2
 326 013e 9AB2     		uxth	r2, r3
 327 0140 354B     		ldr	r3, .L14+12
 328 0142 9B78     		ldrb	r3, [r3, #2]
 329 0144 DBB2     		uxtb	r3, r3
 330 0146 03F00F03 		and	r3, r3, #15
 331 014a 9BB2     		uxth	r3, r3
 332 014c 1946     		mov	r1, r3	@ movhi
 333 014e 8900     		lsls	r1, r1, #2
 334 0150 0B44     		add	r3, r3, r1
 335 0152 5B00     		lsls	r3, r3, #1
 336 0154 9BB2     		uxth	r3, r3
 337 0156 1344     		add	r3, r3, r2
 338 0158 9AB2     		uxth	r2, r3
 339 015a 2F4B     		ldr	r3, .L14+12
 340 015c 5B78     		ldrb	r3, [r3, #1]
 341 015e DBB2     		uxtb	r3, r3
 342 0160 03F00F03 		and	r3, r3, #15
 343 0164 9BB2     		uxth	r3, r3
 344 0166 1344     		add	r3, r3, r2
 345 0168 9AB2     		uxth	r2, r3
 346 016a 2C4B     		ldr	r3, .L14+16
 347 016c 1A80     		strh	r2, [r3]	@ movhi
 132:.\main.c      **** 	for(x=8;x<=12;x++){										//Id estacion
 348              		.loc 1 132 0
 349 016e 0823     		movs	r3, #8
 350 0170 FB71     		strb	r3, [r7, #7]
 351 0172 0EE0     		b	.L7
 352              	.L8:
 133:.\main.c      **** 		id_estacion[x-8]=EEPROM_ReadByte(x);
 353              		.loc 1 133 0 discriminator 2
 354 0174 FB79     		ldrb	r3, [r7, #7]	@ zero_extendqisi2
 355 0176 A3F10804 		sub	r4, r3, #8
 356 017a FB79     		ldrb	r3, [r7, #7]	@ zero_extendqisi2
 357 017c 9BB2     		uxth	r3, r3
 358 017e 1846     		mov	r0, r3
 359 0180 FFF7FEFF 		bl	EEPROM_ReadByte
 360 0184 0346     		mov	r3, r0
 361 0186 1A46     		mov	r2, r3
 362 0188 254B     		ldr	r3, .L14+20
 363 018a 1A55     		strb	r2, [r3, r4]
 132:.\main.c      **** 	for(x=8;x<=12;x++){										//Id estacion
 364              		.loc 1 132 0 discriminator 2
 365 018c FB79     		ldrb	r3, [r7, #7]	@ zero_extendqisi2
 366 018e 0133     		adds	r3, r3, #1
 367 0190 FB71     		strb	r3, [r7, #7]
 368              	.L7:
 132:.\main.c      **** 	for(x=8;x<=12;x++){										//Id estacion
 369              		.loc 1 132 0 is_stmt 0 discriminator 1
ARM GAS  C:\Users\SISTEM~1\AppData\Local\Temp\ccCGHuKi.s 			page 10


 370 0192 FB79     		ldrb	r3, [r7, #7]	@ zero_extendqisi2
 371 0194 0C2B     		cmp	r3, #12
 372 0196 EDD9     		bls	.L8
 134:.\main.c      **** 	}	
 135:.\main.c      **** 	if(id_estacion[0]!=4){
 373              		.loc 1 135 0 is_stmt 1
 374 0198 214B     		ldr	r3, .L14+20
 375 019a 1B78     		ldrb	r3, [r3]
 376 019c DBB2     		uxtb	r3, r3
 377 019e 042B     		cmp	r3, #4
 378 01a0 31D0     		beq	.L9
 136:.\main.c      **** 		id_estacion[0]=4;	
 379              		.loc 1 136 0
 380 01a2 1F4B     		ldr	r3, .L14+20
 381 01a4 0422     		movs	r2, #4
 382 01a6 1A70     		strb	r2, [r3]
 137:.\main.c      **** 		id_estacion[1]='4';
 383              		.loc 1 137 0
 384 01a8 1D4B     		ldr	r3, .L14+20
 385 01aa 3422     		movs	r2, #52
 386 01ac 5A70     		strb	r2, [r3, #1]
 138:.\main.c      **** 		id_estacion[2]='0';
 387              		.loc 1 138 0
 388 01ae 1C4B     		ldr	r3, .L14+20
 389 01b0 3022     		movs	r2, #48
 390 01b2 9A70     		strb	r2, [r3, #2]
 139:.\main.c      **** 		id_estacion[3]='0';
 391              		.loc 1 139 0
 392 01b4 1A4B     		ldr	r3, .L14+20
 393 01b6 3022     		movs	r2, #48
 394 01b8 DA70     		strb	r2, [r3, #3]
 140:.\main.c      **** 		id_estacion[4]='0';
 395              		.loc 1 140 0
 396 01ba 194B     		ldr	r3, .L14+20
 397 01bc 3022     		movs	r2, #48
 398 01be 1A71     		strb	r2, [r3, #4]
 141:.\main.c      **** 		for(x=8;x<=12;x++){	
 399              		.loc 1 141 0
 400 01c0 0823     		movs	r3, #8
 401 01c2 FB71     		strb	r3, [r7, #7]
 402 01c4 1CE0     		b	.L10
 403              	.L11:
 142:.\main.c      ****             id_estacion[0]=4;	
 404              		.loc 1 142 0 discriminator 2
 405 01c6 164B     		ldr	r3, .L14+20
 406 01c8 0422     		movs	r2, #4
 407 01ca 1A70     		strb	r2, [r3]
 143:.\main.c      **** 	    	id_estacion[1]='4';
 408              		.loc 1 143 0 discriminator 2
 409 01cc 144B     		ldr	r3, .L14+20
 410 01ce 3422     		movs	r2, #52
 411 01d0 5A70     		strb	r2, [r3, #1]
 144:.\main.c      **** 		    id_estacion[2]='0';
 412              		.loc 1 144 0 discriminator 2
 413 01d2 134B     		ldr	r3, .L14+20
 414 01d4 3022     		movs	r2, #48
 415 01d6 9A70     		strb	r2, [r3, #2]
ARM GAS  C:\Users\SISTEM~1\AppData\Local\Temp\ccCGHuKi.s 			page 11


 145:.\main.c      **** 		    id_estacion[3]='0';
 416              		.loc 1 145 0 discriminator 2
 417 01d8 114B     		ldr	r3, .L14+20
 418 01da 3022     		movs	r2, #48
 419 01dc DA70     		strb	r2, [r3, #3]
 146:.\main.c      **** 		    id_estacion[4]='0';
 420              		.loc 1 146 0 discriminator 2
 421 01de 104B     		ldr	r3, .L14+20
 422 01e0 3022     		movs	r2, #48
 423 01e2 1A71     		strb	r2, [r3, #4]
 147:.\main.c      **** 			EEPROM_WriteByte(id_estacion[x-8], x);
 424              		.loc 1 147 0 discriminator 2
 425 01e4 FB79     		ldrb	r3, [r7, #7]	@ zero_extendqisi2
 426 01e6 083B     		subs	r3, r3, #8
 427 01e8 0D4A     		ldr	r2, .L14+20
 428 01ea D35C     		ldrb	r3, [r2, r3]
 429 01ec DAB2     		uxtb	r2, r3
 430 01ee FB79     		ldrb	r3, [r7, #7]	@ zero_extendqisi2
 431 01f0 9BB2     		uxth	r3, r3
 432 01f2 1046     		mov	r0, r2
 433 01f4 1946     		mov	r1, r3
 434 01f6 FFF7FEFF 		bl	EEPROM_WriteByte
 141:.\main.c      **** 		for(x=8;x<=12;x++){	
 435              		.loc 1 141 0 discriminator 2
 436 01fa FB79     		ldrb	r3, [r7, #7]	@ zero_extendqisi2
 437 01fc 0133     		adds	r3, r3, #1
 438 01fe FB71     		strb	r3, [r7, #7]
 439              	.L10:
 141:.\main.c      **** 		for(x=8;x<=12;x++){	
 440              		.loc 1 141 0 is_stmt 0 discriminator 1
 441 0200 FB79     		ldrb	r3, [r7, #7]	@ zero_extendqisi2
 442 0202 0C2B     		cmp	r3, #12
 443 0204 DFD9     		bls	.L11
 444              	.L9:
 148:.\main.c      **** 		}	
 149:.\main.c      **** 	}
 150:.\main.c      **** 	for(x=13;x<=14;x++){									//Logo
 445              		.loc 1 150 0 is_stmt 1
 446 0206 0D23     		movs	r3, #13
 447 0208 FB71     		strb	r3, [r7, #7]
 448 020a 1AE0     		b	.L12
 449              	.L15:
 450              		.align	2
 451              	.L14:
 452 020c 00E100E0 		.word	-536813312
 453 0210 00000000 		.word	lado1
 454 0214 00000000 		.word	lado2
 455 0218 00000000 		.word	id_venta
 456 021c 00000000 		.word	num_decimal2
 457 0220 00000000 		.word	id_estacion
 458              	.L13:
 151:.\main.c      **** 		id_logo[x-13]=EEPROM_ReadByte(x);
 459              		.loc 1 151 0 discriminator 2
 460 0224 FB79     		ldrb	r3, [r7, #7]	@ zero_extendqisi2
 461 0226 A3F10D04 		sub	r4, r3, #13
 462 022a FB79     		ldrb	r3, [r7, #7]	@ zero_extendqisi2
 463 022c 9BB2     		uxth	r3, r3
ARM GAS  C:\Users\SISTEM~1\AppData\Local\Temp\ccCGHuKi.s 			page 12


 464 022e 1846     		mov	r0, r3
 465 0230 FFF7FEFF 		bl	EEPROM_ReadByte
 466 0234 0346     		mov	r3, r0
 467 0236 1A46     		mov	r2, r3
 468 0238 4C4B     		ldr	r3, .L16
 469 023a 1A55     		strb	r2, [r3, r4]
 150:.\main.c      **** 	for(x=13;x<=14;x++){									//Logo
 470              		.loc 1 150 0 discriminator 2
 471 023c FB79     		ldrb	r3, [r7, #7]	@ zero_extendqisi2
 472 023e 0133     		adds	r3, r3, #1
 473 0240 FB71     		strb	r3, [r7, #7]
 474              	.L12:
 150:.\main.c      **** 	for(x=13;x<=14;x++){									//Logo
 475              		.loc 1 150 0 is_stmt 0 discriminator 1
 476 0242 FB79     		ldrb	r3, [r7, #7]	@ zero_extendqisi2
 477 0244 0E2B     		cmp	r3, #14
 478 0246 EDD9     		bls	.L13
 152:.\main.c      **** 	}
 153:.\main.c      **** 	lado1.mangueras=EEPROM_ReadByte(15);					//Numero de grados y codigo de cada uno 1
 479              		.loc 1 153 0 is_stmt 1
 480 0248 0F20     		movs	r0, #15
 481 024a FFF7FEFF 		bl	EEPROM_ReadByte
 482 024e 0346     		mov	r3, r0
 483 0250 1A46     		mov	r2, r3
 484 0252 474B     		ldr	r3, .L16+4
 485 0254 83F85C20 		strb	r2, [r3, #92]
 154:.\main.c      **** 	lado1.grado[0][0]=EEPROM_ReadByte(16);
 486              		.loc 1 154 0
 487 0258 1020     		movs	r0, #16
 488 025a FFF7FEFF 		bl	EEPROM_ReadByte
 489 025e 0346     		mov	r3, r0
 490 0260 1A46     		mov	r2, r3
 491 0262 434B     		ldr	r3, .L16+4
 492 0264 83F85920 		strb	r2, [r3, #89]
 155:.\main.c      **** 	lado1.grado[1][0]=EEPROM_ReadByte(17);
 493              		.loc 1 155 0
 494 0268 1120     		movs	r0, #17
 495 026a FFF7FEFF 		bl	EEPROM_ReadByte
 496 026e 0346     		mov	r3, r0
 497 0270 1A46     		mov	r2, r3
 498 0272 3F4B     		ldr	r3, .L16+4
 499 0274 83F85A20 		strb	r2, [r3, #90]
 156:.\main.c      **** 	lado1.grado[2][0]=EEPROM_ReadByte(18);
 500              		.loc 1 156 0
 501 0278 1220     		movs	r0, #18
 502 027a FFF7FEFF 		bl	EEPROM_ReadByte
 503 027e 0346     		mov	r3, r0
 504 0280 1A46     		mov	r2, r3
 505 0282 3B4B     		ldr	r3, .L16+4
 506 0284 83F85B20 		strb	r2, [r3, #91]
 157:.\main.c      **** 	
 158:.\main.c      **** 	lado2.mangueras=EEPROM_ReadByte(19);					//Numero de grados y codigo de cada uno 1
 507              		.loc 1 158 0
 508 0288 1320     		movs	r0, #19
 509 028a FFF7FEFF 		bl	EEPROM_ReadByte
 510 028e 0346     		mov	r3, r0
 511 0290 1A46     		mov	r2, r3
ARM GAS  C:\Users\SISTEM~1\AppData\Local\Temp\ccCGHuKi.s 			page 13


 512 0292 384B     		ldr	r3, .L16+8
 513 0294 83F85C20 		strb	r2, [r3, #92]
 159:.\main.c      **** 	lado2.grado[0][0]=EEPROM_ReadByte(20);
 514              		.loc 1 159 0
 515 0298 1420     		movs	r0, #20
 516 029a FFF7FEFF 		bl	EEPROM_ReadByte
 517 029e 0346     		mov	r3, r0
 518 02a0 1A46     		mov	r2, r3
 519 02a2 344B     		ldr	r3, .L16+8
 520 02a4 83F85920 		strb	r2, [r3, #89]
 160:.\main.c      **** 	lado2.grado[1][0]=EEPROM_ReadByte(21);
 521              		.loc 1 160 0
 522 02a8 1520     		movs	r0, #21
 523 02aa FFF7FEFF 		bl	EEPROM_ReadByte
 524 02ae 0346     		mov	r3, r0
 525 02b0 1A46     		mov	r2, r3
 526 02b2 304B     		ldr	r3, .L16+8
 527 02b4 83F85A20 		strb	r2, [r3, #90]
 161:.\main.c      **** 	lado2.grado[2][0]=EEPROM_ReadByte(22);	
 528              		.loc 1 161 0
 529 02b8 1620     		movs	r0, #22
 530 02ba FFF7FEFF 		bl	EEPROM_ReadByte
 531 02be 0346     		mov	r3, r0
 532 02c0 1A46     		mov	r2, r3
 533 02c2 2C4B     		ldr	r3, .L16+8
 534 02c4 83F85B20 		strb	r2, [r3, #91]
 162:.\main.c      **** 	
 163:.\main.c      **** 	ppux10=EEPROM_ReadByte(23);								//PPU X10
 535              		.loc 1 163 0
 536 02c8 1720     		movs	r0, #23
 537 02ca FFF7FEFF 		bl	EEPROM_ReadByte
 538 02ce 0346     		mov	r3, r0
 539 02d0 1A46     		mov	r2, r3
 540 02d2 294B     		ldr	r3, .L16+12
 541 02d4 1A70     		strb	r2, [r3]
 164:.\main.c      **** 
 165:.\main.c      **** 	version[1]=EEPROM_ReadByte(30);							//Version de digitos y decimales
 542              		.loc 1 165 0
 543 02d6 1E20     		movs	r0, #30
 544 02d8 FFF7FEFF 		bl	EEPROM_ReadByte
 545 02dc 0346     		mov	r3, r0
 546 02de 1A46     		mov	r2, r3
 547 02e0 264B     		ldr	r3, .L16+16
 548 02e2 5A70     		strb	r2, [r3, #1]
 166:.\main.c      **** 	version[2]=EEPROM_ReadByte(31);
 549              		.loc 1 166 0
 550 02e4 1F20     		movs	r0, #31
 551 02e6 FFF7FEFF 		bl	EEPROM_ReadByte
 552 02ea 0346     		mov	r3, r0
 553 02ec 1A46     		mov	r2, r3
 554 02ee 234B     		ldr	r3, .L16+16
 555 02f0 9A70     		strb	r2, [r3, #2]
 167:.\main.c      **** 	version[3]=EEPROM_ReadByte(32);
 556              		.loc 1 167 0
 557 02f2 2020     		movs	r0, #32
 558 02f4 FFF7FEFF 		bl	EEPROM_ReadByte
 559 02f8 0346     		mov	r3, r0
ARM GAS  C:\Users\SISTEM~1\AppData\Local\Temp\ccCGHuKi.s 			page 14


 560 02fa 1A46     		mov	r2, r3
 561 02fc 1F4B     		ldr	r3, .L16+16
 562 02fe DA70     		strb	r2, [r3, #3]
 168:.\main.c      **** 		 
 169:.\main.c      **** 	lado1.dir=EEPROM_ReadByte(26);							//Lado A
 563              		.loc 1 169 0
 564 0300 1A20     		movs	r0, #26
 565 0302 FFF7FEFF 		bl	EEPROM_ReadByte
 566 0306 0346     		mov	r3, r0
 567 0308 1A46     		mov	r2, r3
 568 030a 194B     		ldr	r3, .L16+4
 569 030c 1A70     		strb	r2, [r3]
 170:.\main.c      **** 
 171:.\main.c      **** 	lado2.dir=EEPROM_ReadByte(28);							//Lado B
 570              		.loc 1 171 0
 571 030e 1C20     		movs	r0, #28
 572 0310 FFF7FEFF 		bl	EEPROM_ReadByte
 573 0314 0346     		mov	r3, r0
 574 0316 1A46     		mov	r2, r3
 575 0318 164B     		ldr	r3, .L16+8
 576 031a 1A70     		strb	r2, [r3]
 172:.\main.c      **** 
 173:.\main.c      ****     lado1.estado=libre;
 577              		.loc 1 173 0
 578 031c 144B     		ldr	r3, .L16+4
 579 031e 0122     		movs	r2, #1
 580 0320 5A70     		strb	r2, [r3, #1]
 174:.\main.c      ****     lado2.estado=libre;
 581              		.loc 1 174 0
 582 0322 144B     		ldr	r3, .L16+8
 583 0324 0122     		movs	r2, #1
 584 0326 5A70     		strb	r2, [r3, #1]
 175:.\main.c      **** 	ppux10=1;
 585              		.loc 1 175 0
 586 0328 134B     		ldr	r3, .L16+12
 587 032a 0122     		movs	r2, #1
 588 032c 1A70     		strb	r2, [r3]
 176:.\main.c      **** 	lado1.mangueras=2;
 589              		.loc 1 176 0
 590 032e 104B     		ldr	r3, .L16+4
 591 0330 0222     		movs	r2, #2
 592 0332 83F85C20 		strb	r2, [r3, #92]
 177:.\main.c      **** 	lado1.grado[0][0]=2;				//1 Diesel 2 Corriente 3 Extra 4 Supreme Diesel
 593              		.loc 1 177 0
 594 0336 0E4B     		ldr	r3, .L16+4
 595 0338 0222     		movs	r2, #2
 596 033a 83F85920 		strb	r2, [r3, #89]
 178:.\main.c      **** 	lado1.grado[1][0]=3;
 597              		.loc 1 178 0
 598 033e 0C4B     		ldr	r3, .L16+4
 599 0340 0322     		movs	r2, #3
 600 0342 83F85A20 		strb	r2, [r3, #90]
 179:.\main.c      **** 	lado1.grado[2][0]=0;
 601              		.loc 1 179 0
 602 0346 0A4B     		ldr	r3, .L16+4
 603 0348 0022     		movs	r2, #0
 604 034a 83F85B20 		strb	r2, [r3, #91]
ARM GAS  C:\Users\SISTEM~1\AppData\Local\Temp\ccCGHuKi.s 			page 15


 180:.\main.c      **** 	version[1]=6;
 605              		.loc 1 180 0
 606 034e 0B4B     		ldr	r3, .L16+16
 607 0350 0622     		movs	r2, #6
 608 0352 5A70     		strb	r2, [r3, #1]
 181:.\main.c      **** 	version[2]=0;
 609              		.loc 1 181 0
 610 0354 094B     		ldr	r3, .L16+16
 611 0356 0022     		movs	r2, #0
 612 0358 9A70     		strb	r2, [r3, #2]
 182:.\main.c      **** 	version[3]=3;
 613              		.loc 1 182 0
 614 035a 084B     		ldr	r3, .L16+16
 615 035c 0322     		movs	r2, #3
 616 035e DA70     		strb	r2, [r3, #3]
 183:.\main.c      ****     CyDelay(5);	
 617              		.loc 1 183 0
 618 0360 0520     		movs	r0, #5
 619 0362 FFF7FEFF 		bl	CyDelay
 184:.\main.c      **** }
 620              		.loc 1 184 0
 621 0366 0C37     		adds	r7, r7, #12
 622 0368 BD46     		mov	sp, r7
 623              		@ sp needed
 624 036a 90BD     		pop	{r4, r7, pc}
 625              	.L17:
 626              		.align	2
 627              	.L16:
 628 036c 00000000 		.word	id_logo
 629 0370 00000000 		.word	lado1
 630 0374 00000000 		.word	lado2
 631 0378 00000000 		.word	ppux10
 632 037c 00000000 		.word	version
 633              		.cfi_endproc
 634              	.LFE63:
 635              		.size	init, .-init
 636              		.section	.rodata
 637              		.align	2
 638              	.LC0:
 639 0000 00       		.byte	0
 640 0001 5E       		.byte	94
 641 0002 BC       		.byte	-68
 642 0003 E2       		.byte	-30
 643 0004 61       		.byte	97
 644 0005 3F       		.byte	63
 645 0006 DD       		.byte	-35
 646 0007 83       		.byte	-125
 647 0008 C2       		.byte	-62
 648 0009 9C       		.byte	-100
 649 000a 7E       		.byte	126
 650 000b 20       		.byte	32
 651 000c A3       		.byte	-93
 652 000d FD       		.byte	-3
 653 000e 1F       		.byte	31
 654 000f 41       		.byte	65
 655 0010 9D       		.byte	-99
 656 0011 C3       		.byte	-61
ARM GAS  C:\Users\SISTEM~1\AppData\Local\Temp\ccCGHuKi.s 			page 16


 657 0012 21       		.byte	33
 658 0013 7F       		.byte	127
 659 0014 FC       		.byte	-4
 660 0015 A2       		.byte	-94
 661 0016 40       		.byte	64
 662 0017 1E       		.byte	30
 663 0018 5F       		.byte	95
 664 0019 01       		.byte	1
 665 001a E3       		.byte	-29
 666 001b BD       		.byte	-67
 667 001c 3E       		.byte	62
 668 001d 60       		.byte	96
 669 001e 82       		.byte	-126
 670 001f DC       		.byte	-36
 671 0020 23       		.byte	35
 672 0021 7D       		.byte	125
 673 0022 9F       		.byte	-97
 674 0023 C1       		.byte	-63
 675 0024 42       		.byte	66
 676 0025 1C       		.byte	28
 677 0026 FE       		.byte	-2
 678 0027 A0       		.byte	-96
 679 0028 E1       		.byte	-31
 680 0029 BF       		.byte	-65
 681 002a 5D       		.byte	93
 682 002b 03       		.byte	3
 683 002c 80       		.byte	-128
 684 002d DE       		.byte	-34
 685 002e 3C       		.byte	60
 686 002f 62       		.byte	98
 687 0030 BE       		.byte	-66
 688 0031 E0       		.byte	-32
 689 0032 02       		.byte	2
 690 0033 5C       		.byte	92
 691 0034 DF       		.byte	-33
 692 0035 81       		.byte	-127
 693 0036 63       		.byte	99
 694 0037 3D       		.byte	61
 695 0038 7C       		.byte	124
 696 0039 22       		.byte	34
 697 003a C0       		.byte	-64
 698 003b 9E       		.byte	-98
 699 003c 1D       		.byte	29
 700 003d 43       		.byte	67
 701 003e A1       		.byte	-95
 702 003f FF       		.byte	-1
 703 0040 46       		.byte	70
 704 0041 18       		.byte	24
 705 0042 FA       		.byte	-6
 706 0043 A4       		.byte	-92
 707 0044 27       		.byte	39
 708 0045 79       		.byte	121
 709 0046 9B       		.byte	-101
 710 0047 C5       		.byte	-59
 711 0048 84       		.byte	-124
 712 0049 DA       		.byte	-38
 713 004a 38       		.byte	56
ARM GAS  C:\Users\SISTEM~1\AppData\Local\Temp\ccCGHuKi.s 			page 17


 714 004b 66       		.byte	102
 715 004c E5       		.byte	-27
 716 004d BB       		.byte	-69
 717 004e 59       		.byte	89
 718 004f 07       		.byte	7
 719 0050 DB       		.byte	-37
 720 0051 85       		.byte	-123
 721 0052 67       		.byte	103
 722 0053 39       		.byte	57
 723 0054 BA       		.byte	-70
 724 0055 E4       		.byte	-28
 725 0056 06       		.byte	6
 726 0057 58       		.byte	88
 727 0058 19       		.byte	25
 728 0059 47       		.byte	71
 729 005a A5       		.byte	-91
 730 005b FB       		.byte	-5
 731 005c 78       		.byte	120
 732 005d 26       		.byte	38
 733 005e C4       		.byte	-60
 734 005f 9A       		.byte	-102
 735 0060 65       		.byte	101
 736 0061 3B       		.byte	59
 737 0062 D9       		.byte	-39
 738 0063 87       		.byte	-121
 739 0064 04       		.byte	4
 740 0065 5A       		.byte	90
 741 0066 B8       		.byte	-72
 742 0067 E6       		.byte	-26
 743 0068 A7       		.byte	-89
 744 0069 F9       		.byte	-7
 745 006a 1B       		.byte	27
 746 006b 45       		.byte	69
 747 006c C6       		.byte	-58
 748 006d 98       		.byte	-104
 749 006e 7A       		.byte	122
 750 006f 24       		.byte	36
 751 0070 F8       		.byte	-8
 752 0071 A6       		.byte	-90
 753 0072 44       		.byte	68
 754 0073 1A       		.byte	26
 755 0074 99       		.byte	-103
 756 0075 C7       		.byte	-57
 757 0076 25       		.byte	37
 758 0077 7B       		.byte	123
 759 0078 3A       		.byte	58
 760 0079 64       		.byte	100
 761 007a 86       		.byte	-122
 762 007b D8       		.byte	-40
 763 007c 5B       		.byte	91
 764 007d 05       		.byte	5
 765 007e E7       		.byte	-25
 766 007f B9       		.byte	-71
 767 0080 8C       		.byte	-116
 768 0081 D2       		.byte	-46
 769 0082 30       		.byte	48
 770 0083 6E       		.byte	110
ARM GAS  C:\Users\SISTEM~1\AppData\Local\Temp\ccCGHuKi.s 			page 18


 771 0084 ED       		.byte	-19
 772 0085 B3       		.byte	-77
 773 0086 51       		.byte	81
 774 0087 0F       		.byte	15
 775 0088 4E       		.byte	78
 776 0089 10       		.byte	16
 777 008a F2       		.byte	-14
 778 008b AC       		.byte	-84
 779 008c 2F       		.byte	47
 780 008d 71       		.byte	113
 781 008e 93       		.byte	-109
 782 008f CD       		.byte	-51
 783 0090 11       		.byte	17
 784 0091 4F       		.byte	79
 785 0092 AD       		.byte	-83
 786 0093 F3       		.byte	-13
 787 0094 70       		.byte	112
 788 0095 2E       		.byte	46
 789 0096 CC       		.byte	-52
 790 0097 92       		.byte	-110
 791 0098 D3       		.byte	-45
 792 0099 8D       		.byte	-115
 793 009a 6F       		.byte	111
 794 009b 31       		.byte	49
 795 009c B2       		.byte	-78
 796 009d EC       		.byte	-20
 797 009e 0E       		.byte	14
 798 009f 50       		.byte	80
 799 00a0 AF       		.byte	-81
 800 00a1 F1       		.byte	-15
 801 00a2 13       		.byte	19
 802 00a3 4D       		.byte	77
 803 00a4 CE       		.byte	-50
 804 00a5 90       		.byte	-112
 805 00a6 72       		.byte	114
 806 00a7 2C       		.byte	44
 807 00a8 6D       		.byte	109
 808 00a9 33       		.byte	51
 809 00aa D1       		.byte	-47
 810 00ab 8F       		.byte	-113
 811 00ac 0C       		.byte	12
 812 00ad 52       		.byte	82
 813 00ae B0       		.byte	-80
 814 00af EE       		.byte	-18
 815 00b0 32       		.byte	50
 816 00b1 6C       		.byte	108
 817 00b2 8E       		.byte	-114
 818 00b3 D0       		.byte	-48
 819 00b4 53       		.byte	83
 820 00b5 0D       		.byte	13
 821 00b6 EF       		.byte	-17
 822 00b7 B1       		.byte	-79
 823 00b8 F0       		.byte	-16
 824 00b9 AE       		.byte	-82
 825 00ba 4C       		.byte	76
 826 00bb 12       		.byte	18
 827 00bc 91       		.byte	-111
ARM GAS  C:\Users\SISTEM~1\AppData\Local\Temp\ccCGHuKi.s 			page 19


 828 00bd CF       		.byte	-49
 829 00be 2D       		.byte	45
 830 00bf 73       		.byte	115
 831 00c0 CA       		.byte	-54
 832 00c1 94       		.byte	-108
 833 00c2 76       		.byte	118
 834 00c3 28       		.byte	40
 835 00c4 AB       		.byte	-85
 836 00c5 F5       		.byte	-11
 837 00c6 17       		.byte	23
 838 00c7 49       		.byte	73
 839 00c8 08       		.byte	8
 840 00c9 56       		.byte	86
 841 00ca B4       		.byte	-76
 842 00cb EA       		.byte	-22
 843 00cc 69       		.byte	105
 844 00cd 37       		.byte	55
 845 00ce D5       		.byte	-43
 846 00cf 8B       		.byte	-117
 847 00d0 57       		.byte	87
 848 00d1 09       		.byte	9
 849 00d2 EB       		.byte	-21
 850 00d3 B5       		.byte	-75
 851 00d4 36       		.byte	54
 852 00d5 68       		.byte	104
 853 00d6 8A       		.byte	-118
 854 00d7 D4       		.byte	-44
 855 00d8 95       		.byte	-107
 856 00d9 CB       		.byte	-53
 857 00da 29       		.byte	41
 858 00db 77       		.byte	119
 859 00dc F4       		.byte	-12
 860 00dd AA       		.byte	-86
 861 00de 48       		.byte	72
 862 00df 16       		.byte	22
 863 00e0 E9       		.byte	-23
 864 00e1 B7       		.byte	-73
 865 00e2 55       		.byte	85
 866 00e3 0B       		.byte	11
 867 00e4 88       		.byte	-120
 868 00e5 D6       		.byte	-42
 869 00e6 34       		.byte	52
 870 00e7 6A       		.byte	106
 871 00e8 2B       		.byte	43
 872 00e9 75       		.byte	117
 873 00ea 97       		.byte	-105
 874 00eb C9       		.byte	-55
 875 00ec 4A       		.byte	74
 876 00ed 14       		.byte	20
 877 00ee F6       		.byte	-10
 878 00ef A8       		.byte	-88
 879 00f0 74       		.byte	116
 880 00f1 2A       		.byte	42
 881 00f2 C8       		.byte	-56
 882 00f3 96       		.byte	-106
 883 00f4 15       		.byte	21
 884 00f5 4B       		.byte	75
ARM GAS  C:\Users\SISTEM~1\AppData\Local\Temp\ccCGHuKi.s 			page 20


 885 00f6 A9       		.byte	-87
 886 00f7 F7       		.byte	-9
 887 00f8 B6       		.byte	-74
 888 00f9 E8       		.byte	-24
 889 00fa 0A       		.byte	10
 890 00fb 54       		.byte	84
 891 00fc D7       		.byte	-41
 892 00fd 89       		.byte	-119
 893 00fe 6B       		.byte	107
 894 00ff 35       		.byte	53
 895              		.section	.text.verificar_check,"ax",%progbits
 896              		.align	2
 897              		.global	verificar_check
 898              		.thumb
 899              		.thumb_func
 900              		.type	verificar_check, %function
 901              	verificar_check:
 902              	.LFB64:
 185:.\main.c      **** 
 186:.\main.c      **** 
 187:.\main.c      **** /*
 188:.\main.c      **** ***************************************************************************************************
 189:.\main.c      **** *                             uint8 verificar_check(uint8 *datos, uint16 size)
 190:.\main.c      **** *
 191:.\main.c      **** * Description : calcula el checksum
 192:.\main.c      **** *               
 193:.\main.c      **** 
 194:.\main.c      **** ***************************************************************************************************
 195:.\main.c      **** */
 196:.\main.c      **** uint8 verificar_check(uint8 *datos, uint16 size){
 903              		.loc 1 196 0
 904              		.cfi_startproc
 905              		@ args = 0, pretend = 0, frame = 272
 906              		@ frame_needed = 1, uses_anonymous_args = 0
 907 0000 80B5     		push	{r7, lr}
 908              		.cfi_def_cfa_offset 8
 909              		.cfi_offset 7, -8
 910              		.cfi_offset 14, -4
 911 0002 C4B0     		sub	sp, sp, #272
 912              		.cfi_def_cfa_offset 280
 913 0004 00AF     		add	r7, sp, #0
 914              		.cfi_def_cfa_register 7
 915 0006 3B1D     		adds	r3, r7, #4
 916 0008 1860     		str	r0, [r3]
 917 000a 0A46     		mov	r2, r1
 918 000c BB1C     		adds	r3, r7, #2
 919 000e 1A80     		strh	r2, [r3]	@ movhi
 197:.\main.c      **** 	uint8 checksum,index;
 198:.\main.c      **** 	uint16 i;
 199:.\main.c      ****     uint8 table[256] = { 
 920              		.loc 1 199 0
 921 0010 07F10802 		add	r2, r7, #8
 922 0014 1A4B     		ldr	r3, .L22
 923 0016 1146     		mov	r1, r2
 924 0018 1A46     		mov	r2, r3
 925 001a 4FF48073 		mov	r3, #256
 926 001e 0846     		mov	r0, r1
ARM GAS  C:\Users\SISTEM~1\AppData\Local\Temp\ccCGHuKi.s 			page 21


 927 0020 1146     		mov	r1, r2
 928 0022 1A46     		mov	r2, r3
 929 0024 FFF7FEFF 		bl	memcpy
 200:.\main.c      ****     0, 94,188,226, 97, 63,221,131,194,156,126, 32,163,253, 31, 65,
 201:.\main.c      ****     157,195, 33,127,252,162, 64, 30, 95,  1,227,189, 62, 96,130,220,
 202:.\main.c      ****     35,125,159,193, 66, 28,254,160,225,191, 93,  3,128,222, 60, 98,
 203:.\main.c      ****     190,224,  2, 92,223,129, 99, 61,124, 34,192,158, 29, 67,161,255,
 204:.\main.c      ****     70, 24,250,164, 39,121,155,197,132,218, 56,102,229,187, 89,  7,
 205:.\main.c      ****     219,133,103, 57,186,228,  6, 88, 25, 71,165,251,120, 38,196,154,
 206:.\main.c      ****     101, 59,217,135,  4, 90,184,230,167,249, 27, 69,198,152,122, 36,
 207:.\main.c      ****     248,166, 68, 26,153,199, 37,123, 58,100,134,216, 91,  5,231,185,
 208:.\main.c      ****     140,210, 48,110,237,179, 81, 15, 78, 16,242,172, 47,113,147,205,
 209:.\main.c      ****     17, 79,173,243,112, 46,204,146,211,141,111, 49,178,236, 14, 80,
 210:.\main.c      ****     175,241, 19, 77,206,144,114, 44,109, 51,209,143, 12, 82,176,238,
 211:.\main.c      ****     50,108,142,208, 83, 13,239,177,240,174, 76, 18,145,207, 45,115,
 212:.\main.c      ****     202,148,118, 40,171,245, 23, 73,  8, 86,180,234,105, 55,213,139,
 213:.\main.c      ****     87,  9,235,181, 54,104,138,212,149,203, 41,119,244,170, 72, 22,
 214:.\main.c      ****     233,183, 85, 11,136,214, 52,106, 43,117,151,201, 74, 20,246,168,
 215:.\main.c      ****     116, 42,200,150, 21, 75,169,247,182,232, 10, 84,215,137,107, 53};	
 216:.\main.c      **** 	checksum=0;
 930              		.loc 1 216 0
 931 0028 0023     		movs	r3, #0
 932 002a 87F80F31 		strb	r3, [r7, #271]
 217:.\main.c      **** 	for(i=0;i<(size-1);i++){
 933              		.loc 1 217 0
 934 002e 0023     		movs	r3, #0
 935 0030 A7F80C31 		strh	r3, [r7, #268]	@ movhi
 936 0034 16E0     		b	.L19
 937              	.L20:
 218:.\main.c      **** 		index = (uint8)(checksum ^ datos[i]);
 938              		.loc 1 218 0 discriminator 2
 939 0036 B7F80C31 		ldrh	r3, [r7, #268]
 940 003a 3A1D     		adds	r2, r7, #4
 941 003c 1268     		ldr	r2, [r2]
 942 003e 1344     		add	r3, r3, r2
 943 0040 1A78     		ldrb	r2, [r3]	@ zero_extendqisi2
 944 0042 97F80F31 		ldrb	r3, [r7, #271]
 945 0046 5340     		eors	r3, r3, r2
 946 0048 87F80B31 		strb	r3, [r7, #267]
 219:.\main.c      **** 		checksum = table[index];				
 947              		.loc 1 219 0 discriminator 2
 948 004c 97F80B31 		ldrb	r3, [r7, #267]	@ zero_extendqisi2
 949 0050 07F10802 		add	r2, r7, #8
 950 0054 D35C     		ldrb	r3, [r2, r3]
 951 0056 87F80F31 		strb	r3, [r7, #271]
 217:.\main.c      **** 	for(i=0;i<(size-1);i++){
 952              		.loc 1 217 0 discriminator 2
 953 005a B7F80C31 		ldrh	r3, [r7, #268]
 954 005e 0133     		adds	r3, r3, #1
 955 0060 A7F80C31 		strh	r3, [r7, #268]	@ movhi
 956              	.L19:
 217:.\main.c      **** 	for(i=0;i<(size-1);i++){
 957              		.loc 1 217 0 is_stmt 0 discriminator 1
 958 0064 B7F80C21 		ldrh	r2, [r7, #268]
 959 0068 BB1C     		adds	r3, r7, #2
 960 006a 1B88     		ldrh	r3, [r3]
 961 006c 013B     		subs	r3, r3, #1
ARM GAS  C:\Users\SISTEM~1\AppData\Local\Temp\ccCGHuKi.s 			page 22


 962 006e 9A42     		cmp	r2, r3
 963 0070 E1DB     		blt	.L20
 220:.\main.c      **** 	}
 221:.\main.c      **** 	return checksum;
 964              		.loc 1 221 0 is_stmt 1
 965 0072 97F80F31 		ldrb	r3, [r7, #271]	@ zero_extendqisi2
 222:.\main.c      **** }
 966              		.loc 1 222 0
 967 0076 1846     		mov	r0, r3
 968 0078 07F58877 		add	r7, r7, #272
 969 007c BD46     		mov	sp, r7
 970              		@ sp needed
 971 007e 80BD     		pop	{r7, pc}
 972              	.L23:
 973              		.align	2
 974              	.L22:
 975 0080 00000000 		.word	.LC0
 976              		.cfi_endproc
 977              	.LFE64:
 978              		.size	verificar_check, .-verificar_check
 979              		.section	.text.error_op,"ax",%progbits
 980              		.align	2
 981              		.global	error_op
 982              		.thumb
 983              		.thumb_func
 984              		.type	error_op, %function
 985              	error_op:
 986              	.LFB65:
 223:.\main.c      **** 
 224:.\main.c      **** /*
 225:.\main.c      **** ***************************************************************************************************
 226:.\main.c      **** *                                         void error_op()
 227:.\main.c      **** *
 228:.\main.c      **** * Description : Muestra en la pantalla el mensaje de operación incorrecta y regresa al inicio del 
 229:.\main.c      **** *               
 230:.\main.c      **** *
 231:.\main.c      **** * Argument(s) : uint8 lcd, para elegir cual pantalla entra en esta función
 232:.\main.c      **** *
 233:.\main.c      **** * Return(s)   : none
 234:.\main.c      **** *
 235:.\main.c      **** * Caller(s)   : Desde cualquier momento de la operacion donde ocurra un error por parte del usuario
 236:.\main.c      **** *
 237:.\main.c      **** * Note(s)     : none.
 238:.\main.c      **** ***************************************************************************************************
 239:.\main.c      **** */
 240:.\main.c      **** void error_op(uint8 lcd, uint16 imagen){
 987              		.loc 1 240 0
 988              		.cfi_startproc
 989              		@ args = 0, pretend = 0, frame = 8
 990              		@ frame_needed = 1, uses_anonymous_args = 0
 991 0000 80B5     		push	{r7, lr}
 992              		.cfi_def_cfa_offset 8
 993              		.cfi_offset 7, -8
 994              		.cfi_offset 14, -4
 995 0002 82B0     		sub	sp, sp, #8
 996              		.cfi_def_cfa_offset 16
 997 0004 00AF     		add	r7, sp, #0
ARM GAS  C:\Users\SISTEM~1\AppData\Local\Temp\ccCGHuKi.s 			page 23


 998              		.cfi_def_cfa_register 7
 999 0006 0246     		mov	r2, r0
 1000 0008 0B46     		mov	r3, r1
 1001 000a FA71     		strb	r2, [r7, #7]
 1002 000c BB80     		strh	r3, [r7, #4]	@ movhi
 241:.\main.c      **** 	if(lcd==1){
 1003              		.loc 1 241 0
 1004 000e FB79     		ldrb	r3, [r7, #7]	@ zero_extendqisi2
 1005 0010 012B     		cmp	r3, #1
 1006 0012 15D1     		bne	.L25
 242:.\main.c      **** 	    set_imagen(1,imagen);
 1007              		.loc 1 242 0
 1008 0014 BB88     		ldrh	r3, [r7, #4]
 1009 0016 0120     		movs	r0, #1
 1010 0018 1946     		mov	r1, r3
 1011 001a FFF7FEFF 		bl	set_imagen
 243:.\main.c      **** 	    flujo_LCD1=100;
 1012              		.loc 1 243 0
 1013 001e 124B     		ldr	r3, .L27
 1014 0020 6422     		movs	r2, #100
 1015 0022 1A70     		strb	r2, [r3]
 244:.\main.c      **** 		count_protector=1;
 1016              		.loc 1 244 0
 1017 0024 114B     		ldr	r3, .L27+4
 1018 0026 0122     		movs	r2, #1
 1019 0028 1A70     		strb	r2, [r3]
 245:.\main.c      ****        lado1.estado=libre;//agregado 30/09/2015
 1020              		.loc 1 245 0
 1021 002a 114B     		ldr	r3, .L27+8
 1022 002c 0122     		movs	r2, #1
 1023 002e 5A70     		strb	r2, [r3, #1]
 246:.\main.c      ****         LP_ClearRxBuffer();//agregado 30/09/2015
 1024              		.loc 1 246 0
 1025 0030 FFF7FEFF 		bl	LP_ClearRxBuffer
 247:.\main.c      **** 	    isr_3_StartEx(animacion);  
 1026              		.loc 1 247 0
 1027 0034 0F48     		ldr	r0, .L27+12
 1028 0036 FFF7FEFF 		bl	isr_3_StartEx
 248:.\main.c      **** 	    Timer_Animacion_Start();
 1029              		.loc 1 248 0
 1030 003a FFF7FEFF 		bl	Timer_Animacion_Start
 1031 003e 0FE0     		b	.L24
 1032              	.L25:
 249:.\main.c      **** 	}
 250:.\main.c      **** 	else{
 251:.\main.c      **** 	    set_imagen(2,imagen);
 1033              		.loc 1 251 0
 1034 0040 BB88     		ldrh	r3, [r7, #4]
 1035 0042 0220     		movs	r0, #2
 1036 0044 1946     		mov	r1, r3
 1037 0046 FFF7FEFF 		bl	set_imagen
 252:.\main.c      **** 	    flujo_LCD2=100;
 1038              		.loc 1 252 0
 1039 004a 0B4B     		ldr	r3, .L27+16
 1040 004c 6422     		movs	r2, #100
 1041 004e 1A70     		strb	r2, [r3]
 253:.\main.c      **** 		count_protector2=1;
ARM GAS  C:\Users\SISTEM~1\AppData\Local\Temp\ccCGHuKi.s 			page 24


 1042              		.loc 1 253 0
 1043 0050 0A4B     		ldr	r3, .L27+20
 1044 0052 0122     		movs	r2, #1
 1045 0054 1A70     		strb	r2, [r3]
 254:.\main.c      **** 	    isr_4_StartEx(animacion2);  
 1046              		.loc 1 254 0
 1047 0056 0A48     		ldr	r0, .L27+24
 1048 0058 FFF7FEFF 		bl	isr_4_StartEx
 255:.\main.c      **** 	    Timer_Animacion2_Start();	
 1049              		.loc 1 255 0
 1050 005c FFF7FEFF 		bl	Timer_Animacion2_Start
 1051              	.L24:
 256:.\main.c      **** 	}
 257:.\main.c      **** }
 1052              		.loc 1 257 0
 1053 0060 0837     		adds	r7, r7, #8
 1054 0062 BD46     		mov	sp, r7
 1055              		@ sp needed
 1056 0064 80BD     		pop	{r7, pc}
 1057              	.L28:
 1058 0066 00BF     		.align	2
 1059              	.L27:
 1060 0068 00000000 		.word	flujo_LCD1
 1061 006c 00000000 		.word	count_protector
 1062 0070 00000000 		.word	lado1
 1063 0074 00000000 		.word	animacion
 1064 0078 00000000 		.word	flujo_LCD2
 1065 007c 00000000 		.word	count_protector2
 1066 0080 00000000 		.word	animacion2
 1067              		.cfi_endproc
 1068              	.LFE65:
 1069              		.size	error_op, .-error_op
 1070              		.section	.text.init_surt,"ax",%progbits
 1071              		.align	2
 1072              		.global	init_surt
 1073              		.thumb
 1074              		.thumb_func
 1075              		.type	init_surt, %function
 1076              	init_surt:
 1077              	.LFB66:
 258:.\main.c      **** 
 259:.\main.c      **** /*
 260:.\main.c      **** ***************************************************************************************************
 261:.\main.c      **** *                                         init_surt( void )
 262:.\main.c      **** *
 263:.\main.c      **** * Description : Busca las posiciones del surtidor y las graba en lado.a.dir y lado.b.dir
 264:.\main.c      **** *               
 265:.\main.c      **** *
 266:.\main.c      **** * Argument(s) : none
 267:.\main.c      **** *
 268:.\main.c      **** * Return(s)   : none
 269:.\main.c      **** *
 270:.\main.c      **** * Caller(s)   : main()
 271:.\main.c      **** *
 272:.\main.c      **** * Note(s)     : Falta generar codigo para los casos 1 y 2
 273:.\main.c      **** ***************************************************************************************************
 274:.\main.c      **** */
ARM GAS  C:\Users\SISTEM~1\AppData\Local\Temp\ccCGHuKi.s 			page 25


 275:.\main.c      **** void init_surt(void){
 1078              		.loc 1 275 0
 1079              		.cfi_startproc
 1080              		@ args = 0, pretend = 0, frame = 8
 1081              		@ frame_needed = 1, uses_anonymous_args = 0
 1082 0000 80B5     		push	{r7, lr}
 1083              		.cfi_def_cfa_offset 8
 1084              		.cfi_offset 7, -8
 1085              		.cfi_offset 14, -4
 1086 0002 82B0     		sub	sp, sp, #8
 1087              		.cfi_def_cfa_offset 16
 1088 0004 00AF     		add	r7, sp, #0
 1089              		.cfi_def_cfa_register 7
 276:.\main.c      **** 	uint8 estado, ok=0;
 1090              		.loc 1 276 0
 1091 0006 0023     		movs	r3, #0
 1092 0008 FB71     		strb	r3, [r7, #7]
 277:.\main.c      **** 	while(ok!=2){
 1093              		.loc 1 277 0
 1094 000a 75E1     		b	.L30
 1095              	.L57:
 278:.\main.c      **** 		ok=0;
 1096              		.loc 1 278 0
 1097 000c 0023     		movs	r3, #0
 1098 000e FB71     		strb	r3, [r7, #7]
 279:.\main.c      **** 		if((lado1.dir==0xFF)||(lado2.dir==0xFF)){
 1099              		.loc 1 279 0
 1100 0010 BD4B     		ldr	r3, .L58
 1101 0012 1B78     		ldrb	r3, [r3]
 1102 0014 DBB2     		uxtb	r3, r3
 1103 0016 FF2B     		cmp	r3, #255
 1104 0018 04D0     		beq	.L31
 1105              		.loc 1 279 0 is_stmt 0 discriminator 1
 1106 001a BC4B     		ldr	r3, .L58+4
 1107 001c 1B78     		ldrb	r3, [r3]
 1108 001e DBB2     		uxtb	r3, r3
 1109 0020 FF2B     		cmp	r3, #255
 1110 0022 53D1     		bne	.L32
 1111              	.L31:
 280:.\main.c      **** 			while(ver_pos()==0);
 1112              		.loc 1 280 0 is_stmt 1
 1113 0024 00BF     		nop
 1114              	.L33:
 1115              		.loc 1 280 0 is_stmt 0 discriminator 1
 1116 0026 FFF7FEFF 		bl	ver_pos
 1117 002a 0346     		mov	r3, r0
 1118 002c 002B     		cmp	r3, #0
 1119 002e FAD0     		beq	.L33
 281:.\main.c      **** 			CyDelay(50);
 1120              		.loc 1 281 0 is_stmt 1
 1121 0030 3220     		movs	r0, #50
 1122 0032 FFF7FEFF 		bl	CyDelay
 282:.\main.c      **** 			totales(lado1.dir, lado1.mangueras);
 1123              		.loc 1 282 0
 1124 0036 B44B     		ldr	r3, .L58
 1125 0038 1B78     		ldrb	r3, [r3]
 1126 003a DAB2     		uxtb	r2, r3
ARM GAS  C:\Users\SISTEM~1\AppData\Local\Temp\ccCGHuKi.s 			page 26


 1127 003c B24B     		ldr	r3, .L58
 1128 003e 93F85C30 		ldrb	r3, [r3, #92]
 1129 0042 DBB2     		uxtb	r3, r3
 1130 0044 1046     		mov	r0, r2
 1131 0046 1946     		mov	r1, r3
 1132 0048 FFF7FEFF 		bl	totales
 283:.\main.c      **** 			CyDelay(50);	
 1133              		.loc 1 283 0
 1134 004c 3220     		movs	r0, #50
 1135 004e FFF7FEFF 		bl	CyDelay
 284:.\main.c      **** 			totales(lado2.dir, lado2.mangueras);
 1136              		.loc 1 284 0
 1137 0052 AE4B     		ldr	r3, .L58+4
 1138 0054 1B78     		ldrb	r3, [r3]
 1139 0056 DAB2     		uxtb	r2, r3
 1140 0058 AC4B     		ldr	r3, .L58+4
 1141 005a 93F85C30 		ldrb	r3, [r3, #92]
 1142 005e DBB2     		uxtb	r3, r3
 1143 0060 1046     		mov	r0, r2
 1144 0062 1946     		mov	r1, r3
 1145 0064 FFF7FEFF 		bl	totales
 285:.\main.c      **** 			CyDelay(50);	
 1146              		.loc 1 285 0
 1147 0068 3220     		movs	r0, #50
 1148 006a FFF7FEFF 		bl	CyDelay
 286:.\main.c      **** 			if(EEPROM_WriteByte(lado1.dir, 26)==CYRET_SUCCESS){
 1149              		.loc 1 286 0
 1150 006e A64B     		ldr	r3, .L58
 1151 0070 1B78     		ldrb	r3, [r3]
 1152 0072 DBB2     		uxtb	r3, r3
 1153 0074 1846     		mov	r0, r3
 1154 0076 1A21     		movs	r1, #26
 1155 0078 FFF7FEFF 		bl	EEPROM_WriteByte
 1156 007c 0346     		mov	r3, r0
 1157 007e 002B     		cmp	r3, #0
 1158 0080 04D1     		bne	.L34
 287:.\main.c      **** 				set_imagen(1,60);								
 1159              		.loc 1 287 0
 1160 0082 0120     		movs	r0, #1
 1161 0084 3C21     		movs	r1, #60
 1162 0086 FFF7FEFF 		bl	set_imagen
 1163 008a 03E0     		b	.L35
 1164              	.L34:
 288:.\main.c      **** 			}
 289:.\main.c      **** 			else{
 290:.\main.c      **** 				set_imagen(1,85);
 1165              		.loc 1 290 0
 1166 008c 0120     		movs	r0, #1
 1167 008e 5521     		movs	r1, #85
 1168 0090 FFF7FEFF 		bl	set_imagen
 1169              	.L35:
 291:.\main.c      **** 			}
 292:.\main.c      **** 			if(EEPROM_WriteByte(lado2.dir, 28)==CYRET_SUCCESS){
 1170              		.loc 1 292 0
 1171 0094 9D4B     		ldr	r3, .L58+4
 1172 0096 1B78     		ldrb	r3, [r3]
 1173 0098 DBB2     		uxtb	r3, r3
ARM GAS  C:\Users\SISTEM~1\AppData\Local\Temp\ccCGHuKi.s 			page 27


 1174 009a 1846     		mov	r0, r3
 1175 009c 1C21     		movs	r1, #28
 1176 009e FFF7FEFF 		bl	EEPROM_WriteByte
 1177 00a2 0346     		mov	r3, r0
 1178 00a4 002B     		cmp	r3, #0
 1179 00a6 04D1     		bne	.L36
 293:.\main.c      **** 				set_imagen(2,60);								
 1180              		.loc 1 293 0
 1181 00a8 0220     		movs	r0, #2
 1182 00aa 3C21     		movs	r1, #60
 1183 00ac FFF7FEFF 		bl	set_imagen
 1184 00b0 03E0     		b	.L37
 1185              	.L36:
 294:.\main.c      **** 			}
 295:.\main.c      **** 			else{
 296:.\main.c      **** 				set_imagen(2,85);
 1186              		.loc 1 296 0
 1187 00b2 0220     		movs	r0, #2
 1188 00b4 5521     		movs	r1, #85
 1189 00b6 FFF7FEFF 		bl	set_imagen
 1190              	.L37:
 297:.\main.c      **** 			}
 298:.\main.c      **** 			flujo_LCD2=0;
 1191              		.loc 1 298 0
 1192 00ba 954B     		ldr	r3, .L58+8
 1193 00bc 0022     		movs	r2, #0
 1194 00be 1A70     		strb	r2, [r3]
 299:.\main.c      **** 			flujo_LCD1=0;			
 1195              		.loc 1 299 0
 1196 00c0 944B     		ldr	r3, .L58+12
 1197 00c2 0022     		movs	r2, #0
 1198 00c4 1A70     		strb	r2, [r3]
 300:.\main.c      **** 			ok=2;			
 1199              		.loc 1 300 0
 1200 00c6 0223     		movs	r3, #2
 1201 00c8 FB71     		strb	r3, [r7, #7]
 1202 00ca 15E1     		b	.L30
 1203              	.L32:
 301:.\main.c      **** 		}
 302:.\main.c      **** 		else{
 303:.\main.c      **** 			estado=get_estado(lado1.dir);										
 1204              		.loc 1 303 0
 1205 00cc 8E4B     		ldr	r3, .L58
 1206 00ce 1B78     		ldrb	r3, [r3]
 1207 00d0 DBB2     		uxtb	r3, r3
 1208 00d2 1846     		mov	r0, r3
 1209 00d4 FFF7FEFF 		bl	get_estado
 1210 00d8 0346     		mov	r3, r0
 1211 00da BB71     		strb	r3, [r7, #6]
 304:.\main.c      **** 			switch(estado){
 1212              		.loc 1 304 0
 1213 00dc BB79     		ldrb	r3, [r7, #6]	@ zero_extendqisi2
 1214 00de 0C2B     		cmp	r3, #12
 1215 00e0 7AD8     		bhi	.L38
 1216 00e2 01A2     		adr	r2, .L40
 1217 00e4 52F823F0 		ldr	pc, [r2, r3, lsl #2]
 1218              		.p2align 2
ARM GAS  C:\Users\SISTEM~1\AppData\Local\Temp\ccCGHuKi.s 			page 28


 1219              	.L40:
 1220 00e8 1D010000 		.word	.L39+1
 1221 00ec D9010000 		.word	.L38+1
 1222 00f0 D9010000 		.word	.L38+1
 1223 00f4 D9010000 		.word	.L38+1
 1224 00f8 D9010000 		.word	.L38+1
 1225 00fc D9010000 		.word	.L38+1
 1226 0100 25010000 		.word	.L41+1
 1227 0104 61010000 		.word	.L42+1
 1228 0108 8B010000 		.word	.L43+1
 1229 010c 99010000 		.word	.L44+1
 1230 0110 B5010000 		.word	.L45+1
 1231 0114 A7010000 		.word	.L46+1
 1232 0118 C3010000 		.word	.L47+1
 1233              		.p2align 1
 1234              	.L39:
 305:.\main.c      **** 		         case 0:                     
 306:.\main.c      **** 					lado1.dir=0xFF;
 1235              		.loc 1 306 0
 1236 011c 7A4B     		ldr	r3, .L58
 1237 011e FF22     		movs	r2, #255
 1238 0120 1A70     		strb	r2, [r3]
 307:.\main.c      **** 				 break;	
 1239              		.loc 1 307 0
 1240 0122 59E0     		b	.L38
 1241              	.L41:
 308:.\main.c      **** 			
 309:.\main.c      **** 				case 0x06:
 310:.\main.c      **** 					venta(lado1.dir);
 1242              		.loc 1 310 0
 1243 0124 784B     		ldr	r3, .L58
 1244 0126 1B78     		ldrb	r3, [r3]
 1245 0128 DBB2     		uxtb	r3, r3
 1246 012a 1846     		mov	r0, r3
 1247 012c FFF7FEFF 		bl	venta
 311:.\main.c      **** 					CyDelay(50);	
 1248              		.loc 1 311 0
 1249 0130 3220     		movs	r0, #50
 1250 0132 FFF7FEFF 		bl	CyDelay
 312:.\main.c      **** 					totales(lado1.dir, lado1.mangueras);
 1251              		.loc 1 312 0
 1252 0136 744B     		ldr	r3, .L58
 1253 0138 1B78     		ldrb	r3, [r3]
 1254 013a DAB2     		uxtb	r2, r3
 1255 013c 724B     		ldr	r3, .L58
 1256 013e 93F85C30 		ldrb	r3, [r3, #92]
 1257 0142 DBB2     		uxtb	r3, r3
 1258 0144 1046     		mov	r0, r2
 1259 0146 1946     		mov	r1, r3
 1260 0148 FFF7FEFF 		bl	totales
 313:.\main.c      **** 					CyDelay(50);	
 1261              		.loc 1 313 0
 1262 014c 3220     		movs	r0, #50
 1263 014e FFF7FEFF 		bl	CyDelay
 314:.\main.c      **** 					flujo_LCD1=0;					
 1264              		.loc 1 314 0
 1265 0152 704B     		ldr	r3, .L58+12
ARM GAS  C:\Users\SISTEM~1\AppData\Local\Temp\ccCGHuKi.s 			page 29


 1266 0154 0022     		movs	r2, #0
 1267 0156 1A70     		strb	r2, [r3]
 315:.\main.c      **** 					ok++;
 1268              		.loc 1 315 0
 1269 0158 FB79     		ldrb	r3, [r7, #7]	@ zero_extendqisi2
 1270 015a 0133     		adds	r3, r3, #1
 1271 015c FB71     		strb	r3, [r7, #7]
 316:.\main.c      **** 				break;
 1272              		.loc 1 316 0
 1273 015e 3BE0     		b	.L38
 1274              	.L42:
 317:.\main.c      **** 					
 318:.\main.c      **** 				case 0x07:	
 319:.\main.c      **** 					totales(lado1.dir, lado1.mangueras);
 1275              		.loc 1 319 0
 1276 0160 694B     		ldr	r3, .L58
 1277 0162 1B78     		ldrb	r3, [r3]
 1278 0164 DAB2     		uxtb	r2, r3
 1279 0166 684B     		ldr	r3, .L58
 1280 0168 93F85C30 		ldrb	r3, [r3, #92]
 1281 016c DBB2     		uxtb	r3, r3
 1282 016e 1046     		mov	r0, r2
 1283 0170 1946     		mov	r1, r3
 1284 0172 FFF7FEFF 		bl	totales
 320:.\main.c      **** 					CyDelay(50);	
 1285              		.loc 1 320 0
 1286 0176 3220     		movs	r0, #50
 1287 0178 FFF7FEFF 		bl	CyDelay
 321:.\main.c      **** 					flujo_LCD1=0;					
 1288              		.loc 1 321 0
 1289 017c 654B     		ldr	r3, .L58+12
 1290 017e 0022     		movs	r2, #0
 1291 0180 1A70     		strb	r2, [r3]
 322:.\main.c      **** 					ok++;
 1292              		.loc 1 322 0
 1293 0182 FB79     		ldrb	r3, [r7, #7]	@ zero_extendqisi2
 1294 0184 0133     		adds	r3, r3, #1
 1295 0186 FB71     		strb	r3, [r7, #7]
 323:.\main.c      **** 				break;
 1296              		.loc 1 323 0
 1297 0188 26E0     		b	.L38
 1298              	.L43:
 324:.\main.c      **** 				
 325:.\main.c      **** 				case 0x08:
 326:.\main.c      **** 			     	flujo_LCD1=11;
 1299              		.loc 1 326 0
 1300 018a 624B     		ldr	r3, .L58+12
 1301 018c 0B22     		movs	r2, #11
 1302 018e 1A70     		strb	r2, [r3]
 327:.\main.c      **** 					ok++;
 1303              		.loc 1 327 0
 1304 0190 FB79     		ldrb	r3, [r7, #7]	@ zero_extendqisi2
 1305 0192 0133     		adds	r3, r3, #1
 1306 0194 FB71     		strb	r3, [r7, #7]
 328:.\main.c      **** 				break;
 1307              		.loc 1 328 0
 1308 0196 1FE0     		b	.L38
ARM GAS  C:\Users\SISTEM~1\AppData\Local\Temp\ccCGHuKi.s 			page 30


 1309              	.L44:
 329:.\main.c      **** 					
 330:.\main.c      **** 				case 0x09:
 331:.\main.c      **** 			     	flujo_LCD1=11;
 1310              		.loc 1 331 0
 1311 0198 5E4B     		ldr	r3, .L58+12
 1312 019a 0B22     		movs	r2, #11
 1313 019c 1A70     		strb	r2, [r3]
 332:.\main.c      **** 					ok++;
 1314              		.loc 1 332 0
 1315 019e FB79     		ldrb	r3, [r7, #7]	@ zero_extendqisi2
 1316 01a0 0133     		adds	r3, r3, #1
 1317 01a2 FB71     		strb	r3, [r7, #7]
 333:.\main.c      **** 				break;
 1318              		.loc 1 333 0
 1319 01a4 18E0     		b	.L38
 1320              	.L46:
 334:.\main.c      **** 				
 335:.\main.c      **** 		         case 0x0B:                     //Termino venta
 336:.\main.c      **** 					flujo_LCD1=12;
 1321              		.loc 1 336 0
 1322 01a6 5B4B     		ldr	r3, .L58+12
 1323 01a8 0C22     		movs	r2, #12
 1324 01aa 1A70     		strb	r2, [r3]
 337:.\main.c      **** 					ok++;
 1325              		.loc 1 337 0
 1326 01ac FB79     		ldrb	r3, [r7, #7]	@ zero_extendqisi2
 1327 01ae 0133     		adds	r3, r3, #1
 1328 01b0 FB71     		strb	r3, [r7, #7]
 338:.\main.c      **** 				 break;	
 1329              		.loc 1 338 0
 1330 01b2 11E0     		b	.L38
 1331              	.L45:
 339:.\main.c      **** 					
 340:.\main.c      **** 		         case 0x0A:						//Termino venta
 341:.\main.c      **** 					flujo_LCD1=12;
 1332              		.loc 1 341 0
 1333 01b4 574B     		ldr	r3, .L58+12
 1334 01b6 0C22     		movs	r2, #12
 1335 01b8 1A70     		strb	r2, [r3]
 342:.\main.c      **** 					ok++;
 1336              		.loc 1 342 0
 1337 01ba FB79     		ldrb	r3, [r7, #7]	@ zero_extendqisi2
 1338 01bc 0133     		adds	r3, r3, #1
 1339 01be FB71     		strb	r3, [r7, #7]
 343:.\main.c      **** 				 break;
 1340              		.loc 1 343 0
 1341 01c0 0AE0     		b	.L38
 1342              	.L47:
 344:.\main.c      **** 					
 345:.\main.c      **** 		         case 0x0C:						//Bloqueado por surtiendo al iniciar
 346:.\main.c      **** 			     	flujo_LCD1=11;
 1343              		.loc 1 346 0
 1344 01c2 544B     		ldr	r3, .L58+12
 1345 01c4 0B22     		movs	r2, #11
 1346 01c6 1A70     		strb	r2, [r3]
 347:.\main.c      **** 				 	set_imagen(1,8);
ARM GAS  C:\Users\SISTEM~1\AppData\Local\Temp\ccCGHuKi.s 			page 31


 1347              		.loc 1 347 0
 1348 01c8 0120     		movs	r0, #1
 1349 01ca 0821     		movs	r1, #8
 1350 01cc FFF7FEFF 		bl	set_imagen
 348:.\main.c      **** 					ok++;
 1351              		.loc 1 348 0
 1352 01d0 FB79     		ldrb	r3, [r7, #7]	@ zero_extendqisi2
 1353 01d2 0133     		adds	r3, r3, #1
 1354 01d4 FB71     		strb	r3, [r7, #7]
 349:.\main.c      **** 				 break;					
 1355              		.loc 1 349 0
 1356 01d6 00BF     		nop
 1357              	.L38:
 350:.\main.c      **** 					
 351:.\main.c      **** 			}
 352:.\main.c      **** 			estado=get_estado(lado2.dir);										
 1358              		.loc 1 352 0
 1359 01d8 4C4B     		ldr	r3, .L58+4
 1360 01da 1B78     		ldrb	r3, [r3]
 1361 01dc DBB2     		uxtb	r3, r3
 1362 01de 1846     		mov	r0, r3
 1363 01e0 FFF7FEFF 		bl	get_estado
 1364 01e4 0346     		mov	r3, r0
 1365 01e6 BB71     		strb	r3, [r7, #6]
 353:.\main.c      **** 			switch(estado){
 1366              		.loc 1 353 0
 1367 01e8 BB79     		ldrb	r3, [r7, #6]	@ zero_extendqisi2
 1368 01ea 0C2B     		cmp	r3, #12
 1369 01ec 00F28480 		bhi	.L30
 1370 01f0 01A2     		adr	r2, .L49
 1371 01f2 52F823F0 		ldr	pc, [r2, r3, lsl #2]
 1372 01f6 00BF     		.p2align 2
 1373              	.L49:
 1374 01f8 2D020000 		.word	.L48+1
 1375 01fc F9020000 		.word	.L30+1
 1376 0200 F9020000 		.word	.L30+1
 1377 0204 F9020000 		.word	.L30+1
 1378 0208 F9020000 		.word	.L30+1
 1379 020c F9020000 		.word	.L30+1
 1380 0210 35020000 		.word	.L50+1
 1381 0214 71020000 		.word	.L51+1
 1382 0218 9B020000 		.word	.L52+1
 1383 021c B1020000 		.word	.L53+1
 1384 0220 D5020000 		.word	.L54+1
 1385 0224 C7020000 		.word	.L55+1
 1386 0228 E3020000 		.word	.L56+1
 1387              		.p2align 1
 1388              	.L48:
 354:.\main.c      **** 		         case 0:                     
 355:.\main.c      **** 					lado2.dir=0xFF;
 1389              		.loc 1 355 0
 1390 022c 374B     		ldr	r3, .L58+4
 1391 022e FF22     		movs	r2, #255
 1392 0230 1A70     		strb	r2, [r3]
 356:.\main.c      **** 				 break;	
 1393              		.loc 1 356 0
 1394 0232 61E0     		b	.L30
ARM GAS  C:\Users\SISTEM~1\AppData\Local\Temp\ccCGHuKi.s 			page 32


 1395              	.L50:
 357:.\main.c      **** 			
 358:.\main.c      **** 				case 0x06:
 359:.\main.c      **** 					venta(lado2.dir);
 1396              		.loc 1 359 0
 1397 0234 354B     		ldr	r3, .L58+4
 1398 0236 1B78     		ldrb	r3, [r3]
 1399 0238 DBB2     		uxtb	r3, r3
 1400 023a 1846     		mov	r0, r3
 1401 023c FFF7FEFF 		bl	venta
 360:.\main.c      **** 					CyDelay(50);		
 1402              		.loc 1 360 0
 1403 0240 3220     		movs	r0, #50
 1404 0242 FFF7FEFF 		bl	CyDelay
 361:.\main.c      **** 					totales(lado2.dir, lado2.mangueras);
 1405              		.loc 1 361 0
 1406 0246 314B     		ldr	r3, .L58+4
 1407 0248 1B78     		ldrb	r3, [r3]
 1408 024a DAB2     		uxtb	r2, r3
 1409 024c 2F4B     		ldr	r3, .L58+4
 1410 024e 93F85C30 		ldrb	r3, [r3, #92]
 1411 0252 DBB2     		uxtb	r3, r3
 1412 0254 1046     		mov	r0, r2
 1413 0256 1946     		mov	r1, r3
 1414 0258 FFF7FEFF 		bl	totales
 362:.\main.c      **** 					CyDelay(50);	
 1415              		.loc 1 362 0
 1416 025c 3220     		movs	r0, #50
 1417 025e FFF7FEFF 		bl	CyDelay
 363:.\main.c      **** 					flujo_LCD2=0;				
 1418              		.loc 1 363 0
 1419 0262 2B4B     		ldr	r3, .L58+8
 1420 0264 0022     		movs	r2, #0
 1421 0266 1A70     		strb	r2, [r3]
 364:.\main.c      **** 					ok++;
 1422              		.loc 1 364 0
 1423 0268 FB79     		ldrb	r3, [r7, #7]	@ zero_extendqisi2
 1424 026a 0133     		adds	r3, r3, #1
 1425 026c FB71     		strb	r3, [r7, #7]
 365:.\main.c      **** 				break;
 1426              		.loc 1 365 0
 1427 026e 43E0     		b	.L30
 1428              	.L51:
 366:.\main.c      **** 					
 367:.\main.c      **** 				case 0x07:	
 368:.\main.c      **** 					totales(lado2.dir, lado2.mangueras);
 1429              		.loc 1 368 0
 1430 0270 264B     		ldr	r3, .L58+4
 1431 0272 1B78     		ldrb	r3, [r3]
 1432 0274 DAB2     		uxtb	r2, r3
 1433 0276 254B     		ldr	r3, .L58+4
 1434 0278 93F85C30 		ldrb	r3, [r3, #92]
 1435 027c DBB2     		uxtb	r3, r3
 1436 027e 1046     		mov	r0, r2
 1437 0280 1946     		mov	r1, r3
 1438 0282 FFF7FEFF 		bl	totales
 369:.\main.c      **** 					CyDelay(50);	
ARM GAS  C:\Users\SISTEM~1\AppData\Local\Temp\ccCGHuKi.s 			page 33


 1439              		.loc 1 369 0
 1440 0286 3220     		movs	r0, #50
 1441 0288 FFF7FEFF 		bl	CyDelay
 370:.\main.c      **** 					flujo_LCD2=0;					
 1442              		.loc 1 370 0
 1443 028c 204B     		ldr	r3, .L58+8
 1444 028e 0022     		movs	r2, #0
 1445 0290 1A70     		strb	r2, [r3]
 371:.\main.c      **** 					ok++;
 1446              		.loc 1 371 0
 1447 0292 FB79     		ldrb	r3, [r7, #7]	@ zero_extendqisi2
 1448 0294 0133     		adds	r3, r3, #1
 1449 0296 FB71     		strb	r3, [r7, #7]
 372:.\main.c      **** 				break;
 1450              		.loc 1 372 0
 1451 0298 2EE0     		b	.L30
 1452              	.L52:
 373:.\main.c      **** 				
 374:.\main.c      **** 				case 0x08:
 375:.\main.c      **** 			     	flujo_LCD2=11;
 1453              		.loc 1 375 0
 1454 029a 1D4B     		ldr	r3, .L58+8
 1455 029c 0B22     		movs	r2, #11
 1456 029e 1A70     		strb	r2, [r3]
 376:.\main.c      **** 				 	set_imagen(2,8);
 1457              		.loc 1 376 0
 1458 02a0 0220     		movs	r0, #2
 1459 02a2 0821     		movs	r1, #8
 1460 02a4 FFF7FEFF 		bl	set_imagen
 377:.\main.c      **** 					ok++;
 1461              		.loc 1 377 0
 1462 02a8 FB79     		ldrb	r3, [r7, #7]	@ zero_extendqisi2
 1463 02aa 0133     		adds	r3, r3, #1
 1464 02ac FB71     		strb	r3, [r7, #7]
 378:.\main.c      **** 				break;
 1465              		.loc 1 378 0
 1466 02ae 23E0     		b	.L30
 1467              	.L53:
 379:.\main.c      **** 					
 380:.\main.c      **** 				case 0x09:
 381:.\main.c      **** 			     	flujo_LCD2=11;
 1468              		.loc 1 381 0
 1469 02b0 174B     		ldr	r3, .L58+8
 1470 02b2 0B22     		movs	r2, #11
 1471 02b4 1A70     		strb	r2, [r3]
 382:.\main.c      **** 				 	set_imagen(2,8);
 1472              		.loc 1 382 0
 1473 02b6 0220     		movs	r0, #2
 1474 02b8 0821     		movs	r1, #8
 1475 02ba FFF7FEFF 		bl	set_imagen
 383:.\main.c      **** 					ok++;
 1476              		.loc 1 383 0
 1477 02be FB79     		ldrb	r3, [r7, #7]	@ zero_extendqisi2
 1478 02c0 0133     		adds	r3, r3, #1
 1479 02c2 FB71     		strb	r3, [r7, #7]
 384:.\main.c      **** 				break;
 1480              		.loc 1 384 0
ARM GAS  C:\Users\SISTEM~1\AppData\Local\Temp\ccCGHuKi.s 			page 34


 1481 02c4 18E0     		b	.L30
 1482              	.L55:
 385:.\main.c      **** 				
 386:.\main.c      **** 		         case 0x0B:                     //Termino venta
 387:.\main.c      **** 					flujo_LCD2=12;
 1483              		.loc 1 387 0
 1484 02c6 124B     		ldr	r3, .L58+8
 1485 02c8 0C22     		movs	r2, #12
 1486 02ca 1A70     		strb	r2, [r3]
 388:.\main.c      **** 					ok++;
 1487              		.loc 1 388 0
 1488 02cc FB79     		ldrb	r3, [r7, #7]	@ zero_extendqisi2
 1489 02ce 0133     		adds	r3, r3, #1
 1490 02d0 FB71     		strb	r3, [r7, #7]
 389:.\main.c      **** 				 break;	
 1491              		.loc 1 389 0
 1492 02d2 11E0     		b	.L30
 1493              	.L54:
 390:.\main.c      **** 					
 391:.\main.c      **** 		         case 0x0A:						//Termino venta
 392:.\main.c      **** 					flujo_LCD2=12;
 1494              		.loc 1 392 0
 1495 02d4 0E4B     		ldr	r3, .L58+8
 1496 02d6 0C22     		movs	r2, #12
 1497 02d8 1A70     		strb	r2, [r3]
 393:.\main.c      **** 					ok++;
 1498              		.loc 1 393 0
 1499 02da FB79     		ldrb	r3, [r7, #7]	@ zero_extendqisi2
 1500 02dc 0133     		adds	r3, r3, #1
 1501 02de FB71     		strb	r3, [r7, #7]
 394:.\main.c      **** 				 break;
 1502              		.loc 1 394 0
 1503 02e0 0AE0     		b	.L30
 1504              	.L56:
 395:.\main.c      **** 					
 396:.\main.c      **** 		         case 0x0C:						//Bloqueado por surtiendo al iniciar
 397:.\main.c      **** 			     	flujo_LCD2=11;
 1505              		.loc 1 397 0
 1506 02e2 0B4B     		ldr	r3, .L58+8
 1507 02e4 0B22     		movs	r2, #11
 1508 02e6 1A70     		strb	r2, [r3]
 398:.\main.c      **** 				 	set_imagen(2,8);
 1509              		.loc 1 398 0
 1510 02e8 0220     		movs	r0, #2
 1511 02ea 0821     		movs	r1, #8
 1512 02ec FFF7FEFF 		bl	set_imagen
 399:.\main.c      **** 					ok++;
 1513              		.loc 1 399 0
 1514 02f0 FB79     		ldrb	r3, [r7, #7]	@ zero_extendqisi2
 1515 02f2 0133     		adds	r3, r3, #1
 1516 02f4 FB71     		strb	r3, [r7, #7]
 400:.\main.c      **** 				 break;										
 1517              		.loc 1 400 0
 1518 02f6 00BF     		nop
 1519              	.L30:
 277:.\main.c      **** 	while(ok!=2){
 1520              		.loc 1 277 0 discriminator 1
ARM GAS  C:\Users\SISTEM~1\AppData\Local\Temp\ccCGHuKi.s 			page 35


 1521 02f8 FB79     		ldrb	r3, [r7, #7]	@ zero_extendqisi2
 1522 02fa 022B     		cmp	r3, #2
 1523 02fc 7FF486AE 		bne	.L57
 401:.\main.c      **** 			}			
 402:.\main.c      **** 		}
 403:.\main.c      **** 	}
 404:.\main.c      **** }
 1524              		.loc 1 404 0
 1525 0300 0837     		adds	r7, r7, #8
 1526 0302 BD46     		mov	sp, r7
 1527              		@ sp needed
 1528 0304 80BD     		pop	{r7, pc}
 1529              	.L59:
 1530 0306 00BF     		.align	2
 1531              	.L58:
 1532 0308 00000000 		.word	lado1
 1533 030c 00000000 		.word	lado2
 1534 0310 00000000 		.word	flujo_LCD2
 1535 0314 00000000 		.word	flujo_LCD1
 1536              		.cfi_endproc
 1537              	.LFE66:
 1538              		.size	init_surt, .-init_surt
 1539              		.section	.text.polling_rf,"ax",%progbits
 1540              		.align	2
 1541              		.global	polling_rf
 1542              		.thumb
 1543              		.thumb_func
 1544              		.type	polling_rf, %function
 1545              	polling_rf:
 1546              	.LFB67:
 405:.\main.c      **** 
 406:.\main.c      **** /*
 407:.\main.c      **** ***************************************************************************************************
 408:.\main.c      **** *                                         uint8 polling_rf(void)
 409:.\main.c      **** *
 410:.\main.c      **** * Description : 
 411:.\main.c      **** *               
 412:.\main.c      **** *
 413:.\main.c      **** * Argument(s) : none
 414:.\main.c      **** *
 415:.\main.c      **** * Return(s)   : none
 416:.\main.c      **** *
 417:.\main.c      **** * Caller(s)   : 
 418:.\main.c      **** *
 419:.\main.c      **** * Note(s)     : none.
 420:.\main.c      **** ***************************************************************************************************
 421:.\main.c      **** */
 422:.\main.c      **** void polling_rf(void){
 1547              		.loc 1 422 0
 1548              		.cfi_startproc
 1549              		@ args = 0, pretend = 0, frame = 24
 1550              		@ frame_needed = 1, uses_anonymous_args = 0
 1551 0000 80B5     		push	{r7, lr}
 1552              		.cfi_def_cfa_offset 8
 1553              		.cfi_offset 7, -8
 1554              		.cfi_offset 14, -4
 1555 0002 86B0     		sub	sp, sp, #24
ARM GAS  C:\Users\SISTEM~1\AppData\Local\Temp\ccCGHuKi.s 			page 36


 1556              		.cfi_def_cfa_offset 32
 1557 0004 00AF     		add	r7, sp, #0
 1558              		.cfi_def_cfa_register 7
 423:.\main.c      **** 	uint16 status1, status2,size,i,x,t_preset;
 424:.\main.c      **** 	uint8  precio[5],preset[8];
 425:.\main.c      **** 	if(PC_GetRxBufferSize()>=6){
 1559              		.loc 1 425 0
 1560 0006 FFF7FEFF 		bl	PC_GetRxBufferSize
 1561 000a 0346     		mov	r3, r0
 1562 000c 052B     		cmp	r3, #5
 1563 000e 40F2FE81 		bls	.L60
 426:.\main.c      **** 		status1=PC_GetRxBufferSize();
 1564              		.loc 1 426 0
 1565 0012 FFF7FEFF 		bl	PC_GetRxBufferSize
 1566 0016 0346     		mov	r3, r0
 1567 0018 3B82     		strh	r3, [r7, #16]	@ movhi
 427:.\main.c      **** 		CyDelay(10);
 1568              		.loc 1 427 0
 1569 001a 0A20     		movs	r0, #10
 1570 001c FFF7FEFF 		bl	CyDelay
 428:.\main.c      **** 		status2=PC_GetRxBufferSize();
 1571              		.loc 1 428 0
 1572 0020 FFF7FEFF 		bl	PC_GetRxBufferSize
 1573 0024 0346     		mov	r3, r0
 1574 0026 FB81     		strh	r3, [r7, #14]	@ movhi
 429:.\main.c      **** 		if(status1==status2){		
 1575              		.loc 1 429 0
 1576 0028 3A8A     		ldrh	r2, [r7, #16]
 1577 002a FB89     		ldrh	r3, [r7, #14]
 1578 002c 9A42     		cmp	r2, r3
 1579 002e 40F0EE81 		bne	.L60
 430:.\main.c      **** 			if((PC_rxBuffer[0]=='B')&&(PC_rxBuffer[1]=='B')&&(PC_rxBuffer[2]=='B')){
 1580              		.loc 1 430 0
 1581 0032 A54B     		ldr	r3, .L93
 1582 0034 1B78     		ldrb	r3, [r3]
 1583 0036 DBB2     		uxtb	r3, r3
 1584 0038 422B     		cmp	r3, #66
 1585 003a 40F0E281 		bne	.L62
 1586              		.loc 1 430 0 is_stmt 0 discriminator 1
 1587 003e A24B     		ldr	r3, .L93
 1588 0040 5B78     		ldrb	r3, [r3, #1]
 1589 0042 DBB2     		uxtb	r3, r3
 1590 0044 422B     		cmp	r3, #66
 1591 0046 40F0DC81 		bne	.L62
 1592 004a 9F4B     		ldr	r3, .L93
 1593 004c 9B78     		ldrb	r3, [r3, #2]
 1594 004e DBB2     		uxtb	r3, r3
 1595 0050 422B     		cmp	r3, #66
 1596 0052 40F0D681 		bne	.L62
 431:.\main.c      **** 				ok_datosRF=0;
 1597              		.loc 1 431 0 is_stmt 1
 1598 0056 9D4B     		ldr	r3, .L93+4
 1599 0058 0022     		movs	r2, #0
 1600 005a 1A70     		strb	r2, [r3]
 432:.\main.c      **** 				switch(PC_rxBuffer[3]){
 1601              		.loc 1 432 0
 1602 005c 9A4B     		ldr	r3, .L93
ARM GAS  C:\Users\SISTEM~1\AppData\Local\Temp\ccCGHuKi.s 			page 37


 1603 005e DB78     		ldrb	r3, [r3, #3]
 1604 0060 DBB2     		uxtb	r3, r3
 1605 0062 312B     		cmp	r3, #49
 1606 0064 00F05E81 		beq	.L64
 1607 0068 452B     		cmp	r3, #69
 1608 006a 00F08481 		beq	.L65
 1609 006e 302B     		cmp	r3, #48
 1610 0070 40F0B381 		bne	.L63
 433:.\main.c      **** 					case cautorizar:
 434:.\main.c      **** 						if(PC_rxBuffer[5]=='N'){			//No autorizo el servidor		
 1611              		.loc 1 434 0
 1612 0074 944B     		ldr	r3, .L93
 1613 0076 5B79     		ldrb	r3, [r3, #5]
 1614 0078 DBB2     		uxtb	r3, r3
 1615 007a 4E2B     		cmp	r3, #78
 1616 007c 0AD1     		bne	.L67
 435:.\main.c      **** 							error_op((PC_rxBuffer[4] & 0x0F),28);
 1617              		.loc 1 435 0
 1618 007e 924B     		ldr	r3, .L93
 1619 0080 1B79     		ldrb	r3, [r3, #4]
 1620 0082 DBB2     		uxtb	r3, r3
 1621 0084 03F00F03 		and	r3, r3, #15
 1622 0088 DBB2     		uxtb	r3, r3
 1623 008a 1846     		mov	r0, r3
 1624 008c 1C21     		movs	r1, #28
 1625 008e FFF7FEFF 		bl	error_op
 436:.\main.c      **** 							break;
 1626              		.loc 1 436 0
 1627 0092 A2E1     		b	.L63
 1628              	.L67:
 437:.\main.c      **** 						}
 438:.\main.c      **** 						if(PC_rxBuffer[10]!='F'){		//Cambia precio
 1629              		.loc 1 438 0
 1630 0094 8C4B     		ldr	r3, .L93
 1631 0096 9B7A     		ldrb	r3, [r3, #10]
 1632 0098 DBB2     		uxtb	r3, r3
 1633 009a 462B     		cmp	r3, #70
 1634 009c 6CD0     		beq	.L68
 439:.\main.c      ****                             
 440:.\main.c      **** 							totales(lado1.dir, lado1.mangueras);
 1635              		.loc 1 440 0
 1636 009e 8C4B     		ldr	r3, .L93+8
 1637 00a0 1B78     		ldrb	r3, [r3]
 1638 00a2 DAB2     		uxtb	r2, r3
 1639 00a4 8A4B     		ldr	r3, .L93+8
 1640 00a6 93F85C30 		ldrb	r3, [r3, #92]
 1641 00aa DBB2     		uxtb	r3, r3
 1642 00ac 1046     		mov	r0, r2
 1643 00ae 1946     		mov	r1, r3
 1644 00b0 FFF7FEFF 		bl	totales
 441:.\main.c      ****                             if(ppux10==1){
 1645              		.loc 1 441 0
 1646 00b4 874B     		ldr	r3, .L93+12
 1647 00b6 1B78     		ldrb	r3, [r3]
 1648 00b8 DBB2     		uxtb	r3, r3
 1649 00ba 012B     		cmp	r3, #1
 1650 00bc 11D1     		bne	.L69
ARM GAS  C:\Users\SISTEM~1\AppData\Local\Temp\ccCGHuKi.s 			page 38


 442:.\main.c      ****     							precio[0]=PC_rxBuffer[9];	
 1651              		.loc 1 442 0
 1652 00be 824B     		ldr	r3, .L93
 1653 00c0 5B7A     		ldrb	r3, [r3, #9]
 1654 00c2 DBB2     		uxtb	r3, r3
 1655 00c4 3B72     		strb	r3, [r7, #8]
 443:.\main.c      ****     							precio[1]=PC_rxBuffer[8];
 1656              		.loc 1 443 0
 1657 00c6 804B     		ldr	r3, .L93
 1658 00c8 1B7A     		ldrb	r3, [r3, #8]
 1659 00ca DBB2     		uxtb	r3, r3
 1660 00cc 7B72     		strb	r3, [r7, #9]
 444:.\main.c      ****     							precio[2]=PC_rxBuffer[7];
 1661              		.loc 1 444 0
 1662 00ce 7E4B     		ldr	r3, .L93
 1663 00d0 DB79     		ldrb	r3, [r3, #7]
 1664 00d2 DBB2     		uxtb	r3, r3
 1665 00d4 BB72     		strb	r3, [r7, #10]
 445:.\main.c      ****     							precio[3]=PC_rxBuffer[6];
 1666              		.loc 1 445 0
 1667 00d6 7C4B     		ldr	r3, .L93
 1668 00d8 9B79     		ldrb	r3, [r3, #6]
 1669 00da DBB2     		uxtb	r3, r3
 1670 00dc FB72     		strb	r3, [r7, #11]
 446:.\main.c      ****     							precio[4]=0;			
 1671              		.loc 1 446 0
 1672 00de 0023     		movs	r3, #0
 1673 00e0 3B73     		strb	r3, [r7, #12]
 1674              	.L69:
 447:.\main.c      ****                             }
 448:.\main.c      ****                             if(ppux10==0){
 1675              		.loc 1 448 0
 1676 00e2 7C4B     		ldr	r3, .L93+12
 1677 00e4 1B78     		ldrb	r3, [r3]
 1678 00e6 DBB2     		uxtb	r3, r3
 1679 00e8 002B     		cmp	r3, #0
 1680 00ea 13D1     		bne	.L70
 449:.\main.c      ****     							precio[0]=PC_rxBuffer[10];	
 1681              		.loc 1 449 0
 1682 00ec 764B     		ldr	r3, .L93
 1683 00ee 9B7A     		ldrb	r3, [r3, #10]
 1684 00f0 DBB2     		uxtb	r3, r3
 1685 00f2 3B72     		strb	r3, [r7, #8]
 450:.\main.c      ****     							precio[1]=PC_rxBuffer[9];
 1686              		.loc 1 450 0
 1687 00f4 744B     		ldr	r3, .L93
 1688 00f6 5B7A     		ldrb	r3, [r3, #9]
 1689 00f8 DBB2     		uxtb	r3, r3
 1690 00fa 7B72     		strb	r3, [r7, #9]
 451:.\main.c      ****     							precio[2]=PC_rxBuffer[8];
 1691              		.loc 1 451 0
 1692 00fc 724B     		ldr	r3, .L93
 1693 00fe 1B7A     		ldrb	r3, [r3, #8]
 1694 0100 DBB2     		uxtb	r3, r3
 1695 0102 BB72     		strb	r3, [r7, #10]
 452:.\main.c      ****     							precio[3]=PC_rxBuffer[7];
 1696              		.loc 1 452 0
ARM GAS  C:\Users\SISTEM~1\AppData\Local\Temp\ccCGHuKi.s 			page 39


 1697 0104 704B     		ldr	r3, .L93
 1698 0106 DB79     		ldrb	r3, [r3, #7]
 1699 0108 DBB2     		uxtb	r3, r3
 1700 010a FB72     		strb	r3, [r7, #11]
 453:.\main.c      ****     							precio[4]=PC_rxBuffer[6];                            
 1701              		.loc 1 453 0
 1702 010c 6E4B     		ldr	r3, .L93
 1703 010e 9B79     		ldrb	r3, [r3, #6]
 1704 0110 DBB2     		uxtb	r3, r3
 1705 0112 3B73     		strb	r3, [r7, #12]
 1706              	.L70:
 454:.\main.c      ****                             }
 455:.\main.c      **** 							if(cambiar_precio((lado1.dir & 0x0F),precio,rventa1.manguera)==0){
 1707              		.loc 1 455 0
 1708 0114 6E4B     		ldr	r3, .L93+8
 1709 0116 1B78     		ldrb	r3, [r3]
 1710 0118 DBB2     		uxtb	r3, r3
 1711 011a 03F00F03 		and	r3, r3, #15
 1712 011e D9B2     		uxtb	r1, r3
 1713 0120 6D4B     		ldr	r3, .L93+16
 1714 0122 9B7E     		ldrb	r3, [r3, #26]	@ zero_extendqisi2
 1715 0124 07F10802 		add	r2, r7, #8
 1716 0128 0846     		mov	r0, r1
 1717 012a 1146     		mov	r1, r2
 1718 012c 1A46     		mov	r2, r3
 1719 012e FFF7FEFF 		bl	cambiar_precio
 1720 0132 0346     		mov	r3, r0
 1721 0134 002B     		cmp	r3, #0
 1722 0136 1FD1     		bne	.L68
 456:.\main.c      **** 								rf_mod[0]='M';
 1723              		.loc 1 456 0
 1724 0138 684B     		ldr	r3, .L93+20
 1725 013a 4D22     		movs	r2, #77
 1726 013c 1A70     		strb	r2, [r3]
 457:.\main.c      **** 								rf_mod[1]='U';
 1727              		.loc 1 457 0
 1728 013e 674B     		ldr	r3, .L93+20
 1729 0140 5522     		movs	r2, #85
 1730 0142 5A70     		strb	r2, [r3, #1]
 458:.\main.c      **** 								rf_mod[2]='X';
 1731              		.loc 1 458 0
 1732 0144 654B     		ldr	r3, .L93+20
 1733 0146 5822     		movs	r2, #88
 1734 0148 9A70     		strb	r2, [r3, #2]
 459:.\main.c      **** 								rf_mod[3]=creset;
 1735              		.loc 1 459 0
 1736 014a 644B     		ldr	r3, .L93+20
 1737 014c 4522     		movs	r2, #69
 1738 014e DA70     		strb	r2, [r3, #3]
 460:.\main.c      **** 								rf_mod[4]=cautorizar;
 1739              		.loc 1 460 0
 1740 0150 624B     		ldr	r3, .L93+20
 1741 0152 3022     		movs	r2, #48
 1742 0154 1A71     		strb	r2, [r3, #4]
 461:.\main.c      **** 								rf_mod[5]=PC_rxBuffer[4];
 1743              		.loc 1 461 0
 1744 0156 5C4B     		ldr	r3, .L93
ARM GAS  C:\Users\SISTEM~1\AppData\Local\Temp\ccCGHuKi.s 			page 40


 1745 0158 1B79     		ldrb	r3, [r3, #4]
 1746 015a DAB2     		uxtb	r2, r3
 1747 015c 5F4B     		ldr	r3, .L93+20
 1748 015e 5A71     		strb	r2, [r3, #5]
 462:.\main.c      **** 								rf_mod[6]='1';
 1749              		.loc 1 462 0
 1750 0160 5E4B     		ldr	r3, .L93+20
 1751 0162 3122     		movs	r2, #49
 1752 0164 9A71     		strb	r2, [r3, #6]
 463:.\main.c      **** 								rf_mod[7]='*';
 1753              		.loc 1 463 0
 1754 0166 5D4B     		ldr	r3, .L93+20
 1755 0168 2A22     		movs	r2, #42
 1756 016a DA71     		strb	r2, [r3, #7]
 464:.\main.c      **** 								size=8;
 1757              		.loc 1 464 0
 1758 016c 0823     		movs	r3, #8
 1759 016e FB82     		strh	r3, [r7, #22]	@ movhi
 465:.\main.c      **** 								ok_datosRF=1;
 1760              		.loc 1 465 0
 1761 0170 564B     		ldr	r3, .L93+4
 1762 0172 0122     		movs	r2, #1
 1763 0174 1A70     		strb	r2, [r3]
 466:.\main.c      **** 								break;
 1764              		.loc 1 466 0
 1765 0176 30E1     		b	.L63
 1766              	.L68:
 467:.\main.c      **** 							}
 468:.\main.c      **** 						}
 469:.\main.c      **** 						preset[1]=PC_rxBuffer[17];				//Preset
 1767              		.loc 1 469 0
 1768 0178 534B     		ldr	r3, .L93
 1769 017a 5B7C     		ldrb	r3, [r3, #17]
 1770 017c DBB2     		uxtb	r3, r3
 1771 017e 7B70     		strb	r3, [r7, #1]
 470:.\main.c      **** 						if(PC_rxBuffer[17]!=','){
 1772              		.loc 1 470 0
 1773 0180 514B     		ldr	r3, .L93
 1774 0182 5B7C     		ldrb	r3, [r3, #17]
 1775 0184 DBB2     		uxtb	r3, r3
 1776 0186 2C2B     		cmp	r3, #44
 1777 0188 06D0     		beq	.L71
 471:.\main.c      **** 							preset[1]=PC_rxBuffer[17] & 0x0F;
 1778              		.loc 1 471 0
 1779 018a 4F4B     		ldr	r3, .L93
 1780 018c 5B7C     		ldrb	r3, [r3, #17]
 1781 018e DBB2     		uxtb	r3, r3
 1782 0190 03F00F03 		and	r3, r3, #15
 1783 0194 DBB2     		uxtb	r3, r3
 1784 0196 7B70     		strb	r3, [r7, #1]
 1785              	.L71:
 472:.\main.c      **** 						}
 473:.\main.c      **** 						preset[2]=PC_rxBuffer[16];
 1786              		.loc 1 473 0
 1787 0198 4B4B     		ldr	r3, .L93
 1788 019a 1B7C     		ldrb	r3, [r3, #16]
 1789 019c DBB2     		uxtb	r3, r3
ARM GAS  C:\Users\SISTEM~1\AppData\Local\Temp\ccCGHuKi.s 			page 41


 1790 019e BB70     		strb	r3, [r7, #2]
 474:.\main.c      **** 						if(PC_rxBuffer[16]!=','){
 1791              		.loc 1 474 0
 1792 01a0 494B     		ldr	r3, .L93
 1793 01a2 1B7C     		ldrb	r3, [r3, #16]
 1794 01a4 DBB2     		uxtb	r3, r3
 1795 01a6 2C2B     		cmp	r3, #44
 1796 01a8 06D0     		beq	.L72
 475:.\main.c      **** 							preset[2]=PC_rxBuffer[16] & 0x0F;
 1797              		.loc 1 475 0
 1798 01aa 474B     		ldr	r3, .L93
 1799 01ac 1B7C     		ldrb	r3, [r3, #16]
 1800 01ae DBB2     		uxtb	r3, r3
 1801 01b0 03F00F03 		and	r3, r3, #15
 1802 01b4 DBB2     		uxtb	r3, r3
 1803 01b6 BB70     		strb	r3, [r7, #2]
 1804              	.L72:
 476:.\main.c      **** 						}
 477:.\main.c      **** 						preset[3]=PC_rxBuffer[15];
 1805              		.loc 1 477 0
 1806 01b8 434B     		ldr	r3, .L93
 1807 01ba DB7B     		ldrb	r3, [r3, #15]
 1808 01bc DBB2     		uxtb	r3, r3
 1809 01be FB70     		strb	r3, [r7, #3]
 478:.\main.c      **** 						if(PC_rxBuffer[15]!=','){
 1810              		.loc 1 478 0
 1811 01c0 414B     		ldr	r3, .L93
 1812 01c2 DB7B     		ldrb	r3, [r3, #15]
 1813 01c4 DBB2     		uxtb	r3, r3
 1814 01c6 2C2B     		cmp	r3, #44
 1815 01c8 06D0     		beq	.L73
 479:.\main.c      **** 							preset[3]=PC_rxBuffer[15] & 0x0F;
 1816              		.loc 1 479 0
 1817 01ca 3F4B     		ldr	r3, .L93
 1818 01cc DB7B     		ldrb	r3, [r3, #15]
 1819 01ce DBB2     		uxtb	r3, r3
 1820 01d0 03F00F03 		and	r3, r3, #15
 1821 01d4 DBB2     		uxtb	r3, r3
 1822 01d6 FB70     		strb	r3, [r7, #3]
 1823              	.L73:
 480:.\main.c      **** 						}
 481:.\main.c      **** 						preset[4]=PC_rxBuffer[14];
 1824              		.loc 1 481 0
 1825 01d8 3B4B     		ldr	r3, .L93
 1826 01da 9B7B     		ldrb	r3, [r3, #14]
 1827 01dc DBB2     		uxtb	r3, r3
 1828 01de 3B71     		strb	r3, [r7, #4]
 482:.\main.c      **** 						if(PC_rxBuffer[14]!=','){
 1829              		.loc 1 482 0
 1830 01e0 394B     		ldr	r3, .L93
 1831 01e2 9B7B     		ldrb	r3, [r3, #14]
 1832 01e4 DBB2     		uxtb	r3, r3
 1833 01e6 2C2B     		cmp	r3, #44
 1834 01e8 06D0     		beq	.L74
 483:.\main.c      **** 							preset[4]=PC_rxBuffer[14] & 0x0F;
 1835              		.loc 1 483 0
 1836 01ea 374B     		ldr	r3, .L93
ARM GAS  C:\Users\SISTEM~1\AppData\Local\Temp\ccCGHuKi.s 			page 42


 1837 01ec 9B7B     		ldrb	r3, [r3, #14]
 1838 01ee DBB2     		uxtb	r3, r3
 1839 01f0 03F00F03 		and	r3, r3, #15
 1840 01f4 DBB2     		uxtb	r3, r3
 1841 01f6 3B71     		strb	r3, [r7, #4]
 1842              	.L74:
 484:.\main.c      **** 						}
 485:.\main.c      **** 						preset[5]=PC_rxBuffer[13];
 1843              		.loc 1 485 0
 1844 01f8 334B     		ldr	r3, .L93
 1845 01fa 5B7B     		ldrb	r3, [r3, #13]
 1846 01fc DBB2     		uxtb	r3, r3
 1847 01fe 7B71     		strb	r3, [r7, #5]
 486:.\main.c      **** 						if(PC_rxBuffer[13]!=','){
 1848              		.loc 1 486 0
 1849 0200 314B     		ldr	r3, .L93
 1850 0202 5B7B     		ldrb	r3, [r3, #13]
 1851 0204 DBB2     		uxtb	r3, r3
 1852 0206 2C2B     		cmp	r3, #44
 1853 0208 06D0     		beq	.L75
 487:.\main.c      **** 							preset[5]=PC_rxBuffer[13] & 0x0F;
 1854              		.loc 1 487 0
 1855 020a 2F4B     		ldr	r3, .L93
 1856 020c 5B7B     		ldrb	r3, [r3, #13]
 1857 020e DBB2     		uxtb	r3, r3
 1858 0210 03F00F03 		and	r3, r3, #15
 1859 0214 DBB2     		uxtb	r3, r3
 1860 0216 7B71     		strb	r3, [r7, #5]
 1861              	.L75:
 488:.\main.c      **** 						}
 489:.\main.c      **** 						preset[6]=PC_rxBuffer[12];
 1862              		.loc 1 489 0
 1863 0218 2B4B     		ldr	r3, .L93
 1864 021a 1B7B     		ldrb	r3, [r3, #12]
 1865 021c DBB2     		uxtb	r3, r3
 1866 021e BB71     		strb	r3, [r7, #6]
 490:.\main.c      **** 						if(PC_rxBuffer[12]!=','){
 1867              		.loc 1 490 0
 1868 0220 294B     		ldr	r3, .L93
 1869 0222 1B7B     		ldrb	r3, [r3, #12]
 1870 0224 DBB2     		uxtb	r3, r3
 1871 0226 2C2B     		cmp	r3, #44
 1872 0228 06D0     		beq	.L76
 491:.\main.c      **** 							preset[6]=PC_rxBuffer[12] & 0x0F;
 1873              		.loc 1 491 0
 1874 022a 274B     		ldr	r3, .L93
 1875 022c 1B7B     		ldrb	r3, [r3, #12]
 1876 022e DBB2     		uxtb	r3, r3
 1877 0230 03F00F03 		and	r3, r3, #15
 1878 0234 DBB2     		uxtb	r3, r3
 1879 0236 BB71     		strb	r3, [r7, #6]
 1880              	.L76:
 492:.\main.c      **** 						}
 493:.\main.c      **** 						preset[7]=PC_rxBuffer[11];
 1881              		.loc 1 493 0
 1882 0238 234B     		ldr	r3, .L93
 1883 023a DB7A     		ldrb	r3, [r3, #11]
ARM GAS  C:\Users\SISTEM~1\AppData\Local\Temp\ccCGHuKi.s 			page 43


 1884 023c DBB2     		uxtb	r3, r3
 1885 023e FB71     		strb	r3, [r7, #7]
 494:.\main.c      **** 						if(PC_rxBuffer[11]!=','){
 1886              		.loc 1 494 0
 1887 0240 214B     		ldr	r3, .L93
 1888 0242 DB7A     		ldrb	r3, [r3, #11]
 1889 0244 DBB2     		uxtb	r3, r3
 1890 0246 2C2B     		cmp	r3, #44
 1891 0248 06D0     		beq	.L77
 495:.\main.c      **** 							preset[7]=PC_rxBuffer[11] & 0x0F;
 1892              		.loc 1 495 0
 1893 024a 1F4B     		ldr	r3, .L93
 1894 024c DB7A     		ldrb	r3, [r3, #11]
 1895 024e DBB2     		uxtb	r3, r3
 1896 0250 03F00F03 		and	r3, r3, #15
 1897 0254 DBB2     		uxtb	r3, r3
 1898 0256 FB71     		strb	r3, [r7, #7]
 1899              	.L77:
 496:.\main.c      **** 						}
 497:.\main.c      **** 						t_preset=PC_rxBuffer[18];
 1900              		.loc 1 497 0
 1901 0258 1B4B     		ldr	r3, .L93
 1902 025a 9B7C     		ldrb	r3, [r3, #18]
 1903 025c DBB2     		uxtb	r3, r3
 1904 025e 7B82     		strh	r3, [r7, #18]	@ movhi
 498:.\main.c      **** 						if(t_preset=='1'){
 1905              		.loc 1 498 0
 1906 0260 7B8A     		ldrh	r3, [r7, #18]
 1907 0262 312B     		cmp	r3, #49
 1908 0264 02D1     		bne	.L78
 499:.\main.c      **** 							t_preset=2;
 1909              		.loc 1 499 0
 1910 0266 0223     		movs	r3, #2
 1911 0268 7B82     		strh	r3, [r7, #18]	@ movhi
 1912 026a 01E0     		b	.L79
 1913              	.L78:
 500:.\main.c      **** 						}
 501:.\main.c      **** 						else{
 502:.\main.c      **** 							t_preset=1;
 1914              		.loc 1 502 0
 1915 026c 0123     		movs	r3, #1
 1916 026e 7B82     		strh	r3, [r7, #18]	@ movhi
 1917              	.L79:
 503:.\main.c      **** 						}
 504:.\main.c      **** 						if(programar((lado1.dir & 0x0F),rventa1.manguera,preset,t_preset)==1){		//Programar
 1918              		.loc 1 504 0
 1919 0270 174B     		ldr	r3, .L93+8
 1920 0272 1B78     		ldrb	r3, [r3]
 1921 0274 DBB2     		uxtb	r3, r3
 1922 0276 03F00F03 		and	r3, r3, #15
 1923 027a D8B2     		uxtb	r0, r3
 1924 027c 164B     		ldr	r3, .L93+16
 1925 027e 997E     		ldrb	r1, [r3, #26]	@ zero_extendqisi2
 1926 0280 7B8A     		ldrh	r3, [r7, #18]	@ movhi
 1927 0282 DBB2     		uxtb	r3, r3
 1928 0284 3A46     		mov	r2, r7
 1929 0286 FFF7FEFF 		bl	programar
ARM GAS  C:\Users\SISTEM~1\AppData\Local\Temp\ccCGHuKi.s 			page 44


 1930 028a 0346     		mov	r3, r0
 1931 028c 012B     		cmp	r3, #1
 1932 028e 29D1     		bne	.L80
 505:.\main.c      **** 							CyDelay(10);
 1933              		.loc 1 505 0
 1934 0290 0A20     		movs	r0, #10
 1935 0292 FFF7FEFF 		bl	CyDelay
 506:.\main.c      **** 							Surtidor_PutChar(0x10|(lado1.dir & 0x0F));							
 1936              		.loc 1 506 0
 1937 0296 0E4B     		ldr	r3, .L93+8
 1938 0298 1B78     		ldrb	r3, [r3]
 1939 029a DBB2     		uxtb	r3, r3
 1940 029c DBB2     		uxtb	r3, r3
 1941 029e 03F00F03 		and	r3, r3, #15
 1942 02a2 DBB2     		uxtb	r3, r3
 1943 02a4 43F01003 		orr	r3, r3, #16
 1944 02a8 DBB2     		uxtb	r3, r3
 1945 02aa DBB2     		uxtb	r3, r3
 1946 02ac 1846     		mov	r0, r3
 1947 02ae FFF7FEFF 		bl	Surtidor_PutChar
 507:.\main.c      **** 							lado1.estado=tanqueo;
 1948              		.loc 1 507 0
 1949 02b2 074B     		ldr	r3, .L93+8
 1950 02b4 0622     		movs	r2, #6
 1951 02b6 5A70     		strb	r2, [r3, #1]
 508:.\main.c      **** 							flujo_LCD1=11;
 1952              		.loc 1 508 0
 1953 02b8 094B     		ldr	r3, .L93+24
 1954 02ba 0B22     		movs	r2, #11
 1955 02bc 1A70     		strb	r2, [r3]
 509:.\main.c      **** 							set_imagen(1,8);
 1956              		.loc 1 509 0
 1957 02be 0120     		movs	r0, #1
 1958 02c0 0821     		movs	r1, #8
 1959 02c2 FFF7FEFF 		bl	set_imagen
 510:.\main.c      **** 						}
 511:.\main.c      **** 						else{
 512:.\main.c      **** 							rf_mod[0]='M';
 513:.\main.c      **** 							rf_mod[1]='U';
 514:.\main.c      **** 							rf_mod[2]='X';
 515:.\main.c      **** 							rf_mod[3]=creset;
 516:.\main.c      **** 							rf_mod[4]=cautorizar;
 517:.\main.c      **** 							rf_mod[5]=PC_rxBuffer[4];
 518:.\main.c      **** 							rf_mod[6]='2';
 519:.\main.c      **** 							rf_mod[7]='*';
 520:.\main.c      **** 							size=8;
 521:.\main.c      **** 							ok_datosRF=1;							
 522:.\main.c      **** 						}
 523:.\main.c      **** 					break;
 1960              		.loc 1 523 0
 1961 02c6 88E0     		b	.L63
 1962              	.L94:
 1963              		.align	2
 1964              	.L93:
 1965 02c8 00000000 		.word	PC_rxBuffer
 1966 02cc 00000000 		.word	ok_datosRF
 1967 02d0 00000000 		.word	lado1
ARM GAS  C:\Users\SISTEM~1\AppData\Local\Temp\ccCGHuKi.s 			page 45


 1968 02d4 00000000 		.word	ppux10
 1969 02d8 00000000 		.word	rventa1
 1970 02dc 00000000 		.word	rf_mod
 1971 02e0 00000000 		.word	flujo_LCD1
 1972              	.L80:
 512:.\main.c      **** 							rf_mod[0]='M';
 1973              		.loc 1 512 0
 1974 02e4 4B4B     		ldr	r3, .L95
 1975 02e6 4D22     		movs	r2, #77
 1976 02e8 1A70     		strb	r2, [r3]
 513:.\main.c      **** 							rf_mod[1]='U';
 1977              		.loc 1 513 0
 1978 02ea 4A4B     		ldr	r3, .L95
 1979 02ec 5522     		movs	r2, #85
 1980 02ee 5A70     		strb	r2, [r3, #1]
 514:.\main.c      **** 							rf_mod[2]='X';
 1981              		.loc 1 514 0
 1982 02f0 484B     		ldr	r3, .L95
 1983 02f2 5822     		movs	r2, #88
 1984 02f4 9A70     		strb	r2, [r3, #2]
 515:.\main.c      **** 							rf_mod[3]=creset;
 1985              		.loc 1 515 0
 1986 02f6 474B     		ldr	r3, .L95
 1987 02f8 4522     		movs	r2, #69
 1988 02fa DA70     		strb	r2, [r3, #3]
 516:.\main.c      **** 							rf_mod[4]=cautorizar;
 1989              		.loc 1 516 0
 1990 02fc 454B     		ldr	r3, .L95
 1991 02fe 3022     		movs	r2, #48
 1992 0300 1A71     		strb	r2, [r3, #4]
 517:.\main.c      **** 							rf_mod[5]=PC_rxBuffer[4];
 1993              		.loc 1 517 0
 1994 0302 454B     		ldr	r3, .L95+4
 1995 0304 1B79     		ldrb	r3, [r3, #4]
 1996 0306 DAB2     		uxtb	r2, r3
 1997 0308 424B     		ldr	r3, .L95
 1998 030a 5A71     		strb	r2, [r3, #5]
 518:.\main.c      **** 							rf_mod[6]='2';
 1999              		.loc 1 518 0
 2000 030c 414B     		ldr	r3, .L95
 2001 030e 3222     		movs	r2, #50
 2002 0310 9A71     		strb	r2, [r3, #6]
 519:.\main.c      **** 							rf_mod[7]='*';
 2003              		.loc 1 519 0
 2004 0312 404B     		ldr	r3, .L95
 2005 0314 2A22     		movs	r2, #42
 2006 0316 DA71     		strb	r2, [r3, #7]
 520:.\main.c      **** 							size=8;
 2007              		.loc 1 520 0
 2008 0318 0823     		movs	r3, #8
 2009 031a FB82     		strh	r3, [r7, #22]	@ movhi
 521:.\main.c      **** 							ok_datosRF=1;							
 2010              		.loc 1 521 0
 2011 031c 3F4B     		ldr	r3, .L95+8
 2012 031e 0122     		movs	r2, #1
 2013 0320 1A70     		strb	r2, [r3]
 2014              		.loc 1 523 0
ARM GAS  C:\Users\SISTEM~1\AppData\Local\Temp\ccCGHuKi.s 			page 46


 2015 0322 5AE0     		b	.L63
 2016              	.L64:
 524:.\main.c      **** 					
 525:.\main.c      **** 					case cimprimir:
 526:.\main.c      **** 						set_imagen(1,55);					
 2017              		.loc 1 526 0
 2018 0324 0120     		movs	r0, #1
 2019 0326 3721     		movs	r1, #55
 2020 0328 FFF7FEFF 		bl	set_imagen
 527:.\main.c      **** 						if(lado1.dir==(lado1.dir & 0x0F)){
 2021              		.loc 1 527 0
 2022 032c 3C4B     		ldr	r3, .L95+12
 2023 032e 1B78     		ldrb	r3, [r3]
 2024 0330 DBB2     		uxtb	r3, r3
 2025 0332 1A46     		mov	r2, r3
 2026 0334 3A4B     		ldr	r3, .L95+12
 2027 0336 1B78     		ldrb	r3, [r3]
 2028 0338 DBB2     		uxtb	r3, r3
 2029 033a 03F00F03 		and	r3, r3, #15
 2030 033e 9A42     		cmp	r2, r3
 2031 0340 06D1     		bne	.L82
 528:.\main.c      **** 							lado1.estado=libre;
 2032              		.loc 1 528 0
 2033 0342 374B     		ldr	r3, .L95+12
 2034 0344 0122     		movs	r2, #1
 2035 0346 5A70     		strb	r2, [r3, #1]
 529:.\main.c      **** 							flujo_LCD1=0;
 2036              		.loc 1 529 0
 2037 0348 364B     		ldr	r3, .L95+16
 2038 034a 0022     		movs	r2, #0
 2039 034c 1A70     		strb	r2, [r3]
 2040 034e 11E0     		b	.L83
 2041              	.L82:
 530:.\main.c      **** 						}
 531:.\main.c      **** 						else if(lado2.dir==(PC_rxBuffer[4] & 0x0F)){
 2042              		.loc 1 531 0
 2043 0350 354B     		ldr	r3, .L95+20
 2044 0352 1B78     		ldrb	r3, [r3]
 2045 0354 DBB2     		uxtb	r3, r3
 2046 0356 1A46     		mov	r2, r3
 2047 0358 2F4B     		ldr	r3, .L95+4
 2048 035a 1B79     		ldrb	r3, [r3, #4]
 2049 035c DBB2     		uxtb	r3, r3
 2050 035e 03F00F03 		and	r3, r3, #15
 2051 0362 9A42     		cmp	r2, r3
 2052 0364 06D1     		bne	.L83
 532:.\main.c      **** 							lado2.estado=libre;
 2053              		.loc 1 532 0
 2054 0366 304B     		ldr	r3, .L95+20
 2055 0368 0122     		movs	r2, #1
 2056 036a 5A70     		strb	r2, [r3, #1]
 533:.\main.c      **** 							flujo_LCD1=0;
 2057              		.loc 1 533 0
 2058 036c 2D4B     		ldr	r3, .L95+16
 2059 036e 0022     		movs	r2, #0
 2060 0370 1A70     		strb	r2, [r3]
 534:.\main.c      **** 						}						
ARM GAS  C:\Users\SISTEM~1\AppData\Local\Temp\ccCGHuKi.s 			page 47


 535:.\main.c      **** 					break;
 2061              		.loc 1 535 0
 2062 0372 32E0     		b	.L63
 2063              	.L83:
 2064 0374 31E0     		b	.L63
 2065              	.L65:
 536:.\main.c      **** 					
 537:.\main.c      **** 					case creset:
 538:.\main.c      **** 						switch(PC_rxBuffer[5]){
 2066              		.loc 1 538 0
 2067 0376 284B     		ldr	r3, .L95+4
 2068 0378 5B79     		ldrb	r3, [r3, #5]
 2069 037a DBB2     		uxtb	r3, r3
 2070 037c 313B     		subs	r3, r3, #49
 2071 037e 032B     		cmp	r3, #3
 2072 0380 2AD8     		bhi	.L92
 2073 0382 01A2     		adr	r2, .L86
 2074 0384 52F823F0 		ldr	pc, [r2, r3, lsl #2]
 2075              		.p2align 2
 2076              	.L86:
 2077 0388 99030000 		.word	.L85+1
 2078 038c A9030000 		.word	.L87+1
 2079 0390 B9030000 		.word	.L88+1
 2080 0394 C9030000 		.word	.L89+1
 2081              		.p2align 1
 2082              	.L85:
 539:.\main.c      **** 							case '1':														
 540:.\main.c      **** 								lado1.estado=libre;
 2083              		.loc 1 540 0
 2084 0398 214B     		ldr	r3, .L95+12
 2085 039a 0122     		movs	r2, #1
 2086 039c 5A70     		strb	r2, [r3, #1]
 541:.\main.c      **** 								error_op(1,28);					 //Error de id					
 2087              		.loc 1 541 0
 2088 039e 0120     		movs	r0, #1
 2089 03a0 1C21     		movs	r1, #28
 2090 03a2 FFF7FEFF 		bl	error_op
 542:.\main.c      **** 							break;
 2091              		.loc 1 542 0
 2092 03a6 17E0     		b	.L84
 2093              	.L87:
 543:.\main.c      **** 								
 544:.\main.c      **** 							case '2':
 545:.\main.c      **** 								lado1.estado=libre;
 2094              		.loc 1 545 0
 2095 03a8 1D4B     		ldr	r3, .L95+12
 2096 03aa 0122     		movs	r2, #1
 2097 03ac 5A70     		strb	r2, [r3, #1]
 546:.\main.c      **** 								error_op(1,12);					//Gracias por su compra
 2098              		.loc 1 546 0
 2099 03ae 0120     		movs	r0, #1
 2100 03b0 0C21     		movs	r1, #12
 2101 03b2 FFF7FEFF 		bl	error_op
 547:.\main.c      **** 							break;
 2102              		.loc 1 547 0
 2103 03b6 0FE0     		b	.L84
 2104              	.L88:
ARM GAS  C:\Users\SISTEM~1\AppData\Local\Temp\ccCGHuKi.s 			page 48


 548:.\main.c      **** 								
 549:.\main.c      **** 							case '3':
 550:.\main.c      **** 								lado1.estado=libre;
 2105              		.loc 1 550 0
 2106 03b8 194B     		ldr	r3, .L95+12
 2107 03ba 0122     		movs	r2, #1
 2108 03bc 5A70     		strb	r2, [r3, #1]
 551:.\main.c      **** 								error_op(1,85);					//Error de Operacion
 2109              		.loc 1 551 0
 2110 03be 0120     		movs	r0, #1
 2111 03c0 5521     		movs	r1, #85
 2112 03c2 FFF7FEFF 		bl	error_op
 552:.\main.c      **** 							break;
 2113              		.loc 1 552 0
 2114 03c6 07E0     		b	.L84
 2115              	.L89:
 553:.\main.c      **** 								
 554:.\main.c      **** 							case '4':
 555:.\main.c      **** 								lado1.estado=libre;
 2116              		.loc 1 555 0
 2117 03c8 154B     		ldr	r3, .L95+12
 2118 03ca 0122     		movs	r2, #1
 2119 03cc 5A70     		strb	r2, [r3, #1]
 556:.\main.c      **** 								error_op(1,12);					//Fin Corte
 2120              		.loc 1 556 0
 2121 03ce 0120     		movs	r0, #1
 2122 03d0 0C21     		movs	r1, #12
 2123 03d2 FFF7FEFF 		bl	error_op
 557:.\main.c      **** 							break;								
 2124              		.loc 1 557 0
 2125 03d6 00BF     		nop
 2126              	.L84:
 2127              	.L92:
 558:.\main.c      **** 								
 559:.\main.c      **** 						}
 560:.\main.c      **** 					break;
 2128              		.loc 1 560 0
 2129 03d8 00BF     		nop
 2130              	.L63:
 561:.\main.c      **** 						
 562:.\main.c      **** 				}
 563:.\main.c      **** 				if(ok_datosRF==1){
 2131              		.loc 1 563 0
 2132 03da 104B     		ldr	r3, .L95+8
 2133 03dc 1B78     		ldrb	r3, [r3]	@ zero_extendqisi2
 2134 03de 012B     		cmp	r3, #1
 2135 03e0 0FD1     		bne	.L62
 564:.\main.c      **** 				    for(x=0;x<size;x++){
 2136              		.loc 1 564 0
 2137 03e2 0023     		movs	r3, #0
 2138 03e4 BB82     		strh	r3, [r7, #20]	@ movhi
 2139 03e6 08E0     		b	.L90
 2140              	.L91:
 565:.\main.c      **** 					   PC_PutChar(rf_mod[x]);
 2141              		.loc 1 565 0 discriminator 2
 2142 03e8 BB8A     		ldrh	r3, [r7, #20]
 2143 03ea 0A4A     		ldr	r2, .L95
ARM GAS  C:\Users\SISTEM~1\AppData\Local\Temp\ccCGHuKi.s 			page 49


 2144 03ec D35C     		ldrb	r3, [r2, r3]	@ zero_extendqisi2
 2145 03ee 1846     		mov	r0, r3
 2146 03f0 FFF7FEFF 		bl	PC_PutChar
 564:.\main.c      **** 				    for(x=0;x<size;x++){
 2147              		.loc 1 564 0 discriminator 2
 2148 03f4 BB8A     		ldrh	r3, [r7, #20]
 2149 03f6 0133     		adds	r3, r3, #1
 2150 03f8 BB82     		strh	r3, [r7, #20]	@ movhi
 2151              	.L90:
 564:.\main.c      **** 				    for(x=0;x<size;x++){
 2152              		.loc 1 564 0 is_stmt 0 discriminator 1
 2153 03fa BA8A     		ldrh	r2, [r7, #20]
 2154 03fc FB8A     		ldrh	r3, [r7, #22]
 2155 03fe 9A42     		cmp	r2, r3
 2156 0400 F2D3     		bcc	.L91
 2157              	.L62:
 566:.\main.c      **** 				    }							
 567:.\main.c      **** 				}
 568:.\main.c      **** 			}
 569:.\main.c      **** 			PC_ClearRxBuffer();
 2158              		.loc 1 569 0 is_stmt 1
 2159 0402 FFF7FEFF 		bl	PC_ClearRxBuffer
 570:.\main.c      **** 			status1=0;
 2160              		.loc 1 570 0
 2161 0406 0023     		movs	r3, #0
 2162 0408 3B82     		strh	r3, [r7, #16]	@ movhi
 571:.\main.c      **** 			status2=0;			
 2163              		.loc 1 571 0
 2164 040a 0023     		movs	r3, #0
 2165 040c FB81     		strh	r3, [r7, #14]	@ movhi
 2166              	.L60:
 572:.\main.c      **** 		}		
 573:.\main.c      **** 	}	
 574:.\main.c      **** }
 2167              		.loc 1 574 0
 2168 040e 1837     		adds	r7, r7, #24
 2169 0410 BD46     		mov	sp, r7
 2170              		@ sp needed
 2171 0412 80BD     		pop	{r7, pc}
 2172              	.L96:
 2173              		.align	2
 2174              	.L95:
 2175 0414 00000000 		.word	rf_mod
 2176 0418 00000000 		.word	PC_rxBuffer
 2177 041c 00000000 		.word	ok_datosRF
 2178 0420 00000000 		.word	lado1
 2179 0424 00000000 		.word	flujo_LCD1
 2180 0428 00000000 		.word	lado2
 2181              		.cfi_endproc
 2182              	.LFE67:
 2183              		.size	polling_rf, .-polling_rf
 2184              		.section	.text.polling_surt,"ax",%progbits
 2185              		.align	2
 2186              		.global	polling_surt
 2187              		.thumb
 2188              		.thumb_func
 2189              		.type	polling_surt, %function
ARM GAS  C:\Users\SISTEM~1\AppData\Local\Temp\ccCGHuKi.s 			page 50


 2190              	polling_surt:
 2191              	.LFB68:
 575:.\main.c      **** 
 576:.\main.c      **** /*
 577:.\main.c      **** ***************************************************************************************************
 578:.\main.c      **** *                                         uint8 polling_surt(void)
 579:.\main.c      **** *
 580:.\main.c      **** * Description : 
 581:.\main.c      **** *               
 582:.\main.c      **** *
 583:.\main.c      **** * Argument(s) : none
 584:.\main.c      **** *
 585:.\main.c      **** * Return(s)   : none
 586:.\main.c      **** *
 587:.\main.c      **** * Caller(s)   : 
 588:.\main.c      **** *
 589:.\main.c      **** * Note(s)     : none.
 590:.\main.c      **** ***************************************************************************************************
 591:.\main.c      **** */
 592:.\main.c      **** 
 593:.\main.c      **** void polling_surt(void){
 2192              		.loc 1 593 0
 2193              		.cfi_startproc
 2194              		@ args = 0, pretend = 0, frame = 8
 2195              		@ frame_needed = 1, uses_anonymous_args = 0
 2196 0000 80B5     		push	{r7, lr}
 2197              		.cfi_def_cfa_offset 8
 2198              		.cfi_offset 7, -8
 2199              		.cfi_offset 14, -4
 2200 0002 82B0     		sub	sp, sp, #8
 2201              		.cfi_def_cfa_offset 16
 2202 0004 00AF     		add	r7, sp, #0
 2203              		.cfi_def_cfa_register 7
 594:.\main.c      **** 	uint8 dato;
 595:.\main.c      **** 	if(lado1.estado==libre){
 2204              		.loc 1 595 0
 2205 0006 254B     		ldr	r3, .L106
 2206 0008 5B78     		ldrb	r3, [r3, #1]
 2207 000a DBB2     		uxtb	r3, r3
 2208 000c 012B     		cmp	r3, #1
 2209 000e 18D1     		bne	.L98
 596:.\main.c      ****         
 597:.\main.c      **** 		//Recibido surtidor
 598:.\main.c      **** 	    while(Surtidor_GetRxBufferSize()>0){
 2210              		.loc 1 598 0
 2211 0010 05E0     		b	.L99
 2212              	.L100:
 599:.\main.c      **** 	        LP_PutChar(Surtidor_ReadRxData());                        
 2213              		.loc 1 599 0
 2214 0012 FFF7FEFF 		bl	Surtidor_ReadRxData
 2215 0016 0346     		mov	r3, r0
 2216 0018 1846     		mov	r0, r3
 2217 001a FFF7FEFF 		bl	LP_PutChar
 2218              	.L99:
 598:.\main.c      **** 	    while(Surtidor_GetRxBufferSize()>0){
 2219              		.loc 1 598 0 discriminator 1
 2220 001e FFF7FEFF 		bl	Surtidor_GetRxBufferSize
ARM GAS  C:\Users\SISTEM~1\AppData\Local\Temp\ccCGHuKi.s 			page 51


 2221 0022 0346     		mov	r3, r0
 2222 0024 002B     		cmp	r3, #0
 2223 0026 F4D1     		bne	.L100
 600:.\main.c      **** 	    }            
 601:.\main.c      ****         
 602:.\main.c      ****         //recibo del lazo pasivo
 603:.\main.c      **** 		while(LP_GetRxBufferSize()>0){
 2224              		.loc 1 603 0
 2225 0028 05E0     		b	.L101
 2226              	.L102:
 604:.\main.c      **** 		    Surtidor_PutChar(LP_ReadRxData());                        
 2227              		.loc 1 604 0
 2228 002a FFF7FEFF 		bl	LP_ReadRxData
 2229 002e 0346     		mov	r3, r0
 2230 0030 1846     		mov	r0, r3
 2231 0032 FFF7FEFF 		bl	Surtidor_PutChar
 2232              	.L101:
 603:.\main.c      **** 		while(LP_GetRxBufferSize()>0){
 2233              		.loc 1 603 0 discriminator 1
 2234 0036 FFF7FEFF 		bl	LP_GetRxBufferSize
 2235 003a 0346     		mov	r3, r0
 2236 003c 002B     		cmp	r3, #0
 2237 003e F4D1     		bne	.L102
 2238 0040 29E0     		b	.L97
 2239              	.L98:
 605:.\main.c      **** 	    } 
 606:.\main.c      **** 	}
 607:.\main.c      **** 	else{
 608:.\main.c      **** 		if(LP_GetRxBufferSize()>=1){
 2240              		.loc 1 608 0
 2241 0042 FFF7FEFF 		bl	LP_GetRxBufferSize
 2242 0046 0346     		mov	r3, r0
 2243 0048 002B     		cmp	r3, #0
 2244 004a 24D0     		beq	.L97
 609:.\main.c      **** 			dato = LP_ReadRxData();
 2245              		.loc 1 609 0
 2246 004c FFF7FEFF 		bl	LP_ReadRxData
 2247 0050 0346     		mov	r3, r0
 2248 0052 FB71     		strb	r3, [r7, #7]
 610:.\main.c      **** 			if((((dato & 0x0F) == (lado1.dir)) || (((dato & 0x0F) == (lado2.dir)))) && ((dato & 0xF0)==0)){
 2249              		.loc 1 610 0
 2250 0054 FB79     		ldrb	r3, [r7, #7]	@ zero_extendqisi2
 2251 0056 03F00F02 		and	r2, r3, #15
 2252 005a 104B     		ldr	r3, .L106
 2253 005c 1B78     		ldrb	r3, [r3]
 2254 005e DBB2     		uxtb	r3, r3
 2255 0060 9A42     		cmp	r2, r3
 2256 0062 07D0     		beq	.L104
 2257              		.loc 1 610 0 is_stmt 0 discriminator 2
 2258 0064 FB79     		ldrb	r3, [r7, #7]	@ zero_extendqisi2
 2259 0066 03F00F02 		and	r2, r3, #15
 2260 006a 0D4B     		ldr	r3, .L106+4
 2261 006c 1B78     		ldrb	r3, [r3]
 2262 006e DBB2     		uxtb	r3, r3
 2263 0070 9A42     		cmp	r2, r3
 2264 0072 0ED1     		bne	.L105
 2265              	.L104:
ARM GAS  C:\Users\SISTEM~1\AppData\Local\Temp\ccCGHuKi.s 			page 52


 2266              		.loc 1 610 0 discriminator 1
 2267 0074 FB79     		ldrb	r3, [r7, #7]	@ zero_extendqisi2
 2268 0076 03F0F003 		and	r3, r3, #240
 2269 007a 002B     		cmp	r3, #0
 2270 007c 09D1     		bne	.L105
 611:.\main.c      **** 				LP_PutChar(dato | 0x60);
 2271              		.loc 1 611 0 is_stmt 1
 2272 007e FB79     		ldrb	r3, [r7, #7]
 2273 0080 43F06003 		orr	r3, r3, #96
 2274 0084 DBB2     		uxtb	r3, r3
 2275 0086 1846     		mov	r0, r3
 2276 0088 FFF7FEFF 		bl	LP_PutChar
 612:.\main.c      **** 				LP_ClearRxBuffer();
 2277              		.loc 1 612 0
 2278 008c FFF7FEFF 		bl	LP_ClearRxBuffer
 2279 0090 01E0     		b	.L97
 2280              	.L105:
 613:.\main.c      **** 			}
 614:.\main.c      **** 			else{
 615:.\main.c      **** 				LP_ClearRxBuffer();
 2281              		.loc 1 615 0
 2282 0092 FFF7FEFF 		bl	LP_ClearRxBuffer
 2283              	.L97:
 616:.\main.c      **** 			}
 617:.\main.c      **** 		}
 618:.\main.c      **** 	}
 619:.\main.c      **** }
 2284              		.loc 1 619 0
 2285 0096 0837     		adds	r7, r7, #8
 2286 0098 BD46     		mov	sp, r7
 2287              		@ sp needed
 2288 009a 80BD     		pop	{r7, pc}
 2289              	.L107:
 2290              		.align	2
 2291              	.L106:
 2292 009c 00000000 		.word	lado1
 2293 00a0 00000000 		.word	lado2
 2294              		.cfi_endproc
 2295              	.LFE68:
 2296              		.size	polling_surt, .-polling_surt
 2297              		.global	__aeabi_dcmpge
 2298              		.global	__aeabi_dcmple
 2299              		.global	__aeabi_dcmpgt
 2300              		.section	.text.polling_LCD1,"ax",%progbits
 2301              		.align	2
 2302              		.global	polling_LCD1
 2303              		.thumb
 2304              		.thumb_func
 2305              		.type	polling_LCD1, %function
 2306              	polling_LCD1:
 2307              	.LFB69:
 620:.\main.c      **** 
 621:.\main.c      **** 
 622:.\main.c      **** 
 623:.\main.c      **** /*
 624:.\main.c      **** ***************************************************************************************************
 625:.\main.c      **** *                                         void polling_LCD1(void)
ARM GAS  C:\Users\SISTEM~1\AppData\Local\Temp\ccCGHuKi.s 			page 53


 626:.\main.c      **** *
 627:.\main.c      **** * Description : 
 628:.\main.c      **** *               
 629:.\main.c      **** *
 630:.\main.c      **** * Argument(s) : none
 631:.\main.c      **** *
 632:.\main.c      **** * Return(s)   : none
 633:.\main.c      **** *
 634:.\main.c      **** * Caller(s)   : 
 635:.\main.c      **** *
 636:.\main.c      **** * Note(s)     : none.
 637:.\main.c      **** ***************************************************************************************************
 638:.\main.c      **** */
 639:.\main.c      **** 
 640:.\main.c      **** void polling_LCD1(void){
 2308              		.loc 1 640 0
 2309              		.cfi_startproc
 2310              		@ args = 0, pretend = 0, frame = 48
 2311              		@ frame_needed = 1, uses_anonymous_args = 0
 2312 0000 90B5     		push	{r4, r7, lr}
 2313              		.cfi_def_cfa_offset 12
 2314              		.cfi_offset 4, -12
 2315              		.cfi_offset 7, -8
 2316              		.cfi_offset 14, -4
 2317 0002 8FB0     		sub	sp, sp, #60
 2318              		.cfi_def_cfa_offset 72
 2319 0004 02AF     		add	r7, sp, #8
 2320              		.cfi_def_cfa 7, 64
 641:.\main.c      **** 	uint8 x,y,aux[10],precio[5];
 642:.\main.c      **** 	char numero[8];
 643:.\main.c      **** 	double num_decimal;
 644:.\main.c      **** 	switch(flujo_LCD1){
 2321              		.loc 1 644 0
 2322 0006 B24B     		ldr	r3, .L276
 2323 0008 1B78     		ldrb	r3, [r3]
 2324 000a DBB2     		uxtb	r3, r3
 2325 000c 652B     		cmp	r3, #101
 2326 000e 01F24585 		bhi	.L108
 2327 0012 01A1     		adr	r1, .L111
 2328 0014 51F823F0 		ldr	pc, [r1, r3, lsl #2]
 2329              		.p2align 2
 2330              	.L111:
 2331 0018 B1010000 		.word	.L110+1
 2332 001c CB010000 		.word	.L112+1
 2333 0020 F7010000 		.word	.L113+1
 2334 0024 F1070000 		.word	.L114+1
 2335 0028 59090000 		.word	.L115+1
 2336 002c 270B0000 		.word	.L116+1
 2337 0030 9D1A0000 		.word	.L108+1
 2338 0034 370C0000 		.word	.L117+1
 2339 0038 6D0C0000 		.word	.L118+1
 2340 003c A10C0000 		.word	.L119+1
 2341 0040 9D1A0000 		.word	.L108+1
 2342 0044 A9100000 		.word	.L121+1
 2343 0048 01120000 		.word	.L122+1
 2344 004c 15170000 		.word	.L123+1
 2345 0050 11180000 		.word	.L124+1
ARM GAS  C:\Users\SISTEM~1\AppData\Local\Temp\ccCGHuKi.s 			page 54


 2346 0054 9D1A0000 		.word	.L108+1
 2347 0058 9D1A0000 		.word	.L108+1
 2348 005c 9D1A0000 		.word	.L108+1
 2349 0060 9D1A0000 		.word	.L108+1
 2350 0064 9D1A0000 		.word	.L108+1
 2351 0068 9D1A0000 		.word	.L108+1
 2352 006c 9D1A0000 		.word	.L108+1
 2353 0070 9D1A0000 		.word	.L108+1
 2354 0074 9D1A0000 		.word	.L108+1
 2355 0078 9D1A0000 		.word	.L108+1
 2356 007c 9D1A0000 		.word	.L108+1
 2357 0080 9D1A0000 		.word	.L108+1
 2358 0084 9D1A0000 		.word	.L108+1
 2359 0088 9D1A0000 		.word	.L108+1
 2360 008c 9D1A0000 		.word	.L108+1
 2361 0090 9D1A0000 		.word	.L108+1
 2362 0094 9D1A0000 		.word	.L108+1
 2363 0098 9D1A0000 		.word	.L108+1
 2364 009c 9D1A0000 		.word	.L108+1
 2365 00a0 9D1A0000 		.word	.L108+1
 2366 00a4 9D1A0000 		.word	.L108+1
 2367 00a8 9D1A0000 		.word	.L108+1
 2368 00ac 9D1A0000 		.word	.L108+1
 2369 00b0 9D1A0000 		.word	.L108+1
 2370 00b4 9D1A0000 		.word	.L108+1
 2371 00b8 9D1A0000 		.word	.L108+1
 2372 00bc 9D1A0000 		.word	.L108+1
 2373 00c0 9D1A0000 		.word	.L108+1
 2374 00c4 9D1A0000 		.word	.L108+1
 2375 00c8 9D1A0000 		.word	.L108+1
 2376 00cc 9D1A0000 		.word	.L108+1
 2377 00d0 9D1A0000 		.word	.L108+1
 2378 00d4 9D1A0000 		.word	.L108+1
 2379 00d8 9D1A0000 		.word	.L108+1
 2380 00dc 9D1A0000 		.word	.L108+1
 2381 00e0 9D1A0000 		.word	.L108+1
 2382 00e4 9D1A0000 		.word	.L108+1
 2383 00e8 9D1A0000 		.word	.L108+1
 2384 00ec 9D1A0000 		.word	.L108+1
 2385 00f0 9D1A0000 		.word	.L108+1
 2386 00f4 9D1A0000 		.word	.L108+1
 2387 00f8 9D1A0000 		.word	.L108+1
 2388 00fc 9D1A0000 		.word	.L108+1
 2389 0100 9D1A0000 		.word	.L108+1
 2390 0104 9D1A0000 		.word	.L108+1
 2391 0108 9D1A0000 		.word	.L108+1
 2392 010c 9D1A0000 		.word	.L108+1
 2393 0110 9D1A0000 		.word	.L108+1
 2394 0114 9D1A0000 		.word	.L108+1
 2395 0118 9D1A0000 		.word	.L108+1
 2396 011c 9D1A0000 		.word	.L108+1
 2397 0120 9D1A0000 		.word	.L108+1
 2398 0124 9D1A0000 		.word	.L108+1
 2399 0128 9D1A0000 		.word	.L108+1
 2400 012c 9D1A0000 		.word	.L108+1
 2401 0130 9D1A0000 		.word	.L108+1
 2402 0134 9D1A0000 		.word	.L108+1
ARM GAS  C:\Users\SISTEM~1\AppData\Local\Temp\ccCGHuKi.s 			page 55


 2403 0138 9D1A0000 		.word	.L108+1
 2404 013c 9D1A0000 		.word	.L108+1
 2405 0140 9D1A0000 		.word	.L108+1
 2406 0144 9D1A0000 		.word	.L108+1
 2407 0148 9D1A0000 		.word	.L108+1
 2408 014c 9D1A0000 		.word	.L108+1
 2409 0150 9D1A0000 		.word	.L108+1
 2410 0154 9D1A0000 		.word	.L108+1
 2411 0158 9D1A0000 		.word	.L108+1
 2412 015c 9D1A0000 		.word	.L108+1
 2413 0160 9D1A0000 		.word	.L108+1
 2414 0164 9D1A0000 		.word	.L108+1
 2415 0168 9D1A0000 		.word	.L108+1
 2416 016c 9D1A0000 		.word	.L108+1
 2417 0170 9D1A0000 		.word	.L108+1
 2418 0174 9D1A0000 		.word	.L108+1
 2419 0178 9D1A0000 		.word	.L108+1
 2420 017c 9D1A0000 		.word	.L108+1
 2421 0180 9D1A0000 		.word	.L108+1
 2422 0184 9D1A0000 		.word	.L108+1
 2423 0188 9D1A0000 		.word	.L108+1
 2424 018c 9D1A0000 		.word	.L108+1
 2425 0190 9D1A0000 		.word	.L108+1
 2426 0194 9D1A0000 		.word	.L108+1
 2427 0198 9D1A0000 		.word	.L108+1
 2428 019c 9D1A0000 		.word	.L108+1
 2429 01a0 9D1A0000 		.word	.L108+1
 2430 01a4 9D1A0000 		.word	.L108+1
 2431 01a8 7D1A0000 		.word	.L125+1
 2432 01ac 471A0000 		.word	.L126+1
 2433              		.p2align 1
 2434              	.L110:
 645:.\main.c      ****         case 0:
 646:.\main.c      ****          isr_3_StartEx(animacion); 
 2435              		.loc 1 646 0
 2436 01b0 4848     		ldr	r0, .L276+4
 2437 01b2 FFF7FEFF 		bl	isr_3_StartEx
 647:.\main.c      ****          Timer_Animacion_Start();
 2438              		.loc 1 647 0
 2439 01b6 FFF7FEFF 		bl	Timer_Animacion_Start
 648:.\main.c      ****          count_protector=0;
 2440              		.loc 1 648 0
 2441 01ba 474B     		ldr	r3, .L276+8
 2442 01bc 0022     		movs	r2, #0
 2443 01be 1A70     		strb	r2, [r3]
 649:.\main.c      ****          flujo_LCD1=1;	       
 2444              		.loc 1 649 0
 2445 01c0 434B     		ldr	r3, .L276
 2446 01c2 0122     		movs	r2, #1
 2447 01c4 1A70     		strb	r2, [r3]
 650:.\main.c      ****         break;
 2448              		.loc 1 650 0
 2449 01c6 01F069BC 		b	.L108
 2450              	.L112:
 651:.\main.c      **** 		
 652:.\main.c      ****         case 1:
 653:.\main.c      ****          if(LCD_1_GetRxBufferSize()==8){ 
ARM GAS  C:\Users\SISTEM~1\AppData\Local\Temp\ccCGHuKi.s 			page 56


 2451              		.loc 1 653 0
 2452 01ca FFF7FEFF 		bl	LCD_1_GetRxBufferSize
 2453 01ce 0346     		mov	r3, r0
 2454 01d0 082B     		cmp	r3, #8
 2455 01d2 0ED1     		bne	.L127
 654:.\main.c      ****              isr_3_Stop(); 
 2456              		.loc 1 654 0
 2457 01d4 FFF7FEFF 		bl	isr_3_Stop
 655:.\main.c      ****              Timer_Animacion_Stop(); 
 2458              		.loc 1 655 0
 2459 01d8 FFF7FEFF 		bl	Timer_Animacion_Stop
 656:.\main.c      **** 	         flujo_LCD1=13;
 2460              		.loc 1 656 0
 2461 01dc 3C4B     		ldr	r3, .L276
 2462 01de 0D22     		movs	r2, #13
 2463 01e0 1A70     		strb	r2, [r3]
 657:.\main.c      **** 	         set_imagen(1,99);				
 2464              		.loc 1 657 0
 2465 01e2 0120     		movs	r0, #1
 2466 01e4 6321     		movs	r1, #99
 2467 01e6 FFF7FEFF 		bl	set_imagen
 658:.\main.c      ****              LCD_1_ClearRxBuffer();				
 2468              		.loc 1 658 0
 2469 01ea FFF7FEFF 		bl	LCD_1_ClearRxBuffer
 659:.\main.c      ****          }
 660:.\main.c      ****         break;
 2470              		.loc 1 660 0
 2471 01ee 01F055BC 		b	.L108
 2472              	.L127:
 2473 01f2 01F053BC 		b	.L108
 2474              	.L113:
 661:.\main.c      **** 		
 662:.\main.c      ****         case 2: 
 663:.\main.c      ****          if(LCD_1_GetRxBufferSize()==8){
 2475              		.loc 1 663 0
 2476 01f6 FFF7FEFF 		bl	LCD_1_GetRxBufferSize
 2477 01fa 0346     		mov	r3, r0
 2478 01fc 082B     		cmp	r3, #8
 2479 01fe 40F0CB82 		bne	.L128
 664:.\main.c      ****             if((LCD_1_rxBuffer[0]==0xAA) && (LCD_1_rxBuffer[6]==0xC3) && (LCD_1_rxBuffer[7]==0x3C))
 2480              		.loc 1 664 0
 2481 0202 364B     		ldr	r3, .L276+12
 2482 0204 1B78     		ldrb	r3, [r3]
 2483 0206 DBB2     		uxtb	r3, r3
 2484 0208 AA2B     		cmp	r3, #170
 2485 020a 40F0C382 		bne	.L129
 2486              		.loc 1 664 0 is_stmt 0 discriminator 1
 2487 020e 334B     		ldr	r3, .L276+12
 2488 0210 9B79     		ldrb	r3, [r3, #6]
 2489 0212 DBB2     		uxtb	r3, r3
 2490 0214 C32B     		cmp	r3, #195
 2491 0216 40F0BD82 		bne	.L129
 2492 021a 304B     		ldr	r3, .L276+12
 2493 021c DB79     		ldrb	r3, [r3, #7]
 2494 021e DBB2     		uxtb	r3, r3
 2495 0220 3C2B     		cmp	r3, #60
 2496 0222 40F0B782 		bne	.L129
ARM GAS  C:\Users\SISTEM~1\AppData\Local\Temp\ccCGHuKi.s 			page 57


 665:.\main.c      **** 				count_protector=0;
 2497              		.loc 1 665 0 is_stmt 1
 2498 0226 2C4B     		ldr	r3, .L276+8
 2499 0228 0022     		movs	r2, #0
 2500 022a 1A70     		strb	r2, [r3]
 666:.\main.c      ****                 if(count_teclas1<teclas1){									
 2501              		.loc 1 666 0
 2502 022c 2C4B     		ldr	r3, .L276+16
 2503 022e 1B78     		ldrb	r3, [r3]
 2504 0230 DAB2     		uxtb	r2, r3
 2505 0232 2C4B     		ldr	r3, .L276+20
 2506 0234 1B78     		ldrb	r3, [r3]
 2507 0236 DBB2     		uxtb	r3, r3
 2508 0238 9A42     		cmp	r2, r3
 2509 023a 80F0C780 		bcs	.L130
 667:.\main.c      ****                     if(LCD_1_rxBuffer[3]<=9){								//Numero de 1-9
 2510              		.loc 1 667 0
 2511 023e 274B     		ldr	r3, .L276+12
 2512 0240 DB78     		ldrb	r3, [r3, #3]
 2513 0242 DBB2     		uxtb	r3, r3
 2514 0244 092B     		cmp	r3, #9
 2515 0246 2ED8     		bhi	.L131
 668:.\main.c      ****                         count_teclas1++;
 2516              		.loc 1 668 0
 2517 0248 254B     		ldr	r3, .L276+16
 2518 024a 1B78     		ldrb	r3, [r3]
 2519 024c DBB2     		uxtb	r3, r3
 2520 024e 0133     		adds	r3, r3, #1
 2521 0250 DAB2     		uxtb	r2, r3
 2522 0252 234B     		ldr	r3, .L276+16
 2523 0254 1A70     		strb	r2, [r3]
 669:.\main.c      ****                         Buffer_LCD1[count_teclas1]=LCD_1_rxBuffer[3];
 2524              		.loc 1 669 0
 2525 0256 224B     		ldr	r3, .L276+16
 2526 0258 1B78     		ldrb	r3, [r3]
 2527 025a DBB2     		uxtb	r3, r3
 2528 025c 1F4A     		ldr	r2, .L276+12
 2529 025e D278     		ldrb	r2, [r2, #3]
 2530 0260 D1B2     		uxtb	r1, r2
 2531 0262 214A     		ldr	r2, .L276+24
 2532 0264 D154     		strb	r1, [r2, r3]
 670:.\main.c      ****                         write_LCD(1,(LCD_1_rxBuffer[3]+0x30), posy1, ((count_teclas1*(sizeletra1+1)
 2533              		.loc 1 670 0
 2534 0266 1D4B     		ldr	r3, .L276+12
 2535 0268 DB78     		ldrb	r3, [r3, #3]
 2536 026a DBB2     		uxtb	r3, r3
 2537 026c 3033     		adds	r3, r3, #48
 2538 026e D9B2     		uxtb	r1, r3
 2539 0270 1E4B     		ldr	r3, .L276+28
 2540 0272 1B88     		ldrh	r3, [r3]	@ movhi
 2541 0274 9AB2     		uxth	r2, r3
 2542 0276 1A4B     		ldr	r3, .L276+16
 2543 0278 1B78     		ldrb	r3, [r3]
 2544 027a DBB2     		uxtb	r3, r3
 2545 027c 1C48     		ldr	r0, .L276+32
 2546 027e 0088     		ldrh	r0, [r0]	@ movhi
 2547 0280 80B2     		uxth	r0, r0
ARM GAS  C:\Users\SISTEM~1\AppData\Local\Temp\ccCGHuKi.s 			page 58


 2548 0282 0130     		adds	r0, r0, #1
 2549 0284 80B2     		uxth	r0, r0
 2550 0286 00FB03F3 		mul	r3, r0, r3
 2551 028a 98B2     		uxth	r0, r3
 2552 028c 194B     		ldr	r3, .L276+36
 2553 028e 1B88     		ldrh	r3, [r3]	@ movhi
 2554 0290 9BB2     		uxth	r3, r3
 2555 0292 0344     		add	r3, r3, r0
 2556 0294 9BB2     		uxth	r3, r3
 2557 0296 1648     		ldr	r0, .L276+32
 2558 0298 0088     		ldrh	r0, [r0]	@ movhi
 2559 029a 80B2     		uxth	r0, r0
 2560 029c C0B2     		uxtb	r0, r0
 2561 029e 0090     		str	r0, [sp]
 2562 02a0 0120     		movs	r0, #1
 2563 02a2 FFF7FEFF 		bl	write_LCD
 2564              	.L131:
 671:.\main.c      ****                     }
 672:.\main.c      ****                     if(LCD_1_rxBuffer[3]==0x0A){            				//Comando de 0
 2565              		.loc 1 672 0
 2566 02a6 0D4B     		ldr	r3, .L276+12
 2567 02a8 DB78     		ldrb	r3, [r3, #3]
 2568 02aa DBB2     		uxtb	r3, r3
 2569 02ac 0A2B     		cmp	r3, #10
 2570 02ae 4ED1     		bne	.L132
 673:.\main.c      **** 						if((id_teclado1==1)&&(count_teclas1==1)&&(Buffer_LCD1[1]==0)){
 2571              		.loc 1 673 0
 2572 02b0 114B     		ldr	r3, .L276+40
 2573 02b2 1B78     		ldrb	r3, [r3]
 2574 02b4 DBB2     		uxtb	r3, r3
 2575 02b6 012B     		cmp	r3, #1
 2576 02b8 20D1     		bne	.L133
 2577              		.loc 1 673 0 is_stmt 0 discriminator 1
 2578 02ba 094B     		ldr	r3, .L276+16
 2579 02bc 1B78     		ldrb	r3, [r3]
 2580 02be DBB2     		uxtb	r3, r3
 2581 02c0 012B     		cmp	r3, #1
 2582 02c2 1BD1     		bne	.L133
 2583 02c4 084B     		ldr	r3, .L276+24
 2584 02c6 5B78     		ldrb	r3, [r3, #1]
 2585 02c8 DBB2     		uxtb	r3, r3
 2586 02ca 002B     		cmp	r3, #0
 2587 02cc 16D1     		bne	.L133
 2588 02ce 3EE0     		b	.L132
 2589              	.L277:
 2590              		.align	2
 2591              	.L276:
 2592 02d0 00000000 		.word	flujo_LCD1
 2593 02d4 00000000 		.word	animacion
 2594 02d8 00000000 		.word	count_protector
 2595 02dc 00000000 		.word	LCD_1_rxBuffer
 2596 02e0 00000000 		.word	count_teclas1
 2597 02e4 00000000 		.word	teclas1
 2598 02e8 00000000 		.word	Buffer_LCD1
 2599 02ec 00000000 		.word	posy1
 2600 02f0 00000000 		.word	sizeletra1
 2601 02f4 00000000 		.word	posx1
ARM GAS  C:\Users\SISTEM~1\AppData\Local\Temp\ccCGHuKi.s 			page 59


 2602 02f8 00000000 		.word	id_teclado1
 2603              	.L133:
 674:.\main.c      **** 						}
 675:.\main.c      **** 						else{
 676:.\main.c      **** 	                        count_teclas1++;
 2604              		.loc 1 676 0 is_stmt 1
 2605 02fc 9A4B     		ldr	r3, .L278
 2606 02fe 1B78     		ldrb	r3, [r3]
 2607 0300 DBB2     		uxtb	r3, r3
 2608 0302 0133     		adds	r3, r3, #1
 2609 0304 DAB2     		uxtb	r2, r3
 2610 0306 984B     		ldr	r3, .L278
 2611 0308 1A70     		strb	r2, [r3]
 677:.\main.c      **** 	                        Buffer_LCD1[count_teclas1]=0;
 2612              		.loc 1 677 0
 2613 030a 974B     		ldr	r3, .L278
 2614 030c 1B78     		ldrb	r3, [r3]
 2615 030e DBB2     		uxtb	r3, r3
 2616 0310 964A     		ldr	r2, .L278+4
 2617 0312 0021     		movs	r1, #0
 2618 0314 D154     		strb	r1, [r2, r3]
 678:.\main.c      **** 							write_LCD(1,0x30, posy1, ((count_teclas1*(sizeletra1+1))+posx1), sizeletra1);
 2619              		.loc 1 678 0
 2620 0316 964B     		ldr	r3, .L278+8
 2621 0318 1B88     		ldrh	r3, [r3]	@ movhi
 2622 031a 9AB2     		uxth	r2, r3
 2623 031c 924B     		ldr	r3, .L278
 2624 031e 1B78     		ldrb	r3, [r3]
 2625 0320 DBB2     		uxtb	r3, r3
 2626 0322 9449     		ldr	r1, .L278+12
 2627 0324 0988     		ldrh	r1, [r1]	@ movhi
 2628 0326 89B2     		uxth	r1, r1
 2629 0328 0131     		adds	r1, r1, #1
 2630 032a 89B2     		uxth	r1, r1
 2631 032c 01FB03F3 		mul	r3, r1, r3
 2632 0330 99B2     		uxth	r1, r3
 2633 0332 914B     		ldr	r3, .L278+16
 2634 0334 1B88     		ldrh	r3, [r3]	@ movhi
 2635 0336 9BB2     		uxth	r3, r3
 2636 0338 0B44     		add	r3, r3, r1
 2637 033a 9BB2     		uxth	r3, r3
 2638 033c 8D49     		ldr	r1, .L278+12
 2639 033e 0988     		ldrh	r1, [r1]	@ movhi
 2640 0340 89B2     		uxth	r1, r1
 2641 0342 C9B2     		uxtb	r1, r1
 2642 0344 0091     		str	r1, [sp]
 2643 0346 0120     		movs	r0, #1
 2644 0348 3021     		movs	r1, #48
 2645 034a FFF7FEFF 		bl	write_LCD
 2646              	.L132:
 679:.\main.c      **** 						}
 680:.\main.c      ****                     }  
 681:.\main.c      ****                     if(LCD_1_rxBuffer[3]==0x51){            	 			//Comando de Coma
 2647              		.loc 1 681 0
 2648 034e 8B4B     		ldr	r3, .L278+20
 2649 0350 DB78     		ldrb	r3, [r3, #3]
 2650 0352 DBB2     		uxtb	r3, r3
ARM GAS  C:\Users\SISTEM~1\AppData\Local\Temp\ccCGHuKi.s 			page 60


 2651 0354 512B     		cmp	r3, #81
 2652 0356 39D1     		bne	.L130
 682:.\main.c      ****                         if(count_teclas1>=1 && comas1==0){
 2653              		.loc 1 682 0
 2654 0358 834B     		ldr	r3, .L278
 2655 035a 1B78     		ldrb	r3, [r3]
 2656 035c DBB2     		uxtb	r3, r3
 2657 035e 002B     		cmp	r3, #0
 2658 0360 34D0     		beq	.L130
 2659              		.loc 1 682 0 is_stmt 0 discriminator 1
 2660 0362 874B     		ldr	r3, .L278+24
 2661 0364 1B78     		ldrb	r3, [r3]
 2662 0366 DBB2     		uxtb	r3, r3
 2663 0368 002B     		cmp	r3, #0
 2664 036a 2FD1     		bne	.L130
 683:.\main.c      ****                             count_teclas1++;
 2665              		.loc 1 683 0 is_stmt 1
 2666 036c 7E4B     		ldr	r3, .L278
 2667 036e 1B78     		ldrb	r3, [r3]
 2668 0370 DBB2     		uxtb	r3, r3
 2669 0372 0133     		adds	r3, r3, #1
 2670 0374 DAB2     		uxtb	r2, r3
 2671 0376 7C4B     		ldr	r3, .L278
 2672 0378 1A70     		strb	r2, [r3]
 684:.\main.c      ****                             Buffer_LCD1[count_teclas1]=id_coma1;
 2673              		.loc 1 684 0
 2674 037a 7B4B     		ldr	r3, .L278
 2675 037c 1B78     		ldrb	r3, [r3]
 2676 037e DBB2     		uxtb	r3, r3
 2677 0380 804A     		ldr	r2, .L278+28
 2678 0382 1278     		ldrb	r2, [r2]
 2679 0384 D1B2     		uxtb	r1, r2
 2680 0386 794A     		ldr	r2, .L278+4
 2681 0388 D154     		strb	r1, [r2, r3]
 685:.\main.c      **** 							write_LCD(1,id_coma1, posy1, ((count_teclas1*(sizeletra1+1))+posx1), sizeletra1);
 2682              		.loc 1 685 0
 2683 038a 7E4B     		ldr	r3, .L278+28
 2684 038c 1B78     		ldrb	r3, [r3]
 2685 038e D9B2     		uxtb	r1, r3
 2686 0390 774B     		ldr	r3, .L278+8
 2687 0392 1B88     		ldrh	r3, [r3]	@ movhi
 2688 0394 9AB2     		uxth	r2, r3
 2689 0396 744B     		ldr	r3, .L278
 2690 0398 1B78     		ldrb	r3, [r3]
 2691 039a DBB2     		uxtb	r3, r3
 2692 039c 7548     		ldr	r0, .L278+12
 2693 039e 0088     		ldrh	r0, [r0]	@ movhi
 2694 03a0 80B2     		uxth	r0, r0
 2695 03a2 0130     		adds	r0, r0, #1
 2696 03a4 80B2     		uxth	r0, r0
 2697 03a6 00FB03F3 		mul	r3, r0, r3
 2698 03aa 98B2     		uxth	r0, r3
 2699 03ac 724B     		ldr	r3, .L278+16
 2700 03ae 1B88     		ldrh	r3, [r3]	@ movhi
 2701 03b0 9BB2     		uxth	r3, r3
 2702 03b2 0344     		add	r3, r3, r0
 2703 03b4 9BB2     		uxth	r3, r3
ARM GAS  C:\Users\SISTEM~1\AppData\Local\Temp\ccCGHuKi.s 			page 61


 2704 03b6 6F48     		ldr	r0, .L278+12
 2705 03b8 0088     		ldrh	r0, [r0]	@ movhi
 2706 03ba 80B2     		uxth	r0, r0
 2707 03bc C0B2     		uxtb	r0, r0
 2708 03be 0090     		str	r0, [sp]
 2709 03c0 0120     		movs	r0, #1
 2710 03c2 FFF7FEFF 		bl	write_LCD
 686:.\main.c      ****                             comas1=1;
 2711              		.loc 1 686 0
 2712 03c6 6E4B     		ldr	r3, .L278+24
 2713 03c8 0122     		movs	r2, #1
 2714 03ca 1A70     		strb	r2, [r3]
 2715              	.L130:
 687:.\main.c      ****                         }
 688:.\main.c      ****                     }                    
 689:.\main.c      ****                 }
 690:.\main.c      ****                 if(LCD_1_rxBuffer[3]==0x0B){								//Cancel
 2716              		.loc 1 690 0
 2717 03cc 6B4B     		ldr	r3, .L278+20
 2718 03ce DB78     		ldrb	r3, [r3, #3]
 2719 03d0 DBB2     		uxtb	r3, r3
 2720 03d2 0B2B     		cmp	r3, #11
 2721 03d4 70D1     		bne	.L134
 691:.\main.c      ****                     if(count_teclas1==0){
 2722              		.loc 1 691 0
 2723 03d6 644B     		ldr	r3, .L278
 2724 03d8 1B78     		ldrb	r3, [r3]
 2725 03da DBB2     		uxtb	r3, r3
 2726 03dc 002B     		cmp	r3, #0
 2727 03de 34D1     		bne	.L135
 692:.\main.c      **** 						switch(id_teclado1){
 2728              		.loc 1 692 0
 2729 03e0 694B     		ldr	r3, .L278+32
 2730 03e2 1B78     		ldrb	r3, [r3]
 2731 03e4 DBB2     		uxtb	r3, r3
 2732 03e6 013B     		subs	r3, r3, #1
 2733 03e8 032B     		cmp	r3, #3
 2734 03ea 65D8     		bhi	.L134
 2735 03ec 01A2     		adr	r2, .L138
 2736 03ee 52F823F0 		ldr	pc, [r2, r3, lsl #2]
 2737 03f2 00BF     		.p2align 2
 2738              	.L138:
 2739 03f4 05040000 		.word	.L137+1
 2740 03f8 15040000 		.word	.L139+1
 2741 03fc 1D040000 		.word	.L140+1
 2742 0400 33040000 		.word	.L141+1
 2743              		.p2align 1
 2744              	.L137:
 693:.\main.c      **** 							case 1:
 694:.\main.c      **** 							set_imagen(1,5);
 2745              		.loc 1 694 0
 2746 0404 0120     		movs	r0, #1
 2747 0406 0521     		movs	r1, #5
 2748 0408 FFF7FEFF 		bl	set_imagen
 695:.\main.c      **** 							flujo_LCD1=4;
 2749              		.loc 1 695 0
 2750 040c 5F4B     		ldr	r3, .L278+36
ARM GAS  C:\Users\SISTEM~1\AppData\Local\Temp\ccCGHuKi.s 			page 62


 2751 040e 0422     		movs	r2, #4
 2752 0410 1A70     		strb	r2, [r3]
 696:.\main.c      **** 							break;
 2753              		.loc 1 696 0
 2754 0412 19E0     		b	.L136
 2755              	.L139:
 697:.\main.c      **** 							
 698:.\main.c      **** 							case 2:
 699:.\main.c      **** 	                        flujo_LCD1=0;	
 2756              		.loc 1 699 0
 2757 0414 5D4B     		ldr	r3, .L278+36
 2758 0416 0022     		movs	r2, #0
 2759 0418 1A70     		strb	r2, [r3]
 700:.\main.c      **** 							break;
 2760              		.loc 1 700 0
 2761 041a 15E0     		b	.L136
 2762              	.L140:
 701:.\main.c      **** 							
 702:.\main.c      **** 							case 3:
 703:.\main.c      **** 							set_imagen(1,0);
 2763              		.loc 1 703 0
 2764 041c 0120     		movs	r0, #1
 2765 041e 0021     		movs	r1, #0
 2766 0420 FFF7FEFF 		bl	set_imagen
 704:.\main.c      **** 							flujo_LCD1=0;
 2767              		.loc 1 704 0
 2768 0424 594B     		ldr	r3, .L278+36
 2769 0426 0022     		movs	r2, #0
 2770 0428 1A70     		strb	r2, [r3]
 705:.\main.c      **** 							lado1.estado=libre;
 2771              		.loc 1 705 0
 2772 042a 594B     		ldr	r3, .L278+40
 2773 042c 0122     		movs	r2, #1
 2774 042e 5A70     		strb	r2, [r3, #1]
 706:.\main.c      **** 							break;
 2775              		.loc 1 706 0
 2776 0430 0AE0     		b	.L136
 2777              	.L141:
 707:.\main.c      **** 							
 708:.\main.c      **** 							case 4:
 709:.\main.c      **** 							set_imagen(1,0);
 2778              		.loc 1 709 0
 2779 0432 0120     		movs	r0, #1
 2780 0434 0021     		movs	r1, #0
 2781 0436 FFF7FEFF 		bl	set_imagen
 710:.\main.c      **** 							flujo_LCD1=0;
 2782              		.loc 1 710 0
 2783 043a 544B     		ldr	r3, .L278+36
 2784 043c 0022     		movs	r2, #0
 2785 043e 1A70     		strb	r2, [r3]
 711:.\main.c      **** 							lado1.estado=libre;
 2786              		.loc 1 711 0
 2787 0440 534B     		ldr	r3, .L278+40
 2788 0442 0122     		movs	r2, #1
 2789 0444 5A70     		strb	r2, [r3, #1]
 712:.\main.c      **** 							break;							
 2790              		.loc 1 712 0
ARM GAS  C:\Users\SISTEM~1\AppData\Local\Temp\ccCGHuKi.s 			page 63


 2791 0446 00BF     		nop
 2792              	.L136:
 2793 0448 36E0     		b	.L134
 2794              	.L135:
 713:.\main.c      **** 						}
 714:.\main.c      ****                     }
 715:.\main.c      ****                     else{
 716:.\main.c      **** 						write_LCD(1,0x20, posy1, ((count_teclas1*(sizeletra1+1))+posx1), sizeletra1);
 2795              		.loc 1 716 0
 2796 044a 494B     		ldr	r3, .L278+8
 2797 044c 1B88     		ldrh	r3, [r3]	@ movhi
 2798 044e 9AB2     		uxth	r2, r3
 2799 0450 454B     		ldr	r3, .L278
 2800 0452 1B78     		ldrb	r3, [r3]
 2801 0454 DBB2     		uxtb	r3, r3
 2802 0456 4749     		ldr	r1, .L278+12
 2803 0458 0988     		ldrh	r1, [r1]	@ movhi
 2804 045a 89B2     		uxth	r1, r1
 2805 045c 0131     		adds	r1, r1, #1
 2806 045e 89B2     		uxth	r1, r1
 2807 0460 01FB03F3 		mul	r3, r1, r3
 2808 0464 99B2     		uxth	r1, r3
 2809 0466 444B     		ldr	r3, .L278+16
 2810 0468 1B88     		ldrh	r3, [r3]	@ movhi
 2811 046a 9BB2     		uxth	r3, r3
 2812 046c 0B44     		add	r3, r3, r1
 2813 046e 9BB2     		uxth	r3, r3
 2814 0470 4049     		ldr	r1, .L278+12
 2815 0472 0988     		ldrh	r1, [r1]	@ movhi
 2816 0474 89B2     		uxth	r1, r1
 2817 0476 C9B2     		uxtb	r1, r1
 2818 0478 0091     		str	r1, [sp]
 2819 047a 0120     		movs	r0, #1
 2820 047c 2021     		movs	r1, #32
 2821 047e FFF7FEFF 		bl	write_LCD
 717:.\main.c      ****                         if(Buffer_LCD1[count_teclas1]==id_coma1){
 2822              		.loc 1 717 0
 2823 0482 394B     		ldr	r3, .L278
 2824 0484 1B78     		ldrb	r3, [r3]
 2825 0486 DBB2     		uxtb	r3, r3
 2826 0488 384A     		ldr	r2, .L278+4
 2827 048a D35C     		ldrb	r3, [r2, r3]
 2828 048c DAB2     		uxtb	r2, r3
 2829 048e 3D4B     		ldr	r3, .L278+28
 2830 0490 1B78     		ldrb	r3, [r3]
 2831 0492 DBB2     		uxtb	r3, r3
 2832 0494 9A42     		cmp	r2, r3
 2833 0496 02D1     		bne	.L142
 718:.\main.c      ****                             comas1=0;
 2834              		.loc 1 718 0
 2835 0498 394B     		ldr	r3, .L278+24
 2836 049a 0022     		movs	r2, #0
 2837 049c 1A70     		strb	r2, [r3]
 2838              	.L142:
 719:.\main.c      ****                         }
 720:.\main.c      **** 						Buffer_LCD1[count_teclas1]=0;
 2839              		.loc 1 720 0
ARM GAS  C:\Users\SISTEM~1\AppData\Local\Temp\ccCGHuKi.s 			page 64


 2840 049e 324B     		ldr	r3, .L278
 2841 04a0 1B78     		ldrb	r3, [r3]
 2842 04a2 DBB2     		uxtb	r3, r3
 2843 04a4 314A     		ldr	r2, .L278+4
 2844 04a6 0021     		movs	r1, #0
 2845 04a8 D154     		strb	r1, [r2, r3]
 721:.\main.c      ****                         count_teclas1--;
 2846              		.loc 1 721 0
 2847 04aa 2F4B     		ldr	r3, .L278
 2848 04ac 1B78     		ldrb	r3, [r3]
 2849 04ae DBB2     		uxtb	r3, r3
 2850 04b0 013B     		subs	r3, r3, #1
 2851 04b2 DAB2     		uxtb	r2, r3
 2852 04b4 2C4B     		ldr	r3, .L278
 2853 04b6 1A70     		strb	r2, [r3]
 2854              	.L134:
 722:.\main.c      ****                     }
 723:.\main.c      ****                 }
 724:.\main.c      ****                 if(LCD_1_rxBuffer[3]==0x0C){								//Enter
 2855              		.loc 1 724 0
 2856 04b8 304B     		ldr	r3, .L278+20
 2857 04ba DB78     		ldrb	r3, [r3, #3]
 2858 04bc DBB2     		uxtb	r3, r3
 2859 04be 0C2B     		cmp	r3, #12
 2860 04c0 40F06881 		bne	.L129
 725:.\main.c      **** 					switch(id_teclado1){
 2861              		.loc 1 725 0
 2862 04c4 304B     		ldr	r3, .L278+32
 2863 04c6 1B78     		ldrb	r3, [r3]
 2864 04c8 DBB2     		uxtb	r3, r3
 2865 04ca 013B     		subs	r3, r3, #1
 2866 04cc 032B     		cmp	r3, #3
 2867 04ce 00F26181 		bhi	.L129
 2868 04d2 01A1     		adr	r1, .L144
 2869 04d4 51F823F0 		ldr	pc, [r1, r3, lsl #2]
 2870              		.p2align 2
 2871              	.L144:
 2872 04d8 E9040000 		.word	.L143+1
 2873 04dc 79060000 		.word	.L145+1
 2874 04e0 C7060000 		.word	.L146+1
 2875 04e4 3D070000 		.word	.L147+1
 2876              		.p2align 1
 2877              	.L143:
 726:.\main.c      **** 						case 1:
 727:.\main.c      **** 							for(x=0;x<=7;x++){
 2878              		.loc 1 727 0
 2879 04e8 0023     		movs	r3, #0
 2880 04ea 87F82F30 		strb	r3, [r7, #47]
 2881 04ee 0CE0     		b	.L148
 2882              	.L149:
 728:.\main.c      **** 								numero[x]=0;
 2883              		.loc 1 728 0 discriminator 2
 2884 04f0 97F82F30 		ldrb	r3, [r7, #47]	@ zero_extendqisi2
 2885 04f4 07F13002 		add	r2, r7, #48
 2886 04f8 1344     		add	r3, r3, r2
 2887 04fa 0022     		movs	r2, #0
 2888 04fc 03F82C2C 		strb	r2, [r3, #-44]
ARM GAS  C:\Users\SISTEM~1\AppData\Local\Temp\ccCGHuKi.s 			page 65


 727:.\main.c      **** 							for(x=0;x<=7;x++){
 2889              		.loc 1 727 0 discriminator 2
 2890 0500 97F82F30 		ldrb	r3, [r7, #47]	@ zero_extendqisi2
 2891 0504 0133     		adds	r3, r3, #1
 2892 0506 87F82F30 		strb	r3, [r7, #47]
 2893              	.L148:
 727:.\main.c      **** 							for(x=0;x<=7;x++){
 2894              		.loc 1 727 0 is_stmt 0 discriminator 1
 2895 050a 97F82F30 		ldrb	r3, [r7, #47]	@ zero_extendqisi2
 2896 050e 072B     		cmp	r3, #7
 2897 0510 EED9     		bls	.L149
 729:.\main.c      **** 							}						
 730:.\main.c      **** 							if((count_teclas1>=1)&&(Buffer_LCD1[count_teclas1]!=',')){
 2898              		.loc 1 730 0 is_stmt 1
 2899 0512 154B     		ldr	r3, .L278
 2900 0514 1B78     		ldrb	r3, [r3]
 2901 0516 DBB2     		uxtb	r3, r3
 2902 0518 002B     		cmp	r3, #0
 2903 051a 00F0AC80 		beq	.L150
 2904              		.loc 1 730 0 is_stmt 0 discriminator 1
 2905 051e 124B     		ldr	r3, .L278
 2906 0520 1B78     		ldrb	r3, [r3]
 2907 0522 DBB2     		uxtb	r3, r3
 2908 0524 114A     		ldr	r2, .L278+4
 2909 0526 D35C     		ldrb	r3, [r2, r3]
 2910 0528 DBB2     		uxtb	r3, r3
 2911 052a 2C2B     		cmp	r3, #44
 2912 052c 00F0A380 		beq	.L150
 731:.\main.c      **** 								for(x=1;x<=count_teclas1;x++){
 2913              		.loc 1 731 0 is_stmt 1
 2914 0530 0123     		movs	r3, #1
 2915 0532 87F82F30 		strb	r3, [r7, #47]
 2916 0536 3FE0     		b	.L151
 2917              	.L154:
 732:.\main.c      **** 									if(Buffer_LCD1[x]!=','){
 2918              		.loc 1 732 0
 2919 0538 97F82F30 		ldrb	r3, [r7, #47]	@ zero_extendqisi2
 2920 053c 0B4A     		ldr	r2, .L278+4
 2921 053e D35C     		ldrb	r3, [r2, r3]
 2922 0540 DBB2     		uxtb	r3, r3
 2923 0542 2C2B     		cmp	r3, #44
 2924 0544 26D0     		beq	.L152
 733:.\main.c      **** 										numero[x-1]=Buffer_LCD1[x]+48;
 2925              		.loc 1 733 0
 2926 0546 97F82F30 		ldrb	r3, [r7, #47]	@ zero_extendqisi2
 2927 054a 013B     		subs	r3, r3, #1
 2928 054c 97F82F20 		ldrb	r2, [r7, #47]	@ zero_extendqisi2
 2929 0550 0649     		ldr	r1, .L278+4
 2930 0552 8A5C     		ldrb	r2, [r1, r2]
 2931 0554 D2B2     		uxtb	r2, r2
 2932 0556 3032     		adds	r2, r2, #48
 2933 0558 D2B2     		uxtb	r2, r2
 2934 055a 07F13001 		add	r1, r7, #48
 2935 055e 0B44     		add	r3, r3, r1
 2936 0560 03F82C2C 		strb	r2, [r3, #-44]
 2937 0564 23E0     		b	.L153
 2938              	.L279:
ARM GAS  C:\Users\SISTEM~1\AppData\Local\Temp\ccCGHuKi.s 			page 66


 2939 0566 00BF     		.align	2
 2940              	.L278:
 2941 0568 00000000 		.word	count_teclas1
 2942 056c 00000000 		.word	Buffer_LCD1
 2943 0570 00000000 		.word	posy1
 2944 0574 00000000 		.word	sizeletra1
 2945 0578 00000000 		.word	posx1
 2946 057c 00000000 		.word	LCD_1_rxBuffer
 2947 0580 00000000 		.word	comas1
 2948 0584 00000000 		.word	id_coma1
 2949 0588 00000000 		.word	id_teclado1
 2950 058c 00000000 		.word	flujo_LCD1
 2951 0590 00000000 		.word	lado1
 2952              	.L152:
 734:.\main.c      **** 									}
 735:.\main.c      **** 									else{
 736:.\main.c      **** 										numero[x-1]=Buffer_LCD1[x];
 2953              		.loc 1 736 0
 2954 0594 97F82F30 		ldrb	r3, [r7, #47]	@ zero_extendqisi2
 2955 0598 013B     		subs	r3, r3, #1
 2956 059a 97F82F20 		ldrb	r2, [r7, #47]	@ zero_extendqisi2
 2957 059e AB49     		ldr	r1, .L280
 2958 05a0 8A5C     		ldrb	r2, [r1, r2]
 2959 05a2 D2B2     		uxtb	r2, r2
 2960 05a4 07F13001 		add	r1, r7, #48
 2961 05a8 0B44     		add	r3, r3, r1
 2962 05aa 03F82C2C 		strb	r2, [r3, #-44]
 2963              	.L153:
 731:.\main.c      **** 								for(x=1;x<=count_teclas1;x++){
 2964              		.loc 1 731 0
 2965 05ae 97F82F30 		ldrb	r3, [r7, #47]	@ zero_extendqisi2
 2966 05b2 0133     		adds	r3, r3, #1
 2967 05b4 87F82F30 		strb	r3, [r7, #47]
 2968              	.L151:
 731:.\main.c      **** 								for(x=1;x<=count_teclas1;x++){
 2969              		.loc 1 731 0 is_stmt 0 discriminator 1
 2970 05b8 A54B     		ldr	r3, .L280+4
 2971 05ba 1B78     		ldrb	r3, [r3]
 2972 05bc DBB2     		uxtb	r3, r3
 2973 05be 97F82F20 		ldrb	r2, [r7, #47]	@ zero_extendqisi2
 2974 05c2 9A42     		cmp	r2, r3
 2975 05c4 B8D9     		bls	.L154
 737:.\main.c      **** 									}
 738:.\main.c      **** 								}
 739:.\main.c      **** 								num_decimal=atof(numero);
 2976              		.loc 1 739 0 is_stmt 1
 2977 05c6 3B1D     		adds	r3, r7, #4
 2978 05c8 1846     		mov	r0, r3
 2979 05ca FFF7FEFF 		bl	atof
 2980 05ce C7E90801 		strd	r0, [r7, #32]
 740:.\main.c      **** 								if(((rventa1.preset[0]==1)&&(num_decimal>=800))||((rventa1.preset[0]==2)&&(num_decimal<=900
 2981              		.loc 1 740 0
 2982 05d2 A04B     		ldr	r3, .L280+8
 2983 05d4 DB7E     		ldrb	r3, [r3, #27]	@ zero_extendqisi2
 2984 05d6 012B     		cmp	r3, #1
 2985 05d8 09D1     		bne	.L155
 2986              		.loc 1 740 0 is_stmt 0 discriminator 1
ARM GAS  C:\Users\SISTEM~1\AppData\Local\Temp\ccCGHuKi.s 			page 67


 2987 05da D7E90801 		ldrd	r0, [r7, #32]
 2988 05de 4FF00002 		mov	r2, #0
 2989 05e2 9D4B     		ldr	r3, .L280+12
 2990 05e4 FFF7FEFF 		bl	__aeabi_dcmpge
 2991 05e8 0346     		mov	r3, r0
 2992 05ea 002B     		cmp	r3, #0
 2993 05ec 1AD1     		bne	.L156
 2994              	.L155:
 2995              		.loc 1 740 0 discriminator 2
 2996 05ee 994B     		ldr	r3, .L280+8
 2997 05f0 DB7E     		ldrb	r3, [r3, #27]	@ zero_extendqisi2
 2998 05f2 022B     		cmp	r3, #2
 2999 05f4 3FD1     		bne	.L150
 3000              		.loc 1 740 0 discriminator 1
 3001 05f6 D7E90801 		ldrd	r0, [r7, #32]
 3002 05fa 4FF00002 		mov	r2, #0
 3003 05fe 974B     		ldr	r3, .L280+16
 3004 0600 FFF7FEFF 		bl	__aeabi_dcmple
 3005 0604 0346     		mov	r3, r0
 3006 0606 002B     		cmp	r3, #0
 3007 0608 00D1     		bne	.L275
 741:.\main.c      **** 									for(x=count_teclas1;x>=1;x--){
 742:.\main.c      **** 										rventa1.preset[x]=Buffer_LCD1[(count_teclas1-x)+1];
 743:.\main.c      **** 									}
 744:.\main.c      **** 									flujo_LCD1=5;								
 745:.\main.c      ****                          			lado1.estado=espera;
 746:.\main.c      **** 						            set_imagen(1,7);
 747:.\main.c      **** 								}
 748:.\main.c      **** 							}
 749:.\main.c      **** 						break;
 3008              		.loc 1 749 0 is_stmt 1 discriminator 1
 3009 060a C3E0     		b	.L129
 3010              	.L275:
 740:.\main.c      **** 								if(((rventa1.preset[0]==1)&&(num_decimal>=800))||((rventa1.preset[0]==2)&&(num_decimal<=900
 3011              		.loc 1 740 0 discriminator 1
 3012 060c D7E90801 		ldrd	r0, [r7, #32]
 3013 0610 4FF00002 		mov	r2, #0
 3014 0614 4FF00003 		mov	r3, #0
 3015 0618 FFF7FEFF 		bl	__aeabi_dcmpgt
 3016 061c 0346     		mov	r3, r0
 3017 061e 002B     		cmp	r3, #0
 3018 0620 00D1     		bne	.L156
 3019              		.loc 1 749 0 discriminator 1
 3020 0622 B7E0     		b	.L129
 3021              	.L156:
 741:.\main.c      **** 									for(x=count_teclas1;x>=1;x--){
 3022              		.loc 1 741 0
 3023 0624 8A4B     		ldr	r3, .L280+4
 3024 0626 1B78     		ldrb	r3, [r3]
 3025 0628 87F82F30 		strb	r3, [r7, #47]
 3026 062c 14E0     		b	.L159
 3027              	.L160:
 742:.\main.c      **** 										rventa1.preset[x]=Buffer_LCD1[(count_teclas1-x)+1];
 3028              		.loc 1 742 0 discriminator 2
 3029 062e 97F82F30 		ldrb	r3, [r7, #47]	@ zero_extendqisi2
 3030 0632 874A     		ldr	r2, .L280+4
 3031 0634 1278     		ldrb	r2, [r2]
ARM GAS  C:\Users\SISTEM~1\AppData\Local\Temp\ccCGHuKi.s 			page 68


 3032 0636 D2B2     		uxtb	r2, r2
 3033 0638 1146     		mov	r1, r2
 3034 063a 97F82F20 		ldrb	r2, [r7, #47]	@ zero_extendqisi2
 3035 063e 8A1A     		subs	r2, r1, r2
 3036 0640 0132     		adds	r2, r2, #1
 3037 0642 8249     		ldr	r1, .L280
 3038 0644 8A5C     		ldrb	r2, [r1, r2]
 3039 0646 D2B2     		uxtb	r2, r2
 3040 0648 8249     		ldr	r1, .L280+8
 3041 064a 0B44     		add	r3, r3, r1
 3042 064c DA76     		strb	r2, [r3, #27]
 741:.\main.c      **** 									for(x=count_teclas1;x>=1;x--){
 3043              		.loc 1 741 0 discriminator 2
 3044 064e 97F82F30 		ldrb	r3, [r7, #47]	@ zero_extendqisi2
 3045 0652 013B     		subs	r3, r3, #1
 3046 0654 87F82F30 		strb	r3, [r7, #47]
 3047              	.L159:
 741:.\main.c      **** 									for(x=count_teclas1;x>=1;x--){
 3048              		.loc 1 741 0 is_stmt 0 discriminator 1
 3049 0658 97F82F30 		ldrb	r3, [r7, #47]	@ zero_extendqisi2
 3050 065c 002B     		cmp	r3, #0
 3051 065e E6D1     		bne	.L160
 744:.\main.c      **** 									flujo_LCD1=5;								
 3052              		.loc 1 744 0 is_stmt 1
 3053 0660 7F4B     		ldr	r3, .L280+20
 3054 0662 0522     		movs	r2, #5
 3055 0664 1A70     		strb	r2, [r3]
 745:.\main.c      ****                          			lado1.estado=espera;
 3056              		.loc 1 745 0
 3057 0666 7F4B     		ldr	r3, .L280+24
 3058 0668 0222     		movs	r2, #2
 3059 066a 5A70     		strb	r2, [r3, #1]
 746:.\main.c      **** 						            set_imagen(1,7);
 3060              		.loc 1 746 0
 3061 066c 0120     		movs	r0, #1
 3062 066e 0721     		movs	r1, #7
 3063 0670 FFF7FEFF 		bl	set_imagen
 3064              		.loc 1 749 0
 3065 0674 8EE0     		b	.L129
 3066              	.L150:
 3067 0676 8DE0     		b	.L129
 3068              	.L145:
 750:.\main.c      **** 							
 751:.\main.c      **** 						case 2:							
 752:.\main.c      **** 							for(x=count_teclas1;x>=1;x--){
 3069              		.loc 1 752 0
 3070 0678 754B     		ldr	r3, .L280+4
 3071 067a 1B78     		ldrb	r3, [r3]
 3072 067c 87F82F30 		strb	r3, [r7, #47]
 3073 0680 15E0     		b	.L161
 3074              	.L162:
 753:.\main.c      **** 								rventa1.km[x]=Buffer_LCD1[(count_teclas1-x)+1];
 3075              		.loc 1 753 0 discriminator 2
 3076 0682 97F82F30 		ldrb	r3, [r7, #47]	@ zero_extendqisi2
 3077 0686 724A     		ldr	r2, .L280+4
 3078 0688 1278     		ldrb	r2, [r2]
 3079 068a D2B2     		uxtb	r2, r2
ARM GAS  C:\Users\SISTEM~1\AppData\Local\Temp\ccCGHuKi.s 			page 69


 3080 068c 1146     		mov	r1, r2
 3081 068e 97F82F20 		ldrb	r2, [r7, #47]	@ zero_extendqisi2
 3082 0692 8A1A     		subs	r2, r1, r2
 3083 0694 0132     		adds	r2, r2, #1
 3084 0696 6D49     		ldr	r1, .L280
 3085 0698 8A5C     		ldrb	r2, [r1, r2]
 3086 069a D2B2     		uxtb	r2, r2
 3087 069c 6D49     		ldr	r1, .L280+8
 3088 069e 0B44     		add	r3, r3, r1
 3089 06a0 83F83320 		strb	r2, [r3, #51]
 752:.\main.c      **** 							for(x=count_teclas1;x>=1;x--){
 3090              		.loc 1 752 0 discriminator 2
 3091 06a4 97F82F30 		ldrb	r3, [r7, #47]	@ zero_extendqisi2
 3092 06a8 013B     		subs	r3, r3, #1
 3093 06aa 87F82F30 		strb	r3, [r7, #47]
 3094              	.L161:
 752:.\main.c      **** 							for(x=count_teclas1;x>=1;x--){
 3095              		.loc 1 752 0 is_stmt 0 discriminator 1
 3096 06ae 97F82F30 		ldrb	r3, [r7, #47]	@ zero_extendqisi2
 3097 06b2 002B     		cmp	r3, #0
 3098 06b4 E5D1     		bne	.L162
 754:.\main.c      **** 							}
 755:.\main.c      **** 	                        flujo_LCD1=4;	
 3099              		.loc 1 755 0 is_stmt 1
 3100 06b6 6A4B     		ldr	r3, .L280+20
 3101 06b8 0422     		movs	r2, #4
 3102 06ba 1A70     		strb	r2, [r3]
 756:.\main.c      **** 	                        set_imagen(1,5);
 3103              		.loc 1 756 0
 3104 06bc 0120     		movs	r0, #1
 3105 06be 0521     		movs	r1, #5
 3106 06c0 FFF7FEFF 		bl	set_imagen
 757:.\main.c      **** 						break;
 3107              		.loc 1 757 0
 3108 06c4 66E0     		b	.L129
 3109              	.L146:
 758:.\main.c      **** 							
 759:.\main.c      **** 						case 3:
 760:.\main.c      **** 							for(x=count_teclas1;x>=1;x--){
 3110              		.loc 1 760 0
 3111 06c6 624B     		ldr	r3, .L280+4
 3112 06c8 1B78     		ldrb	r3, [r3]
 3113 06ca 87F82F30 		strb	r3, [r7, #47]
 3114 06ce 17E0     		b	.L163
 3115              	.L164:
 761:.\main.c      **** 								rventa1.cedula[x]=Buffer_LCD1[(count_teclas1-x)+1]+48;
 3116              		.loc 1 761 0 discriminator 2
 3117 06d0 97F82F30 		ldrb	r3, [r7, #47]	@ zero_extendqisi2
 3118 06d4 5E4A     		ldr	r2, .L280+4
 3119 06d6 1278     		ldrb	r2, [r2]
 3120 06d8 D2B2     		uxtb	r2, r2
 3121 06da 1146     		mov	r1, r2
 3122 06dc 97F82F20 		ldrb	r2, [r7, #47]	@ zero_extendqisi2
 3123 06e0 8A1A     		subs	r2, r1, r2
 3124 06e2 0132     		adds	r2, r2, #1
 3125 06e4 5949     		ldr	r1, .L280
 3126 06e6 8A5C     		ldrb	r2, [r1, r2]
ARM GAS  C:\Users\SISTEM~1\AppData\Local\Temp\ccCGHuKi.s 			page 70


 3127 06e8 D2B2     		uxtb	r2, r2
 3128 06ea 3032     		adds	r2, r2, #48
 3129 06ec D2B2     		uxtb	r2, r2
 3130 06ee 5949     		ldr	r1, .L280+8
 3131 06f0 0B44     		add	r3, r3, r1
 3132 06f2 83F84920 		strb	r2, [r3, #73]
 760:.\main.c      **** 							for(x=count_teclas1;x>=1;x--){
 3133              		.loc 1 760 0 discriminator 2
 3134 06f6 97F82F30 		ldrb	r3, [r7, #47]	@ zero_extendqisi2
 3135 06fa 013B     		subs	r3, r3, #1
 3136 06fc 87F82F30 		strb	r3, [r7, #47]
 3137              	.L163:
 760:.\main.c      **** 							for(x=count_teclas1;x>=1;x--){
 3138              		.loc 1 760 0 is_stmt 0 discriminator 1
 3139 0700 97F82F30 		ldrb	r3, [r7, #47]	@ zero_extendqisi2
 3140 0704 002B     		cmp	r3, #0
 3141 0706 E3D1     		bne	.L164
 762:.\main.c      **** 							}
 763:.\main.c      ****                         	flujo_LCD1=2;	
 3142              		.loc 1 763 0 is_stmt 1
 3143 0708 554B     		ldr	r3, .L280+20
 3144 070a 0222     		movs	r2, #2
 3145 070c 1A70     		strb	r2, [r3]
 764:.\main.c      ****                         	set_imagen(1,5);
 3146              		.loc 1 764 0
 3147 070e 0120     		movs	r0, #1
 3148 0710 0521     		movs	r1, #5
 3149 0712 FFF7FEFF 		bl	set_imagen
 765:.\main.c      **** 							count_teclas1=0;
 3150              		.loc 1 765 0
 3151 0716 4E4B     		ldr	r3, .L280+4
 3152 0718 0022     		movs	r2, #0
 3153 071a 1A70     		strb	r2, [r3]
 766:.\main.c      **** 							id_teclado1=4;
 3154              		.loc 1 766 0
 3155 071c 524B     		ldr	r3, .L280+28
 3156 071e 0422     		movs	r2, #4
 3157 0720 1A70     		strb	r2, [r3]
 767:.\main.c      **** 							teclas1=10;
 3158              		.loc 1 767 0
 3159 0722 524B     		ldr	r3, .L280+32
 3160 0724 0A22     		movs	r2, #10
 3161 0726 1A70     		strb	r2, [r3]
 768:.\main.c      **** 							posx1=2;
 3162              		.loc 1 768 0
 3163 0728 514B     		ldr	r3, .L280+36
 3164 072a 0222     		movs	r2, #2
 3165 072c 1A80     		strh	r2, [r3]	@ movhi
 769:.\main.c      **** 							posy1=3;
 3166              		.loc 1 769 0
 3167 072e 514B     		ldr	r3, .L280+40
 3168 0730 0322     		movs	r2, #3
 3169 0732 1A80     		strh	r2, [r3]	@ movhi
 770:.\main.c      **** 							sizeletra1=1;								
 3170              		.loc 1 770 0
 3171 0734 504B     		ldr	r3, .L280+44
 3172 0736 0122     		movs	r2, #1
ARM GAS  C:\Users\SISTEM~1\AppData\Local\Temp\ccCGHuKi.s 			page 71


 3173 0738 1A80     		strh	r2, [r3]	@ movhi
 771:.\main.c      **** 						break;
 3174              		.loc 1 771 0
 3175 073a 2BE0     		b	.L129
 3176              	.L147:
 772:.\main.c      **** 							
 773:.\main.c      **** 						case 4:
 774:.\main.c      **** 							for(x=count_teclas1;x>=1;x--){
 3177              		.loc 1 774 0
 3178 073c 444B     		ldr	r3, .L280+4
 3179 073e 1B78     		ldrb	r3, [r3]
 3180 0740 87F82F30 		strb	r3, [r7, #47]
 3181 0744 17E0     		b	.L165
 3182              	.L166:
 775:.\main.c      **** 								rventa1.password[x]=Buffer_LCD1[(count_teclas1-x)+1]+48;
 3183              		.loc 1 775 0 discriminator 2
 3184 0746 97F82F30 		ldrb	r3, [r7, #47]	@ zero_extendqisi2
 3185 074a 414A     		ldr	r2, .L280+4
 3186 074c 1278     		ldrb	r2, [r2]
 3187 074e D2B2     		uxtb	r2, r2
 3188 0750 1146     		mov	r1, r2
 3189 0752 97F82F20 		ldrb	r2, [r7, #47]	@ zero_extendqisi2
 3190 0756 8A1A     		subs	r2, r1, r2
 3191 0758 0132     		adds	r2, r2, #1
 3192 075a 3C49     		ldr	r1, .L280
 3193 075c 8A5C     		ldrb	r2, [r1, r2]
 3194 075e D2B2     		uxtb	r2, r2
 3195 0760 3032     		adds	r2, r2, #48
 3196 0762 D2B2     		uxtb	r2, r2
 3197 0764 3B49     		ldr	r1, .L280+8
 3198 0766 0B44     		add	r3, r3, r1
 3199 0768 83F85420 		strb	r2, [r3, #84]
 774:.\main.c      **** 							for(x=count_teclas1;x>=1;x--){
 3200              		.loc 1 774 0 discriminator 2
 3201 076c 97F82F30 		ldrb	r3, [r7, #47]	@ zero_extendqisi2
 3202 0770 013B     		subs	r3, r3, #1
 3203 0772 87F82F30 		strb	r3, [r7, #47]
 3204              	.L165:
 774:.\main.c      **** 							for(x=count_teclas1;x>=1;x--){
 3205              		.loc 1 774 0 is_stmt 0 discriminator 1
 3206 0776 97F82F30 		ldrb	r3, [r7, #47]	@ zero_extendqisi2
 3207 077a 002B     		cmp	r3, #0
 3208 077c E3D1     		bne	.L166
 776:.\main.c      **** 							}
 777:.\main.c      ****                         	flujo_LCD1=102;	
 3209              		.loc 1 777 0 is_stmt 1
 3210 077e 384B     		ldr	r3, .L280+20
 3211 0780 6622     		movs	r2, #102
 3212 0782 1A70     		strb	r2, [r3]
 778:.\main.c      ****                         	set_imagen(1,57);
 3213              		.loc 1 778 0
 3214 0784 0120     		movs	r0, #1
 3215 0786 3921     		movs	r1, #57
 3216 0788 FFF7FEFF 		bl	set_imagen
 779:.\main.c      **** 							lado1.estado=16;
 3217              		.loc 1 779 0
 3218 078c 354B     		ldr	r3, .L280+24
ARM GAS  C:\Users\SISTEM~1\AppData\Local\Temp\ccCGHuKi.s 			page 72


 3219 078e 1022     		movs	r2, #16
 3220 0790 5A70     		strb	r2, [r3, #1]
 780:.\main.c      **** 						break;							
 3221              		.loc 1 780 0
 3222 0792 00BF     		nop
 3223              	.L129:
 781:.\main.c      **** 							
 782:.\main.c      **** 					}					
 783:.\main.c      ****                 }
 784:.\main.c      ****             }
 785:.\main.c      ****             //CyDelay(100);            
 786:.\main.c      ****             LCD_1_ClearRxBuffer();
 3224              		.loc 1 786 0
 3225 0794 FFF7FEFF 		bl	LCD_1_ClearRxBuffer
 3226              	.L128:
 787:.\main.c      ****          }
 788:.\main.c      **** 		 if((count_protector>=30)&&(rventa1.tipo_venta==0)&&(id_teclado1==2)){
 3227              		.loc 1 788 0
 3228 0798 384B     		ldr	r3, .L280+48
 3229 079a 1B78     		ldrb	r3, [r3]
 3230 079c DBB2     		uxtb	r3, r3
 3231 079e 1D2B     		cmp	r3, #29
 3232 07a0 24D9     		bls	.L167
 3233              		.loc 1 788 0 is_stmt 0 discriminator 1
 3234 07a2 2C4B     		ldr	r3, .L280+8
 3235 07a4 93F84830 		ldrb	r3, [r3, #72]	@ zero_extendqisi2
 3236 07a8 002B     		cmp	r3, #0
 3237 07aa 1FD1     		bne	.L167
 3238 07ac 2E4B     		ldr	r3, .L280+28
 3239 07ae 1B78     		ldrb	r3, [r3]
 3240 07b0 DBB2     		uxtb	r3, r3
 3241 07b2 022B     		cmp	r3, #2
 3242 07b4 1AD1     		bne	.L167
 789:.\main.c      **** 			count_teclas1=0;
 3243              		.loc 1 789 0 is_stmt 1
 3244 07b6 264B     		ldr	r3, .L280+4
 3245 07b8 0022     		movs	r2, #0
 3246 07ba 1A70     		strb	r2, [r3]
 790:.\main.c      **** 			teclas1=7;
 3247              		.loc 1 790 0
 3248 07bc 2B4B     		ldr	r3, .L280+32
 3249 07be 0722     		movs	r2, #7
 3250 07c0 1A70     		strb	r2, [r3]
 791:.\main.c      **** 			posx1=4;
 3251              		.loc 1 791 0
 3252 07c2 2B4B     		ldr	r3, .L280+36
 3253 07c4 0422     		movs	r2, #4
 3254 07c6 1A80     		strh	r2, [r3]	@ movhi
 792:.\main.c      **** 			posy1=3;
 3255              		.loc 1 792 0
 3256 07c8 2A4B     		ldr	r3, .L280+40
 3257 07ca 0322     		movs	r2, #3
 3258 07cc 1A80     		strh	r2, [r3]	@ movhi
 793:.\main.c      **** 			sizeletra1=1;				
 3259              		.loc 1 793 0
 3260 07ce 2A4B     		ldr	r3, .L280+44
 3261 07d0 0122     		movs	r2, #1
ARM GAS  C:\Users\SISTEM~1\AppData\Local\Temp\ccCGHuKi.s 			page 73


 3262 07d2 1A80     		strh	r2, [r3]	@ movhi
 794:.\main.c      **** 			set_imagen(1,10);
 3263              		.loc 1 794 0
 3264 07d4 0120     		movs	r0, #1
 3265 07d6 0A21     		movs	r1, #10
 3266 07d8 FFF7FEFF 		bl	set_imagen
 795:.\main.c      **** 			flujo_LCD1=13;
 3267              		.loc 1 795 0
 3268 07dc 204B     		ldr	r3, .L280+20
 3269 07de 0D22     		movs	r2, #13
 3270 07e0 1A70     		strb	r2, [r3]
 796:.\main.c      **** 			count_protector=0;
 3271              		.loc 1 796 0
 3272 07e2 264B     		ldr	r3, .L280+48
 3273 07e4 0022     		movs	r2, #0
 3274 07e6 1A70     		strb	r2, [r3]
 797:.\main.c      **** 		 }		
 798:.\main.c      ****         break;		
 3275              		.loc 1 798 0
 3276 07e8 01F058B9 		b	.L108
 3277              	.L167:
 3278 07ec 01F056B9 		b	.L108
 3279              	.L114:
 799:.\main.c      **** 		
 800:.\main.c      **** 		case 3:
 801:.\main.c      ****          if(touch_present(1)==1){
 3280              		.loc 1 801 0
 3281 07f0 0120     		movs	r0, #1
 3282 07f2 FFF7FEFF 		bl	touch_present
 3283 07f6 0346     		mov	r3, r0
 3284 07f8 012B     		cmp	r3, #1
 3285 07fa 40F08A80 		bne	.L168
 802:.\main.c      ****              if(touch_write(1,0x33)){
 3286              		.loc 1 802 0
 3287 07fe 0120     		movs	r0, #1
 3288 0800 3321     		movs	r1, #51
 3289 0802 FFF7FEFF 		bl	touch_write
 3290 0806 0346     		mov	r3, r0
 3291 0808 002B     		cmp	r3, #0
 3292 080a 00F08280 		beq	.L168
 803:.\main.c      **** 	             for(x=0;x<=7;x++){
 3293              		.loc 1 803 0
 3294 080e 0023     		movs	r3, #0
 3295 0810 87F82F30 		strb	r3, [r7, #47]
 3296 0814 0FE0     		b	.L169
 3297              	.L170:
 804:.\main.c      **** 	                 rventa1.id[x]=touch_read_byte(1);
 3298              		.loc 1 804 0 discriminator 2
 3299 0816 97F82F40 		ldrb	r4, [r7, #47]	@ zero_extendqisi2
 3300 081a 0120     		movs	r0, #1
 3301 081c FFF7FEFF 		bl	touch_read_byte
 3302 0820 0346     		mov	r3, r0
 3303 0822 1A46     		mov	r2, r3
 3304 0824 0B4B     		ldr	r3, .L280+8
 3305 0826 2344     		add	r3, r3, r4
 3306 0828 83F82320 		strb	r2, [r3, #35]
 803:.\main.c      **** 	             for(x=0;x<=7;x++){
ARM GAS  C:\Users\SISTEM~1\AppData\Local\Temp\ccCGHuKi.s 			page 74


 3307              		.loc 1 803 0 discriminator 2
 3308 082c 97F82F30 		ldrb	r3, [r7, #47]	@ zero_extendqisi2
 3309 0830 0133     		adds	r3, r3, #1
 3310 0832 87F82F30 		strb	r3, [r7, #47]
 3311              	.L169:
 803:.\main.c      **** 	             for(x=0;x<=7;x++){
 3312              		.loc 1 803 0 is_stmt 0 discriminator 1
 3313 0836 97F82F30 		ldrb	r3, [r7, #47]	@ zero_extendqisi2
 3314 083a 072B     		cmp	r3, #7
 3315 083c EBD9     		bls	.L170
 805:.\main.c      **** 	             }
 806:.\main.c      **** 				 crc_total=0;
 3316              		.loc 1 806 0 is_stmt 1
 3317 083e 104B     		ldr	r3, .L280+52
 3318 0840 0022     		movs	r2, #0
 3319 0842 1A70     		strb	r2, [r3]
 807:.\main.c      **** 				 for(x=0;x<7;x++){
 3320              		.loc 1 807 0
 3321 0844 0023     		movs	r3, #0
 3322 0846 87F82F30 		strb	r3, [r7, #47]
 3323 084a 30E0     		b	.L171
 3324              	.L281:
 3325              		.align	2
 3326              	.L280:
 3327 084c 00000000 		.word	Buffer_LCD1
 3328 0850 00000000 		.word	count_teclas1
 3329 0854 00000000 		.word	rventa1
 3330 0858 00008940 		.word	1082720256
 3331 085c 00208C40 		.word	1082925056
 3332 0860 00000000 		.word	flujo_LCD1
 3333 0864 00000000 		.word	lado1
 3334 0868 00000000 		.word	id_teclado1
 3335 086c 00000000 		.word	teclas1
 3336 0870 00000000 		.word	posx1
 3337 0874 00000000 		.word	posy1
 3338 0878 00000000 		.word	sizeletra1
 3339 087c 00000000 		.word	count_protector
 3340 0880 00000000 		.word	crc_total
 3341              	.L172:
 808:.\main.c      **** 				 	crc_total=crc_check(crc_total,rventa1.id[x]);
 3342              		.loc 1 808 0 discriminator 2
 3343 0884 B94B     		ldr	r3, .L282
 3344 0886 1A78     		ldrb	r2, [r3]	@ zero_extendqisi2
 3345 0888 97F82F30 		ldrb	r3, [r7, #47]	@ zero_extendqisi2
 3346 088c B849     		ldr	r1, .L282+4
 3347 088e 0B44     		add	r3, r3, r1
 3348 0890 93F82330 		ldrb	r3, [r3, #35]	@ zero_extendqisi2
 3349 0894 1046     		mov	r0, r2
 3350 0896 1946     		mov	r1, r3
 3351 0898 FFF7FEFF 		bl	crc_check
 3352 089c 0346     		mov	r3, r0
 3353 089e 1A46     		mov	r2, r3
 3354 08a0 B24B     		ldr	r3, .L282
 3355 08a2 1A70     		strb	r2, [r3]
 807:.\main.c      **** 				 for(x=0;x<7;x++){
 3356              		.loc 1 807 0 discriminator 2
 3357 08a4 97F82F30 		ldrb	r3, [r7, #47]	@ zero_extendqisi2
ARM GAS  C:\Users\SISTEM~1\AppData\Local\Temp\ccCGHuKi.s 			page 75


 3358 08a8 0133     		adds	r3, r3, #1
 3359 08aa 87F82F30 		strb	r3, [r7, #47]
 3360              	.L171:
 807:.\main.c      **** 				 for(x=0;x<7;x++){
 3361              		.loc 1 807 0 is_stmt 0 discriminator 1
 3362 08ae 97F82F30 		ldrb	r3, [r7, #47]	@ zero_extendqisi2
 3363 08b2 062B     		cmp	r3, #6
 3364 08b4 E6D9     		bls	.L172
 809:.\main.c      **** 				 }					
 810:.\main.c      **** 				 if(crc_total==rventa1.id[7]){
 3365              		.loc 1 810 0 is_stmt 1
 3366 08b6 AE4B     		ldr	r3, .L282+4
 3367 08b8 93F82A20 		ldrb	r2, [r3, #42]	@ zero_extendqisi2
 3368 08bc AB4B     		ldr	r3, .L282
 3369 08be 1B78     		ldrb	r3, [r3]	@ zero_extendqisi2
 3370 08c0 9A42     		cmp	r2, r3
 3371 08c2 26D1     		bne	.L168
 811:.\main.c      **** 		             set_imagen(1,19);
 3372              		.loc 1 811 0
 3373 08c4 0120     		movs	r0, #1
 3374 08c6 1321     		movs	r1, #19
 3375 08c8 FFF7FEFF 		bl	set_imagen
 812:.\main.c      **** 		             count_protector=0;              
 3376              		.loc 1 812 0
 3377 08cc A94B     		ldr	r3, .L282+8
 3378 08ce 0022     		movs	r2, #0
 3379 08d0 1A70     		strb	r2, [r3]
 813:.\main.c      **** 		             isr_3_StartEx(animacion); 
 3380              		.loc 1 813 0
 3381 08d2 A948     		ldr	r0, .L282+12
 3382 08d4 FFF7FEFF 		bl	isr_3_StartEx
 814:.\main.c      **** 		             Timer_Animacion_Start(); 
 3383              		.loc 1 814 0
 3384 08d8 FFF7FEFF 		bl	Timer_Animacion_Start
 815:.\main.c      **** 					 flujo_LCD1=101;
 3385              		.loc 1 815 0
 3386 08dc A74B     		ldr	r3, .L282+16
 3387 08de 6522     		movs	r2, #101
 3388 08e0 1A70     		strb	r2, [r3]
 816:.\main.c      **** 					 prox_caso[0][0]=2;
 3389              		.loc 1 816 0
 3390 08e2 A74B     		ldr	r3, .L282+20
 3391 08e4 0222     		movs	r2, #2
 3392 08e6 1A80     		strh	r2, [r3]	@ movhi
 817:.\main.c      **** 					 prox_caso[0][1]=14;
 3393              		.loc 1 817 0
 3394 08e8 A54B     		ldr	r3, .L282+20
 3395 08ea 0E22     		movs	r2, #14
 3396 08ec 5A80     		strh	r2, [r3, #2]	@ movhi
 818:.\main.c      **** 					 count_teclas1=0;							//Inicia el contador de teclas	
 3397              		.loc 1 818 0
 3398 08ee A54B     		ldr	r3, .L282+24
 3399 08f0 0022     		movs	r2, #0
 3400 08f2 1A70     		strb	r2, [r3]
 819:.\main.c      **** 					 id_teclado1=2;
 3401              		.loc 1 819 0
 3402 08f4 A44B     		ldr	r3, .L282+28
ARM GAS  C:\Users\SISTEM~1\AppData\Local\Temp\ccCGHuKi.s 			page 76


 3403 08f6 0222     		movs	r2, #2
 3404 08f8 1A70     		strb	r2, [r3]
 820:.\main.c      **** 					 teclas1=10;
 3405              		.loc 1 820 0
 3406 08fa A44B     		ldr	r3, .L282+32
 3407 08fc 0A22     		movs	r2, #10
 3408 08fe 1A70     		strb	r2, [r3]
 821:.\main.c      **** 					 posx1=2;
 3409              		.loc 1 821 0
 3410 0900 A34B     		ldr	r3, .L282+36
 3411 0902 0222     		movs	r2, #2
 3412 0904 1A80     		strh	r2, [r3]	@ movhi
 822:.\main.c      **** 					 posy1=3;
 3413              		.loc 1 822 0
 3414 0906 A34B     		ldr	r3, .L282+40
 3415 0908 0322     		movs	r2, #3
 3416 090a 1A80     		strh	r2, [r3]	@ movhi
 823:.\main.c      **** 					 sizeletra1=1;	
 3417              		.loc 1 823 0
 3418 090c A24B     		ldr	r3, .L282+44
 3419 090e 0122     		movs	r2, #1
 3420 0910 1A80     		strh	r2, [r3]	@ movhi
 3421              	.L168:
 824:.\main.c      **** 				 }
 825:.\main.c      ****              }
 826:.\main.c      ****          }
 827:.\main.c      ****          if(LCD_1_GetRxBufferSize()==8){
 3422              		.loc 1 827 0
 3423 0912 FFF7FEFF 		bl	LCD_1_GetRxBufferSize
 3424 0916 0346     		mov	r3, r0
 3425 0918 082B     		cmp	r3, #8
 3426 091a 1BD1     		bne	.L173
 828:.\main.c      ****             if((LCD_1_rxBuffer[0]==0xAA) && (LCD_1_rxBuffer[6]==0xC3) && (LCD_1_rxBuffer[7]==0x3C))
 3427              		.loc 1 828 0
 3428 091c 9F4B     		ldr	r3, .L282+48
 3429 091e 1B78     		ldrb	r3, [r3]
 3430 0920 DBB2     		uxtb	r3, r3
 3431 0922 AA2B     		cmp	r3, #170
 3432 0924 12D1     		bne	.L174
 3433              		.loc 1 828 0 is_stmt 0 discriminator 1
 3434 0926 9D4B     		ldr	r3, .L282+48
 3435 0928 9B79     		ldrb	r3, [r3, #6]
 3436 092a DBB2     		uxtb	r3, r3
 3437 092c C32B     		cmp	r3, #195
 3438 092e 0DD1     		bne	.L174
 3439 0930 9A4B     		ldr	r3, .L282+48
 3440 0932 DB79     		ldrb	r3, [r3, #7]
 3441 0934 DBB2     		uxtb	r3, r3
 3442 0936 3C2B     		cmp	r3, #60
 3443 0938 08D1     		bne	.L174
 829:.\main.c      ****                 switch(LCD_1_rxBuffer[3]){
 3444              		.loc 1 829 0 is_stmt 1
 3445 093a 984B     		ldr	r3, .L282+48
 3446 093c DB78     		ldrb	r3, [r3, #3]
 3447 093e DBB2     		uxtb	r3, r3
 3448 0940 3B2B     		cmp	r3, #59
 3449 0942 03D1     		bne	.L174
ARM GAS  C:\Users\SISTEM~1\AppData\Local\Temp\ccCGHuKi.s 			page 77


 830:.\main.c      ****                     case 0x3B:
 831:.\main.c      ****                      flujo_LCD1=0; 
 3450              		.loc 1 831 0
 3451 0944 8D4B     		ldr	r3, .L282+16
 3452 0946 0022     		movs	r2, #0
 3453 0948 1A70     		strb	r2, [r3]
 832:.\main.c      ****                     break; 
 3454              		.loc 1 832 0
 3455 094a 00BF     		nop
 3456              	.L174:
 833:.\main.c      ****                 }
 834:.\main.c      ****             }
 835:.\main.c      ****             //CyDelay(100);            
 836:.\main.c      ****             LCD_1_ClearRxBuffer();
 3457              		.loc 1 836 0
 3458 094c FFF7FEFF 		bl	LCD_1_ClearRxBuffer
 837:.\main.c      ****          }		
 838:.\main.c      **** 		break;		
 3459              		.loc 1 838 0
 3460 0950 01F0A4B8 		b	.L108
 3461              	.L173:
 3462 0954 01F0A2B8 		b	.L108
 3463              	.L115:
 839:.\main.c      **** 		
 840:.\main.c      ****         case 4:   
 841:.\main.c      ****          if(LCD_1_GetRxBufferSize()==8){
 3464              		.loc 1 841 0
 3465 0958 FFF7FEFF 		bl	LCD_1_GetRxBufferSize
 3466 095c 0346     		mov	r3, r0
 3467 095e 082B     		cmp	r3, #8
 3468 0960 40F0DF80 		bne	.L176
 842:.\main.c      ****             if((LCD_1_rxBuffer[0]==0xAA) && (LCD_1_rxBuffer[6]==0xC3) && (LCD_1_rxBuffer[7]==0x3C))
 3469              		.loc 1 842 0
 3470 0964 8D4B     		ldr	r3, .L282+48
 3471 0966 1B78     		ldrb	r3, [r3]
 3472 0968 DBB2     		uxtb	r3, r3
 3473 096a AA2B     		cmp	r3, #170
 3474 096c 40F0D580 		bne	.L177
 3475              		.loc 1 842 0 is_stmt 0 discriminator 1
 3476 0970 8A4B     		ldr	r3, .L282+48
 3477 0972 9B79     		ldrb	r3, [r3, #6]
 3478 0974 DBB2     		uxtb	r3, r3
 3479 0976 C32B     		cmp	r3, #195
 3480 0978 40F0CF80 		bne	.L177
 3481 097c 874B     		ldr	r3, .L282+48
 3482 097e DB79     		ldrb	r3, [r3, #7]
 3483 0980 DBB2     		uxtb	r3, r3
 3484 0982 3C2B     		cmp	r3, #60
 3485 0984 40F0C980 		bne	.L177
 843:.\main.c      ****                 switch(LCD_1_rxBuffer[3]){
 3486              		.loc 1 843 0 is_stmt 1
 3487 0988 844B     		ldr	r3, .L282+48
 3488 098a DB78     		ldrb	r3, [r3, #3]
 3489 098c DBB2     		uxtb	r3, r3
 3490 098e 102B     		cmp	r3, #16
 3491 0990 4BD0     		beq	.L178
 3492 0992 102B     		cmp	r3, #16
ARM GAS  C:\Users\SISTEM~1\AppData\Local\Temp\ccCGHuKi.s 			page 78


 3493 0994 02DC     		bgt	.L179
 3494 0996 0F2B     		cmp	r3, #15
 3495 0998 07D0     		beq	.L180
 3496 099a BEE0     		b	.L177
 3497              	.L179:
 3498 099c 3B2B     		cmp	r3, #59
 3499 099e 00F0B880 		beq	.L181
 3500 09a2 432B     		cmp	r3, #67
 3501 09a4 00F08180 		beq	.L182
 3502 09a8 B7E0     		b	.L177
 3503              	.L180:
 844:.\main.c      ****                     case 0x0F:                               	//$
 845:.\main.c      **** 					  for(x=0;x<=7;x++){
 3504              		.loc 1 845 0
 3505 09aa 0023     		movs	r3, #0
 3506 09ac 87F82F30 		strb	r3, [r7, #47]
 3507 09b0 0AE0     		b	.L183
 3508              	.L184:
 846:.\main.c      **** 					 	rventa1.preset[x]=0;
 3509              		.loc 1 846 0 discriminator 2
 3510 09b2 97F82F30 		ldrb	r3, [r7, #47]	@ zero_extendqisi2
 3511 09b6 6E4A     		ldr	r2, .L282+4
 3512 09b8 1344     		add	r3, r3, r2
 3513 09ba 0022     		movs	r2, #0
 3514 09bc DA76     		strb	r2, [r3, #27]
 845:.\main.c      **** 					  for(x=0;x<=7;x++){
 3515              		.loc 1 845 0 discriminator 2
 3516 09be 97F82F30 		ldrb	r3, [r7, #47]	@ zero_extendqisi2
 3517 09c2 0133     		adds	r3, r3, #1
 3518 09c4 87F82F30 		strb	r3, [r7, #47]
 3519              	.L183:
 845:.\main.c      **** 					  for(x=0;x<=7;x++){
 3520              		.loc 1 845 0 is_stmt 0 discriminator 1
 3521 09c8 97F82F30 		ldrb	r3, [r7, #47]	@ zero_extendqisi2
 3522 09cc 072B     		cmp	r3, #7
 3523 09ce F0D9     		bls	.L184
 847:.\main.c      **** 					  }					
 848:.\main.c      ****                       flujo_LCD1=2; 
 3524              		.loc 1 848 0 is_stmt 1
 3525 09d0 6A4B     		ldr	r3, .L282+16
 3526 09d2 0222     		movs	r2, #2
 3527 09d4 1A70     		strb	r2, [r3]
 849:.\main.c      **** 					  count_teclas1=0;							//Inicia el contador de teclas	
 3528              		.loc 1 849 0
 3529 09d6 6B4B     		ldr	r3, .L282+24
 3530 09d8 0022     		movs	r2, #0
 3531 09da 1A70     		strb	r2, [r3]
 850:.\main.c      **** 					  id_teclado1=1;
 3532              		.loc 1 850 0
 3533 09dc 6A4B     		ldr	r3, .L282+28
 3534 09de 0122     		movs	r2, #1
 3535 09e0 1A70     		strb	r2, [r3]
 851:.\main.c      **** 					  id_coma1=',';	
 3536              		.loc 1 851 0
 3537 09e2 6F4B     		ldr	r3, .L282+52
 3538 09e4 2C22     		movs	r2, #44
 3539 09e6 1A70     		strb	r2, [r3]
ARM GAS  C:\Users\SISTEM~1\AppData\Local\Temp\ccCGHuKi.s 			page 79


 852:.\main.c      ****                       teclas1=version[1]; 						//cantidad de teclas q puede digitar
 3540              		.loc 1 852 0
 3541 09e8 6E4B     		ldr	r3, .L282+56
 3542 09ea 5B78     		ldrb	r3, [r3, #1]
 3543 09ec DAB2     		uxtb	r2, r3
 3544 09ee 674B     		ldr	r3, .L282+32
 3545 09f0 1A70     		strb	r2, [r3]
 853:.\main.c      **** 					  rventa1.preset[0]=1;
 3546              		.loc 1 853 0
 3547 09f2 5F4B     		ldr	r3, .L282+4
 3548 09f4 0122     		movs	r2, #1
 3549 09f6 DA76     		strb	r2, [r3, #27]
 854:.\main.c      ****                       comas1=0;									
 3550              		.loc 1 854 0
 3551 09f8 6B4B     		ldr	r3, .L282+60
 3552 09fa 0022     		movs	r2, #0
 3553 09fc 1A70     		strb	r2, [r3]
 855:.\main.c      ****                       set_imagen(1,6); 
 3554              		.loc 1 855 0
 3555 09fe 0120     		movs	r0, #1
 3556 0a00 0621     		movs	r1, #6
 3557 0a02 FFF7FEFF 		bl	set_imagen
 856:.\main.c      **** 					  posx1=4;
 3558              		.loc 1 856 0
 3559 0a06 624B     		ldr	r3, .L282+36
 3560 0a08 0422     		movs	r2, #4
 3561 0a0a 1A80     		strh	r2, [r3]	@ movhi
 857:.\main.c      **** 					  posy1=3;
 3562              		.loc 1 857 0
 3563 0a0c 614B     		ldr	r3, .L282+40
 3564 0a0e 0322     		movs	r2, #3
 3565 0a10 1A80     		strh	r2, [r3]	@ movhi
 858:.\main.c      **** 					  sizeletra1=1;	
 3566              		.loc 1 858 0
 3567 0a12 614B     		ldr	r3, .L282+44
 3568 0a14 0122     		movs	r2, #1
 3569 0a16 1A80     		strh	r2, [r3]	@ movhi
 859:.\main.c      **** 					  write_LCD(1,'$', 3, 4, 1);
 3570              		.loc 1 859 0
 3571 0a18 0123     		movs	r3, #1
 3572 0a1a 0093     		str	r3, [sp]
 3573 0a1c 0120     		movs	r0, #1
 3574 0a1e 2421     		movs	r1, #36
 3575 0a20 0322     		movs	r2, #3
 3576 0a22 0423     		movs	r3, #4
 3577 0a24 FFF7FEFF 		bl	write_LCD
 860:.\main.c      ****                     break;
 3578              		.loc 1 860 0
 3579 0a28 77E0     		b	.L177
 3580              	.L178:
 861:.\main.c      ****                     
 862:.\main.c      ****                     case 0x10: 									//G 
 863:.\main.c      **** 					  for(x=0;x<=7;x++){
 3581              		.loc 1 863 0
 3582 0a2a 0023     		movs	r3, #0
 3583 0a2c 87F82F30 		strb	r3, [r7, #47]
 3584 0a30 0AE0     		b	.L185
ARM GAS  C:\Users\SISTEM~1\AppData\Local\Temp\ccCGHuKi.s 			page 80


 3585              	.L186:
 864:.\main.c      **** 					 	rventa1.preset[x]=0;
 3586              		.loc 1 864 0 discriminator 2
 3587 0a32 97F82F30 		ldrb	r3, [r7, #47]	@ zero_extendqisi2
 3588 0a36 4E4A     		ldr	r2, .L282+4
 3589 0a38 1344     		add	r3, r3, r2
 3590 0a3a 0022     		movs	r2, #0
 3591 0a3c DA76     		strb	r2, [r3, #27]
 863:.\main.c      **** 					  for(x=0;x<=7;x++){
 3592              		.loc 1 863 0 discriminator 2
 3593 0a3e 97F82F30 		ldrb	r3, [r7, #47]	@ zero_extendqisi2
 3594 0a42 0133     		adds	r3, r3, #1
 3595 0a44 87F82F30 		strb	r3, [r7, #47]
 3596              	.L185:
 863:.\main.c      **** 					  for(x=0;x<=7;x++){
 3597              		.loc 1 863 0 is_stmt 0 discriminator 1
 3598 0a48 97F82F30 		ldrb	r3, [r7, #47]	@ zero_extendqisi2
 3599 0a4c 072B     		cmp	r3, #7
 3600 0a4e F0D9     		bls	.L186
 865:.\main.c      **** 					  }						
 866:.\main.c      ****                       flujo_LCD1=2; 
 3601              		.loc 1 866 0 is_stmt 1
 3602 0a50 4A4B     		ldr	r3, .L282+16
 3603 0a52 0222     		movs	r2, #2
 3604 0a54 1A70     		strb	r2, [r3]
 867:.\main.c      **** 					  count_teclas1=0;							//Inicia el contador de teclas	
 3605              		.loc 1 867 0
 3606 0a56 4B4B     		ldr	r3, .L282+24
 3607 0a58 0022     		movs	r2, #0
 3608 0a5a 1A70     		strb	r2, [r3]
 868:.\main.c      **** 					  id_teclado1=1;
 3609              		.loc 1 868 0
 3610 0a5c 4A4B     		ldr	r3, .L282+28
 3611 0a5e 0122     		movs	r2, #1
 3612 0a60 1A70     		strb	r2, [r3]
 869:.\main.c      **** 					  id_coma1=',';	
 3613              		.loc 1 869 0
 3614 0a62 4F4B     		ldr	r3, .L282+52
 3615 0a64 2C22     		movs	r2, #44
 3616 0a66 1A70     		strb	r2, [r3]
 870:.\main.c      ****                       teclas1=version[1]; 
 3617              		.loc 1 870 0
 3618 0a68 4E4B     		ldr	r3, .L282+56
 3619 0a6a 5B78     		ldrb	r3, [r3, #1]
 3620 0a6c DAB2     		uxtb	r2, r3
 3621 0a6e 474B     		ldr	r3, .L282+32
 3622 0a70 1A70     		strb	r2, [r3]
 871:.\main.c      **** 					  rventa1.preset[0]=2;
 3623              		.loc 1 871 0
 3624 0a72 3F4B     		ldr	r3, .L282+4
 3625 0a74 0222     		movs	r2, #2
 3626 0a76 DA76     		strb	r2, [r3, #27]
 872:.\main.c      ****                       comas1=0;									
 3627              		.loc 1 872 0
 3628 0a78 4B4B     		ldr	r3, .L282+60
 3629 0a7a 0022     		movs	r2, #0
 3630 0a7c 1A70     		strb	r2, [r3]
ARM GAS  C:\Users\SISTEM~1\AppData\Local\Temp\ccCGHuKi.s 			page 81


 873:.\main.c      ****                       set_imagen(1,13); 
 3631              		.loc 1 873 0
 3632 0a7e 0120     		movs	r0, #1
 3633 0a80 0D21     		movs	r1, #13
 3634 0a82 FFF7FEFF 		bl	set_imagen
 874:.\main.c      **** 					  posx1=4;
 3635              		.loc 1 874 0
 3636 0a86 424B     		ldr	r3, .L282+36
 3637 0a88 0422     		movs	r2, #4
 3638 0a8a 1A80     		strh	r2, [r3]	@ movhi
 875:.\main.c      **** 					  posy1=3;
 3639              		.loc 1 875 0
 3640 0a8c 414B     		ldr	r3, .L282+40
 3641 0a8e 0322     		movs	r2, #3
 3642 0a90 1A80     		strh	r2, [r3]	@ movhi
 876:.\main.c      **** 					  sizeletra1=1;					
 3643              		.loc 1 876 0
 3644 0a92 414B     		ldr	r3, .L282+44
 3645 0a94 0122     		movs	r2, #1
 3646 0a96 1A80     		strh	r2, [r3]	@ movhi
 877:.\main.c      **** 					  write_LCD(1,'G', 3, 4, 1);
 3647              		.loc 1 877 0
 3648 0a98 0123     		movs	r3, #1
 3649 0a9a 0093     		str	r3, [sp]
 3650 0a9c 0120     		movs	r0, #1
 3651 0a9e 4721     		movs	r1, #71
 3652 0aa0 0322     		movs	r2, #3
 3653 0aa2 0423     		movs	r3, #4
 3654 0aa4 FFF7FEFF 		bl	write_LCD
 878:.\main.c      ****                     break;
 3655              		.loc 1 878 0
 3656 0aa8 37E0     		b	.L177
 3657              	.L182:
 879:.\main.c      ****                     
 880:.\main.c      ****                     case 0x43:  								//Full 
 881:.\main.c      **** 					  for(x=0;x<=7;x++){
 3658              		.loc 1 881 0
 3659 0aaa 0023     		movs	r3, #0
 3660 0aac 87F82F30 		strb	r3, [r7, #47]
 3661 0ab0 0AE0     		b	.L187
 3662              	.L188:
 882:.\main.c      **** 					 	rventa1.preset[x]=0;
 3663              		.loc 1 882 0 discriminator 2
 3664 0ab2 97F82F30 		ldrb	r3, [r7, #47]	@ zero_extendqisi2
 3665 0ab6 2E4A     		ldr	r2, .L282+4
 3666 0ab8 1344     		add	r3, r3, r2
 3667 0aba 0022     		movs	r2, #0
 3668 0abc DA76     		strb	r2, [r3, #27]
 881:.\main.c      **** 					  for(x=0;x<=7;x++){
 3669              		.loc 1 881 0 discriminator 2
 3670 0abe 97F82F30 		ldrb	r3, [r7, #47]	@ zero_extendqisi2
 3671 0ac2 0133     		adds	r3, r3, #1
 3672 0ac4 87F82F30 		strb	r3, [r7, #47]
 3673              	.L187:
 881:.\main.c      **** 					  for(x=0;x<=7;x++){
 3674              		.loc 1 881 0 is_stmt 0 discriminator 1
 3675 0ac8 97F82F30 		ldrb	r3, [r7, #47]	@ zero_extendqisi2
ARM GAS  C:\Users\SISTEM~1\AppData\Local\Temp\ccCGHuKi.s 			page 82


 3676 0acc 072B     		cmp	r3, #7
 3677 0ace F0D9     		bls	.L188
 883:.\main.c      **** 					  }
 884:.\main.c      ****                       rventa1.preset[0]=3;					
 3678              		.loc 1 884 0 is_stmt 1
 3679 0ad0 274B     		ldr	r3, .L282+4
 3680 0ad2 0322     		movs	r2, #3
 3681 0ad4 DA76     		strb	r2, [r3, #27]
 885:.\main.c      **** 					  for(x=5;x<=7;x++){
 3682              		.loc 1 885 0
 3683 0ad6 0523     		movs	r3, #5
 3684 0ad8 87F82F30 		strb	r3, [r7, #47]
 3685 0adc 0AE0     		b	.L189
 3686              	.L190:
 886:.\main.c      **** 						rventa1.preset[x]=9;		
 3687              		.loc 1 886 0 discriminator 2
 3688 0ade 97F82F30 		ldrb	r3, [r7, #47]	@ zero_extendqisi2
 3689 0ae2 234A     		ldr	r2, .L282+4
 3690 0ae4 1344     		add	r3, r3, r2
 3691 0ae6 0922     		movs	r2, #9
 3692 0ae8 DA76     		strb	r2, [r3, #27]
 885:.\main.c      **** 					  for(x=5;x<=7;x++){
 3693              		.loc 1 885 0 discriminator 2
 3694 0aea 97F82F30 		ldrb	r3, [r7, #47]	@ zero_extendqisi2
 3695 0aee 0133     		adds	r3, r3, #1
 3696 0af0 87F82F30 		strb	r3, [r7, #47]
 3697              	.L189:
 885:.\main.c      **** 					  for(x=5;x<=7;x++){
 3698              		.loc 1 885 0 is_stmt 0 discriminator 1
 3699 0af4 97F82F30 		ldrb	r3, [r7, #47]	@ zero_extendqisi2
 3700 0af8 072B     		cmp	r3, #7
 3701 0afa F0D9     		bls	.L190
 887:.\main.c      **** 					  }						
 888:.\main.c      **** 		              flujo_LCD1=7;                         
 3702              		.loc 1 888 0 is_stmt 1
 3703 0afc 1F4B     		ldr	r3, .L282+16
 3704 0afe 0722     		movs	r2, #7
 3705 0b00 1A70     		strb	r2, [r3]
 889:.\main.c      **** 		              set_imagen(1,7);
 3706              		.loc 1 889 0
 3707 0b02 0120     		movs	r0, #1
 3708 0b04 0721     		movs	r1, #7
 3709 0b06 FFF7FEFF 		bl	set_imagen
 890:.\main.c      **** 					  lado1.estado=espera;
 3710              		.loc 1 890 0
 3711 0b0a 284B     		ldr	r3, .L282+64
 3712 0b0c 0222     		movs	r2, #2
 3713 0b0e 5A70     		strb	r2, [r3, #1]
 891:.\main.c      ****                     break;
 3714              		.loc 1 891 0
 3715 0b10 03E0     		b	.L177
 3716              	.L181:
 892:.\main.c      ****                     
 893:.\main.c      ****                     case 0x3B:                                //Cancel                     
 894:.\main.c      ****                       flujo_LCD1=0;
 3717              		.loc 1 894 0
 3718 0b12 1A4B     		ldr	r3, .L282+16
ARM GAS  C:\Users\SISTEM~1\AppData\Local\Temp\ccCGHuKi.s 			page 83


 3719 0b14 0022     		movs	r2, #0
 3720 0b16 1A70     		strb	r2, [r3]
 895:.\main.c      ****                     break;                    
 3721              		.loc 1 895 0
 3722 0b18 00BF     		nop
 3723              	.L177:
 896:.\main.c      ****                 }
 897:.\main.c      ****             }
 898:.\main.c      ****             //CyDelay(100);            
 899:.\main.c      ****             LCD_1_ClearRxBuffer();
 3724              		.loc 1 899 0
 3725 0b1a FFF7FEFF 		bl	LCD_1_ClearRxBuffer
 900:.\main.c      ****          } 
 901:.\main.c      ****         break;
 3726              		.loc 1 901 0
 3727 0b1e 00F0BDBF 		b	.L108
 3728              	.L176:
 3729 0b22 00F0BBBF 		b	.L108
 3730              	.L116:
 902:.\main.c      **** 		
 903:.\main.c      **** 		case 5:
 904:.\main.c      **** 		 CyDelay(50);
 3731              		.loc 1 904 0
 3732 0b26 3220     		movs	r0, #50
 3733 0b28 FFF7FEFF 		bl	CyDelay
 905:.\main.c      ****          if(LCD_1_GetRxBufferSize()==8){
 3734              		.loc 1 905 0
 3735 0b2c FFF7FEFF 		bl	LCD_1_GetRxBufferSize
 3736 0b30 0346     		mov	r3, r0
 3737 0b32 082B     		cmp	r3, #8
 3738 0b34 3CD1     		bne	.L191
 906:.\main.c      ****             if((LCD_1_rxBuffer[0]==0xAA) && (LCD_1_rxBuffer[6]==0xC3) && (LCD_1_rxBuffer[7]==0x3C))
 3739              		.loc 1 906 0
 3740 0b36 194B     		ldr	r3, .L282+48
 3741 0b38 1B78     		ldrb	r3, [r3]
 3742 0b3a DBB2     		uxtb	r3, r3
 3743 0b3c AA2B     		cmp	r3, #170
 3744 0b3e 11D1     		bne	.L192
 3745              		.loc 1 906 0 is_stmt 0 discriminator 1
 3746 0b40 164B     		ldr	r3, .L282+48
 3747 0b42 9B79     		ldrb	r3, [r3, #6]
 3748 0b44 DBB2     		uxtb	r3, r3
 3749 0b46 C32B     		cmp	r3, #195
 3750 0b48 0CD1     		bne	.L192
 3751 0b4a 144B     		ldr	r3, .L282+48
 3752 0b4c DB79     		ldrb	r3, [r3, #7]
 3753 0b4e DBB2     		uxtb	r3, r3
 3754 0b50 3C2B     		cmp	r3, #60
 3755 0b52 07D1     		bne	.L192
 907:.\main.c      ****                 if(LCD_1_rxBuffer[3]==0x7E){					//Cancel
 3756              		.loc 1 907 0 is_stmt 1
 3757 0b54 114B     		ldr	r3, .L282+48
 3758 0b56 DB78     		ldrb	r3, [r3, #3]
 3759 0b58 DBB2     		uxtb	r3, r3
 3760 0b5a 7E2B     		cmp	r3, #126
 3761 0b5c 02D1     		bne	.L192
 908:.\main.c      **** 					flujo_LCD1=0;
ARM GAS  C:\Users\SISTEM~1\AppData\Local\Temp\ccCGHuKi.s 			page 84


 3762              		.loc 1 908 0
 3763 0b5e 074B     		ldr	r3, .L282+16
 3764 0b60 0022     		movs	r2, #0
 3765 0b62 1A70     		strb	r2, [r3]
 3766              	.L192:
 909:.\main.c      ****                 }												
 910:.\main.c      **** 			}
 911:.\main.c      ****             //CyDelay(100);            
 912:.\main.c      ****             LCD_1_ClearRxBuffer();
 3767              		.loc 1 912 0
 3768 0b64 FFF7FEFF 		bl	LCD_1_ClearRxBuffer
 913:.\main.c      **** 			break;
 3769              		.loc 1 913 0
 3770 0b68 00F098BF 		b	.L108
 3771              	.L283:
 3772              		.align	2
 3773              	.L282:
 3774 0b6c 00000000 		.word	crc_total
 3775 0b70 00000000 		.word	rventa1
 3776 0b74 00000000 		.word	count_protector
 3777 0b78 00000000 		.word	animacion
 3778 0b7c 00000000 		.word	flujo_LCD1
 3779 0b80 00000000 		.word	prox_caso
 3780 0b84 00000000 		.word	count_teclas1
 3781 0b88 00000000 		.word	id_teclado1
 3782 0b8c 00000000 		.word	teclas1
 3783 0b90 00000000 		.word	posx1
 3784 0b94 00000000 		.word	posy1
 3785 0b98 00000000 		.word	sizeletra1
 3786 0b9c 00000000 		.word	LCD_1_rxBuffer
 3787 0ba0 00000000 		.word	id_coma1
 3788 0ba4 00000000 		.word	version
 3789 0ba8 00000000 		.word	comas1
 3790 0bac 00000000 		.word	lado1
 3791              	.L191:
 914:.\main.c      **** 		 }
 915:.\main.c      ****          x=get_estado(lado1.dir);
 3792              		.loc 1 915 0
 3793 0bb0 434B     		ldr	r3, .L284
 3794 0bb2 1B78     		ldrb	r3, [r3]
 3795 0bb4 DBB2     		uxtb	r3, r3
 3796 0bb6 1846     		mov	r0, r3
 3797 0bb8 FFF7FEFF 		bl	get_estado
 3798 0bbc 0346     		mov	r3, r0
 3799 0bbe 87F82F30 		strb	r3, [r7, #47]
 916:.\main.c      ****          if(x==7){								//Espera a que este en listo el equipo	
 3800              		.loc 1 916 0
 3801 0bc2 97F82F30 		ldrb	r3, [r7, #47]	@ zero_extendqisi2
 3802 0bc6 072B     		cmp	r3, #7
 3803 0bc8 06D1     		bne	.L193
 917:.\main.c      **** 			flujo_LCD1=7;
 3804              		.loc 1 917 0
 3805 0bca 3E4B     		ldr	r3, .L284+4
 3806 0bcc 0722     		movs	r2, #7
 3807 0bce 1A70     		strb	r2, [r3]
 918:.\main.c      ****             CyDelay(50);
 3808              		.loc 1 918 0
ARM GAS  C:\Users\SISTEM~1\AppData\Local\Temp\ccCGHuKi.s 			page 85


 3809 0bd0 3220     		movs	r0, #50
 3810 0bd2 FFF7FEFF 		bl	CyDelay
 3811 0bd6 2CE0     		b	.L194
 3812              	.L193:
 919:.\main.c      ****          }
 920:.\main.c      ****          else if(x==0){
 3813              		.loc 1 920 0
 3814 0bd8 97F82F30 		ldrb	r3, [r7, #47]	@ zero_extendqisi2
 3815 0bdc 002B     		cmp	r3, #0
 3816 0bde 0ED1     		bne	.L195
 921:.\main.c      **** 			CyDelay(50);
 3817              		.loc 1 921 0
 3818 0be0 3220     		movs	r0, #50
 3819 0be2 FFF7FEFF 		bl	CyDelay
 922:.\main.c      **** 			programar(lado1.dir,1,aux,2);
 3820              		.loc 1 922 0
 3821 0be6 364B     		ldr	r3, .L284
 3822 0be8 1B78     		ldrb	r3, [r3]
 3823 0bea DAB2     		uxtb	r2, r3
 3824 0bec 07F11403 		add	r3, r7, #20
 3825 0bf0 1046     		mov	r0, r2
 3826 0bf2 0121     		movs	r1, #1
 3827 0bf4 1A46     		mov	r2, r3
 3828 0bf6 0223     		movs	r3, #2
 3829 0bf8 FFF7FEFF 		bl	programar
 3830 0bfc 19E0     		b	.L194
 3831              	.L195:
 923:.\main.c      ****          }
 924:.\main.c      ****          else if(x==0x0C){
 3832              		.loc 1 924 0
 3833 0bfe 97F82F30 		ldrb	r3, [r7, #47]	@ zero_extendqisi2
 3834 0c02 0C2B     		cmp	r3, #12
 3835 0c04 04D1     		bne	.L196
 925:.\main.c      ****             error_op(1,85);
 3836              		.loc 1 925 0
 3837 0c06 0120     		movs	r0, #1
 3838 0c08 5521     		movs	r1, #85
 3839 0c0a FFF7FEFF 		bl	error_op
 3840 0c0e 10E0     		b	.L194
 3841              	.L196:
 926:.\main.c      ****          }
 927:.\main.c      **** 		 else if(x==0x0B){                   //Termino venta
 3842              		.loc 1 927 0
 3843 0c10 97F82F30 		ldrb	r3, [r7, #47]	@ zero_extendqisi2
 3844 0c14 0B2B     		cmp	r3, #11
 3845 0c16 03D1     		bne	.L197
 928:.\main.c      **** 			flujo_LCD1=12;
 3846              		.loc 1 928 0
 3847 0c18 2A4B     		ldr	r3, .L284+4
 3848 0c1a 0C22     		movs	r2, #12
 3849 0c1c 1A70     		strb	r2, [r3]
 3850 0c1e 08E0     		b	.L194
 3851              	.L197:
 929:.\main.c      ****          }						
 930:.\main.c      **** 		 else if(x==0x0A){					//Termino venta
 3852              		.loc 1 930 0
 3853 0c20 97F82F30 		ldrb	r3, [r7, #47]	@ zero_extendqisi2
ARM GAS  C:\Users\SISTEM~1\AppData\Local\Temp\ccCGHuKi.s 			page 86


 3854 0c24 0A2B     		cmp	r3, #10
 3855 0c26 04D1     		bne	.L194
 931:.\main.c      **** 			flujo_LCD1=12;
 3856              		.loc 1 931 0
 3857 0c28 264B     		ldr	r3, .L284+4
 3858 0c2a 0C22     		movs	r2, #12
 3859 0c2c 1A70     		strb	r2, [r3]
 932:.\main.c      **** 		 }        
 933:.\main.c      ****         break;
 3860              		.loc 1 933 0
 3861 0c2e 00F035BF 		b	.L108
 3862              	.L194:
 3863 0c32 00F033BF 		b	.L108
 3864              	.L117:
 934:.\main.c      **** 		
 935:.\main.c      **** 		case 7:
 936:.\main.c      **** 		 CyDelay(10);
 3865              		.loc 1 936 0
 3866 0c36 0A20     		movs	r0, #10
 3867 0c38 FFF7FEFF 		bl	CyDelay
 937:.\main.c      **** 		 rventa1.manguera=estado_ex(lado1.dir);
 3868              		.loc 1 937 0
 3869 0c3c 204B     		ldr	r3, .L284
 3870 0c3e 1B78     		ldrb	r3, [r3]
 3871 0c40 DBB2     		uxtb	r3, r3
 3872 0c42 1846     		mov	r0, r3
 3873 0c44 FFF7FEFF 		bl	estado_ex
 3874 0c48 0346     		mov	r3, r0
 3875 0c4a 1A46     		mov	r2, r3
 3876 0c4c 1E4B     		ldr	r3, .L284+8
 3877 0c4e 9A76     		strb	r2, [r3, #26]
 938:.\main.c      **** 		 if(rventa1.manguera!=0){
 3878              		.loc 1 938 0
 3879 0c50 1D4B     		ldr	r3, .L284+8
 3880 0c52 9B7E     		ldrb	r3, [r3, #26]	@ zero_extendqisi2
 3881 0c54 002B     		cmp	r3, #0
 3882 0c56 07D0     		beq	.L198
 939:.\main.c      **** 			flujo_LCD1=8; 
 3883              		.loc 1 939 0
 3884 0c58 1A4B     		ldr	r3, .L284+4
 3885 0c5a 0822     		movs	r2, #8
 3886 0c5c 1A70     		strb	r2, [r3]
 940:.\main.c      ****             CyDelay(10);		
 3887              		.loc 1 940 0
 3888 0c5e 0A20     		movs	r0, #10
 3889 0c60 FFF7FEFF 		bl	CyDelay
 941:.\main.c      **** 		 }	
 942:.\main.c      **** 		break;
 3890              		.loc 1 942 0
 3891 0c64 00F01ABF 		b	.L108
 3892              	.L198:
 3893 0c68 00F018BF 		b	.L108
 3894              	.L118:
 943:.\main.c      **** 		
 944:.\main.c      **** 		case 8:
 945:.\main.c      ****          CyDelay(10);
 3895              		.loc 1 945 0
ARM GAS  C:\Users\SISTEM~1\AppData\Local\Temp\ccCGHuKi.s 			page 87


 3896 0c6c 0A20     		movs	r0, #10
 3897 0c6e FFF7FEFF 		bl	CyDelay
 946:.\main.c      **** 		 if(get_estado(lado1.dir)==7){
 3898              		.loc 1 946 0
 3899 0c72 134B     		ldr	r3, .L284
 3900 0c74 1B78     		ldrb	r3, [r3]
 3901 0c76 DBB2     		uxtb	r3, r3
 3902 0c78 1846     		mov	r0, r3
 3903 0c7a FFF7FEFF 		bl	get_estado
 3904 0c7e 0346     		mov	r3, r0
 3905 0c80 072B     		cmp	r3, #7
 3906 0c82 0BD1     		bne	.L199
 947:.\main.c      **** 			flujo_LCD1=9;
 3907              		.loc 1 947 0
 3908 0c84 0F4B     		ldr	r3, .L284+4
 3909 0c86 0922     		movs	r2, #9
 3910 0c88 1A70     		strb	r2, [r3]
 948:.\main.c      **** 			set_imagen(1,57);
 3911              		.loc 1 948 0
 3912 0c8a 0120     		movs	r0, #1
 3913 0c8c 3921     		movs	r1, #57
 3914 0c8e FFF7FEFF 		bl	set_imagen
 949:.\main.c      **** 			lado1.estado=listo;
 3915              		.loc 1 949 0
 3916 0c92 0B4B     		ldr	r3, .L284
 3917 0c94 0422     		movs	r2, #4
 3918 0c96 5A70     		strb	r2, [r3, #1]
 950:.\main.c      **** 		 }
 951:.\main.c      **** 		break;
 3919              		.loc 1 951 0
 3920 0c98 00F000BF 		b	.L108
 3921              	.L199:
 3922 0c9c 00F0FEBE 		b	.L108
 3923              	.L119:
 952:.\main.c      **** 		
 953:.\main.c      **** 		case 9:
 954:.\main.c      **** 			rf_mod[0]='M';
 3924              		.loc 1 954 0
 3925 0ca0 0A4B     		ldr	r3, .L284+12
 3926 0ca2 4D22     		movs	r2, #77
 3927 0ca4 1A70     		strb	r2, [r3]
 955:.\main.c      **** 			rf_mod[1]='U';
 3928              		.loc 1 955 0
 3929 0ca6 094B     		ldr	r3, .L284+12
 3930 0ca8 5522     		movs	r2, #85
 3931 0caa 5A70     		strb	r2, [r3, #1]
 956:.\main.c      **** 			rf_mod[2]='X';
 3932              		.loc 1 956 0
 3933 0cac 074B     		ldr	r3, .L284+12
 3934 0cae 5822     		movs	r2, #88
 3935 0cb0 9A70     		strb	r2, [r3, #2]
 957:.\main.c      **** 			rf_mod[3]='0';
 3936              		.loc 1 957 0
 3937 0cb2 064B     		ldr	r3, .L284+12
 3938 0cb4 3022     		movs	r2, #48
 3939 0cb6 DA70     		strb	r2, [r3, #3]
 958:.\main.c      **** 			for(x=0;x<=15;x++){						//Serial				
ARM GAS  C:\Users\SISTEM~1\AppData\Local\Temp\ccCGHuKi.s 			page 88


 3940              		.loc 1 958 0
 3941 0cb8 0023     		movs	r3, #0
 3942 0cba 87F82F30 		strb	r3, [r7, #47]
 3943 0cbe 40E0     		b	.L200
 3944              	.L285:
 3945              		.align	2
 3946              	.L284:
 3947 0cc0 00000000 		.word	lado1
 3948 0cc4 00000000 		.word	flujo_LCD1
 3949 0cc8 00000000 		.word	rventa1
 3950 0ccc 00000000 		.word	rf_mod
 3951              	.L203:
 959:.\main.c      **** 				y=(rventa1.id[x/2]>>4)&0x0F;
 3952              		.loc 1 959 0
 3953 0cd0 97F82F30 		ldrb	r3, [r7, #47]	@ zero_extendqisi2
 3954 0cd4 5B08     		lsrs	r3, r3, #1
 3955 0cd6 DBB2     		uxtb	r3, r3
 3956 0cd8 B14A     		ldr	r2, .L286
 3957 0cda 1344     		add	r3, r3, r2
 3958 0cdc 93F82330 		ldrb	r3, [r3, #35]	@ zero_extendqisi2
 3959 0ce0 1B09     		lsrs	r3, r3, #4
 3960 0ce2 87F82E30 		strb	r3, [r7, #46]
 960:.\main.c      **** 				if((x%2)==0){
 3961              		.loc 1 960 0
 3962 0ce6 97F82F30 		ldrb	r3, [r7, #47]
 3963 0cea 03F00103 		and	r3, r3, #1
 3964 0cee DBB2     		uxtb	r3, r3
 3965 0cf0 002B     		cmp	r3, #0
 3966 0cf2 0BD1     		bne	.L201
 961:.\main.c      **** 					y=rventa1.id[x/2]&0x0F;
 3967              		.loc 1 961 0
 3968 0cf4 97F82F30 		ldrb	r3, [r7, #47]	@ zero_extendqisi2
 3969 0cf8 5B08     		lsrs	r3, r3, #1
 3970 0cfa DBB2     		uxtb	r3, r3
 3971 0cfc A84A     		ldr	r2, .L286
 3972 0cfe 1344     		add	r3, r3, r2
 3973 0d00 93F82330 		ldrb	r3, [r3, #35]	@ zero_extendqisi2
 3974 0d04 03F00F03 		and	r3, r3, #15
 3975 0d08 87F82E30 		strb	r3, [r7, #46]
 3976              	.L201:
 962:.\main.c      **** 				}
 963:.\main.c      **** 				rf_mod[x+4] = y+48;
 3977              		.loc 1 963 0
 3978 0d0c 97F82F30 		ldrb	r3, [r7, #47]	@ zero_extendqisi2
 3979 0d10 0433     		adds	r3, r3, #4
 3980 0d12 97F82E20 		ldrb	r2, [r7, #46]
 3981 0d16 3032     		adds	r2, r2, #48
 3982 0d18 D1B2     		uxtb	r1, r2
 3983 0d1a A24A     		ldr	r2, .L286+4
 3984 0d1c D154     		strb	r1, [r2, r3]
 964:.\main.c      **** 				if(y>9){
 3985              		.loc 1 964 0
 3986 0d1e 97F82E30 		ldrb	r3, [r7, #46]	@ zero_extendqisi2
 3987 0d22 092B     		cmp	r3, #9
 3988 0d24 08D9     		bls	.L202
 965:.\main.c      **** 					rf_mod[x+4] = y+55;
 3989              		.loc 1 965 0
ARM GAS  C:\Users\SISTEM~1\AppData\Local\Temp\ccCGHuKi.s 			page 89


 3990 0d26 97F82F30 		ldrb	r3, [r7, #47]	@ zero_extendqisi2
 3991 0d2a 0433     		adds	r3, r3, #4
 3992 0d2c 97F82E20 		ldrb	r2, [r7, #46]
 3993 0d30 3732     		adds	r2, r2, #55
 3994 0d32 D1B2     		uxtb	r1, r2
 3995 0d34 9B4A     		ldr	r2, .L286+4
 3996 0d36 D154     		strb	r1, [r2, r3]
 3997              	.L202:
 958:.\main.c      **** 			for(x=0;x<=15;x++){						//Serial				
 3998              		.loc 1 958 0
 3999 0d38 97F82F30 		ldrb	r3, [r7, #47]	@ zero_extendqisi2
 4000 0d3c 0133     		adds	r3, r3, #1
 4001 0d3e 87F82F30 		strb	r3, [r7, #47]
 4002              	.L200:
 958:.\main.c      **** 			for(x=0;x<=15;x++){						//Serial				
 4003              		.loc 1 958 0 is_stmt 0 discriminator 1
 4004 0d42 97F82F30 		ldrb	r3, [r7, #47]	@ zero_extendqisi2
 4005 0d46 0F2B     		cmp	r3, #15
 4006 0d48 C2D9     		bls	.L203
 966:.\main.c      **** 				}
 967:.\main.c      **** 			}
 968:.\main.c      **** 			rf_mod[20]=(lado1.grado[rventa1.manguera-1][0])+48;			//Id Producto	
 4007              		.loc 1 968 0 is_stmt 1
 4008 0d4a 954B     		ldr	r3, .L286
 4009 0d4c 9B7E     		ldrb	r3, [r3, #26]	@ zero_extendqisi2
 4010 0d4e 013B     		subs	r3, r3, #1
 4011 0d50 954A     		ldr	r2, .L286+8
 4012 0d52 1344     		add	r3, r3, r2
 4013 0d54 93F85930 		ldrb	r3, [r3, #89]
 4014 0d58 DBB2     		uxtb	r3, r3
 4015 0d5a 3033     		adds	r3, r3, #48
 4016 0d5c DAB2     		uxtb	r2, r3
 4017 0d5e 914B     		ldr	r3, .L286+4
 4018 0d60 1A75     		strb	r2, [r3, #20]
 969:.\main.c      **** 			//rf_mod[20]=2+48;												//Id Producto	
 970:.\main.c      **** 			rf_mod[21]=id_estacion[4];										//Id Estación
 4019              		.loc 1 970 0
 4020 0d62 924B     		ldr	r3, .L286+12
 4021 0d64 1B79     		ldrb	r3, [r3, #4]
 4022 0d66 DAB2     		uxtb	r2, r3
 4023 0d68 8E4B     		ldr	r3, .L286+4
 4024 0d6a 5A75     		strb	r2, [r3, #21]
 971:.\main.c      **** 			rf_mod[22]=id_estacion[3];
 4025              		.loc 1 971 0
 4026 0d6c 8F4B     		ldr	r3, .L286+12
 4027 0d6e DB78     		ldrb	r3, [r3, #3]
 4028 0d70 DAB2     		uxtb	r2, r3
 4029 0d72 8C4B     		ldr	r3, .L286+4
 4030 0d74 9A75     		strb	r2, [r3, #22]
 972:.\main.c      **** 			rf_mod[23]=id_estacion[2];
 4031              		.loc 1 972 0
 4032 0d76 8D4B     		ldr	r3, .L286+12
 4033 0d78 9B78     		ldrb	r3, [r3, #2]
 4034 0d7a DAB2     		uxtb	r2, r3
 4035 0d7c 894B     		ldr	r3, .L286+4
 4036 0d7e DA75     		strb	r2, [r3, #23]
 973:.\main.c      **** 			rf_mod[24]=id_estacion[1];			
ARM GAS  C:\Users\SISTEM~1\AppData\Local\Temp\ccCGHuKi.s 			page 90


 4037              		.loc 1 973 0
 4038 0d80 8A4B     		ldr	r3, .L286+12
 4039 0d82 5B78     		ldrb	r3, [r3, #1]
 4040 0d84 DAB2     		uxtb	r2, r3
 4041 0d86 874B     		ldr	r3, .L286+4
 4042 0d88 1A76     		strb	r2, [r3, #24]
 974:.\main.c      ****             if(ppux10==0){
 4043              		.loc 1 974 0
 4044 0d8a 894B     		ldr	r3, .L286+16
 4045 0d8c 1B78     		ldrb	r3, [r3]
 4046 0d8e DBB2     		uxtb	r3, r3
 4047 0d90 002B     		cmp	r3, #0
 4048 0d92 59D1     		bne	.L204
 975:.\main.c      ****     			rf_mod[25]=(lado1.ppu[rventa1.manguera-1][4]&0x0F)+0x30;		//PPU
 4049              		.loc 1 975 0
 4050 0d94 824B     		ldr	r3, .L286
 4051 0d96 9B7E     		ldrb	r3, [r3, #26]	@ zero_extendqisi2
 4052 0d98 5A1E     		subs	r2, r3, #1
 4053 0d9a 8349     		ldr	r1, .L286+8
 4054 0d9c 1346     		mov	r3, r2
 4055 0d9e 9B00     		lsls	r3, r3, #2
 4056 0da0 1344     		add	r3, r3, r2
 4057 0da2 0B44     		add	r3, r3, r1
 4058 0da4 4C33     		adds	r3, r3, #76
 4059 0da6 9B78     		ldrb	r3, [r3, #2]
 4060 0da8 DBB2     		uxtb	r3, r3
 4061 0daa 03F00F03 		and	r3, r3, #15
 4062 0dae DBB2     		uxtb	r3, r3
 4063 0db0 3033     		adds	r3, r3, #48
 4064 0db2 DAB2     		uxtb	r2, r3
 4065 0db4 7B4B     		ldr	r3, .L286+4
 4066 0db6 5A76     		strb	r2, [r3, #25]
 976:.\main.c      ****     			rf_mod[26]=(lado1.ppu[rventa1.manguera-1][3]&0x0F)+0x30;
 4067              		.loc 1 976 0
 4068 0db8 794B     		ldr	r3, .L286
 4069 0dba 9B7E     		ldrb	r3, [r3, #26]	@ zero_extendqisi2
 4070 0dbc 5A1E     		subs	r2, r3, #1
 4071 0dbe 7A49     		ldr	r1, .L286+8
 4072 0dc0 1346     		mov	r3, r2
 4073 0dc2 9B00     		lsls	r3, r3, #2
 4074 0dc4 1344     		add	r3, r3, r2
 4075 0dc6 0B44     		add	r3, r3, r1
 4076 0dc8 4B33     		adds	r3, r3, #75
 4077 0dca 9B78     		ldrb	r3, [r3, #2]
 4078 0dcc DBB2     		uxtb	r3, r3
 4079 0dce 03F00F03 		and	r3, r3, #15
 4080 0dd2 DBB2     		uxtb	r3, r3
 4081 0dd4 3033     		adds	r3, r3, #48
 4082 0dd6 DAB2     		uxtb	r2, r3
 4083 0dd8 724B     		ldr	r3, .L286+4
 4084 0dda 9A76     		strb	r2, [r3, #26]
 977:.\main.c      ****     			rf_mod[27]=(lado1.ppu[rventa1.manguera-1][2]&0x0F)+0x30;
 4085              		.loc 1 977 0
 4086 0ddc 704B     		ldr	r3, .L286
 4087 0dde 9B7E     		ldrb	r3, [r3, #26]	@ zero_extendqisi2
 4088 0de0 5A1E     		subs	r2, r3, #1
 4089 0de2 7149     		ldr	r1, .L286+8
ARM GAS  C:\Users\SISTEM~1\AppData\Local\Temp\ccCGHuKi.s 			page 91


 4090 0de4 1346     		mov	r3, r2
 4091 0de6 9B00     		lsls	r3, r3, #2
 4092 0de8 1344     		add	r3, r3, r2
 4093 0dea 0B44     		add	r3, r3, r1
 4094 0dec 4A33     		adds	r3, r3, #74
 4095 0dee 9B78     		ldrb	r3, [r3, #2]
 4096 0df0 DBB2     		uxtb	r3, r3
 4097 0df2 03F00F03 		and	r3, r3, #15
 4098 0df6 DBB2     		uxtb	r3, r3
 4099 0df8 3033     		adds	r3, r3, #48
 4100 0dfa DAB2     		uxtb	r2, r3
 4101 0dfc 694B     		ldr	r3, .L286+4
 4102 0dfe DA76     		strb	r2, [r3, #27]
 978:.\main.c      ****     			rf_mod[28]=(lado1.ppu[rventa1.manguera-1][1]&0x0F)+0x30;
 4103              		.loc 1 978 0
 4104 0e00 674B     		ldr	r3, .L286
 4105 0e02 9B7E     		ldrb	r3, [r3, #26]	@ zero_extendqisi2
 4106 0e04 5A1E     		subs	r2, r3, #1
 4107 0e06 6849     		ldr	r1, .L286+8
 4108 0e08 1346     		mov	r3, r2
 4109 0e0a 9B00     		lsls	r3, r3, #2
 4110 0e0c 1344     		add	r3, r3, r2
 4111 0e0e 0B44     		add	r3, r3, r1
 4112 0e10 4933     		adds	r3, r3, #73
 4113 0e12 9B78     		ldrb	r3, [r3, #2]
 4114 0e14 DBB2     		uxtb	r3, r3
 4115 0e16 03F00F03 		and	r3, r3, #15
 4116 0e1a DBB2     		uxtb	r3, r3
 4117 0e1c 3033     		adds	r3, r3, #48
 4118 0e1e DAB2     		uxtb	r2, r3
 4119 0e20 604B     		ldr	r3, .L286+4
 4120 0e22 1A77     		strb	r2, [r3, #28]
 979:.\main.c      ****     			rf_mod[29]=(lado1.ppu[rventa1.manguera-1][0]&0x0F)+0x30;
 4121              		.loc 1 979 0
 4122 0e24 5E4B     		ldr	r3, .L286
 4123 0e26 9B7E     		ldrb	r3, [r3, #26]	@ zero_extendqisi2
 4124 0e28 5A1E     		subs	r2, r3, #1
 4125 0e2a 5F49     		ldr	r1, .L286+8
 4126 0e2c 1346     		mov	r3, r2
 4127 0e2e 9B00     		lsls	r3, r3, #2
 4128 0e30 1344     		add	r3, r3, r2
 4129 0e32 0B44     		add	r3, r3, r1
 4130 0e34 4833     		adds	r3, r3, #72
 4131 0e36 9B78     		ldrb	r3, [r3, #2]
 4132 0e38 DBB2     		uxtb	r3, r3
 4133 0e3a 03F00F03 		and	r3, r3, #15
 4134 0e3e DBB2     		uxtb	r3, r3
 4135 0e40 3033     		adds	r3, r3, #48
 4136 0e42 DAB2     		uxtb	r2, r3
 4137 0e44 574B     		ldr	r3, .L286+4
 4138 0e46 5A77     		strb	r2, [r3, #29]
 4139              	.L204:
 980:.\main.c      ****             }
 981:.\main.c      ****             if(ppux10==1){
 4140              		.loc 1 981 0
 4141 0e48 594B     		ldr	r3, .L286+16
 4142 0e4a 1B78     		ldrb	r3, [r3]
ARM GAS  C:\Users\SISTEM~1\AppData\Local\Temp\ccCGHuKi.s 			page 92


 4143 0e4c DBB2     		uxtb	r3, r3
 4144 0e4e 012B     		cmp	r3, #1
 4145 0e50 4AD1     		bne	.L205
 982:.\main.c      ****     			rf_mod[25]=(lado1.ppu[rventa1.manguera-1][3]&0x0F)+0x30;		//PPUx10
 4146              		.loc 1 982 0
 4147 0e52 534B     		ldr	r3, .L286
 4148 0e54 9B7E     		ldrb	r3, [r3, #26]	@ zero_extendqisi2
 4149 0e56 5A1E     		subs	r2, r3, #1
 4150 0e58 5349     		ldr	r1, .L286+8
 4151 0e5a 1346     		mov	r3, r2
 4152 0e5c 9B00     		lsls	r3, r3, #2
 4153 0e5e 1344     		add	r3, r3, r2
 4154 0e60 0B44     		add	r3, r3, r1
 4155 0e62 4B33     		adds	r3, r3, #75
 4156 0e64 9B78     		ldrb	r3, [r3, #2]
 4157 0e66 DBB2     		uxtb	r3, r3
 4158 0e68 03F00F03 		and	r3, r3, #15
 4159 0e6c DBB2     		uxtb	r3, r3
 4160 0e6e 3033     		adds	r3, r3, #48
 4161 0e70 DAB2     		uxtb	r2, r3
 4162 0e72 4C4B     		ldr	r3, .L286+4
 4163 0e74 5A76     		strb	r2, [r3, #25]
 983:.\main.c      ****     			rf_mod[26]=(lado1.ppu[rventa1.manguera-1][2]&0x0F)+0x30;
 4164              		.loc 1 983 0
 4165 0e76 4A4B     		ldr	r3, .L286
 4166 0e78 9B7E     		ldrb	r3, [r3, #26]	@ zero_extendqisi2
 4167 0e7a 5A1E     		subs	r2, r3, #1
 4168 0e7c 4A49     		ldr	r1, .L286+8
 4169 0e7e 1346     		mov	r3, r2
 4170 0e80 9B00     		lsls	r3, r3, #2
 4171 0e82 1344     		add	r3, r3, r2
 4172 0e84 0B44     		add	r3, r3, r1
 4173 0e86 4A33     		adds	r3, r3, #74
 4174 0e88 9B78     		ldrb	r3, [r3, #2]
 4175 0e8a DBB2     		uxtb	r3, r3
 4176 0e8c 03F00F03 		and	r3, r3, #15
 4177 0e90 DBB2     		uxtb	r3, r3
 4178 0e92 3033     		adds	r3, r3, #48
 4179 0e94 DAB2     		uxtb	r2, r3
 4180 0e96 434B     		ldr	r3, .L286+4
 4181 0e98 9A76     		strb	r2, [r3, #26]
 984:.\main.c      ****     			rf_mod[27]=(lado1.ppu[rventa1.manguera-1][1]&0x0F)+0x30;
 4182              		.loc 1 984 0
 4183 0e9a 414B     		ldr	r3, .L286
 4184 0e9c 9B7E     		ldrb	r3, [r3, #26]	@ zero_extendqisi2
 4185 0e9e 5A1E     		subs	r2, r3, #1
 4186 0ea0 4149     		ldr	r1, .L286+8
 4187 0ea2 1346     		mov	r3, r2
 4188 0ea4 9B00     		lsls	r3, r3, #2
 4189 0ea6 1344     		add	r3, r3, r2
 4190 0ea8 0B44     		add	r3, r3, r1
 4191 0eaa 4933     		adds	r3, r3, #73
 4192 0eac 9B78     		ldrb	r3, [r3, #2]
 4193 0eae DBB2     		uxtb	r3, r3
 4194 0eb0 03F00F03 		and	r3, r3, #15
 4195 0eb4 DBB2     		uxtb	r3, r3
 4196 0eb6 3033     		adds	r3, r3, #48
ARM GAS  C:\Users\SISTEM~1\AppData\Local\Temp\ccCGHuKi.s 			page 93


 4197 0eb8 DAB2     		uxtb	r2, r3
 4198 0eba 3A4B     		ldr	r3, .L286+4
 4199 0ebc DA76     		strb	r2, [r3, #27]
 985:.\main.c      ****     			rf_mod[28]=(lado1.ppu[rventa1.manguera-1][0]&0x0F)+0x30;
 4200              		.loc 1 985 0
 4201 0ebe 384B     		ldr	r3, .L286
 4202 0ec0 9B7E     		ldrb	r3, [r3, #26]	@ zero_extendqisi2
 4203 0ec2 5A1E     		subs	r2, r3, #1
 4204 0ec4 3849     		ldr	r1, .L286+8
 4205 0ec6 1346     		mov	r3, r2
 4206 0ec8 9B00     		lsls	r3, r3, #2
 4207 0eca 1344     		add	r3, r3, r2
 4208 0ecc 0B44     		add	r3, r3, r1
 4209 0ece 4833     		adds	r3, r3, #72
 4210 0ed0 9B78     		ldrb	r3, [r3, #2]
 4211 0ed2 DBB2     		uxtb	r3, r3
 4212 0ed4 03F00F03 		and	r3, r3, #15
 4213 0ed8 DBB2     		uxtb	r3, r3
 4214 0eda 3033     		adds	r3, r3, #48
 4215 0edc DAB2     		uxtb	r2, r3
 4216 0ede 314B     		ldr	r3, .L286+4
 4217 0ee0 1A77     		strb	r2, [r3, #28]
 986:.\main.c      ****     			rf_mod[29]=0x30;   
 4218              		.loc 1 986 0
 4219 0ee2 304B     		ldr	r3, .L286+4
 4220 0ee4 3022     		movs	r2, #48
 4221 0ee6 5A77     		strb	r2, [r3, #29]
 4222              	.L205:
 987:.\main.c      ****             }
 988:.\main.c      **** 			rf_mod[30]=(rventa1.preset[0]+48);								//Tipo de Preset
 4223              		.loc 1 988 0
 4224 0ee8 2D4B     		ldr	r3, .L286
 4225 0eea DB7E     		ldrb	r3, [r3, #27]	@ zero_extendqisi2
 4226 0eec 3033     		adds	r3, r3, #48
 4227 0eee DAB2     		uxtb	r2, r3
 4228 0ef0 2C4B     		ldr	r3, .L286+4
 4229 0ef2 9A77     		strb	r2, [r3, #30]
 989:.\main.c      **** 			rf_mod[31]=rventa1.preset[7];									//Preset
 4230              		.loc 1 989 0
 4231 0ef4 2A4B     		ldr	r3, .L286
 4232 0ef6 93F82220 		ldrb	r2, [r3, #34]	@ zero_extendqisi2
 4233 0efa 2A4B     		ldr	r3, .L286+4
 4234 0efc DA77     		strb	r2, [r3, #31]
 990:.\main.c      **** 			if(rventa1.preset[7]<10){				
 4235              		.loc 1 990 0
 4236 0efe 284B     		ldr	r3, .L286
 4237 0f00 93F82230 		ldrb	r3, [r3, #34]	@ zero_extendqisi2
 4238 0f04 092B     		cmp	r3, #9
 4239 0f06 06D8     		bhi	.L206
 991:.\main.c      **** 				rf_mod[31]=rventa1.preset[7]+0x30;							
 4240              		.loc 1 991 0
 4241 0f08 254B     		ldr	r3, .L286
 4242 0f0a 93F82230 		ldrb	r3, [r3, #34]	@ zero_extendqisi2
 4243 0f0e 3033     		adds	r3, r3, #48
 4244 0f10 DAB2     		uxtb	r2, r3
 4245 0f12 244B     		ldr	r3, .L286+4
 4246 0f14 DA77     		strb	r2, [r3, #31]
ARM GAS  C:\Users\SISTEM~1\AppData\Local\Temp\ccCGHuKi.s 			page 94


 4247              	.L206:
 992:.\main.c      **** 			}
 993:.\main.c      **** 			rf_mod[32]=rventa1.preset[6];
 4248              		.loc 1 993 0
 4249 0f16 224B     		ldr	r3, .L286
 4250 0f18 93F82120 		ldrb	r2, [r3, #33]	@ zero_extendqisi2
 4251 0f1c 214B     		ldr	r3, .L286+4
 4252 0f1e 83F82020 		strb	r2, [r3, #32]
 994:.\main.c      **** 			if(rventa1.preset[6]<10){				
 4253              		.loc 1 994 0
 4254 0f22 1F4B     		ldr	r3, .L286
 4255 0f24 93F82130 		ldrb	r3, [r3, #33]	@ zero_extendqisi2
 4256 0f28 092B     		cmp	r3, #9
 4257 0f2a 07D8     		bhi	.L207
 995:.\main.c      **** 				rf_mod[32]=rventa1.preset[6]+0x30;
 4258              		.loc 1 995 0
 4259 0f2c 1C4B     		ldr	r3, .L286
 4260 0f2e 93F82130 		ldrb	r3, [r3, #33]	@ zero_extendqisi2
 4261 0f32 3033     		adds	r3, r3, #48
 4262 0f34 DAB2     		uxtb	r2, r3
 4263 0f36 1B4B     		ldr	r3, .L286+4
 4264 0f38 83F82020 		strb	r2, [r3, #32]
 4265              	.L207:
 996:.\main.c      **** 			}
 997:.\main.c      **** 			rf_mod[33]=rventa1.preset[5];
 4266              		.loc 1 997 0
 4267 0f3c 184B     		ldr	r3, .L286
 4268 0f3e 93F82020 		ldrb	r2, [r3, #32]	@ zero_extendqisi2
 4269 0f42 184B     		ldr	r3, .L286+4
 4270 0f44 83F82120 		strb	r2, [r3, #33]
 998:.\main.c      **** 			if(rventa1.preset[5]<10){				
 4271              		.loc 1 998 0
 4272 0f48 154B     		ldr	r3, .L286
 4273 0f4a 93F82030 		ldrb	r3, [r3, #32]	@ zero_extendqisi2
 4274 0f4e 092B     		cmp	r3, #9
 4275 0f50 07D8     		bhi	.L208
 999:.\main.c      **** 				rf_mod[33]=rventa1.preset[5]+0x30;
 4276              		.loc 1 999 0
 4277 0f52 134B     		ldr	r3, .L286
 4278 0f54 93F82030 		ldrb	r3, [r3, #32]	@ zero_extendqisi2
 4279 0f58 3033     		adds	r3, r3, #48
 4280 0f5a DAB2     		uxtb	r2, r3
 4281 0f5c 114B     		ldr	r3, .L286+4
 4282 0f5e 83F82120 		strb	r2, [r3, #33]
 4283              	.L208:
1000:.\main.c      **** 			}
1001:.\main.c      **** 			rf_mod[34]=rventa1.preset[4];
 4284              		.loc 1 1001 0
 4285 0f62 0F4B     		ldr	r3, .L286
 4286 0f64 DA7F     		ldrb	r2, [r3, #31]	@ zero_extendqisi2
 4287 0f66 0F4B     		ldr	r3, .L286+4
 4288 0f68 83F82220 		strb	r2, [r3, #34]
1002:.\main.c      **** 			if(rventa1.preset[4]<10){				
 4289              		.loc 1 1002 0
 4290 0f6c 0C4B     		ldr	r3, .L286
 4291 0f6e DB7F     		ldrb	r3, [r3, #31]	@ zero_extendqisi2
 4292 0f70 092B     		cmp	r3, #9
ARM GAS  C:\Users\SISTEM~1\AppData\Local\Temp\ccCGHuKi.s 			page 95


 4293 0f72 06D8     		bhi	.L209
1003:.\main.c      **** 				rf_mod[34]=rventa1.preset[4]+0x30;
 4294              		.loc 1 1003 0
 4295 0f74 0A4B     		ldr	r3, .L286
 4296 0f76 DB7F     		ldrb	r3, [r3, #31]	@ zero_extendqisi2
 4297 0f78 3033     		adds	r3, r3, #48
 4298 0f7a DAB2     		uxtb	r2, r3
 4299 0f7c 094B     		ldr	r3, .L286+4
 4300 0f7e 83F82220 		strb	r2, [r3, #34]
 4301              	.L209:
1004:.\main.c      **** 			}
1005:.\main.c      **** 			rf_mod[35]=rventa1.preset[3];
 4302              		.loc 1 1005 0
 4303 0f82 074B     		ldr	r3, .L286
 4304 0f84 9A7F     		ldrb	r2, [r3, #30]	@ zero_extendqisi2
 4305 0f86 074B     		ldr	r3, .L286+4
 4306 0f88 83F82320 		strb	r2, [r3, #35]
1006:.\main.c      **** 			if(rventa1.preset[3]<10){				
 4307              		.loc 1 1006 0
 4308 0f8c 044B     		ldr	r3, .L286
 4309 0f8e 9B7F     		ldrb	r3, [r3, #30]	@ zero_extendqisi2
 4310 0f90 092B     		cmp	r3, #9
 4311 0f92 12D8     		bhi	.L210
1007:.\main.c      **** 				rf_mod[35]=rventa1.preset[3]+0x30;
 4312              		.loc 1 1007 0
 4313 0f94 024B     		ldr	r3, .L286
 4314 0f96 9B7F     		ldrb	r3, [r3, #30]	@ zero_extendqisi2
 4315 0f98 3033     		adds	r3, r3, #48
 4316 0f9a DAB2     		uxtb	r2, r3
 4317 0f9c 0AE0     		b	.L287
 4318              	.L288:
 4319 0f9e 00BF     		.align	2
 4320              	.L286:
 4321 0fa0 00000000 		.word	rventa1
 4322 0fa4 00000000 		.word	rf_mod
 4323 0fa8 00000000 		.word	lado1
 4324 0fac 00000000 		.word	id_estacion
 4325 0fb0 00000000 		.word	ppux10
 4326              	.L287:
 4327 0fb4 8D4B     		ldr	r3, .L289
 4328 0fb6 83F82320 		strb	r2, [r3, #35]
 4329              	.L210:
1008:.\main.c      **** 			}
1009:.\main.c      **** 			rf_mod[36]=rventa1.preset[2];
 4330              		.loc 1 1009 0
 4331 0fba 8D4B     		ldr	r3, .L289+4
 4332 0fbc 5A7F     		ldrb	r2, [r3, #29]	@ zero_extendqisi2
 4333 0fbe 8B4B     		ldr	r3, .L289
 4334 0fc0 83F82420 		strb	r2, [r3, #36]
1010:.\main.c      **** 			if(rventa1.preset[2]<10){				
 4335              		.loc 1 1010 0
 4336 0fc4 8A4B     		ldr	r3, .L289+4
 4337 0fc6 5B7F     		ldrb	r3, [r3, #29]	@ zero_extendqisi2
 4338 0fc8 092B     		cmp	r3, #9
 4339 0fca 06D8     		bhi	.L211
1011:.\main.c      **** 				rf_mod[36]=rventa1.preset[2]+0x30;
 4340              		.loc 1 1011 0
ARM GAS  C:\Users\SISTEM~1\AppData\Local\Temp\ccCGHuKi.s 			page 96


 4341 0fcc 884B     		ldr	r3, .L289+4
 4342 0fce 5B7F     		ldrb	r3, [r3, #29]	@ zero_extendqisi2
 4343 0fd0 3033     		adds	r3, r3, #48
 4344 0fd2 DAB2     		uxtb	r2, r3
 4345 0fd4 854B     		ldr	r3, .L289
 4346 0fd6 83F82420 		strb	r2, [r3, #36]
 4347              	.L211:
1012:.\main.c      **** 			}
1013:.\main.c      **** 			rf_mod[37]=rventa1.preset[1];
 4348              		.loc 1 1013 0
 4349 0fda 854B     		ldr	r3, .L289+4
 4350 0fdc 1A7F     		ldrb	r2, [r3, #28]	@ zero_extendqisi2
 4351 0fde 834B     		ldr	r3, .L289
 4352 0fe0 83F82520 		strb	r2, [r3, #37]
1014:.\main.c      **** 			if(rventa1.preset[1]<10){				
 4353              		.loc 1 1014 0
 4354 0fe4 824B     		ldr	r3, .L289+4
 4355 0fe6 1B7F     		ldrb	r3, [r3, #28]	@ zero_extendqisi2
 4356 0fe8 092B     		cmp	r3, #9
 4357 0fea 06D8     		bhi	.L212
1015:.\main.c      **** 				rf_mod[37]=rventa1.preset[1]+0x30;
 4358              		.loc 1 1015 0
 4359 0fec 804B     		ldr	r3, .L289+4
 4360 0fee 1B7F     		ldrb	r3, [r3, #28]	@ zero_extendqisi2
 4361 0ff0 3033     		adds	r3, r3, #48
 4362 0ff2 DAB2     		uxtb	r2, r3
 4363 0ff4 7D4B     		ldr	r3, .L289
 4364 0ff6 83F82520 		strb	r2, [r3, #37]
 4365              	.L212:
1016:.\main.c      **** 			}
1017:.\main.c      **** 			for(x=0;x<=6;x++){
 4366              		.loc 1 1017 0
 4367 0ffa 0023     		movs	r3, #0
 4368 0ffc 87F82F30 		strb	r3, [r7, #47]
 4369 1000 12E0     		b	.L213
 4370              	.L214:
1018:.\main.c      **** 				rf_mod[38+x]=rventa1.km[x+1] + 48;
 4371              		.loc 1 1018 0 discriminator 2
 4372 1002 97F82F30 		ldrb	r3, [r7, #47]	@ zero_extendqisi2
 4373 1006 2633     		adds	r3, r3, #38
 4374 1008 97F82F20 		ldrb	r2, [r7, #47]	@ zero_extendqisi2
 4375 100c 0132     		adds	r2, r2, #1
 4376 100e 7849     		ldr	r1, .L289+4
 4377 1010 0A44     		add	r2, r2, r1
 4378 1012 92F83320 		ldrb	r2, [r2, #51]	@ zero_extendqisi2
 4379 1016 3032     		adds	r2, r2, #48
 4380 1018 D1B2     		uxtb	r1, r2
 4381 101a 744A     		ldr	r2, .L289
 4382 101c D154     		strb	r1, [r2, r3]
1017:.\main.c      **** 			for(x=0;x<=6;x++){
 4383              		.loc 1 1017 0 discriminator 2
 4384 101e 97F82F30 		ldrb	r3, [r7, #47]	@ zero_extendqisi2
 4385 1022 0133     		adds	r3, r3, #1
 4386 1024 87F82F30 		strb	r3, [r7, #47]
 4387              	.L213:
1017:.\main.c      **** 			for(x=0;x<=6;x++){
 4388              		.loc 1 1017 0 is_stmt 0 discriminator 1
ARM GAS  C:\Users\SISTEM~1\AppData\Local\Temp\ccCGHuKi.s 			page 97


 4389 1028 97F82F30 		ldrb	r3, [r7, #47]	@ zero_extendqisi2
 4390 102c 062B     		cmp	r3, #6
 4391 102e E8D9     		bls	.L214
1019:.\main.c      **** 			}
1020:.\main.c      **** 			rf_mod[45]=0x31;
 4392              		.loc 1 1020 0 is_stmt 1
 4393 1030 6E4B     		ldr	r3, .L289
 4394 1032 3122     		movs	r2, #49
 4395 1034 83F82D20 		strb	r2, [r3, #45]
1021:.\main.c      **** 			rf_mod[46]='*';
 4396              		.loc 1 1021 0
 4397 1038 6C4B     		ldr	r3, .L289
 4398 103a 2A22     		movs	r2, #42
 4399 103c 83F82E20 		strb	r2, [r3, #46]
1022:.\main.c      **** 			PC_ClearRxBuffer();				
 4400              		.loc 1 1022 0
 4401 1040 FFF7FEFF 		bl	PC_ClearRxBuffer
1023:.\main.c      **** 		    for(x=0;x<=46;x++){
 4402              		.loc 1 1023 0
 4403 1044 0023     		movs	r3, #0
 4404 1046 87F82F30 		strb	r3, [r7, #47]
 4405 104a 0BE0     		b	.L215
 4406              	.L216:
1024:.\main.c      **** 			   PC_PutChar(rf_mod[x]);
 4407              		.loc 1 1024 0 discriminator 2
 4408 104c 97F82F30 		ldrb	r3, [r7, #47]	@ zero_extendqisi2
 4409 1050 664A     		ldr	r2, .L289
 4410 1052 D35C     		ldrb	r3, [r2, r3]	@ zero_extendqisi2
 4411 1054 1846     		mov	r0, r3
 4412 1056 FFF7FEFF 		bl	PC_PutChar
1023:.\main.c      **** 		    for(x=0;x<=46;x++){
 4413              		.loc 1 1023 0 discriminator 2
 4414 105a 97F82F30 		ldrb	r3, [r7, #47]	@ zero_extendqisi2
 4415 105e 0133     		adds	r3, r3, #1
 4416 1060 87F82F30 		strb	r3, [r7, #47]
 4417              	.L215:
1023:.\main.c      **** 		    for(x=0;x<=46;x++){
 4418              		.loc 1 1023 0 is_stmt 0 discriminator 1
 4419 1064 97F82F30 		ldrb	r3, [r7, #47]	@ zero_extendqisi2
 4420 1068 2E2B     		cmp	r3, #46
 4421 106a EFD9     		bls	.L216
1025:.\main.c      **** 		    }				
1026:.\main.c      **** 			CyDelay(150);
 4422              		.loc 1 1026 0 is_stmt 1
 4423 106c 9620     		movs	r0, #150
 4424 106e FFF7FEFF 		bl	CyDelay
1027:.\main.c      **** 			if(PC_GetRxBufferSize()==2){
 4425              		.loc 1 1027 0
 4426 1072 FFF7FEFF 		bl	PC_GetRxBufferSize
 4427 1076 0346     		mov	r3, r0
 4428 1078 022B     		cmp	r3, #2
 4429 107a 13D1     		bne	.L217
1028:.\main.c      **** 				if((PC_rxBuffer[0]=='O') && (PC_rxBuffer[1]=='K')){
 4430              		.loc 1 1028 0
 4431 107c 5D4B     		ldr	r3, .L289+8
 4432 107e 1B78     		ldrb	r3, [r3]
 4433 1080 DBB2     		uxtb	r3, r3
ARM GAS  C:\Users\SISTEM~1\AppData\Local\Temp\ccCGHuKi.s 			page 98


 4434 1082 4F2B     		cmp	r3, #79
 4435 1084 0ED1     		bne	.L217
 4436              		.loc 1 1028 0 is_stmt 0 discriminator 1
 4437 1086 5B4B     		ldr	r3, .L289+8
 4438 1088 5B78     		ldrb	r3, [r3, #1]
 4439 108a DBB2     		uxtb	r3, r3
 4440 108c 4B2B     		cmp	r3, #75
 4441 108e 09D1     		bne	.L217
1029:.\main.c      **** 					lado1.estado=espera;
 4442              		.loc 1 1029 0 is_stmt 1
 4443 1090 594B     		ldr	r3, .L289+12
 4444 1092 0222     		movs	r2, #2
 4445 1094 5A70     		strb	r2, [r3, #1]
1030:.\main.c      **** 					flujo_LCD1=10;
 4446              		.loc 1 1030 0
 4447 1096 594B     		ldr	r3, .L289+16
 4448 1098 0A22     		movs	r2, #10
 4449 109a 1A70     		strb	r2, [r3]
1031:.\main.c      **** 					PC_ClearRxBuffer();
 4450              		.loc 1 1031 0
 4451 109c FFF7FEFF 		bl	PC_ClearRxBuffer
1032:.\main.c      **** 				}	
1033:.\main.c      **** 			}
1034:.\main.c      **** 		break;
 4452              		.loc 1 1034 0
 4453 10a0 00F0FCBC 		b	.L108
 4454              	.L217:
 4455 10a4 00F0FABC 		b	.L108
 4456              	.L121:
1035:.\main.c      **** 		
1036:.\main.c      **** 		case 10:
1037:.\main.c      **** 			
1038:.\main.c      **** 		break;	
1039:.\main.c      **** 		
1040:.\main.c      **** 		case 11:
1041:.\main.c      **** 		 CyDelay(50);
 4457              		.loc 1 1041 0
 4458 10a8 3220     		movs	r0, #50
 4459 10aa FFF7FEFF 		bl	CyDelay
1042:.\main.c      **** 		 switch(get_estado(lado1.dir)){
 4460              		.loc 1 1042 0
 4461 10ae 524B     		ldr	r3, .L289+12
 4462 10b0 1B78     		ldrb	r3, [r3]
 4463 10b2 DBB2     		uxtb	r3, r3
 4464 10b4 1846     		mov	r0, r3
 4465 10b6 FFF7FEFF 		bl	get_estado
 4466 10ba 0346     		mov	r3, r0
 4467 10bc 0A2B     		cmp	r3, #10
 4468 10be 33D0     		beq	.L219
 4469 10c0 0B2B     		cmp	r3, #11
 4470 10c2 03D0     		beq	.L220
 4471 10c4 062B     		cmp	r3, #6
 4472 10c6 5AD0     		beq	.L221
1043:.\main.c      **** 	         case 0x0B:                     //Termino venta
1044:.\main.c      **** 				CyDelay(100);
1045:.\main.c      **** 				for(x=0;x<=8;x++){
1046:.\main.c      **** 					rventa1.dinero[x]=0;
ARM GAS  C:\Users\SISTEM~1\AppData\Local\Temp\ccCGHuKi.s 			page 99


1047:.\main.c      **** 					rventa1.volumen[x]=0;
1048:.\main.c      **** 				}					
1049:.\main.c      **** 				if(venta(lado1.dir)==1){
1050:.\main.c      **** 					flujo_LCD1=12;
1051:.\main.c      **** 					set_imagen(1,57);
1052:.\main.c      **** 				}	
1053:.\main.c      **** 			 break;	
1054:.\main.c      **** 				
1055:.\main.c      **** 	         case 0x0A:						//Termino venta
1056:.\main.c      **** 				for(x=0;x<=8;x++){
1057:.\main.c      **** 					rventa1.dinero[x]=0;
1058:.\main.c      **** 					rventa1.volumen[x]=0;
1059:.\main.c      **** 				}				
1060:.\main.c      **** 				if(venta(lado1.dir)==1){
1061:.\main.c      **** 					flujo_LCD1=12;
1062:.\main.c      **** 					set_imagen(1,57);
1063:.\main.c      **** 				}	
1064:.\main.c      **** 			 break;
1065:.\main.c      **** 
1066:.\main.c      **** 	         case 0x06:                     //No hizo venta
1067:.\main.c      **** 				for(x=0;x<=8;x++){
1068:.\main.c      **** 					rventa1.dinero[x]=0;
1069:.\main.c      **** 					rventa1.volumen[x]=0;
1070:.\main.c      **** 				}
1071:.\main.c      **** 				for(x=0;x<=4;x++){
1072:.\main.c      **** 					rventa1.ppu[x]=0;
1073:.\main.c      **** 				}				
1074:.\main.c      **** 				flujo_LCD1=12;
1075:.\main.c      **** 				set_imagen(1,57);		
1076:.\main.c      **** 			 break;				 	
1077:.\main.c      ****          }		 	
1078:.\main.c      **** 		break;
 4473              		.loc 1 1078 0
 4474 10c8 00F0E8BC 		b	.L108
 4475              	.L220:
1044:.\main.c      **** 				CyDelay(100);
 4476              		.loc 1 1044 0
 4477 10cc 6420     		movs	r0, #100
 4478 10ce FFF7FEFF 		bl	CyDelay
1045:.\main.c      **** 				for(x=0;x<=8;x++){
 4479              		.loc 1 1045 0
 4480 10d2 0023     		movs	r3, #0
 4481 10d4 87F82F30 		strb	r3, [r7, #47]
 4482 10d8 10E0     		b	.L222
 4483              	.L223:
1046:.\main.c      **** 					rventa1.dinero[x]=0;
 4484              		.loc 1 1046 0 discriminator 2
 4485 10da 97F82F30 		ldrb	r3, [r7, #47]	@ zero_extendqisi2
 4486 10de 444A     		ldr	r2, .L289+4
 4487 10e0 1344     		add	r3, r3, r2
 4488 10e2 0022     		movs	r2, #0
 4489 10e4 DA71     		strb	r2, [r3, #7]
1047:.\main.c      **** 					rventa1.volumen[x]=0;
 4490              		.loc 1 1047 0 discriminator 2
 4491 10e6 97F82F30 		ldrb	r3, [r7, #47]	@ zero_extendqisi2
 4492 10ea 414A     		ldr	r2, .L289+4
 4493 10ec 1344     		add	r3, r3, r2
ARM GAS  C:\Users\SISTEM~1\AppData\Local\Temp\ccCGHuKi.s 			page 100


 4494 10ee 0022     		movs	r2, #0
 4495 10f0 1A74     		strb	r2, [r3, #16]
1045:.\main.c      **** 				for(x=0;x<=8;x++){
 4496              		.loc 1 1045 0 discriminator 2
 4497 10f2 97F82F30 		ldrb	r3, [r7, #47]	@ zero_extendqisi2
 4498 10f6 0133     		adds	r3, r3, #1
 4499 10f8 87F82F30 		strb	r3, [r7, #47]
 4500              	.L222:
1045:.\main.c      **** 				for(x=0;x<=8;x++){
 4501              		.loc 1 1045 0 is_stmt 0 discriminator 1
 4502 10fc 97F82F30 		ldrb	r3, [r7, #47]	@ zero_extendqisi2
 4503 1100 082B     		cmp	r3, #8
 4504 1102 EAD9     		bls	.L223
1049:.\main.c      **** 				if(venta(lado1.dir)==1){
 4505              		.loc 1 1049 0 is_stmt 1
 4506 1104 3C4B     		ldr	r3, .L289+12
 4507 1106 1B78     		ldrb	r3, [r3]
 4508 1108 DBB2     		uxtb	r3, r3
 4509 110a 1846     		mov	r0, r3
 4510 110c FFF7FEFF 		bl	venta
 4511 1110 0346     		mov	r3, r0
 4512 1112 012B     		cmp	r3, #1
 4513 1114 07D1     		bne	.L224
1050:.\main.c      **** 					flujo_LCD1=12;
 4514              		.loc 1 1050 0
 4515 1116 394B     		ldr	r3, .L289+16
 4516 1118 0C22     		movs	r2, #12
 4517 111a 1A70     		strb	r2, [r3]
1051:.\main.c      **** 					set_imagen(1,57);
 4518              		.loc 1 1051 0
 4519 111c 0120     		movs	r0, #1
 4520 111e 3921     		movs	r1, #57
 4521 1120 FFF7FEFF 		bl	set_imagen
1053:.\main.c      **** 			 break;	
 4522              		.loc 1 1053 0
 4523 1124 5FE0     		b	.L218
 4524              	.L224:
 4525 1126 5EE0     		b	.L218
 4526              	.L219:
1056:.\main.c      **** 				for(x=0;x<=8;x++){
 4527              		.loc 1 1056 0
 4528 1128 0023     		movs	r3, #0
 4529 112a 87F82F30 		strb	r3, [r7, #47]
 4530 112e 10E0     		b	.L225
 4531              	.L226:
1057:.\main.c      **** 					rventa1.dinero[x]=0;
 4532              		.loc 1 1057 0 discriminator 2
 4533 1130 97F82F30 		ldrb	r3, [r7, #47]	@ zero_extendqisi2
 4534 1134 2E4A     		ldr	r2, .L289+4
 4535 1136 1344     		add	r3, r3, r2
 4536 1138 0022     		movs	r2, #0
 4537 113a DA71     		strb	r2, [r3, #7]
1058:.\main.c      **** 					rventa1.volumen[x]=0;
 4538              		.loc 1 1058 0 discriminator 2
 4539 113c 97F82F30 		ldrb	r3, [r7, #47]	@ zero_extendqisi2
 4540 1140 2B4A     		ldr	r2, .L289+4
 4541 1142 1344     		add	r3, r3, r2
ARM GAS  C:\Users\SISTEM~1\AppData\Local\Temp\ccCGHuKi.s 			page 101


 4542 1144 0022     		movs	r2, #0
 4543 1146 1A74     		strb	r2, [r3, #16]
1056:.\main.c      **** 				for(x=0;x<=8;x++){
 4544              		.loc 1 1056 0 discriminator 2
 4545 1148 97F82F30 		ldrb	r3, [r7, #47]	@ zero_extendqisi2
 4546 114c 0133     		adds	r3, r3, #1
 4547 114e 87F82F30 		strb	r3, [r7, #47]
 4548              	.L225:
1056:.\main.c      **** 				for(x=0;x<=8;x++){
 4549              		.loc 1 1056 0 is_stmt 0 discriminator 1
 4550 1152 97F82F30 		ldrb	r3, [r7, #47]	@ zero_extendqisi2
 4551 1156 082B     		cmp	r3, #8
 4552 1158 EAD9     		bls	.L226
1060:.\main.c      **** 				if(venta(lado1.dir)==1){
 4553              		.loc 1 1060 0 is_stmt 1
 4554 115a 274B     		ldr	r3, .L289+12
 4555 115c 1B78     		ldrb	r3, [r3]
 4556 115e DBB2     		uxtb	r3, r3
 4557 1160 1846     		mov	r0, r3
 4558 1162 FFF7FEFF 		bl	venta
 4559 1166 0346     		mov	r3, r0
 4560 1168 012B     		cmp	r3, #1
 4561 116a 07D1     		bne	.L227
1061:.\main.c      **** 					flujo_LCD1=12;
 4562              		.loc 1 1061 0
 4563 116c 234B     		ldr	r3, .L289+16
 4564 116e 0C22     		movs	r2, #12
 4565 1170 1A70     		strb	r2, [r3]
1062:.\main.c      **** 					set_imagen(1,57);
 4566              		.loc 1 1062 0
 4567 1172 0120     		movs	r0, #1
 4568 1174 3921     		movs	r1, #57
 4569 1176 FFF7FEFF 		bl	set_imagen
1064:.\main.c      **** 			 break;
 4570              		.loc 1 1064 0
 4571 117a 34E0     		b	.L218
 4572              	.L227:
 4573 117c 33E0     		b	.L218
 4574              	.L221:
1067:.\main.c      **** 				for(x=0;x<=8;x++){
 4575              		.loc 1 1067 0
 4576 117e 0023     		movs	r3, #0
 4577 1180 87F82F30 		strb	r3, [r7, #47]
 4578 1184 10E0     		b	.L228
 4579              	.L229:
1068:.\main.c      **** 					rventa1.dinero[x]=0;
 4580              		.loc 1 1068 0 discriminator 2
 4581 1186 97F82F30 		ldrb	r3, [r7, #47]	@ zero_extendqisi2
 4582 118a 194A     		ldr	r2, .L289+4
 4583 118c 1344     		add	r3, r3, r2
 4584 118e 0022     		movs	r2, #0
 4585 1190 DA71     		strb	r2, [r3, #7]
1069:.\main.c      **** 					rventa1.volumen[x]=0;
 4586              		.loc 1 1069 0 discriminator 2
 4587 1192 97F82F30 		ldrb	r3, [r7, #47]	@ zero_extendqisi2
 4588 1196 164A     		ldr	r2, .L289+4
 4589 1198 1344     		add	r3, r3, r2
ARM GAS  C:\Users\SISTEM~1\AppData\Local\Temp\ccCGHuKi.s 			page 102


 4590 119a 0022     		movs	r2, #0
 4591 119c 1A74     		strb	r2, [r3, #16]
1067:.\main.c      **** 				for(x=0;x<=8;x++){
 4592              		.loc 1 1067 0 discriminator 2
 4593 119e 97F82F30 		ldrb	r3, [r7, #47]	@ zero_extendqisi2
 4594 11a2 0133     		adds	r3, r3, #1
 4595 11a4 87F82F30 		strb	r3, [r7, #47]
 4596              	.L228:
1067:.\main.c      **** 				for(x=0;x<=8;x++){
 4597              		.loc 1 1067 0 is_stmt 0 discriminator 1
 4598 11a8 97F82F30 		ldrb	r3, [r7, #47]	@ zero_extendqisi2
 4599 11ac 082B     		cmp	r3, #8
 4600 11ae EAD9     		bls	.L229
1071:.\main.c      **** 				for(x=0;x<=4;x++){
 4601              		.loc 1 1071 0 is_stmt 1
 4602 11b0 0023     		movs	r3, #0
 4603 11b2 87F82F30 		strb	r3, [r7, #47]
 4604 11b6 0AE0     		b	.L230
 4605              	.L231:
1072:.\main.c      **** 					rventa1.ppu[x]=0;
 4606              		.loc 1 1072 0 discriminator 2
 4607 11b8 97F82F30 		ldrb	r3, [r7, #47]	@ zero_extendqisi2
 4608 11bc 0C4A     		ldr	r2, .L289+4
 4609 11be 1344     		add	r3, r3, r2
 4610 11c0 0022     		movs	r2, #0
 4611 11c2 9A70     		strb	r2, [r3, #2]
1071:.\main.c      **** 				for(x=0;x<=4;x++){
 4612              		.loc 1 1071 0 discriminator 2
 4613 11c4 97F82F30 		ldrb	r3, [r7, #47]	@ zero_extendqisi2
 4614 11c8 0133     		adds	r3, r3, #1
 4615 11ca 87F82F30 		strb	r3, [r7, #47]
 4616              	.L230:
1071:.\main.c      **** 				for(x=0;x<=4;x++){
 4617              		.loc 1 1071 0 is_stmt 0 discriminator 1
 4618 11ce 97F82F30 		ldrb	r3, [r7, #47]	@ zero_extendqisi2
 4619 11d2 042B     		cmp	r3, #4
 4620 11d4 F0D9     		bls	.L231
1074:.\main.c      **** 				flujo_LCD1=12;
 4621              		.loc 1 1074 0 is_stmt 1
 4622 11d6 094B     		ldr	r3, .L289+16
 4623 11d8 0C22     		movs	r2, #12
 4624 11da 1A70     		strb	r2, [r3]
1075:.\main.c      **** 				set_imagen(1,57);		
 4625              		.loc 1 1075 0
 4626 11dc 0120     		movs	r0, #1
 4627 11de 3921     		movs	r1, #57
 4628 11e0 FFF7FEFF 		bl	set_imagen
1076:.\main.c      **** 			 break;				 	
 4629              		.loc 1 1076 0
 4630 11e4 00BF     		nop
 4631              	.L218:
 4632              		.loc 1 1078 0
 4633 11e6 00F059BC 		b	.L108
 4634              	.L290:
 4635 11ea 00BF     		.align	2
 4636              	.L289:
 4637 11ec 00000000 		.word	rf_mod
ARM GAS  C:\Users\SISTEM~1\AppData\Local\Temp\ccCGHuKi.s 			page 103


 4638 11f0 00000000 		.word	rventa1
 4639 11f4 00000000 		.word	PC_rxBuffer
 4640 11f8 00000000 		.word	lado1
 4641 11fc 00000000 		.word	flujo_LCD1
 4642              	.L122:
1079:.\main.c      **** 		
1080:.\main.c      **** 		case 12:
1081:.\main.c      **** 			rf_mod[0]='M';
 4643              		.loc 1 1081 0
 4644 1200 7B4B     		ldr	r3, .L291
 4645 1202 4D22     		movs	r2, #77
 4646 1204 1A70     		strb	r2, [r3]
1082:.\main.c      **** 			rf_mod[1]='U';
 4647              		.loc 1 1082 0
 4648 1206 7A4B     		ldr	r3, .L291
 4649 1208 5522     		movs	r2, #85
 4650 120a 5A70     		strb	r2, [r3, #1]
1083:.\main.c      **** 			rf_mod[2]='X';
 4651              		.loc 1 1083 0
 4652 120c 784B     		ldr	r3, .L291
 4653 120e 5822     		movs	r2, #88
 4654 1210 9A70     		strb	r2, [r3, #2]
1084:.\main.c      **** 			rf_mod[3]='1';
 4655              		.loc 1 1084 0
 4656 1212 774B     		ldr	r3, .L291
 4657 1214 3122     		movs	r2, #49
 4658 1216 DA70     		strb	r2, [r3, #3]
1085:.\main.c      **** 			rf_mod[4]=1+ 48;								//Cara
 4659              		.loc 1 1085 0
 4660 1218 754B     		ldr	r3, .L291
 4661 121a 3122     		movs	r2, #49
 4662 121c 1A71     		strb	r2, [r3, #4]
1086:.\main.c      **** 			rf_mod[5]=(lado1.grado[rventa1.producto-1][0] + 48);	//Id Producto	
 4663              		.loc 1 1086 0
 4664 121e 754B     		ldr	r3, .L291+4
 4665 1220 5B7E     		ldrb	r3, [r3, #25]	@ zero_extendqisi2
 4666 1222 013B     		subs	r3, r3, #1
 4667 1224 744A     		ldr	r2, .L291+8
 4668 1226 1344     		add	r3, r3, r2
 4669 1228 93F85930 		ldrb	r3, [r3, #89]
 4670 122c DBB2     		uxtb	r3, r3
 4671 122e 3033     		adds	r3, r3, #48
 4672 1230 DAB2     		uxtb	r2, r3
 4673 1232 6F4B     		ldr	r3, .L291
 4674 1234 5A71     		strb	r2, [r3, #5]
1087:.\main.c      **** 			rf_mod[6]=rventa1.volumen[5] + 48;						//Volumen
 4675              		.loc 1 1087 0
 4676 1236 6F4B     		ldr	r3, .L291+4
 4677 1238 5B7D     		ldrb	r3, [r3, #21]	@ zero_extendqisi2
 4678 123a 3033     		adds	r3, r3, #48
 4679 123c DAB2     		uxtb	r2, r3
 4680 123e 6C4B     		ldr	r3, .L291
 4681 1240 9A71     		strb	r2, [r3, #6]
1088:.\main.c      **** 			rf_mod[7]=rventa1.volumen[4] + 48;
 4682              		.loc 1 1088 0
 4683 1242 6C4B     		ldr	r3, .L291+4
 4684 1244 1B7D     		ldrb	r3, [r3, #20]	@ zero_extendqisi2
ARM GAS  C:\Users\SISTEM~1\AppData\Local\Temp\ccCGHuKi.s 			page 104


 4685 1246 3033     		adds	r3, r3, #48
 4686 1248 DAB2     		uxtb	r2, r3
 4687 124a 694B     		ldr	r3, .L291
 4688 124c DA71     		strb	r2, [r3, #7]
1089:.\main.c      **** 			rf_mod[8]=rventa1.volumen[3] + 48;
 4689              		.loc 1 1089 0
 4690 124e 694B     		ldr	r3, .L291+4
 4691 1250 DB7C     		ldrb	r3, [r3, #19]	@ zero_extendqisi2
 4692 1252 3033     		adds	r3, r3, #48
 4693 1254 DAB2     		uxtb	r2, r3
 4694 1256 664B     		ldr	r3, .L291
 4695 1258 1A72     		strb	r2, [r3, #8]
1090:.\main.c      **** 			rf_mod[9]=',';
 4696              		.loc 1 1090 0
 4697 125a 654B     		ldr	r3, .L291
 4698 125c 2C22     		movs	r2, #44
 4699 125e 5A72     		strb	r2, [r3, #9]
1091:.\main.c      **** 			rf_mod[10]=rventa1.volumen[2] + 48;
 4700              		.loc 1 1091 0
 4701 1260 644B     		ldr	r3, .L291+4
 4702 1262 9B7C     		ldrb	r3, [r3, #18]	@ zero_extendqisi2
 4703 1264 3033     		adds	r3, r3, #48
 4704 1266 DAB2     		uxtb	r2, r3
 4705 1268 614B     		ldr	r3, .L291
 4706 126a 9A72     		strb	r2, [r3, #10]
1092:.\main.c      **** 			rf_mod[11]=rventa1.volumen[1] + 48;
 4707              		.loc 1 1092 0
 4708 126c 614B     		ldr	r3, .L291+4
 4709 126e 5B7C     		ldrb	r3, [r3, #17]	@ zero_extendqisi2
 4710 1270 3033     		adds	r3, r3, #48
 4711 1272 DAB2     		uxtb	r2, r3
 4712 1274 5E4B     		ldr	r3, .L291
 4713 1276 DA72     		strb	r2, [r3, #11]
1093:.\main.c      **** 			rf_mod[12]=rventa1.volumen[0] + 48;
 4714              		.loc 1 1093 0
 4715 1278 5E4B     		ldr	r3, .L291+4
 4716 127a 1B7C     		ldrb	r3, [r3, #16]	@ zero_extendqisi2
 4717 127c 3033     		adds	r3, r3, #48
 4718 127e DAB2     		uxtb	r2, r3
 4719 1280 5B4B     		ldr	r3, .L291
 4720 1282 1A73     		strb	r2, [r3, #12]
1094:.\main.c      **** 			if(version[1]==7){
 4721              		.loc 1 1094 0
 4722 1284 5D4B     		ldr	r3, .L291+12
 4723 1286 5B78     		ldrb	r3, [r3, #1]
 4724 1288 DBB2     		uxtb	r3, r3
 4725 128a 072B     		cmp	r3, #7
 4726 128c 2AD1     		bne	.L232
1095:.\main.c      **** 				rf_mod[13]=rventa1.dinero[7] + 48;	//Dinero 7 digitos
 4727              		.loc 1 1095 0
 4728 128e 594B     		ldr	r3, .L291+4
 4729 1290 9B7B     		ldrb	r3, [r3, #14]	@ zero_extendqisi2
 4730 1292 3033     		adds	r3, r3, #48
 4731 1294 DAB2     		uxtb	r2, r3
 4732 1296 564B     		ldr	r3, .L291
 4733 1298 5A73     		strb	r2, [r3, #13]
1096:.\main.c      **** 				rf_mod[14]=rventa1.dinero[6] + 48;
ARM GAS  C:\Users\SISTEM~1\AppData\Local\Temp\ccCGHuKi.s 			page 105


 4734              		.loc 1 1096 0
 4735 129a 564B     		ldr	r3, .L291+4
 4736 129c 5B7B     		ldrb	r3, [r3, #13]	@ zero_extendqisi2
 4737 129e 3033     		adds	r3, r3, #48
 4738 12a0 DAB2     		uxtb	r2, r3
 4739 12a2 534B     		ldr	r3, .L291
 4740 12a4 9A73     		strb	r2, [r3, #14]
1097:.\main.c      **** 				rf_mod[15]=rventa1.dinero[5] + 48;
 4741              		.loc 1 1097 0
 4742 12a6 534B     		ldr	r3, .L291+4
 4743 12a8 1B7B     		ldrb	r3, [r3, #12]	@ zero_extendqisi2
 4744 12aa 3033     		adds	r3, r3, #48
 4745 12ac DAB2     		uxtb	r2, r3
 4746 12ae 504B     		ldr	r3, .L291
 4747 12b0 DA73     		strb	r2, [r3, #15]
1098:.\main.c      **** 				rf_mod[16]=rventa1.dinero[4] + 48;
 4748              		.loc 1 1098 0
 4749 12b2 504B     		ldr	r3, .L291+4
 4750 12b4 DB7A     		ldrb	r3, [r3, #11]	@ zero_extendqisi2
 4751 12b6 3033     		adds	r3, r3, #48
 4752 12b8 DAB2     		uxtb	r2, r3
 4753 12ba 4D4B     		ldr	r3, .L291
 4754 12bc 1A74     		strb	r2, [r3, #16]
1099:.\main.c      **** 				rf_mod[17]=rventa1.dinero[3] + 48;
 4755              		.loc 1 1099 0
 4756 12be 4D4B     		ldr	r3, .L291+4
 4757 12c0 9B7A     		ldrb	r3, [r3, #10]	@ zero_extendqisi2
 4758 12c2 3033     		adds	r3, r3, #48
 4759 12c4 DAB2     		uxtb	r2, r3
 4760 12c6 4A4B     		ldr	r3, .L291
 4761 12c8 5A74     		strb	r2, [r3, #17]
1100:.\main.c      **** 				rf_mod[18]=rventa1.dinero[2] + 48;
 4762              		.loc 1 1100 0
 4763 12ca 4A4B     		ldr	r3, .L291+4
 4764 12cc 5B7A     		ldrb	r3, [r3, #9]	@ zero_extendqisi2
 4765 12ce 3033     		adds	r3, r3, #48
 4766 12d0 DAB2     		uxtb	r2, r3
 4767 12d2 474B     		ldr	r3, .L291
 4768 12d4 9A74     		strb	r2, [r3, #18]
1101:.\main.c      **** 				rf_mod[19]=rventa1.dinero[1] + 48;					
 4769              		.loc 1 1101 0
 4770 12d6 474B     		ldr	r3, .L291+4
 4771 12d8 1B7A     		ldrb	r3, [r3, #8]	@ zero_extendqisi2
 4772 12da 3033     		adds	r3, r3, #48
 4773 12dc DAB2     		uxtb	r2, r3
 4774 12de 444B     		ldr	r3, .L291
 4775 12e0 DA74     		strb	r2, [r3, #19]
 4776 12e2 29E0     		b	.L233
 4777              	.L232:
1102:.\main.c      **** 			}
1103:.\main.c      **** 			else{
1104:.\main.c      **** 				rf_mod[13]=rventa1.dinero[6] + 48;	//Dinero 6 digitos 
 4778              		.loc 1 1104 0
 4779 12e4 434B     		ldr	r3, .L291+4
 4780 12e6 5B7B     		ldrb	r3, [r3, #13]	@ zero_extendqisi2
 4781 12e8 3033     		adds	r3, r3, #48
 4782 12ea DAB2     		uxtb	r2, r3
ARM GAS  C:\Users\SISTEM~1\AppData\Local\Temp\ccCGHuKi.s 			page 106


 4783 12ec 404B     		ldr	r3, .L291
 4784 12ee 5A73     		strb	r2, [r3, #13]
1105:.\main.c      **** 				rf_mod[14]=rventa1.dinero[5] + 48;
 4785              		.loc 1 1105 0
 4786 12f0 404B     		ldr	r3, .L291+4
 4787 12f2 1B7B     		ldrb	r3, [r3, #12]	@ zero_extendqisi2
 4788 12f4 3033     		adds	r3, r3, #48
 4789 12f6 DAB2     		uxtb	r2, r3
 4790 12f8 3D4B     		ldr	r3, .L291
 4791 12fa 9A73     		strb	r2, [r3, #14]
1106:.\main.c      **** 				rf_mod[15]=rventa1.dinero[4] + 48;
 4792              		.loc 1 1106 0
 4793 12fc 3D4B     		ldr	r3, .L291+4
 4794 12fe DB7A     		ldrb	r3, [r3, #11]	@ zero_extendqisi2
 4795 1300 3033     		adds	r3, r3, #48
 4796 1302 DAB2     		uxtb	r2, r3
 4797 1304 3A4B     		ldr	r3, .L291
 4798 1306 DA73     		strb	r2, [r3, #15]
1107:.\main.c      **** 				rf_mod[16]=rventa1.dinero[3] + 48;
 4799              		.loc 1 1107 0
 4800 1308 3A4B     		ldr	r3, .L291+4
 4801 130a 9B7A     		ldrb	r3, [r3, #10]	@ zero_extendqisi2
 4802 130c 3033     		adds	r3, r3, #48
 4803 130e DAB2     		uxtb	r2, r3
 4804 1310 374B     		ldr	r3, .L291
 4805 1312 1A74     		strb	r2, [r3, #16]
1108:.\main.c      **** 				rf_mod[17]=rventa1.dinero[2] + 48;
 4806              		.loc 1 1108 0
 4807 1314 374B     		ldr	r3, .L291+4
 4808 1316 5B7A     		ldrb	r3, [r3, #9]	@ zero_extendqisi2
 4809 1318 3033     		adds	r3, r3, #48
 4810 131a DAB2     		uxtb	r2, r3
 4811 131c 344B     		ldr	r3, .L291
 4812 131e 5A74     		strb	r2, [r3, #17]
1109:.\main.c      **** 				rf_mod[18]=rventa1.dinero[1] + 48;					
 4813              		.loc 1 1109 0
 4814 1320 344B     		ldr	r3, .L291+4
 4815 1322 1B7A     		ldrb	r3, [r3, #8]	@ zero_extendqisi2
 4816 1324 3033     		adds	r3, r3, #48
 4817 1326 DAB2     		uxtb	r2, r3
 4818 1328 314B     		ldr	r3, .L291
 4819 132a 9A74     		strb	r2, [r3, #18]
1110:.\main.c      **** 				rf_mod[19]=rventa1.dinero[0] + 48;
 4820              		.loc 1 1110 0
 4821 132c 314B     		ldr	r3, .L291+4
 4822 132e DB79     		ldrb	r3, [r3, #7]	@ zero_extendqisi2
 4823 1330 3033     		adds	r3, r3, #48
 4824 1332 DAB2     		uxtb	r2, r3
 4825 1334 2E4B     		ldr	r3, .L291
 4826 1336 DA74     		strb	r2, [r3, #19]
 4827              	.L233:
1111:.\main.c      **** 			}
1112:.\main.c      ****             if(ppux10==0){
 4828              		.loc 1 1112 0
 4829 1338 314B     		ldr	r3, .L291+16
 4830 133a 1B78     		ldrb	r3, [r3]
 4831 133c DBB2     		uxtb	r3, r3
ARM GAS  C:\Users\SISTEM~1\AppData\Local\Temp\ccCGHuKi.s 			page 107


 4832 133e 002B     		cmp	r3, #0
 4833 1340 1DD1     		bne	.L234
1113:.\main.c      ****     			rf_mod[20]=rventa1.ppu[4] + 48;			//PPU
 4834              		.loc 1 1113 0
 4835 1342 2C4B     		ldr	r3, .L291+4
 4836 1344 9B79     		ldrb	r3, [r3, #6]	@ zero_extendqisi2
 4837 1346 3033     		adds	r3, r3, #48
 4838 1348 DAB2     		uxtb	r2, r3
 4839 134a 294B     		ldr	r3, .L291
 4840 134c 1A75     		strb	r2, [r3, #20]
1114:.\main.c      ****     			rf_mod[21]=rventa1.ppu[3] + 48;
 4841              		.loc 1 1114 0
 4842 134e 294B     		ldr	r3, .L291+4
 4843 1350 5B79     		ldrb	r3, [r3, #5]	@ zero_extendqisi2
 4844 1352 3033     		adds	r3, r3, #48
 4845 1354 DAB2     		uxtb	r2, r3
 4846 1356 264B     		ldr	r3, .L291
 4847 1358 5A75     		strb	r2, [r3, #21]
1115:.\main.c      ****     			rf_mod[22]=rventa1.ppu[2] + 48;
 4848              		.loc 1 1115 0
 4849 135a 264B     		ldr	r3, .L291+4
 4850 135c 1B79     		ldrb	r3, [r3, #4]	@ zero_extendqisi2
 4851 135e 3033     		adds	r3, r3, #48
 4852 1360 DAB2     		uxtb	r2, r3
 4853 1362 234B     		ldr	r3, .L291
 4854 1364 9A75     		strb	r2, [r3, #22]
1116:.\main.c      ****     			rf_mod[23]=rventa1.ppu[1] + 48;
 4855              		.loc 1 1116 0
 4856 1366 234B     		ldr	r3, .L291+4
 4857 1368 DB78     		ldrb	r3, [r3, #3]	@ zero_extendqisi2
 4858 136a 3033     		adds	r3, r3, #48
 4859 136c DAB2     		uxtb	r2, r3
 4860 136e 204B     		ldr	r3, .L291
 4861 1370 DA75     		strb	r2, [r3, #23]
1117:.\main.c      ****     			rf_mod[24]=rventa1.ppu[0] + 48;
 4862              		.loc 1 1117 0
 4863 1372 204B     		ldr	r3, .L291+4
 4864 1374 9B78     		ldrb	r3, [r3, #2]	@ zero_extendqisi2
 4865 1376 3033     		adds	r3, r3, #48
 4866 1378 DAB2     		uxtb	r2, r3
 4867 137a 1D4B     		ldr	r3, .L291
 4868 137c 1A76     		strb	r2, [r3, #24]
 4869              	.L234:
1118:.\main.c      ****             }
1119:.\main.c      ****             if(ppux10==1){
 4870              		.loc 1 1119 0
 4871 137e 204B     		ldr	r3, .L291+16
 4872 1380 1B78     		ldrb	r3, [r3]
 4873 1382 DBB2     		uxtb	r3, r3
 4874 1384 012B     		cmp	r3, #1
 4875 1386 1AD1     		bne	.L235
1120:.\main.c      ****     			rf_mod[20]=rventa1.ppu[3] + 48;			//PPU x10
 4876              		.loc 1 1120 0
 4877 1388 1A4B     		ldr	r3, .L291+4
 4878 138a 5B79     		ldrb	r3, [r3, #5]	@ zero_extendqisi2
 4879 138c 3033     		adds	r3, r3, #48
 4880 138e DAB2     		uxtb	r2, r3
ARM GAS  C:\Users\SISTEM~1\AppData\Local\Temp\ccCGHuKi.s 			page 108


 4881 1390 174B     		ldr	r3, .L291
 4882 1392 1A75     		strb	r2, [r3, #20]
1121:.\main.c      ****     			rf_mod[21]=rventa1.ppu[2] + 48;
 4883              		.loc 1 1121 0
 4884 1394 174B     		ldr	r3, .L291+4
 4885 1396 1B79     		ldrb	r3, [r3, #4]	@ zero_extendqisi2
 4886 1398 3033     		adds	r3, r3, #48
 4887 139a DAB2     		uxtb	r2, r3
 4888 139c 144B     		ldr	r3, .L291
 4889 139e 5A75     		strb	r2, [r3, #21]
1122:.\main.c      ****     			rf_mod[22]=rventa1.ppu[1] + 48;
 4890              		.loc 1 1122 0
 4891 13a0 144B     		ldr	r3, .L291+4
 4892 13a2 DB78     		ldrb	r3, [r3, #3]	@ zero_extendqisi2
 4893 13a4 3033     		adds	r3, r3, #48
 4894 13a6 DAB2     		uxtb	r2, r3
 4895 13a8 114B     		ldr	r3, .L291
 4896 13aa 9A75     		strb	r2, [r3, #22]
1123:.\main.c      ****     			rf_mod[23]=rventa1.ppu[0] + 48;
 4897              		.loc 1 1123 0
 4898 13ac 114B     		ldr	r3, .L291+4
 4899 13ae 9B78     		ldrb	r3, [r3, #2]	@ zero_extendqisi2
 4900 13b0 3033     		adds	r3, r3, #48
 4901 13b2 DAB2     		uxtb	r2, r3
 4902 13b4 0E4B     		ldr	r3, .L291
 4903 13b6 DA75     		strb	r2, [r3, #23]
1124:.\main.c      ****     			rf_mod[24]=48;
 4904              		.loc 1 1124 0
 4905 13b8 0D4B     		ldr	r3, .L291
 4906 13ba 3022     		movs	r2, #48
 4907 13bc 1A76     		strb	r2, [r3, #24]
 4908              	.L235:
1125:.\main.c      ****             }
1126:.\main.c      **** 			rf_mod[25]=id_estacion[4];				//Id Estacion	
 4909              		.loc 1 1126 0
 4910 13be 114B     		ldr	r3, .L291+20
 4911 13c0 1B79     		ldrb	r3, [r3, #4]
 4912 13c2 DAB2     		uxtb	r2, r3
 4913 13c4 0A4B     		ldr	r3, .L291
 4914 13c6 5A76     		strb	r2, [r3, #25]
1127:.\main.c      **** 			rf_mod[26]=id_estacion[3];
 4915              		.loc 1 1127 0
 4916 13c8 0E4B     		ldr	r3, .L291+20
 4917 13ca DB78     		ldrb	r3, [r3, #3]
 4918 13cc DAB2     		uxtb	r2, r3
 4919 13ce 084B     		ldr	r3, .L291
 4920 13d0 9A76     		strb	r2, [r3, #26]
1128:.\main.c      **** 			rf_mod[27]=id_estacion[2];
 4921              		.loc 1 1128 0
 4922 13d2 0C4B     		ldr	r3, .L291+20
 4923 13d4 9B78     		ldrb	r3, [r3, #2]
 4924 13d6 DAB2     		uxtb	r2, r3
 4925 13d8 054B     		ldr	r3, .L291
 4926 13da DA76     		strb	r2, [r3, #27]
1129:.\main.c      **** 			rf_mod[28]=id_estacion[1];
 4927              		.loc 1 1129 0
 4928 13dc 094B     		ldr	r3, .L291+20
ARM GAS  C:\Users\SISTEM~1\AppData\Local\Temp\ccCGHuKi.s 			page 109


 4929 13de 5B78     		ldrb	r3, [r3, #1]
 4930 13e0 DAB2     		uxtb	r2, r3
 4931 13e2 034B     		ldr	r3, .L291
 4932 13e4 1A77     		strb	r2, [r3, #28]
1130:.\main.c      **** 			for(x=0;x<=15;x++){						//Serial				
 4933              		.loc 1 1130 0
 4934 13e6 0023     		movs	r3, #0
 4935 13e8 87F82F30 		strb	r3, [r7, #47]
 4936 13ec 45E0     		b	.L236
 4937              	.L292:
 4938 13ee 00BF     		.align	2
 4939              	.L291:
 4940 13f0 00000000 		.word	rf_mod
 4941 13f4 00000000 		.word	rventa1
 4942 13f8 00000000 		.word	lado1
 4943 13fc 00000000 		.word	version
 4944 1400 00000000 		.word	ppux10
 4945 1404 00000000 		.word	id_estacion
 4946              	.L239:
1131:.\main.c      **** 				y=(rventa1.id[x/2]>>4)&0x0F;
 4947              		.loc 1 1131 0
 4948 1408 97F82F30 		ldrb	r3, [r7, #47]	@ zero_extendqisi2
 4949 140c 5B08     		lsrs	r3, r3, #1
 4950 140e DBB2     		uxtb	r3, r3
 4951 1410 B64A     		ldr	r2, .L293
 4952 1412 1344     		add	r3, r3, r2
 4953 1414 93F82330 		ldrb	r3, [r3, #35]	@ zero_extendqisi2
 4954 1418 1B09     		lsrs	r3, r3, #4
 4955 141a 87F82E30 		strb	r3, [r7, #46]
1132:.\main.c      **** 				if((x%2)==0){
 4956              		.loc 1 1132 0
 4957 141e 97F82F30 		ldrb	r3, [r7, #47]
 4958 1422 03F00103 		and	r3, r3, #1
 4959 1426 DBB2     		uxtb	r3, r3
 4960 1428 002B     		cmp	r3, #0
 4961 142a 0BD1     		bne	.L237
1133:.\main.c      **** 					y=rventa1.id[x/2]&0x0F;
 4962              		.loc 1 1133 0
 4963 142c 97F82F30 		ldrb	r3, [r7, #47]	@ zero_extendqisi2
 4964 1430 5B08     		lsrs	r3, r3, #1
 4965 1432 DBB2     		uxtb	r3, r3
 4966 1434 AD4A     		ldr	r2, .L293
 4967 1436 1344     		add	r3, r3, r2
 4968 1438 93F82330 		ldrb	r3, [r3, #35]	@ zero_extendqisi2
 4969 143c 03F00F03 		and	r3, r3, #15
 4970 1440 87F82E30 		strb	r3, [r7, #46]
 4971              	.L237:
1134:.\main.c      **** 				}
1135:.\main.c      **** 				rf_mod[x+29] = y+48;
 4972              		.loc 1 1135 0
 4973 1444 97F82F30 		ldrb	r3, [r7, #47]	@ zero_extendqisi2
 4974 1448 1D33     		adds	r3, r3, #29
 4975 144a 97F82E20 		ldrb	r2, [r7, #46]
 4976 144e 3032     		adds	r2, r2, #48
 4977 1450 D1B2     		uxtb	r1, r2
 4978 1452 A74A     		ldr	r2, .L293+4
 4979 1454 D154     		strb	r1, [r2, r3]
ARM GAS  C:\Users\SISTEM~1\AppData\Local\Temp\ccCGHuKi.s 			page 110


1136:.\main.c      **** 				if(y>9){
 4980              		.loc 1 1136 0
 4981 1456 97F82E30 		ldrb	r3, [r7, #46]	@ zero_extendqisi2
 4982 145a 092B     		cmp	r3, #9
 4983 145c 08D9     		bls	.L238
1137:.\main.c      **** 					rf_mod[x+29] = y+55;
 4984              		.loc 1 1137 0
 4985 145e 97F82F30 		ldrb	r3, [r7, #47]	@ zero_extendqisi2
 4986 1462 1D33     		adds	r3, r3, #29
 4987 1464 97F82E20 		ldrb	r2, [r7, #46]
 4988 1468 3732     		adds	r2, r2, #55
 4989 146a D1B2     		uxtb	r1, r2
 4990 146c A04A     		ldr	r2, .L293+4
 4991 146e D154     		strb	r1, [r2, r3]
 4992              	.L238:
1130:.\main.c      **** 			for(x=0;x<=15;x++){						//Serial				
 4993              		.loc 1 1130 0
 4994 1470 97F82F30 		ldrb	r3, [r7, #47]	@ zero_extendqisi2
 4995 1474 0133     		adds	r3, r3, #1
 4996 1476 87F82F30 		strb	r3, [r7, #47]
 4997              	.L236:
1130:.\main.c      **** 			for(x=0;x<=15;x++){						//Serial				
 4998              		.loc 1 1130 0 is_stmt 0 discriminator 1
 4999 147a 97F82F30 		ldrb	r3, [r7, #47]	@ zero_extendqisi2
 5000 147e 0F2B     		cmp	r3, #15
 5001 1480 C2D9     		bls	.L239
1138:.\main.c      **** 				}
1139:.\main.c      **** 			}
1140:.\main.c      **** 			num_decimal2++;
 5002              		.loc 1 1140 0 is_stmt 1
 5003 1482 9C4B     		ldr	r3, .L293+8
 5004 1484 1B88     		ldrh	r3, [r3]
 5005 1486 0133     		adds	r3, r3, #1
 5006 1488 9AB2     		uxth	r2, r3
 5007 148a 9A4B     		ldr	r3, .L293+8
 5008 148c 1A80     		strh	r2, [r3]	@ movhi
1141:.\main.c      **** 			id_venta[4]=(num_decimal2/1000)+48;
 5009              		.loc 1 1141 0
 5010 148e 994B     		ldr	r3, .L293+8
 5011 1490 1A88     		ldrh	r2, [r3]
 5012 1492 994B     		ldr	r3, .L293+12
 5013 1494 A3FB0213 		umull	r1, r3, r3, r2
 5014 1498 9B09     		lsrs	r3, r3, #6
 5015 149a 9BB2     		uxth	r3, r3
 5016 149c DBB2     		uxtb	r3, r3
 5017 149e 3033     		adds	r3, r3, #48
 5018 14a0 DAB2     		uxtb	r2, r3
 5019 14a2 964B     		ldr	r3, .L293+16
 5020 14a4 1A71     		strb	r2, [r3, #4]
1142:.\main.c      **** 			id_venta[3]=((num_decimal2%1000)/100)+48;
 5021              		.loc 1 1142 0
 5022 14a6 934B     		ldr	r3, .L293+8
 5023 14a8 1B88     		ldrh	r3, [r3]
 5024 14aa 934A     		ldr	r2, .L293+12
 5025 14ac A2FB0312 		umull	r1, r2, r2, r3
 5026 14b0 9209     		lsrs	r2, r2, #6
 5027 14b2 4FF47A71 		mov	r1, #1000
ARM GAS  C:\Users\SISTEM~1\AppData\Local\Temp\ccCGHuKi.s 			page 111


 5028 14b6 01FB02F2 		mul	r2, r1, r2
 5029 14ba 9B1A     		subs	r3, r3, r2
 5030 14bc 9AB2     		uxth	r2, r3
 5031 14be 904B     		ldr	r3, .L293+20
 5032 14c0 A3FB0213 		umull	r1, r3, r3, r2
 5033 14c4 5B09     		lsrs	r3, r3, #5
 5034 14c6 9BB2     		uxth	r3, r3
 5035 14c8 DBB2     		uxtb	r3, r3
 5036 14ca 3033     		adds	r3, r3, #48
 5037 14cc DAB2     		uxtb	r2, r3
 5038 14ce 8B4B     		ldr	r3, .L293+16
 5039 14d0 DA70     		strb	r2, [r3, #3]
1143:.\main.c      **** 			id_venta[2]=(((num_decimal2%1000)%100)/10)+48;
 5040              		.loc 1 1143 0
 5041 14d2 884B     		ldr	r3, .L293+8
 5042 14d4 1B88     		ldrh	r3, [r3]
 5043 14d6 884A     		ldr	r2, .L293+12
 5044 14d8 A2FB0312 		umull	r1, r2, r2, r3
 5045 14dc 9209     		lsrs	r2, r2, #6
 5046 14de 4FF47A71 		mov	r1, #1000
 5047 14e2 01FB02F2 		mul	r2, r1, r2
 5048 14e6 9B1A     		subs	r3, r3, r2
 5049 14e8 9BB2     		uxth	r3, r3
 5050 14ea 854A     		ldr	r2, .L293+20
 5051 14ec A2FB0312 		umull	r1, r2, r2, r3
 5052 14f0 5209     		lsrs	r2, r2, #5
 5053 14f2 6421     		movs	r1, #100
 5054 14f4 01FB02F2 		mul	r2, r1, r2
 5055 14f8 9B1A     		subs	r3, r3, r2
 5056 14fa 9AB2     		uxth	r2, r3
 5057 14fc 814B     		ldr	r3, .L293+24
 5058 14fe A3FB0213 		umull	r1, r3, r3, r2
 5059 1502 DB08     		lsrs	r3, r3, #3
 5060 1504 9BB2     		uxth	r3, r3
 5061 1506 DBB2     		uxtb	r3, r3
 5062 1508 3033     		adds	r3, r3, #48
 5063 150a DAB2     		uxtb	r2, r3
 5064 150c 7B4B     		ldr	r3, .L293+16
 5065 150e 9A70     		strb	r2, [r3, #2]
1144:.\main.c      **** 			id_venta[1]=(((num_decimal2%1000)%100)%10)+48;
 5066              		.loc 1 1144 0
 5067 1510 784B     		ldr	r3, .L293+8
 5068 1512 1B88     		ldrh	r3, [r3]
 5069 1514 784A     		ldr	r2, .L293+12
 5070 1516 A2FB0312 		umull	r1, r2, r2, r3
 5071 151a 9209     		lsrs	r2, r2, #6
 5072 151c 4FF47A71 		mov	r1, #1000
 5073 1520 01FB02F2 		mul	r2, r1, r2
 5074 1524 9B1A     		subs	r3, r3, r2
 5075 1526 9BB2     		uxth	r3, r3
 5076 1528 754A     		ldr	r2, .L293+20
 5077 152a A2FB0312 		umull	r1, r2, r2, r3
 5078 152e 5209     		lsrs	r2, r2, #5
 5079 1530 6421     		movs	r1, #100
 5080 1532 01FB02F2 		mul	r2, r1, r2
 5081 1536 9B1A     		subs	r3, r3, r2
 5082 1538 9AB2     		uxth	r2, r3
ARM GAS  C:\Users\SISTEM~1\AppData\Local\Temp\ccCGHuKi.s 			page 112


 5083 153a 724B     		ldr	r3, .L293+24
 5084 153c A3FB0213 		umull	r1, r3, r3, r2
 5085 1540 D908     		lsrs	r1, r3, #3
 5086 1542 0B46     		mov	r3, r1
 5087 1544 9B00     		lsls	r3, r3, #2
 5088 1546 0B44     		add	r3, r3, r1
 5089 1548 5B00     		lsls	r3, r3, #1
 5090 154a D31A     		subs	r3, r2, r3
 5091 154c 9BB2     		uxth	r3, r3
 5092 154e DBB2     		uxtb	r3, r3
 5093 1550 3033     		adds	r3, r3, #48
 5094 1552 DAB2     		uxtb	r2, r3
 5095 1554 694B     		ldr	r3, .L293+16
 5096 1556 5A70     		strb	r2, [r3, #1]
1145:.\main.c      **** 			for(x=1;x<=7;x++){						//Id de Venta
 5097              		.loc 1 1145 0
 5098 1558 0123     		movs	r3, #1
 5099 155a 87F82F30 		strb	r3, [r7, #47]
 5100 155e 0EE0     		b	.L240
 5101              	.L241:
1146:.\main.c      **** 				rf_mod[44+x]=id_venta[x];
 5102              		.loc 1 1146 0 discriminator 2
 5103 1560 97F82F30 		ldrb	r3, [r7, #47]	@ zero_extendqisi2
 5104 1564 2C33     		adds	r3, r3, #44
 5105 1566 97F82F20 		ldrb	r2, [r7, #47]	@ zero_extendqisi2
 5106 156a 6449     		ldr	r1, .L293+16
 5107 156c 8A5C     		ldrb	r2, [r1, r2]
 5108 156e D1B2     		uxtb	r1, r2
 5109 1570 5F4A     		ldr	r2, .L293+4
 5110 1572 D154     		strb	r1, [r2, r3]
1145:.\main.c      **** 			for(x=1;x<=7;x++){						//Id de Venta
 5111              		.loc 1 1145 0 discriminator 2
 5112 1574 97F82F30 		ldrb	r3, [r7, #47]	@ zero_extendqisi2
 5113 1578 0133     		adds	r3, r3, #1
 5114 157a 87F82F30 		strb	r3, [r7, #47]
 5115              	.L240:
1145:.\main.c      **** 			for(x=1;x<=7;x++){						//Id de Venta
 5116              		.loc 1 1145 0 is_stmt 0 discriminator 1
 5117 157e 97F82F30 		ldrb	r3, [r7, #47]	@ zero_extendqisi2
 5118 1582 072B     		cmp	r3, #7
 5119 1584 ECD9     		bls	.L241
1147:.\main.c      **** 			}
1148:.\main.c      **** 			for(x=1;x<=4;x++){						//Guarda Id venta
 5120              		.loc 1 1148 0 is_stmt 1
 5121 1586 0123     		movs	r3, #1
 5122 1588 87F82F30 		strb	r3, [r7, #47]
 5123 158c 10E0     		b	.L242
 5124              	.L243:
1149:.\main.c      **** 				EEPROM_WriteByte(id_venta[x],x);
 5125              		.loc 1 1149 0 discriminator 2
 5126 158e 97F82F30 		ldrb	r3, [r7, #47]	@ zero_extendqisi2
 5127 1592 5A4A     		ldr	r2, .L293+16
 5128 1594 D35C     		ldrb	r3, [r2, r3]
 5129 1596 DAB2     		uxtb	r2, r3
 5130 1598 97F82F30 		ldrb	r3, [r7, #47]	@ zero_extendqisi2
 5131 159c 9BB2     		uxth	r3, r3
 5132 159e 1046     		mov	r0, r2
ARM GAS  C:\Users\SISTEM~1\AppData\Local\Temp\ccCGHuKi.s 			page 113


 5133 15a0 1946     		mov	r1, r3
 5134 15a2 FFF7FEFF 		bl	EEPROM_WriteByte
1148:.\main.c      **** 			for(x=1;x<=4;x++){						//Guarda Id venta
 5135              		.loc 1 1148 0 discriminator 2
 5136 15a6 97F82F30 		ldrb	r3, [r7, #47]	@ zero_extendqisi2
 5137 15aa 0133     		adds	r3, r3, #1
 5138 15ac 87F82F30 		strb	r3, [r7, #47]
 5139              	.L242:
1148:.\main.c      **** 			for(x=1;x<=4;x++){						//Guarda Id venta
 5140              		.loc 1 1148 0 is_stmt 0 discriminator 1
 5141 15b0 97F82F30 		ldrb	r3, [r7, #47]	@ zero_extendqisi2
 5142 15b4 042B     		cmp	r3, #4
 5143 15b6 EAD9     		bls	.L243
1150:.\main.c      **** 			}
1151:.\main.c      **** 			for(x=0;x<=6;x++){						//Km
 5144              		.loc 1 1151 0 is_stmt 1
 5145 15b8 0023     		movs	r3, #0
 5146 15ba 87F82F30 		strb	r3, [r7, #47]
 5147 15be 12E0     		b	.L244
 5148              	.L245:
1152:.\main.c      **** 				rf_mod[52+x]=rventa1.km[x+1] + 48;
 5149              		.loc 1 1152 0 discriminator 2
 5150 15c0 97F82F30 		ldrb	r3, [r7, #47]	@ zero_extendqisi2
 5151 15c4 3433     		adds	r3, r3, #52
 5152 15c6 97F82F20 		ldrb	r2, [r7, #47]	@ zero_extendqisi2
 5153 15ca 0132     		adds	r2, r2, #1
 5154 15cc 4749     		ldr	r1, .L293
 5155 15ce 0A44     		add	r2, r2, r1
 5156 15d0 92F83320 		ldrb	r2, [r2, #51]	@ zero_extendqisi2
 5157 15d4 3032     		adds	r2, r2, #48
 5158 15d6 D1B2     		uxtb	r1, r2
 5159 15d8 454A     		ldr	r2, .L293+4
 5160 15da D154     		strb	r1, [r2, r3]
1151:.\main.c      **** 			for(x=0;x<=6;x++){						//Km
 5161              		.loc 1 1151 0 discriminator 2
 5162 15dc 97F82F30 		ldrb	r3, [r7, #47]	@ zero_extendqisi2
 5163 15e0 0133     		adds	r3, r3, #1
 5164 15e2 87F82F30 		strb	r3, [r7, #47]
 5165              	.L244:
1151:.\main.c      **** 			for(x=0;x<=6;x++){						//Km
 5166              		.loc 1 1151 0 is_stmt 0 discriminator 1
 5167 15e6 97F82F30 		ldrb	r3, [r7, #47]	@ zero_extendqisi2
 5168 15ea 062B     		cmp	r3, #6
 5169 15ec E8D9     		bls	.L245
1153:.\main.c      **** 			}				
1154:.\main.c      **** 			rf_mod[59]='*';
 5170              		.loc 1 1154 0 is_stmt 1
 5171 15ee 404B     		ldr	r3, .L293+4
 5172 15f0 2A22     		movs	r2, #42
 5173 15f2 83F83B20 		strb	r2, [r3, #59]
1155:.\main.c      **** 			PC_ClearRxBuffer();				
 5174              		.loc 1 1155 0
 5175 15f6 FFF7FEFF 		bl	PC_ClearRxBuffer
1156:.\main.c      **** 		    for(x=0;x<=59;x++){
 5176              		.loc 1 1156 0
 5177 15fa 0023     		movs	r3, #0
 5178 15fc 87F82F30 		strb	r3, [r7, #47]
ARM GAS  C:\Users\SISTEM~1\AppData\Local\Temp\ccCGHuKi.s 			page 114


 5179 1600 0BE0     		b	.L246
 5180              	.L247:
1157:.\main.c      **** 			   PC_PutChar(rf_mod[x]);
 5181              		.loc 1 1157 0 discriminator 2
 5182 1602 97F82F30 		ldrb	r3, [r7, #47]	@ zero_extendqisi2
 5183 1606 3A4A     		ldr	r2, .L293+4
 5184 1608 D35C     		ldrb	r3, [r2, r3]	@ zero_extendqisi2
 5185 160a 1846     		mov	r0, r3
 5186 160c FFF7FEFF 		bl	PC_PutChar
1156:.\main.c      **** 		    for(x=0;x<=59;x++){
 5187              		.loc 1 1156 0 discriminator 2
 5188 1610 97F82F30 		ldrb	r3, [r7, #47]	@ zero_extendqisi2
 5189 1614 0133     		adds	r3, r3, #1
 5190 1616 87F82F30 		strb	r3, [r7, #47]
 5191              	.L246:
1156:.\main.c      **** 		    for(x=0;x<=59;x++){
 5192              		.loc 1 1156 0 is_stmt 0 discriminator 1
 5193 161a 97F82F30 		ldrb	r3, [r7, #47]	@ zero_extendqisi2
 5194 161e 3B2B     		cmp	r3, #59
 5195 1620 EFD9     		bls	.L247
1158:.\main.c      **** 		    }				
1159:.\main.c      **** 			CyDelay(250);
 5196              		.loc 1 1159 0 is_stmt 1
 5197 1622 FA20     		movs	r0, #250
 5198 1624 FFF7FEFF 		bl	CyDelay
1160:.\main.c      **** 			if(PC_GetRxBufferSize()==2){
 5199              		.loc 1 1160 0
 5200 1628 FFF7FEFF 		bl	PC_GetRxBufferSize
 5201 162c 0346     		mov	r3, r0
 5202 162e 022B     		cmp	r3, #2
 5203 1630 5AD1     		bne	.L248
1161:.\main.c      **** 				if((PC_rxBuffer[0]=='O') && (PC_rxBuffer[1]=='K')){
 5204              		.loc 1 1161 0
 5205 1632 354B     		ldr	r3, .L293+28
 5206 1634 1B78     		ldrb	r3, [r3]
 5207 1636 DBB2     		uxtb	r3, r3
 5208 1638 4F2B     		cmp	r3, #79
 5209 163a 0AD1     		bne	.L249
 5210              		.loc 1 1161 0 is_stmt 0 discriminator 1
 5211 163c 324B     		ldr	r3, .L293+28
 5212 163e 5B78     		ldrb	r3, [r3, #1]
 5213 1640 DBB2     		uxtb	r3, r3
 5214 1642 4B2B     		cmp	r3, #75
 5215 1644 05D1     		bne	.L249
1162:.\main.c      **** 					lado1.estado=espera;
 5216              		.loc 1 1162 0 is_stmt 1
 5217 1646 314B     		ldr	r3, .L293+32
 5218 1648 0222     		movs	r2, #2
 5219 164a 5A70     		strb	r2, [r3, #1]
1163:.\main.c      **** 					flujo_LCD1=10;	
 5220              		.loc 1 1163 0
 5221 164c 304B     		ldr	r3, .L293+36
 5222 164e 0A22     		movs	r2, #10
 5223 1650 1A70     		strb	r2, [r3]
 5224              	.L249:
1164:.\main.c      **** 				}
1165:.\main.c      **** 				PC_ClearRxBuffer();
ARM GAS  C:\Users\SISTEM~1\AppData\Local\Temp\ccCGHuKi.s 			page 115


 5225              		.loc 1 1165 0
 5226 1652 FFF7FEFF 		bl	PC_ClearRxBuffer
1166:.\main.c      **** 				precio[0]=lado1.ppu[rventa1.producto-1][0];
 5227              		.loc 1 1166 0
 5228 1656 254B     		ldr	r3, .L293
 5229 1658 5B7E     		ldrb	r3, [r3, #25]	@ zero_extendqisi2
 5230 165a 5A1E     		subs	r2, r3, #1
 5231 165c 2B49     		ldr	r1, .L293+32
 5232 165e 1346     		mov	r3, r2
 5233 1660 9B00     		lsls	r3, r3, #2
 5234 1662 1344     		add	r3, r3, r2
 5235 1664 0B44     		add	r3, r3, r1
 5236 1666 4833     		adds	r3, r3, #72
 5237 1668 9B78     		ldrb	r3, [r3, #2]
 5238 166a DBB2     		uxtb	r3, r3
 5239 166c 3B73     		strb	r3, [r7, #12]
1167:.\main.c      **** 				precio[1]=lado1.ppu[rventa1.producto-1][1];
 5240              		.loc 1 1167 0
 5241 166e 1F4B     		ldr	r3, .L293
 5242 1670 5B7E     		ldrb	r3, [r3, #25]	@ zero_extendqisi2
 5243 1672 5A1E     		subs	r2, r3, #1
 5244 1674 2549     		ldr	r1, .L293+32
 5245 1676 1346     		mov	r3, r2
 5246 1678 9B00     		lsls	r3, r3, #2
 5247 167a 1344     		add	r3, r3, r2
 5248 167c 0B44     		add	r3, r3, r1
 5249 167e 4933     		adds	r3, r3, #73
 5250 1680 9B78     		ldrb	r3, [r3, #2]
 5251 1682 DBB2     		uxtb	r3, r3
 5252 1684 7B73     		strb	r3, [r7, #13]
1168:.\main.c      **** 				precio[2]=lado1.ppu[rventa1.producto-1][2];
 5253              		.loc 1 1168 0
 5254 1686 194B     		ldr	r3, .L293
 5255 1688 5B7E     		ldrb	r3, [r3, #25]	@ zero_extendqisi2
 5256 168a 5A1E     		subs	r2, r3, #1
 5257 168c 1F49     		ldr	r1, .L293+32
 5258 168e 1346     		mov	r3, r2
 5259 1690 9B00     		lsls	r3, r3, #2
 5260 1692 1344     		add	r3, r3, r2
 5261 1694 0B44     		add	r3, r3, r1
 5262 1696 4A33     		adds	r3, r3, #74
 5263 1698 9B78     		ldrb	r3, [r3, #2]
 5264 169a DBB2     		uxtb	r3, r3
 5265 169c BB73     		strb	r3, [r7, #14]
1169:.\main.c      **** 				precio[3]=lado1.ppu[rventa1.producto-1][3];
 5266              		.loc 1 1169 0
 5267 169e 134B     		ldr	r3, .L293
 5268 16a0 5B7E     		ldrb	r3, [r3, #25]	@ zero_extendqisi2
 5269 16a2 5A1E     		subs	r2, r3, #1
 5270 16a4 1949     		ldr	r1, .L293+32
 5271 16a6 1346     		mov	r3, r2
 5272 16a8 9B00     		lsls	r3, r3, #2
 5273 16aa 1344     		add	r3, r3, r2
 5274 16ac 0B44     		add	r3, r3, r1
 5275 16ae 4B33     		adds	r3, r3, #75
 5276 16b0 9B78     		ldrb	r3, [r3, #2]
 5277 16b2 DBB2     		uxtb	r3, r3
ARM GAS  C:\Users\SISTEM~1\AppData\Local\Temp\ccCGHuKi.s 			page 116


 5278 16b4 FB73     		strb	r3, [r7, #15]
1170:.\main.c      **** 				precio[4]=lado1.ppu[rventa1.producto-1][4];
 5279              		.loc 1 1170 0
 5280 16b6 0D4B     		ldr	r3, .L293
 5281 16b8 5B7E     		ldrb	r3, [r3, #25]	@ zero_extendqisi2
 5282 16ba 5A1E     		subs	r2, r3, #1
 5283 16bc 1349     		ldr	r1, .L293+32
 5284 16be 1346     		mov	r3, r2
 5285 16c0 9B00     		lsls	r3, r3, #2
 5286 16c2 1344     		add	r3, r3, r2
 5287 16c4 0B44     		add	r3, r3, r1
 5288 16c6 4C33     		adds	r3, r3, #76
 5289 16c8 9B78     		ldrb	r3, [r3, #2]
 5290 16ca DBB2     		uxtb	r3, r3
 5291 16cc 3B74     		strb	r3, [r7, #16]
1171:.\main.c      **** 				cambiar_precio(lado1.dir,precio,rventa1.producto);
 5292              		.loc 1 1171 0
 5293 16ce 0F4B     		ldr	r3, .L293+32
 5294 16d0 1B78     		ldrb	r3, [r3]
 5295 16d2 D9B2     		uxtb	r1, r3
 5296 16d4 054B     		ldr	r3, .L293
 5297 16d6 5B7E     		ldrb	r3, [r3, #25]	@ zero_extendqisi2
 5298 16d8 07F10C02 		add	r2, r7, #12
 5299 16dc 0846     		mov	r0, r1
 5300 16de 1146     		mov	r1, r2
 5301 16e0 1A46     		mov	r2, r3
 5302 16e2 FFF7FEFF 		bl	cambiar_precio
1172:.\main.c      **** 			}
1173:.\main.c      **** 		break;
 5303              		.loc 1 1173 0
 5304 16e6 D9E1     		b	.L108
 5305              	.L248:
 5306 16e8 D8E1     		b	.L108
 5307              	.L294:
 5308 16ea 00BF     		.align	2
 5309              	.L293:
 5310 16ec 00000000 		.word	rventa1
 5311 16f0 00000000 		.word	rf_mod
 5312 16f4 00000000 		.word	num_decimal2
 5313 16f8 D34D6210 		.word	274877907
 5314 16fc 00000000 		.word	id_venta
 5315 1700 1F85EB51 		.word	1374389535
 5316 1704 CDCCCCCC 		.word	-858993459
 5317 1708 00000000 		.word	PC_rxBuffer
 5318 170c 00000000 		.word	lado1
 5319 1710 00000000 		.word	flujo_LCD1
 5320              	.L123:
1174:.\main.c      **** 			
1175:.\main.c      **** 		case 13:
1176:.\main.c      **** 	        if(LCD_1_GetRxBufferSize()==8){
 5321              		.loc 1 1176 0
 5322 1714 FFF7FEFF 		bl	LCD_1_GetRxBufferSize
 5323 1718 0346     		mov	r3, r0
 5324 171a 082B     		cmp	r3, #8
 5325 171c 77D1     		bne	.L250
1177:.\main.c      **** 	            if((LCD_1_rxBuffer[0]==0xAA) && (LCD_1_rxBuffer[6]==0xC3) && (LCD_1_rxBuffer[7]==0x3C)
 5326              		.loc 1 1177 0
ARM GAS  C:\Users\SISTEM~1\AppData\Local\Temp\ccCGHuKi.s 			page 117


 5327 171e A64B     		ldr	r3, .L295
 5328 1720 1B78     		ldrb	r3, [r3]
 5329 1722 DBB2     		uxtb	r3, r3
 5330 1724 AA2B     		cmp	r3, #170
 5331 1726 6CD1     		bne	.L251
 5332              		.loc 1 1177 0 is_stmt 0 discriminator 1
 5333 1728 A34B     		ldr	r3, .L295
 5334 172a 9B79     		ldrb	r3, [r3, #6]
 5335 172c DBB2     		uxtb	r3, r3
 5336 172e C32B     		cmp	r3, #195
 5337 1730 67D1     		bne	.L251
 5338 1732 A14B     		ldr	r3, .L295
 5339 1734 DB79     		ldrb	r3, [r3, #7]
 5340 1736 DBB2     		uxtb	r3, r3
 5341 1738 3C2B     		cmp	r3, #60
 5342 173a 62D1     		bne	.L251
1178:.\main.c      **** 	                switch(LCD_1_rxBuffer[3]){
 5343              		.loc 1 1178 0 is_stmt 1
 5344 173c 9E4B     		ldr	r3, .L295
 5345 173e DB78     		ldrb	r3, [r3, #3]
 5346 1740 DBB2     		uxtb	r3, r3
 5347 1742 592B     		cmp	r3, #89
 5348 1744 10D0     		beq	.L252
 5349 1746 592B     		cmp	r3, #89
 5350 1748 01DC     		bgt	.L253
 5351 174a 452B     		cmp	r3, #69
1179:.\main.c      **** 	                    case 0x5C:
1180:.\main.c      **** 							flujo_LCD1=3;
1181:.\main.c      **** 							set_imagen(1,18);
1182:.\main.c      **** 	                    break;                
1183:.\main.c      **** 	                    
1184:.\main.c      **** 	                    case 0x45:								    //Otras opciones
1185:.\main.c      **** 		                    /*flujo_LCD1=14;     
1186:.\main.c      **** 		                    teclas1=0; 
1187:.\main.c      **** 							set_imagen(1,37);	
1188:.\main.c      **** 							count_teclas1=0;
1189:.\main.c      **** 							teclas1=10;
1190:.\main.c      **** 							posx1=3;
1191:.\main.c      **** 							posy1=3;
1192:.\main.c      **** 							sizeletra1=1;*/	
1193:.\main.c      **** 	                    break; 
 5352              		.loc 1 1193 0
 5353 174c 59E0     		b	.L251
 5354              	.L253:
1178:.\main.c      **** 	                switch(LCD_1_rxBuffer[3]){
 5355              		.loc 1 1178 0
 5356 174e 5C2B     		cmp	r3, #92
 5357 1750 02D0     		beq	.L255
 5358 1752 7E2B     		cmp	r3, #126
 5359 1754 4DD0     		beq	.L256
 5360 1756 54E0     		b	.L251
 5361              	.L255:
1180:.\main.c      **** 							flujo_LCD1=3;
 5362              		.loc 1 1180 0
 5363 1758 984B     		ldr	r3, .L295+4
 5364 175a 0322     		movs	r2, #3
 5365 175c 1A70     		strb	r2, [r3]
ARM GAS  C:\Users\SISTEM~1\AppData\Local\Temp\ccCGHuKi.s 			page 118


1181:.\main.c      **** 							set_imagen(1,18);
 5366              		.loc 1 1181 0
 5367 175e 0120     		movs	r0, #1
 5368 1760 1221     		movs	r1, #18
 5369 1762 FFF7FEFF 		bl	set_imagen
1182:.\main.c      **** 	                    break;                
 5370              		.loc 1 1182 0
 5371 1766 4CE0     		b	.L251
 5372              	.L252:
1194:.\main.c      **** 
1195:.\main.c      **** 	                    case 0x59:									//Corte
1196:.\main.c      **** 							set_imagen(1,57);
 5373              		.loc 1 1196 0
 5374 1768 0120     		movs	r0, #1
 5375 176a 3921     		movs	r1, #57
 5376 176c FFF7FEFF 		bl	set_imagen
1197:.\main.c      **** 							rf_mod[0]='M';
 5377              		.loc 1 1197 0
 5378 1770 934B     		ldr	r3, .L295+8
 5379 1772 4D22     		movs	r2, #77
 5380 1774 1A70     		strb	r2, [r3]
1198:.\main.c      **** 							rf_mod[1]='U';
 5381              		.loc 1 1198 0
 5382 1776 924B     		ldr	r3, .L295+8
 5383 1778 5522     		movs	r2, #85
 5384 177a 5A70     		strb	r2, [r3, #1]
1199:.\main.c      **** 							rf_mod[2]='X';
 5385              		.loc 1 1199 0
 5386 177c 904B     		ldr	r3, .L295+8
 5387 177e 5822     		movs	r2, #88
 5388 1780 9A70     		strb	r2, [r3, #2]
1200:.\main.c      **** 							rf_mod[3]='2';	
 5389              		.loc 1 1200 0
 5390 1782 8F4B     		ldr	r3, .L295+8
 5391 1784 3222     		movs	r2, #50
 5392 1786 DA70     		strb	r2, [r3, #3]
1201:.\main.c      **** 							rf_mod[4]='*';
 5393              		.loc 1 1201 0
 5394 1788 8D4B     		ldr	r3, .L295+8
 5395 178a 2A22     		movs	r2, #42
 5396 178c 1A71     		strb	r2, [r3, #4]
1202:.\main.c      **** 							PC_ClearRxBuffer();				
 5397              		.loc 1 1202 0
 5398 178e FFF7FEFF 		bl	PC_ClearRxBuffer
1203:.\main.c      **** 						    for(x=0;x<=4;x++){
 5399              		.loc 1 1203 0
 5400 1792 0023     		movs	r3, #0
 5401 1794 87F82F30 		strb	r3, [r7, #47]
 5402 1798 0BE0     		b	.L257
 5403              	.L258:
1204:.\main.c      **** 							   PC_PutChar(rf_mod[x]);
 5404              		.loc 1 1204 0 discriminator 2
 5405 179a 97F82F30 		ldrb	r3, [r7, #47]	@ zero_extendqisi2
 5406 179e 884A     		ldr	r2, .L295+8
 5407 17a0 D35C     		ldrb	r3, [r2, r3]	@ zero_extendqisi2
 5408 17a2 1846     		mov	r0, r3
 5409 17a4 FFF7FEFF 		bl	PC_PutChar
ARM GAS  C:\Users\SISTEM~1\AppData\Local\Temp\ccCGHuKi.s 			page 119


1203:.\main.c      **** 						    for(x=0;x<=4;x++){
 5410              		.loc 1 1203 0 discriminator 2
 5411 17a8 97F82F30 		ldrb	r3, [r7, #47]	@ zero_extendqisi2
 5412 17ac 0133     		adds	r3, r3, #1
 5413 17ae 87F82F30 		strb	r3, [r7, #47]
 5414              	.L257:
1203:.\main.c      **** 						    for(x=0;x<=4;x++){
 5415              		.loc 1 1203 0 is_stmt 0 discriminator 1
 5416 17b2 97F82F30 		ldrb	r3, [r7, #47]	@ zero_extendqisi2
 5417 17b6 042B     		cmp	r3, #4
 5418 17b8 EFD9     		bls	.L258
1205:.\main.c      **** 						    }
1206:.\main.c      **** 							CyDelay(150);
 5419              		.loc 1 1206 0 is_stmt 1
 5420 17ba 9620     		movs	r0, #150
 5421 17bc FFF7FEFF 		bl	CyDelay
1207:.\main.c      **** 							if(PC_GetRxBufferSize()==2){
 5422              		.loc 1 1207 0
 5423 17c0 FFF7FEFF 		bl	PC_GetRxBufferSize
 5424 17c4 0346     		mov	r3, r0
 5425 17c6 022B     		cmp	r3, #2
 5426 17c8 12D1     		bne	.L259
1208:.\main.c      **** 								if((PC_rxBuffer[0]=='O') && (PC_rxBuffer[1]=='K')){
 5427              		.loc 1 1208 0
 5428 17ca 7E4B     		ldr	r3, .L295+12
 5429 17cc 1B78     		ldrb	r3, [r3]
 5430 17ce DBB2     		uxtb	r3, r3
 5431 17d0 4F2B     		cmp	r3, #79
 5432 17d2 0AD1     		bne	.L260
 5433              		.loc 1 1208 0 is_stmt 0 discriminator 1
 5434 17d4 7B4B     		ldr	r3, .L295+12
 5435 17d6 5B78     		ldrb	r3, [r3, #1]
 5436 17d8 DBB2     		uxtb	r3, r3
 5437 17da 4B2B     		cmp	r3, #75
 5438 17dc 05D1     		bne	.L260
1209:.\main.c      **** 									lado1.estado=espera;
 5439              		.loc 1 1209 0 is_stmt 1
 5440 17de 7A4B     		ldr	r3, .L295+16
 5441 17e0 0222     		movs	r2, #2
 5442 17e2 5A70     		strb	r2, [r3, #1]
1210:.\main.c      **** 									flujo_LCD1=10;	
 5443              		.loc 1 1210 0
 5444 17e4 754B     		ldr	r3, .L295+4
 5445 17e6 0A22     		movs	r2, #10
 5446 17e8 1A70     		strb	r2, [r3]
 5447              	.L260:
1211:.\main.c      **** 								}
1212:.\main.c      **** 								PC_ClearRxBuffer();
 5448              		.loc 1 1212 0
 5449 17ea FFF7FEFF 		bl	PC_ClearRxBuffer
1213:.\main.c      **** 							}							
1214:.\main.c      **** 	                    break;					
 5450              		.loc 1 1214 0
 5451 17ee 08E0     		b	.L251
 5452              	.L259:
 5453 17f0 07E0     		b	.L251
 5454              	.L256:
ARM GAS  C:\Users\SISTEM~1\AppData\Local\Temp\ccCGHuKi.s 			page 120


1215:.\main.c      **** 						
1216:.\main.c      **** 	                    case 0x7E:									//ir a menu
1217:.\main.c      **** 						  set_imagen(1,0);	
 5455              		.loc 1 1217 0
 5456 17f2 0120     		movs	r0, #1
 5457 17f4 0021     		movs	r1, #0
 5458 17f6 FFF7FEFF 		bl	set_imagen
1218:.\main.c      **** 	                      flujo_LCD1=0;     
 5459              		.loc 1 1218 0
 5460 17fa 704B     		ldr	r3, .L295+4
 5461 17fc 0022     		movs	r2, #0
 5462 17fe 1A70     		strb	r2, [r3]
1219:.\main.c      **** 	                    break;					
 5463              		.loc 1 1219 0
 5464 1800 00BF     		nop
 5465              	.L251:
1220:.\main.c      **** 	                }
1221:.\main.c      **** 	            }
1222:.\main.c      **** 	            CyDelay(100);
 5466              		.loc 1 1222 0
 5467 1802 6420     		movs	r0, #100
 5468 1804 FFF7FEFF 		bl	CyDelay
1223:.\main.c      **** 	            LCD_1_ClearRxBuffer();
 5469              		.loc 1 1223 0
 5470 1808 FFF7FEFF 		bl	LCD_1_ClearRxBuffer
1224:.\main.c      **** 	        }				
1225:.\main.c      **** 		break;
 5471              		.loc 1 1225 0
 5472 180c 46E1     		b	.L108
 5473              	.L250:
 5474 180e 45E1     		b	.L108
 5475              	.L124:
1226:.\main.c      **** 			
1227:.\main.c      **** 		case 14:
1228:.\main.c      **** 	        if(LCD_1_GetRxBufferSize()==8){
 5476              		.loc 1 1228 0
 5477 1810 FFF7FEFF 		bl	LCD_1_GetRxBufferSize
 5478 1814 0346     		mov	r3, r0
 5479 1816 082B     		cmp	r3, #8
 5480 1818 40F01481 		bne	.L261
1229:.\main.c      **** 	            if((LCD_1_rxBuffer[0]==0xAA) && (LCD_1_rxBuffer[6]==0xC3) && (LCD_1_rxBuffer[7]==0x3C)
 5481              		.loc 1 1229 0
 5482 181c 664B     		ldr	r3, .L295
 5483 181e 1B78     		ldrb	r3, [r3]
 5484 1820 DBB2     		uxtb	r3, r3
 5485 1822 AA2B     		cmp	r3, #170
 5486 1824 40F00B81 		bne	.L262
 5487              		.loc 1 1229 0 is_stmt 0 discriminator 1
 5488 1828 634B     		ldr	r3, .L295
 5489 182a 9B79     		ldrb	r3, [r3, #6]
 5490 182c DBB2     		uxtb	r3, r3
 5491 182e C32B     		cmp	r3, #195
 5492 1830 40F00581 		bne	.L262
 5493 1834 604B     		ldr	r3, .L295
 5494 1836 DB79     		ldrb	r3, [r3, #7]
 5495 1838 DBB2     		uxtb	r3, r3
 5496 183a 3C2B     		cmp	r3, #60
ARM GAS  C:\Users\SISTEM~1\AppData\Local\Temp\ccCGHuKi.s 			page 121


 5497 183c 40F0FF80 		bne	.L262
1230:.\main.c      **** 	                if(count_teclas1<teclas1){
 5498              		.loc 1 1230 0 is_stmt 1
 5499 1840 624B     		ldr	r3, .L295+20
 5500 1842 1B78     		ldrb	r3, [r3]
 5501 1844 DAB2     		uxtb	r2, r3
 5502 1846 624B     		ldr	r3, .L295+24
 5503 1848 1B78     		ldrb	r3, [r3]
 5504 184a DBB2     		uxtb	r3, r3
 5505 184c 9A42     		cmp	r2, r3
 5506 184e 65D2     		bcs	.L263
1231:.\main.c      **** 	                    if(LCD_1_rxBuffer[3]<=9){
 5507              		.loc 1 1231 0
 5508 1850 594B     		ldr	r3, .L295
 5509 1852 DB78     		ldrb	r3, [r3, #3]
 5510 1854 DBB2     		uxtb	r3, r3
 5511 1856 092B     		cmp	r3, #9
 5512 1858 2FD8     		bhi	.L264
1232:.\main.c      **** 	                        rventa1.password[count_teclas1+1]=LCD_1_rxBuffer[3]+0x30;
 5513              		.loc 1 1232 0
 5514 185a 5C4B     		ldr	r3, .L295+20
 5515 185c 1B78     		ldrb	r3, [r3]
 5516 185e DBB2     		uxtb	r3, r3
 5517 1860 0133     		adds	r3, r3, #1
 5518 1862 554A     		ldr	r2, .L295
 5519 1864 D278     		ldrb	r2, [r2, #3]
 5520 1866 D2B2     		uxtb	r2, r2
 5521 1868 3032     		adds	r2, r2, #48
 5522 186a D2B2     		uxtb	r2, r2
 5523 186c 5949     		ldr	r1, .L295+28
 5524 186e 0B44     		add	r3, r3, r1
 5525 1870 83F85420 		strb	r2, [r3, #84]
1233:.\main.c      **** 	                        write_LCD(1,'*', posy1, ((count_teclas1*(sizeletra1+1))+posx1), sizeletra1
 5526              		.loc 1 1233 0
 5527 1874 584B     		ldr	r3, .L295+32
 5528 1876 1B88     		ldrh	r3, [r3]	@ movhi
 5529 1878 9AB2     		uxth	r2, r3
 5530 187a 544B     		ldr	r3, .L295+20
 5531 187c 1B78     		ldrb	r3, [r3]
 5532 187e DBB2     		uxtb	r3, r3
 5533 1880 5649     		ldr	r1, .L295+36
 5534 1882 0988     		ldrh	r1, [r1]	@ movhi
 5535 1884 89B2     		uxth	r1, r1
 5536 1886 0131     		adds	r1, r1, #1
 5537 1888 89B2     		uxth	r1, r1
 5538 188a 01FB03F3 		mul	r3, r1, r3
 5539 188e 99B2     		uxth	r1, r3
 5540 1890 534B     		ldr	r3, .L295+40
 5541 1892 1B88     		ldrh	r3, [r3]	@ movhi
 5542 1894 9BB2     		uxth	r3, r3
 5543 1896 0B44     		add	r3, r3, r1
 5544 1898 9BB2     		uxth	r3, r3
 5545 189a 5049     		ldr	r1, .L295+36
 5546 189c 0988     		ldrh	r1, [r1]	@ movhi
 5547 189e 89B2     		uxth	r1, r1
 5548 18a0 C9B2     		uxtb	r1, r1
 5549 18a2 0091     		str	r1, [sp]
ARM GAS  C:\Users\SISTEM~1\AppData\Local\Temp\ccCGHuKi.s 			page 122


 5550 18a4 0120     		movs	r0, #1
 5551 18a6 2A21     		movs	r1, #42
 5552 18a8 FFF7FEFF 		bl	write_LCD
1234:.\main.c      **** 	                        count_teclas1++;                        
 5553              		.loc 1 1234 0
 5554 18ac 474B     		ldr	r3, .L295+20
 5555 18ae 1B78     		ldrb	r3, [r3]
 5556 18b0 DBB2     		uxtb	r3, r3
 5557 18b2 0133     		adds	r3, r3, #1
 5558 18b4 DAB2     		uxtb	r2, r3
 5559 18b6 454B     		ldr	r3, .L295+20
 5560 18b8 1A70     		strb	r2, [r3]
 5561              	.L264:
1235:.\main.c      **** 	                    }
1236:.\main.c      **** 	                    if(LCD_1_rxBuffer[3]==0x0A){            //Comando de 0
 5562              		.loc 1 1236 0
 5563 18ba 3F4B     		ldr	r3, .L295
 5564 18bc DB78     		ldrb	r3, [r3, #3]
 5565 18be DBB2     		uxtb	r3, r3
 5566 18c0 0A2B     		cmp	r3, #10
 5567 18c2 2BD1     		bne	.L263
1237:.\main.c      **** 	                        rventa1.password[count_teclas1+1]=0x30;
 5568              		.loc 1 1237 0
 5569 18c4 414B     		ldr	r3, .L295+20
 5570 18c6 1B78     		ldrb	r3, [r3]
 5571 18c8 DBB2     		uxtb	r3, r3
 5572 18ca 0133     		adds	r3, r3, #1
 5573 18cc 414A     		ldr	r2, .L295+28
 5574 18ce 1344     		add	r3, r3, r2
 5575 18d0 3022     		movs	r2, #48
 5576 18d2 83F85420 		strb	r2, [r3, #84]
1238:.\main.c      **** 	                        write_LCD(1,'*', posy1, ((count_teclas1*(sizeletra1+1))+posx1), sizeletra1
 5577              		.loc 1 1238 0
 5578 18d6 404B     		ldr	r3, .L295+32
 5579 18d8 1B88     		ldrh	r3, [r3]	@ movhi
 5580 18da 9AB2     		uxth	r2, r3
 5581 18dc 3B4B     		ldr	r3, .L295+20
 5582 18de 1B78     		ldrb	r3, [r3]
 5583 18e0 DBB2     		uxtb	r3, r3
 5584 18e2 3E49     		ldr	r1, .L295+36
 5585 18e4 0988     		ldrh	r1, [r1]	@ movhi
 5586 18e6 89B2     		uxth	r1, r1
 5587 18e8 0131     		adds	r1, r1, #1
 5588 18ea 89B2     		uxth	r1, r1
 5589 18ec 01FB03F3 		mul	r3, r1, r3
 5590 18f0 99B2     		uxth	r1, r3
 5591 18f2 3B4B     		ldr	r3, .L295+40
 5592 18f4 1B88     		ldrh	r3, [r3]	@ movhi
 5593 18f6 9BB2     		uxth	r3, r3
 5594 18f8 0B44     		add	r3, r3, r1
 5595 18fa 9BB2     		uxth	r3, r3
 5596 18fc 3749     		ldr	r1, .L295+36
 5597 18fe 0988     		ldrh	r1, [r1]	@ movhi
 5598 1900 89B2     		uxth	r1, r1
 5599 1902 C9B2     		uxtb	r1, r1
 5600 1904 0091     		str	r1, [sp]
 5601 1906 0120     		movs	r0, #1
ARM GAS  C:\Users\SISTEM~1\AppData\Local\Temp\ccCGHuKi.s 			page 123


 5602 1908 2A21     		movs	r1, #42
 5603 190a FFF7FEFF 		bl	write_LCD
1239:.\main.c      **** 	                        count_teclas1++;                        
 5604              		.loc 1 1239 0
 5605 190e 2F4B     		ldr	r3, .L295+20
 5606 1910 1B78     		ldrb	r3, [r3]
 5607 1912 DBB2     		uxtb	r3, r3
 5608 1914 0133     		adds	r3, r3, #1
 5609 1916 DAB2     		uxtb	r2, r3
 5610 1918 2C4B     		ldr	r3, .L295+20
 5611 191a 1A70     		strb	r2, [r3]
 5612              	.L263:
1240:.\main.c      **** 	                    }                    
1241:.\main.c      **** 	                }
1242:.\main.c      **** 	                if(LCD_1_rxBuffer[3]==0x0B){                //Cancelar      
 5613              		.loc 1 1242 0
 5614 191c 264B     		ldr	r3, .L295
 5615 191e DB78     		ldrb	r3, [r3, #3]
 5616 1920 DBB2     		uxtb	r3, r3
 5617 1922 0B2B     		cmp	r3, #11
 5618 1924 2BD1     		bne	.L265
1243:.\main.c      **** 	                    if(teclas1==0){
 5619              		.loc 1 1243 0
 5620 1926 2A4B     		ldr	r3, .L295+24
 5621 1928 1B78     		ldrb	r3, [r3]
 5622 192a DBB2     		uxtb	r3, r3
 5623 192c 002B     		cmp	r3, #0
 5624 192e 03D1     		bne	.L266
1244:.\main.c      **** 	                        flujo_LCD1=0;
 5625              		.loc 1 1244 0
 5626 1930 224B     		ldr	r3, .L295+4
 5627 1932 0022     		movs	r2, #0
 5628 1934 1A70     		strb	r2, [r3]
 5629 1936 22E0     		b	.L265
 5630              	.L266:
1245:.\main.c      **** 	                    }
1246:.\main.c      **** 	                    else{
1247:.\main.c      **** 	                        count_teclas1--;                                        
 5631              		.loc 1 1247 0
 5632 1938 244B     		ldr	r3, .L295+20
 5633 193a 1B78     		ldrb	r3, [r3]
 5634 193c DBB2     		uxtb	r3, r3
 5635 193e 013B     		subs	r3, r3, #1
 5636 1940 DAB2     		uxtb	r2, r3
 5637 1942 224B     		ldr	r3, .L295+20
 5638 1944 1A70     		strb	r2, [r3]
1248:.\main.c      **** 	                        write_LCD(1,0x20, posy1, ((count_teclas1*(sizeletra1+1))+posx1), sizeletra
 5639              		.loc 1 1248 0
 5640 1946 244B     		ldr	r3, .L295+32
 5641 1948 1B88     		ldrh	r3, [r3]	@ movhi
 5642 194a 9AB2     		uxth	r2, r3
 5643 194c 1F4B     		ldr	r3, .L295+20
 5644 194e 1B78     		ldrb	r3, [r3]
 5645 1950 DBB2     		uxtb	r3, r3
 5646 1952 2249     		ldr	r1, .L295+36
 5647 1954 0988     		ldrh	r1, [r1]	@ movhi
 5648 1956 89B2     		uxth	r1, r1
ARM GAS  C:\Users\SISTEM~1\AppData\Local\Temp\ccCGHuKi.s 			page 124


 5649 1958 0131     		adds	r1, r1, #1
 5650 195a 89B2     		uxth	r1, r1
 5651 195c 01FB03F3 		mul	r3, r1, r3
 5652 1960 99B2     		uxth	r1, r3
 5653 1962 1F4B     		ldr	r3, .L295+40
 5654 1964 1B88     		ldrh	r3, [r3]	@ movhi
 5655 1966 9BB2     		uxth	r3, r3
 5656 1968 0B44     		add	r3, r3, r1
 5657 196a 9BB2     		uxth	r3, r3
 5658 196c 1B49     		ldr	r1, .L295+36
 5659 196e 0988     		ldrh	r1, [r1]	@ movhi
 5660 1970 89B2     		uxth	r1, r1
 5661 1972 C9B2     		uxtb	r1, r1
 5662 1974 0091     		str	r1, [sp]
 5663 1976 0120     		movs	r0, #1
 5664 1978 2021     		movs	r1, #32
 5665 197a FFF7FEFF 		bl	write_LCD
 5666              	.L265:
1249:.\main.c      **** 	                    }
1250:.\main.c      **** 	                }
1251:.\main.c      **** 	                if(LCD_1_rxBuffer[3]==0x0C){                //Enter
 5667              		.loc 1 1251 0
 5668 197e 0E4B     		ldr	r3, .L295
 5669 1980 DB78     		ldrb	r3, [r3, #3]
 5670 1982 DBB2     		uxtb	r3, r3
 5671 1984 0C2B     		cmp	r3, #12
 5672 1986 5AD1     		bne	.L262
1252:.\main.c      **** 	                    if(count_teclas1>=1){
 5673              		.loc 1 1252 0
 5674 1988 104B     		ldr	r3, .L295+20
 5675 198a 1B78     		ldrb	r3, [r3]
 5676 198c DBB2     		uxtb	r3, r3
 5677 198e 002B     		cmp	r3, #0
 5678 1990 55D0     		beq	.L262
1253:.\main.c      **** 	                        rventa1.password[0]=count_teclas1;
 5679              		.loc 1 1253 0
 5680 1992 0E4B     		ldr	r3, .L295+20
 5681 1994 1B78     		ldrb	r3, [r3]
 5682 1996 DAB2     		uxtb	r2, r3
 5683 1998 0E4B     		ldr	r3, .L295+28
 5684 199a 83F85420 		strb	r2, [r3, #84]
1254:.\main.c      **** 							y=0;
 5685              		.loc 1 1254 0
 5686 199e 0023     		movs	r3, #0
 5687 19a0 87F82E30 		strb	r3, [r7, #46]
1255:.\main.c      **** 							if(rventa1.password[0]==4){
 5688              		.loc 1 1255 0
 5689 19a4 0B4B     		ldr	r3, .L295+28
 5690 19a6 93F85430 		ldrb	r3, [r3, #84]	@ zero_extendqisi2
 5691 19aa 042B     		cmp	r3, #4
 5692 19ac 44D1     		bne	.L267
1256:.\main.c      **** 								for(x=1;x<=4;x++){
 5693              		.loc 1 1256 0
 5694 19ae 0123     		movs	r3, #1
 5695 19b0 87F82F30 		strb	r3, [r7, #47]
 5696 19b4 2CE0     		b	.L268
 5697              	.L296:
ARM GAS  C:\Users\SISTEM~1\AppData\Local\Temp\ccCGHuKi.s 			page 125


 5698 19b6 00BF     		.align	2
 5699              	.L295:
 5700 19b8 00000000 		.word	LCD_1_rxBuffer
 5701 19bc 00000000 		.word	flujo_LCD1
 5702 19c0 00000000 		.word	rf_mod
 5703 19c4 00000000 		.word	PC_rxBuffer
 5704 19c8 00000000 		.word	lado1
 5705 19cc 00000000 		.word	count_teclas1
 5706 19d0 00000000 		.word	teclas1
 5707 19d4 00000000 		.word	rventa1
 5708 19d8 00000000 		.word	posy1
 5709 19dc 00000000 		.word	sizeletra1
 5710 19e0 00000000 		.word	posx1
 5711              	.L270:
1257:.\main.c      **** 									if(rventa1.password[x]==clave_config[x]){
 5712              		.loc 1 1257 0
 5713 19e4 97F82F30 		ldrb	r3, [r7, #47]	@ zero_extendqisi2
 5714 19e8 2E4A     		ldr	r2, .L297
 5715 19ea 1344     		add	r3, r3, r2
 5716 19ec 93F85420 		ldrb	r2, [r3, #84]	@ zero_extendqisi2
 5717 19f0 97F82F30 		ldrb	r3, [r7, #47]	@ zero_extendqisi2
 5718 19f4 2C49     		ldr	r1, .L297+4
 5719 19f6 CB5C     		ldrb	r3, [r1, r3]	@ zero_extendqisi2
 5720 19f8 9A42     		cmp	r2, r3
 5721 19fa 04D1     		bne	.L269
1258:.\main.c      **** 										y++;
 5722              		.loc 1 1258 0
 5723 19fc 97F82E30 		ldrb	r3, [r7, #46]	@ zero_extendqisi2
 5724 1a00 0133     		adds	r3, r3, #1
 5725 1a02 87F82E30 		strb	r3, [r7, #46]
 5726              	.L269:
1256:.\main.c      **** 								for(x=1;x<=4;x++){
 5727              		.loc 1 1256 0
 5728 1a06 97F82F30 		ldrb	r3, [r7, #47]	@ zero_extendqisi2
 5729 1a0a 0133     		adds	r3, r3, #1
 5730 1a0c 87F82F30 		strb	r3, [r7, #47]
 5731              	.L268:
1256:.\main.c      **** 								for(x=1;x<=4;x++){
 5732              		.loc 1 1256 0 is_stmt 0 discriminator 1
 5733 1a10 97F82F30 		ldrb	r3, [r7, #47]	@ zero_extendqisi2
 5734 1a14 042B     		cmp	r3, #4
 5735 1a16 E5D9     		bls	.L270
1259:.\main.c      **** 									}
1260:.\main.c      **** 								}
1261:.\main.c      **** 								if(y==4){
 5736              		.loc 1 1261 0 is_stmt 1
 5737 1a18 97F82E30 		ldrb	r3, [r7, #46]	@ zero_extendqisi2
 5738 1a1c 042B     		cmp	r3, #4
 5739 1a1e 07D1     		bne	.L271
1262:.\main.c      **** 			                        flujo_LCD1=15;
 5740              		.loc 1 1262 0
 5741 1a20 224B     		ldr	r3, .L297+8
 5742 1a22 0F22     		movs	r2, #15
 5743 1a24 1A70     		strb	r2, [r3]
1263:.\main.c      **** 			                        set_imagen(1,93);								
 5744              		.loc 1 1263 0
 5745 1a26 0120     		movs	r0, #1
ARM GAS  C:\Users\SISTEM~1\AppData\Local\Temp\ccCGHuKi.s 			page 126


 5746 1a28 5D21     		movs	r1, #93
 5747 1a2a FFF7FEFF 		bl	set_imagen
 5748 1a2e 06E0     		b	.L262
 5749              	.L271:
1264:.\main.c      **** 								}
1265:.\main.c      **** 								else{
1266:.\main.c      **** 			                        flujo_LCD1=0;							
 5750              		.loc 1 1266 0
 5751 1a30 1E4B     		ldr	r3, .L297+8
 5752 1a32 0022     		movs	r2, #0
 5753 1a34 1A70     		strb	r2, [r3]
 5754 1a36 02E0     		b	.L262
 5755              	.L267:
1267:.\main.c      **** 								}
1268:.\main.c      **** 							}
1269:.\main.c      **** 							else{
1270:.\main.c      **** 		                        flujo_LCD1=0;						
 5756              		.loc 1 1270 0
 5757 1a38 1C4B     		ldr	r3, .L297+8
 5758 1a3a 0022     		movs	r2, #0
 5759 1a3c 1A70     		strb	r2, [r3]
 5760              	.L262:
1271:.\main.c      **** 							}
1272:.\main.c      **** 	                    }
1273:.\main.c      **** 	                }
1274:.\main.c      **** 	            }
1275:.\main.c      **** 	            //CyDelay(100);            
1276:.\main.c      **** 	            LCD_1_ClearRxBuffer();
 5761              		.loc 1 1276 0
 5762 1a3e FFF7FEFF 		bl	LCD_1_ClearRxBuffer
1277:.\main.c      **** 	        }         			
1278:.\main.c      **** 		break;	
 5763              		.loc 1 1278 0
 5764 1a42 2BE0     		b	.L108
 5765              	.L261:
 5766 1a44 2AE0     		b	.L108
 5767              	.L126:
1279:.\main.c      **** 			
1280:.\main.c      ****         case 101:  
1281:.\main.c      ****           if(count_protector>=2){              
 5768              		.loc 1 1281 0
 5769 1a46 1A4B     		ldr	r3, .L297+12
 5770 1a48 1B78     		ldrb	r3, [r3]
 5771 1a4a DBB2     		uxtb	r3, r3
 5772 1a4c 012B     		cmp	r3, #1
 5773 1a4e 14D9     		bls	.L273
1282:.\main.c      ****             isr_3_Stop(); 
 5774              		.loc 1 1282 0
 5775 1a50 FFF7FEFF 		bl	isr_3_Stop
1283:.\main.c      ****             Timer_Animacion_Stop(); 			
 5776              		.loc 1 1283 0
 5777 1a54 FFF7FEFF 		bl	Timer_Animacion_Stop
1284:.\main.c      ****             flujo_LCD1=prox_caso[0][0];
 5778              		.loc 1 1284 0
 5779 1a58 164B     		ldr	r3, .L297+16
 5780 1a5a 1B88     		ldrh	r3, [r3]	@ movhi
 5781 1a5c 9BB2     		uxth	r3, r3
ARM GAS  C:\Users\SISTEM~1\AppData\Local\Temp\ccCGHuKi.s 			page 127


 5782 1a5e DAB2     		uxtb	r2, r3
 5783 1a60 124B     		ldr	r3, .L297+8
 5784 1a62 1A70     		strb	r2, [r3]
1285:.\main.c      **** 			set_imagen(1,prox_caso[0][1]);
 5785              		.loc 1 1285 0
 5786 1a64 134B     		ldr	r3, .L297+16
 5787 1a66 5B88     		ldrh	r3, [r3, #2]	@ movhi
 5788 1a68 9BB2     		uxth	r3, r3
 5789 1a6a 0120     		movs	r0, #1
 5790 1a6c 1946     		mov	r1, r3
 5791 1a6e FFF7FEFF 		bl	set_imagen
1286:.\main.c      **** 			count_protector=0;
 5792              		.loc 1 1286 0
 5793 1a72 0F4B     		ldr	r3, .L297+12
 5794 1a74 0022     		movs	r2, #0
 5795 1a76 1A70     		strb	r2, [r3]
1287:.\main.c      ****           }            
1288:.\main.c      ****         break;			
 5796              		.loc 1 1288 0
 5797 1a78 10E0     		b	.L108
 5798              	.L273:
 5799 1a7a 0FE0     		b	.L108
 5800              	.L125:
1289:.\main.c      **** 		
1290:.\main.c      ****         case 100:  
1291:.\main.c      ****          if(count_protector>=4){
 5801              		.loc 1 1291 0
 5802 1a7c 0C4B     		ldr	r3, .L297+12
 5803 1a7e 1B78     		ldrb	r3, [r3]
 5804 1a80 DBB2     		uxtb	r3, r3
 5805 1a82 032B     		cmp	r3, #3
 5806 1a84 09D9     		bls	.L274
1292:.\main.c      ****             flujo_LCD1=0;
 5807              		.loc 1 1292 0
 5808 1a86 094B     		ldr	r3, .L297+8
 5809 1a88 0022     		movs	r2, #0
 5810 1a8a 1A70     		strb	r2, [r3]
1293:.\main.c      ****             isr_3_Stop(); 
 5811              		.loc 1 1293 0
 5812 1a8c FFF7FEFF 		bl	isr_3_Stop
1294:.\main.c      ****             Timer_Animacion_Stop(); 
 5813              		.loc 1 1294 0
 5814 1a90 FFF7FEFF 		bl	Timer_Animacion_Stop
1295:.\main.c      ****             count_protector=0;
 5815              		.loc 1 1295 0
 5816 1a94 064B     		ldr	r3, .L297+12
 5817 1a96 0022     		movs	r2, #0
 5818 1a98 1A70     		strb	r2, [r3]
 5819              	.L274:
1296:.\main.c      ****          }            
1297:.\main.c      ****         break;			
 5820              		.loc 1 1297 0
 5821 1a9a 00BF     		nop
 5822              	.L108:
1298:.\main.c      **** 		
1299:.\main.c      **** 			
1300:.\main.c      **** 	}	
ARM GAS  C:\Users\SISTEM~1\AppData\Local\Temp\ccCGHuKi.s 			page 128


1301:.\main.c      **** 	
1302:.\main.c      **** }
 5823              		.loc 1 1302 0
 5824 1a9c 3437     		adds	r7, r7, #52
 5825 1a9e BD46     		mov	sp, r7
 5826              		@ sp needed
 5827 1aa0 90BD     		pop	{r4, r7, pc}
 5828              	.L298:
 5829 1aa2 00BF     		.align	2
 5830              	.L297:
 5831 1aa4 00000000 		.word	rventa1
 5832 1aa8 00000000 		.word	clave_config
 5833 1aac 00000000 		.word	flujo_LCD1
 5834 1ab0 00000000 		.word	count_protector
 5835 1ab4 00000000 		.word	prox_caso
 5836              		.cfi_endproc
 5837              	.LFE69:
 5838              		.size	polling_LCD1, .-polling_LCD1
 5839              		.section	.text.polling_LCD2,"ax",%progbits
 5840              		.align	2
 5841              		.global	polling_LCD2
 5842              		.thumb
 5843              		.thumb_func
 5844              		.type	polling_LCD2, %function
 5845              	polling_LCD2:
 5846              	.LFB70:
1303:.\main.c      **** 
1304:.\main.c      **** 
1305:.\main.c      **** /*
1306:.\main.c      **** ***************************************************************************************************
1307:.\main.c      **** *                                         void polling_LCD2(void)
1308:.\main.c      **** *
1309:.\main.c      **** * Description : 
1310:.\main.c      **** *               
1311:.\main.c      **** *
1312:.\main.c      **** * Argument(s) : none
1313:.\main.c      **** *
1314:.\main.c      **** * Return(s)   : none
1315:.\main.c      **** *
1316:.\main.c      **** * Caller(s)   : 
1317:.\main.c      **** *
1318:.\main.c      **** * Note(s)     : none.
1319:.\main.c      **** ***************************************************************************************************
1320:.\main.c      **** */
1321:.\main.c      **** 
1322:.\main.c      **** void polling_LCD2(void){
 5847              		.loc 1 1322 0
 5848              		.cfi_startproc
 5849              		@ args = 0, pretend = 0, frame = 0
 5850              		@ frame_needed = 1, uses_anonymous_args = 0
 5851              		@ link register save eliminated.
 5852 0000 80B4     		push	{r7}
 5853              		.cfi_def_cfa_offset 4
 5854              		.cfi_offset 7, -4
 5855 0002 00AF     		add	r7, sp, #0
 5856              		.cfi_def_cfa_register 7
1323:.\main.c      **** 		
ARM GAS  C:\Users\SISTEM~1\AppData\Local\Temp\ccCGHuKi.s 			page 129


1324:.\main.c      **** }
 5857              		.loc 1 1324 0
 5858 0004 BD46     		mov	sp, r7
 5859              		@ sp needed
 5860 0006 5DF8047B 		ldr	r7, [sp], #4
 5861 000a 7047     		bx	lr
 5862              		.cfi_endproc
 5863              	.LFE70:
 5864              		.size	polling_LCD2, .-polling_LCD2
 5865              		.section	.text.polling_wd,"ax",%progbits
 5866              		.align	2
 5867              		.global	polling_wd
 5868              		.thumb
 5869              		.thumb_func
 5870              		.type	polling_wd, %function
 5871              	polling_wd:
 5872              	.LFB71:
1325:.\main.c      **** 
1326:.\main.c      **** /*
1327:.\main.c      **** ***************************************************************************************************
1328:.\main.c      **** *                                        void polling_wd(void)
1329:.\main.c      **** *
1330:.\main.c      **** * Description : 
1331:.\main.c      **** *               
1332:.\main.c      **** *
1333:.\main.c      **** * Argument(s) : none
1334:.\main.c      **** *
1335:.\main.c      **** * Return(s)   : none
1336:.\main.c      **** *
1337:.\main.c      **** * Caller(s)   : 
1338:.\main.c      **** *
1339:.\main.c      **** * Note(s)     : none.
1340:.\main.c      **** ***************************************************************************************************
1341:.\main.c      **** */
1342:.\main.c      **** void polling_wd(void){
 5873              		.loc 1 1342 0
 5874              		.cfi_startproc
 5875              		@ args = 0, pretend = 0, frame = 0
 5876              		@ frame_needed = 1, uses_anonymous_args = 0
 5877              		@ link register save eliminated.
 5878 0000 80B4     		push	{r7}
 5879              		.cfi_def_cfa_offset 4
 5880              		.cfi_offset 7, -4
 5881 0002 00AF     		add	r7, sp, #0
 5882              		.cfi_def_cfa_register 7
1343:.\main.c      **** 
1344:.\main.c      **** }
 5883              		.loc 1 1344 0
 5884 0004 BD46     		mov	sp, r7
 5885              		@ sp needed
 5886 0006 5DF8047B 		ldr	r7, [sp], #4
 5887 000a 7047     		bx	lr
 5888              		.cfi_endproc
 5889              	.LFE71:
 5890              		.size	polling_wd, .-polling_wd
 5891              		.section	.text.animacion,"ax",%progbits
 5892              		.align	2
ARM GAS  C:\Users\SISTEM~1\AppData\Local\Temp\ccCGHuKi.s 			page 130


 5893              		.global	animacion
 5894              		.thumb
 5895              		.thumb_func
 5896              		.type	animacion, %function
 5897              	animacion:
 5898              	.LFB72:
1345:.\main.c      **** 
1346:.\main.c      **** /*
1347:.\main.c      **** ***************************************************************************************************
1348:.\main.c      **** *                                         CY_ISR(animacion)
1349:.\main.c      **** *
1350:.\main.c      **** * Description : 
1351:.\main.c      **** *               
1352:.\main.c      **** *
1353:.\main.c      **** * Argument(s) : none
1354:.\main.c      **** *
1355:.\main.c      **** * Return(s)   : none
1356:.\main.c      **** *
1357:.\main.c      **** * Caller(s)   : 
1358:.\main.c      **** *
1359:.\main.c      **** * Note(s)     : none.
1360:.\main.c      **** ***************************************************************************************************
1361:.\main.c      **** */
1362:.\main.c      **** CY_ISR(animacion){
 5899              		.loc 1 1362 0
 5900              		.cfi_startproc
 5901              		@ args = 0, pretend = 0, frame = 0
 5902              		@ frame_needed = 1, uses_anonymous_args = 0
 5903 0000 80B5     		push	{r7, lr}
 5904              		.cfi_def_cfa_offset 8
 5905              		.cfi_offset 7, -8
 5906              		.cfi_offset 14, -4
 5907 0002 00AF     		add	r7, sp, #0
 5908              		.cfi_def_cfa_register 7
1363:.\main.c      ****     Timer_Animacion_ReadStatusRegister();
 5909              		.loc 1 1363 0
 5910 0004 FFF7FEFF 		bl	Timer_Animacion_ReadStatusRegister
1364:.\main.c      ****     if(flujo_LCD1==1){
 5911              		.loc 1 1364 0
 5912 0008 174B     		ldr	r3, .L306
 5913 000a 1B78     		ldrb	r3, [r3]
 5914 000c DBB2     		uxtb	r3, r3
 5915 000e 012B     		cmp	r3, #1
 5916 0010 22D1     		bne	.L302
1365:.\main.c      ****         if(count_protector<=6){
 5917              		.loc 1 1365 0
 5918 0012 164B     		ldr	r3, .L306+4
 5919 0014 1B78     		ldrb	r3, [r3]
 5920 0016 DBB2     		uxtb	r3, r3
 5921 0018 062B     		cmp	r3, #6
 5922 001a 10D8     		bhi	.L303
1366:.\main.c      ****             count_protector++;
 5923              		.loc 1 1366 0
 5924 001c 134B     		ldr	r3, .L306+4
 5925 001e 1B78     		ldrb	r3, [r3]
 5926 0020 DBB2     		uxtb	r3, r3
 5927 0022 0133     		adds	r3, r3, #1
ARM GAS  C:\Users\SISTEM~1\AppData\Local\Temp\ccCGHuKi.s 			page 131


 5928 0024 DAB2     		uxtb	r2, r3
 5929 0026 114B     		ldr	r3, .L306+4
 5930 0028 1A70     		strb	r2, [r3]
1367:.\main.c      ****             set_imagen(1,(iprotector5+count_protector));  
 5931              		.loc 1 1367 0
 5932 002a 104B     		ldr	r3, .L306+4
 5933 002c 1B78     		ldrb	r3, [r3]
 5934 002e DBB2     		uxtb	r3, r3
 5935 0030 1433     		adds	r3, r3, #20
 5936 0032 9BB2     		uxth	r3, r3
 5937 0034 0120     		movs	r0, #1
 5938 0036 1946     		mov	r1, r3
 5939 0038 FFF7FEFF 		bl	set_imagen
 5940 003c 13E0     		b	.L301
 5941              	.L303:
1368:.\main.c      ****         }
1369:.\main.c      ****         else{
1370:.\main.c      ****            count_protector=0; 
 5942              		.loc 1 1370 0
 5943 003e 0B4B     		ldr	r3, .L306+4
 5944 0040 0022     		movs	r2, #0
 5945 0042 1A70     		strb	r2, [r3]
1371:.\main.c      ****            set_imagen(1,(iprotector5+count_protector));  
 5946              		.loc 1 1371 0
 5947 0044 094B     		ldr	r3, .L306+4
 5948 0046 1B78     		ldrb	r3, [r3]
 5949 0048 DBB2     		uxtb	r3, r3
 5950 004a 1433     		adds	r3, r3, #20
 5951 004c 9BB2     		uxth	r3, r3
 5952 004e 0120     		movs	r0, #1
 5953 0050 1946     		mov	r1, r3
 5954 0052 FFF7FEFF 		bl	set_imagen
 5955 0056 06E0     		b	.L301
 5956              	.L302:
1372:.\main.c      ****         }
1373:.\main.c      ****     }
1374:.\main.c      ****     else{
1375:.\main.c      ****         count_protector++;
 5957              		.loc 1 1375 0
 5958 0058 044B     		ldr	r3, .L306+4
 5959 005a 1B78     		ldrb	r3, [r3]
 5960 005c DBB2     		uxtb	r3, r3
 5961 005e 0133     		adds	r3, r3, #1
 5962 0060 DAB2     		uxtb	r2, r3
 5963 0062 024B     		ldr	r3, .L306+4
 5964 0064 1A70     		strb	r2, [r3]
 5965              	.L301:
1376:.\main.c      ****     }
1377:.\main.c      **** }
 5966              		.loc 1 1377 0
 5967 0066 80BD     		pop	{r7, pc}
 5968              	.L307:
 5969              		.align	2
 5970              	.L306:
 5971 0068 00000000 		.word	flujo_LCD1
 5972 006c 00000000 		.word	count_protector
 5973              		.cfi_endproc
ARM GAS  C:\Users\SISTEM~1\AppData\Local\Temp\ccCGHuKi.s 			page 132


 5974              	.LFE72:
 5975              		.size	animacion, .-animacion
 5976              		.section	.text.animacion2,"ax",%progbits
 5977              		.align	2
 5978              		.global	animacion2
 5979              		.thumb
 5980              		.thumb_func
 5981              		.type	animacion2, %function
 5982              	animacion2:
 5983              	.LFB73:
1378:.\main.c      **** 
1379:.\main.c      **** /*
1380:.\main.c      **** ***************************************************************************************************
1381:.\main.c      **** *                                         CY_ISR(animacion)
1382:.\main.c      **** *
1383:.\main.c      **** * Description : 
1384:.\main.c      **** *               
1385:.\main.c      **** *
1386:.\main.c      **** * Argument(s) : none
1387:.\main.c      **** *
1388:.\main.c      **** * Return(s)   : none
1389:.\main.c      **** *
1390:.\main.c      **** * Caller(s)   : 
1391:.\main.c      **** *
1392:.\main.c      **** * Note(s)     : none.
1393:.\main.c      **** ***************************************************************************************************
1394:.\main.c      **** */
1395:.\main.c      **** CY_ISR(animacion2){
 5984              		.loc 1 1395 0
 5985              		.cfi_startproc
 5986              		@ args = 0, pretend = 0, frame = 0
 5987              		@ frame_needed = 1, uses_anonymous_args = 0
 5988 0000 80B5     		push	{r7, lr}
 5989              		.cfi_def_cfa_offset 8
 5990              		.cfi_offset 7, -8
 5991              		.cfi_offset 14, -4
 5992 0002 00AF     		add	r7, sp, #0
 5993              		.cfi_def_cfa_register 7
1396:.\main.c      ****     Timer_Animacion2_ReadStatusRegister();
 5994              		.loc 1 1396 0
 5995 0004 FFF7FEFF 		bl	Timer_Animacion2_ReadStatusRegister
1397:.\main.c      ****     if(flujo_LCD2==1){
 5996              		.loc 1 1397 0
 5997 0008 174B     		ldr	r3, .L313
 5998 000a 1B78     		ldrb	r3, [r3]
 5999 000c DBB2     		uxtb	r3, r3
 6000 000e 012B     		cmp	r3, #1
 6001 0010 22D1     		bne	.L309
1398:.\main.c      ****         if(count_protector2<=6){
 6002              		.loc 1 1398 0
 6003 0012 164B     		ldr	r3, .L313+4
 6004 0014 1B78     		ldrb	r3, [r3]
 6005 0016 DBB2     		uxtb	r3, r3
 6006 0018 062B     		cmp	r3, #6
 6007 001a 10D8     		bhi	.L310
1399:.\main.c      ****             count_protector2++;
 6008              		.loc 1 1399 0
ARM GAS  C:\Users\SISTEM~1\AppData\Local\Temp\ccCGHuKi.s 			page 133


 6009 001c 134B     		ldr	r3, .L313+4
 6010 001e 1B78     		ldrb	r3, [r3]
 6011 0020 DBB2     		uxtb	r3, r3
 6012 0022 0133     		adds	r3, r3, #1
 6013 0024 DAB2     		uxtb	r2, r3
 6014 0026 114B     		ldr	r3, .L313+4
 6015 0028 1A70     		strb	r2, [r3]
1400:.\main.c      ****             set_imagen(2,(iprotector5+count_protector2));  
 6016              		.loc 1 1400 0
 6017 002a 104B     		ldr	r3, .L313+4
 6018 002c 1B78     		ldrb	r3, [r3]
 6019 002e DBB2     		uxtb	r3, r3
 6020 0030 1433     		adds	r3, r3, #20
 6021 0032 9BB2     		uxth	r3, r3
 6022 0034 0220     		movs	r0, #2
 6023 0036 1946     		mov	r1, r3
 6024 0038 FFF7FEFF 		bl	set_imagen
 6025 003c 13E0     		b	.L308
 6026              	.L310:
1401:.\main.c      ****         }
1402:.\main.c      ****         else{
1403:.\main.c      ****            count_protector2=0; 
 6027              		.loc 1 1403 0
 6028 003e 0B4B     		ldr	r3, .L313+4
 6029 0040 0022     		movs	r2, #0
 6030 0042 1A70     		strb	r2, [r3]
1404:.\main.c      ****            set_imagen(2,(iprotector5+count_protector2));  
 6031              		.loc 1 1404 0
 6032 0044 094B     		ldr	r3, .L313+4
 6033 0046 1B78     		ldrb	r3, [r3]
 6034 0048 DBB2     		uxtb	r3, r3
 6035 004a 1433     		adds	r3, r3, #20
 6036 004c 9BB2     		uxth	r3, r3
 6037 004e 0220     		movs	r0, #2
 6038 0050 1946     		mov	r1, r3
 6039 0052 FFF7FEFF 		bl	set_imagen
 6040 0056 06E0     		b	.L308
 6041              	.L309:
1405:.\main.c      ****         }
1406:.\main.c      ****     }
1407:.\main.c      ****     else{
1408:.\main.c      ****         count_protector2++;
 6042              		.loc 1 1408 0
 6043 0058 044B     		ldr	r3, .L313+4
 6044 005a 1B78     		ldrb	r3, [r3]
 6045 005c DBB2     		uxtb	r3, r3
 6046 005e 0133     		adds	r3, r3, #1
 6047 0060 DAB2     		uxtb	r2, r3
 6048 0062 024B     		ldr	r3, .L313+4
 6049 0064 1A70     		strb	r2, [r3]
 6050              	.L308:
1409:.\main.c      ****     }
1410:.\main.c      **** }
 6051              		.loc 1 1410 0
 6052 0066 80BD     		pop	{r7, pc}
 6053              	.L314:
 6054              		.align	2
ARM GAS  C:\Users\SISTEM~1\AppData\Local\Temp\ccCGHuKi.s 			page 134


 6055              	.L313:
 6056 0068 00000000 		.word	flujo_LCD2
 6057 006c 00000000 		.word	count_protector2
 6058              		.cfi_endproc
 6059              	.LFE73:
 6060              		.size	animacion2, .-animacion2
 6061              		.section	.text.modo_mux,"ax",%progbits
 6062              		.align	2
 6063              		.global	modo_mux
 6064              		.thumb
 6065              		.thumb_func
 6066              		.type	modo_mux, %function
 6067              	modo_mux:
 6068              	.LFB74:
1411:.\main.c      **** 
1412:.\main.c      **** /*
1413:.\main.c      **** ***************************************************************************************************
1414:.\main.c      **** *                                        CY_ISR(modo_mux)
1415:.\main.c      **** *
1416:.\main.c      **** * Description : 
1417:.\main.c      **** *               
1418:.\main.c      **** *
1419:.\main.c      **** * Argument(s) : none
1420:.\main.c      **** *
1421:.\main.c      **** * Return(s)   : none
1422:.\main.c      **** *
1423:.\main.c      **** * Caller(s)   : 
1424:.\main.c      **** *
1425:.\main.c      **** * Note(s)     : none.
1426:.\main.c      **** ***************************************************************************************************
1427:.\main.c      **** */
1428:.\main.c      **** CY_ISR(modo_mux){
 6069              		.loc 1 1428 0
 6070              		.cfi_startproc
 6071              		@ args = 0, pretend = 0, frame = 0
 6072              		@ frame_needed = 1, uses_anonymous_args = 0
 6073 0000 80B5     		push	{r7, lr}
 6074              		.cfi_def_cfa_offset 8
 6075              		.cfi_offset 7, -8
 6076              		.cfi_offset 14, -4
 6077 0002 00AF     		add	r7, sp, #0
 6078              		.cfi_def_cfa_register 7
1429:.\main.c      **** 	Timer_Modo_ReadStatusRegister();
 6079              		.loc 1 1429 0
 6080 0004 FFF7FEFF 		bl	Timer_Modo_ReadStatusRegister
1430:.\main.c      **** 	state_rf++;
 6081              		.loc 1 1430 0
 6082 0008 0F4B     		ldr	r3, .L318
 6083 000a 1B78     		ldrb	r3, [r3]	@ zero_extendqisi2
 6084 000c 0133     		adds	r3, r3, #1
 6085 000e DAB2     		uxtb	r2, r3
 6086 0010 0D4B     		ldr	r3, .L318
 6087 0012 1A70     		strb	r2, [r3]
1431:.\main.c      **** 	if(state_rf==15){
 6088              		.loc 1 1431 0
 6089 0014 0C4B     		ldr	r3, .L318
 6090 0016 1B78     		ldrb	r3, [r3]	@ zero_extendqisi2
ARM GAS  C:\Users\SISTEM~1\AppData\Local\Temp\ccCGHuKi.s 			page 135


 6091 0018 0F2B     		cmp	r3, #15
 6092 001a 14D1     		bne	.L315
1432:.\main.c      **** 		if((rventa1.autorizado!=100)&&(rventa2.autorizado!=100)){
 6093              		.loc 1 1432 0
 6094 001c 0B4B     		ldr	r3, .L318+4
 6095 001e 93F86030 		ldrb	r3, [r3, #96]	@ zero_extendqisi2
 6096 0022 642B     		cmp	r3, #100
 6097 0024 0CD0     		beq	.L317
 6098              		.loc 1 1432 0 is_stmt 0 discriminator 1
 6099 0026 0A4B     		ldr	r3, .L318+8
 6100 0028 93F86030 		ldrb	r3, [r3, #96]	@ zero_extendqisi2
 6101 002c 642B     		cmp	r3, #100
 6102 002e 07D0     		beq	.L317
1433:.\main.c      **** 			rventa1.autorizado=0;
 6103              		.loc 1 1433 0 is_stmt 1
 6104 0030 064B     		ldr	r3, .L318+4
 6105 0032 0022     		movs	r2, #0
 6106 0034 83F86020 		strb	r2, [r3, #96]
1434:.\main.c      **** 			rventa2.autorizado=0;
 6107              		.loc 1 1434 0
 6108 0038 054B     		ldr	r3, .L318+8
 6109 003a 0022     		movs	r2, #0
 6110 003c 83F86020 		strb	r2, [r3, #96]
 6111              	.L317:
1435:.\main.c      **** 		}	
1436:.\main.c      **** 		state_rf=0;
 6112              		.loc 1 1436 0
 6113 0040 014B     		ldr	r3, .L318
 6114 0042 0022     		movs	r2, #0
 6115 0044 1A70     		strb	r2, [r3]
 6116              	.L315:
1437:.\main.c      **** 	}
1438:.\main.c      **** }
 6117              		.loc 1 1438 0
 6118 0046 80BD     		pop	{r7, pc}
 6119              	.L319:
 6120              		.align	2
 6121              	.L318:
 6122 0048 00000000 		.word	state_rf
 6123 004c 00000000 		.word	rventa1
 6124 0050 00000000 		.word	rventa2
 6125              		.cfi_endproc
 6126              	.LFE74:
 6127              		.size	modo_mux, .-modo_mux
 6128              		.section	.text.main,"ax",%progbits
 6129              		.align	2
 6130              		.global	main
 6131              		.thumb
 6132              		.thumb_func
 6133              		.type	main, %function
 6134              	main:
 6135              	.LFB75:
1439:.\main.c      **** 
1440:.\main.c      **** /*
1441:.\main.c      **** ***************************************************************************************************
1442:.\main.c      **** *                                         main( void )
1443:.\main.c      **** *
ARM GAS  C:\Users\SISTEM~1\AppData\Local\Temp\ccCGHuKi.s 			page 136


1444:.\main.c      **** * Description : 
1445:.\main.c      **** *               
1446:.\main.c      **** *
1447:.\main.c      **** * Argument(s) : none
1448:.\main.c      **** *
1449:.\main.c      **** * Return(s)   : none
1450:.\main.c      **** *
1451:.\main.c      **** * Caller(s)   : 
1452:.\main.c      **** *
1453:.\main.c      **** * Note(s)     : none.
1454:.\main.c      **** ***************************************************************************************************
1455:.\main.c      **** */
1456:.\main.c      **** int main()
1457:.\main.c      **** {
 6136              		.loc 1 1457 0
 6137              		.cfi_startproc
 6138              		@ args = 0, pretend = 0, frame = 0
 6139              		@ frame_needed = 1, uses_anonymous_args = 0
 6140 0000 80B5     		push	{r7, lr}
 6141              		.cfi_def_cfa_offset 8
 6142              		.cfi_offset 7, -8
 6143              		.cfi_offset 14, -4
 6144 0002 00AF     		add	r7, sp, #0
 6145              		.cfi_def_cfa_register 7
1458:.\main.c      ****     init();
 6146              		.loc 1 1458 0
 6147 0004 FFF7FEFF 		bl	init
1459:.\main.c      **** 	init_surt();
 6148              		.loc 1 1459 0
 6149 0008 FFF7FEFF 		bl	init_surt
1460:.\main.c      **** 	CyWdtStart(CYWDT_1024_TICKS,CYWDT_LPMODE_NOCHANGE); 	
 6150              		.loc 1 1460 0
 6151 000c 0320     		movs	r0, #3
 6152 000e 0021     		movs	r1, #0
 6153 0010 FFF7FEFF 		bl	CyWdtStart
 6154              	.L321:
1461:.\main.c      ****     for(;;)
1462:.\main.c      ****     {		
1463:.\main.c      ****        	polling_rf();
 6155              		.loc 1 1463 0 discriminator 1
 6156 0014 FFF7FEFF 		bl	polling_rf
1464:.\main.c      **** 		CyWdtClear();	        
 6157              		.loc 1 1464 0 discriminator 1
 6158 0018 FFF7FEFF 		bl	CyWdtClear
1465:.\main.c      **** 		polling_surt();//30/09/2015
 6159              		.loc 1 1465 0 discriminator 1
 6160 001c FFF7FEFF 		bl	polling_surt
1466:.\main.c      **** 		CyWdtClear();//30/09/2015       
 6161              		.loc 1 1466 0 discriminator 1
 6162 0020 FFF7FEFF 		bl	CyWdtClear
1467:.\main.c      ****        	polling_LCD1();
 6163              		.loc 1 1467 0 discriminator 1
 6164 0024 FFF7FEFF 		bl	polling_LCD1
1468:.\main.c      **** 		CyWdtClear();
 6165              		.loc 1 1468 0 discriminator 1
 6166 0028 FFF7FEFF 		bl	CyWdtClear
1469:.\main.c      **** 		polling_surt();
ARM GAS  C:\Users\SISTEM~1\AppData\Local\Temp\ccCGHuKi.s 			page 137


 6167              		.loc 1 1469 0 discriminator 1
 6168 002c FFF7FEFF 		bl	polling_surt
1470:.\main.c      ****     }
 6169              		.loc 1 1470 0 discriminator 1
 6170 0030 F0E7     		b	.L321
 6171              		.cfi_endproc
 6172              	.LFE75:
 6173              		.size	main, .-main
 6174 0032 00BF     		.text
 6175              	.Letext0:
 6176              		.file 2 "c:\\program files (x86)\\cypress\\psoc creator\\3.2\\psoc creator\\import\\gnu\\arm\\4.8.
 6177              		.file 3 "c:\\program files (x86)\\cypress\\psoc creator\\3.2\\psoc creator\\import\\gnu\\arm\\4.8.
 6178              		.file 4 "Generated_Source\\PSoC5/cytypes.h"
 6179              		.file 5 ".\\VariablesG.h"
 6180              		.file 6 "Generated_Source\\PSoC5/LCD_1.h"
 6181              		.file 7 "Generated_Source\\PSoC5/PC.h"
 6182              		.file 8 "Generated_Source\\PSoC5/core_cm3.h"
 6183              		.section	.debug_info,"",%progbits
 6184              	.Ldebug_info0:
 6185 0000 FC0A0000 		.4byte	0xafc
 6186 0004 0400     		.2byte	0x4
 6187 0006 00000000 		.4byte	.Ldebug_abbrev0
 6188 000a 04       		.byte	0x4
 6189 000b 01       		.uleb128 0x1
 6190 000c 70040000 		.4byte	.LASF126
 6191 0010 01       		.byte	0x1
 6192 0011 81050000 		.4byte	.LASF127
 6193 0015 DB020000 		.4byte	.LASF128
 6194 0019 00000000 		.4byte	.Ldebug_ranges0+0
 6195 001d 00000000 		.4byte	0
 6196 0021 00000000 		.4byte	.Ldebug_line0
 6197 0025 02       		.uleb128 0x2
 6198 0026 01       		.byte	0x1
 6199 0027 06       		.byte	0x6
 6200 0028 16050000 		.4byte	.LASF0
 6201 002c 02       		.uleb128 0x2
 6202 002d 01       		.byte	0x1
 6203 002e 08       		.byte	0x8
 6204 002f 62040000 		.4byte	.LASF1
 6205 0033 02       		.uleb128 0x2
 6206 0034 02       		.byte	0x2
 6207 0035 05       		.byte	0x5
 6208 0036 AE030000 		.4byte	.LASF2
 6209 003a 02       		.uleb128 0x2
 6210 003b 02       		.byte	0x2
 6211 003c 07       		.byte	0x7
 6212 003d 2B050000 		.4byte	.LASF3
 6213 0041 03       		.uleb128 0x3
 6214 0042 94000000 		.4byte	.LASF9
 6215 0046 02       		.byte	0x2
 6216 0047 37       		.byte	0x37
 6217 0048 4C000000 		.4byte	0x4c
 6218 004c 02       		.uleb128 0x2
 6219 004d 04       		.byte	0x4
 6220 004e 05       		.byte	0x5
 6221 004f C4030000 		.4byte	.LASF4
 6222 0053 02       		.uleb128 0x2
ARM GAS  C:\Users\SISTEM~1\AppData\Local\Temp\ccCGHuKi.s 			page 138


 6223 0054 04       		.byte	0x4
 6224 0055 07       		.byte	0x7
 6225 0056 2C040000 		.4byte	.LASF5
 6226 005a 02       		.uleb128 0x2
 6227 005b 08       		.byte	0x8
 6228 005c 05       		.byte	0x5
 6229 005d 9D020000 		.4byte	.LASF6
 6230 0061 02       		.uleb128 0x2
 6231 0062 08       		.byte	0x8
 6232 0063 07       		.byte	0x7
 6233 0064 57010000 		.4byte	.LASF7
 6234 0068 04       		.uleb128 0x4
 6235 0069 04       		.byte	0x4
 6236 006a 05       		.byte	0x5
 6237 006b 696E7400 		.ascii	"int\000"
 6238 006f 02       		.uleb128 0x2
 6239 0070 04       		.byte	0x4
 6240 0071 07       		.byte	0x7
 6241 0072 7F000000 		.4byte	.LASF8
 6242 0076 03       		.uleb128 0x3
 6243 0077 45040000 		.4byte	.LASF10
 6244 007b 03       		.byte	0x3
 6245 007c 41       		.byte	0x41
 6246 007d 41000000 		.4byte	0x41
 6247 0081 03       		.uleb128 0x3
 6248 0082 43050000 		.4byte	.LASF11
 6249 0086 04       		.byte	0x4
 6250 0087 B4       		.byte	0xb4
 6251 0088 2C000000 		.4byte	0x2c
 6252 008c 03       		.uleb128 0x3
 6253 008d 1D020000 		.4byte	.LASF12
 6254 0091 04       		.byte	0x4
 6255 0092 B5       		.byte	0xb5
 6256 0093 3A000000 		.4byte	0x3a
 6257 0097 03       		.uleb128 0x3
 6258 0098 44030000 		.4byte	.LASF13
 6259 009c 04       		.byte	0x4
 6260 009d B6       		.byte	0xb6
 6261 009e 53000000 		.4byte	0x53
 6262 00a2 02       		.uleb128 0x2
 6263 00a3 04       		.byte	0x4
 6264 00a4 04       		.byte	0x4
 6265 00a5 0B010000 		.4byte	.LASF14
 6266 00a9 02       		.uleb128 0x2
 6267 00aa 08       		.byte	0x8
 6268 00ab 04       		.byte	0x4
 6269 00ac 49050000 		.4byte	.LASF15
 6270 00b0 02       		.uleb128 0x2
 6271 00b1 01       		.byte	0x1
 6272 00b2 08       		.byte	0x8
 6273 00b3 FC010000 		.4byte	.LASF16
 6274 00b7 05       		.uleb128 0x5
 6275 00b8 81000000 		.4byte	0x81
 6276 00bc 05       		.uleb128 0x5
 6277 00bd 8C000000 		.4byte	0x8c
 6278 00c1 06       		.uleb128 0x6
 6279 00c2 88030000 		.4byte	.LASF17
ARM GAS  C:\Users\SISTEM~1\AppData\Local\Temp\ccCGHuKi.s 			page 139


 6280 00c6 04       		.byte	0x4
 6281 00c7 6001     		.2byte	0x160
 6282 00c9 CD000000 		.4byte	0xcd
 6283 00cd 05       		.uleb128 0x5
 6284 00ce 97000000 		.4byte	0x97
 6285 00d2 02       		.uleb128 0x2
 6286 00d3 04       		.byte	0x4
 6287 00d4 07       		.byte	0x7
 6288 00d5 23040000 		.4byte	.LASF18
 6289 00d9 07       		.uleb128 0x7
 6290 00da B0000000 		.4byte	0xb0
 6291 00de E9000000 		.4byte	0xe9
 6292 00e2 08       		.uleb128 0x8
 6293 00e3 D2000000 		.4byte	0xd2
 6294 00e7 07       		.byte	0x7
 6295 00e8 00       		.byte	0
 6296 00e9 07       		.uleb128 0x7
 6297 00ea 81000000 		.4byte	0x81
 6298 00ee F9000000 		.4byte	0xf9
 6299 00f2 08       		.uleb128 0x8
 6300 00f3 D2000000 		.4byte	0xd2
 6301 00f7 03       		.byte	0x3
 6302 00f8 00       		.byte	0
 6303 00f9 02       		.uleb128 0x2
 6304 00fa 08       		.byte	0x8
 6305 00fb 04       		.byte	0x4
 6306 00fc 7C030000 		.4byte	.LASF19
 6307 0100 09       		.uleb128 0x9
 6308 0101 DA030000 		.4byte	.LASF24
 6309 0105 5D       		.byte	0x5d
 6310 0106 05       		.byte	0x5
 6311 0107 55       		.byte	0x55
 6312 0108 55010000 		.4byte	0x155
 6313 010c 0A       		.uleb128 0xa
 6314 010d 64697200 		.ascii	"dir\000"
 6315 0111 05       		.byte	0x5
 6316 0112 56       		.byte	0x56
 6317 0113 B7000000 		.4byte	0xb7
 6318 0117 00       		.byte	0
 6319 0118 0B       		.uleb128 0xb
 6320 0119 65030000 		.4byte	.LASF20
 6321 011d 05       		.byte	0x5
 6322 011e 57       		.byte	0x57
 6323 011f B7000000 		.4byte	0xb7
 6324 0123 01       		.byte	0x1
 6325 0124 0B       		.uleb128 0xb
 6326 0125 56020000 		.4byte	.LASF21
 6327 0129 05       		.byte	0x5
 6328 012a 58       		.byte	0x58
 6329 012b 6B010000 		.4byte	0x16b
 6330 012f 02       		.byte	0x2
 6331 0130 0A       		.uleb128 0xa
 6332 0131 70707500 		.ascii	"ppu\000"
 6333 0135 05       		.byte	0x5
 6334 0136 59       		.byte	0x59
 6335 0137 86010000 		.4byte	0x186
 6336 013b 4A       		.byte	0x4a
ARM GAS  C:\Users\SISTEM~1\AppData\Local\Temp\ccCGHuKi.s 			page 140


 6337 013c 0B       		.uleb128 0xb
 6338 013d 65050000 		.4byte	.LASF22
 6339 0141 05       		.byte	0x5
 6340 0142 5A       		.byte	0x5a
 6341 0143 A1010000 		.4byte	0x1a1
 6342 0147 59       		.byte	0x59
 6343 0148 0B       		.uleb128 0xb
 6344 0149 13020000 		.4byte	.LASF23
 6345 014d 05       		.byte	0x5
 6346 014e 5B       		.byte	0x5b
 6347 014f B7000000 		.4byte	0xb7
 6348 0153 5C       		.byte	0x5c
 6349 0154 00       		.byte	0
 6350 0155 07       		.uleb128 0x7
 6351 0156 81000000 		.4byte	0x81
 6352 015a 6B010000 		.4byte	0x16b
 6353 015e 08       		.uleb128 0x8
 6354 015f D2000000 		.4byte	0xd2
 6355 0163 02       		.byte	0x2
 6356 0164 08       		.uleb128 0x8
 6357 0165 D2000000 		.4byte	0xd2
 6358 0169 17       		.byte	0x17
 6359 016a 00       		.byte	0
 6360 016b 05       		.uleb128 0x5
 6361 016c 55010000 		.4byte	0x155
 6362 0170 07       		.uleb128 0x7
 6363 0171 81000000 		.4byte	0x81
 6364 0175 86010000 		.4byte	0x186
 6365 0179 08       		.uleb128 0x8
 6366 017a D2000000 		.4byte	0xd2
 6367 017e 02       		.byte	0x2
 6368 017f 08       		.uleb128 0x8
 6369 0180 D2000000 		.4byte	0xd2
 6370 0184 04       		.byte	0x4
 6371 0185 00       		.byte	0
 6372 0186 05       		.uleb128 0x5
 6373 0187 70010000 		.4byte	0x170
 6374 018b 07       		.uleb128 0x7
 6375 018c 81000000 		.4byte	0x81
 6376 0190 A1010000 		.4byte	0x1a1
 6377 0194 08       		.uleb128 0x8
 6378 0195 D2000000 		.4byte	0xd2
 6379 0199 02       		.byte	0x2
 6380 019a 08       		.uleb128 0x8
 6381 019b D2000000 		.4byte	0xd2
 6382 019f 00       		.byte	0
 6383 01a0 00       		.byte	0
 6384 01a1 05       		.uleb128 0x5
 6385 01a2 8B010000 		.4byte	0x18b
 6386 01a6 09       		.uleb128 0x9
 6387 01a7 4B030000 		.4byte	.LASF25
 6388 01ab 61       		.byte	0x61
 6389 01ac 05       		.byte	0x5
 6390 01ad 6C       		.byte	0x6c
 6391 01ae 7D020000 		.4byte	0x27d
 6392 01b2 0B       		.uleb128 0xb
 6393 01b3 CB000000 		.4byte	.LASF26
ARM GAS  C:\Users\SISTEM~1\AppData\Local\Temp\ccCGHuKi.s 			page 141


 6394 01b7 05       		.byte	0x5
 6395 01b8 6D       		.byte	0x6d
 6396 01b9 81000000 		.4byte	0x81
 6397 01bd 00       		.byte	0
 6398 01be 0B       		.uleb128 0xb
 6399 01bf 65050000 		.4byte	.LASF22
 6400 01c3 05       		.byte	0x5
 6401 01c4 6E       		.byte	0x6e
 6402 01c5 81000000 		.4byte	0x81
 6403 01c9 01       		.byte	0x1
 6404 01ca 0A       		.uleb128 0xa
 6405 01cb 70707500 		.ascii	"ppu\000"
 6406 01cf 05       		.byte	0x5
 6407 01d0 6F       		.byte	0x6f
 6408 01d1 7D020000 		.4byte	0x27d
 6409 01d5 02       		.byte	0x2
 6410 01d6 0B       		.uleb128 0xb
 6411 01d7 52030000 		.4byte	.LASF27
 6412 01db 05       		.byte	0x5
 6413 01dc 70       		.byte	0x70
 6414 01dd 8D020000 		.4byte	0x28d
 6415 01e1 07       		.byte	0x7
 6416 01e2 0B       		.uleb128 0xb
 6417 01e3 AC010000 		.4byte	.LASF28
 6418 01e7 05       		.byte	0x5
 6419 01e8 71       		.byte	0x71
 6420 01e9 8D020000 		.4byte	0x28d
 6421 01ed 10       		.byte	0x10
 6422 01ee 0B       		.uleb128 0xb
 6423 01ef B1020000 		.4byte	.LASF29
 6424 01f3 05       		.byte	0x5
 6425 01f4 72       		.byte	0x72
 6426 01f5 81000000 		.4byte	0x81
 6427 01f9 19       		.byte	0x19
 6428 01fa 0B       		.uleb128 0xb
 6429 01fb 5C050000 		.4byte	.LASF30
 6430 01ff 05       		.byte	0x5
 6431 0200 73       		.byte	0x73
 6432 0201 81000000 		.4byte	0x81
 6433 0205 1A       		.byte	0x1a
 6434 0206 0B       		.uleb128 0xb
 6435 0207 04010000 		.4byte	.LASF31
 6436 020b 05       		.byte	0x5
 6437 020c 74       		.byte	0x74
 6438 020d 9D020000 		.4byte	0x29d
 6439 0211 1B       		.byte	0x1b
 6440 0212 0A       		.uleb128 0xa
 6441 0213 696400   		.ascii	"id\000"
 6442 0216 05       		.byte	0x5
 6443 0217 75       		.byte	0x75
 6444 0218 AD020000 		.4byte	0x2ad
 6445 021c 23       		.byte	0x23
 6446 021d 0A       		.uleb128 0xa
 6447 021e 6B6D00   		.ascii	"km\000"
 6448 0221 05       		.byte	0x5
 6449 0222 76       		.byte	0x76
 6450 0223 BD020000 		.4byte	0x2bd
ARM GAS  C:\Users\SISTEM~1\AppData\Local\Temp\ccCGHuKi.s 			page 142


 6451 0227 33       		.byte	0x33
 6452 0228 0B       		.uleb128 0xb
 6453 0229 8A010000 		.4byte	.LASF32
 6454 022d 05       		.byte	0x5
 6455 022e 77       		.byte	0x77
 6456 022f 8D020000 		.4byte	0x28d
 6457 0233 3E       		.byte	0x3e
 6458 0234 0B       		.uleb128 0xb
 6459 0235 4E010000 		.4byte	.LASF33
 6460 0239 05       		.byte	0x5
 6461 023a 78       		.byte	0x78
 6462 023b 81000000 		.4byte	0x81
 6463 023f 47       		.byte	0x47
 6464 0240 0B       		.uleb128 0xb
 6465 0241 3A020000 		.4byte	.LASF34
 6466 0245 05       		.byte	0x5
 6467 0246 79       		.byte	0x79
 6468 0247 81000000 		.4byte	0x81
 6469 024b 48       		.byte	0x48
 6470 024c 0B       		.uleb128 0xb
 6471 024d D4020000 		.4byte	.LASF35
 6472 0251 05       		.byte	0x5
 6473 0252 7A       		.byte	0x7a
 6474 0253 BD020000 		.4byte	0x2bd
 6475 0257 49       		.byte	0x49
 6476 0258 0B       		.uleb128 0xb
 6477 0259 00000000 		.4byte	.LASF36
 6478 025d 05       		.byte	0x5
 6479 025e 7B       		.byte	0x7b
 6480 025f BD020000 		.4byte	0x2bd
 6481 0263 54       		.byte	0x54
 6482 0264 0B       		.uleb128 0xb
 6483 0265 4A020000 		.4byte	.LASF37
 6484 0269 05       		.byte	0x5
 6485 026a 7C       		.byte	0x7c
 6486 026b 81000000 		.4byte	0x81
 6487 026f 5F       		.byte	0x5f
 6488 0270 0B       		.uleb128 0xb
 6489 0271 57040000 		.4byte	.LASF38
 6490 0275 05       		.byte	0x5
 6491 0276 7D       		.byte	0x7d
 6492 0277 81000000 		.4byte	0x81
 6493 027b 60       		.byte	0x60
 6494 027c 00       		.byte	0
 6495 027d 07       		.uleb128 0x7
 6496 027e 81000000 		.4byte	0x81
 6497 0282 8D020000 		.4byte	0x28d
 6498 0286 08       		.uleb128 0x8
 6499 0287 D2000000 		.4byte	0xd2
 6500 028b 04       		.byte	0x4
 6501 028c 00       		.byte	0
 6502 028d 07       		.uleb128 0x7
 6503 028e 81000000 		.4byte	0x81
 6504 0292 9D020000 		.4byte	0x29d
 6505 0296 08       		.uleb128 0x8
 6506 0297 D2000000 		.4byte	0xd2
 6507 029b 08       		.byte	0x8
ARM GAS  C:\Users\SISTEM~1\AppData\Local\Temp\ccCGHuKi.s 			page 143


 6508 029c 00       		.byte	0
 6509 029d 07       		.uleb128 0x7
 6510 029e 81000000 		.4byte	0x81
 6511 02a2 AD020000 		.4byte	0x2ad
 6512 02a6 08       		.uleb128 0x8
 6513 02a7 D2000000 		.4byte	0xd2
 6514 02ab 07       		.byte	0x7
 6515 02ac 00       		.byte	0
 6516 02ad 07       		.uleb128 0x7
 6517 02ae 81000000 		.4byte	0x81
 6518 02b2 BD020000 		.4byte	0x2bd
 6519 02b6 08       		.uleb128 0x8
 6520 02b7 D2000000 		.4byte	0xd2
 6521 02bb 0F       		.byte	0xf
 6522 02bc 00       		.byte	0
 6523 02bd 07       		.uleb128 0x7
 6524 02be 81000000 		.4byte	0x81
 6525 02c2 CD020000 		.4byte	0x2cd
 6526 02c6 08       		.uleb128 0x8
 6527 02c7 D2000000 		.4byte	0xd2
 6528 02cb 0A       		.byte	0xa
 6529 02cc 00       		.byte	0
 6530 02cd 0C       		.uleb128 0xc
 6531 02ce 1E040000 		.4byte	.LASF44
 6532 02d2 01       		.byte	0x1
 6533 02d3 4E       		.byte	0x4e
 6534 02d4 00000000 		.4byte	.LFB63
 6535 02d8 80030000 		.4byte	.LFE63-.LFB63
 6536 02dc 01       		.uleb128 0x1
 6537 02dd 9C       		.byte	0x9c
 6538 02de EF020000 		.4byte	0x2ef
 6539 02e2 0D       		.uleb128 0xd
 6540 02e3 7800     		.ascii	"x\000"
 6541 02e5 01       		.byte	0x1
 6542 02e6 4F       		.byte	0x4f
 6543 02e7 81000000 		.4byte	0x81
 6544 02eb 02       		.uleb128 0x2
 6545 02ec 91       		.byte	0x91
 6546 02ed 6F       		.sleb128 -17
 6547 02ee 00       		.byte	0
 6548 02ef 0E       		.uleb128 0xe
 6549 02f0 8D020000 		.4byte	.LASF129
 6550 02f4 01       		.byte	0x1
 6551 02f5 C4       		.byte	0xc4
 6552 02f6 81000000 		.4byte	0x81
 6553 02fa 00000000 		.4byte	.LFB64
 6554 02fe 84000000 		.4byte	.LFE64-.LFB64
 6555 0302 01       		.uleb128 0x1
 6556 0303 9C       		.byte	0x9c
 6557 0304 5E030000 		.4byte	0x35e
 6558 0308 0F       		.uleb128 0xf
 6559 0309 50020000 		.4byte	.LASF39
 6560 030d 01       		.byte	0x1
 6561 030e C4       		.byte	0xc4
 6562 030f 5E030000 		.4byte	0x35e
 6563 0313 03       		.uleb128 0x3
 6564 0314 91       		.byte	0x91
ARM GAS  C:\Users\SISTEM~1\AppData\Local\Temp\ccCGHuKi.s 			page 144


 6565 0315 EC7D     		.sleb128 -276
 6566 0317 0F       		.uleb128 0xf
 6567 0318 3F030000 		.4byte	.LASF40
 6568 031c 01       		.byte	0x1
 6569 031d C4       		.byte	0xc4
 6570 031e 8C000000 		.4byte	0x8c
 6571 0322 03       		.uleb128 0x3
 6572 0323 91       		.byte	0x91
 6573 0324 EA7D     		.sleb128 -278
 6574 0326 10       		.uleb128 0x10
 6575 0327 2C010000 		.4byte	.LASF41
 6576 032b 01       		.byte	0x1
 6577 032c C5       		.byte	0xc5
 6578 032d 81000000 		.4byte	0x81
 6579 0331 02       		.uleb128 0x2
 6580 0332 91       		.byte	0x91
 6581 0333 77       		.sleb128 -9
 6582 0334 10       		.uleb128 0x10
 6583 0335 35010000 		.4byte	.LASF42
 6584 0339 01       		.byte	0x1
 6585 033a C5       		.byte	0xc5
 6586 033b 81000000 		.4byte	0x81
 6587 033f 02       		.uleb128 0x2
 6588 0340 91       		.byte	0x91
 6589 0341 73       		.sleb128 -13
 6590 0342 0D       		.uleb128 0xd
 6591 0343 6900     		.ascii	"i\000"
 6592 0345 01       		.byte	0x1
 6593 0346 C6       		.byte	0xc6
 6594 0347 8C000000 		.4byte	0x8c
 6595 034b 02       		.uleb128 0x2
 6596 034c 91       		.byte	0x91
 6597 034d 74       		.sleb128 -12
 6598 034e 10       		.uleb128 0x10
 6599 034f 0D020000 		.4byte	.LASF43
 6600 0353 01       		.byte	0x1
 6601 0354 C7       		.byte	0xc7
 6602 0355 64030000 		.4byte	0x364
 6603 0359 03       		.uleb128 0x3
 6604 035a 91       		.byte	0x91
 6605 035b F07D     		.sleb128 -272
 6606 035d 00       		.byte	0
 6607 035e 11       		.uleb128 0x11
 6608 035f 04       		.byte	0x4
 6609 0360 81000000 		.4byte	0x81
 6610 0364 07       		.uleb128 0x7
 6611 0365 81000000 		.4byte	0x81
 6612 0369 74030000 		.4byte	0x374
 6613 036d 08       		.uleb128 0x8
 6614 036e D2000000 		.4byte	0xd2
 6615 0372 FF       		.byte	0xff
 6616 0373 00       		.byte	0
 6617 0374 0C       		.uleb128 0xc
 6618 0375 22050000 		.4byte	.LASF45
 6619 0379 01       		.byte	0x1
 6620 037a F0       		.byte	0xf0
 6621 037b 00000000 		.4byte	.LFB65
ARM GAS  C:\Users\SISTEM~1\AppData\Local\Temp\ccCGHuKi.s 			page 145


 6622 037f 84000000 		.4byte	.LFE65-.LFB65
 6623 0383 01       		.uleb128 0x1
 6624 0384 9C       		.byte	0x9c
 6625 0385 A6030000 		.4byte	0x3a6
 6626 0389 12       		.uleb128 0x12
 6627 038a 6C636400 		.ascii	"lcd\000"
 6628 038e 01       		.byte	0x1
 6629 038f F0       		.byte	0xf0
 6630 0390 81000000 		.4byte	0x81
 6631 0394 02       		.uleb128 0x2
 6632 0395 91       		.byte	0x91
 6633 0396 77       		.sleb128 -9
 6634 0397 0F       		.uleb128 0xf
 6635 0398 75030000 		.4byte	.LASF46
 6636 039c 01       		.byte	0x1
 6637 039d F0       		.byte	0xf0
 6638 039e 8C000000 		.4byte	0x8c
 6639 03a2 02       		.uleb128 0x2
 6640 03a3 91       		.byte	0x91
 6641 03a4 74       		.sleb128 -12
 6642 03a5 00       		.byte	0
 6643 03a6 13       		.uleb128 0x13
 6644 03a7 75000000 		.4byte	.LASF47
 6645 03ab 01       		.byte	0x1
 6646 03ac 1301     		.2byte	0x113
 6647 03ae 00000000 		.4byte	.LFB66
 6648 03b2 18030000 		.4byte	.LFE66-.LFB66
 6649 03b6 01       		.uleb128 0x1
 6650 03b7 9C       		.byte	0x9c
 6651 03b8 DA030000 		.4byte	0x3da
 6652 03bc 14       		.uleb128 0x14
 6653 03bd 65030000 		.4byte	.LASF20
 6654 03c1 01       		.byte	0x1
 6655 03c2 1401     		.2byte	0x114
 6656 03c4 81000000 		.4byte	0x81
 6657 03c8 02       		.uleb128 0x2
 6658 03c9 91       		.byte	0x91
 6659 03ca 76       		.sleb128 -10
 6660 03cb 15       		.uleb128 0x15
 6661 03cc 6F6B00   		.ascii	"ok\000"
 6662 03cf 01       		.byte	0x1
 6663 03d0 1401     		.2byte	0x114
 6664 03d2 81000000 		.4byte	0x81
 6665 03d6 02       		.uleb128 0x2
 6666 03d7 91       		.byte	0x91
 6667 03d8 77       		.sleb128 -9
 6668 03d9 00       		.byte	0
 6669 03da 13       		.uleb128 0x13
 6670 03db 09000000 		.4byte	.LASF48
 6671 03df 01       		.byte	0x1
 6672 03e0 A601     		.2byte	0x1a6
 6673 03e2 00000000 		.4byte	.LFB67
 6674 03e6 2C040000 		.4byte	.LFE67-.LFB67
 6675 03ea 01       		.uleb128 0x1
 6676 03eb 9C       		.byte	0x9c
 6677 03ec 62040000 		.4byte	0x462
 6678 03f0 14       		.uleb128 0x14
ARM GAS  C:\Users\SISTEM~1\AppData\Local\Temp\ccCGHuKi.s 			page 146


 6679 03f1 24020000 		.4byte	.LASF49
 6680 03f5 01       		.byte	0x1
 6681 03f6 A701     		.2byte	0x1a7
 6682 03f8 8C000000 		.4byte	0x8c
 6683 03fc 02       		.uleb128 0x2
 6684 03fd 91       		.byte	0x91
 6685 03fe 70       		.sleb128 -16
 6686 03ff 14       		.uleb128 0x14
 6687 0400 14000000 		.4byte	.LASF50
 6688 0404 01       		.byte	0x1
 6689 0405 A701     		.2byte	0x1a7
 6690 0407 8C000000 		.4byte	0x8c
 6691 040b 02       		.uleb128 0x2
 6692 040c 91       		.byte	0x91
 6693 040d 6E       		.sleb128 -18
 6694 040e 14       		.uleb128 0x14
 6695 040f 3F030000 		.4byte	.LASF40
 6696 0413 01       		.byte	0x1
 6697 0414 A701     		.2byte	0x1a7
 6698 0416 8C000000 		.4byte	0x8c
 6699 041a 02       		.uleb128 0x2
 6700 041b 91       		.byte	0x91
 6701 041c 76       		.sleb128 -10
 6702 041d 16       		.uleb128 0x16
 6703 041e 6900     		.ascii	"i\000"
 6704 0420 01       		.byte	0x1
 6705 0421 A701     		.2byte	0x1a7
 6706 0423 8C000000 		.4byte	0x8c
 6707 0427 15       		.uleb128 0x15
 6708 0428 7800     		.ascii	"x\000"
 6709 042a 01       		.byte	0x1
 6710 042b A701     		.2byte	0x1a7
 6711 042d 8C000000 		.4byte	0x8c
 6712 0431 02       		.uleb128 0x2
 6713 0432 91       		.byte	0x91
 6714 0433 74       		.sleb128 -12
 6715 0434 14       		.uleb128 0x14
 6716 0435 7A010000 		.4byte	.LASF51
 6717 0439 01       		.byte	0x1
 6718 043a A701     		.2byte	0x1a7
 6719 043c 8C000000 		.4byte	0x8c
 6720 0440 02       		.uleb128 0x2
 6721 0441 91       		.byte	0x91
 6722 0442 72       		.sleb128 -14
 6723 0443 14       		.uleb128 0x14
 6724 0444 A3000000 		.4byte	.LASF52
 6725 0448 01       		.byte	0x1
 6726 0449 A801     		.2byte	0x1a8
 6727 044b 7D020000 		.4byte	0x27d
 6728 044f 02       		.uleb128 0x2
 6729 0450 91       		.byte	0x91
 6730 0451 68       		.sleb128 -24
 6731 0452 14       		.uleb128 0x14
 6732 0453 04010000 		.4byte	.LASF31
 6733 0457 01       		.byte	0x1
 6734 0458 A801     		.2byte	0x1a8
 6735 045a 9D020000 		.4byte	0x29d
ARM GAS  C:\Users\SISTEM~1\AppData\Local\Temp\ccCGHuKi.s 			page 147


 6736 045e 02       		.uleb128 0x2
 6737 045f 91       		.byte	0x91
 6738 0460 60       		.sleb128 -32
 6739 0461 00       		.byte	0
 6740 0462 13       		.uleb128 0x13
 6741 0463 90010000 		.4byte	.LASF53
 6742 0467 01       		.byte	0x1
 6743 0468 5102     		.2byte	0x251
 6744 046a 00000000 		.4byte	.LFB68
 6745 046e A4000000 		.4byte	.LFE68-.LFB68
 6746 0472 01       		.uleb128 0x1
 6747 0473 9C       		.byte	0x9c
 6748 0474 88040000 		.4byte	0x488
 6749 0478 14       		.uleb128 0x14
 6750 0479 45020000 		.4byte	.LASF54
 6751 047d 01       		.byte	0x1
 6752 047e 5202     		.2byte	0x252
 6753 0480 81000000 		.4byte	0x81
 6754 0484 02       		.uleb128 0x2
 6755 0485 91       		.byte	0x91
 6756 0486 77       		.sleb128 -9
 6757 0487 00       		.byte	0
 6758 0488 13       		.uleb128 0x13
 6759 0489 BA020000 		.4byte	.LASF55
 6760 048d 01       		.byte	0x1
 6761 048e 8002     		.2byte	0x280
 6762 0490 00000000 		.4byte	.LFB69
 6763 0494 B81A0000 		.4byte	.LFE69-.LFB69
 6764 0498 01       		.uleb128 0x1
 6765 0499 9C       		.byte	0x9c
 6766 049a F5040000 		.4byte	0x4f5
 6767 049e 15       		.uleb128 0x15
 6768 049f 7800     		.ascii	"x\000"
 6769 04a1 01       		.byte	0x1
 6770 04a2 8102     		.2byte	0x281
 6771 04a4 81000000 		.4byte	0x81
 6772 04a8 02       		.uleb128 0x2
 6773 04a9 91       		.byte	0x91
 6774 04aa 6F       		.sleb128 -17
 6775 04ab 15       		.uleb128 0x15
 6776 04ac 7900     		.ascii	"y\000"
 6777 04ae 01       		.byte	0x1
 6778 04af 8102     		.2byte	0x281
 6779 04b1 81000000 		.4byte	0x81
 6780 04b5 02       		.uleb128 0x2
 6781 04b6 91       		.byte	0x91
 6782 04b7 6E       		.sleb128 -18
 6783 04b8 15       		.uleb128 0x15
 6784 04b9 61757800 		.ascii	"aux\000"
 6785 04bd 01       		.byte	0x1
 6786 04be 8102     		.2byte	0x281
 6787 04c0 F5040000 		.4byte	0x4f5
 6788 04c4 02       		.uleb128 0x2
 6789 04c5 91       		.byte	0x91
 6790 04c6 54       		.sleb128 -44
 6791 04c7 14       		.uleb128 0x14
 6792 04c8 A3000000 		.4byte	.LASF52
ARM GAS  C:\Users\SISTEM~1\AppData\Local\Temp\ccCGHuKi.s 			page 148


 6793 04cc 01       		.byte	0x1
 6794 04cd 8102     		.2byte	0x281
 6795 04cf 7D020000 		.4byte	0x27d
 6796 04d3 02       		.uleb128 0x2
 6797 04d4 91       		.byte	0x91
 6798 04d5 4C       		.sleb128 -52
 6799 04d6 14       		.uleb128 0x14
 6800 04d7 3E040000 		.4byte	.LASF56
 6801 04db 01       		.byte	0x1
 6802 04dc 8202     		.2byte	0x282
 6803 04de D9000000 		.4byte	0xd9
 6804 04e2 02       		.uleb128 0x2
 6805 04e3 91       		.byte	0x91
 6806 04e4 44       		.sleb128 -60
 6807 04e5 14       		.uleb128 0x14
 6808 04e6 1C000000 		.4byte	.LASF57
 6809 04ea 01       		.byte	0x1
 6810 04eb 8302     		.2byte	0x283
 6811 04ed A9000000 		.4byte	0xa9
 6812 04f1 02       		.uleb128 0x2
 6813 04f2 91       		.byte	0x91
 6814 04f3 60       		.sleb128 -32
 6815 04f4 00       		.byte	0
 6816 04f5 07       		.uleb128 0x7
 6817 04f6 81000000 		.4byte	0x81
 6818 04fa 05050000 		.4byte	0x505
 6819 04fe 08       		.uleb128 0x8
 6820 04ff D2000000 		.4byte	0xd2
 6821 0503 09       		.byte	0x9
 6822 0504 00       		.byte	0
 6823 0505 17       		.uleb128 0x17
 6824 0506 C7020000 		.4byte	.LASF58
 6825 050a 01       		.byte	0x1
 6826 050b 2A05     		.2byte	0x52a
 6827 050d 00000000 		.4byte	.LFB70
 6828 0511 0C000000 		.4byte	.LFE70-.LFB70
 6829 0515 01       		.uleb128 0x1
 6830 0516 9C       		.byte	0x9c
 6831 0517 17       		.uleb128 0x17
 6832 0518 D5010000 		.4byte	.LASF59
 6833 051c 01       		.byte	0x1
 6834 051d 3E05     		.2byte	0x53e
 6835 051f 00000000 		.4byte	.LFB71
 6836 0523 0C000000 		.4byte	.LFE71-.LFB71
 6837 0527 01       		.uleb128 0x1
 6838 0528 9C       		.byte	0x9c
 6839 0529 18       		.uleb128 0x18
 6840 052a F1030000 		.4byte	.LASF60
 6841 052e 01       		.byte	0x1
 6842 052f 5205     		.2byte	0x552
 6843 0531 00000000 		.4byte	.LFB72
 6844 0535 70000000 		.4byte	.LFE72-.LFB72
 6845 0539 01       		.uleb128 0x1
 6846 053a 9C       		.byte	0x9c
 6847 053b 18       		.uleb128 0x18
 6848 053c 13040000 		.4byte	.LASF61
 6849 0540 01       		.byte	0x1
ARM GAS  C:\Users\SISTEM~1\AppData\Local\Temp\ccCGHuKi.s 			page 149


 6850 0541 7305     		.2byte	0x573
 6851 0543 00000000 		.4byte	.LFB73
 6852 0547 70000000 		.4byte	.LFE73-.LFB73
 6853 054b 01       		.uleb128 0x1
 6854 054c 9C       		.byte	0x9c
 6855 054d 18       		.uleb128 0x18
 6856 054e 6C030000 		.4byte	.LASF62
 6857 0552 01       		.byte	0x1
 6858 0553 9405     		.2byte	0x594
 6859 0555 00000000 		.4byte	.LFB74
 6860 0559 54000000 		.4byte	.LFE74-.LFB74
 6861 055d 01       		.uleb128 0x1
 6862 055e 9C       		.byte	0x9c
 6863 055f 19       		.uleb128 0x19
 6864 0560 3E050000 		.4byte	.LASF63
 6865 0564 01       		.byte	0x1
 6866 0565 B005     		.2byte	0x5b0
 6867 0567 68000000 		.4byte	0x68
 6868 056b 00000000 		.4byte	.LFB75
 6869 056f 32000000 		.4byte	.LFE75-.LFB75
 6870 0573 01       		.uleb128 0x1
 6871 0574 9C       		.byte	0x9c
 6872 0575 1A       		.uleb128 0x1a
 6873 0576 39000000 		.4byte	.LASF64
 6874 057a 06       		.byte	0x6
 6875 057b 3E01     		.2byte	0x13e
 6876 057d 81050000 		.4byte	0x581
 6877 0581 05       		.uleb128 0x5
 6878 0582 9D020000 		.4byte	0x29d
 6879 0586 07       		.uleb128 0x7
 6880 0587 81000000 		.4byte	0x81
 6881 058b 97050000 		.4byte	0x597
 6882 058f 1B       		.uleb128 0x1b
 6883 0590 D2000000 		.4byte	0xd2
 6884 0594 DB05     		.2byte	0x5db
 6885 0596 00       		.byte	0
 6886 0597 1A       		.uleb128 0x1a
 6887 0598 B8030000 		.4byte	.LASF65
 6888 059c 07       		.byte	0x7
 6889 059d 3E01     		.2byte	0x13e
 6890 059f A3050000 		.4byte	0x5a3
 6891 05a3 05       		.uleb128 0x5
 6892 05a4 86050000 		.4byte	0x586
 6893 05a8 1A       		.uleb128 0x1a
 6894 05a9 CD030000 		.4byte	.LASF66
 6895 05ad 08       		.byte	0x8
 6896 05ae 2A06     		.2byte	0x62a
 6897 05b0 B4050000 		.4byte	0x5b4
 6898 05b4 05       		.uleb128 0x5
 6899 05b5 76000000 		.4byte	0x76
 6900 05b9 1C       		.uleb128 0x1c
 6901 05ba 6B020000 		.4byte	.LASF67
 6902 05be 05       		.byte	0x5
 6903 05bf 40       		.byte	0x40
 6904 05c0 B7000000 		.4byte	0xb7
 6905 05c4 05       		.uleb128 0x5
 6906 05c5 03       		.byte	0x3
ARM GAS  C:\Users\SISTEM~1\AppData\Local\Temp\ccCGHuKi.s 			page 150


 6907 05c6 00000000 		.4byte	count_teclas1
 6908 05ca 1C       		.uleb128 0x1c
 6909 05cb E3030000 		.4byte	.LASF68
 6910 05cf 05       		.byte	0x5
 6911 05d0 40       		.byte	0x40
 6912 05d1 B7000000 		.4byte	0xb7
 6913 05d5 05       		.uleb128 0x5
 6914 05d6 03       		.byte	0x3
 6915 05d7 00000000 		.4byte	comas1
 6916 05db 1C       		.uleb128 0x1c
 6917 05dc EA030000 		.4byte	.LASF69
 6918 05e0 05       		.byte	0x5
 6919 05e1 40       		.byte	0x40
 6920 05e2 B7000000 		.4byte	0xb7
 6921 05e6 05       		.uleb128 0x5
 6922 05e7 03       		.byte	0x3
 6923 05e8 00000000 		.4byte	comas2
 6924 05ec 1C       		.uleb128 0x1c
 6925 05ed 56000000 		.4byte	.LASF70
 6926 05f1 05       		.byte	0x5
 6927 05f2 40       		.byte	0x40
 6928 05f3 B7000000 		.4byte	0xb7
 6929 05f7 05       		.uleb128 0x5
 6930 05f8 03       		.byte	0x3
 6931 05f9 00000000 		.4byte	id_coma1
 6932 05fd 1C       		.uleb128 0x1c
 6933 05fe BD010000 		.4byte	.LASF71
 6934 0602 05       		.byte	0x5
 6935 0603 40       		.byte	0x40
 6936 0604 B7000000 		.4byte	0xb7
 6937 0608 05       		.uleb128 0x5
 6938 0609 03       		.byte	0x3
 6939 060a 00000000 		.4byte	id_teclado1
 6940 060e 1C       		.uleb128 0x1c
 6941 060f 79020000 		.4byte	.LASF72
 6942 0613 05       		.byte	0x5
 6943 0614 40       		.byte	0x40
 6944 0615 B7000000 		.4byte	0xb7
 6945 0619 05       		.uleb128 0x5
 6946 061a 03       		.byte	0x3
 6947 061b 00000000 		.4byte	count_teclas2
 6948 061f 1C       		.uleb128 0x1c
 6949 0620 5F000000 		.4byte	.LASF73
 6950 0624 05       		.byte	0x5
 6951 0625 40       		.byte	0x40
 6952 0626 B7000000 		.4byte	0xb7
 6953 062a 05       		.uleb128 0x5
 6954 062b 03       		.byte	0x3
 6955 062c 00000000 		.4byte	id_coma2
 6956 0630 1C       		.uleb128 0x1c
 6957 0631 C9010000 		.4byte	.LASF74
 6958 0635 05       		.byte	0x5
 6959 0636 40       		.byte	0x40
 6960 0637 B7000000 		.4byte	0xb7
 6961 063b 05       		.uleb128 0x5
 6962 063c 03       		.byte	0x3
 6963 063d 00000000 		.4byte	id_teclado2
ARM GAS  C:\Users\SISTEM~1\AppData\Local\Temp\ccCGHuKi.s 			page 151


 6964 0641 1C       		.uleb128 0x1c
 6965 0642 87020000 		.4byte	.LASF75
 6966 0646 05       		.byte	0x5
 6967 0647 41       		.byte	0x41
 6968 0648 BC000000 		.4byte	0xbc
 6969 064c 05       		.uleb128 0x5
 6970 064d 03       		.byte	0x3
 6971 064e 00000000 		.4byte	posx1
 6972 0652 1C       		.uleb128 0x1c
 6973 0653 33030000 		.4byte	.LASF76
 6974 0657 05       		.byte	0x5
 6975 0658 41       		.byte	0x41
 6976 0659 BC000000 		.4byte	0xbc
 6977 065d 05       		.uleb128 0x5
 6978 065e 03       		.byte	0x3
 6979 065f 00000000 		.4byte	posy1
 6980 0663 1C       		.uleb128 0x1c
 6981 0664 6B050000 		.4byte	.LASF77
 6982 0668 05       		.byte	0x5
 6983 0669 41       		.byte	0x41
 6984 066a BC000000 		.4byte	0xbc
 6985 066e 05       		.uleb128 0x5
 6986 066f 03       		.byte	0x3
 6987 0670 00000000 		.4byte	sizeletra1
 6988 0674 1C       		.uleb128 0x1c
 6989 0675 AB020000 		.4byte	.LASF78
 6990 0679 05       		.byte	0x5
 6991 067a 41       		.byte	0x41
 6992 067b BC000000 		.4byte	0xbc
 6993 067f 05       		.uleb128 0x5
 6994 0680 03       		.byte	0x3
 6995 0681 00000000 		.4byte	posx2
 6996 0685 1C       		.uleb128 0x1c
 6997 0686 39030000 		.4byte	.LASF79
 6998 068a 05       		.byte	0x5
 6999 068b 41       		.byte	0x41
 7000 068c BC000000 		.4byte	0xbc
 7001 0690 05       		.uleb128 0x5
 7002 0691 03       		.byte	0x3
 7003 0692 00000000 		.4byte	posy2
 7004 0696 1C       		.uleb128 0x1c
 7005 0697 76050000 		.4byte	.LASF80
 7006 069b 05       		.byte	0x5
 7007 069c 41       		.byte	0x41
 7008 069d BC000000 		.4byte	0xbc
 7009 06a1 05       		.uleb128 0x5
 7010 06a2 03       		.byte	0x3
 7011 06a3 00000000 		.4byte	sizeletra2
 7012 06a7 1C       		.uleb128 0x1c
 7013 06a8 B5000000 		.4byte	.LASF81
 7014 06ac 05       		.byte	0x5
 7015 06ad 42       		.byte	0x42
 7016 06ae B7000000 		.4byte	0xb7
 7017 06b2 05       		.uleb128 0x5
 7018 06b3 03       		.byte	0x3
 7019 06b4 00000000 		.4byte	teclas1
 7020 06b8 1C       		.uleb128 0x1c
ARM GAS  C:\Users\SISTEM~1\AppData\Local\Temp\ccCGHuKi.s 			page 152


 7021 06b9 BD000000 		.4byte	.LASF82
 7022 06bd 05       		.byte	0x5
 7023 06be 42       		.byte	0x42
 7024 06bf B7000000 		.4byte	0xb7
 7025 06c3 05       		.uleb128 0x5
 7026 06c4 03       		.byte	0x3
 7027 06c5 00000000 		.4byte	teclas2
 7028 06c9 1C       		.uleb128 0x1c
 7029 06ca EE000000 		.4byte	.LASF83
 7030 06ce 05       		.byte	0x5
 7031 06cf 43       		.byte	0x43
 7032 06d0 B7000000 		.4byte	0xb7
 7033 06d4 05       		.uleb128 0x5
 7034 06d5 03       		.byte	0x3
 7035 06d6 00000000 		.4byte	flujo_LCD1
 7036 06da 1C       		.uleb128 0x1c
 7037 06db F9000000 		.4byte	.LASF84
 7038 06df 05       		.byte	0x5
 7039 06e0 43       		.byte	0x43
 7040 06e1 B7000000 		.4byte	0xb7
 7041 06e5 05       		.uleb128 0x5
 7042 06e6 03       		.byte	0x3
 7043 06e7 00000000 		.4byte	flujo_LCD2
 7044 06eb 07       		.uleb128 0x7
 7045 06ec 81000000 		.4byte	0x81
 7046 06f0 FB060000 		.4byte	0x6fb
 7047 06f4 08       		.uleb128 0x8
 7048 06f5 D2000000 		.4byte	0xd2
 7049 06f9 1D       		.byte	0x1d
 7050 06fa 00       		.byte	0
 7051 06fb 1C       		.uleb128 0x1c
 7052 06fc 59030000 		.4byte	.LASF85
 7053 0700 05       		.byte	0x5
 7054 0701 44       		.byte	0x44
 7055 0702 0C070000 		.4byte	0x70c
 7056 0706 05       		.uleb128 0x5
 7057 0707 03       		.byte	0x3
 7058 0708 00000000 		.4byte	Buffer_LCD1
 7059 070c 05       		.uleb128 0x5
 7060 070d EB060000 		.4byte	0x6eb
 7061 0711 1C       		.uleb128 0x1c
 7062 0712 F0010000 		.4byte	.LASF86
 7063 0716 05       		.byte	0x5
 7064 0717 45       		.byte	0x45
 7065 0718 22070000 		.4byte	0x722
 7066 071c 05       		.uleb128 0x5
 7067 071d 03       		.byte	0x3
 7068 071e 00000000 		.4byte	Buffer_LCD2
 7069 0722 05       		.uleb128 0x5
 7070 0723 EB060000 		.4byte	0x6eb
 7071 0727 1C       		.uleb128 0x1c
 7072 0728 11010000 		.4byte	.LASF87
 7073 072c 05       		.byte	0x5
 7074 072d 46       		.byte	0x46
 7075 072e B7000000 		.4byte	0xb7
 7076 0732 05       		.uleb128 0x5
 7077 0733 03       		.byte	0x3
ARM GAS  C:\Users\SISTEM~1\AppData\Local\Temp\ccCGHuKi.s 			page 153


 7078 0734 00000000 		.4byte	count_protector
 7079 0738 1C       		.uleb128 0x1c
 7080 0739 28000000 		.4byte	.LASF88
 7081 073d 05       		.byte	0x5
 7082 073e 46       		.byte	0x46
 7083 073f B7000000 		.4byte	0xb7
 7084 0743 05       		.uleb128 0x5
 7085 0744 03       		.byte	0x3
 7086 0745 00000000 		.4byte	count_protector2
 7087 0749 1C       		.uleb128 0x1c
 7088 074a 5E020000 		.4byte	.LASF89
 7089 074e 05       		.byte	0x5
 7090 074f 47       		.byte	0x47
 7091 0750 5A070000 		.4byte	0x75a
 7092 0754 05       		.uleb128 0x5
 7093 0755 03       		.byte	0x3
 7094 0756 00000000 		.4byte	password_lcd
 7095 075a 05       		.uleb128 0x5
 7096 075b 8D020000 		.4byte	0x28d
 7097 075f 1C       		.uleb128 0x1c
 7098 0760 41010000 		.4byte	.LASF90
 7099 0764 05       		.byte	0x5
 7100 0765 48       		.byte	0x48
 7101 0766 BC000000 		.4byte	0xbc
 7102 076a 05       		.uleb128 0x5
 7103 076b 03       		.byte	0x3
 7104 076c 00000000 		.4byte	imagen_grado
 7105 0770 07       		.uleb128 0x7
 7106 0771 8C000000 		.4byte	0x8c
 7107 0775 86070000 		.4byte	0x786
 7108 0779 08       		.uleb128 0x8
 7109 077a D2000000 		.4byte	0xd2
 7110 077e 01       		.byte	0x1
 7111 077f 08       		.uleb128 0x8
 7112 0780 D2000000 		.4byte	0xd2
 7113 0784 01       		.byte	0x1
 7114 0785 00       		.byte	0
 7115 0786 1C       		.uleb128 0x1c
 7116 0787 4D040000 		.4byte	.LASF91
 7117 078b 05       		.byte	0x5
 7118 078c 49       		.byte	0x49
 7119 078d 97070000 		.4byte	0x797
 7120 0791 05       		.uleb128 0x5
 7121 0792 03       		.byte	0x3
 7122 0793 00000000 		.4byte	prox_caso
 7123 0797 05       		.uleb128 0x5
 7124 0798 70070000 		.4byte	0x770
 7125 079c 07       		.uleb128 0x7
 7126 079d 81000000 		.4byte	0x81
 7127 07a1 AC070000 		.4byte	0x7ac
 7128 07a5 08       		.uleb128 0x8
 7129 07a6 D2000000 		.4byte	0xd2
 7130 07aa 02       		.byte	0x2
 7131 07ab 00       		.byte	0
 7132 07ac 1C       		.uleb128 0x1c
 7133 07ad 01020000 		.4byte	.LASF92
 7134 07b1 05       		.byte	0x5
ARM GAS  C:\Users\SISTEM~1\AppData\Local\Temp\ccCGHuKi.s 			page 154


 7135 07b2 4A       		.byte	0x4a
 7136 07b3 BD070000 		.4byte	0x7bd
 7137 07b7 05       		.uleb128 0x5
 7138 07b8 03       		.byte	0x3
 7139 07b9 00000000 		.4byte	bloqueo_LCD
 7140 07bd 05       		.uleb128 0x5
 7141 07be 9C070000 		.4byte	0x79c
 7142 07c2 1C       		.uleb128 0x1c
 7143 07c3 50050000 		.4byte	.LASF93
 7144 07c7 05       		.byte	0x5
 7145 07c8 4B       		.byte	0x4b
 7146 07c9 D3070000 		.4byte	0x7d3
 7147 07cd 05       		.uleb128 0x5
 7148 07ce 03       		.byte	0x3
 7149 07cf 00000000 		.4byte	id_estacion
 7150 07d3 05       		.uleb128 0x5
 7151 07d4 7D020000 		.4byte	0x27d
 7152 07d8 1C       		.uleb128 0x1c
 7153 07d9 E0010000 		.4byte	.LASF94
 7154 07dd 05       		.byte	0x5
 7155 07de 4C       		.byte	0x4c
 7156 07df E9070000 		.4byte	0x7e9
 7157 07e3 05       		.uleb128 0x5
 7158 07e4 03       		.byte	0x3
 7159 07e5 00000000 		.4byte	id_venta
 7160 07e9 05       		.uleb128 0x5
 7161 07ea 9D020000 		.4byte	0x29d
 7162 07ee 07       		.uleb128 0x7
 7163 07ef 81000000 		.4byte	0x81
 7164 07f3 FE070000 		.4byte	0x7fe
 7165 07f7 08       		.uleb128 0x8
 7166 07f8 D2000000 		.4byte	0xd2
 7167 07fc C7       		.byte	0xc7
 7168 07fd 00       		.byte	0
 7169 07fe 1C       		.uleb128 0x1c
 7170 07ff 48000000 		.4byte	.LASF95
 7171 0803 05       		.byte	0x5
 7172 0804 4D       		.byte	0x4d
 7173 0805 0F080000 		.4byte	0x80f
 7174 0809 05       		.uleb128 0x5
 7175 080a 03       		.byte	0x3
 7176 080b 00000000 		.4byte	trama_totales
 7177 080f 05       		.uleb128 0x5
 7178 0810 EE070000 		.4byte	0x7ee
 7179 0814 1C       		.uleb128 0x1c
 7180 0815 8E030000 		.4byte	.LASF96
 7181 0819 05       		.byte	0x5
 7182 081a 51       		.byte	0x51
 7183 081b B7000000 		.4byte	0xb7
 7184 081f 05       		.uleb128 0x5
 7185 0820 03       		.byte	0x3
 7186 0821 00000000 		.4byte	ppux10
 7187 0825 07       		.uleb128 0x7
 7188 0826 81000000 		.4byte	0x81
 7189 082a 35080000 		.4byte	0x835
 7190 082e 08       		.uleb128 0x8
 7191 082f D2000000 		.4byte	0xd2
ARM GAS  C:\Users\SISTEM~1\AppData\Local\Temp\ccCGHuKi.s 			page 155


 7192 0833 10       		.byte	0x10
 7193 0834 00       		.byte	0
 7194 0835 1C       		.uleb128 0x1c
 7195 0836 FB030000 		.4byte	.LASF97
 7196 083a 05       		.byte	0x5
 7197 083b 52       		.byte	0x52
 7198 083c 46080000 		.4byte	0x846
 7199 0840 05       		.uleb128 0x5
 7200 0841 03       		.byte	0x3
 7201 0842 00000000 		.4byte	nombre_pro1
 7202 0846 05       		.uleb128 0x5
 7203 0847 25080000 		.4byte	0x825
 7204 084b 1C       		.uleb128 0x1c
 7205 084c 0A050000 		.4byte	.LASF98
 7206 0850 05       		.byte	0x5
 7207 0851 52       		.byte	0x52
 7208 0852 5C080000 		.4byte	0x85c
 7209 0856 05       		.uleb128 0x5
 7210 0857 03       		.byte	0x3
 7211 0858 00000000 		.4byte	nombre_pro2
 7212 085c 05       		.uleb128 0x5
 7213 085d 25080000 		.4byte	0x825
 7214 0861 1C       		.uleb128 0x1c
 7215 0862 07040000 		.4byte	.LASF99
 7216 0866 05       		.byte	0x5
 7217 0867 52       		.byte	0x52
 7218 0868 72080000 		.4byte	0x872
 7219 086c 05       		.uleb128 0x5
 7220 086d 03       		.byte	0x3
 7221 086e 00000000 		.4byte	nombre_pro3
 7222 0872 05       		.uleb128 0x5
 7223 0873 25080000 		.4byte	0x825
 7224 0877 1C       		.uleb128 0x1c
 7225 0878 8C000000 		.4byte	.LASF100
 7226 087c 05       		.byte	0x5
 7227 087d 53       		.byte	0x53
 7228 087e 88080000 		.4byte	0x888
 7229 0882 05       		.uleb128 0x5
 7230 0883 03       		.byte	0x3
 7231 0884 00000000 		.4byte	version
 7232 0888 05       		.uleb128 0x5
 7233 0889 E9000000 		.4byte	0xe9
 7234 088d 1C       		.uleb128 0x1c
 7235 088e 6E010000 		.4byte	.LASF101
 7236 0892 05       		.byte	0x5
 7237 0893 5D       		.byte	0x5d
 7238 0894 00010000 		.4byte	0x100
 7239 0898 05       		.uleb128 0x5
 7240 0899 03       		.byte	0x3
 7241 089a 00000000 		.4byte	lado1
 7242 089e 1C       		.uleb128 0x1c
 7243 089f 74010000 		.4byte	.LASF102
 7244 08a3 05       		.byte	0x5
 7245 08a4 5E       		.byte	0x5e
 7246 08a5 00010000 		.4byte	0x100
 7247 08a9 05       		.uleb128 0x5
 7248 08aa 03       		.byte	0x3
ARM GAS  C:\Users\SISTEM~1\AppData\Local\Temp\ccCGHuKi.s 			page 156


 7249 08ab 00000000 		.4byte	lado2
 7250 08af 07       		.uleb128 0x7
 7251 08b0 81000000 		.4byte	0x81
 7252 08b4 BF080000 		.4byte	0x8bf
 7253 08b8 08       		.uleb128 0x8
 7254 08b9 D2000000 		.4byte	0xd2
 7255 08bd 20       		.byte	0x20
 7256 08be 00       		.byte	0
 7257 08bf 1C       		.uleb128 0x1c
 7258 08c0 95030000 		.4byte	.LASF103
 7259 08c4 05       		.byte	0x5
 7260 08c5 62       		.byte	0x62
 7261 08c6 D0080000 		.4byte	0x8d0
 7262 08ca 05       		.uleb128 0x5
 7263 08cb 03       		.byte	0x3
 7264 08cc 00000000 		.4byte	nombre
 7265 08d0 05       		.uleb128 0x5
 7266 08d1 AF080000 		.4byte	0x8af
 7267 08d5 07       		.uleb128 0x7
 7268 08d6 81000000 		.4byte	0x81
 7269 08da E5080000 		.4byte	0x8e5
 7270 08de 08       		.uleb128 0x8
 7271 08df D2000000 		.4byte	0xd2
 7272 08e3 0E       		.byte	0xe
 7273 08e4 00       		.byte	0
 7274 08e5 1D       		.uleb128 0x1d
 7275 08e6 6E697400 		.ascii	"nit\000"
 7276 08ea 05       		.byte	0x5
 7277 08eb 63       		.byte	0x63
 7278 08ec F6080000 		.4byte	0x8f6
 7279 08f0 05       		.uleb128 0x5
 7280 08f1 03       		.byte	0x3
 7281 08f2 00000000 		.4byte	nit
 7282 08f6 05       		.uleb128 0x5
 7283 08f7 D5080000 		.4byte	0x8d5
 7284 08fb 07       		.uleb128 0x7
 7285 08fc 81000000 		.4byte	0x81
 7286 0900 0B090000 		.4byte	0x90b
 7287 0904 08       		.uleb128 0x8
 7288 0905 D2000000 		.4byte	0xd2
 7289 0909 13       		.byte	0x13
 7290 090a 00       		.byte	0
 7291 090b 1C       		.uleb128 0x1c
 7292 090c B4010000 		.4byte	.LASF104
 7293 0910 05       		.byte	0x5
 7294 0911 64       		.byte	0x64
 7295 0912 1C090000 		.4byte	0x91c
 7296 0916 05       		.uleb128 0x5
 7297 0917 03       		.byte	0x3
 7298 0918 00000000 		.4byte	telefono
 7299 091c 05       		.uleb128 0x5
 7300 091d FB080000 		.4byte	0x8fb
 7301 0921 1C       		.uleb128 0x1c
 7302 0922 E4000000 		.4byte	.LASF105
 7303 0926 05       		.byte	0x5
 7304 0927 65       		.byte	0x65
 7305 0928 32090000 		.4byte	0x932
ARM GAS  C:\Users\SISTEM~1\AppData\Local\Temp\ccCGHuKi.s 			page 157


 7306 092c 05       		.uleb128 0x5
 7307 092d 03       		.byte	0x3
 7308 092e 00000000 		.4byte	direccion
 7309 0932 05       		.uleb128 0x5
 7310 0933 AF080000 		.4byte	0x8af
 7311 0937 07       		.uleb128 0x7
 7312 0938 81000000 		.4byte	0x81
 7313 093c 47090000 		.4byte	0x947
 7314 0940 08       		.uleb128 0x8
 7315 0941 D2000000 		.4byte	0xd2
 7316 0945 1F       		.byte	0x1f
 7317 0946 00       		.byte	0
 7318 0947 1C       		.uleb128 0x1c
 7319 0948 C5000000 		.4byte	.LASF106
 7320 094c 05       		.byte	0x5
 7321 094d 66       		.byte	0x66
 7322 094e 58090000 		.4byte	0x958
 7323 0952 05       		.uleb128 0x5
 7324 0953 03       		.byte	0x3
 7325 0954 00000000 		.4byte	lema1
 7326 0958 05       		.uleb128 0x5
 7327 0959 37090000 		.4byte	0x937
 7328 095d 1C       		.uleb128 0x1c
 7329 095e 3B010000 		.4byte	.LASF107
 7330 0962 05       		.byte	0x5
 7331 0963 67       		.byte	0x67
 7332 0964 6E090000 		.4byte	0x96e
 7333 0968 05       		.uleb128 0x5
 7334 0969 03       		.byte	0x3
 7335 096a 00000000 		.4byte	lema2
 7336 096e 05       		.uleb128 0x5
 7337 096f 37090000 		.4byte	0x937
 7338 0973 07       		.uleb128 0x7
 7339 0974 81000000 		.4byte	0x81
 7340 0978 83090000 		.4byte	0x983
 7341 097c 08       		.uleb128 0x8
 7342 097d D2000000 		.4byte	0xd2
 7343 0981 01       		.byte	0x1
 7344 0982 00       		.byte	0
 7345 0983 1C       		.uleb128 0x1c
 7346 0984 A6030000 		.4byte	.LASF108
 7347 0988 05       		.byte	0x5
 7348 0989 68       		.byte	0x68
 7349 098a 94090000 		.4byte	0x994
 7350 098e 05       		.uleb128 0x5
 7351 098f 03       		.byte	0x3
 7352 0990 00000000 		.4byte	id_logo
 7353 0994 05       		.uleb128 0x5
 7354 0995 73090000 		.4byte	0x973
 7355 0999 1D       		.uleb128 0x1d
 7356 099a 6B6D00   		.ascii	"km\000"
 7357 099d 05       		.byte	0x5
 7358 099e 69       		.byte	0x69
 7359 099f A9090000 		.4byte	0x9a9
 7360 09a3 05       		.uleb128 0x5
 7361 09a4 03       		.byte	0x3
 7362 09a5 00000000 		.4byte	km
ARM GAS  C:\Users\SISTEM~1\AppData\Local\Temp\ccCGHuKi.s 			page 158


 7363 09a9 05       		.uleb128 0x5
 7364 09aa 73090000 		.4byte	0x973
 7365 09ae 1C       		.uleb128 0x1c
 7366 09af EC040000 		.4byte	.LASF109
 7367 09b3 05       		.byte	0x5
 7368 09b4 6A       		.byte	0x6a
 7369 09b5 9C070000 		.4byte	0x79c
 7370 09b9 05       		.uleb128 0x5
 7371 09ba 03       		.byte	0x3
 7372 09bb 00000000 		.4byte	fecha
 7373 09bf 1C       		.uleb128 0x1c
 7374 09c0 B0000000 		.4byte	.LASF110
 7375 09c4 05       		.byte	0x5
 7376 09c5 6B       		.byte	0x6b
 7377 09c6 73090000 		.4byte	0x973
 7378 09ca 05       		.uleb128 0x5
 7379 09cb 03       		.byte	0x3
 7380 09cc 00000000 		.4byte	hora
 7381 09d0 1C       		.uleb128 0x1c
 7382 09d1 D4000000 		.4byte	.LASF111
 7383 09d5 05       		.byte	0x5
 7384 09d6 7F       		.byte	0x7f
 7385 09d7 A6010000 		.4byte	0x1a6
 7386 09db 05       		.uleb128 0x5
 7387 09dc 03       		.byte	0x3
 7388 09dd 00000000 		.4byte	rventa1
 7389 09e1 1C       		.uleb128 0x1c
 7390 09e2 DC000000 		.4byte	.LASF112
 7391 09e6 05       		.byte	0x5
 7392 09e7 80       		.byte	0x80
 7393 09e8 A6010000 		.4byte	0x1a6
 7394 09ec 05       		.uleb128 0x5
 7395 09ed 03       		.byte	0x3
 7396 09ee 00000000 		.4byte	rventa2
 7397 09f2 1C       		.uleb128 0x1c
 7398 09f3 AA000000 		.4byte	.LASF113
 7399 09f7 05       		.byte	0x5
 7400 09f8 85       		.byte	0x85
 7401 09f9 81000000 		.4byte	0x81
 7402 09fd 05       		.uleb128 0x5
 7403 09fe 03       		.byte	0x3
 7404 09ff 00000000 		.4byte	ok_RF
 7405 0a03 1C       		.uleb128 0x1c
 7406 0a04 F2040000 		.4byte	.LASF114
 7407 0a08 05       		.byte	0x5
 7408 0a09 86       		.byte	0x86
 7409 0a0a 81000000 		.4byte	0x81
 7410 0a0e 05       		.uleb128 0x5
 7411 0a0f 03       		.byte	0x3
 7412 0a10 00000000 		.4byte	ok_datosRF
 7413 0a14 1C       		.uleb128 0x1c
 7414 0a15 E9010000 		.4byte	.LASF115
 7415 0a19 05       		.byte	0x5
 7416 0a1a 87       		.byte	0x87
 7417 0a1b EE070000 		.4byte	0x7ee
 7418 0a1f 05       		.uleb128 0x5
 7419 0a20 03       		.byte	0x3
ARM GAS  C:\Users\SISTEM~1\AppData\Local\Temp\ccCGHuKi.s 			page 159


 7420 0a21 00000000 		.4byte	rf_mod
 7421 0a25 07       		.uleb128 0x7
 7422 0a26 81000000 		.4byte	0x81
 7423 0a2a 350A0000 		.4byte	0xa35
 7424 0a2e 08       		.uleb128 0x8
 7425 0a2f D2000000 		.4byte	0xd2
 7426 0a33 3F       		.byte	0x3f
 7427 0a34 00       		.byte	0
 7428 0a35 1C       		.uleb128 0x1c
 7429 0a36 21010000 		.4byte	.LASF116
 7430 0a3a 05       		.byte	0x5
 7431 0a3b 8C       		.byte	0x8c
 7432 0a3c 250A0000 		.4byte	0xa25
 7433 0a40 05       		.uleb128 0x5
 7434 0a41 03       		.byte	0x3
 7435 0a42 00000000 		.4byte	buffer_i2c
 7436 0a46 1C       		.uleb128 0x1c
 7437 0a47 9C030000 		.4byte	.LASF117
 7438 0a4b 05       		.byte	0x5
 7439 0a4c 91       		.byte	0x91
 7440 0a4d 81000000 		.4byte	0x81
 7441 0a51 05       		.uleb128 0x5
 7442 0a52 03       		.byte	0x3
 7443 0a53 00000000 		.4byte	crc_total
 7444 0a57 1C       		.uleb128 0x1c
 7445 0a58 2C020000 		.4byte	.LASF118
 7446 0a5c 05       		.byte	0x5
 7447 0a5d 95       		.byte	0x95
 7448 0a5e 73090000 		.4byte	0x973
 7449 0a62 05       		.uleb128 0x5
 7450 0a63 03       		.byte	0x3
 7451 0a64 00000000 		.4byte	print1
 7452 0a68 1C       		.uleb128 0x1c
 7453 0a69 33020000 		.4byte	.LASF119
 7454 0a6d 05       		.byte	0x5
 7455 0a6e 96       		.byte	0x96
 7456 0a6f 73090000 		.4byte	0x973
 7457 0a73 05       		.uleb128 0x5
 7458 0a74 03       		.byte	0x3
 7459 0a75 00000000 		.4byte	print2
 7460 0a79 07       		.uleb128 0x7
 7461 0a7a 81000000 		.4byte	0x81
 7462 0a7e 890A0000 		.4byte	0xa89
 7463 0a82 08       		.uleb128 0x8
 7464 0a83 D2000000 		.4byte	0xd2
 7465 0a87 19       		.byte	0x19
 7466 0a88 00       		.byte	0
 7467 0a89 1C       		.uleb128 0x1c
 7468 0a8a 83010000 		.4byte	.LASF120
 7469 0a8e 01       		.byte	0x1
 7470 0a8f 35       		.byte	0x35
 7471 0a90 790A0000 		.4byte	0xa79
 7472 0a94 05       		.uleb128 0x5
 7473 0a95 03       		.byte	0x3
 7474 0a96 00000000 		.4byte	letras
 7475 0a9a 1C       		.uleb128 0x1c
 7476 0a9b FD040000 		.4byte	.LASF121
ARM GAS  C:\Users\SISTEM~1\AppData\Local\Temp\ccCGHuKi.s 			page 160


 7477 0a9f 01       		.byte	0x1
 7478 0aa0 36       		.byte	0x36
 7479 0aa1 7D020000 		.4byte	0x27d
 7480 0aa5 05       		.uleb128 0x5
 7481 0aa6 03       		.byte	0x3
 7482 0aa7 00000000 		.4byte	clave_config
 7483 0aab 07       		.uleb128 0x7
 7484 0aac 81000000 		.4byte	0x81
 7485 0ab0 BB0A0000 		.4byte	0xabb
 7486 0ab4 08       		.uleb128 0x8
 7487 0ab5 D2000000 		.4byte	0xd2
 7488 0ab9 11       		.byte	0x11
 7489 0aba 00       		.byte	0
 7490 0abb 1C       		.uleb128 0x1c
 7491 0abc 9E000000 		.4byte	.LASF122
 7492 0ac0 01       		.byte	0x1
 7493 0ac1 37       		.byte	0x37
 7494 0ac2 AB0A0000 		.4byte	0xaab
 7495 0ac6 05       		.uleb128 0x5
 7496 0ac7 03       		.byte	0x3
 7497 0ac8 00000000 		.4byte	test
 7498 0acc 1C       		.uleb128 0x1c
 7499 0acd 68000000 		.4byte	.LASF123
 7500 0ad1 01       		.byte	0x1
 7501 0ad2 38       		.byte	0x38
 7502 0ad3 8C000000 		.4byte	0x8c
 7503 0ad7 05       		.uleb128 0x5
 7504 0ad8 03       		.byte	0x3
 7505 0ad9 00000000 		.4byte	num_decimal2
 7506 0add 1C       		.uleb128 0x1c
 7507 0ade A6010000 		.4byte	.LASF124
 7508 0ae2 01       		.byte	0x1
 7509 0ae3 3C       		.byte	0x3c
 7510 0ae4 9D020000 		.4byte	0x29d
 7511 0ae8 05       		.uleb128 0x5
 7512 0ae9 03       		.byte	0x3
 7513 0aea 00000000 		.4byte	idaux
 7514 0aee 1C       		.uleb128 0x1c
 7515 0aef 9D010000 		.4byte	.LASF125
 7516 0af3 01       		.byte	0x1
 7517 0af4 3D       		.byte	0x3d
 7518 0af5 81000000 		.4byte	0x81
 7519 0af9 05       		.uleb128 0x5
 7520 0afa 03       		.byte	0x3
 7521 0afb 00000000 		.4byte	state_rf
 7522 0aff 00       		.byte	0
 7523              		.section	.debug_abbrev,"",%progbits
 7524              	.Ldebug_abbrev0:
 7525 0000 01       		.uleb128 0x1
 7526 0001 11       		.uleb128 0x11
 7527 0002 01       		.byte	0x1
 7528 0003 25       		.uleb128 0x25
 7529 0004 0E       		.uleb128 0xe
 7530 0005 13       		.uleb128 0x13
 7531 0006 0B       		.uleb128 0xb
 7532 0007 03       		.uleb128 0x3
 7533 0008 0E       		.uleb128 0xe
ARM GAS  C:\Users\SISTEM~1\AppData\Local\Temp\ccCGHuKi.s 			page 161


 7534 0009 1B       		.uleb128 0x1b
 7535 000a 0E       		.uleb128 0xe
 7536 000b 55       		.uleb128 0x55
 7537 000c 17       		.uleb128 0x17
 7538 000d 11       		.uleb128 0x11
 7539 000e 01       		.uleb128 0x1
 7540 000f 10       		.uleb128 0x10
 7541 0010 17       		.uleb128 0x17
 7542 0011 00       		.byte	0
 7543 0012 00       		.byte	0
 7544 0013 02       		.uleb128 0x2
 7545 0014 24       		.uleb128 0x24
 7546 0015 00       		.byte	0
 7547 0016 0B       		.uleb128 0xb
 7548 0017 0B       		.uleb128 0xb
 7549 0018 3E       		.uleb128 0x3e
 7550 0019 0B       		.uleb128 0xb
 7551 001a 03       		.uleb128 0x3
 7552 001b 0E       		.uleb128 0xe
 7553 001c 00       		.byte	0
 7554 001d 00       		.byte	0
 7555 001e 03       		.uleb128 0x3
 7556 001f 16       		.uleb128 0x16
 7557 0020 00       		.byte	0
 7558 0021 03       		.uleb128 0x3
 7559 0022 0E       		.uleb128 0xe
 7560 0023 3A       		.uleb128 0x3a
 7561 0024 0B       		.uleb128 0xb
 7562 0025 3B       		.uleb128 0x3b
 7563 0026 0B       		.uleb128 0xb
 7564 0027 49       		.uleb128 0x49
 7565 0028 13       		.uleb128 0x13
 7566 0029 00       		.byte	0
 7567 002a 00       		.byte	0
 7568 002b 04       		.uleb128 0x4
 7569 002c 24       		.uleb128 0x24
 7570 002d 00       		.byte	0
 7571 002e 0B       		.uleb128 0xb
 7572 002f 0B       		.uleb128 0xb
 7573 0030 3E       		.uleb128 0x3e
 7574 0031 0B       		.uleb128 0xb
 7575 0032 03       		.uleb128 0x3
 7576 0033 08       		.uleb128 0x8
 7577 0034 00       		.byte	0
 7578 0035 00       		.byte	0
 7579 0036 05       		.uleb128 0x5
 7580 0037 35       		.uleb128 0x35
 7581 0038 00       		.byte	0
 7582 0039 49       		.uleb128 0x49
 7583 003a 13       		.uleb128 0x13
 7584 003b 00       		.byte	0
 7585 003c 00       		.byte	0
 7586 003d 06       		.uleb128 0x6
 7587 003e 16       		.uleb128 0x16
 7588 003f 00       		.byte	0
 7589 0040 03       		.uleb128 0x3
 7590 0041 0E       		.uleb128 0xe
ARM GAS  C:\Users\SISTEM~1\AppData\Local\Temp\ccCGHuKi.s 			page 162


 7591 0042 3A       		.uleb128 0x3a
 7592 0043 0B       		.uleb128 0xb
 7593 0044 3B       		.uleb128 0x3b
 7594 0045 05       		.uleb128 0x5
 7595 0046 49       		.uleb128 0x49
 7596 0047 13       		.uleb128 0x13
 7597 0048 00       		.byte	0
 7598 0049 00       		.byte	0
 7599 004a 07       		.uleb128 0x7
 7600 004b 01       		.uleb128 0x1
 7601 004c 01       		.byte	0x1
 7602 004d 49       		.uleb128 0x49
 7603 004e 13       		.uleb128 0x13
 7604 004f 01       		.uleb128 0x1
 7605 0050 13       		.uleb128 0x13
 7606 0051 00       		.byte	0
 7607 0052 00       		.byte	0
 7608 0053 08       		.uleb128 0x8
 7609 0054 21       		.uleb128 0x21
 7610 0055 00       		.byte	0
 7611 0056 49       		.uleb128 0x49
 7612 0057 13       		.uleb128 0x13
 7613 0058 2F       		.uleb128 0x2f
 7614 0059 0B       		.uleb128 0xb
 7615 005a 00       		.byte	0
 7616 005b 00       		.byte	0
 7617 005c 09       		.uleb128 0x9
 7618 005d 13       		.uleb128 0x13
 7619 005e 01       		.byte	0x1
 7620 005f 03       		.uleb128 0x3
 7621 0060 0E       		.uleb128 0xe
 7622 0061 0B       		.uleb128 0xb
 7623 0062 0B       		.uleb128 0xb
 7624 0063 3A       		.uleb128 0x3a
 7625 0064 0B       		.uleb128 0xb
 7626 0065 3B       		.uleb128 0x3b
 7627 0066 0B       		.uleb128 0xb
 7628 0067 01       		.uleb128 0x1
 7629 0068 13       		.uleb128 0x13
 7630 0069 00       		.byte	0
 7631 006a 00       		.byte	0
 7632 006b 0A       		.uleb128 0xa
 7633 006c 0D       		.uleb128 0xd
 7634 006d 00       		.byte	0
 7635 006e 03       		.uleb128 0x3
 7636 006f 08       		.uleb128 0x8
 7637 0070 3A       		.uleb128 0x3a
 7638 0071 0B       		.uleb128 0xb
 7639 0072 3B       		.uleb128 0x3b
 7640 0073 0B       		.uleb128 0xb
 7641 0074 49       		.uleb128 0x49
 7642 0075 13       		.uleb128 0x13
 7643 0076 38       		.uleb128 0x38
 7644 0077 0B       		.uleb128 0xb
 7645 0078 00       		.byte	0
 7646 0079 00       		.byte	0
 7647 007a 0B       		.uleb128 0xb
ARM GAS  C:\Users\SISTEM~1\AppData\Local\Temp\ccCGHuKi.s 			page 163


 7648 007b 0D       		.uleb128 0xd
 7649 007c 00       		.byte	0
 7650 007d 03       		.uleb128 0x3
 7651 007e 0E       		.uleb128 0xe
 7652 007f 3A       		.uleb128 0x3a
 7653 0080 0B       		.uleb128 0xb
 7654 0081 3B       		.uleb128 0x3b
 7655 0082 0B       		.uleb128 0xb
 7656 0083 49       		.uleb128 0x49
 7657 0084 13       		.uleb128 0x13
 7658 0085 38       		.uleb128 0x38
 7659 0086 0B       		.uleb128 0xb
 7660 0087 00       		.byte	0
 7661 0088 00       		.byte	0
 7662 0089 0C       		.uleb128 0xc
 7663 008a 2E       		.uleb128 0x2e
 7664 008b 01       		.byte	0x1
 7665 008c 3F       		.uleb128 0x3f
 7666 008d 19       		.uleb128 0x19
 7667 008e 03       		.uleb128 0x3
 7668 008f 0E       		.uleb128 0xe
 7669 0090 3A       		.uleb128 0x3a
 7670 0091 0B       		.uleb128 0xb
 7671 0092 3B       		.uleb128 0x3b
 7672 0093 0B       		.uleb128 0xb
 7673 0094 27       		.uleb128 0x27
 7674 0095 19       		.uleb128 0x19
 7675 0096 11       		.uleb128 0x11
 7676 0097 01       		.uleb128 0x1
 7677 0098 12       		.uleb128 0x12
 7678 0099 06       		.uleb128 0x6
 7679 009a 40       		.uleb128 0x40
 7680 009b 18       		.uleb128 0x18
 7681 009c 9642     		.uleb128 0x2116
 7682 009e 19       		.uleb128 0x19
 7683 009f 01       		.uleb128 0x1
 7684 00a0 13       		.uleb128 0x13
 7685 00a1 00       		.byte	0
 7686 00a2 00       		.byte	0
 7687 00a3 0D       		.uleb128 0xd
 7688 00a4 34       		.uleb128 0x34
 7689 00a5 00       		.byte	0
 7690 00a6 03       		.uleb128 0x3
 7691 00a7 08       		.uleb128 0x8
 7692 00a8 3A       		.uleb128 0x3a
 7693 00a9 0B       		.uleb128 0xb
 7694 00aa 3B       		.uleb128 0x3b
 7695 00ab 0B       		.uleb128 0xb
 7696 00ac 49       		.uleb128 0x49
 7697 00ad 13       		.uleb128 0x13
 7698 00ae 02       		.uleb128 0x2
 7699 00af 18       		.uleb128 0x18
 7700 00b0 00       		.byte	0
 7701 00b1 00       		.byte	0
 7702 00b2 0E       		.uleb128 0xe
 7703 00b3 2E       		.uleb128 0x2e
 7704 00b4 01       		.byte	0x1
ARM GAS  C:\Users\SISTEM~1\AppData\Local\Temp\ccCGHuKi.s 			page 164


 7705 00b5 3F       		.uleb128 0x3f
 7706 00b6 19       		.uleb128 0x19
 7707 00b7 03       		.uleb128 0x3
 7708 00b8 0E       		.uleb128 0xe
 7709 00b9 3A       		.uleb128 0x3a
 7710 00ba 0B       		.uleb128 0xb
 7711 00bb 3B       		.uleb128 0x3b
 7712 00bc 0B       		.uleb128 0xb
 7713 00bd 27       		.uleb128 0x27
 7714 00be 19       		.uleb128 0x19
 7715 00bf 49       		.uleb128 0x49
 7716 00c0 13       		.uleb128 0x13
 7717 00c1 11       		.uleb128 0x11
 7718 00c2 01       		.uleb128 0x1
 7719 00c3 12       		.uleb128 0x12
 7720 00c4 06       		.uleb128 0x6
 7721 00c5 40       		.uleb128 0x40
 7722 00c6 18       		.uleb128 0x18
 7723 00c7 9642     		.uleb128 0x2116
 7724 00c9 19       		.uleb128 0x19
 7725 00ca 01       		.uleb128 0x1
 7726 00cb 13       		.uleb128 0x13
 7727 00cc 00       		.byte	0
 7728 00cd 00       		.byte	0
 7729 00ce 0F       		.uleb128 0xf
 7730 00cf 05       		.uleb128 0x5
 7731 00d0 00       		.byte	0
 7732 00d1 03       		.uleb128 0x3
 7733 00d2 0E       		.uleb128 0xe
 7734 00d3 3A       		.uleb128 0x3a
 7735 00d4 0B       		.uleb128 0xb
 7736 00d5 3B       		.uleb128 0x3b
 7737 00d6 0B       		.uleb128 0xb
 7738 00d7 49       		.uleb128 0x49
 7739 00d8 13       		.uleb128 0x13
 7740 00d9 02       		.uleb128 0x2
 7741 00da 18       		.uleb128 0x18
 7742 00db 00       		.byte	0
 7743 00dc 00       		.byte	0
 7744 00dd 10       		.uleb128 0x10
 7745 00de 34       		.uleb128 0x34
 7746 00df 00       		.byte	0
 7747 00e0 03       		.uleb128 0x3
 7748 00e1 0E       		.uleb128 0xe
 7749 00e2 3A       		.uleb128 0x3a
 7750 00e3 0B       		.uleb128 0xb
 7751 00e4 3B       		.uleb128 0x3b
 7752 00e5 0B       		.uleb128 0xb
 7753 00e6 49       		.uleb128 0x49
 7754 00e7 13       		.uleb128 0x13
 7755 00e8 02       		.uleb128 0x2
 7756 00e9 18       		.uleb128 0x18
 7757 00ea 00       		.byte	0
 7758 00eb 00       		.byte	0
 7759 00ec 11       		.uleb128 0x11
 7760 00ed 0F       		.uleb128 0xf
 7761 00ee 00       		.byte	0
ARM GAS  C:\Users\SISTEM~1\AppData\Local\Temp\ccCGHuKi.s 			page 165


 7762 00ef 0B       		.uleb128 0xb
 7763 00f0 0B       		.uleb128 0xb
 7764 00f1 49       		.uleb128 0x49
 7765 00f2 13       		.uleb128 0x13
 7766 00f3 00       		.byte	0
 7767 00f4 00       		.byte	0
 7768 00f5 12       		.uleb128 0x12
 7769 00f6 05       		.uleb128 0x5
 7770 00f7 00       		.byte	0
 7771 00f8 03       		.uleb128 0x3
 7772 00f9 08       		.uleb128 0x8
 7773 00fa 3A       		.uleb128 0x3a
 7774 00fb 0B       		.uleb128 0xb
 7775 00fc 3B       		.uleb128 0x3b
 7776 00fd 0B       		.uleb128 0xb
 7777 00fe 49       		.uleb128 0x49
 7778 00ff 13       		.uleb128 0x13
 7779 0100 02       		.uleb128 0x2
 7780 0101 18       		.uleb128 0x18
 7781 0102 00       		.byte	0
 7782 0103 00       		.byte	0
 7783 0104 13       		.uleb128 0x13
 7784 0105 2E       		.uleb128 0x2e
 7785 0106 01       		.byte	0x1
 7786 0107 3F       		.uleb128 0x3f
 7787 0108 19       		.uleb128 0x19
 7788 0109 03       		.uleb128 0x3
 7789 010a 0E       		.uleb128 0xe
 7790 010b 3A       		.uleb128 0x3a
 7791 010c 0B       		.uleb128 0xb
 7792 010d 3B       		.uleb128 0x3b
 7793 010e 05       		.uleb128 0x5
 7794 010f 27       		.uleb128 0x27
 7795 0110 19       		.uleb128 0x19
 7796 0111 11       		.uleb128 0x11
 7797 0112 01       		.uleb128 0x1
 7798 0113 12       		.uleb128 0x12
 7799 0114 06       		.uleb128 0x6
 7800 0115 40       		.uleb128 0x40
 7801 0116 18       		.uleb128 0x18
 7802 0117 9642     		.uleb128 0x2116
 7803 0119 19       		.uleb128 0x19
 7804 011a 01       		.uleb128 0x1
 7805 011b 13       		.uleb128 0x13
 7806 011c 00       		.byte	0
 7807 011d 00       		.byte	0
 7808 011e 14       		.uleb128 0x14
 7809 011f 34       		.uleb128 0x34
 7810 0120 00       		.byte	0
 7811 0121 03       		.uleb128 0x3
 7812 0122 0E       		.uleb128 0xe
 7813 0123 3A       		.uleb128 0x3a
 7814 0124 0B       		.uleb128 0xb
 7815 0125 3B       		.uleb128 0x3b
 7816 0126 05       		.uleb128 0x5
 7817 0127 49       		.uleb128 0x49
 7818 0128 13       		.uleb128 0x13
ARM GAS  C:\Users\SISTEM~1\AppData\Local\Temp\ccCGHuKi.s 			page 166


 7819 0129 02       		.uleb128 0x2
 7820 012a 18       		.uleb128 0x18
 7821 012b 00       		.byte	0
 7822 012c 00       		.byte	0
 7823 012d 15       		.uleb128 0x15
 7824 012e 34       		.uleb128 0x34
 7825 012f 00       		.byte	0
 7826 0130 03       		.uleb128 0x3
 7827 0131 08       		.uleb128 0x8
 7828 0132 3A       		.uleb128 0x3a
 7829 0133 0B       		.uleb128 0xb
 7830 0134 3B       		.uleb128 0x3b
 7831 0135 05       		.uleb128 0x5
 7832 0136 49       		.uleb128 0x49
 7833 0137 13       		.uleb128 0x13
 7834 0138 02       		.uleb128 0x2
 7835 0139 18       		.uleb128 0x18
 7836 013a 00       		.byte	0
 7837 013b 00       		.byte	0
 7838 013c 16       		.uleb128 0x16
 7839 013d 34       		.uleb128 0x34
 7840 013e 00       		.byte	0
 7841 013f 03       		.uleb128 0x3
 7842 0140 08       		.uleb128 0x8
 7843 0141 3A       		.uleb128 0x3a
 7844 0142 0B       		.uleb128 0xb
 7845 0143 3B       		.uleb128 0x3b
 7846 0144 05       		.uleb128 0x5
 7847 0145 49       		.uleb128 0x49
 7848 0146 13       		.uleb128 0x13
 7849 0147 00       		.byte	0
 7850 0148 00       		.byte	0
 7851 0149 17       		.uleb128 0x17
 7852 014a 2E       		.uleb128 0x2e
 7853 014b 00       		.byte	0
 7854 014c 3F       		.uleb128 0x3f
 7855 014d 19       		.uleb128 0x19
 7856 014e 03       		.uleb128 0x3
 7857 014f 0E       		.uleb128 0xe
 7858 0150 3A       		.uleb128 0x3a
 7859 0151 0B       		.uleb128 0xb
 7860 0152 3B       		.uleb128 0x3b
 7861 0153 05       		.uleb128 0x5
 7862 0154 27       		.uleb128 0x27
 7863 0155 19       		.uleb128 0x19
 7864 0156 11       		.uleb128 0x11
 7865 0157 01       		.uleb128 0x1
 7866 0158 12       		.uleb128 0x12
 7867 0159 06       		.uleb128 0x6
 7868 015a 40       		.uleb128 0x40
 7869 015b 18       		.uleb128 0x18
 7870 015c 9742     		.uleb128 0x2117
 7871 015e 19       		.uleb128 0x19
 7872 015f 00       		.byte	0
 7873 0160 00       		.byte	0
 7874 0161 18       		.uleb128 0x18
 7875 0162 2E       		.uleb128 0x2e
ARM GAS  C:\Users\SISTEM~1\AppData\Local\Temp\ccCGHuKi.s 			page 167


 7876 0163 00       		.byte	0
 7877 0164 3F       		.uleb128 0x3f
 7878 0165 19       		.uleb128 0x19
 7879 0166 03       		.uleb128 0x3
 7880 0167 0E       		.uleb128 0xe
 7881 0168 3A       		.uleb128 0x3a
 7882 0169 0B       		.uleb128 0xb
 7883 016a 3B       		.uleb128 0x3b
 7884 016b 05       		.uleb128 0x5
 7885 016c 27       		.uleb128 0x27
 7886 016d 19       		.uleb128 0x19
 7887 016e 11       		.uleb128 0x11
 7888 016f 01       		.uleb128 0x1
 7889 0170 12       		.uleb128 0x12
 7890 0171 06       		.uleb128 0x6
 7891 0172 40       		.uleb128 0x40
 7892 0173 18       		.uleb128 0x18
 7893 0174 9642     		.uleb128 0x2116
 7894 0176 19       		.uleb128 0x19
 7895 0177 00       		.byte	0
 7896 0178 00       		.byte	0
 7897 0179 19       		.uleb128 0x19
 7898 017a 2E       		.uleb128 0x2e
 7899 017b 00       		.byte	0
 7900 017c 3F       		.uleb128 0x3f
 7901 017d 19       		.uleb128 0x19
 7902 017e 03       		.uleb128 0x3
 7903 017f 0E       		.uleb128 0xe
 7904 0180 3A       		.uleb128 0x3a
 7905 0181 0B       		.uleb128 0xb
 7906 0182 3B       		.uleb128 0x3b
 7907 0183 05       		.uleb128 0x5
 7908 0184 49       		.uleb128 0x49
 7909 0185 13       		.uleb128 0x13
 7910 0186 11       		.uleb128 0x11
 7911 0187 01       		.uleb128 0x1
 7912 0188 12       		.uleb128 0x12
 7913 0189 06       		.uleb128 0x6
 7914 018a 40       		.uleb128 0x40
 7915 018b 18       		.uleb128 0x18
 7916 018c 9642     		.uleb128 0x2116
 7917 018e 19       		.uleb128 0x19
 7918 018f 00       		.byte	0
 7919 0190 00       		.byte	0
 7920 0191 1A       		.uleb128 0x1a
 7921 0192 34       		.uleb128 0x34
 7922 0193 00       		.byte	0
 7923 0194 03       		.uleb128 0x3
 7924 0195 0E       		.uleb128 0xe
 7925 0196 3A       		.uleb128 0x3a
 7926 0197 0B       		.uleb128 0xb
 7927 0198 3B       		.uleb128 0x3b
 7928 0199 05       		.uleb128 0x5
 7929 019a 49       		.uleb128 0x49
 7930 019b 13       		.uleb128 0x13
 7931 019c 3F       		.uleb128 0x3f
 7932 019d 19       		.uleb128 0x19
ARM GAS  C:\Users\SISTEM~1\AppData\Local\Temp\ccCGHuKi.s 			page 168


 7933 019e 3C       		.uleb128 0x3c
 7934 019f 19       		.uleb128 0x19
 7935 01a0 00       		.byte	0
 7936 01a1 00       		.byte	0
 7937 01a2 1B       		.uleb128 0x1b
 7938 01a3 21       		.uleb128 0x21
 7939 01a4 00       		.byte	0
 7940 01a5 49       		.uleb128 0x49
 7941 01a6 13       		.uleb128 0x13
 7942 01a7 2F       		.uleb128 0x2f
 7943 01a8 05       		.uleb128 0x5
 7944 01a9 00       		.byte	0
 7945 01aa 00       		.byte	0
 7946 01ab 1C       		.uleb128 0x1c
 7947 01ac 34       		.uleb128 0x34
 7948 01ad 00       		.byte	0
 7949 01ae 03       		.uleb128 0x3
 7950 01af 0E       		.uleb128 0xe
 7951 01b0 3A       		.uleb128 0x3a
 7952 01b1 0B       		.uleb128 0xb
 7953 01b2 3B       		.uleb128 0x3b
 7954 01b3 0B       		.uleb128 0xb
 7955 01b4 49       		.uleb128 0x49
 7956 01b5 13       		.uleb128 0x13
 7957 01b6 3F       		.uleb128 0x3f
 7958 01b7 19       		.uleb128 0x19
 7959 01b8 02       		.uleb128 0x2
 7960 01b9 18       		.uleb128 0x18
 7961 01ba 00       		.byte	0
 7962 01bb 00       		.byte	0
 7963 01bc 1D       		.uleb128 0x1d
 7964 01bd 34       		.uleb128 0x34
 7965 01be 00       		.byte	0
 7966 01bf 03       		.uleb128 0x3
 7967 01c0 08       		.uleb128 0x8
 7968 01c1 3A       		.uleb128 0x3a
 7969 01c2 0B       		.uleb128 0xb
 7970 01c3 3B       		.uleb128 0x3b
 7971 01c4 0B       		.uleb128 0xb
 7972 01c5 49       		.uleb128 0x49
 7973 01c6 13       		.uleb128 0x13
 7974 01c7 3F       		.uleb128 0x3f
 7975 01c8 19       		.uleb128 0x19
 7976 01c9 02       		.uleb128 0x2
 7977 01ca 18       		.uleb128 0x18
 7978 01cb 00       		.byte	0
 7979 01cc 00       		.byte	0
 7980 01cd 00       		.byte	0
 7981              		.section	.debug_aranges,"",%progbits
 7982 0000 7C000000 		.4byte	0x7c
 7983 0004 0200     		.2byte	0x2
 7984 0006 00000000 		.4byte	.Ldebug_info0
 7985 000a 04       		.byte	0x4
 7986 000b 00       		.byte	0
 7987 000c 0000     		.2byte	0
 7988 000e 0000     		.2byte	0
 7989 0010 00000000 		.4byte	.LFB63
ARM GAS  C:\Users\SISTEM~1\AppData\Local\Temp\ccCGHuKi.s 			page 169


 7990 0014 80030000 		.4byte	.LFE63-.LFB63
 7991 0018 00000000 		.4byte	.LFB64
 7992 001c 84000000 		.4byte	.LFE64-.LFB64
 7993 0020 00000000 		.4byte	.LFB65
 7994 0024 84000000 		.4byte	.LFE65-.LFB65
 7995 0028 00000000 		.4byte	.LFB66
 7996 002c 18030000 		.4byte	.LFE66-.LFB66
 7997 0030 00000000 		.4byte	.LFB67
 7998 0034 2C040000 		.4byte	.LFE67-.LFB67
 7999 0038 00000000 		.4byte	.LFB68
 8000 003c A4000000 		.4byte	.LFE68-.LFB68
 8001 0040 00000000 		.4byte	.LFB69
 8002 0044 B81A0000 		.4byte	.LFE69-.LFB69
 8003 0048 00000000 		.4byte	.LFB70
 8004 004c 0C000000 		.4byte	.LFE70-.LFB70
 8005 0050 00000000 		.4byte	.LFB71
 8006 0054 0C000000 		.4byte	.LFE71-.LFB71
 8007 0058 00000000 		.4byte	.LFB72
 8008 005c 70000000 		.4byte	.LFE72-.LFB72
 8009 0060 00000000 		.4byte	.LFB73
 8010 0064 70000000 		.4byte	.LFE73-.LFB73
 8011 0068 00000000 		.4byte	.LFB74
 8012 006c 54000000 		.4byte	.LFE74-.LFB74
 8013 0070 00000000 		.4byte	.LFB75
 8014 0074 32000000 		.4byte	.LFE75-.LFB75
 8015 0078 00000000 		.4byte	0
 8016 007c 00000000 		.4byte	0
 8017              		.section	.debug_ranges,"",%progbits
 8018              	.Ldebug_ranges0:
 8019 0000 00000000 		.4byte	.LFB63
 8020 0004 80030000 		.4byte	.LFE63
 8021 0008 00000000 		.4byte	.LFB64
 8022 000c 84000000 		.4byte	.LFE64
 8023 0010 00000000 		.4byte	.LFB65
 8024 0014 84000000 		.4byte	.LFE65
 8025 0018 00000000 		.4byte	.LFB66
 8026 001c 18030000 		.4byte	.LFE66
 8027 0020 00000000 		.4byte	.LFB67
 8028 0024 2C040000 		.4byte	.LFE67
 8029 0028 00000000 		.4byte	.LFB68
 8030 002c A4000000 		.4byte	.LFE68
 8031 0030 00000000 		.4byte	.LFB69
 8032 0034 B81A0000 		.4byte	.LFE69
 8033 0038 00000000 		.4byte	.LFB70
 8034 003c 0C000000 		.4byte	.LFE70
 8035 0040 00000000 		.4byte	.LFB71
 8036 0044 0C000000 		.4byte	.LFE71
 8037 0048 00000000 		.4byte	.LFB72
 8038 004c 70000000 		.4byte	.LFE72
 8039 0050 00000000 		.4byte	.LFB73
 8040 0054 70000000 		.4byte	.LFE73
 8041 0058 00000000 		.4byte	.LFB74
 8042 005c 54000000 		.4byte	.LFE74
 8043 0060 00000000 		.4byte	.LFB75
 8044 0064 32000000 		.4byte	.LFE75
 8045 0068 00000000 		.4byte	0
 8046 006c 00000000 		.4byte	0
ARM GAS  C:\Users\SISTEM~1\AppData\Local\Temp\ccCGHuKi.s 			page 170


 8047              		.section	.debug_line,"",%progbits
 8048              	.Ldebug_line0:
 8049 0000 A3080000 		.section	.debug_str,"MS",%progbits,1
 8049      02006E01 
 8049      00000201 
 8049      FB0E0D00 
 8049      01010101 
 8050              	.LASF36:
 8051 0000 70617373 		.ascii	"password\000"
 8051      776F7264 
 8051      00
 8052              	.LASF48:
 8053 0009 706F6C6C 		.ascii	"polling_rf\000"
 8053      696E675F 
 8053      726600
 8054              	.LASF50:
 8055 0014 73746174 		.ascii	"status2\000"
 8055      75733200 
 8056              	.LASF57:
 8057 001c 6E756D5F 		.ascii	"num_decimal\000"
 8057      64656369 
 8057      6D616C00 
 8058              	.LASF88:
 8059 0028 636F756E 		.ascii	"count_protector2\000"
 8059      745F7072 
 8059      6F746563 
 8059      746F7232 
 8059      00
 8060              	.LASF64:
 8061 0039 4C43445F 		.ascii	"LCD_1_rxBuffer\000"
 8061      315F7278 
 8061      42756666 
 8061      657200
 8062              	.LASF95:
 8063 0048 7472616D 		.ascii	"trama_totales\000"
 8063      615F746F 
 8063      74616C65 
 8063      7300
 8064              	.LASF70:
 8065 0056 69645F63 		.ascii	"id_coma1\000"
 8065      6F6D6131 
 8065      00
 8066              	.LASF73:
 8067 005f 69645F63 		.ascii	"id_coma2\000"
 8067      6F6D6132 
 8067      00
 8068              	.LASF123:
 8069 0068 6E756D5F 		.ascii	"num_decimal2\000"
 8069      64656369 
 8069      6D616C32 
 8069      00
 8070              	.LASF47:
 8071 0075 696E6974 		.ascii	"init_surt\000"
 8071      5F737572 
 8071      7400
 8072              	.LASF8:
 8073 007f 756E7369 		.ascii	"unsigned int\000"
ARM GAS  C:\Users\SISTEM~1\AppData\Local\Temp\ccCGHuKi.s 			page 171


 8073      676E6564 
 8073      20696E74 
 8073      00
 8074              	.LASF100:
 8075 008c 76657273 		.ascii	"version\000"
 8075      696F6E00 
 8076              	.LASF9:
 8077 0094 5F5F696E 		.ascii	"__int32_t\000"
 8077      7433325F 
 8077      7400
 8078              	.LASF122:
 8079 009e 74657374 		.ascii	"test\000"
 8079      00
 8080              	.LASF52:
 8081 00a3 70726563 		.ascii	"precio\000"
 8081      696F00
 8082              	.LASF113:
 8083 00aa 6F6B5F52 		.ascii	"ok_RF\000"
 8083      4600
 8084              	.LASF110:
 8085 00b0 686F7261 		.ascii	"hora\000"
 8085      00
 8086              	.LASF81:
 8087 00b5 7465636C 		.ascii	"teclas1\000"
 8087      61733100 
 8088              	.LASF82:
 8089 00bd 7465636C 		.ascii	"teclas2\000"
 8089      61733200 
 8090              	.LASF106:
 8091 00c5 6C656D61 		.ascii	"lema1\000"
 8091      3100
 8092              	.LASF26:
 8093 00cb 706F7369 		.ascii	"posicion\000"
 8093      63696F6E 
 8093      00
 8094              	.LASF111:
 8095 00d4 7276656E 		.ascii	"rventa1\000"
 8095      74613100 
 8096              	.LASF112:
 8097 00dc 7276656E 		.ascii	"rventa2\000"
 8097      74613200 
 8098              	.LASF105:
 8099 00e4 64697265 		.ascii	"direccion\000"
 8099      6363696F 
 8099      6E00
 8100              	.LASF83:
 8101 00ee 666C756A 		.ascii	"flujo_LCD1\000"
 8101      6F5F4C43 
 8101      443100
 8102              	.LASF84:
 8103 00f9 666C756A 		.ascii	"flujo_LCD2\000"
 8103      6F5F4C43 
 8103      443200
 8104              	.LASF31:
 8105 0104 70726573 		.ascii	"preset\000"
 8105      657400
 8106              	.LASF14:
ARM GAS  C:\Users\SISTEM~1\AppData\Local\Temp\ccCGHuKi.s 			page 172


 8107 010b 666C6F61 		.ascii	"float\000"
 8107      7400
 8108              	.LASF87:
 8109 0111 636F756E 		.ascii	"count_protector\000"
 8109      745F7072 
 8109      6F746563 
 8109      746F7200 
 8110              	.LASF116:
 8111 0121 62756666 		.ascii	"buffer_i2c\000"
 8111      65725F69 
 8111      326300
 8112              	.LASF41:
 8113 012c 63686563 		.ascii	"checksum\000"
 8113      6B73756D 
 8113      00
 8114              	.LASF42:
 8115 0135 696E6465 		.ascii	"index\000"
 8115      7800
 8116              	.LASF107:
 8117 013b 6C656D61 		.ascii	"lema2\000"
 8117      3200
 8118              	.LASF90:
 8119 0141 696D6167 		.ascii	"imagen_grado\000"
 8119      656E5F67 
 8119      7261646F 
 8119      00
 8120              	.LASF33:
 8121 014e 696D7072 		.ascii	"imprimir\000"
 8121      696D6972 
 8121      00
 8122              	.LASF7:
 8123 0157 6C6F6E67 		.ascii	"long long unsigned int\000"
 8123      206C6F6E 
 8123      6720756E 
 8123      7369676E 
 8123      65642069 
 8124              	.LASF101:
 8125 016e 6C61646F 		.ascii	"lado1\000"
 8125      3100
 8126              	.LASF102:
 8127 0174 6C61646F 		.ascii	"lado2\000"
 8127      3200
 8128              	.LASF51:
 8129 017a 745F7072 		.ascii	"t_preset\000"
 8129      65736574 
 8129      00
 8130              	.LASF120:
 8131 0183 6C657472 		.ascii	"letras\000"
 8131      617300
 8132              	.LASF32:
 8133 018a 706C6163 		.ascii	"placa\000"
 8133      6100
 8134              	.LASF53:
 8135 0190 706F6C6C 		.ascii	"polling_surt\000"
 8135      696E675F 
 8135      73757274 
 8135      00
ARM GAS  C:\Users\SISTEM~1\AppData\Local\Temp\ccCGHuKi.s 			page 173


 8136              	.LASF125:
 8137 019d 73746174 		.ascii	"state_rf\000"
 8137      655F7266 
 8137      00
 8138              	.LASF124:
 8139 01a6 69646175 		.ascii	"idaux\000"
 8139      7800
 8140              	.LASF28:
 8141 01ac 766F6C75 		.ascii	"volumen\000"
 8141      6D656E00 
 8142              	.LASF104:
 8143 01b4 74656C65 		.ascii	"telefono\000"
 8143      666F6E6F 
 8143      00
 8144              	.LASF71:
 8145 01bd 69645F74 		.ascii	"id_teclado1\000"
 8145      65636C61 
 8145      646F3100 
 8146              	.LASF74:
 8147 01c9 69645F74 		.ascii	"id_teclado2\000"
 8147      65636C61 
 8147      646F3200 
 8148              	.LASF59:
 8149 01d5 706F6C6C 		.ascii	"polling_wd\000"
 8149      696E675F 
 8149      776400
 8150              	.LASF94:
 8151 01e0 69645F76 		.ascii	"id_venta\000"
 8151      656E7461 
 8151      00
 8152              	.LASF115:
 8153 01e9 72665F6D 		.ascii	"rf_mod\000"
 8153      6F6400
 8154              	.LASF86:
 8155 01f0 42756666 		.ascii	"Buffer_LCD2\000"
 8155      65725F4C 
 8155      43443200 
 8156              	.LASF16:
 8157 01fc 63686172 		.ascii	"char\000"
 8157      00
 8158              	.LASF92:
 8159 0201 626C6F71 		.ascii	"bloqueo_LCD\000"
 8159      75656F5F 
 8159      4C434400 
 8160              	.LASF43:
 8161 020d 7461626C 		.ascii	"table\000"
 8161      6500
 8162              	.LASF23:
 8163 0213 6D616E67 		.ascii	"mangueras\000"
 8163      75657261 
 8163      7300
 8164              	.LASF12:
 8165 021d 75696E74 		.ascii	"uint16\000"
 8165      313600
 8166              	.LASF49:
 8167 0224 73746174 		.ascii	"status1\000"
 8167      75733100 
ARM GAS  C:\Users\SISTEM~1\AppData\Local\Temp\ccCGHuKi.s 			page 174


 8168              	.LASF118:
 8169 022c 7072696E 		.ascii	"print1\000"
 8169      743100
 8170              	.LASF119:
 8171 0233 7072696E 		.ascii	"print2\000"
 8171      743200
 8172              	.LASF34:
 8173 023a 7469706F 		.ascii	"tipo_venta\000"
 8173      5F76656E 
 8173      746100
 8174              	.LASF54:
 8175 0245 6461746F 		.ascii	"dato\000"
 8175      00
 8176              	.LASF37:
 8177 024a 7475726E 		.ascii	"turno\000"
 8177      6F00
 8178              	.LASF39:
 8179 0250 6461746F 		.ascii	"datos\000"
 8179      7300
 8180              	.LASF21:
 8181 0256 746F7461 		.ascii	"totales\000"
 8181      6C657300 
 8182              	.LASF89:
 8183 025e 70617373 		.ascii	"password_lcd\000"
 8183      776F7264 
 8183      5F6C6364 
 8183      00
 8184              	.LASF67:
 8185 026b 636F756E 		.ascii	"count_teclas1\000"
 8185      745F7465 
 8185      636C6173 
 8185      3100
 8186              	.LASF72:
 8187 0279 636F756E 		.ascii	"count_teclas2\000"
 8187      745F7465 
 8187      636C6173 
 8187      3200
 8188              	.LASF75:
 8189 0287 706F7378 		.ascii	"posx1\000"
 8189      3100
 8190              	.LASF129:
 8191 028d 76657269 		.ascii	"verificar_check\000"
 8191      66696361 
 8191      725F6368 
 8191      65636B00 
 8192              	.LASF6:
 8193 029d 6C6F6E67 		.ascii	"long long int\000"
 8193      206C6F6E 
 8193      6720696E 
 8193      7400
 8194              	.LASF78:
 8195 02ab 706F7378 		.ascii	"posx2\000"
 8195      3200
 8196              	.LASF29:
 8197 02b1 70726F64 		.ascii	"producto\000"
 8197      7563746F 
 8197      00
ARM GAS  C:\Users\SISTEM~1\AppData\Local\Temp\ccCGHuKi.s 			page 175


 8198              	.LASF55:
 8199 02ba 706F6C6C 		.ascii	"polling_LCD1\000"
 8199      696E675F 
 8199      4C434431 
 8199      00
 8200              	.LASF58:
 8201 02c7 706F6C6C 		.ascii	"polling_LCD2\000"
 8201      696E675F 
 8201      4C434432 
 8201      00
 8202              	.LASF35:
 8203 02d4 63656475 		.ascii	"cedula\000"
 8203      6C6100
 8204              	.LASF128:
 8205 02db 433A5C55 		.ascii	"C:\\Users\\sistemas_pc\\Desktop\\Nueva carpeta (2)\\"
 8205      73657273 
 8205      5C736973 
 8205      74656D61 
 8205      735F7063 
 8206 030a 42454147 		.ascii	"BEAGLE\\Programa\\Prueba_Autogas\\BBB.cydsn\000"
 8206      4C455C50 
 8206      726F6772 
 8206      616D615C 
 8206      50727565 
 8207              	.LASF76:
 8208 0333 706F7379 		.ascii	"posy1\000"
 8208      3100
 8209              	.LASF79:
 8210 0339 706F7379 		.ascii	"posy2\000"
 8210      3200
 8211              	.LASF40:
 8212 033f 73697A65 		.ascii	"size\000"
 8212      00
 8213              	.LASF13:
 8214 0344 75696E74 		.ascii	"uint32\000"
 8214      333200
 8215              	.LASF25:
 8216 034b 72656369 		.ascii	"recibo\000"
 8216      626F00
 8217              	.LASF27:
 8218 0352 64696E65 		.ascii	"dinero\000"
 8218      726F00
 8219              	.LASF85:
 8220 0359 42756666 		.ascii	"Buffer_LCD1\000"
 8220      65725F4C 
 8220      43443100 
 8221              	.LASF20:
 8222 0365 65737461 		.ascii	"estado\000"
 8222      646F00
 8223              	.LASF62:
 8224 036c 6D6F646F 		.ascii	"modo_mux\000"
 8224      5F6D7578 
 8224      00
 8225              	.LASF46:
 8226 0375 696D6167 		.ascii	"imagen\000"
 8226      656E00
 8227              	.LASF19:
ARM GAS  C:\Users\SISTEM~1\AppData\Local\Temp\ccCGHuKi.s 			page 176


 8228 037c 6C6F6E67 		.ascii	"long double\000"
 8228      20646F75 
 8228      626C6500 
 8229              	.LASF17:
 8230 0388 72656733 		.ascii	"reg32\000"
 8230      3200
 8231              	.LASF96:
 8232 038e 70707578 		.ascii	"ppux10\000"
 8232      313000
 8233              	.LASF103:
 8234 0395 6E6F6D62 		.ascii	"nombre\000"
 8234      726500
 8235              	.LASF117:
 8236 039c 6372635F 		.ascii	"crc_total\000"
 8236      746F7461 
 8236      6C00
 8237              	.LASF108:
 8238 03a6 69645F6C 		.ascii	"id_logo\000"
 8238      6F676F00 
 8239              	.LASF2:
 8240 03ae 73686F72 		.ascii	"short int\000"
 8240      7420696E 
 8240      7400
 8241              	.LASF65:
 8242 03b8 50435F72 		.ascii	"PC_rxBuffer\000"
 8242      78427566 
 8242      66657200 
 8243              	.LASF4:
 8244 03c4 6C6F6E67 		.ascii	"long int\000"
 8244      20696E74 
 8244      00
 8245              	.LASF66:
 8246 03cd 49544D5F 		.ascii	"ITM_RxBuffer\000"
 8246      52784275 
 8246      66666572 
 8246      00
 8247              	.LASF24:
 8248 03da 73757274 		.ascii	"surtidor\000"
 8248      69646F72 
 8248      00
 8249              	.LASF68:
 8250 03e3 636F6D61 		.ascii	"comas1\000"
 8250      733100
 8251              	.LASF69:
 8252 03ea 636F6D61 		.ascii	"comas2\000"
 8252      733200
 8253              	.LASF60:
 8254 03f1 616E696D 		.ascii	"animacion\000"
 8254      6163696F 
 8254      6E00
 8255              	.LASF97:
 8256 03fb 6E6F6D62 		.ascii	"nombre_pro1\000"
 8256      72655F70 
 8256      726F3100 
 8257              	.LASF99:
 8258 0407 6E6F6D62 		.ascii	"nombre_pro3\000"
 8258      72655F70 
ARM GAS  C:\Users\SISTEM~1\AppData\Local\Temp\ccCGHuKi.s 			page 177


 8258      726F3300 
 8259              	.LASF61:
 8260 0413 616E696D 		.ascii	"animacion2\000"
 8260      6163696F 
 8260      6E3200
 8261              	.LASF44:
 8262 041e 696E6974 		.ascii	"init\000"
 8262      00
 8263              	.LASF18:
 8264 0423 73697A65 		.ascii	"sizetype\000"
 8264      74797065 
 8264      00
 8265              	.LASF5:
 8266 042c 6C6F6E67 		.ascii	"long unsigned int\000"
 8266      20756E73 
 8266      69676E65 
 8266      6420696E 
 8266      7400
 8267              	.LASF56:
 8268 043e 6E756D65 		.ascii	"numero\000"
 8268      726F00
 8269              	.LASF10:
 8270 0445 696E7433 		.ascii	"int32_t\000"
 8270      325F7400 
 8271              	.LASF91:
 8272 044d 70726F78 		.ascii	"prox_caso\000"
 8272      5F636173 
 8272      6F00
 8273              	.LASF38:
 8274 0457 6175746F 		.ascii	"autorizado\000"
 8274      72697A61 
 8274      646F00
 8275              	.LASF1:
 8276 0462 756E7369 		.ascii	"unsigned char\000"
 8276      676E6564 
 8276      20636861 
 8276      7200
 8277              	.LASF126:
 8278 0470 474E5520 		.ascii	"GNU C 4.8.4 20140526 (release) [ARM/embedded-4_8-br"
 8278      4320342E 
 8278      382E3420 
 8278      32303134 
 8278      30353236 
 8279 04a3 616E6368 		.ascii	"anch revision 211358] -mcpu=cortex-m3 -mthumb -g -O"
 8279      20726576 
 8279      6973696F 
 8279      6E203231 
 8279      31333538 
 8280 04d6 30202D66 		.ascii	"0 -ffunction-sections\000"
 8280      66756E63 
 8280      74696F6E 
 8280      2D736563 
 8280      74696F6E 
 8281              	.LASF109:
 8282 04ec 66656368 		.ascii	"fecha\000"
 8282      6100
 8283              	.LASF114:
ARM GAS  C:\Users\SISTEM~1\AppData\Local\Temp\ccCGHuKi.s 			page 178


 8284 04f2 6F6B5F64 		.ascii	"ok_datosRF\000"
 8284      61746F73 
 8284      524600
 8285              	.LASF121:
 8286 04fd 636C6176 		.ascii	"clave_config\000"
 8286      655F636F 
 8286      6E666967 
 8286      00
 8287              	.LASF98:
 8288 050a 6E6F6D62 		.ascii	"nombre_pro2\000"
 8288      72655F70 
 8288      726F3200 
 8289              	.LASF0:
 8290 0516 7369676E 		.ascii	"signed char\000"
 8290      65642063 
 8290      68617200 
 8291              	.LASF45:
 8292 0522 6572726F 		.ascii	"error_op\000"
 8292      725F6F70 
 8292      00
 8293              	.LASF3:
 8294 052b 73686F72 		.ascii	"short unsigned int\000"
 8294      7420756E 
 8294      7369676E 
 8294      65642069 
 8294      6E7400
 8295              	.LASF63:
 8296 053e 6D61696E 		.ascii	"main\000"
 8296      00
 8297              	.LASF11:
 8298 0543 75696E74 		.ascii	"uint8\000"
 8298      3800
 8299              	.LASF15:
 8300 0549 646F7562 		.ascii	"double\000"
 8300      6C6500
 8301              	.LASF93:
 8302 0550 69645F65 		.ascii	"id_estacion\000"
 8302      73746163 
 8302      696F6E00 
 8303              	.LASF30:
 8304 055c 6D616E67 		.ascii	"manguera\000"
 8304      75657261 
 8304      00
 8305              	.LASF22:
 8306 0565 67726164 		.ascii	"grado\000"
 8306      6F00
 8307              	.LASF77:
 8308 056b 73697A65 		.ascii	"sizeletra1\000"
 8308      6C657472 
 8308      613100
 8309              	.LASF80:
 8310 0576 73697A65 		.ascii	"sizeletra2\000"
 8310      6C657472 
 8310      613200
 8311              	.LASF127:
 8312 0581 2E5C6D61 		.ascii	".\\main.c\000"
 8312      696E2E63 
ARM GAS  C:\Users\SISTEM~1\AppData\Local\Temp\ccCGHuKi.s 			page 179


 8312      00
 8313              		.ident	"GCC: (GNU Tools for ARM Embedded Processors) 4.8.4 20140526 (release) [ARM/embedded-4_8-br
