ARM GAS  C:\Users\RECEPC~1\AppData\Local\Temp\ccHuHCX2.s 			page 1


   1              		.syntax unified
   2              		.cpu cortex-m3
   3              		.fpu softvfp
   4              		.eabi_attribute 20, 1
   5              		.eabi_attribute 21, 1
   6              		.eabi_attribute 23, 3
   7              		.eabi_attribute 24, 1
   8              		.eabi_attribute 25, 1
   9              		.eabi_attribute 26, 1
  10              		.eabi_attribute 30, 6
  11              		.eabi_attribute 34, 1
  12              		.eabi_attribute 18, 4
  13              		.thumb
  14              		.file	"I2C.c"
  15              		.text
  16              	.Ltext0:
  17              		.cfi_sections	.debug_frame
  18              		.comm	count_teclas1,1,1
  19              		.comm	comas1,1,1
  20              		.comm	comas2,1,1
  21              		.comm	id_coma1,1,1
  22              		.comm	id_teclado1,1,1
  23              		.comm	count_teclas2,1,1
  24              		.comm	id_coma2,1,1
  25              		.comm	id_teclado2,1,1
  26              		.comm	posx1,2,2
  27              		.comm	posy1,2,2
  28              		.comm	sizeletra1,2,2
  29              		.comm	posx2,2,2
  30              		.comm	posy2,2,2
  31              		.comm	sizeletra2,2,2
  32              		.comm	teclas1,1,1
  33              		.comm	teclas2,1,1
  34              		.comm	flujo_LCD1,1,1
  35              		.comm	flujo_LCD2,1,1
  36              		.comm	flujo_pos1,1,1
  37              		.comm	flujo_pos2,1,1
  38              		.comm	seleccion_pos,1,1
  39              		.comm	flujo_pos,1,1
  40              		.comm	venta_activa,1,1
  41              		.comm	venta_activa2,1,1
  42              		.comm	Buffer_LCD1,30,4
  43              		.comm	Buffer_LCD2,30,4
  44              		.comm	count_protector,1,1
  45              		.comm	count_protector2,1,1
  46              		.comm	password_lcd,9,4
  47              		.comm	imagen_grado,2,2
  48              		.comm	prox_caso,8,4
  49              		.comm	bloqueo_LCD,3,4
  50              		.comm	id_estacion,5,4
  51              		.comm	id_venta,8,4
  52              		.comm	trama_totales,200,4
  53              		.comm	ppux10,1,1
  54              		.comm	nombre_pro1,17,4
  55              		.comm	nombre_pro2,17,4
  56              		.comm	nombre_pro3,17,4
  57              		.comm	version,4,4
ARM GAS  C:\Users\RECEPC~1\AppData\Local\Temp\ccHuHCX2.s 			page 2


  58              		.comm	kmscreen,1,1
  59              		.comm	pantallas,1,1
  60              		.comm	efectivo,1,1
  61              		.comm	lado1,93,4
  62              		.comm	lado2,93,4
  63              		.comm	lado3,93,4
  64              		.comm	lado4,93,4
  65              		.comm	nombre,33,4
  66              		.comm	nit,15,4
  67              		.comm	telefono,20,4
  68              		.comm	direccion,33,4
  69              		.comm	lema1,32,4
  70              		.comm	lema2,32,4
  71              		.comm	id_logo,2,4
  72              		.comm	km,2,4
  73              		.comm	fecha,3,4
  74              		.comm	hora,2,4
  75              		.comm	rventa1,118,4
  76              		.comm	rventa2,118,4
  77              		.comm	ok_RF,1,1
  78              		.comm	ok_datosRF,1,1
  79              		.comm	rf_mod,200,4
  80              		.comm	buffer_i2c,64,4
  81              		.comm	crc_total,1,1
  82              		.comm	print1,2,4
  83              		.comm	print2,2,4
  84              		.comm	tipo_venta,1,1
  85              		.section	.text.leer_hora,"ax",%progbits
  86              		.align	2
  87              		.global	leer_hora
  88              		.thumb
  89              		.thumb_func
  90              		.type	leer_hora, %function
  91              	leer_hora:
  92              	.LFB63:
  93              		.file 1 ".\\I2C.c"
   1:.\I2C.c       **** /*
   2:.\I2C.c       **** ***************************************************************************************************
   3:.\I2C.c       **** *                                           GRP550/700 CODE
   4:.\I2C.c       **** *
   5:.\I2C.c       **** *                             (c) Copyright 2013; Sistemas Insepet LTDA
   6:.\I2C.c       **** *
   7:.\I2C.c       **** *               All rights reserved.  Protected by international copyright laws.
   8:.\I2C.c       **** *               Knowledge of the source code may NOT be used to develop a similar product.
   9:.\I2C.c       **** *               Please help us continue to provide the Embedded community with the finest
  10:.\I2C.c       **** *               software available.  Your honesty is greatly appreciated.
  11:.\I2C.c       **** ***************************************************************************************************
  12:.\I2C.c       **** */
  13:.\I2C.c       **** 
  14:.\I2C.c       **** /*
  15:.\I2C.c       **** ***************************************************************************************************
  16:.\I2C.c       **** *
  17:.\I2C.c       **** *                                             GRP550/700 CODE
  18:.\I2C.c       **** *
  19:.\I2C.c       **** *                                             CYPRESS PSoC5LP
  20:.\I2C.c       **** *                                                with the
  21:.\I2C.c       **** *                                            CY8C5969AXI-LP035
ARM GAS  C:\Users\RECEPC~1\AppData\Local\Temp\ccHuHCX2.s 			page 3


  22:.\I2C.c       **** *
  23:.\I2C.c       **** * Filename      : I2C.c
  24:.\I2C.c       **** * Version       : V1.00
  25:.\I2C.c       **** * Programmer(s) : 
  26:.\I2C.c       ****                   
  27:.\I2C.c       **** ***************************************************************************************************
  28:.\I2C.c       **** */
  29:.\I2C.c       **** 
  30:.\I2C.c       **** 
  31:.\I2C.c       **** /*
  32:.\I2C.c       **** ***************************************************************************************************
  33:.\I2C.c       **** *                                             INCLUDE FILES
  34:.\I2C.c       **** ***************************************************************************************************
  35:.\I2C.c       **** */
  36:.\I2C.c       **** #include <device.h>
  37:.\I2C.c       **** #include "VariablesG.h"
  38:.\I2C.c       **** #include "LCD.h"
  39:.\I2C.c       **** 
  40:.\I2C.c       **** /*
  41:.\I2C.c       **** ***************************************************************************************************
  42:.\I2C.c       **** *                                         uint8 leer_hora( void )
  43:.\I2C.c       **** *
  44:.\I2C.c       **** * Description : 
  45:.\I2C.c       **** *               
  46:.\I2C.c       **** *
  47:.\I2C.c       **** * Argument(s) : none
  48:.\I2C.c       **** *
  49:.\I2C.c       **** * Return(s)   : none
  50:.\I2C.c       **** *
  51:.\I2C.c       **** * Caller(s)   : 
  52:.\I2C.c       **** *
  53:.\I2C.c       **** * Note(s)     : none.
  54:.\I2C.c       **** ***************************************************************************************************
  55:.\I2C.c       **** */
  56:.\I2C.c       **** uint8 leer_hora(){
  94              		.loc 1 56 0
  95              		.cfi_startproc
  96              		@ args = 0, pretend = 0, frame = 8
  97              		@ frame_needed = 1, uses_anonymous_args = 0
  98 0000 90B5     		push	{r4, r7, lr}
  99              		.cfi_def_cfa_offset 12
 100              		.cfi_offset 4, -12
 101              		.cfi_offset 7, -8
 102              		.cfi_offset 14, -4
 103 0002 83B0     		sub	sp, sp, #12
 104              		.cfi_def_cfa_offset 24
 105 0004 00AF     		add	r7, sp, #0
 106              		.cfi_def_cfa_register 7
  57:.\I2C.c       **** 	uint8 status,i;
  58:.\I2C.c       **** 	for(i=1;i<=2;i++){
 107              		.loc 1 58 0
 108 0006 0123     		movs	r3, #1
 109 0008 FB71     		strb	r3, [r7, #7]
 110 000a 36E0     		b	.L2
 111              	.L9:
  59:.\I2C.c       ****         I2C_1_MasterClearStatus();
 112              		.loc 1 59 0
ARM GAS  C:\Users\RECEPC~1\AppData\Local\Temp\ccHuHCX2.s 			page 4


 113 000c FFF7FEFF 		bl	I2C_1_MasterClearStatus
  60:.\I2C.c       ****         status = I2C_1_MasterSendStart(0x68, I2C_1_WRITE_XFER_MODE);
 114              		.loc 1 60 0
 115 0010 6820     		movs	r0, #104
 116 0012 0021     		movs	r1, #0
 117 0014 FFF7FEFF 		bl	I2C_1_MasterSendStart
 118 0018 0346     		mov	r3, r0
 119 001a BB71     		strb	r3, [r7, #6]
  61:.\I2C.c       ****         if(I2C_1_MSTR_NO_ERROR == status)								 		/* Check if transfer completed without errors *
 120              		.loc 1 61 0
 121 001c BB79     		ldrb	r3, [r7, #6]	@ zero_extendqisi2
 122 001e 002B     		cmp	r3, #0
 123 0020 26D1     		bne	.L3
  62:.\I2C.c       ****     	{
  63:.\I2C.c       ****             status = I2C_1_MasterWriteByte(i);
 124              		.loc 1 63 0
 125 0022 FB79     		ldrb	r3, [r7, #7]	@ zero_extendqisi2
 126 0024 1846     		mov	r0, r3
 127 0026 FFF7FEFF 		bl	I2C_1_MasterWriteByte
 128 002a 0346     		mov	r3, r0
 129 002c BB71     		strb	r3, [r7, #6]
  64:.\I2C.c       ****             if(status != I2C_1_MSTR_NO_ERROR)
 130              		.loc 1 64 0
 131 002e BB79     		ldrb	r3, [r7, #6]	@ zero_extendqisi2
 132 0030 002B     		cmp	r3, #0
 133 0032 01D0     		beq	.L4
  65:.\I2C.c       ****             {
  66:.\I2C.c       ****                 return 0;
 134              		.loc 1 66 0
 135 0034 0023     		movs	r3, #0
 136 0036 24E0     		b	.L5
 137              	.L4:
  67:.\I2C.c       ****             }
  68:.\I2C.c       **** 			else{
  69:.\I2C.c       **** 		        I2C_1_MasterSendStop(); 										/* Send Stop */
 138              		.loc 1 69 0
 139 0038 FFF7FEFF 		bl	I2C_1_MasterSendStop
  70:.\I2C.c       **** 		        CyDelay(10);
 140              		.loc 1 70 0
 141 003c 0A20     		movs	r0, #10
 142 003e FFF7FEFF 		bl	CyDelay
  71:.\I2C.c       **** 		        status = I2C_1_MasterSendStart(0x68, I2C_1_READ_XFER_MODE);
 143              		.loc 1 71 0
 144 0042 6820     		movs	r0, #104
 145 0044 0121     		movs	r1, #1
 146 0046 FFF7FEFF 		bl	I2C_1_MasterSendStart
 147 004a 0346     		mov	r3, r0
 148 004c BB71     		strb	r3, [r7, #6]
  72:.\I2C.c       **** 		        if(I2C_1_MSTR_NO_ERROR == status){
 149              		.loc 1 72 0
 150 004e BB79     		ldrb	r3, [r7, #6]	@ zero_extendqisi2
 151 0050 002B     		cmp	r3, #0
 152 0052 0BD1     		bne	.L6
  73:.\I2C.c       **** 		            hora[i-1] = I2C_1_MasterReadByte(I2C_1_NAK_DATA);
 153              		.loc 1 73 0
 154 0054 FB79     		ldrb	r3, [r7, #7]	@ zero_extendqisi2
 155 0056 5C1E     		subs	r4, r3, #1
ARM GAS  C:\Users\RECEPC~1\AppData\Local\Temp\ccHuHCX2.s 			page 5


 156 0058 0020     		movs	r0, #0
 157 005a FFF7FEFF 		bl	I2C_1_MasterReadByte
 158 005e 0346     		mov	r3, r0
 159 0060 1A46     		mov	r2, r3
 160 0062 0A4B     		ldr	r3, .L11
 161 0064 1A55     		strb	r2, [r3, r4]
  74:.\I2C.c       **** 		        }
  75:.\I2C.c       **** 				else{
  76:.\I2C.c       **** 					return 0;
  77:.\I2C.c       **** 				}
  78:.\I2C.c       **** 		        I2C_1_MasterSendStop();	
 162              		.loc 1 78 0
 163 0066 FFF7FEFF 		bl	I2C_1_MasterSendStop
 164 006a 03E0     		b	.L10
 165              	.L6:
  76:.\I2C.c       **** 				}
 166              		.loc 1 76 0
 167 006c 0023     		movs	r3, #0
 168 006e 08E0     		b	.L5
 169              	.L3:
  79:.\I2C.c       **** 			}
  80:.\I2C.c       ****         }
  81:.\I2C.c       **** 		else{
  82:.\I2C.c       **** 			return 0;
 170              		.loc 1 82 0
 171 0070 0023     		movs	r3, #0
 172 0072 06E0     		b	.L5
 173              	.L10:
  58:.\I2C.c       ****         I2C_1_MasterClearStatus();
 174              		.loc 1 58 0 discriminator 2
 175 0074 FB79     		ldrb	r3, [r7, #7]	@ zero_extendqisi2
 176 0076 0133     		adds	r3, r3, #1
 177 0078 FB71     		strb	r3, [r7, #7]
 178              	.L2:
  58:.\I2C.c       ****         I2C_1_MasterClearStatus();
 179              		.loc 1 58 0 is_stmt 0 discriminator 1
 180 007a FB79     		ldrb	r3, [r7, #7]	@ zero_extendqisi2
 181 007c 022B     		cmp	r3, #2
 182 007e C5D9     		bls	.L9
  83:.\I2C.c       **** 		}		
  84:.\I2C.c       **** 	}
  85:.\I2C.c       **** 	return 1;
 183              		.loc 1 85 0 is_stmt 1
 184 0080 0123     		movs	r3, #1
 185              	.L5:
  86:.\I2C.c       **** }
 186              		.loc 1 86 0
 187 0082 1846     		mov	r0, r3
 188 0084 0C37     		adds	r7, r7, #12
 189              		.cfi_def_cfa_offset 12
 190 0086 BD46     		mov	sp, r7
 191              		.cfi_def_cfa_register 13
 192              		@ sp needed
 193 0088 90BD     		pop	{r4, r7, pc}
 194              	.L12:
 195 008a 00BF     		.align	2
 196              	.L11:
ARM GAS  C:\Users\RECEPC~1\AppData\Local\Temp\ccHuHCX2.s 			page 6


 197 008c 00000000 		.word	hora
 198              		.cfi_endproc
 199              	.LFE63:
 200              		.size	leer_hora, .-leer_hora
 201              		.section	.text.leer_fecha,"ax",%progbits
 202              		.align	2
 203              		.global	leer_fecha
 204              		.thumb
 205              		.thumb_func
 206              		.type	leer_fecha, %function
 207              	leer_fecha:
 208              	.LFB64:
  87:.\I2C.c       **** 
  88:.\I2C.c       **** /*
  89:.\I2C.c       **** ***************************************************************************************************
  90:.\I2C.c       **** *                                         uint8 leer_fecha( void )
  91:.\I2C.c       **** *
  92:.\I2C.c       **** * Description : 
  93:.\I2C.c       **** *               
  94:.\I2C.c       **** *
  95:.\I2C.c       **** * Argument(s) : none
  96:.\I2C.c       **** *
  97:.\I2C.c       **** * Return(s)   : none
  98:.\I2C.c       **** *
  99:.\I2C.c       **** * Caller(s)   : 
 100:.\I2C.c       **** *
 101:.\I2C.c       **** * Note(s)     : none.
 102:.\I2C.c       **** ***************************************************************************************************
 103:.\I2C.c       **** */
 104:.\I2C.c       **** uint8 leer_fecha(){
 209              		.loc 1 104 0
 210              		.cfi_startproc
 211              		@ args = 0, pretend = 0, frame = 8
 212              		@ frame_needed = 1, uses_anonymous_args = 0
 213 0000 90B5     		push	{r4, r7, lr}
 214              		.cfi_def_cfa_offset 12
 215              		.cfi_offset 4, -12
 216              		.cfi_offset 7, -8
 217              		.cfi_offset 14, -4
 218 0002 83B0     		sub	sp, sp, #12
 219              		.cfi_def_cfa_offset 24
 220 0004 00AF     		add	r7, sp, #0
 221              		.cfi_def_cfa_register 7
 105:.\I2C.c       **** 	uint8 status,i;
 106:.\I2C.c       **** 	for(i=4;i<=6;i++){
 222              		.loc 1 106 0
 223 0006 0423     		movs	r3, #4
 224 0008 FB71     		strb	r3, [r7, #7]
 225 000a 36E0     		b	.L14
 226              	.L21:
 107:.\I2C.c       ****         I2C_1_MasterClearStatus();
 227              		.loc 1 107 0
 228 000c FFF7FEFF 		bl	I2C_1_MasterClearStatus
 108:.\I2C.c       ****         status = I2C_1_MasterSendStart(0x68, I2C_1_WRITE_XFER_MODE);
 229              		.loc 1 108 0
 230 0010 6820     		movs	r0, #104
 231 0012 0021     		movs	r1, #0
ARM GAS  C:\Users\RECEPC~1\AppData\Local\Temp\ccHuHCX2.s 			page 7


 232 0014 FFF7FEFF 		bl	I2C_1_MasterSendStart
 233 0018 0346     		mov	r3, r0
 234 001a BB71     		strb	r3, [r7, #6]
 109:.\I2C.c       ****         if(I2C_1_MSTR_NO_ERROR == status)								 		/* Check if transfer completed without errors *
 235              		.loc 1 109 0
 236 001c BB79     		ldrb	r3, [r7, #6]	@ zero_extendqisi2
 237 001e 002B     		cmp	r3, #0
 238 0020 26D1     		bne	.L15
 110:.\I2C.c       ****     	{
 111:.\I2C.c       ****             status = I2C_1_MasterWriteByte(i);
 239              		.loc 1 111 0
 240 0022 FB79     		ldrb	r3, [r7, #7]	@ zero_extendqisi2
 241 0024 1846     		mov	r0, r3
 242 0026 FFF7FEFF 		bl	I2C_1_MasterWriteByte
 243 002a 0346     		mov	r3, r0
 244 002c BB71     		strb	r3, [r7, #6]
 112:.\I2C.c       ****             if(status != I2C_1_MSTR_NO_ERROR)
 245              		.loc 1 112 0
 246 002e BB79     		ldrb	r3, [r7, #6]	@ zero_extendqisi2
 247 0030 002B     		cmp	r3, #0
 248 0032 01D0     		beq	.L16
 113:.\I2C.c       ****             {
 114:.\I2C.c       ****                 return 0;
 249              		.loc 1 114 0
 250 0034 0023     		movs	r3, #0
 251 0036 24E0     		b	.L17
 252              	.L16:
 115:.\I2C.c       ****             }
 116:.\I2C.c       **** 			else{
 117:.\I2C.c       **** 		        I2C_1_MasterSendStop(); 										/* Send Stop */
 253              		.loc 1 117 0
 254 0038 FFF7FEFF 		bl	I2C_1_MasterSendStop
 118:.\I2C.c       **** 		        CyDelay(10);
 255              		.loc 1 118 0
 256 003c 0A20     		movs	r0, #10
 257 003e FFF7FEFF 		bl	CyDelay
 119:.\I2C.c       **** 		        status = I2C_1_MasterSendStart(0x68, I2C_1_READ_XFER_MODE);
 258              		.loc 1 119 0
 259 0042 6820     		movs	r0, #104
 260 0044 0121     		movs	r1, #1
 261 0046 FFF7FEFF 		bl	I2C_1_MasterSendStart
 262 004a 0346     		mov	r3, r0
 263 004c BB71     		strb	r3, [r7, #6]
 120:.\I2C.c       **** 		        if(I2C_1_MSTR_NO_ERROR == status){
 264              		.loc 1 120 0
 265 004e BB79     		ldrb	r3, [r7, #6]	@ zero_extendqisi2
 266 0050 002B     		cmp	r3, #0
 267 0052 0BD1     		bne	.L18
 121:.\I2C.c       **** 		            fecha[i-4] = I2C_1_MasterReadByte(I2C_1_NAK_DATA);
 268              		.loc 1 121 0
 269 0054 FB79     		ldrb	r3, [r7, #7]	@ zero_extendqisi2
 270 0056 1C1F     		subs	r4, r3, #4
 271 0058 0020     		movs	r0, #0
 272 005a FFF7FEFF 		bl	I2C_1_MasterReadByte
 273 005e 0346     		mov	r3, r0
 274 0060 1A46     		mov	r2, r3
 275 0062 0A4B     		ldr	r3, .L23
ARM GAS  C:\Users\RECEPC~1\AppData\Local\Temp\ccHuHCX2.s 			page 8


 276 0064 1A55     		strb	r2, [r3, r4]
 122:.\I2C.c       **** 		        }
 123:.\I2C.c       **** 				else{
 124:.\I2C.c       **** 					return 0;
 125:.\I2C.c       **** 				}
 126:.\I2C.c       **** 		        I2C_1_MasterSendStop();	
 277              		.loc 1 126 0
 278 0066 FFF7FEFF 		bl	I2C_1_MasterSendStop
 279 006a 03E0     		b	.L22
 280              	.L18:
 124:.\I2C.c       **** 				}
 281              		.loc 1 124 0
 282 006c 0023     		movs	r3, #0
 283 006e 08E0     		b	.L17
 284              	.L15:
 127:.\I2C.c       **** 			}
 128:.\I2C.c       ****         }
 129:.\I2C.c       **** 		else{
 130:.\I2C.c       **** 			return 0;
 285              		.loc 1 130 0
 286 0070 0023     		movs	r3, #0
 287 0072 06E0     		b	.L17
 288              	.L22:
 106:.\I2C.c       ****         I2C_1_MasterClearStatus();
 289              		.loc 1 106 0 discriminator 2
 290 0074 FB79     		ldrb	r3, [r7, #7]	@ zero_extendqisi2
 291 0076 0133     		adds	r3, r3, #1
 292 0078 FB71     		strb	r3, [r7, #7]
 293              	.L14:
 106:.\I2C.c       ****         I2C_1_MasterClearStatus();
 294              		.loc 1 106 0 is_stmt 0 discriminator 1
 295 007a FB79     		ldrb	r3, [r7, #7]	@ zero_extendqisi2
 296 007c 062B     		cmp	r3, #6
 297 007e C5D9     		bls	.L21
 131:.\I2C.c       **** 		}		
 132:.\I2C.c       **** 	}
 133:.\I2C.c       **** 	return 1;
 298              		.loc 1 133 0 is_stmt 1
 299 0080 0123     		movs	r3, #1
 300              	.L17:
 134:.\I2C.c       **** }
 301              		.loc 1 134 0
 302 0082 1846     		mov	r0, r3
 303 0084 0C37     		adds	r7, r7, #12
 304              		.cfi_def_cfa_offset 12
 305 0086 BD46     		mov	sp, r7
 306              		.cfi_def_cfa_register 13
 307              		@ sp needed
 308 0088 90BD     		pop	{r4, r7, pc}
 309              	.L24:
 310 008a 00BF     		.align	2
 311              	.L23:
 312 008c 00000000 		.word	fecha
 313              		.cfi_endproc
 314              	.LFE64:
 315              		.size	leer_fecha, .-leer_fecha
 316              		.section	.text.write_hora,"ax",%progbits
ARM GAS  C:\Users\RECEPC~1\AppData\Local\Temp\ccHuHCX2.s 			page 9


 317              		.align	2
 318              		.global	write_hora
 319              		.thumb
 320              		.thumb_func
 321              		.type	write_hora, %function
 322              	write_hora:
 323              	.LFB65:
 135:.\I2C.c       **** 
 136:.\I2C.c       **** /*
 137:.\I2C.c       **** ***************************************************************************************************
 138:.\I2C.c       **** *                                         uint8 write_hora( void )
 139:.\I2C.c       **** *
 140:.\I2C.c       **** * Description : 
 141:.\I2C.c       **** *               
 142:.\I2C.c       **** *
 143:.\I2C.c       **** * Argument(s) : none
 144:.\I2C.c       **** *
 145:.\I2C.c       **** * Return(s)   : none
 146:.\I2C.c       **** *
 147:.\I2C.c       **** * Caller(s)   : 
 148:.\I2C.c       **** *
 149:.\I2C.c       **** * Note(s)     : none.
 150:.\I2C.c       **** ***************************************************************************************************
 151:.\I2C.c       **** */
 152:.\I2C.c       **** 
 153:.\I2C.c       **** uint8 write_hora( void ){
 324              		.loc 1 153 0
 325              		.cfi_startproc
 326              		@ args = 0, pretend = 0, frame = 8
 327              		@ frame_needed = 1, uses_anonymous_args = 0
 328 0000 80B5     		push	{r7, lr}
 329              		.cfi_def_cfa_offset 8
 330              		.cfi_offset 7, -8
 331              		.cfi_offset 14, -4
 332 0002 82B0     		sub	sp, sp, #8
 333              		.cfi_def_cfa_offset 16
 334 0004 00AF     		add	r7, sp, #0
 335              		.cfi_def_cfa_register 7
 154:.\I2C.c       **** 	uint8 status, dato[3],i;
 155:.\I2C.c       **** 	dato[0]=1;
 336              		.loc 1 155 0
 337 0006 0123     		movs	r3, #1
 338 0008 3B70     		strb	r3, [r7]
 156:.\I2C.c       **** 	dato[1]=hora[0];
 339              		.loc 1 156 0
 340 000a 1A4B     		ldr	r3, .L34
 341 000c 1B78     		ldrb	r3, [r3]	@ zero_extendqisi2
 342 000e 7B70     		strb	r3, [r7, #1]
 157:.\I2C.c       **** 	dato[2]=hora[1];
 343              		.loc 1 157 0
 344 0010 184B     		ldr	r3, .L34
 345 0012 5B78     		ldrb	r3, [r3, #1]	@ zero_extendqisi2
 346 0014 BB70     		strb	r3, [r7, #2]
 158:.\I2C.c       **** 	I2C_1_MasterClearStatus();
 347              		.loc 1 158 0
 348 0016 FFF7FEFF 		bl	I2C_1_MasterClearStatus
 159:.\I2C.c       ****     status = I2C_1_MasterSendStart(0x68, I2C_1_WRITE_XFER_MODE);
ARM GAS  C:\Users\RECEPC~1\AppData\Local\Temp\ccHuHCX2.s 			page 10


 349              		.loc 1 159 0
 350 001a 6820     		movs	r0, #104
 351 001c 0021     		movs	r1, #0
 352 001e FFF7FEFF 		bl	I2C_1_MasterSendStart
 353 0022 0346     		mov	r3, r0
 354 0024 BB71     		strb	r3, [r7, #6]
 160:.\I2C.c       ****     if(I2C_1_MSTR_NO_ERROR == status) 
 355              		.loc 1 160 0
 356 0026 BB79     		ldrb	r3, [r7, #6]	@ zero_extendqisi2
 357 0028 002B     		cmp	r3, #0
 358 002a 19D1     		bne	.L26
 161:.\I2C.c       ****     {
 162:.\I2C.c       ****         for(i=0; i<3; i++)
 359              		.loc 1 162 0
 360 002c 0023     		movs	r3, #0
 361 002e FB71     		strb	r3, [r7, #7]
 362 0030 12E0     		b	.L27
 363              	.L30:
 163:.\I2C.c       ****         {
 164:.\I2C.c       ****             status = I2C_1_MasterWriteByte(dato[i]);
 364              		.loc 1 164 0
 365 0032 FB79     		ldrb	r3, [r7, #7]	@ zero_extendqisi2
 366 0034 07F10802 		add	r2, r7, #8
 367 0038 1344     		add	r3, r3, r2
 368 003a 13F8083C 		ldrb	r3, [r3, #-8]	@ zero_extendqisi2
 369 003e 1846     		mov	r0, r3
 370 0040 FFF7FEFF 		bl	I2C_1_MasterWriteByte
 371 0044 0346     		mov	r3, r0
 372 0046 BB71     		strb	r3, [r7, #6]
 165:.\I2C.c       ****             if(status != I2C_1_MSTR_NO_ERROR)
 373              		.loc 1 165 0
 374 0048 BB79     		ldrb	r3, [r7, #6]	@ zero_extendqisi2
 375 004a 002B     		cmp	r3, #0
 376 004c 01D0     		beq	.L28
 166:.\I2C.c       ****             {
 167:.\I2C.c       ****                 return 0;
 377              		.loc 1 167 0
 378 004e 0023     		movs	r3, #0
 379 0050 0BE0     		b	.L32
 380              	.L28:
 162:.\I2C.c       ****         {
 381              		.loc 1 162 0 discriminator 2
 382 0052 FB79     		ldrb	r3, [r7, #7]	@ zero_extendqisi2
 383 0054 0133     		adds	r3, r3, #1
 384 0056 FB71     		strb	r3, [r7, #7]
 385              	.L27:
 162:.\I2C.c       ****         {
 386              		.loc 1 162 0 is_stmt 0 discriminator 1
 387 0058 FB79     		ldrb	r3, [r7, #7]	@ zero_extendqisi2
 388 005a 022B     		cmp	r3, #2
 389 005c E9D9     		bls	.L30
 390 005e 01E0     		b	.L33
 391              	.L26:
 168:.\I2C.c       ****             }
 169:.\I2C.c       ****         }
 170:.\I2C.c       ****     }
 171:.\I2C.c       ****     else{
ARM GAS  C:\Users\RECEPC~1\AppData\Local\Temp\ccHuHCX2.s 			page 11


 172:.\I2C.c       **** 		return 0;
 392              		.loc 1 172 0 is_stmt 1
 393 0060 0023     		movs	r3, #0
 394 0062 02E0     		b	.L32
 395              	.L33:
 173:.\I2C.c       ****     }
 174:.\I2C.c       ****     I2C_1_MasterSendStop();	
 396              		.loc 1 174 0
 397 0064 FFF7FEFF 		bl	I2C_1_MasterSendStop
 175:.\I2C.c       **** 	return 1;
 398              		.loc 1 175 0
 399 0068 0123     		movs	r3, #1
 400              	.L32:
 176:.\I2C.c       **** }
 401              		.loc 1 176 0 discriminator 1
 402 006a 1846     		mov	r0, r3
 403 006c 0837     		adds	r7, r7, #8
 404              		.cfi_def_cfa_offset 8
 405 006e BD46     		mov	sp, r7
 406              		.cfi_def_cfa_register 13
 407              		@ sp needed
 408 0070 80BD     		pop	{r7, pc}
 409              	.L35:
 410 0072 00BF     		.align	2
 411              	.L34:
 412 0074 00000000 		.word	hora
 413              		.cfi_endproc
 414              	.LFE65:
 415              		.size	write_hora, .-write_hora
 416              		.section	.text.write_fecha,"ax",%progbits
 417              		.align	2
 418              		.global	write_fecha
 419              		.thumb
 420              		.thumb_func
 421              		.type	write_fecha, %function
 422              	write_fecha:
 423              	.LFB66:
 177:.\I2C.c       **** 
 178:.\I2C.c       **** /*
 179:.\I2C.c       **** ***************************************************************************************************
 180:.\I2C.c       **** *                                         uint8 write_fecha( void )
 181:.\I2C.c       **** *
 182:.\I2C.c       **** * Description : 
 183:.\I2C.c       **** *               
 184:.\I2C.c       **** *
 185:.\I2C.c       **** * Argument(s) : none
 186:.\I2C.c       **** *
 187:.\I2C.c       **** * Return(s)   : none
 188:.\I2C.c       **** *
 189:.\I2C.c       **** * Caller(s)   : 
 190:.\I2C.c       **** *
 191:.\I2C.c       **** * Note(s)     : none.
 192:.\I2C.c       **** ***************************************************************************************************
 193:.\I2C.c       **** */
 194:.\I2C.c       **** 
 195:.\I2C.c       **** uint8 write_fecha( void ){
 424              		.loc 1 195 0
ARM GAS  C:\Users\RECEPC~1\AppData\Local\Temp\ccHuHCX2.s 			page 12


 425              		.cfi_startproc
 426              		@ args = 0, pretend = 0, frame = 8
 427              		@ frame_needed = 1, uses_anonymous_args = 0
 428 0000 80B5     		push	{r7, lr}
 429              		.cfi_def_cfa_offset 8
 430              		.cfi_offset 7, -8
 431              		.cfi_offset 14, -4
 432 0002 82B0     		sub	sp, sp, #8
 433              		.cfi_def_cfa_offset 16
 434 0004 00AF     		add	r7, sp, #0
 435              		.cfi_def_cfa_register 7
 196:.\I2C.c       **** 	uint8 status, dato[4],i;
 197:.\I2C.c       **** 	dato[0]=4;
 436              		.loc 1 197 0
 437 0006 0423     		movs	r3, #4
 438 0008 3B70     		strb	r3, [r7]
 198:.\I2C.c       **** 	dato[1]=fecha[0];
 439              		.loc 1 198 0
 440 000a 1B4B     		ldr	r3, .L45
 441 000c 1B78     		ldrb	r3, [r3]	@ zero_extendqisi2
 442 000e 7B70     		strb	r3, [r7, #1]
 199:.\I2C.c       **** 	dato[2]=fecha[1];
 443              		.loc 1 199 0
 444 0010 194B     		ldr	r3, .L45
 445 0012 5B78     		ldrb	r3, [r3, #1]	@ zero_extendqisi2
 446 0014 BB70     		strb	r3, [r7, #2]
 200:.\I2C.c       **** 	dato[3]=fecha[2];
 447              		.loc 1 200 0
 448 0016 184B     		ldr	r3, .L45
 449 0018 9B78     		ldrb	r3, [r3, #2]	@ zero_extendqisi2
 450 001a FB70     		strb	r3, [r7, #3]
 201:.\I2C.c       **** 	I2C_1_MasterClearStatus();
 451              		.loc 1 201 0
 452 001c FFF7FEFF 		bl	I2C_1_MasterClearStatus
 202:.\I2C.c       ****     status = I2C_1_MasterSendStart(0x68, I2C_1_WRITE_XFER_MODE);
 453              		.loc 1 202 0
 454 0020 6820     		movs	r0, #104
 455 0022 0021     		movs	r1, #0
 456 0024 FFF7FEFF 		bl	I2C_1_MasterSendStart
 457 0028 0346     		mov	r3, r0
 458 002a BB71     		strb	r3, [r7, #6]
 203:.\I2C.c       ****     if(I2C_1_MSTR_NO_ERROR == status) 
 459              		.loc 1 203 0
 460 002c BB79     		ldrb	r3, [r7, #6]	@ zero_extendqisi2
 461 002e 002B     		cmp	r3, #0
 462 0030 19D1     		bne	.L37
 204:.\I2C.c       ****     {
 205:.\I2C.c       ****         for(i=0; i<4; i++)
 463              		.loc 1 205 0
 464 0032 0023     		movs	r3, #0
 465 0034 FB71     		strb	r3, [r7, #7]
 466 0036 12E0     		b	.L38
 467              	.L41:
 206:.\I2C.c       ****         {
 207:.\I2C.c       ****             status = I2C_1_MasterWriteByte(dato[i]);
 468              		.loc 1 207 0
 469 0038 FB79     		ldrb	r3, [r7, #7]	@ zero_extendqisi2
ARM GAS  C:\Users\RECEPC~1\AppData\Local\Temp\ccHuHCX2.s 			page 13


 470 003a 07F10802 		add	r2, r7, #8
 471 003e 1344     		add	r3, r3, r2
 472 0040 13F8083C 		ldrb	r3, [r3, #-8]	@ zero_extendqisi2
 473 0044 1846     		mov	r0, r3
 474 0046 FFF7FEFF 		bl	I2C_1_MasterWriteByte
 475 004a 0346     		mov	r3, r0
 476 004c BB71     		strb	r3, [r7, #6]
 208:.\I2C.c       ****             if(status != I2C_1_MSTR_NO_ERROR)
 477              		.loc 1 208 0
 478 004e BB79     		ldrb	r3, [r7, #6]	@ zero_extendqisi2
 479 0050 002B     		cmp	r3, #0
 480 0052 01D0     		beq	.L39
 209:.\I2C.c       ****             {
 210:.\I2C.c       ****                 return 0;
 481              		.loc 1 210 0
 482 0054 0023     		movs	r3, #0
 483 0056 0BE0     		b	.L43
 484              	.L39:
 205:.\I2C.c       ****         {
 485              		.loc 1 205 0 discriminator 2
 486 0058 FB79     		ldrb	r3, [r7, #7]	@ zero_extendqisi2
 487 005a 0133     		adds	r3, r3, #1
 488 005c FB71     		strb	r3, [r7, #7]
 489              	.L38:
 205:.\I2C.c       ****         {
 490              		.loc 1 205 0 is_stmt 0 discriminator 1
 491 005e FB79     		ldrb	r3, [r7, #7]	@ zero_extendqisi2
 492 0060 032B     		cmp	r3, #3
 493 0062 E9D9     		bls	.L41
 494 0064 01E0     		b	.L44
 495              	.L37:
 211:.\I2C.c       ****             }
 212:.\I2C.c       ****         }
 213:.\I2C.c       ****     }
 214:.\I2C.c       ****     else{
 215:.\I2C.c       **** 		return 0;
 496              		.loc 1 215 0 is_stmt 1
 497 0066 0023     		movs	r3, #0
 498 0068 02E0     		b	.L43
 499              	.L44:
 216:.\I2C.c       ****     }
 217:.\I2C.c       ****     I2C_1_MasterSendStop();	
 500              		.loc 1 217 0
 501 006a FFF7FEFF 		bl	I2C_1_MasterSendStop
 218:.\I2C.c       **** 	return 1;
 502              		.loc 1 218 0
 503 006e 0123     		movs	r3, #1
 504              	.L43:
 219:.\I2C.c       **** }
 505              		.loc 1 219 0 discriminator 1
 506 0070 1846     		mov	r0, r3
 507 0072 0837     		adds	r7, r7, #8
 508              		.cfi_def_cfa_offset 8
 509 0074 BD46     		mov	sp, r7
 510              		.cfi_def_cfa_register 13
 511              		@ sp needed
 512 0076 80BD     		pop	{r7, pc}
ARM GAS  C:\Users\RECEPC~1\AppData\Local\Temp\ccHuHCX2.s 			page 14


 513              	.L46:
 514              		.align	2
 515              	.L45:
 516 0078 00000000 		.word	fecha
 517              		.cfi_endproc
 518              	.LFE66:
 519              		.size	write_fecha, .-write_fecha
 520              		.section	.text.write_psoc1,"ax",%progbits
 521              		.align	2
 522              		.global	write_psoc1
 523              		.thumb
 524              		.thumb_func
 525              		.type	write_psoc1, %function
 526              	write_psoc1:
 527              	.LFB67:
 220:.\I2C.c       **** 
 221:.\I2C.c       **** /*
 222:.\I2C.c       **** ***************************************************************************************************
 223:.\I2C.c       **** *                                   uint8 write_psoc1( uint8 puerto, uint8 valor )
 224:.\I2C.c       **** *
 225:.\I2C.c       **** * Description : 
 226:.\I2C.c       **** *               
 227:.\I2C.c       **** *
 228:.\I2C.c       **** * Argument(s) : none
 229:.\I2C.c       **** *
 230:.\I2C.c       **** * Return(s)   : none
 231:.\I2C.c       **** *
 232:.\I2C.c       **** * Caller(s)   : 
 233:.\I2C.c       **** *
 234:.\I2C.c       **** * Note(s)     : none.
 235:.\I2C.c       **** ***************************************************************************************************
 236:.\I2C.c       **** */
 237:.\I2C.c       **** 
 238:.\I2C.c       **** uint8 write_psoc1( uint8 puerto, uint8 valor ){
 528              		.loc 1 238 0
 529              		.cfi_startproc
 530              		@ args = 0, pretend = 0, frame = 16
 531              		@ frame_needed = 1, uses_anonymous_args = 0
 532 0000 80B5     		push	{r7, lr}
 533              		.cfi_def_cfa_offset 8
 534              		.cfi_offset 7, -8
 535              		.cfi_offset 14, -4
 536 0002 84B0     		sub	sp, sp, #16
 537              		.cfi_def_cfa_offset 24
 538 0004 00AF     		add	r7, sp, #0
 539              		.cfi_def_cfa_register 7
 540 0006 0346     		mov	r3, r0
 541 0008 0A46     		mov	r2, r1
 542 000a FB71     		strb	r3, [r7, #7]
 543 000c 1346     		mov	r3, r2
 544 000e BB71     		strb	r3, [r7, #6]
 239:.\I2C.c       **** 	uint8 status, dato[2],i;
 240:.\I2C.c       **** 	dato[0]=puerto;
 545              		.loc 1 240 0
 546 0010 FB79     		ldrb	r3, [r7, #7]
 547 0012 3B73     		strb	r3, [r7, #12]
 241:.\I2C.c       **** 	dato[1]=valor;
ARM GAS  C:\Users\RECEPC~1\AppData\Local\Temp\ccHuHCX2.s 			page 15


 548              		.loc 1 241 0
 549 0014 BB79     		ldrb	r3, [r7, #6]
 550 0016 7B73     		strb	r3, [r7, #13]
 242:.\I2C.c       **** 	I2C_1_MasterClearStatus();
 551              		.loc 1 242 0
 552 0018 FFF7FEFF 		bl	I2C_1_MasterClearStatus
 243:.\I2C.c       ****     status = I2C_1_MasterSendStart(7u, I2C_1_WRITE_XFER_MODE);
 553              		.loc 1 243 0
 554 001c 0720     		movs	r0, #7
 555 001e 0021     		movs	r1, #0
 556 0020 FFF7FEFF 		bl	I2C_1_MasterSendStart
 557 0024 0346     		mov	r3, r0
 558 0026 BB73     		strb	r3, [r7, #14]
 244:.\I2C.c       ****     if(I2C_1_MSTR_NO_ERROR == status) 
 559              		.loc 1 244 0
 560 0028 BB7B     		ldrb	r3, [r7, #14]	@ zero_extendqisi2
 561 002a 002B     		cmp	r3, #0
 562 002c 19D1     		bne	.L48
 245:.\I2C.c       ****     {
 246:.\I2C.c       ****         for(i=0; i<2; i++)
 563              		.loc 1 246 0
 564 002e 0023     		movs	r3, #0
 565 0030 FB73     		strb	r3, [r7, #15]
 566 0032 12E0     		b	.L49
 567              	.L52:
 247:.\I2C.c       ****         {
 248:.\I2C.c       ****             status = I2C_1_MasterWriteByte(dato[i]);
 568              		.loc 1 248 0
 569 0034 FB7B     		ldrb	r3, [r7, #15]	@ zero_extendqisi2
 570 0036 07F11002 		add	r2, r7, #16
 571 003a 1344     		add	r3, r3, r2
 572 003c 13F8043C 		ldrb	r3, [r3, #-4]	@ zero_extendqisi2
 573 0040 1846     		mov	r0, r3
 574 0042 FFF7FEFF 		bl	I2C_1_MasterWriteByte
 575 0046 0346     		mov	r3, r0
 576 0048 BB73     		strb	r3, [r7, #14]
 249:.\I2C.c       ****             if(status != I2C_1_MSTR_NO_ERROR)
 577              		.loc 1 249 0
 578 004a BB7B     		ldrb	r3, [r7, #14]	@ zero_extendqisi2
 579 004c 002B     		cmp	r3, #0
 580 004e 01D0     		beq	.L50
 250:.\I2C.c       ****             {
 251:.\I2C.c       ****                 return 0;
 581              		.loc 1 251 0
 582 0050 0023     		movs	r3, #0
 583 0052 0BE0     		b	.L54
 584              	.L50:
 246:.\I2C.c       ****         {
 585              		.loc 1 246 0 discriminator 2
 586 0054 FB7B     		ldrb	r3, [r7, #15]	@ zero_extendqisi2
 587 0056 0133     		adds	r3, r3, #1
 588 0058 FB73     		strb	r3, [r7, #15]
 589              	.L49:
 246:.\I2C.c       ****         {
 590              		.loc 1 246 0 is_stmt 0 discriminator 1
 591 005a FB7B     		ldrb	r3, [r7, #15]	@ zero_extendqisi2
 592 005c 012B     		cmp	r3, #1
ARM GAS  C:\Users\RECEPC~1\AppData\Local\Temp\ccHuHCX2.s 			page 16


 593 005e E9D9     		bls	.L52
 594 0060 01E0     		b	.L55
 595              	.L48:
 252:.\I2C.c       ****             }
 253:.\I2C.c       ****         }
 254:.\I2C.c       ****     }
 255:.\I2C.c       ****     else{
 256:.\I2C.c       **** 		return 0;
 596              		.loc 1 256 0 is_stmt 1
 597 0062 0023     		movs	r3, #0
 598 0064 02E0     		b	.L54
 599              	.L55:
 257:.\I2C.c       ****     }
 258:.\I2C.c       ****     I2C_1_MasterSendStop();	
 600              		.loc 1 258 0
 601 0066 FFF7FEFF 		bl	I2C_1_MasterSendStop
 259:.\I2C.c       **** 	return 1;
 602              		.loc 1 259 0
 603 006a 0123     		movs	r3, #1
 604              	.L54:
 260:.\I2C.c       **** }
 605              		.loc 1 260 0 discriminator 1
 606 006c 1846     		mov	r0, r3
 607 006e 1037     		adds	r7, r7, #16
 608              		.cfi_def_cfa_offset 8
 609 0070 BD46     		mov	sp, r7
 610              		.cfi_def_cfa_register 13
 611              		@ sp needed
 612 0072 80BD     		pop	{r7, pc}
 613              		.cfi_endproc
 614              	.LFE67:
 615              		.size	write_psoc1, .-write_psoc1
 616              		.text
 617              	.Letext0:
 618              		.file 2 "c:\\program files (x86)\\cypress\\psoc creator\\3.3\\psoc creator\\import\\gnu\\arm\\4.9.
 619              		.file 3 "c:\\program files (x86)\\cypress\\psoc creator\\3.3\\psoc creator\\import\\gnu\\arm\\4.9.
 620              		.file 4 "Generated_Source\\PSoC5/cytypes.h"
 621              		.file 5 ".\\VariablesG.h"
 622              		.file 6 "Generated_Source\\PSoC5/core_cm3.h"