ARM GAS  C:\Users\RECEPC~1\AppData\Local\Temp\ccosLHcU.s 			page 1


   1              		.syntax unified
   2              		.cpu cortex-m3
   3              		.fpu softvfp
   4              		.eabi_attribute 20, 1
   5              		.eabi_attribute 21, 1
   6              		.eabi_attribute 23, 3
   7              		.eabi_attribute 24, 1
   8              		.eabi_attribute 25, 1
   9              		.eabi_attribute 26, 1
  10              		.eabi_attribute 30, 6
  11              		.eabi_attribute 34, 1
  12              		.eabi_attribute 18, 4
  13              		.thumb
  14              		.file	"ibuton.c"
  15              		.text
  16              	.Ltext0:
  17              		.cfi_sections	.debug_frame
  18              		.comm	count_teclas1,1,1
  19              		.comm	comas1,1,1
  20              		.comm	comas2,1,1
  21              		.comm	id_coma1,1,1
  22              		.comm	id_teclado1,1,1
  23              		.comm	count_teclas2,1,1
  24              		.comm	id_coma2,1,1
  25              		.comm	id_teclado2,1,1
  26              		.comm	posx1,2,2
  27              		.comm	posy1,2,2
  28              		.comm	sizeletra1,2,2
  29              		.comm	posx2,2,2
  30              		.comm	posy2,2,2
  31              		.comm	sizeletra2,2,2
  32              		.comm	teclas1,1,1
  33              		.comm	teclas2,1,1
  34              		.comm	flujo_LCD1,1,1
  35              		.comm	flujo_LCD2,1,1
  36              		.comm	Buffer_LCD1,30,4
  37              		.comm	Buffer_LCD2,30,4
  38              		.comm	count_protector,1,1
  39              		.comm	count_protector2,1,1
  40              		.comm	password_lcd,9,4
  41              		.comm	imagen_grado,2,2
  42              		.comm	prox_caso,8,4
  43              		.comm	bloqueo_LCD,3,4
  44              		.comm	id_estacion,5,4
  45              		.comm	id_venta,8,4
  46              		.comm	trama_totales,200,4
  47              		.comm	ppux10,1,1
  48              		.comm	nombre_pro1,17,4
  49              		.comm	nombre_pro2,17,4
  50              		.comm	nombre_pro3,17,4
  51              		.comm	version,4,4
  52              		.comm	lado1,93,4
  53              		.comm	lado2,93,4
  54              		.comm	nombre,33,4
  55              		.comm	nit,15,4
  56              		.comm	telefono,20,4
  57              		.comm	direccion,33,4
ARM GAS  C:\Users\RECEPC~1\AppData\Local\Temp\ccosLHcU.s 			page 2


  58              		.comm	lema1,32,4
  59              		.comm	lema2,32,4
  60              		.comm	id_logo,2,4
  61              		.comm	km,2,4
  62              		.comm	fecha,3,4
  63              		.comm	hora,2,4
  64              		.comm	rventa1,118,4
  65              		.comm	rventa2,118,4
  66              		.comm	ok_RF,1,1
  67              		.comm	ok_datosRF,1,1
  68              		.comm	rf_mod,200,4
  69              		.comm	buffer_i2c,64,4
  70              		.comm	crc_total,1,1
  71              		.comm	print1,2,4
  72              		.comm	print2,2,4
  73              		.comm	tipo_venta,1,1
  74              		.section	.text.touch_present,"ax",%progbits
  75              		.align	2
  76              		.global	touch_present
  77              		.thumb
  78              		.thumb_func
  79              		.type	touch_present, %function
  80              	touch_present:
  81              	.LFB63:
  82              		.file 1 ".\\ibuton.c"
   1:.\ibuton.c    **** /*
   2:.\ibuton.c    **** ***************************************************************************************************
   3:.\ibuton.c    **** *                                           GRP550M CODE
   4:.\ibuton.c    **** *
   5:.\ibuton.c    **** *                             (c) Copyright 2013; Sistemas Insepet LTDA
   6:.\ibuton.c    **** *
   7:.\ibuton.c    **** *               All rights reserved.  Protected by international copyright laws.
   8:.\ibuton.c    **** *               Knowledge of the source code may NOT be used to develop a similar product.
   9:.\ibuton.c    **** *               Please help us continue to provide the Embedded community with the finest
  10:.\ibuton.c    **** *               software available.  Your honesty is greatly appreciated.
  11:.\ibuton.c    **** ***************************************************************************************************
  12:.\ibuton.c    **** */
  13:.\ibuton.c    **** 
  14:.\ibuton.c    **** /*
  15:.\ibuton.c    **** ***************************************************************************************************
  16:.\ibuton.c    **** *
  17:.\ibuton.c    **** *                                               GRP550M CODE
  18:.\ibuton.c    **** *
  19:.\ibuton.c    **** *                                             CYPRESS PSoC5LP
  20:.\ibuton.c    **** *                                                with the
  21:.\ibuton.c    **** *                                            CY8C5969AXI-LP035
  22:.\ibuton.c    **** *
  23:.\ibuton.c    **** * Filename      : ibutton.c
  24:.\ibuton.c    **** * Version       : V1.00
  25:.\ibuton.c    **** * Programmer(s) : 
  26:.\ibuton.c    ****                   
  27:.\ibuton.c    **** ***************************************************************************************************
  28:.\ibuton.c    **** */
  29:.\ibuton.c    **** 
  30:.\ibuton.c    **** /*
  31:.\ibuton.c    **** ***************************************************************************************************
  32:.\ibuton.c    **** *                                             INCLUDE FILES
ARM GAS  C:\Users\RECEPC~1\AppData\Local\Temp\ccosLHcU.s 			page 3


  33:.\ibuton.c    **** ***************************************************************************************************
  34:.\ibuton.c    **** */
  35:.\ibuton.c    **** #include <device.h>
  36:.\ibuton.c    **** #include "VariablesG.h"
  37:.\ibuton.c    **** 
  38:.\ibuton.c    **** /*
  39:.\ibuton.c    **** ***************************************************************************************************
  40:.\ibuton.c    **** *                                           uint8 touch_present(void)
  41:.\ibuton.c    **** *
  42:.\ibuton.c    **** * Description : 
  43:.\ibuton.c    **** *               
  44:.\ibuton.c    **** *
  45:.\ibuton.c    **** * Argument(s) : none
  46:.\ibuton.c    **** *
  47:.\ibuton.c    **** * Return(s)   : none
  48:.\ibuton.c    **** *
  49:.\ibuton.c    **** * Caller(s)   : 
  50:.\ibuton.c    **** *
  51:.\ibuton.c    **** * Note(s)     : none.
  52:.\ibuton.c    **** ***************************************************************************************************
  53:.\ibuton.c    **** */
  54:.\ibuton.c    **** 
  55:.\ibuton.c    **** uint8 touch_present(uint8 ibutton){  
  83              		.loc 1 55 0
  84              		.cfi_startproc
  85              		@ args = 0, pretend = 0, frame = 16
  86              		@ frame_needed = 1, uses_anonymous_args = 0
  87 0000 80B5     		push	{r7, lr}
  88              		.cfi_def_cfa_offset 8
  89              		.cfi_offset 7, -8
  90              		.cfi_offset 14, -4
  91 0002 84B0     		sub	sp, sp, #16
  92              		.cfi_def_cfa_offset 24
  93 0004 00AF     		add	r7, sp, #0
  94              		.cfi_def_cfa_register 7
  95 0006 0346     		mov	r3, r0
  96 0008 FB71     		strb	r3, [r7, #7]
  56:.\ibuton.c    ****     uint8 present;
  57:.\ibuton.c    **** 	if(ibutton==1){
  97              		.loc 1 57 0
  98 000a FB79     		ldrb	r3, [r7, #7]	@ zero_extendqisi2
  99 000c 012B     		cmp	r3, #1
 100 000e 29D1     		bne	.L2
  58:.\ibuton.c    **** 	    IB1_Write(0);
 101              		.loc 1 58 0
 102 0010 0020     		movs	r0, #0
 103 0012 FFF7FEFF 		bl	IB1_Write
  59:.\ibuton.c    **** 	    CyDelayUs(500);
 104              		.loc 1 59 0
 105 0016 4FF4FA70 		mov	r0, #500
 106 001a FFF7FEFF 		bl	CyDelayUs
  60:.\ibuton.c    **** 	    IB1_Write(1);
 107              		.loc 1 60 0
 108 001e 0120     		movs	r0, #1
 109 0020 FFF7FEFF 		bl	IB1_Write
  61:.\ibuton.c    **** 	    CyDelayUs(5);
 110              		.loc 1 61 0
ARM GAS  C:\Users\RECEPC~1\AppData\Local\Temp\ccosLHcU.s 			page 4


 111 0024 0520     		movs	r0, #5
 112 0026 FFF7FEFF 		bl	CyDelayUs
  62:.\ibuton.c    **** 
  63:.\ibuton.c    **** 	    if(!IB1_Read()){
 113              		.loc 1 63 0
 114 002a FFF7FEFF 		bl	IB1_Read
 115 002e 0346     		mov	r3, r0
 116 0030 002B     		cmp	r3, #0
 117 0032 01D1     		bne	.L3
  64:.\ibuton.c    **** 	        return 0;
 118              		.loc 1 64 0
 119 0034 0023     		movs	r3, #0
 120 0036 3EE0     		b	.L4
 121              	.L3:
  65:.\ibuton.c    **** 	    }
  66:.\ibuton.c    **** 
  67:.\ibuton.c    **** 	    CyDelayUs(65);
 122              		.loc 1 67 0
 123 0038 4120     		movs	r0, #65
 124 003a FFF7FEFF 		bl	CyDelayUs
  68:.\ibuton.c    **** 	    present=!IB1_Read();
 125              		.loc 1 68 0
 126 003e FFF7FEFF 		bl	IB1_Read
 127 0042 0346     		mov	r3, r0
 128 0044 002B     		cmp	r3, #0
 129 0046 0CBF     		ite	eq
 130 0048 0123     		moveq	r3, #1
 131 004a 0023     		movne	r3, #0
 132 004c DBB2     		uxtb	r3, r3
 133 004e FB73     		strb	r3, [r7, #15]
  69:.\ibuton.c    **** 	    CyDelayUs(240);
 134              		.loc 1 69 0
 135 0050 F020     		movs	r0, #240
 136 0052 FFF7FEFF 		bl	CyDelayUs
  70:.\ibuton.c    **** 	    if(present){
 137              		.loc 1 70 0
 138 0056 FB7B     		ldrb	r3, [r7, #15]	@ zero_extendqisi2
 139 0058 002B     		cmp	r3, #0
 140 005a 01D0     		beq	.L5
  71:.\ibuton.c    **** 	        return 1;
 141              		.loc 1 71 0
 142 005c 0123     		movs	r3, #1
 143 005e 2AE0     		b	.L4
 144              	.L5:
  72:.\ibuton.c    **** 	    }
  73:.\ibuton.c    **** 	    else{
  74:.\ibuton.c    **** 	        return 0;
 145              		.loc 1 74 0
 146 0060 0023     		movs	r3, #0
 147 0062 28E0     		b	.L4
 148              	.L2:
  75:.\ibuton.c    **** 	    } 
  76:.\ibuton.c    **** 	}
  77:.\ibuton.c    **** 	else{
  78:.\ibuton.c    **** 	    IB2_Write(0);
 149              		.loc 1 78 0
 150 0064 0020     		movs	r0, #0
ARM GAS  C:\Users\RECEPC~1\AppData\Local\Temp\ccosLHcU.s 			page 5


 151 0066 FFF7FEFF 		bl	IB2_Write
  79:.\ibuton.c    **** 	    CyDelayUs(500);
 152              		.loc 1 79 0
 153 006a 4FF4FA70 		mov	r0, #500
 154 006e FFF7FEFF 		bl	CyDelayUs
  80:.\ibuton.c    **** 	    IB2_Write(1);
 155              		.loc 1 80 0
 156 0072 0120     		movs	r0, #1
 157 0074 FFF7FEFF 		bl	IB2_Write
  81:.\ibuton.c    **** 	    CyDelayUs(5);
 158              		.loc 1 81 0
 159 0078 0520     		movs	r0, #5
 160 007a FFF7FEFF 		bl	CyDelayUs
  82:.\ibuton.c    **** 
  83:.\ibuton.c    **** 	    if(!IB2_Read()){
 161              		.loc 1 83 0
 162 007e FFF7FEFF 		bl	IB2_Read
 163 0082 0346     		mov	r3, r0
 164 0084 002B     		cmp	r3, #0
 165 0086 01D1     		bne	.L6
  84:.\ibuton.c    **** 	        return 0;
 166              		.loc 1 84 0
 167 0088 0023     		movs	r3, #0
 168 008a 14E0     		b	.L4
 169              	.L6:
  85:.\ibuton.c    **** 	    }
  86:.\ibuton.c    **** 
  87:.\ibuton.c    **** 	    CyDelayUs(65);
 170              		.loc 1 87 0
 171 008c 4120     		movs	r0, #65
 172 008e FFF7FEFF 		bl	CyDelayUs
  88:.\ibuton.c    **** 	    present=!IB2_Read();
 173              		.loc 1 88 0
 174 0092 FFF7FEFF 		bl	IB2_Read
 175 0096 0346     		mov	r3, r0
 176 0098 002B     		cmp	r3, #0
 177 009a 0CBF     		ite	eq
 178 009c 0123     		moveq	r3, #1
 179 009e 0023     		movne	r3, #0
 180 00a0 DBB2     		uxtb	r3, r3
 181 00a2 FB73     		strb	r3, [r7, #15]
  89:.\ibuton.c    **** 	    CyDelayUs(240);
 182              		.loc 1 89 0
 183 00a4 F020     		movs	r0, #240
 184 00a6 FFF7FEFF 		bl	CyDelayUs
  90:.\ibuton.c    **** 	    if(present){
 185              		.loc 1 90 0
 186 00aa FB7B     		ldrb	r3, [r7, #15]	@ zero_extendqisi2
 187 00ac 002B     		cmp	r3, #0
 188 00ae 01D0     		beq	.L7
  91:.\ibuton.c    **** 	        return 1;
 189              		.loc 1 91 0
 190 00b0 0123     		movs	r3, #1
 191 00b2 00E0     		b	.L4
 192              	.L7:
  92:.\ibuton.c    **** 	    }
  93:.\ibuton.c    **** 	    else{
ARM GAS  C:\Users\RECEPC~1\AppData\Local\Temp\ccosLHcU.s 			page 6


  94:.\ibuton.c    **** 	        return 0;
 193              		.loc 1 94 0
 194 00b4 0023     		movs	r3, #0
 195              	.L4:
  95:.\ibuton.c    **** 	    }	
  96:.\ibuton.c    **** 	}
  97:.\ibuton.c    **** }
 196              		.loc 1 97 0
 197 00b6 1846     		mov	r0, r3
 198 00b8 1037     		adds	r7, r7, #16
 199              		.cfi_def_cfa_offset 8
 200 00ba BD46     		mov	sp, r7
 201              		.cfi_def_cfa_register 13
 202              		@ sp needed
 203 00bc 80BD     		pop	{r7, pc}
 204              		.cfi_endproc
 205              	.LFE63:
 206              		.size	touch_present, .-touch_present
 207 00be 00BF     		.section	.text.touch_write,"ax",%progbits
 208              		.align	2
 209              		.global	touch_write
 210              		.thumb
 211              		.thumb_func
 212              		.type	touch_write, %function
 213              	touch_write:
 214              	.LFB64:
  98:.\ibuton.c    **** 
  99:.\ibuton.c    **** /*
 100:.\ibuton.c    **** ***************************************************************************************************
 101:.\ibuton.c    **** *                                           uint8 touch_write(uint8 dato)
 102:.\ibuton.c    **** *
 103:.\ibuton.c    **** * Description : 
 104:.\ibuton.c    **** *               
 105:.\ibuton.c    **** *
 106:.\ibuton.c    **** * Argument(s) : none
 107:.\ibuton.c    **** *
 108:.\ibuton.c    **** * Return(s)   : none
 109:.\ibuton.c    **** *
 110:.\ibuton.c    **** * Caller(s)   : 
 111:.\ibuton.c    **** *
 112:.\ibuton.c    **** * Note(s)     : none.
 113:.\ibuton.c    **** ***************************************************************************************************
 114:.\ibuton.c    **** */
 115:.\ibuton.c    **** 
 116:.\ibuton.c    **** uint8 touch_write(uint8 ibutton, uint8 dato){
 215              		.loc 1 116 0
 216              		.cfi_startproc
 217              		@ args = 0, pretend = 0, frame = 16
 218              		@ frame_needed = 1, uses_anonymous_args = 0
 219 0000 80B5     		push	{r7, lr}
 220              		.cfi_def_cfa_offset 8
 221              		.cfi_offset 7, -8
 222              		.cfi_offset 14, -4
 223 0002 84B0     		sub	sp, sp, #16
 224              		.cfi_def_cfa_offset 24
 225 0004 00AF     		add	r7, sp, #0
 226              		.cfi_def_cfa_register 7
ARM GAS  C:\Users\RECEPC~1\AppData\Local\Temp\ccosLHcU.s 			page 7


 227 0006 0346     		mov	r3, r0
 228 0008 0A46     		mov	r2, r1
 229 000a FB71     		strb	r3, [r7, #7]
 230 000c 1346     		mov	r3, r2
 231 000e BB71     		strb	r3, [r7, #6]
 117:.\ibuton.c    ****     uint8 i;
 118:.\ibuton.c    **** 	if(ibutton==1){
 232              		.loc 1 118 0
 233 0010 FB79     		ldrb	r3, [r7, #7]	@ zero_extendqisi2
 234 0012 012B     		cmp	r3, #1
 235 0014 3BD1     		bne	.L9
 119:.\ibuton.c    **** 	    for(i=0;i<=7;i++){
 236              		.loc 1 119 0
 237 0016 0023     		movs	r3, #0
 238 0018 FB73     		strb	r3, [r7, #15]
 239 001a 33E0     		b	.L10
 240              	.L14:
 120:.\ibuton.c    **** 	        IB1_Write(0); 
 241              		.loc 1 120 0
 242 001c 0020     		movs	r0, #0
 243 001e FFF7FEFF 		bl	IB1_Write
 121:.\ibuton.c    **** 	        CyDelayUs(10);
 244              		.loc 1 121 0
 245 0022 0A20     		movs	r0, #10
 246 0024 FFF7FEFF 		bl	CyDelayUs
 122:.\ibuton.c    **** 	        if(((dato>>i)&1)){
 247              		.loc 1 122 0
 248 0028 BA79     		ldrb	r2, [r7, #6]	@ zero_extendqisi2
 249 002a FB7B     		ldrb	r3, [r7, #15]	@ zero_extendqisi2
 250 002c 42FA03F3 		asr	r3, r2, r3
 251 0030 03F00103 		and	r3, r3, #1
 252 0034 002B     		cmp	r3, #0
 253 0036 0CD0     		beq	.L11
 123:.\ibuton.c    **** 	           IB1_Write(1);
 254              		.loc 1 123 0
 255 0038 0120     		movs	r0, #1
 256 003a FFF7FEFF 		bl	IB1_Write
 124:.\ibuton.c    **** 	           CyDelayUs(10);
 257              		.loc 1 124 0
 258 003e 0A20     		movs	r0, #10
 259 0040 FFF7FEFF 		bl	CyDelayUs
 125:.\ibuton.c    **** 	           if(!IB1_Read()){
 260              		.loc 1 125 0
 261 0044 FFF7FEFF 		bl	IB1_Read
 262 0048 0346     		mov	r3, r0
 263 004a 002B     		cmp	r3, #0
 264 004c 0ED1     		bne	.L12
 126:.\ibuton.c    **** 	                return 0;                
 265              		.loc 1 126 0
 266 004e 0023     		movs	r3, #0
 267 0050 58E0     		b	.L13
 268              	.L11:
 127:.\ibuton.c    **** 	           }
 128:.\ibuton.c    **** 	        }
 129:.\ibuton.c    **** 	        else{
 130:.\ibuton.c    **** 	            IB1_Write(0); 
 269              		.loc 1 130 0
ARM GAS  C:\Users\RECEPC~1\AppData\Local\Temp\ccosLHcU.s 			page 8


 270 0052 0020     		movs	r0, #0
 271 0054 FFF7FEFF 		bl	IB1_Write
 131:.\ibuton.c    **** 	            CyDelayUs(10);
 272              		.loc 1 131 0
 273 0058 0A20     		movs	r0, #10
 274 005a FFF7FEFF 		bl	CyDelayUs
 132:.\ibuton.c    **** 	           if(IB1_Read()){
 275              		.loc 1 132 0
 276 005e FFF7FEFF 		bl	IB1_Read
 277 0062 0346     		mov	r3, r0
 278 0064 002B     		cmp	r3, #0
 279 0066 01D0     		beq	.L12
 133:.\ibuton.c    **** 	                return 0;                
 280              		.loc 1 133 0
 281 0068 0023     		movs	r3, #0
 282 006a 4BE0     		b	.L13
 283              	.L12:
 134:.\ibuton.c    **** 	           }            
 135:.\ibuton.c    **** 	        }
 136:.\ibuton.c    **** 	        CyDelayUs(50);
 284              		.loc 1 136 0 discriminator 2
 285 006c 3220     		movs	r0, #50
 286 006e FFF7FEFF 		bl	CyDelayUs
 137:.\ibuton.c    **** 	        IB1_Write(1);
 287              		.loc 1 137 0 discriminator 2
 288 0072 0120     		movs	r0, #1
 289 0074 FFF7FEFF 		bl	IB1_Write
 138:.\ibuton.c    **** 	        CyDelayUs(50);
 290              		.loc 1 138 0 discriminator 2
 291 0078 3220     		movs	r0, #50
 292 007a FFF7FEFF 		bl	CyDelayUs
 119:.\ibuton.c    **** 	        IB1_Write(0); 
 293              		.loc 1 119 0 discriminator 2
 294 007e FB7B     		ldrb	r3, [r7, #15]	@ zero_extendqisi2
 295 0080 0133     		adds	r3, r3, #1
 296 0082 FB73     		strb	r3, [r7, #15]
 297              	.L10:
 119:.\ibuton.c    **** 	        IB1_Write(0); 
 298              		.loc 1 119 0 is_stmt 0 discriminator 1
 299 0084 FB7B     		ldrb	r3, [r7, #15]	@ zero_extendqisi2
 300 0086 072B     		cmp	r3, #7
 301 0088 C8D9     		bls	.L14
 139:.\ibuton.c    **** 	    }
 140:.\ibuton.c    **** 	    return 1;
 302              		.loc 1 140 0 is_stmt 1
 303 008a 0123     		movs	r3, #1
 304 008c 3AE0     		b	.L13
 305              	.L9:
 141:.\ibuton.c    **** 	}
 142:.\ibuton.c    **** 	else{
 143:.\ibuton.c    **** 	    for(i=0;i<=7;i++){
 306              		.loc 1 143 0
 307 008e 0023     		movs	r3, #0
 308 0090 FB73     		strb	r3, [r7, #15]
 309 0092 33E0     		b	.L15
 310              	.L18:
 144:.\ibuton.c    **** 	        IB2_Write(0); 
ARM GAS  C:\Users\RECEPC~1\AppData\Local\Temp\ccosLHcU.s 			page 9


 311              		.loc 1 144 0
 312 0094 0020     		movs	r0, #0
 313 0096 FFF7FEFF 		bl	IB2_Write
 145:.\ibuton.c    **** 	        CyDelayUs(10);
 314              		.loc 1 145 0
 315 009a 0A20     		movs	r0, #10
 316 009c FFF7FEFF 		bl	CyDelayUs
 146:.\ibuton.c    **** 	        if(((dato>>i)&1)){
 317              		.loc 1 146 0
 318 00a0 BA79     		ldrb	r2, [r7, #6]	@ zero_extendqisi2
 319 00a2 FB7B     		ldrb	r3, [r7, #15]	@ zero_extendqisi2
 320 00a4 42FA03F3 		asr	r3, r2, r3
 321 00a8 03F00103 		and	r3, r3, #1
 322 00ac 002B     		cmp	r3, #0
 323 00ae 0CD0     		beq	.L16
 147:.\ibuton.c    **** 	           IB2_Write(1);
 324              		.loc 1 147 0
 325 00b0 0120     		movs	r0, #1
 326 00b2 FFF7FEFF 		bl	IB2_Write
 148:.\ibuton.c    **** 	           CyDelayUs(10);
 327              		.loc 1 148 0
 328 00b6 0A20     		movs	r0, #10
 329 00b8 FFF7FEFF 		bl	CyDelayUs
 149:.\ibuton.c    **** 	           if(!IB2_Read()){
 330              		.loc 1 149 0
 331 00bc FFF7FEFF 		bl	IB2_Read
 332 00c0 0346     		mov	r3, r0
 333 00c2 002B     		cmp	r3, #0
 334 00c4 0ED1     		bne	.L17
 150:.\ibuton.c    **** 	                return 0;                
 335              		.loc 1 150 0
 336 00c6 0023     		movs	r3, #0
 337 00c8 1CE0     		b	.L13
 338              	.L16:
 151:.\ibuton.c    **** 	           }
 152:.\ibuton.c    **** 	        }
 153:.\ibuton.c    **** 	        else{
 154:.\ibuton.c    **** 	            IB2_Write(0); 
 339              		.loc 1 154 0
 340 00ca 0020     		movs	r0, #0
 341 00cc FFF7FEFF 		bl	IB2_Write
 155:.\ibuton.c    **** 	            CyDelayUs(10);
 342              		.loc 1 155 0
 343 00d0 0A20     		movs	r0, #10
 344 00d2 FFF7FEFF 		bl	CyDelayUs
 156:.\ibuton.c    **** 	           if(IB2_Read()){
 345              		.loc 1 156 0
 346 00d6 FFF7FEFF 		bl	IB2_Read
 347 00da 0346     		mov	r3, r0
 348 00dc 002B     		cmp	r3, #0
 349 00de 01D0     		beq	.L17
 157:.\ibuton.c    **** 	                return 0;                
 350              		.loc 1 157 0
 351 00e0 0023     		movs	r3, #0
 352 00e2 0FE0     		b	.L13
 353              	.L17:
 158:.\ibuton.c    **** 	           }            
ARM GAS  C:\Users\RECEPC~1\AppData\Local\Temp\ccosLHcU.s 			page 10


 159:.\ibuton.c    **** 	        }
 160:.\ibuton.c    **** 	        CyDelayUs(50);
 354              		.loc 1 160 0 discriminator 2
 355 00e4 3220     		movs	r0, #50
 356 00e6 FFF7FEFF 		bl	CyDelayUs
 161:.\ibuton.c    **** 	        IB2_Write(1);
 357              		.loc 1 161 0 discriminator 2
 358 00ea 0120     		movs	r0, #1
 359 00ec FFF7FEFF 		bl	IB2_Write
 162:.\ibuton.c    **** 	        CyDelayUs(50);
 360              		.loc 1 162 0 discriminator 2
 361 00f0 3220     		movs	r0, #50
 362 00f2 FFF7FEFF 		bl	CyDelayUs
 143:.\ibuton.c    **** 	        IB2_Write(0); 
 363              		.loc 1 143 0 discriminator 2
 364 00f6 FB7B     		ldrb	r3, [r7, #15]	@ zero_extendqisi2
 365 00f8 0133     		adds	r3, r3, #1
 366 00fa FB73     		strb	r3, [r7, #15]
 367              	.L15:
 143:.\ibuton.c    **** 	        IB2_Write(0); 
 368              		.loc 1 143 0 is_stmt 0 discriminator 1
 369 00fc FB7B     		ldrb	r3, [r7, #15]	@ zero_extendqisi2
 370 00fe 072B     		cmp	r3, #7
 371 0100 C8D9     		bls	.L18
 163:.\ibuton.c    **** 	    }
 164:.\ibuton.c    **** 	    return 1;	
 372              		.loc 1 164 0 is_stmt 1
 373 0102 0123     		movs	r3, #1
 374              	.L13:
 165:.\ibuton.c    **** 	}
 166:.\ibuton.c    **** }
 375              		.loc 1 166 0
 376 0104 1846     		mov	r0, r3
 377 0106 1037     		adds	r7, r7, #16
 378              		.cfi_def_cfa_offset 8
 379 0108 BD46     		mov	sp, r7
 380              		.cfi_def_cfa_register 13
 381              		@ sp needed
 382 010a 80BD     		pop	{r7, pc}
 383              		.cfi_endproc
 384              	.LFE64:
 385              		.size	touch_write, .-touch_write
 386              		.section	.text.touch_read_byte,"ax",%progbits
 387              		.align	2
 388              		.global	touch_read_byte
 389              		.thumb
 390              		.thumb_func
 391              		.type	touch_read_byte, %function
 392              	touch_read_byte:
 393              	.LFB65:
 167:.\ibuton.c    **** 
 168:.\ibuton.c    **** /*
 169:.\ibuton.c    **** ***************************************************************************************************
 170:.\ibuton.c    **** *                                           uint8 touch_read_byte()
 171:.\ibuton.c    **** *
 172:.\ibuton.c    **** * Description : 
 173:.\ibuton.c    **** *               
ARM GAS  C:\Users\RECEPC~1\AppData\Local\Temp\ccosLHcU.s 			page 11


 174:.\ibuton.c    **** *
 175:.\ibuton.c    **** * Argument(s) : none
 176:.\ibuton.c    **** *
 177:.\ibuton.c    **** * Return(s)   : none
 178:.\ibuton.c    **** *
 179:.\ibuton.c    **** * Caller(s)   : 
 180:.\ibuton.c    **** *
 181:.\ibuton.c    **** * Note(s)     : none.
 182:.\ibuton.c    **** ***************************************************************************************************
 183:.\ibuton.c    **** */
 184:.\ibuton.c    **** 
 185:.\ibuton.c    **** uint8 touch_read_byte(uint8 ibutton){
 394              		.loc 1 185 0
 395              		.cfi_startproc
 396              		@ args = 0, pretend = 0, frame = 16
 397              		@ frame_needed = 1, uses_anonymous_args = 0
 398 0000 80B5     		push	{r7, lr}
 399              		.cfi_def_cfa_offset 8
 400              		.cfi_offset 7, -8
 401              		.cfi_offset 14, -4
 402 0002 84B0     		sub	sp, sp, #16
 403              		.cfi_def_cfa_offset 24
 404 0004 00AF     		add	r7, sp, #0
 405              		.cfi_def_cfa_register 7
 406 0006 0346     		mov	r3, r0
 407 0008 FB71     		strb	r3, [r7, #7]
 186:.\ibuton.c    ****     uint8 i, dato=0;
 408              		.loc 1 186 0
 409 000a 0023     		movs	r3, #0
 410 000c BB73     		strb	r3, [r7, #14]
 187:.\ibuton.c    **** 	if(ibutton==1){
 411              		.loc 1 187 0
 412 000e FB79     		ldrb	r3, [r7, #7]	@ zero_extendqisi2
 413 0010 012B     		cmp	r3, #1
 414 0012 25D1     		bne	.L20
 188:.\ibuton.c    **** 	    for(i=0;i<=7;i++){
 415              		.loc 1 188 0
 416 0014 0023     		movs	r3, #0
 417 0016 FB73     		strb	r3, [r7, #15]
 418 0018 1DE0     		b	.L21
 419              	.L22:
 189:.\ibuton.c    **** 	        IB1_Write(0);    
 420              		.loc 1 189 0 discriminator 3
 421 001a 0020     		movs	r0, #0
 422 001c FFF7FEFF 		bl	IB1_Write
 190:.\ibuton.c    **** 	        CyDelayUs(14);
 423              		.loc 1 190 0 discriminator 3
 424 0020 0E20     		movs	r0, #14
 425 0022 FFF7FEFF 		bl	CyDelayUs
 191:.\ibuton.c    **** 	        IB1_Write(1);
 426              		.loc 1 191 0 discriminator 3
 427 0026 0120     		movs	r0, #1
 428 0028 FFF7FEFF 		bl	IB1_Write
 192:.\ibuton.c    **** 	        CyDelayUs(7);
 429              		.loc 1 192 0 discriminator 3
 430 002c 0720     		movs	r0, #7
 431 002e FFF7FEFF 		bl	CyDelayUs
ARM GAS  C:\Users\RECEPC~1\AppData\Local\Temp\ccosLHcU.s 			page 12


 193:.\ibuton.c    **** 	        dato|=(IB1_Read()<<i);
 432              		.loc 1 193 0 discriminator 3
 433 0032 FFF7FEFF 		bl	IB1_Read
 434 0036 0346     		mov	r3, r0
 435 0038 1A46     		mov	r2, r3
 436 003a FB7B     		ldrb	r3, [r7, #15]	@ zero_extendqisi2
 437 003c 02FA03F3 		lsl	r3, r2, r3
 438 0040 DAB2     		uxtb	r2, r3
 439 0042 BB7B     		ldrb	r3, [r7, #14]	@ zero_extendqisi2
 440 0044 1343     		orrs	r3, r3, r2
 441 0046 DBB2     		uxtb	r3, r3
 442 0048 BB73     		strb	r3, [r7, #14]
 194:.\ibuton.c    **** 	        CyDelayUs(100);
 443              		.loc 1 194 0 discriminator 3
 444 004a 6420     		movs	r0, #100
 445 004c FFF7FEFF 		bl	CyDelayUs
 188:.\ibuton.c    **** 	        IB1_Write(0);    
 446              		.loc 1 188 0 discriminator 3
 447 0050 FB7B     		ldrb	r3, [r7, #15]	@ zero_extendqisi2
 448 0052 0133     		adds	r3, r3, #1
 449 0054 FB73     		strb	r3, [r7, #15]
 450              	.L21:
 188:.\ibuton.c    **** 	        IB1_Write(0);    
 451              		.loc 1 188 0 is_stmt 0 discriminator 1
 452 0056 FB7B     		ldrb	r3, [r7, #15]	@ zero_extendqisi2
 453 0058 072B     		cmp	r3, #7
 454 005a DED9     		bls	.L22
 195:.\ibuton.c    **** 	    }
 196:.\ibuton.c    **** 	    return dato;
 455              		.loc 1 196 0 is_stmt 1
 456 005c BB7B     		ldrb	r3, [r7, #14]	@ zero_extendqisi2
 457 005e 24E0     		b	.L23
 458              	.L20:
 197:.\ibuton.c    **** 	}
 198:.\ibuton.c    **** 	else{
 199:.\ibuton.c    **** 	    for(i=0;i<=7;i++){
 459              		.loc 1 199 0
 460 0060 0023     		movs	r3, #0
 461 0062 FB73     		strb	r3, [r7, #15]
 462 0064 1DE0     		b	.L24
 463              	.L25:
 200:.\ibuton.c    **** 	        IB2_Write(0);    
 464              		.loc 1 200 0 discriminator 3
 465 0066 0020     		movs	r0, #0
 466 0068 FFF7FEFF 		bl	IB2_Write
 201:.\ibuton.c    **** 	        CyDelayUs(14);
 467              		.loc 1 201 0 discriminator 3
 468 006c 0E20     		movs	r0, #14
 469 006e FFF7FEFF 		bl	CyDelayUs
 202:.\ibuton.c    **** 	        IB2_Write(1);
 470              		.loc 1 202 0 discriminator 3
 471 0072 0120     		movs	r0, #1
 472 0074 FFF7FEFF 		bl	IB2_Write
 203:.\ibuton.c    **** 	        CyDelayUs(7);
 473              		.loc 1 203 0 discriminator 3
 474 0078 0720     		movs	r0, #7
 475 007a FFF7FEFF 		bl	CyDelayUs
ARM GAS  C:\Users\RECEPC~1\AppData\Local\Temp\ccosLHcU.s 			page 13


 204:.\ibuton.c    **** 	        dato|=(IB2_Read()<<i);
 476              		.loc 1 204 0 discriminator 3
 477 007e FFF7FEFF 		bl	IB2_Read
 478 0082 0346     		mov	r3, r0
 479 0084 1A46     		mov	r2, r3
 480 0086 FB7B     		ldrb	r3, [r7, #15]	@ zero_extendqisi2
 481 0088 02FA03F3 		lsl	r3, r2, r3
 482 008c DAB2     		uxtb	r2, r3
 483 008e BB7B     		ldrb	r3, [r7, #14]	@ zero_extendqisi2
 484 0090 1343     		orrs	r3, r3, r2
 485 0092 DBB2     		uxtb	r3, r3
 486 0094 BB73     		strb	r3, [r7, #14]
 205:.\ibuton.c    **** 	        CyDelayUs(100);
 487              		.loc 1 205 0 discriminator 3
 488 0096 6420     		movs	r0, #100
 489 0098 FFF7FEFF 		bl	CyDelayUs
 199:.\ibuton.c    **** 	        IB2_Write(0);    
 490              		.loc 1 199 0 discriminator 3
 491 009c FB7B     		ldrb	r3, [r7, #15]	@ zero_extendqisi2
 492 009e 0133     		adds	r3, r3, #1
 493 00a0 FB73     		strb	r3, [r7, #15]
 494              	.L24:
 199:.\ibuton.c    **** 	        IB2_Write(0);    
 495              		.loc 1 199 0 is_stmt 0 discriminator 1
 496 00a2 FB7B     		ldrb	r3, [r7, #15]	@ zero_extendqisi2
 497 00a4 072B     		cmp	r3, #7
 498 00a6 DED9     		bls	.L25
 206:.\ibuton.c    **** 	    }
 207:.\ibuton.c    **** 	    return dato;	
 499              		.loc 1 207 0 is_stmt 1
 500 00a8 BB7B     		ldrb	r3, [r7, #14]	@ zero_extendqisi2
 501              	.L23:
 208:.\ibuton.c    **** 	}
 209:.\ibuton.c    **** } 
 502              		.loc 1 209 0
 503 00aa 1846     		mov	r0, r3
 504 00ac 1037     		adds	r7, r7, #16
 505              		.cfi_def_cfa_offset 8
 506 00ae BD46     		mov	sp, r7
 507              		.cfi_def_cfa_register 13
 508              		@ sp needed
 509 00b0 80BD     		pop	{r7, pc}
 510              		.cfi_endproc
 511              	.LFE65:
 512              		.size	touch_read_byte, .-touch_read_byte
 513 00b2 00BF     		.section	.text.crc_check,"ax",%progbits
 514              		.align	2
 515              		.global	crc_check
 516              		.thumb
 517              		.thumb_func
 518              		.type	crc_check, %function
 519              	crc_check:
 520              	.LFB66:
 210:.\ibuton.c    **** 
 211:.\ibuton.c    **** /*
 212:.\ibuton.c    **** ***************************************************************************************************
 213:.\ibuton.c    **** * 							uint8 crc_check(uint8_t crc, uint8_t data)
ARM GAS  C:\Users\RECEPC~1\AppData\Local\Temp\ccosLHcU.s 			page 14


 214:.\ibuton.c    **** *
 215:.\ibuton.c    **** * Description : 
 216:.\ibuton.c    **** *               
 217:.\ibuton.c    **** *
 218:.\ibuton.c    **** * Argument(s) : none
 219:.\ibuton.c    **** *
 220:.\ibuton.c    **** * Return(s)   : none
 221:.\ibuton.c    **** *
 222:.\ibuton.c    **** * Caller(s)   : 
 223:.\ibuton.c    **** *
 224:.\ibuton.c    **** * Note(s)     : none.
 225:.\ibuton.c    **** ***************************************************************************************************
 226:.\ibuton.c    **** */
 227:.\ibuton.c    **** 
 228:.\ibuton.c    **** uint8 crc_check(uint8 crc, uint8 dato){
 521              		.loc 1 228 0
 522              		.cfi_startproc
 523              		@ args = 0, pretend = 0, frame = 16
 524              		@ frame_needed = 1, uses_anonymous_args = 0
 525              		@ link register save eliminated.
 526 0000 80B4     		push	{r7}
 527              		.cfi_def_cfa_offset 4
 528              		.cfi_offset 7, -4
 529 0002 85B0     		sub	sp, sp, #20
 530              		.cfi_def_cfa_offset 24
 531 0004 00AF     		add	r7, sp, #0
 532              		.cfi_def_cfa_register 7
 533 0006 0346     		mov	r3, r0
 534 0008 0A46     		mov	r2, r1
 535 000a FB71     		strb	r3, [r7, #7]
 536 000c 1346     		mov	r3, r2
 537 000e BB71     		strb	r3, [r7, #6]
 229:.\ibuton.c    ****     uint8 i;
 230:.\ibuton.c    ****     crc = crc ^ dato;
 538              		.loc 1 230 0
 539 0010 FA79     		ldrb	r2, [r7, #7]
 540 0012 BB79     		ldrb	r3, [r7, #6]
 541 0014 5340     		eors	r3, r3, r2
 542 0016 FB71     		strb	r3, [r7, #7]
 231:.\ibuton.c    ****     for (i = 0; i < 8; i++)
 543              		.loc 1 231 0
 544 0018 0023     		movs	r3, #0
 545 001a FB73     		strb	r3, [r7, #15]
 546 001c 12E0     		b	.L27
 547              	.L30:
 232:.\ibuton.c    ****     {
 233:.\ibuton.c    ****         if (crc & 0x01){
 548              		.loc 1 233 0
 549 001e FB79     		ldrb	r3, [r7, #7]	@ zero_extendqisi2
 550 0020 03F00103 		and	r3, r3, #1
 551 0024 002B     		cmp	r3, #0
 552 0026 07D0     		beq	.L28
 234:.\ibuton.c    ****             crc = (crc >> 1) ^ 0x8C;
 553              		.loc 1 234 0
 554 0028 FB79     		ldrb	r3, [r7, #7]	@ zero_extendqisi2
 555 002a 5B08     		lsrs	r3, r3, #1
 556 002c DBB2     		uxtb	r3, r3
ARM GAS  C:\Users\RECEPC~1\AppData\Local\Temp\ccosLHcU.s 			page 15


 557 002e 83F07303 		eor	r3, r3, #115
 558 0032 DB43     		mvns	r3, r3
 559 0034 FB71     		strb	r3, [r7, #7]
 560 0036 02E0     		b	.L29
 561              	.L28:
 235:.\ibuton.c    **** 		}	
 236:.\ibuton.c    ****         else{
 237:.\ibuton.c    ****             crc >>= 1;
 562              		.loc 1 237 0
 563 0038 FB79     		ldrb	r3, [r7, #7]	@ zero_extendqisi2
 564 003a 5B08     		lsrs	r3, r3, #1
 565 003c FB71     		strb	r3, [r7, #7]
 566              	.L29:
 231:.\ibuton.c    ****     {
 567              		.loc 1 231 0 discriminator 2
 568 003e FB7B     		ldrb	r3, [r7, #15]	@ zero_extendqisi2
 569 0040 0133     		adds	r3, r3, #1
 570 0042 FB73     		strb	r3, [r7, #15]
 571              	.L27:
 231:.\ibuton.c    ****     {
 572              		.loc 1 231 0 is_stmt 0 discriminator 1
 573 0044 FB7B     		ldrb	r3, [r7, #15]	@ zero_extendqisi2
 574 0046 072B     		cmp	r3, #7
 575 0048 E9D9     		bls	.L30
 238:.\ibuton.c    **** 		}	
 239:.\ibuton.c    ****     }
 240:.\ibuton.c    ****     return crc;
 576              		.loc 1 240 0 is_stmt 1
 577 004a FB79     		ldrb	r3, [r7, #7]	@ zero_extendqisi2
 241:.\ibuton.c    **** }
 578              		.loc 1 241 0
 579 004c 1846     		mov	r0, r3
 580 004e 1437     		adds	r7, r7, #20
 581              		.cfi_def_cfa_offset 4
 582 0050 BD46     		mov	sp, r7
 583              		.cfi_def_cfa_register 13
 584              		@ sp needed
 585 0052 5DF8047B 		ldr	r7, [sp], #4
 586              		.cfi_restore 7
 587              		.cfi_def_cfa_offset 0
 588 0056 7047     		bx	lr
 589              		.cfi_endproc
 590              	.LFE66:
 591              		.size	crc_check, .-crc_check
 592              		.text
 593              	.Letext0:
 594              		.file 2 "c:\\program files (x86)\\cypress\\psoc creator\\3.3\\psoc creator\\import\\gnu\\arm\\4.9.
 595              		.file 3 "c:\\program files (x86)\\cypress\\psoc creator\\3.3\\psoc creator\\import\\gnu\\arm\\4.9.
 596              		.file 4 "Generated_Source\\PSoC5/cytypes.h"
 597              		.file 5 ".\\VariablesG.h"
 598              		.file 6 "Generated_Source\\PSoC5/core_cm3.h"