ARM GAS  C:\Users\RECEPC~1\AppData\Local\Temp\ccU3VU2d.s 			page 1


   1              		.syntax unified
   2              		.cpu cortex-m3
   3              		.fpu softvfp
   4              		.eabi_attribute 20, 1
   5              		.eabi_attribute 21, 1
   6              		.eabi_attribute 23, 3
   7              		.eabi_attribute 24, 1
   8              		.eabi_attribute 25, 1
   9              		.eabi_attribute 26, 1
  10              		.eabi_attribute 30, 6
  11              		.eabi_attribute 34, 1
  12              		.eabi_attribute 18, 4
  13              		.thumb
  14              		.file	"Impresora.c"
  15              		.text
  16              	.Ltext0:
  17              		.cfi_sections	.debug_frame
  18              		.global	Impresora_initVar
  19              		.bss
  20              		.type	Impresora_initVar, %object
  21              		.size	Impresora_initVar, 1
  22              	Impresora_initVar:
  23 0000 00       		.space	1
  24              		.global	Impresora_errorStatus
  25              		.type	Impresora_errorStatus, %object
  26              		.size	Impresora_errorStatus, 1
  27              	Impresora_errorStatus:
  28 0001 00       		.space	1
  29              		.comm	Impresora_rxBuffer,200,4
  30              		.global	Impresora_rxBufferRead
  31              		.type	Impresora_rxBufferRead, %object
  32              		.size	Impresora_rxBufferRead, 1
  33              	Impresora_rxBufferRead:
  34 0002 00       		.space	1
  35              		.global	Impresora_rxBufferWrite
  36              		.type	Impresora_rxBufferWrite, %object
  37              		.size	Impresora_rxBufferWrite, 1
  38              	Impresora_rxBufferWrite:
  39 0003 00       		.space	1
  40              		.global	Impresora_rxBufferLoopDetect
  41              		.type	Impresora_rxBufferLoopDetect, %object
  42              		.size	Impresora_rxBufferLoopDetect, 1
  43              	Impresora_rxBufferLoopDetect:
  44 0004 00       		.space	1
  45              		.global	Impresora_rxBufferOverflow
  46              		.type	Impresora_rxBufferOverflow, %object
  47              		.size	Impresora_rxBufferOverflow, 1
  48              	Impresora_rxBufferOverflow:
  49 0005 00       		.space	1
  50              		.section	.text.Impresora_Start,"ax",%progbits
  51              		.align	2
  52              		.global	Impresora_Start
  53              		.thumb
  54              		.thumb_func
  55              		.type	Impresora_Start, %function
  56              	Impresora_Start:
  57              	.LFB0:
ARM GAS  C:\Users\RECEPC~1\AppData\Local\Temp\ccU3VU2d.s 			page 2


  58              		.file 1 ".\\Generated_Source\\PSoC5\\Impresora.c"
   1:.\Generated_Source\PSoC5/Impresora.c **** /*******************************************************************************
   2:.\Generated_Source\PSoC5/Impresora.c **** * File Name: Impresora.c
   3:.\Generated_Source\PSoC5/Impresora.c **** * Version 2.50
   4:.\Generated_Source\PSoC5/Impresora.c **** *
   5:.\Generated_Source\PSoC5/Impresora.c **** * Description:
   6:.\Generated_Source\PSoC5/Impresora.c **** *  This file provides all API functionality of the UART component
   7:.\Generated_Source\PSoC5/Impresora.c **** *
   8:.\Generated_Source\PSoC5/Impresora.c **** * Note:
   9:.\Generated_Source\PSoC5/Impresora.c **** *
  10:.\Generated_Source\PSoC5/Impresora.c **** ********************************************************************************
  11:.\Generated_Source\PSoC5/Impresora.c **** * Copyright 2008-2015, Cypress Semiconductor Corporation.  All rights reserved.
  12:.\Generated_Source\PSoC5/Impresora.c **** * You may use this file only in accordance with the license, terms, conditions,
  13:.\Generated_Source\PSoC5/Impresora.c **** * disclaimers, and limitations in the end user license agreement accompanying
  14:.\Generated_Source\PSoC5/Impresora.c **** * the software package with which this file was provided.
  15:.\Generated_Source\PSoC5/Impresora.c **** *******************************************************************************/
  16:.\Generated_Source\PSoC5/Impresora.c **** 
  17:.\Generated_Source\PSoC5/Impresora.c **** #include "Impresora.h"
  18:.\Generated_Source\PSoC5/Impresora.c **** #if (Impresora_INTERNAL_CLOCK_USED)
  19:.\Generated_Source\PSoC5/Impresora.c ****     #include "Impresora_IntClock.h"
  20:.\Generated_Source\PSoC5/Impresora.c **** #endif /* End Impresora_INTERNAL_CLOCK_USED */
  21:.\Generated_Source\PSoC5/Impresora.c **** 
  22:.\Generated_Source\PSoC5/Impresora.c **** 
  23:.\Generated_Source\PSoC5/Impresora.c **** /***************************************
  24:.\Generated_Source\PSoC5/Impresora.c **** * Global data allocation
  25:.\Generated_Source\PSoC5/Impresora.c **** ***************************************/
  26:.\Generated_Source\PSoC5/Impresora.c **** 
  27:.\Generated_Source\PSoC5/Impresora.c **** uint8 Impresora_initVar = 0u;
  28:.\Generated_Source\PSoC5/Impresora.c **** 
  29:.\Generated_Source\PSoC5/Impresora.c **** #if (Impresora_TX_INTERRUPT_ENABLED && Impresora_TX_ENABLED)
  30:.\Generated_Source\PSoC5/Impresora.c ****     volatile uint8 Impresora_txBuffer[Impresora_TX_BUFFER_SIZE];
  31:.\Generated_Source\PSoC5/Impresora.c ****     volatile uint8 Impresora_txBufferRead = 0u;
  32:.\Generated_Source\PSoC5/Impresora.c ****     uint8 Impresora_txBufferWrite = 0u;
  33:.\Generated_Source\PSoC5/Impresora.c **** #endif /* (Impresora_TX_INTERRUPT_ENABLED && Impresora_TX_ENABLED) */
  34:.\Generated_Source\PSoC5/Impresora.c **** 
  35:.\Generated_Source\PSoC5/Impresora.c **** #if (Impresora_RX_INTERRUPT_ENABLED && (Impresora_RX_ENABLED || Impresora_HD_ENABLED))
  36:.\Generated_Source\PSoC5/Impresora.c ****     uint8 Impresora_errorStatus = 0u;
  37:.\Generated_Source\PSoC5/Impresora.c ****     volatile uint8 Impresora_rxBuffer[Impresora_RX_BUFFER_SIZE];
  38:.\Generated_Source\PSoC5/Impresora.c ****     volatile uint8 Impresora_rxBufferRead  = 0u;
  39:.\Generated_Source\PSoC5/Impresora.c ****     volatile uint8 Impresora_rxBufferWrite = 0u;
  40:.\Generated_Source\PSoC5/Impresora.c ****     volatile uint8 Impresora_rxBufferLoopDetect = 0u;
  41:.\Generated_Source\PSoC5/Impresora.c ****     volatile uint8 Impresora_rxBufferOverflow   = 0u;
  42:.\Generated_Source\PSoC5/Impresora.c ****     #if (Impresora_RXHW_ADDRESS_ENABLED)
  43:.\Generated_Source\PSoC5/Impresora.c ****         volatile uint8 Impresora_rxAddressMode = Impresora_RX_ADDRESS_MODE;
  44:.\Generated_Source\PSoC5/Impresora.c ****         volatile uint8 Impresora_rxAddressDetected = 0u;
  45:.\Generated_Source\PSoC5/Impresora.c ****     #endif /* (Impresora_RXHW_ADDRESS_ENABLED) */
  46:.\Generated_Source\PSoC5/Impresora.c **** #endif /* (Impresora_RX_INTERRUPT_ENABLED && (Impresora_RX_ENABLED || Impresora_HD_ENABLED)) */
  47:.\Generated_Source\PSoC5/Impresora.c **** 
  48:.\Generated_Source\PSoC5/Impresora.c **** 
  49:.\Generated_Source\PSoC5/Impresora.c **** /*******************************************************************************
  50:.\Generated_Source\PSoC5/Impresora.c **** * Function Name: Impresora_Start
  51:.\Generated_Source\PSoC5/Impresora.c **** ********************************************************************************
  52:.\Generated_Source\PSoC5/Impresora.c **** *
  53:.\Generated_Source\PSoC5/Impresora.c **** * Summary:
  54:.\Generated_Source\PSoC5/Impresora.c **** *  This is the preferred method to begin component operation.
  55:.\Generated_Source\PSoC5/Impresora.c **** *  Impresora_Start() sets the initVar variable, calls the
  56:.\Generated_Source\PSoC5/Impresora.c **** *  Impresora_Init() function, and then calls the
ARM GAS  C:\Users\RECEPC~1\AppData\Local\Temp\ccU3VU2d.s 			page 3


  57:.\Generated_Source\PSoC5/Impresora.c **** *  Impresora_Enable() function.
  58:.\Generated_Source\PSoC5/Impresora.c **** *
  59:.\Generated_Source\PSoC5/Impresora.c **** * Parameters:
  60:.\Generated_Source\PSoC5/Impresora.c **** *  None.
  61:.\Generated_Source\PSoC5/Impresora.c **** *
  62:.\Generated_Source\PSoC5/Impresora.c **** * Return:
  63:.\Generated_Source\PSoC5/Impresora.c **** *  None.
  64:.\Generated_Source\PSoC5/Impresora.c **** *
  65:.\Generated_Source\PSoC5/Impresora.c **** * Global variables:
  66:.\Generated_Source\PSoC5/Impresora.c **** *  The Impresora_intiVar variable is used to indicate initial
  67:.\Generated_Source\PSoC5/Impresora.c **** *  configuration of this component. The variable is initialized to zero (0u)
  68:.\Generated_Source\PSoC5/Impresora.c **** *  and set to one (1u) the first time Impresora_Start() is called. This
  69:.\Generated_Source\PSoC5/Impresora.c **** *  allows for component initialization without re-initialization in all
  70:.\Generated_Source\PSoC5/Impresora.c **** *  subsequent calls to the Impresora_Start() routine.
  71:.\Generated_Source\PSoC5/Impresora.c **** *
  72:.\Generated_Source\PSoC5/Impresora.c **** * Reentrant:
  73:.\Generated_Source\PSoC5/Impresora.c **** *  No.
  74:.\Generated_Source\PSoC5/Impresora.c **** *
  75:.\Generated_Source\PSoC5/Impresora.c **** *******************************************************************************/
  76:.\Generated_Source\PSoC5/Impresora.c **** void Impresora_Start(void) 
  77:.\Generated_Source\PSoC5/Impresora.c **** {
  59              		.loc 1 77 0
  60              		.cfi_startproc
  61              		@ args = 0, pretend = 0, frame = 0
  62              		@ frame_needed = 1, uses_anonymous_args = 0
  63 0000 80B5     		push	{r7, lr}
  64              		.cfi_def_cfa_offset 8
  65              		.cfi_offset 7, -8
  66              		.cfi_offset 14, -4
  67 0002 00AF     		add	r7, sp, #0
  68              		.cfi_def_cfa_register 7
  78:.\Generated_Source\PSoC5/Impresora.c ****     /* If not initialized then initialize all required hardware and software */
  79:.\Generated_Source\PSoC5/Impresora.c ****     if(Impresora_initVar == 0u)
  69              		.loc 1 79 0
  70 0004 054B     		ldr	r3, .L3
  71 0006 1B78     		ldrb	r3, [r3]	@ zero_extendqisi2
  72 0008 002B     		cmp	r3, #0
  73 000a 04D1     		bne	.L2
  80:.\Generated_Source\PSoC5/Impresora.c ****     {
  81:.\Generated_Source\PSoC5/Impresora.c ****         Impresora_Init();
  74              		.loc 1 81 0
  75 000c FFF7FEFF 		bl	Impresora_Init
  82:.\Generated_Source\PSoC5/Impresora.c ****         Impresora_initVar = 1u;
  76              		.loc 1 82 0
  77 0010 024B     		ldr	r3, .L3
  78 0012 0122     		movs	r2, #1
  79 0014 1A70     		strb	r2, [r3]
  80              	.L2:
  83:.\Generated_Source\PSoC5/Impresora.c ****     }
  84:.\Generated_Source\PSoC5/Impresora.c **** 
  85:.\Generated_Source\PSoC5/Impresora.c ****     Impresora_Enable();
  81              		.loc 1 85 0
  82 0016 FFF7FEFF 		bl	Impresora_Enable
  86:.\Generated_Source\PSoC5/Impresora.c **** }
  83              		.loc 1 86 0
  84 001a 80BD     		pop	{r7, pc}
  85              	.L4:
ARM GAS  C:\Users\RECEPC~1\AppData\Local\Temp\ccU3VU2d.s 			page 4


  86              		.align	2
  87              	.L3:
  88 001c 00000000 		.word	Impresora_initVar
  89              		.cfi_endproc
  90              	.LFE0:
  91              		.size	Impresora_Start, .-Impresora_Start
  92              		.section	.text.Impresora_Init,"ax",%progbits
  93              		.align	2
  94              		.global	Impresora_Init
  95              		.thumb
  96              		.thumb_func
  97              		.type	Impresora_Init, %function
  98              	Impresora_Init:
  99              	.LFB1:
  87:.\Generated_Source\PSoC5/Impresora.c **** 
  88:.\Generated_Source\PSoC5/Impresora.c **** 
  89:.\Generated_Source\PSoC5/Impresora.c **** /*******************************************************************************
  90:.\Generated_Source\PSoC5/Impresora.c **** * Function Name: Impresora_Init
  91:.\Generated_Source\PSoC5/Impresora.c **** ********************************************************************************
  92:.\Generated_Source\PSoC5/Impresora.c **** *
  93:.\Generated_Source\PSoC5/Impresora.c **** * Summary:
  94:.\Generated_Source\PSoC5/Impresora.c **** *  Initializes or restores the component according to the customizer Configure
  95:.\Generated_Source\PSoC5/Impresora.c **** *  dialog settings. It is not necessary to call Impresora_Init() because
  96:.\Generated_Source\PSoC5/Impresora.c **** *  the Impresora_Start() API calls this function and is the preferred
  97:.\Generated_Source\PSoC5/Impresora.c **** *  method to begin component operation.
  98:.\Generated_Source\PSoC5/Impresora.c **** *
  99:.\Generated_Source\PSoC5/Impresora.c **** * Parameters:
 100:.\Generated_Source\PSoC5/Impresora.c **** *  None.
 101:.\Generated_Source\PSoC5/Impresora.c **** *
 102:.\Generated_Source\PSoC5/Impresora.c **** * Return:
 103:.\Generated_Source\PSoC5/Impresora.c **** *  None.
 104:.\Generated_Source\PSoC5/Impresora.c **** *
 105:.\Generated_Source\PSoC5/Impresora.c **** *******************************************************************************/
 106:.\Generated_Source\PSoC5/Impresora.c **** void Impresora_Init(void) 
 107:.\Generated_Source\PSoC5/Impresora.c **** {
 100              		.loc 1 107 0
 101              		.cfi_startproc
 102              		@ args = 0, pretend = 0, frame = 0
 103              		@ frame_needed = 1, uses_anonymous_args = 0
 104 0000 80B5     		push	{r7, lr}
 105              		.cfi_def_cfa_offset 8
 106              		.cfi_offset 7, -8
 107              		.cfi_offset 14, -4
 108 0002 00AF     		add	r7, sp, #0
 109              		.cfi_def_cfa_register 7
 108:.\Generated_Source\PSoC5/Impresora.c ****     #if(Impresora_RX_ENABLED || Impresora_HD_ENABLED)
 109:.\Generated_Source\PSoC5/Impresora.c **** 
 110:.\Generated_Source\PSoC5/Impresora.c ****         #if (Impresora_RX_INTERRUPT_ENABLED)
 111:.\Generated_Source\PSoC5/Impresora.c ****             /* Set RX interrupt vector and priority */
 112:.\Generated_Source\PSoC5/Impresora.c ****             (void) CyIntSetVector(Impresora_RX_VECT_NUM, &Impresora_RXISR);
 110              		.loc 1 112 0
 111 0004 0020     		movs	r0, #0
 112 0006 0D49     		ldr	r1, .L6
 113 0008 FFF7FEFF 		bl	CyIntSetVector
 113:.\Generated_Source\PSoC5/Impresora.c ****             CyIntSetPriority(Impresora_RX_VECT_NUM, Impresora_RX_PRIOR_NUM);
 114              		.loc 1 113 0
 115 000c 0020     		movs	r0, #0
ARM GAS  C:\Users\RECEPC~1\AppData\Local\Temp\ccU3VU2d.s 			page 5


 116 000e 0721     		movs	r1, #7
 117 0010 FFF7FEFF 		bl	CyIntSetPriority
 114:.\Generated_Source\PSoC5/Impresora.c ****             Impresora_errorStatus = 0u;
 118              		.loc 1 114 0
 119 0014 0A4B     		ldr	r3, .L6+4
 120 0016 0022     		movs	r2, #0
 121 0018 1A70     		strb	r2, [r3]
 115:.\Generated_Source\PSoC5/Impresora.c ****         #endif /* (Impresora_RX_INTERRUPT_ENABLED) */
 116:.\Generated_Source\PSoC5/Impresora.c **** 
 117:.\Generated_Source\PSoC5/Impresora.c ****         #if (Impresora_RXHW_ADDRESS_ENABLED)
 118:.\Generated_Source\PSoC5/Impresora.c ****             Impresora_SetRxAddressMode(Impresora_RX_ADDRESS_MODE);
 119:.\Generated_Source\PSoC5/Impresora.c ****             Impresora_SetRxAddress1(Impresora_RX_HW_ADDRESS1);
 120:.\Generated_Source\PSoC5/Impresora.c ****             Impresora_SetRxAddress2(Impresora_RX_HW_ADDRESS2);
 121:.\Generated_Source\PSoC5/Impresora.c ****         #endif /* End Impresora_RXHW_ADDRESS_ENABLED */
 122:.\Generated_Source\PSoC5/Impresora.c **** 
 123:.\Generated_Source\PSoC5/Impresora.c ****         /* Init Count7 period */
 124:.\Generated_Source\PSoC5/Impresora.c ****         Impresora_RXBITCTR_PERIOD_REG = Impresora_RXBITCTR_INIT;
 122              		.loc 1 124 0
 123 001a 0A4B     		ldr	r3, .L6+8
 124 001c 7222     		movs	r2, #114
 125 001e 1A70     		strb	r2, [r3]
 125:.\Generated_Source\PSoC5/Impresora.c ****         /* Configure the Initial RX interrupt mask */
 126:.\Generated_Source\PSoC5/Impresora.c ****         Impresora_RXSTATUS_MASK_REG  = Impresora_INIT_RX_INTERRUPTS_MASK;
 126              		.loc 1 126 0
 127 0020 094B     		ldr	r3, .L6+12
 128 0022 2022     		movs	r2, #32
 129 0024 1A70     		strb	r2, [r3]
 127:.\Generated_Source\PSoC5/Impresora.c ****     #endif /* End Impresora_RX_ENABLED || Impresora_HD_ENABLED*/
 128:.\Generated_Source\PSoC5/Impresora.c **** 
 129:.\Generated_Source\PSoC5/Impresora.c ****     #if(Impresora_TX_ENABLED)
 130:.\Generated_Source\PSoC5/Impresora.c ****         #if (Impresora_TX_INTERRUPT_ENABLED)
 131:.\Generated_Source\PSoC5/Impresora.c ****             /* Set TX interrupt vector and priority */
 132:.\Generated_Source\PSoC5/Impresora.c ****             (void) CyIntSetVector(Impresora_TX_VECT_NUM, &Impresora_TXISR);
 133:.\Generated_Source\PSoC5/Impresora.c ****             CyIntSetPriority(Impresora_TX_VECT_NUM, Impresora_TX_PRIOR_NUM);
 134:.\Generated_Source\PSoC5/Impresora.c ****         #endif /* (Impresora_TX_INTERRUPT_ENABLED) */
 135:.\Generated_Source\PSoC5/Impresora.c **** 
 136:.\Generated_Source\PSoC5/Impresora.c ****         /* Write Counter Value for TX Bit Clk Generator*/
 137:.\Generated_Source\PSoC5/Impresora.c ****         #if (Impresora_TXCLKGEN_DP)
 138:.\Generated_Source\PSoC5/Impresora.c ****             Impresora_TXBITCLKGEN_CTR_REG = Impresora_BIT_CENTER;
 130              		.loc 1 138 0
 131 0026 094B     		ldr	r3, .L6+16
 132 0028 0622     		movs	r2, #6
 133 002a 1A70     		strb	r2, [r3]
 139:.\Generated_Source\PSoC5/Impresora.c ****             Impresora_TXBITCLKTX_COMPLETE_REG = ((Impresora_NUMBER_OF_DATA_BITS +
 134              		.loc 1 139 0
 135 002c 084B     		ldr	r3, .L6+20
 136 002e 4722     		movs	r2, #71
 137 0030 1A70     		strb	r2, [r3]
 140:.\Generated_Source\PSoC5/Impresora.c ****                         Impresora_NUMBER_OF_START_BIT) * Impresora_OVER_SAMPLE_COUNT) - 1u;
 141:.\Generated_Source\PSoC5/Impresora.c ****         #else
 142:.\Generated_Source\PSoC5/Impresora.c ****             Impresora_TXBITCTR_PERIOD_REG = ((Impresora_NUMBER_OF_DATA_BITS +
 143:.\Generated_Source\PSoC5/Impresora.c ****                         Impresora_NUMBER_OF_START_BIT) * Impresora_OVER_SAMPLE_8) - 1u;
 144:.\Generated_Source\PSoC5/Impresora.c ****         #endif /* End Impresora_TXCLKGEN_DP */
 145:.\Generated_Source\PSoC5/Impresora.c **** 
 146:.\Generated_Source\PSoC5/Impresora.c ****         /* Configure the Initial TX interrupt mask */
 147:.\Generated_Source\PSoC5/Impresora.c ****         #if (Impresora_TX_INTERRUPT_ENABLED)
 148:.\Generated_Source\PSoC5/Impresora.c ****             Impresora_TXSTATUS_MASK_REG = Impresora_TX_STS_FIFO_EMPTY;
ARM GAS  C:\Users\RECEPC~1\AppData\Local\Temp\ccU3VU2d.s 			page 6


 149:.\Generated_Source\PSoC5/Impresora.c ****         #else
 150:.\Generated_Source\PSoC5/Impresora.c ****             Impresora_TXSTATUS_MASK_REG = Impresora_INIT_TX_INTERRUPTS_MASK;
 138              		.loc 1 150 0
 139 0032 084B     		ldr	r3, .L6+24
 140 0034 0222     		movs	r2, #2
 141 0036 1A70     		strb	r2, [r3]
 151:.\Generated_Source\PSoC5/Impresora.c ****         #endif /*End Impresora_TX_INTERRUPT_ENABLED*/
 152:.\Generated_Source\PSoC5/Impresora.c **** 
 153:.\Generated_Source\PSoC5/Impresora.c ****     #endif /* End Impresora_TX_ENABLED */
 154:.\Generated_Source\PSoC5/Impresora.c **** 
 155:.\Generated_Source\PSoC5/Impresora.c ****     #if(Impresora_PARITY_TYPE_SW)  /* Write Parity to Control Register */
 156:.\Generated_Source\PSoC5/Impresora.c ****         Impresora_WriteControlRegister( \
 157:.\Generated_Source\PSoC5/Impresora.c ****             (Impresora_ReadControlRegister() & (uint8)~Impresora_CTRL_PARITY_TYPE_MASK) | \
 158:.\Generated_Source\PSoC5/Impresora.c ****             (uint8)(Impresora_PARITY_TYPE << Impresora_CTRL_PARITY_TYPE0_SHIFT) );
 159:.\Generated_Source\PSoC5/Impresora.c ****     #endif /* End Impresora_PARITY_TYPE_SW */
 160:.\Generated_Source\PSoC5/Impresora.c **** }
 142              		.loc 1 160 0
 143 0038 80BD     		pop	{r7, pc}
 144              	.L7:
 145 003a 00BF     		.align	2
 146              	.L6:
 147 003c 00000000 		.word	Impresora_RXISR
 148 0040 00000000 		.word	Impresora_errorStatus
 149 0044 86640040 		.word	1073767558
 150 0048 86650040 		.word	1073767814
 151 004c 29640040 		.word	1073767465
 152 0050 39640040 		.word	1073767481
 153 0054 8A640040 		.word	1073767562
 154              		.cfi_endproc
 155              	.LFE1:
 156              		.size	Impresora_Init, .-Impresora_Init
 157              		.section	.text.Impresora_Enable,"ax",%progbits
 158              		.align	2
 159              		.global	Impresora_Enable
 160              		.thumb
 161              		.thumb_func
 162              		.type	Impresora_Enable, %function
 163              	Impresora_Enable:
 164              	.LFB2:
 161:.\Generated_Source\PSoC5/Impresora.c **** 
 162:.\Generated_Source\PSoC5/Impresora.c **** 
 163:.\Generated_Source\PSoC5/Impresora.c **** /*******************************************************************************
 164:.\Generated_Source\PSoC5/Impresora.c **** * Function Name: Impresora_Enable
 165:.\Generated_Source\PSoC5/Impresora.c **** ********************************************************************************
 166:.\Generated_Source\PSoC5/Impresora.c **** *
 167:.\Generated_Source\PSoC5/Impresora.c **** * Summary:
 168:.\Generated_Source\PSoC5/Impresora.c **** *  Activates the hardware and begins component operation. It is not necessary
 169:.\Generated_Source\PSoC5/Impresora.c **** *  to call Impresora_Enable() because the Impresora_Start() API
 170:.\Generated_Source\PSoC5/Impresora.c **** *  calls this function, which is the preferred method to begin component
 171:.\Generated_Source\PSoC5/Impresora.c **** *  operation.
 172:.\Generated_Source\PSoC5/Impresora.c **** 
 173:.\Generated_Source\PSoC5/Impresora.c **** * Parameters:
 174:.\Generated_Source\PSoC5/Impresora.c **** *  None.
 175:.\Generated_Source\PSoC5/Impresora.c **** *
 176:.\Generated_Source\PSoC5/Impresora.c **** * Return:
 177:.\Generated_Source\PSoC5/Impresora.c **** *  None.
 178:.\Generated_Source\PSoC5/Impresora.c **** *
ARM GAS  C:\Users\RECEPC~1\AppData\Local\Temp\ccU3VU2d.s 			page 7


 179:.\Generated_Source\PSoC5/Impresora.c **** * Global Variables:
 180:.\Generated_Source\PSoC5/Impresora.c **** *  Impresora_rxAddressDetected - set to initial state (0).
 181:.\Generated_Source\PSoC5/Impresora.c **** *
 182:.\Generated_Source\PSoC5/Impresora.c **** *******************************************************************************/
 183:.\Generated_Source\PSoC5/Impresora.c **** void Impresora_Enable(void) 
 184:.\Generated_Source\PSoC5/Impresora.c **** {
 165              		.loc 1 184 0
 166              		.cfi_startproc
 167              		@ args = 0, pretend = 0, frame = 8
 168              		@ frame_needed = 1, uses_anonymous_args = 0
 169 0000 80B5     		push	{r7, lr}
 170              		.cfi_def_cfa_offset 8
 171              		.cfi_offset 7, -8
 172              		.cfi_offset 14, -4
 173 0002 82B0     		sub	sp, sp, #8
 174              		.cfi_def_cfa_offset 16
 175 0004 00AF     		add	r7, sp, #0
 176              		.cfi_def_cfa_register 7
 185:.\Generated_Source\PSoC5/Impresora.c ****     uint8 enableInterrupts;
 186:.\Generated_Source\PSoC5/Impresora.c ****     enableInterrupts = CyEnterCriticalSection();
 177              		.loc 1 186 0
 178 0006 FFF7FEFF 		bl	CyEnterCriticalSection
 179 000a 0346     		mov	r3, r0
 180 000c FB71     		strb	r3, [r7, #7]
 187:.\Generated_Source\PSoC5/Impresora.c **** 
 188:.\Generated_Source\PSoC5/Impresora.c ****     #if (Impresora_RX_ENABLED || Impresora_HD_ENABLED)
 189:.\Generated_Source\PSoC5/Impresora.c ****         /* RX Counter (Count7) Enable */
 190:.\Generated_Source\PSoC5/Impresora.c ****         Impresora_RXBITCTR_CONTROL_REG |= Impresora_CNTR_ENABLE;
 181              		.loc 1 190 0
 182 000e 114A     		ldr	r2, .L9
 183 0010 104B     		ldr	r3, .L9
 184 0012 1B78     		ldrb	r3, [r3]
 185 0014 DBB2     		uxtb	r3, r3
 186 0016 43F02003 		orr	r3, r3, #32
 187 001a DBB2     		uxtb	r3, r3
 188 001c 1370     		strb	r3, [r2]
 191:.\Generated_Source\PSoC5/Impresora.c **** 
 192:.\Generated_Source\PSoC5/Impresora.c ****         /* Enable the RX Interrupt */
 193:.\Generated_Source\PSoC5/Impresora.c ****         Impresora_RXSTATUS_ACTL_REG  |= Impresora_INT_ENABLE;
 189              		.loc 1 193 0
 190 001e 0E4A     		ldr	r2, .L9+4
 191 0020 0D4B     		ldr	r3, .L9+4
 192 0022 1B78     		ldrb	r3, [r3]
 193 0024 DBB2     		uxtb	r3, r3
 194 0026 43F01003 		orr	r3, r3, #16
 195 002a DBB2     		uxtb	r3, r3
 196 002c 1370     		strb	r3, [r2]
 194:.\Generated_Source\PSoC5/Impresora.c **** 
 195:.\Generated_Source\PSoC5/Impresora.c ****         #if (Impresora_RX_INTERRUPT_ENABLED)
 196:.\Generated_Source\PSoC5/Impresora.c ****             Impresora_EnableRxInt();
 197              		.loc 1 196 0
 198 002e 0B4B     		ldr	r3, .L9+8
 199 0030 0122     		movs	r2, #1
 200 0032 1A60     		str	r2, [r3]
 197:.\Generated_Source\PSoC5/Impresora.c **** 
 198:.\Generated_Source\PSoC5/Impresora.c ****             #if (Impresora_RXHW_ADDRESS_ENABLED)
 199:.\Generated_Source\PSoC5/Impresora.c ****                 Impresora_rxAddressDetected = 0u;
ARM GAS  C:\Users\RECEPC~1\AppData\Local\Temp\ccU3VU2d.s 			page 8


 200:.\Generated_Source\PSoC5/Impresora.c ****             #endif /* (Impresora_RXHW_ADDRESS_ENABLED) */
 201:.\Generated_Source\PSoC5/Impresora.c ****         #endif /* (Impresora_RX_INTERRUPT_ENABLED) */
 202:.\Generated_Source\PSoC5/Impresora.c ****     #endif /* (Impresora_RX_ENABLED || Impresora_HD_ENABLED) */
 203:.\Generated_Source\PSoC5/Impresora.c **** 
 204:.\Generated_Source\PSoC5/Impresora.c ****     #if(Impresora_TX_ENABLED)
 205:.\Generated_Source\PSoC5/Impresora.c ****         /* TX Counter (DP/Count7) Enable */
 206:.\Generated_Source\PSoC5/Impresora.c ****         #if(!Impresora_TXCLKGEN_DP)
 207:.\Generated_Source\PSoC5/Impresora.c ****             Impresora_TXBITCTR_CONTROL_REG |= Impresora_CNTR_ENABLE;
 208:.\Generated_Source\PSoC5/Impresora.c ****         #endif /* End Impresora_TXCLKGEN_DP */
 209:.\Generated_Source\PSoC5/Impresora.c **** 
 210:.\Generated_Source\PSoC5/Impresora.c ****         /* Enable the TX Interrupt */
 211:.\Generated_Source\PSoC5/Impresora.c ****         Impresora_TXSTATUS_ACTL_REG |= Impresora_INT_ENABLE;
 201              		.loc 1 211 0
 202 0034 0A4A     		ldr	r2, .L9+12
 203 0036 0A4B     		ldr	r3, .L9+12
 204 0038 1B78     		ldrb	r3, [r3]
 205 003a DBB2     		uxtb	r3, r3
 206 003c 43F01003 		orr	r3, r3, #16
 207 0040 DBB2     		uxtb	r3, r3
 208 0042 1370     		strb	r3, [r2]
 212:.\Generated_Source\PSoC5/Impresora.c ****         #if (Impresora_TX_INTERRUPT_ENABLED)
 213:.\Generated_Source\PSoC5/Impresora.c ****             Impresora_ClearPendingTxInt(); /* Clear history of TX_NOT_EMPTY */
 214:.\Generated_Source\PSoC5/Impresora.c ****             Impresora_EnableTxInt();
 215:.\Generated_Source\PSoC5/Impresora.c ****         #endif /* (Impresora_TX_INTERRUPT_ENABLED) */
 216:.\Generated_Source\PSoC5/Impresora.c ****      #endif /* (Impresora_TX_INTERRUPT_ENABLED) */
 217:.\Generated_Source\PSoC5/Impresora.c **** 
 218:.\Generated_Source\PSoC5/Impresora.c ****     #if (Impresora_INTERNAL_CLOCK_USED)
 219:.\Generated_Source\PSoC5/Impresora.c ****         Impresora_IntClock_Start();  /* Enable the clock */
 220:.\Generated_Source\PSoC5/Impresora.c ****     #endif /* (Impresora_INTERNAL_CLOCK_USED) */
 221:.\Generated_Source\PSoC5/Impresora.c **** 
 222:.\Generated_Source\PSoC5/Impresora.c ****     CyExitCriticalSection(enableInterrupts);
 209              		.loc 1 222 0
 210 0044 FB79     		ldrb	r3, [r7, #7]	@ zero_extendqisi2
 211 0046 1846     		mov	r0, r3
 212 0048 FFF7FEFF 		bl	CyExitCriticalSection
 223:.\Generated_Source\PSoC5/Impresora.c **** }
 213              		.loc 1 223 0
 214 004c 0837     		adds	r7, r7, #8
 215              		.cfi_def_cfa_offset 8
 216 004e BD46     		mov	sp, r7
 217              		.cfi_def_cfa_register 13
 218              		@ sp needed
 219 0050 80BD     		pop	{r7, pc}
 220              	.L10:
 221 0052 00BF     		.align	2
 222              	.L9:
 223 0054 96640040 		.word	1073767574
 224 0058 96650040 		.word	1073767830
 225 005c 00E100E0 		.word	-536813312
 226 0060 9A640040 		.word	1073767578
 227              		.cfi_endproc
 228              	.LFE2:
 229              		.size	Impresora_Enable, .-Impresora_Enable
 230              		.section	.text.Impresora_Stop,"ax",%progbits
 231              		.align	2
 232              		.global	Impresora_Stop
 233              		.thumb
ARM GAS  C:\Users\RECEPC~1\AppData\Local\Temp\ccU3VU2d.s 			page 9


 234              		.thumb_func
 235              		.type	Impresora_Stop, %function
 236              	Impresora_Stop:
 237              	.LFB3:
 224:.\Generated_Source\PSoC5/Impresora.c **** 
 225:.\Generated_Source\PSoC5/Impresora.c **** 
 226:.\Generated_Source\PSoC5/Impresora.c **** /*******************************************************************************
 227:.\Generated_Source\PSoC5/Impresora.c **** * Function Name: Impresora_Stop
 228:.\Generated_Source\PSoC5/Impresora.c **** ********************************************************************************
 229:.\Generated_Source\PSoC5/Impresora.c **** *
 230:.\Generated_Source\PSoC5/Impresora.c **** * Summary:
 231:.\Generated_Source\PSoC5/Impresora.c **** *  Disables the UART operation.
 232:.\Generated_Source\PSoC5/Impresora.c **** *
 233:.\Generated_Source\PSoC5/Impresora.c **** * Parameters:
 234:.\Generated_Source\PSoC5/Impresora.c **** *  None.
 235:.\Generated_Source\PSoC5/Impresora.c **** *
 236:.\Generated_Source\PSoC5/Impresora.c **** * Return:
 237:.\Generated_Source\PSoC5/Impresora.c **** *  None.
 238:.\Generated_Source\PSoC5/Impresora.c **** *
 239:.\Generated_Source\PSoC5/Impresora.c **** *******************************************************************************/
 240:.\Generated_Source\PSoC5/Impresora.c **** void Impresora_Stop(void) 
 241:.\Generated_Source\PSoC5/Impresora.c **** {
 238              		.loc 1 241 0
 239              		.cfi_startproc
 240              		@ args = 0, pretend = 0, frame = 8
 241              		@ frame_needed = 1, uses_anonymous_args = 0
 242 0000 80B5     		push	{r7, lr}
 243              		.cfi_def_cfa_offset 8
 244              		.cfi_offset 7, -8
 245              		.cfi_offset 14, -4
 246 0002 82B0     		sub	sp, sp, #8
 247              		.cfi_def_cfa_offset 16
 248 0004 00AF     		add	r7, sp, #0
 249              		.cfi_def_cfa_register 7
 242:.\Generated_Source\PSoC5/Impresora.c ****     uint8 enableInterrupts;
 243:.\Generated_Source\PSoC5/Impresora.c ****     enableInterrupts = CyEnterCriticalSection();
 250              		.loc 1 243 0
 251 0006 FFF7FEFF 		bl	CyEnterCriticalSection
 252 000a 0346     		mov	r3, r0
 253 000c FB71     		strb	r3, [r7, #7]
 244:.\Generated_Source\PSoC5/Impresora.c **** 
 245:.\Generated_Source\PSoC5/Impresora.c ****     /* Write Bit Counter Disable */
 246:.\Generated_Source\PSoC5/Impresora.c ****     #if (Impresora_RX_ENABLED || Impresora_HD_ENABLED)
 247:.\Generated_Source\PSoC5/Impresora.c ****         Impresora_RXBITCTR_CONTROL_REG &= (uint8) ~Impresora_CNTR_ENABLE;
 254              		.loc 1 247 0
 255 000e 114A     		ldr	r2, .L12
 256 0010 104B     		ldr	r3, .L12
 257 0012 1B78     		ldrb	r3, [r3]
 258 0014 DBB2     		uxtb	r3, r3
 259 0016 23F02003 		bic	r3, r3, #32
 260 001a DBB2     		uxtb	r3, r3
 261 001c 1370     		strb	r3, [r2]
 248:.\Generated_Source\PSoC5/Impresora.c ****     #endif /* (Impresora_RX_ENABLED || Impresora_HD_ENABLED) */
 249:.\Generated_Source\PSoC5/Impresora.c **** 
 250:.\Generated_Source\PSoC5/Impresora.c ****     #if (Impresora_TX_ENABLED)
 251:.\Generated_Source\PSoC5/Impresora.c ****         #if(!Impresora_TXCLKGEN_DP)
 252:.\Generated_Source\PSoC5/Impresora.c ****             Impresora_TXBITCTR_CONTROL_REG &= (uint8) ~Impresora_CNTR_ENABLE;
ARM GAS  C:\Users\RECEPC~1\AppData\Local\Temp\ccU3VU2d.s 			page 10


 253:.\Generated_Source\PSoC5/Impresora.c ****         #endif /* (!Impresora_TXCLKGEN_DP) */
 254:.\Generated_Source\PSoC5/Impresora.c ****     #endif /* (Impresora_TX_ENABLED) */
 255:.\Generated_Source\PSoC5/Impresora.c **** 
 256:.\Generated_Source\PSoC5/Impresora.c ****     #if (Impresora_INTERNAL_CLOCK_USED)
 257:.\Generated_Source\PSoC5/Impresora.c ****         Impresora_IntClock_Stop();   /* Disable the clock */
 258:.\Generated_Source\PSoC5/Impresora.c ****     #endif /* (Impresora_INTERNAL_CLOCK_USED) */
 259:.\Generated_Source\PSoC5/Impresora.c **** 
 260:.\Generated_Source\PSoC5/Impresora.c ****     /* Disable internal interrupt component */
 261:.\Generated_Source\PSoC5/Impresora.c ****     #if (Impresora_RX_ENABLED || Impresora_HD_ENABLED)
 262:.\Generated_Source\PSoC5/Impresora.c ****         Impresora_RXSTATUS_ACTL_REG  &= (uint8) ~Impresora_INT_ENABLE;
 262              		.loc 1 262 0
 263 001e 0E4A     		ldr	r2, .L12+4
 264 0020 0D4B     		ldr	r3, .L12+4
 265 0022 1B78     		ldrb	r3, [r3]
 266 0024 DBB2     		uxtb	r3, r3
 267 0026 23F01003 		bic	r3, r3, #16
 268 002a DBB2     		uxtb	r3, r3
 269 002c 1370     		strb	r3, [r2]
 263:.\Generated_Source\PSoC5/Impresora.c **** 
 264:.\Generated_Source\PSoC5/Impresora.c ****         #if (Impresora_RX_INTERRUPT_ENABLED)
 265:.\Generated_Source\PSoC5/Impresora.c ****             Impresora_DisableRxInt();
 270              		.loc 1 265 0
 271 002e 0B4B     		ldr	r3, .L12+8
 272 0030 0122     		movs	r2, #1
 273 0032 1A60     		str	r2, [r3]
 266:.\Generated_Source\PSoC5/Impresora.c ****         #endif /* (Impresora_RX_INTERRUPT_ENABLED) */
 267:.\Generated_Source\PSoC5/Impresora.c ****     #endif /* (Impresora_RX_ENABLED || Impresora_HD_ENABLED) */
 268:.\Generated_Source\PSoC5/Impresora.c **** 
 269:.\Generated_Source\PSoC5/Impresora.c ****     #if (Impresora_TX_ENABLED)
 270:.\Generated_Source\PSoC5/Impresora.c ****         Impresora_TXSTATUS_ACTL_REG &= (uint8) ~Impresora_INT_ENABLE;
 274              		.loc 1 270 0
 275 0034 0A4A     		ldr	r2, .L12+12
 276 0036 0A4B     		ldr	r3, .L12+12
 277 0038 1B78     		ldrb	r3, [r3]
 278 003a DBB2     		uxtb	r3, r3
 279 003c 23F01003 		bic	r3, r3, #16
 280 0040 DBB2     		uxtb	r3, r3
 281 0042 1370     		strb	r3, [r2]
 271:.\Generated_Source\PSoC5/Impresora.c **** 
 272:.\Generated_Source\PSoC5/Impresora.c ****         #if (Impresora_TX_INTERRUPT_ENABLED)
 273:.\Generated_Source\PSoC5/Impresora.c ****             Impresora_DisableTxInt();
 274:.\Generated_Source\PSoC5/Impresora.c ****         #endif /* (Impresora_TX_INTERRUPT_ENABLED) */
 275:.\Generated_Source\PSoC5/Impresora.c ****     #endif /* (Impresora_TX_ENABLED) */
 276:.\Generated_Source\PSoC5/Impresora.c **** 
 277:.\Generated_Source\PSoC5/Impresora.c ****     CyExitCriticalSection(enableInterrupts);
 282              		.loc 1 277 0
 283 0044 FB79     		ldrb	r3, [r7, #7]	@ zero_extendqisi2
 284 0046 1846     		mov	r0, r3
 285 0048 FFF7FEFF 		bl	CyExitCriticalSection
 278:.\Generated_Source\PSoC5/Impresora.c **** }
 286              		.loc 1 278 0
 287 004c 0837     		adds	r7, r7, #8
 288              		.cfi_def_cfa_offset 8
 289 004e BD46     		mov	sp, r7
 290              		.cfi_def_cfa_register 13
 291              		@ sp needed
 292 0050 80BD     		pop	{r7, pc}
ARM GAS  C:\Users\RECEPC~1\AppData\Local\Temp\ccU3VU2d.s 			page 11


 293              	.L13:
 294 0052 00BF     		.align	2
 295              	.L12:
 296 0054 96640040 		.word	1073767574
 297 0058 96650040 		.word	1073767830
 298 005c 80E100E0 		.word	-536813184
 299 0060 9A640040 		.word	1073767578
 300              		.cfi_endproc
 301              	.LFE3:
 302              		.size	Impresora_Stop, .-Impresora_Stop
 303              		.section	.text.Impresora_ReadControlRegister,"ax",%progbits
 304              		.align	2
 305              		.global	Impresora_ReadControlRegister
 306              		.thumb
 307              		.thumb_func
 308              		.type	Impresora_ReadControlRegister, %function
 309              	Impresora_ReadControlRegister:
 310              	.LFB4:
 279:.\Generated_Source\PSoC5/Impresora.c **** 
 280:.\Generated_Source\PSoC5/Impresora.c **** 
 281:.\Generated_Source\PSoC5/Impresora.c **** /*******************************************************************************
 282:.\Generated_Source\PSoC5/Impresora.c **** * Function Name: Impresora_ReadControlRegister
 283:.\Generated_Source\PSoC5/Impresora.c **** ********************************************************************************
 284:.\Generated_Source\PSoC5/Impresora.c **** *
 285:.\Generated_Source\PSoC5/Impresora.c **** * Summary:
 286:.\Generated_Source\PSoC5/Impresora.c **** *  Returns the current value of the control register.
 287:.\Generated_Source\PSoC5/Impresora.c **** *
 288:.\Generated_Source\PSoC5/Impresora.c **** * Parameters:
 289:.\Generated_Source\PSoC5/Impresora.c **** *  None.
 290:.\Generated_Source\PSoC5/Impresora.c **** *
 291:.\Generated_Source\PSoC5/Impresora.c **** * Return:
 292:.\Generated_Source\PSoC5/Impresora.c **** *  Contents of the control register.
 293:.\Generated_Source\PSoC5/Impresora.c **** *
 294:.\Generated_Source\PSoC5/Impresora.c **** *******************************************************************************/
 295:.\Generated_Source\PSoC5/Impresora.c **** uint8 Impresora_ReadControlRegister(void) 
 296:.\Generated_Source\PSoC5/Impresora.c **** {
 311              		.loc 1 296 0
 312              		.cfi_startproc
 313              		@ args = 0, pretend = 0, frame = 0
 314              		@ frame_needed = 1, uses_anonymous_args = 0
 315              		@ link register save eliminated.
 316 0000 80B4     		push	{r7}
 317              		.cfi_def_cfa_offset 4
 318              		.cfi_offset 7, -4
 319 0002 00AF     		add	r7, sp, #0
 320              		.cfi_def_cfa_register 7
 297:.\Generated_Source\PSoC5/Impresora.c ****     #if (Impresora_CONTROL_REG_REMOVED)
 298:.\Generated_Source\PSoC5/Impresora.c ****         return(0u);
 321              		.loc 1 298 0
 322 0004 0023     		movs	r3, #0
 299:.\Generated_Source\PSoC5/Impresora.c ****     #else
 300:.\Generated_Source\PSoC5/Impresora.c ****         return(Impresora_CONTROL_REG);
 301:.\Generated_Source\PSoC5/Impresora.c ****     #endif /* (Impresora_CONTROL_REG_REMOVED) */
 302:.\Generated_Source\PSoC5/Impresora.c **** }
 323              		.loc 1 302 0
 324 0006 1846     		mov	r0, r3
 325 0008 BD46     		mov	sp, r7
ARM GAS  C:\Users\RECEPC~1\AppData\Local\Temp\ccU3VU2d.s 			page 12


 326              		.cfi_def_cfa_register 13
 327              		@ sp needed
 328 000a 5DF8047B 		ldr	r7, [sp], #4
 329              		.cfi_restore 7
 330              		.cfi_def_cfa_offset 0
 331 000e 7047     		bx	lr
 332              		.cfi_endproc
 333              	.LFE4:
 334              		.size	Impresora_ReadControlRegister, .-Impresora_ReadControlRegister
 335              		.section	.text.Impresora_WriteControlRegister,"ax",%progbits
 336              		.align	2
 337              		.global	Impresora_WriteControlRegister
 338              		.thumb
 339              		.thumb_func
 340              		.type	Impresora_WriteControlRegister, %function
 341              	Impresora_WriteControlRegister:
 342              	.LFB5:
 303:.\Generated_Source\PSoC5/Impresora.c **** 
 304:.\Generated_Source\PSoC5/Impresora.c **** 
 305:.\Generated_Source\PSoC5/Impresora.c **** /*******************************************************************************
 306:.\Generated_Source\PSoC5/Impresora.c **** * Function Name: Impresora_WriteControlRegister
 307:.\Generated_Source\PSoC5/Impresora.c **** ********************************************************************************
 308:.\Generated_Source\PSoC5/Impresora.c **** *
 309:.\Generated_Source\PSoC5/Impresora.c **** * Summary:
 310:.\Generated_Source\PSoC5/Impresora.c **** *  Writes an 8-bit value into the control register
 311:.\Generated_Source\PSoC5/Impresora.c **** *
 312:.\Generated_Source\PSoC5/Impresora.c **** * Parameters:
 313:.\Generated_Source\PSoC5/Impresora.c **** *  control:  control register value
 314:.\Generated_Source\PSoC5/Impresora.c **** *
 315:.\Generated_Source\PSoC5/Impresora.c **** * Return:
 316:.\Generated_Source\PSoC5/Impresora.c **** *  None.
 317:.\Generated_Source\PSoC5/Impresora.c **** *
 318:.\Generated_Source\PSoC5/Impresora.c **** *******************************************************************************/
 319:.\Generated_Source\PSoC5/Impresora.c **** void  Impresora_WriteControlRegister(uint8 control) 
 320:.\Generated_Source\PSoC5/Impresora.c **** {
 343              		.loc 1 320 0
 344              		.cfi_startproc
 345              		@ args = 0, pretend = 0, frame = 8
 346              		@ frame_needed = 1, uses_anonymous_args = 0
 347              		@ link register save eliminated.
 348 0000 80B4     		push	{r7}
 349              		.cfi_def_cfa_offset 4
 350              		.cfi_offset 7, -4
 351 0002 83B0     		sub	sp, sp, #12
 352              		.cfi_def_cfa_offset 16
 353 0004 00AF     		add	r7, sp, #0
 354              		.cfi_def_cfa_register 7
 355 0006 0346     		mov	r3, r0
 356 0008 FB71     		strb	r3, [r7, #7]
 321:.\Generated_Source\PSoC5/Impresora.c ****     #if (Impresora_CONTROL_REG_REMOVED)
 322:.\Generated_Source\PSoC5/Impresora.c ****         if(0u != control)
 323:.\Generated_Source\PSoC5/Impresora.c ****         {
 324:.\Generated_Source\PSoC5/Impresora.c ****             /* Suppress compiler warning */
 325:.\Generated_Source\PSoC5/Impresora.c ****         }
 326:.\Generated_Source\PSoC5/Impresora.c ****     #else
 327:.\Generated_Source\PSoC5/Impresora.c ****        Impresora_CONTROL_REG = control;
 328:.\Generated_Source\PSoC5/Impresora.c ****     #endif /* (Impresora_CONTROL_REG_REMOVED) */
ARM GAS  C:\Users\RECEPC~1\AppData\Local\Temp\ccU3VU2d.s 			page 13


 329:.\Generated_Source\PSoC5/Impresora.c **** }
 357              		.loc 1 329 0
 358 000a 0C37     		adds	r7, r7, #12
 359              		.cfi_def_cfa_offset 4
 360 000c BD46     		mov	sp, r7
 361              		.cfi_def_cfa_register 13
 362              		@ sp needed
 363 000e 5DF8047B 		ldr	r7, [sp], #4
 364              		.cfi_restore 7
 365              		.cfi_def_cfa_offset 0
 366 0012 7047     		bx	lr
 367              		.cfi_endproc
 368              	.LFE5:
 369              		.size	Impresora_WriteControlRegister, .-Impresora_WriteControlRegister
 370              		.section	.text.Impresora_SetRxInterruptMode,"ax",%progbits
 371              		.align	2
 372              		.global	Impresora_SetRxInterruptMode
 373              		.thumb
 374              		.thumb_func
 375              		.type	Impresora_SetRxInterruptMode, %function
 376              	Impresora_SetRxInterruptMode:
 377              	.LFB6:
 330:.\Generated_Source\PSoC5/Impresora.c **** 
 331:.\Generated_Source\PSoC5/Impresora.c **** 
 332:.\Generated_Source\PSoC5/Impresora.c **** #if(Impresora_RX_ENABLED || Impresora_HD_ENABLED)
 333:.\Generated_Source\PSoC5/Impresora.c ****     /*******************************************************************************
 334:.\Generated_Source\PSoC5/Impresora.c ****     * Function Name: Impresora_SetRxInterruptMode
 335:.\Generated_Source\PSoC5/Impresora.c ****     ********************************************************************************
 336:.\Generated_Source\PSoC5/Impresora.c ****     *
 337:.\Generated_Source\PSoC5/Impresora.c ****     * Summary:
 338:.\Generated_Source\PSoC5/Impresora.c ****     *  Configures the RX interrupt sources enabled.
 339:.\Generated_Source\PSoC5/Impresora.c ****     *
 340:.\Generated_Source\PSoC5/Impresora.c ****     * Parameters:
 341:.\Generated_Source\PSoC5/Impresora.c ****     *  IntSrc:  Bit field containing the RX interrupts to enable. Based on the 
 342:.\Generated_Source\PSoC5/Impresora.c ****     *  bit-field arrangement of the status register. This value must be a 
 343:.\Generated_Source\PSoC5/Impresora.c ****     *  combination of status register bit-masks shown below:
 344:.\Generated_Source\PSoC5/Impresora.c ****     *      Impresora_RX_STS_FIFO_NOTEMPTY    Interrupt on byte received.
 345:.\Generated_Source\PSoC5/Impresora.c ****     *      Impresora_RX_STS_PAR_ERROR        Interrupt on parity error.
 346:.\Generated_Source\PSoC5/Impresora.c ****     *      Impresora_RX_STS_STOP_ERROR       Interrupt on stop error.
 347:.\Generated_Source\PSoC5/Impresora.c ****     *      Impresora_RX_STS_BREAK            Interrupt on break.
 348:.\Generated_Source\PSoC5/Impresora.c ****     *      Impresora_RX_STS_OVERRUN          Interrupt on overrun error.
 349:.\Generated_Source\PSoC5/Impresora.c ****     *      Impresora_RX_STS_ADDR_MATCH       Interrupt on address match.
 350:.\Generated_Source\PSoC5/Impresora.c ****     *      Impresora_RX_STS_MRKSPC           Interrupt on address detect.
 351:.\Generated_Source\PSoC5/Impresora.c ****     *
 352:.\Generated_Source\PSoC5/Impresora.c ****     * Return:
 353:.\Generated_Source\PSoC5/Impresora.c ****     *  None.
 354:.\Generated_Source\PSoC5/Impresora.c ****     *
 355:.\Generated_Source\PSoC5/Impresora.c ****     * Theory:
 356:.\Generated_Source\PSoC5/Impresora.c ****     *  Enables the output of specific status bits to the interrupt controller
 357:.\Generated_Source\PSoC5/Impresora.c ****     *
 358:.\Generated_Source\PSoC5/Impresora.c ****     *******************************************************************************/
 359:.\Generated_Source\PSoC5/Impresora.c ****     void Impresora_SetRxInterruptMode(uint8 intSrc) 
 360:.\Generated_Source\PSoC5/Impresora.c ****     {
 378              		.loc 1 360 0
 379              		.cfi_startproc
 380              		@ args = 0, pretend = 0, frame = 8
 381              		@ frame_needed = 1, uses_anonymous_args = 0
ARM GAS  C:\Users\RECEPC~1\AppData\Local\Temp\ccU3VU2d.s 			page 14


 382              		@ link register save eliminated.
 383 0000 80B4     		push	{r7}
 384              		.cfi_def_cfa_offset 4
 385              		.cfi_offset 7, -4
 386 0002 83B0     		sub	sp, sp, #12
 387              		.cfi_def_cfa_offset 16
 388 0004 00AF     		add	r7, sp, #0
 389              		.cfi_def_cfa_register 7
 390 0006 0346     		mov	r3, r0
 391 0008 FB71     		strb	r3, [r7, #7]
 361:.\Generated_Source\PSoC5/Impresora.c ****         Impresora_RXSTATUS_MASK_REG  = intSrc;
 392              		.loc 1 361 0
 393 000a 044A     		ldr	r2, .L18
 394 000c FB79     		ldrb	r3, [r7, #7]
 395 000e 1370     		strb	r3, [r2]
 362:.\Generated_Source\PSoC5/Impresora.c ****     }
 396              		.loc 1 362 0
 397 0010 0C37     		adds	r7, r7, #12
 398              		.cfi_def_cfa_offset 4
 399 0012 BD46     		mov	sp, r7
 400              		.cfi_def_cfa_register 13
 401              		@ sp needed
 402 0014 5DF8047B 		ldr	r7, [sp], #4
 403              		.cfi_restore 7
 404              		.cfi_def_cfa_offset 0
 405 0018 7047     		bx	lr
 406              	.L19:
 407 001a 00BF     		.align	2
 408              	.L18:
 409 001c 86650040 		.word	1073767814
 410              		.cfi_endproc
 411              	.LFE6:
 412              		.size	Impresora_SetRxInterruptMode, .-Impresora_SetRxInterruptMode
 413              		.section	.text.Impresora_ReadRxData,"ax",%progbits
 414              		.align	2
 415              		.global	Impresora_ReadRxData
 416              		.thumb
 417              		.thumb_func
 418              		.type	Impresora_ReadRxData, %function
 419              	Impresora_ReadRxData:
 420              	.LFB7:
 363:.\Generated_Source\PSoC5/Impresora.c **** 
 364:.\Generated_Source\PSoC5/Impresora.c **** 
 365:.\Generated_Source\PSoC5/Impresora.c ****     /*******************************************************************************
 366:.\Generated_Source\PSoC5/Impresora.c ****     * Function Name: Impresora_ReadRxData
 367:.\Generated_Source\PSoC5/Impresora.c ****     ********************************************************************************
 368:.\Generated_Source\PSoC5/Impresora.c ****     *
 369:.\Generated_Source\PSoC5/Impresora.c ****     * Summary:
 370:.\Generated_Source\PSoC5/Impresora.c ****     *  Returns the next byte of received data. This function returns data without
 371:.\Generated_Source\PSoC5/Impresora.c ****     *  checking the status. You must check the status separately.
 372:.\Generated_Source\PSoC5/Impresora.c ****     *
 373:.\Generated_Source\PSoC5/Impresora.c ****     * Parameters:
 374:.\Generated_Source\PSoC5/Impresora.c ****     *  None.
 375:.\Generated_Source\PSoC5/Impresora.c ****     *
 376:.\Generated_Source\PSoC5/Impresora.c ****     * Return:
 377:.\Generated_Source\PSoC5/Impresora.c ****     *  Received data from RX register
 378:.\Generated_Source\PSoC5/Impresora.c ****     *
ARM GAS  C:\Users\RECEPC~1\AppData\Local\Temp\ccU3VU2d.s 			page 15


 379:.\Generated_Source\PSoC5/Impresora.c ****     * Global Variables:
 380:.\Generated_Source\PSoC5/Impresora.c ****     *  Impresora_rxBuffer - RAM buffer pointer for save received data.
 381:.\Generated_Source\PSoC5/Impresora.c ****     *  Impresora_rxBufferWrite - cyclic index for write to rxBuffer,
 382:.\Generated_Source\PSoC5/Impresora.c ****     *     checked to identify new data.
 383:.\Generated_Source\PSoC5/Impresora.c ****     *  Impresora_rxBufferRead - cyclic index for read from rxBuffer,
 384:.\Generated_Source\PSoC5/Impresora.c ****     *     incremented after each byte has been read from buffer.
 385:.\Generated_Source\PSoC5/Impresora.c ****     *  Impresora_rxBufferLoopDetect - cleared if loop condition was detected
 386:.\Generated_Source\PSoC5/Impresora.c ****     *     in RX ISR.
 387:.\Generated_Source\PSoC5/Impresora.c ****     *
 388:.\Generated_Source\PSoC5/Impresora.c ****     * Reentrant:
 389:.\Generated_Source\PSoC5/Impresora.c ****     *  No.
 390:.\Generated_Source\PSoC5/Impresora.c ****     *
 391:.\Generated_Source\PSoC5/Impresora.c ****     *******************************************************************************/
 392:.\Generated_Source\PSoC5/Impresora.c ****     uint8 Impresora_ReadRxData(void) 
 393:.\Generated_Source\PSoC5/Impresora.c ****     {
 421              		.loc 1 393 0
 422              		.cfi_startproc
 423              		@ args = 0, pretend = 0, frame = 8
 424              		@ frame_needed = 1, uses_anonymous_args = 0
 425              		@ link register save eliminated.
 426 0000 80B4     		push	{r7}
 427              		.cfi_def_cfa_offset 4
 428              		.cfi_offset 7, -4
 429 0002 83B0     		sub	sp, sp, #12
 430              		.cfi_def_cfa_offset 16
 431 0004 00AF     		add	r7, sp, #0
 432              		.cfi_def_cfa_register 7
 394:.\Generated_Source\PSoC5/Impresora.c ****         uint8 rxData;
 395:.\Generated_Source\PSoC5/Impresora.c **** 
 396:.\Generated_Source\PSoC5/Impresora.c ****     #if (Impresora_RX_INTERRUPT_ENABLED)
 397:.\Generated_Source\PSoC5/Impresora.c **** 
 398:.\Generated_Source\PSoC5/Impresora.c ****         uint8 locRxBufferRead;
 399:.\Generated_Source\PSoC5/Impresora.c ****         uint8 locRxBufferWrite;
 400:.\Generated_Source\PSoC5/Impresora.c **** 
 401:.\Generated_Source\PSoC5/Impresora.c ****         /* Protect variables that could change on interrupt */
 402:.\Generated_Source\PSoC5/Impresora.c ****         Impresora_DisableRxInt();
 433              		.loc 1 402 0
 434 0006 1C4B     		ldr	r3, .L27
 435 0008 0122     		movs	r2, #1
 436 000a 1A60     		str	r2, [r3]
 403:.\Generated_Source\PSoC5/Impresora.c **** 
 404:.\Generated_Source\PSoC5/Impresora.c ****         locRxBufferRead  = Impresora_rxBufferRead;
 437              		.loc 1 404 0
 438 000c 1B4B     		ldr	r3, .L27+4
 439 000e 1B78     		ldrb	r3, [r3]
 440 0010 BB71     		strb	r3, [r7, #6]
 405:.\Generated_Source\PSoC5/Impresora.c ****         locRxBufferWrite = Impresora_rxBufferWrite;
 441              		.loc 1 405 0
 442 0012 1B4B     		ldr	r3, .L27+8
 443 0014 1B78     		ldrb	r3, [r3]
 444 0016 7B71     		strb	r3, [r7, #5]
 406:.\Generated_Source\PSoC5/Impresora.c **** 
 407:.\Generated_Source\PSoC5/Impresora.c ****         if( (Impresora_rxBufferLoopDetect != 0u) || (locRxBufferRead != locRxBufferWrite) )
 445              		.loc 1 407 0
 446 0018 1A4B     		ldr	r3, .L27+12
 447 001a 1B78     		ldrb	r3, [r3]
 448 001c DBB2     		uxtb	r3, r3
ARM GAS  C:\Users\RECEPC~1\AppData\Local\Temp\ccU3VU2d.s 			page 16


 449 001e 002B     		cmp	r3, #0
 450 0020 03D1     		bne	.L21
 451              		.loc 1 407 0 is_stmt 0 discriminator 1
 452 0022 BA79     		ldrb	r2, [r7, #6]	@ zero_extendqisi2
 453 0024 7B79     		ldrb	r3, [r7, #5]	@ zero_extendqisi2
 454 0026 9A42     		cmp	r2, r3
 455 0028 18D0     		beq	.L22
 456              	.L21:
 408:.\Generated_Source\PSoC5/Impresora.c ****         {
 409:.\Generated_Source\PSoC5/Impresora.c ****             rxData = Impresora_rxBuffer[locRxBufferRead];
 457              		.loc 1 409 0 is_stmt 1
 458 002a BB79     		ldrb	r3, [r7, #6]	@ zero_extendqisi2
 459 002c 164A     		ldr	r2, .L27+16
 460 002e D35C     		ldrb	r3, [r2, r3]
 461 0030 FB71     		strb	r3, [r7, #7]
 410:.\Generated_Source\PSoC5/Impresora.c ****             locRxBufferRead++;
 462              		.loc 1 410 0
 463 0032 BB79     		ldrb	r3, [r7, #6]	@ zero_extendqisi2
 464 0034 0133     		adds	r3, r3, #1
 465 0036 BB71     		strb	r3, [r7, #6]
 411:.\Generated_Source\PSoC5/Impresora.c **** 
 412:.\Generated_Source\PSoC5/Impresora.c ****             if(locRxBufferRead >= Impresora_RX_BUFFER_SIZE)
 466              		.loc 1 412 0
 467 0038 BB79     		ldrb	r3, [r7, #6]	@ zero_extendqisi2
 468 003a C72B     		cmp	r3, #199
 469 003c 01D9     		bls	.L23
 413:.\Generated_Source\PSoC5/Impresora.c ****             {
 414:.\Generated_Source\PSoC5/Impresora.c ****                 locRxBufferRead = 0u;
 470              		.loc 1 414 0
 471 003e 0023     		movs	r3, #0
 472 0040 BB71     		strb	r3, [r7, #6]
 473              	.L23:
 415:.\Generated_Source\PSoC5/Impresora.c ****             }
 416:.\Generated_Source\PSoC5/Impresora.c ****             /* Update the real pointer */
 417:.\Generated_Source\PSoC5/Impresora.c ****             Impresora_rxBufferRead = locRxBufferRead;
 474              		.loc 1 417 0
 475 0042 0E4A     		ldr	r2, .L27+4
 476 0044 BB79     		ldrb	r3, [r7, #6]
 477 0046 1370     		strb	r3, [r2]
 418:.\Generated_Source\PSoC5/Impresora.c **** 
 419:.\Generated_Source\PSoC5/Impresora.c ****             if(Impresora_rxBufferLoopDetect != 0u)
 478              		.loc 1 419 0
 479 0048 0E4B     		ldr	r3, .L27+12
 480 004a 1B78     		ldrb	r3, [r3]
 481 004c DBB2     		uxtb	r3, r3
 482 004e 002B     		cmp	r3, #0
 483 0050 03D0     		beq	.L24
 420:.\Generated_Source\PSoC5/Impresora.c ****             {
 421:.\Generated_Source\PSoC5/Impresora.c ****                 Impresora_rxBufferLoopDetect = 0u;
 484              		.loc 1 421 0
 485 0052 0C4B     		ldr	r3, .L27+12
 486 0054 0022     		movs	r2, #0
 487 0056 1A70     		strb	r2, [r3]
 419:.\Generated_Source\PSoC5/Impresora.c ****             {
 488              		.loc 1 419 0
 489 0058 03E0     		b	.L25
 490              	.L24:
ARM GAS  C:\Users\RECEPC~1\AppData\Local\Temp\ccU3VU2d.s 			page 17


 491 005a 02E0     		b	.L25
 492              	.L22:
 422:.\Generated_Source\PSoC5/Impresora.c ****                 #if ((Impresora_RX_INTERRUPT_ENABLED) && (Impresora_FLOW_CONTROL != 0u))
 423:.\Generated_Source\PSoC5/Impresora.c ****                     /* When Hardware Flow Control selected - return RX mask */
 424:.\Generated_Source\PSoC5/Impresora.c ****                     #if( Impresora_HD_ENABLED )
 425:.\Generated_Source\PSoC5/Impresora.c ****                         if((Impresora_CONTROL_REG & Impresora_CTRL_HD_SEND) == 0u)
 426:.\Generated_Source\PSoC5/Impresora.c ****                         {   /* In Half duplex mode return RX mask only in RX
 427:.\Generated_Source\PSoC5/Impresora.c ****                             *  configuration set, otherwise
 428:.\Generated_Source\PSoC5/Impresora.c ****                             *  mask will be returned in LoadRxConfig() API.
 429:.\Generated_Source\PSoC5/Impresora.c ****                             */
 430:.\Generated_Source\PSoC5/Impresora.c ****                             Impresora_RXSTATUS_MASK_REG  |= Impresora_RX_STS_FIFO_NOTEMPTY;
 431:.\Generated_Source\PSoC5/Impresora.c ****                         }
 432:.\Generated_Source\PSoC5/Impresora.c ****                     #else
 433:.\Generated_Source\PSoC5/Impresora.c ****                         Impresora_RXSTATUS_MASK_REG  |= Impresora_RX_STS_FIFO_NOTEMPTY;
 434:.\Generated_Source\PSoC5/Impresora.c ****                     #endif /* end Impresora_HD_ENABLED */
 435:.\Generated_Source\PSoC5/Impresora.c ****                 #endif /* ((Impresora_RX_INTERRUPT_ENABLED) && (Impresora_FLOW_CONTROL != 0u)) */
 436:.\Generated_Source\PSoC5/Impresora.c ****             }
 437:.\Generated_Source\PSoC5/Impresora.c ****         }
 438:.\Generated_Source\PSoC5/Impresora.c ****         else
 439:.\Generated_Source\PSoC5/Impresora.c ****         {   /* Needs to check status for RX_STS_FIFO_NOTEMPTY bit */
 440:.\Generated_Source\PSoC5/Impresora.c ****             rxData = Impresora_RXDATA_REG;
 493              		.loc 1 440 0
 494 005c 0B4B     		ldr	r3, .L27+20
 495 005e 1B78     		ldrb	r3, [r3]
 496 0060 FB71     		strb	r3, [r7, #7]
 497              	.L25:
 441:.\Generated_Source\PSoC5/Impresora.c ****         }
 442:.\Generated_Source\PSoC5/Impresora.c **** 
 443:.\Generated_Source\PSoC5/Impresora.c ****         Impresora_EnableRxInt();
 498              		.loc 1 443 0
 499 0062 0B4B     		ldr	r3, .L27+24
 500 0064 0122     		movs	r2, #1
 501 0066 1A60     		str	r2, [r3]
 444:.\Generated_Source\PSoC5/Impresora.c **** 
 445:.\Generated_Source\PSoC5/Impresora.c ****     #else
 446:.\Generated_Source\PSoC5/Impresora.c **** 
 447:.\Generated_Source\PSoC5/Impresora.c ****         /* Needs to check status for RX_STS_FIFO_NOTEMPTY bit */
 448:.\Generated_Source\PSoC5/Impresora.c ****         rxData = Impresora_RXDATA_REG;
 449:.\Generated_Source\PSoC5/Impresora.c **** 
 450:.\Generated_Source\PSoC5/Impresora.c ****     #endif /* (Impresora_RX_INTERRUPT_ENABLED) */
 451:.\Generated_Source\PSoC5/Impresora.c **** 
 452:.\Generated_Source\PSoC5/Impresora.c ****         return(rxData);
 502              		.loc 1 452 0
 503 0068 FB79     		ldrb	r3, [r7, #7]	@ zero_extendqisi2
 453:.\Generated_Source\PSoC5/Impresora.c ****     }
 504              		.loc 1 453 0
 505 006a 1846     		mov	r0, r3
 506 006c 0C37     		adds	r7, r7, #12
 507              		.cfi_def_cfa_offset 4
 508 006e BD46     		mov	sp, r7
 509              		.cfi_def_cfa_register 13
 510              		@ sp needed
 511 0070 5DF8047B 		ldr	r7, [sp], #4
 512              		.cfi_restore 7
 513              		.cfi_def_cfa_offset 0
 514 0074 7047     		bx	lr
 515              	.L28:
ARM GAS  C:\Users\RECEPC~1\AppData\Local\Temp\ccU3VU2d.s 			page 18


 516 0076 00BF     		.align	2
 517              	.L27:
 518 0078 80E100E0 		.word	-536813184
 519 007c 00000000 		.word	Impresora_rxBufferRead
 520 0080 00000000 		.word	Impresora_rxBufferWrite
 521 0084 00000000 		.word	Impresora_rxBufferLoopDetect
 522 0088 00000000 		.word	Impresora_rxBuffer
 523 008c 47640040 		.word	1073767495
 524 0090 00E100E0 		.word	-536813312
 525              		.cfi_endproc
 526              	.LFE7:
 527              		.size	Impresora_ReadRxData, .-Impresora_ReadRxData
 528              		.section	.text.Impresora_ReadRxStatus,"ax",%progbits
 529              		.align	2
 530              		.global	Impresora_ReadRxStatus
 531              		.thumb
 532              		.thumb_func
 533              		.type	Impresora_ReadRxStatus, %function
 534              	Impresora_ReadRxStatus:
 535              	.LFB8:
 454:.\Generated_Source\PSoC5/Impresora.c **** 
 455:.\Generated_Source\PSoC5/Impresora.c **** 
 456:.\Generated_Source\PSoC5/Impresora.c ****     /*******************************************************************************
 457:.\Generated_Source\PSoC5/Impresora.c ****     * Function Name: Impresora_ReadRxStatus
 458:.\Generated_Source\PSoC5/Impresora.c ****     ********************************************************************************
 459:.\Generated_Source\PSoC5/Impresora.c ****     *
 460:.\Generated_Source\PSoC5/Impresora.c ****     * Summary:
 461:.\Generated_Source\PSoC5/Impresora.c ****     *  Returns the current state of the receiver status register and the software
 462:.\Generated_Source\PSoC5/Impresora.c ****     *  buffer overflow status.
 463:.\Generated_Source\PSoC5/Impresora.c ****     *
 464:.\Generated_Source\PSoC5/Impresora.c ****     * Parameters:
 465:.\Generated_Source\PSoC5/Impresora.c ****     *  None.
 466:.\Generated_Source\PSoC5/Impresora.c ****     *
 467:.\Generated_Source\PSoC5/Impresora.c ****     * Return:
 468:.\Generated_Source\PSoC5/Impresora.c ****     *  Current state of the status register.
 469:.\Generated_Source\PSoC5/Impresora.c ****     *
 470:.\Generated_Source\PSoC5/Impresora.c ****     * Side Effect:
 471:.\Generated_Source\PSoC5/Impresora.c ****     *  All status register bits are clear-on-read except
 472:.\Generated_Source\PSoC5/Impresora.c ****     *  Impresora_RX_STS_FIFO_NOTEMPTY.
 473:.\Generated_Source\PSoC5/Impresora.c ****     *  Impresora_RX_STS_FIFO_NOTEMPTY clears immediately after RX data
 474:.\Generated_Source\PSoC5/Impresora.c ****     *  register read.
 475:.\Generated_Source\PSoC5/Impresora.c ****     *
 476:.\Generated_Source\PSoC5/Impresora.c ****     * Global Variables:
 477:.\Generated_Source\PSoC5/Impresora.c ****     *  Impresora_rxBufferOverflow - used to indicate overload condition.
 478:.\Generated_Source\PSoC5/Impresora.c ****     *   It set to one in RX interrupt when there isn't free space in
 479:.\Generated_Source\PSoC5/Impresora.c ****     *   Impresora_rxBufferRead to write new data. This condition returned
 480:.\Generated_Source\PSoC5/Impresora.c ****     *   and cleared to zero by this API as an
 481:.\Generated_Source\PSoC5/Impresora.c ****     *   Impresora_RX_STS_SOFT_BUFF_OVER bit along with RX Status register
 482:.\Generated_Source\PSoC5/Impresora.c ****     *   bits.
 483:.\Generated_Source\PSoC5/Impresora.c ****     *
 484:.\Generated_Source\PSoC5/Impresora.c ****     *******************************************************************************/
 485:.\Generated_Source\PSoC5/Impresora.c ****     uint8 Impresora_ReadRxStatus(void) 
 486:.\Generated_Source\PSoC5/Impresora.c ****     {
 536              		.loc 1 486 0
 537              		.cfi_startproc
 538              		@ args = 0, pretend = 0, frame = 8
 539              		@ frame_needed = 1, uses_anonymous_args = 0
ARM GAS  C:\Users\RECEPC~1\AppData\Local\Temp\ccU3VU2d.s 			page 19


 540              		@ link register save eliminated.
 541 0000 80B4     		push	{r7}
 542              		.cfi_def_cfa_offset 4
 543              		.cfi_offset 7, -4
 544 0002 83B0     		sub	sp, sp, #12
 545              		.cfi_def_cfa_offset 16
 546 0004 00AF     		add	r7, sp, #0
 547              		.cfi_def_cfa_register 7
 487:.\Generated_Source\PSoC5/Impresora.c ****         uint8 status;
 488:.\Generated_Source\PSoC5/Impresora.c **** 
 489:.\Generated_Source\PSoC5/Impresora.c ****         status = Impresora_RXSTATUS_REG & Impresora_RX_HW_MASK;
 548              		.loc 1 489 0
 549 0006 0C4B     		ldr	r3, .L32
 550 0008 1B78     		ldrb	r3, [r3]
 551 000a DBB2     		uxtb	r3, r3
 552 000c 03F07F03 		and	r3, r3, #127
 553 0010 FB71     		strb	r3, [r7, #7]
 490:.\Generated_Source\PSoC5/Impresora.c **** 
 491:.\Generated_Source\PSoC5/Impresora.c ****     #if (Impresora_RX_INTERRUPT_ENABLED)
 492:.\Generated_Source\PSoC5/Impresora.c ****         if(Impresora_rxBufferOverflow != 0u)
 554              		.loc 1 492 0
 555 0012 0A4B     		ldr	r3, .L32+4
 556 0014 1B78     		ldrb	r3, [r3]
 557 0016 DBB2     		uxtb	r3, r3
 558 0018 002B     		cmp	r3, #0
 559 001a 06D0     		beq	.L30
 493:.\Generated_Source\PSoC5/Impresora.c ****         {
 494:.\Generated_Source\PSoC5/Impresora.c ****             status |= Impresora_RX_STS_SOFT_BUFF_OVER;
 560              		.loc 1 494 0
 561 001c FB79     		ldrb	r3, [r7, #7]
 562 001e 63F07F03 		orn	r3, r3, #127
 563 0022 FB71     		strb	r3, [r7, #7]
 495:.\Generated_Source\PSoC5/Impresora.c ****             Impresora_rxBufferOverflow = 0u;
 564              		.loc 1 495 0
 565 0024 054B     		ldr	r3, .L32+4
 566 0026 0022     		movs	r2, #0
 567 0028 1A70     		strb	r2, [r3]
 568              	.L30:
 496:.\Generated_Source\PSoC5/Impresora.c ****         }
 497:.\Generated_Source\PSoC5/Impresora.c ****     #endif /* (Impresora_RX_INTERRUPT_ENABLED) */
 498:.\Generated_Source\PSoC5/Impresora.c **** 
 499:.\Generated_Source\PSoC5/Impresora.c ****         return(status);
 569              		.loc 1 499 0
 570 002a FB79     		ldrb	r3, [r7, #7]	@ zero_extendqisi2
 500:.\Generated_Source\PSoC5/Impresora.c ****     }
 571              		.loc 1 500 0
 572 002c 1846     		mov	r0, r3
 573 002e 0C37     		adds	r7, r7, #12
 574              		.cfi_def_cfa_offset 4
 575 0030 BD46     		mov	sp, r7
 576              		.cfi_def_cfa_register 13
 577              		@ sp needed
 578 0032 5DF8047B 		ldr	r7, [sp], #4
 579              		.cfi_restore 7
 580              		.cfi_def_cfa_offset 0
 581 0036 7047     		bx	lr
 582              	.L33:
ARM GAS  C:\Users\RECEPC~1\AppData\Local\Temp\ccU3VU2d.s 			page 20


 583              		.align	2
 584              	.L32:
 585 0038 66650040 		.word	1073767782
 586 003c 00000000 		.word	Impresora_rxBufferOverflow
 587              		.cfi_endproc
 588              	.LFE8:
 589              		.size	Impresora_ReadRxStatus, .-Impresora_ReadRxStatus
 590              		.section	.text.Impresora_GetChar,"ax",%progbits
 591              		.align	2
 592              		.global	Impresora_GetChar
 593              		.thumb
 594              		.thumb_func
 595              		.type	Impresora_GetChar, %function
 596              	Impresora_GetChar:
 597              	.LFB9:
 501:.\Generated_Source\PSoC5/Impresora.c **** 
 502:.\Generated_Source\PSoC5/Impresora.c **** 
 503:.\Generated_Source\PSoC5/Impresora.c ****     /*******************************************************************************
 504:.\Generated_Source\PSoC5/Impresora.c ****     * Function Name: Impresora_GetChar
 505:.\Generated_Source\PSoC5/Impresora.c ****     ********************************************************************************
 506:.\Generated_Source\PSoC5/Impresora.c ****     *
 507:.\Generated_Source\PSoC5/Impresora.c ****     * Summary:
 508:.\Generated_Source\PSoC5/Impresora.c ****     *  Returns the last received byte of data. Impresora_GetChar() is
 509:.\Generated_Source\PSoC5/Impresora.c ****     *  designed for ASCII characters and returns a uint8 where 1 to 255 are values
 510:.\Generated_Source\PSoC5/Impresora.c ****     *  for valid characters and 0 indicates an error occurred or no data is present.
 511:.\Generated_Source\PSoC5/Impresora.c ****     *
 512:.\Generated_Source\PSoC5/Impresora.c ****     * Parameters:
 513:.\Generated_Source\PSoC5/Impresora.c ****     *  None.
 514:.\Generated_Source\PSoC5/Impresora.c ****     *
 515:.\Generated_Source\PSoC5/Impresora.c ****     * Return:
 516:.\Generated_Source\PSoC5/Impresora.c ****     *  Character read from UART RX buffer. ASCII characters from 1 to 255 are valid.
 517:.\Generated_Source\PSoC5/Impresora.c ****     *  A returned zero signifies an error condition or no data available.
 518:.\Generated_Source\PSoC5/Impresora.c ****     *
 519:.\Generated_Source\PSoC5/Impresora.c ****     * Global Variables:
 520:.\Generated_Source\PSoC5/Impresora.c ****     *  Impresora_rxBuffer - RAM buffer pointer for save received data.
 521:.\Generated_Source\PSoC5/Impresora.c ****     *  Impresora_rxBufferWrite - cyclic index for write to rxBuffer,
 522:.\Generated_Source\PSoC5/Impresora.c ****     *     checked to identify new data.
 523:.\Generated_Source\PSoC5/Impresora.c ****     *  Impresora_rxBufferRead - cyclic index for read from rxBuffer,
 524:.\Generated_Source\PSoC5/Impresora.c ****     *     incremented after each byte has been read from buffer.
 525:.\Generated_Source\PSoC5/Impresora.c ****     *  Impresora_rxBufferLoopDetect - cleared if loop condition was detected
 526:.\Generated_Source\PSoC5/Impresora.c ****     *     in RX ISR.
 527:.\Generated_Source\PSoC5/Impresora.c ****     *
 528:.\Generated_Source\PSoC5/Impresora.c ****     * Reentrant:
 529:.\Generated_Source\PSoC5/Impresora.c ****     *  No.
 530:.\Generated_Source\PSoC5/Impresora.c ****     *
 531:.\Generated_Source\PSoC5/Impresora.c ****     *******************************************************************************/
 532:.\Generated_Source\PSoC5/Impresora.c ****     uint8 Impresora_GetChar(void) 
 533:.\Generated_Source\PSoC5/Impresora.c ****     {
 598              		.loc 1 533 0
 599              		.cfi_startproc
 600              		@ args = 0, pretend = 0, frame = 8
 601              		@ frame_needed = 1, uses_anonymous_args = 0
 602              		@ link register save eliminated.
 603 0000 80B4     		push	{r7}
 604              		.cfi_def_cfa_offset 4
 605              		.cfi_offset 7, -4
 606 0002 83B0     		sub	sp, sp, #12
ARM GAS  C:\Users\RECEPC~1\AppData\Local\Temp\ccU3VU2d.s 			page 21


 607              		.cfi_def_cfa_offset 16
 608 0004 00AF     		add	r7, sp, #0
 609              		.cfi_def_cfa_register 7
 534:.\Generated_Source\PSoC5/Impresora.c ****         uint8 rxData = 0u;
 610              		.loc 1 534 0
 611 0006 0023     		movs	r3, #0
 612 0008 FB71     		strb	r3, [r7, #7]
 535:.\Generated_Source\PSoC5/Impresora.c ****         uint8 rxStatus;
 536:.\Generated_Source\PSoC5/Impresora.c **** 
 537:.\Generated_Source\PSoC5/Impresora.c ****     #if (Impresora_RX_INTERRUPT_ENABLED)
 538:.\Generated_Source\PSoC5/Impresora.c ****         uint8 locRxBufferRead;
 539:.\Generated_Source\PSoC5/Impresora.c ****         uint8 locRxBufferWrite;
 540:.\Generated_Source\PSoC5/Impresora.c **** 
 541:.\Generated_Source\PSoC5/Impresora.c ****         /* Protect variables that could change on interrupt */
 542:.\Generated_Source\PSoC5/Impresora.c ****         Impresora_DisableRxInt();
 613              		.loc 1 542 0
 614 000a 234B     		ldr	r3, .L41
 615 000c 0122     		movs	r2, #1
 616 000e 1A60     		str	r2, [r3]
 543:.\Generated_Source\PSoC5/Impresora.c **** 
 544:.\Generated_Source\PSoC5/Impresora.c ****         locRxBufferRead  = Impresora_rxBufferRead;
 617              		.loc 1 544 0
 618 0010 224B     		ldr	r3, .L41+4
 619 0012 1B78     		ldrb	r3, [r3]
 620 0014 BB71     		strb	r3, [r7, #6]
 545:.\Generated_Source\PSoC5/Impresora.c ****         locRxBufferWrite = Impresora_rxBufferWrite;
 621              		.loc 1 545 0
 622 0016 224B     		ldr	r3, .L41+8
 623 0018 1B78     		ldrb	r3, [r3]
 624 001a 7B71     		strb	r3, [r7, #5]
 546:.\Generated_Source\PSoC5/Impresora.c **** 
 547:.\Generated_Source\PSoC5/Impresora.c ****         if( (Impresora_rxBufferLoopDetect != 0u) || (locRxBufferRead != locRxBufferWrite) )
 625              		.loc 1 547 0
 626 001c 214B     		ldr	r3, .L41+12
 627 001e 1B78     		ldrb	r3, [r3]
 628 0020 DBB2     		uxtb	r3, r3
 629 0022 002B     		cmp	r3, #0
 630 0024 03D1     		bne	.L35
 631              		.loc 1 547 0 is_stmt 0 discriminator 1
 632 0026 BA79     		ldrb	r2, [r7, #6]	@ zero_extendqisi2
 633 0028 7B79     		ldrb	r3, [r7, #5]	@ zero_extendqisi2
 634 002a 9A42     		cmp	r2, r3
 635 002c 18D0     		beq	.L36
 636              	.L35:
 548:.\Generated_Source\PSoC5/Impresora.c ****         {
 549:.\Generated_Source\PSoC5/Impresora.c ****             rxData = Impresora_rxBuffer[locRxBufferRead];
 637              		.loc 1 549 0 is_stmt 1
 638 002e BB79     		ldrb	r3, [r7, #6]	@ zero_extendqisi2
 639 0030 1D4A     		ldr	r2, .L41+16
 640 0032 D35C     		ldrb	r3, [r2, r3]
 641 0034 FB71     		strb	r3, [r7, #7]
 550:.\Generated_Source\PSoC5/Impresora.c ****             locRxBufferRead++;
 642              		.loc 1 550 0
 643 0036 BB79     		ldrb	r3, [r7, #6]	@ zero_extendqisi2
 644 0038 0133     		adds	r3, r3, #1
 645 003a BB71     		strb	r3, [r7, #6]
 551:.\Generated_Source\PSoC5/Impresora.c ****             if(locRxBufferRead >= Impresora_RX_BUFFER_SIZE)
ARM GAS  C:\Users\RECEPC~1\AppData\Local\Temp\ccU3VU2d.s 			page 22


 646              		.loc 1 551 0
 647 003c BB79     		ldrb	r3, [r7, #6]	@ zero_extendqisi2
 648 003e C72B     		cmp	r3, #199
 649 0040 01D9     		bls	.L37
 552:.\Generated_Source\PSoC5/Impresora.c ****             {
 553:.\Generated_Source\PSoC5/Impresora.c ****                 locRxBufferRead = 0u;
 650              		.loc 1 553 0
 651 0042 0023     		movs	r3, #0
 652 0044 BB71     		strb	r3, [r7, #6]
 653              	.L37:
 554:.\Generated_Source\PSoC5/Impresora.c ****             }
 555:.\Generated_Source\PSoC5/Impresora.c ****             /* Update the real pointer */
 556:.\Generated_Source\PSoC5/Impresora.c ****             Impresora_rxBufferRead = locRxBufferRead;
 654              		.loc 1 556 0
 655 0046 154A     		ldr	r2, .L41+4
 656 0048 BB79     		ldrb	r3, [r7, #6]
 657 004a 1370     		strb	r3, [r2]
 557:.\Generated_Source\PSoC5/Impresora.c **** 
 558:.\Generated_Source\PSoC5/Impresora.c ****             if(Impresora_rxBufferLoopDetect != 0u)
 658              		.loc 1 558 0
 659 004c 154B     		ldr	r3, .L41+12
 660 004e 1B78     		ldrb	r3, [r3]
 661 0050 DBB2     		uxtb	r3, r3
 662 0052 002B     		cmp	r3, #0
 663 0054 03D0     		beq	.L38
 559:.\Generated_Source\PSoC5/Impresora.c ****             {
 560:.\Generated_Source\PSoC5/Impresora.c ****                 Impresora_rxBufferLoopDetect = 0u;
 664              		.loc 1 560 0
 665 0056 134B     		ldr	r3, .L41+12
 666 0058 0022     		movs	r2, #0
 667 005a 1A70     		strb	r2, [r3]
 558:.\Generated_Source\PSoC5/Impresora.c ****             {
 668              		.loc 1 558 0
 669 005c 12E0     		b	.L39
 670              	.L38:
 671 005e 11E0     		b	.L39
 672              	.L36:
 561:.\Generated_Source\PSoC5/Impresora.c ****                 #if( (Impresora_RX_INTERRUPT_ENABLED) && (Impresora_FLOW_CONTROL != 0u) )
 562:.\Generated_Source\PSoC5/Impresora.c ****                     /* When Hardware Flow Control selected - return RX mask */
 563:.\Generated_Source\PSoC5/Impresora.c ****                     #if( Impresora_HD_ENABLED )
 564:.\Generated_Source\PSoC5/Impresora.c ****                         if((Impresora_CONTROL_REG & Impresora_CTRL_HD_SEND) == 0u)
 565:.\Generated_Source\PSoC5/Impresora.c ****                         {   /* In Half duplex mode return RX mask only if
 566:.\Generated_Source\PSoC5/Impresora.c ****                             *  RX configuration set, otherwise
 567:.\Generated_Source\PSoC5/Impresora.c ****                             *  mask will be returned in LoadRxConfig() API.
 568:.\Generated_Source\PSoC5/Impresora.c ****                             */
 569:.\Generated_Source\PSoC5/Impresora.c ****                             Impresora_RXSTATUS_MASK_REG |= Impresora_RX_STS_FIFO_NOTEMPTY;
 570:.\Generated_Source\PSoC5/Impresora.c ****                         }
 571:.\Generated_Source\PSoC5/Impresora.c ****                     #else
 572:.\Generated_Source\PSoC5/Impresora.c ****                         Impresora_RXSTATUS_MASK_REG |= Impresora_RX_STS_FIFO_NOTEMPTY;
 573:.\Generated_Source\PSoC5/Impresora.c ****                     #endif /* end Impresora_HD_ENABLED */
 574:.\Generated_Source\PSoC5/Impresora.c ****                 #endif /* Impresora_RX_INTERRUPT_ENABLED and Hardware flow control*/
 575:.\Generated_Source\PSoC5/Impresora.c ****             }
 576:.\Generated_Source\PSoC5/Impresora.c **** 
 577:.\Generated_Source\PSoC5/Impresora.c ****         }
 578:.\Generated_Source\PSoC5/Impresora.c ****         else
 579:.\Generated_Source\PSoC5/Impresora.c ****         {   rxStatus = Impresora_RXSTATUS_REG;
 673              		.loc 1 579 0
ARM GAS  C:\Users\RECEPC~1\AppData\Local\Temp\ccU3VU2d.s 			page 23


 674 0060 124B     		ldr	r3, .L41+20
 675 0062 1B78     		ldrb	r3, [r3]
 676 0064 3B71     		strb	r3, [r7, #4]
 580:.\Generated_Source\PSoC5/Impresora.c ****             if((rxStatus & Impresora_RX_STS_FIFO_NOTEMPTY) != 0u)
 677              		.loc 1 580 0
 678 0066 3B79     		ldrb	r3, [r7, #4]	@ zero_extendqisi2
 679 0068 03F02003 		and	r3, r3, #32
 680 006c 002B     		cmp	r3, #0
 681 006e 09D0     		beq	.L39
 581:.\Generated_Source\PSoC5/Impresora.c ****             {   /* Read received data from FIFO */
 582:.\Generated_Source\PSoC5/Impresora.c ****                 rxData = Impresora_RXDATA_REG;
 682              		.loc 1 582 0
 683 0070 0F4B     		ldr	r3, .L41+24
 684 0072 1B78     		ldrb	r3, [r3]
 685 0074 FB71     		strb	r3, [r7, #7]
 583:.\Generated_Source\PSoC5/Impresora.c ****                 /*Check status on error*/
 584:.\Generated_Source\PSoC5/Impresora.c ****                 if((rxStatus & (Impresora_RX_STS_BREAK | Impresora_RX_STS_PAR_ERROR |
 585:.\Generated_Source\PSoC5/Impresora.c ****                                 Impresora_RX_STS_STOP_ERROR | Impresora_RX_STS_OVERRUN)) != 0u)
 686              		.loc 1 585 0
 687 0076 3B79     		ldrb	r3, [r7, #4]	@ zero_extendqisi2
 688 0078 03F01E03 		and	r3, r3, #30
 584:.\Generated_Source\PSoC5/Impresora.c ****                                 Impresora_RX_STS_STOP_ERROR | Impresora_RX_STS_OVERRUN)) != 0u)
 689              		.loc 1 584 0
 690 007c 002B     		cmp	r3, #0
 691 007e 01D0     		beq	.L39
 586:.\Generated_Source\PSoC5/Impresora.c ****                 {
 587:.\Generated_Source\PSoC5/Impresora.c ****                     rxData = 0u;
 692              		.loc 1 587 0
 693 0080 0023     		movs	r3, #0
 694 0082 FB71     		strb	r3, [r7, #7]
 695              	.L39:
 588:.\Generated_Source\PSoC5/Impresora.c ****                 }
 589:.\Generated_Source\PSoC5/Impresora.c ****             }
 590:.\Generated_Source\PSoC5/Impresora.c ****         }
 591:.\Generated_Source\PSoC5/Impresora.c **** 
 592:.\Generated_Source\PSoC5/Impresora.c ****         Impresora_EnableRxInt();
 696              		.loc 1 592 0
 697 0084 0B4B     		ldr	r3, .L41+28
 698 0086 0122     		movs	r2, #1
 699 0088 1A60     		str	r2, [r3]
 593:.\Generated_Source\PSoC5/Impresora.c **** 
 594:.\Generated_Source\PSoC5/Impresora.c ****     #else
 595:.\Generated_Source\PSoC5/Impresora.c **** 
 596:.\Generated_Source\PSoC5/Impresora.c ****         rxStatus =Impresora_RXSTATUS_REG;
 597:.\Generated_Source\PSoC5/Impresora.c ****         if((rxStatus & Impresora_RX_STS_FIFO_NOTEMPTY) != 0u)
 598:.\Generated_Source\PSoC5/Impresora.c ****         {
 599:.\Generated_Source\PSoC5/Impresora.c ****             /* Read received data from FIFO */
 600:.\Generated_Source\PSoC5/Impresora.c ****             rxData = Impresora_RXDATA_REG;
 601:.\Generated_Source\PSoC5/Impresora.c **** 
 602:.\Generated_Source\PSoC5/Impresora.c ****             /*Check status on error*/
 603:.\Generated_Source\PSoC5/Impresora.c ****             if((rxStatus & (Impresora_RX_STS_BREAK | Impresora_RX_STS_PAR_ERROR |
 604:.\Generated_Source\PSoC5/Impresora.c ****                             Impresora_RX_STS_STOP_ERROR | Impresora_RX_STS_OVERRUN)) != 0u)
 605:.\Generated_Source\PSoC5/Impresora.c ****             {
 606:.\Generated_Source\PSoC5/Impresora.c ****                 rxData = 0u;
 607:.\Generated_Source\PSoC5/Impresora.c ****             }
 608:.\Generated_Source\PSoC5/Impresora.c ****         }
 609:.\Generated_Source\PSoC5/Impresora.c ****     #endif /* (Impresora_RX_INTERRUPT_ENABLED) */
ARM GAS  C:\Users\RECEPC~1\AppData\Local\Temp\ccU3VU2d.s 			page 24


 610:.\Generated_Source\PSoC5/Impresora.c **** 
 611:.\Generated_Source\PSoC5/Impresora.c ****         return(rxData);
 700              		.loc 1 611 0
 701 008a FB79     		ldrb	r3, [r7, #7]	@ zero_extendqisi2
 612:.\Generated_Source\PSoC5/Impresora.c ****     }
 702              		.loc 1 612 0
 703 008c 1846     		mov	r0, r3
 704 008e 0C37     		adds	r7, r7, #12
 705              		.cfi_def_cfa_offset 4
 706 0090 BD46     		mov	sp, r7
 707              		.cfi_def_cfa_register 13
 708              		@ sp needed
 709 0092 5DF8047B 		ldr	r7, [sp], #4
 710              		.cfi_restore 7
 711              		.cfi_def_cfa_offset 0
 712 0096 7047     		bx	lr
 713              	.L42:
 714              		.align	2
 715              	.L41:
 716 0098 80E100E0 		.word	-536813184
 717 009c 00000000 		.word	Impresora_rxBufferRead
 718 00a0 00000000 		.word	Impresora_rxBufferWrite
 719 00a4 00000000 		.word	Impresora_rxBufferLoopDetect
 720 00a8 00000000 		.word	Impresora_rxBuffer
 721 00ac 66650040 		.word	1073767782
 722 00b0 47640040 		.word	1073767495
 723 00b4 00E100E0 		.word	-536813312
 724              		.cfi_endproc
 725              	.LFE9:
 726              		.size	Impresora_GetChar, .-Impresora_GetChar
 727              		.section	.text.Impresora_GetByte,"ax",%progbits
 728              		.align	2
 729              		.global	Impresora_GetByte
 730              		.thumb
 731              		.thumb_func
 732              		.type	Impresora_GetByte, %function
 733              	Impresora_GetByte:
 734              	.LFB10:
 613:.\Generated_Source\PSoC5/Impresora.c **** 
 614:.\Generated_Source\PSoC5/Impresora.c **** 
 615:.\Generated_Source\PSoC5/Impresora.c ****     /*******************************************************************************
 616:.\Generated_Source\PSoC5/Impresora.c ****     * Function Name: Impresora_GetByte
 617:.\Generated_Source\PSoC5/Impresora.c ****     ********************************************************************************
 618:.\Generated_Source\PSoC5/Impresora.c ****     *
 619:.\Generated_Source\PSoC5/Impresora.c ****     * Summary:
 620:.\Generated_Source\PSoC5/Impresora.c ****     *  Reads UART RX buffer immediately, returns received character and error
 621:.\Generated_Source\PSoC5/Impresora.c ****     *  condition.
 622:.\Generated_Source\PSoC5/Impresora.c ****     *
 623:.\Generated_Source\PSoC5/Impresora.c ****     * Parameters:
 624:.\Generated_Source\PSoC5/Impresora.c ****     *  None.
 625:.\Generated_Source\PSoC5/Impresora.c ****     *
 626:.\Generated_Source\PSoC5/Impresora.c ****     * Return:
 627:.\Generated_Source\PSoC5/Impresora.c ****     *  MSB contains status and LSB contains UART RX data. If the MSB is nonzero,
 628:.\Generated_Source\PSoC5/Impresora.c ****     *  an error has occurred.
 629:.\Generated_Source\PSoC5/Impresora.c ****     *
 630:.\Generated_Source\PSoC5/Impresora.c ****     * Reentrant:
 631:.\Generated_Source\PSoC5/Impresora.c ****     *  No.
ARM GAS  C:\Users\RECEPC~1\AppData\Local\Temp\ccU3VU2d.s 			page 25


 632:.\Generated_Source\PSoC5/Impresora.c ****     *
 633:.\Generated_Source\PSoC5/Impresora.c ****     *******************************************************************************/
 634:.\Generated_Source\PSoC5/Impresora.c ****     uint16 Impresora_GetByte(void) 
 635:.\Generated_Source\PSoC5/Impresora.c ****     {
 735              		.loc 1 635 0
 736              		.cfi_startproc
 737              		@ args = 0, pretend = 0, frame = 8
 738              		@ frame_needed = 1, uses_anonymous_args = 0
 739 0000 90B5     		push	{r4, r7, lr}
 740              		.cfi_def_cfa_offset 12
 741              		.cfi_offset 4, -12
 742              		.cfi_offset 7, -8
 743              		.cfi_offset 14, -4
 744 0002 83B0     		sub	sp, sp, #12
 745              		.cfi_def_cfa_offset 24
 746 0004 00AF     		add	r7, sp, #0
 747              		.cfi_def_cfa_register 7
 636:.\Generated_Source\PSoC5/Impresora.c ****         
 637:.\Generated_Source\PSoC5/Impresora.c ****     #if (Impresora_RX_INTERRUPT_ENABLED)
 638:.\Generated_Source\PSoC5/Impresora.c ****         uint16 locErrorStatus;
 639:.\Generated_Source\PSoC5/Impresora.c ****         /* Protect variables that could change on interrupt */
 640:.\Generated_Source\PSoC5/Impresora.c ****         Impresora_DisableRxInt();
 748              		.loc 1 640 0
 749 0006 0C4B     		ldr	r3, .L45
 750 0008 0122     		movs	r2, #1
 751 000a 1A60     		str	r2, [r3]
 641:.\Generated_Source\PSoC5/Impresora.c ****         locErrorStatus = (uint16)Impresora_errorStatus;
 752              		.loc 1 641 0
 753 000c 0B4B     		ldr	r3, .L45+4
 754 000e 1B78     		ldrb	r3, [r3]	@ zero_extendqisi2
 755 0010 FB80     		strh	r3, [r7, #6]	@ movhi
 642:.\Generated_Source\PSoC5/Impresora.c ****         Impresora_errorStatus = 0u;
 756              		.loc 1 642 0
 757 0012 0A4B     		ldr	r3, .L45+4
 758 0014 0022     		movs	r2, #0
 759 0016 1A70     		strb	r2, [r3]
 643:.\Generated_Source\PSoC5/Impresora.c ****         Impresora_EnableRxInt();
 760              		.loc 1 643 0
 761 0018 094B     		ldr	r3, .L45+8
 762 001a 0122     		movs	r2, #1
 763 001c 1A60     		str	r2, [r3]
 644:.\Generated_Source\PSoC5/Impresora.c ****         return ( (uint16)(locErrorStatus << 8u) | Impresora_ReadRxData() );
 764              		.loc 1 644 0
 765 001e FB88     		ldrh	r3, [r7, #6]	@ movhi
 766 0020 1B02     		lsls	r3, r3, #8
 767 0022 9CB2     		uxth	r4, r3
 768 0024 FFF7FEFF 		bl	Impresora_ReadRxData
 769 0028 0346     		mov	r3, r0
 770 002a 9BB2     		uxth	r3, r3
 771 002c 2343     		orrs	r3, r3, r4
 772 002e 9BB2     		uxth	r3, r3
 645:.\Generated_Source\PSoC5/Impresora.c ****     #else
 646:.\Generated_Source\PSoC5/Impresora.c ****         return ( ((uint16)Impresora_ReadRxStatus() << 8u) | Impresora_ReadRxData() );
 647:.\Generated_Source\PSoC5/Impresora.c ****     #endif /* Impresora_RX_INTERRUPT_ENABLED */
 648:.\Generated_Source\PSoC5/Impresora.c ****         
 649:.\Generated_Source\PSoC5/Impresora.c ****     }
 773              		.loc 1 649 0
ARM GAS  C:\Users\RECEPC~1\AppData\Local\Temp\ccU3VU2d.s 			page 26


 774 0030 1846     		mov	r0, r3
 775 0032 0C37     		adds	r7, r7, #12
 776              		.cfi_def_cfa_offset 12
 777 0034 BD46     		mov	sp, r7
 778              		.cfi_def_cfa_register 13
 779              		@ sp needed
 780 0036 90BD     		pop	{r4, r7, pc}
 781              	.L46:
 782              		.align	2
 783              	.L45:
 784 0038 80E100E0 		.word	-536813184
 785 003c 00000000 		.word	Impresora_errorStatus
 786 0040 00E100E0 		.word	-536813312
 787              		.cfi_endproc
 788              	.LFE10:
 789              		.size	Impresora_GetByte, .-Impresora_GetByte
 790              		.section	.text.Impresora_GetRxBufferSize,"ax",%progbits
 791              		.align	2
 792              		.global	Impresora_GetRxBufferSize
 793              		.thumb
 794              		.thumb_func
 795              		.type	Impresora_GetRxBufferSize, %function
 796              	Impresora_GetRxBufferSize:
 797              	.LFB11:
 650:.\Generated_Source\PSoC5/Impresora.c **** 
 651:.\Generated_Source\PSoC5/Impresora.c **** 
 652:.\Generated_Source\PSoC5/Impresora.c ****     /*******************************************************************************
 653:.\Generated_Source\PSoC5/Impresora.c ****     * Function Name: Impresora_GetRxBufferSize
 654:.\Generated_Source\PSoC5/Impresora.c ****     ********************************************************************************
 655:.\Generated_Source\PSoC5/Impresora.c ****     *
 656:.\Generated_Source\PSoC5/Impresora.c ****     * Summary:
 657:.\Generated_Source\PSoC5/Impresora.c ****     *  Returns the number of received bytes available in the RX buffer.
 658:.\Generated_Source\PSoC5/Impresora.c ****     *  * RX software buffer is disabled (RX Buffer Size parameter is equal to 4): 
 659:.\Generated_Source\PSoC5/Impresora.c ****     *    returns 0 for empty RX FIFO or 1 for not empty RX FIFO.
 660:.\Generated_Source\PSoC5/Impresora.c ****     *  * RX software buffer is enabled: returns the number of bytes available in 
 661:.\Generated_Source\PSoC5/Impresora.c ****     *    the RX software buffer. Bytes available in the RX FIFO do not take to 
 662:.\Generated_Source\PSoC5/Impresora.c ****     *    account.
 663:.\Generated_Source\PSoC5/Impresora.c ****     *
 664:.\Generated_Source\PSoC5/Impresora.c ****     * Parameters:
 665:.\Generated_Source\PSoC5/Impresora.c ****     *  None.
 666:.\Generated_Source\PSoC5/Impresora.c ****     *
 667:.\Generated_Source\PSoC5/Impresora.c ****     * Return:
 668:.\Generated_Source\PSoC5/Impresora.c ****     *  uint8: Number of bytes in the RX buffer. 
 669:.\Generated_Source\PSoC5/Impresora.c ****     *    Return value type depends on RX Buffer Size parameter.
 670:.\Generated_Source\PSoC5/Impresora.c ****     *
 671:.\Generated_Source\PSoC5/Impresora.c ****     * Global Variables:
 672:.\Generated_Source\PSoC5/Impresora.c ****     *  Impresora_rxBufferWrite - used to calculate left bytes.
 673:.\Generated_Source\PSoC5/Impresora.c ****     *  Impresora_rxBufferRead - used to calculate left bytes.
 674:.\Generated_Source\PSoC5/Impresora.c ****     *  Impresora_rxBufferLoopDetect - checked to decide left bytes amount.
 675:.\Generated_Source\PSoC5/Impresora.c ****     *
 676:.\Generated_Source\PSoC5/Impresora.c ****     * Reentrant:
 677:.\Generated_Source\PSoC5/Impresora.c ****     *  No.
 678:.\Generated_Source\PSoC5/Impresora.c ****     *
 679:.\Generated_Source\PSoC5/Impresora.c ****     * Theory:
 680:.\Generated_Source\PSoC5/Impresora.c ****     *  Allows the user to find out how full the RX Buffer is.
 681:.\Generated_Source\PSoC5/Impresora.c ****     *
 682:.\Generated_Source\PSoC5/Impresora.c ****     *******************************************************************************/
ARM GAS  C:\Users\RECEPC~1\AppData\Local\Temp\ccU3VU2d.s 			page 27


 683:.\Generated_Source\PSoC5/Impresora.c ****     uint8 Impresora_GetRxBufferSize(void)
 684:.\Generated_Source\PSoC5/Impresora.c ****                                                             
 685:.\Generated_Source\PSoC5/Impresora.c ****     {
 798              		.loc 1 685 0
 799              		.cfi_startproc
 800              		@ args = 0, pretend = 0, frame = 8
 801              		@ frame_needed = 1, uses_anonymous_args = 0
 802              		@ link register save eliminated.
 803 0000 80B4     		push	{r7}
 804              		.cfi_def_cfa_offset 4
 805              		.cfi_offset 7, -4
 806 0002 83B0     		sub	sp, sp, #12
 807              		.cfi_def_cfa_offset 16
 808 0004 00AF     		add	r7, sp, #0
 809              		.cfi_def_cfa_register 7
 686:.\Generated_Source\PSoC5/Impresora.c ****         uint8 size;
 687:.\Generated_Source\PSoC5/Impresora.c **** 
 688:.\Generated_Source\PSoC5/Impresora.c ****     #if (Impresora_RX_INTERRUPT_ENABLED)
 689:.\Generated_Source\PSoC5/Impresora.c **** 
 690:.\Generated_Source\PSoC5/Impresora.c ****         /* Protect variables that could change on interrupt */
 691:.\Generated_Source\PSoC5/Impresora.c ****         Impresora_DisableRxInt();
 810              		.loc 1 691 0
 811 0006 1D4B     		ldr	r3, .L54
 812 0008 0122     		movs	r2, #1
 813 000a 1A60     		str	r2, [r3]
 692:.\Generated_Source\PSoC5/Impresora.c **** 
 693:.\Generated_Source\PSoC5/Impresora.c ****         if(Impresora_rxBufferRead == Impresora_rxBufferWrite)
 814              		.loc 1 693 0
 815 000c 1C4B     		ldr	r3, .L54+4
 816 000e 1B78     		ldrb	r3, [r3]
 817 0010 DAB2     		uxtb	r2, r3
 818 0012 1C4B     		ldr	r3, .L54+8
 819 0014 1B78     		ldrb	r3, [r3]
 820 0016 DBB2     		uxtb	r3, r3
 821 0018 9A42     		cmp	r2, r3
 822 001a 0AD1     		bne	.L48
 694:.\Generated_Source\PSoC5/Impresora.c ****         {
 695:.\Generated_Source\PSoC5/Impresora.c ****             if(Impresora_rxBufferLoopDetect != 0u)
 823              		.loc 1 695 0
 824 001c 1A4B     		ldr	r3, .L54+12
 825 001e 1B78     		ldrb	r3, [r3]
 826 0020 DBB2     		uxtb	r3, r3
 827 0022 002B     		cmp	r3, #0
 828 0024 02D0     		beq	.L49
 696:.\Generated_Source\PSoC5/Impresora.c ****             {
 697:.\Generated_Source\PSoC5/Impresora.c ****                 size = Impresora_RX_BUFFER_SIZE;
 829              		.loc 1 697 0
 830 0026 C823     		movs	r3, #200
 831 0028 FB71     		strb	r3, [r7, #7]
 832 002a 1DE0     		b	.L51
 833              	.L49:
 698:.\Generated_Source\PSoC5/Impresora.c ****             }
 699:.\Generated_Source\PSoC5/Impresora.c ****             else
 700:.\Generated_Source\PSoC5/Impresora.c ****             {
 701:.\Generated_Source\PSoC5/Impresora.c ****                 size = 0u;
 834              		.loc 1 701 0
 835 002c 0023     		movs	r3, #0
ARM GAS  C:\Users\RECEPC~1\AppData\Local\Temp\ccU3VU2d.s 			page 28


 836 002e FB71     		strb	r3, [r7, #7]
 837 0030 1AE0     		b	.L51
 838              	.L48:
 702:.\Generated_Source\PSoC5/Impresora.c ****             }
 703:.\Generated_Source\PSoC5/Impresora.c ****         }
 704:.\Generated_Source\PSoC5/Impresora.c ****         else if(Impresora_rxBufferRead < Impresora_rxBufferWrite)
 839              		.loc 1 704 0
 840 0032 134B     		ldr	r3, .L54+4
 841 0034 1B78     		ldrb	r3, [r3]
 842 0036 DAB2     		uxtb	r2, r3
 843 0038 124B     		ldr	r3, .L54+8
 844 003a 1B78     		ldrb	r3, [r3]
 845 003c DBB2     		uxtb	r3, r3
 846 003e 9A42     		cmp	r2, r3
 847 0040 08D2     		bcs	.L52
 705:.\Generated_Source\PSoC5/Impresora.c ****         {
 706:.\Generated_Source\PSoC5/Impresora.c ****             size = (Impresora_rxBufferWrite - Impresora_rxBufferRead);
 848              		.loc 1 706 0
 849 0042 104B     		ldr	r3, .L54+8
 850 0044 1B78     		ldrb	r3, [r3]
 851 0046 DAB2     		uxtb	r2, r3
 852 0048 0D4B     		ldr	r3, .L54+4
 853 004a 1B78     		ldrb	r3, [r3]
 854 004c DBB2     		uxtb	r3, r3
 855 004e D31A     		subs	r3, r2, r3
 856 0050 FB71     		strb	r3, [r7, #7]
 857 0052 09E0     		b	.L51
 858              	.L52:
 707:.\Generated_Source\PSoC5/Impresora.c ****         }
 708:.\Generated_Source\PSoC5/Impresora.c ****         else
 709:.\Generated_Source\PSoC5/Impresora.c ****         {
 710:.\Generated_Source\PSoC5/Impresora.c ****             size = (Impresora_RX_BUFFER_SIZE - Impresora_rxBufferRead) + Impresora_rxBufferWrite;
 859              		.loc 1 710 0
 860 0054 0B4B     		ldr	r3, .L54+8
 861 0056 1B78     		ldrb	r3, [r3]
 862 0058 DAB2     		uxtb	r2, r3
 863 005a 094B     		ldr	r3, .L54+4
 864 005c 1B78     		ldrb	r3, [r3]
 865 005e DBB2     		uxtb	r3, r3
 866 0060 D31A     		subs	r3, r2, r3
 867 0062 DBB2     		uxtb	r3, r3
 868 0064 383B     		subs	r3, r3, #56
 869 0066 FB71     		strb	r3, [r7, #7]
 870              	.L51:
 711:.\Generated_Source\PSoC5/Impresora.c ****         }
 712:.\Generated_Source\PSoC5/Impresora.c **** 
 713:.\Generated_Source\PSoC5/Impresora.c ****         Impresora_EnableRxInt();
 871              		.loc 1 713 0
 872 0068 084B     		ldr	r3, .L54+16
 873 006a 0122     		movs	r2, #1
 874 006c 1A60     		str	r2, [r3]
 714:.\Generated_Source\PSoC5/Impresora.c **** 
 715:.\Generated_Source\PSoC5/Impresora.c ****     #else
 716:.\Generated_Source\PSoC5/Impresora.c **** 
 717:.\Generated_Source\PSoC5/Impresora.c ****         /* We can only know if there is data in the fifo. */
 718:.\Generated_Source\PSoC5/Impresora.c ****         size = ((Impresora_RXSTATUS_REG & Impresora_RX_STS_FIFO_NOTEMPTY) != 0u) ? 1u : 0u;
 719:.\Generated_Source\PSoC5/Impresora.c **** 
ARM GAS  C:\Users\RECEPC~1\AppData\Local\Temp\ccU3VU2d.s 			page 29


 720:.\Generated_Source\PSoC5/Impresora.c ****     #endif /* (Impresora_RX_INTERRUPT_ENABLED) */
 721:.\Generated_Source\PSoC5/Impresora.c **** 
 722:.\Generated_Source\PSoC5/Impresora.c ****         return(size);
 875              		.loc 1 722 0
 876 006e FB79     		ldrb	r3, [r7, #7]	@ zero_extendqisi2
 723:.\Generated_Source\PSoC5/Impresora.c ****     }
 877              		.loc 1 723 0
 878 0070 1846     		mov	r0, r3
 879 0072 0C37     		adds	r7, r7, #12
 880              		.cfi_def_cfa_offset 4
 881 0074 BD46     		mov	sp, r7
 882              		.cfi_def_cfa_register 13
 883              		@ sp needed
 884 0076 5DF8047B 		ldr	r7, [sp], #4
 885              		.cfi_restore 7
 886              		.cfi_def_cfa_offset 0
 887 007a 7047     		bx	lr
 888              	.L55:
 889              		.align	2
 890              	.L54:
 891 007c 80E100E0 		.word	-536813184
 892 0080 00000000 		.word	Impresora_rxBufferRead
 893 0084 00000000 		.word	Impresora_rxBufferWrite
 894 0088 00000000 		.word	Impresora_rxBufferLoopDetect
 895 008c 00E100E0 		.word	-536813312
 896              		.cfi_endproc
 897              	.LFE11:
 898              		.size	Impresora_GetRxBufferSize, .-Impresora_GetRxBufferSize
 899              		.section	.text.Impresora_ClearRxBuffer,"ax",%progbits
 900              		.align	2
 901              		.global	Impresora_ClearRxBuffer
 902              		.thumb
 903              		.thumb_func
 904              		.type	Impresora_ClearRxBuffer, %function
 905              	Impresora_ClearRxBuffer:
 906              	.LFB12:
 724:.\Generated_Source\PSoC5/Impresora.c **** 
 725:.\Generated_Source\PSoC5/Impresora.c **** 
 726:.\Generated_Source\PSoC5/Impresora.c ****     /*******************************************************************************
 727:.\Generated_Source\PSoC5/Impresora.c ****     * Function Name: Impresora_ClearRxBuffer
 728:.\Generated_Source\PSoC5/Impresora.c ****     ********************************************************************************
 729:.\Generated_Source\PSoC5/Impresora.c ****     *
 730:.\Generated_Source\PSoC5/Impresora.c ****     * Summary:
 731:.\Generated_Source\PSoC5/Impresora.c ****     *  Clears the receiver memory buffer and hardware RX FIFO of all received data.
 732:.\Generated_Source\PSoC5/Impresora.c ****     *
 733:.\Generated_Source\PSoC5/Impresora.c ****     * Parameters:
 734:.\Generated_Source\PSoC5/Impresora.c ****     *  None.
 735:.\Generated_Source\PSoC5/Impresora.c ****     *
 736:.\Generated_Source\PSoC5/Impresora.c ****     * Return:
 737:.\Generated_Source\PSoC5/Impresora.c ****     *  None.
 738:.\Generated_Source\PSoC5/Impresora.c ****     *
 739:.\Generated_Source\PSoC5/Impresora.c ****     * Global Variables:
 740:.\Generated_Source\PSoC5/Impresora.c ****     *  Impresora_rxBufferWrite - cleared to zero.
 741:.\Generated_Source\PSoC5/Impresora.c ****     *  Impresora_rxBufferRead - cleared to zero.
 742:.\Generated_Source\PSoC5/Impresora.c ****     *  Impresora_rxBufferLoopDetect - cleared to zero.
 743:.\Generated_Source\PSoC5/Impresora.c ****     *  Impresora_rxBufferOverflow - cleared to zero.
 744:.\Generated_Source\PSoC5/Impresora.c ****     *
ARM GAS  C:\Users\RECEPC~1\AppData\Local\Temp\ccU3VU2d.s 			page 30


 745:.\Generated_Source\PSoC5/Impresora.c ****     * Reentrant:
 746:.\Generated_Source\PSoC5/Impresora.c ****     *  No.
 747:.\Generated_Source\PSoC5/Impresora.c ****     *
 748:.\Generated_Source\PSoC5/Impresora.c ****     * Theory:
 749:.\Generated_Source\PSoC5/Impresora.c ****     *  Setting the pointers to zero makes the system believe there is no data to
 750:.\Generated_Source\PSoC5/Impresora.c ****     *  read and writing will resume at address 0 overwriting any data that may
 751:.\Generated_Source\PSoC5/Impresora.c ****     *  have remained in the RAM.
 752:.\Generated_Source\PSoC5/Impresora.c ****     *
 753:.\Generated_Source\PSoC5/Impresora.c ****     * Side Effects:
 754:.\Generated_Source\PSoC5/Impresora.c ****     *  Any received data not read from the RAM or FIFO buffer will be lost.
 755:.\Generated_Source\PSoC5/Impresora.c ****     *
 756:.\Generated_Source\PSoC5/Impresora.c ****     *******************************************************************************/
 757:.\Generated_Source\PSoC5/Impresora.c ****     void Impresora_ClearRxBuffer(void) 
 758:.\Generated_Source\PSoC5/Impresora.c ****     {
 907              		.loc 1 758 0
 908              		.cfi_startproc
 909              		@ args = 0, pretend = 0, frame = 8
 910              		@ frame_needed = 1, uses_anonymous_args = 0
 911 0000 80B5     		push	{r7, lr}
 912              		.cfi_def_cfa_offset 8
 913              		.cfi_offset 7, -8
 914              		.cfi_offset 14, -4
 915 0002 82B0     		sub	sp, sp, #8
 916              		.cfi_def_cfa_offset 16
 917 0004 00AF     		add	r7, sp, #0
 918              		.cfi_def_cfa_register 7
 759:.\Generated_Source\PSoC5/Impresora.c ****         uint8 enableInterrupts;
 760:.\Generated_Source\PSoC5/Impresora.c **** 
 761:.\Generated_Source\PSoC5/Impresora.c ****         /* Clear the HW FIFO */
 762:.\Generated_Source\PSoC5/Impresora.c ****         enableInterrupts = CyEnterCriticalSection();
 919              		.loc 1 762 0
 920 0006 FFF7FEFF 		bl	CyEnterCriticalSection
 921 000a 0346     		mov	r3, r0
 922 000c FB71     		strb	r3, [r7, #7]
 763:.\Generated_Source\PSoC5/Impresora.c ****         Impresora_RXDATA_AUX_CTL_REG |= (uint8)  Impresora_RX_FIFO_CLR;
 923              		.loc 1 763 0
 924 000e 144A     		ldr	r2, .L57
 925 0010 134B     		ldr	r3, .L57
 926 0012 1B78     		ldrb	r3, [r3]
 927 0014 DBB2     		uxtb	r3, r3
 928 0016 43F00103 		orr	r3, r3, #1
 929 001a DBB2     		uxtb	r3, r3
 930 001c 1370     		strb	r3, [r2]
 764:.\Generated_Source\PSoC5/Impresora.c ****         Impresora_RXDATA_AUX_CTL_REG &= (uint8) ~Impresora_RX_FIFO_CLR;
 931              		.loc 1 764 0
 932 001e 104A     		ldr	r2, .L57
 933 0020 0F4B     		ldr	r3, .L57
 934 0022 1B78     		ldrb	r3, [r3]
 935 0024 DBB2     		uxtb	r3, r3
 936 0026 23F00103 		bic	r3, r3, #1
 937 002a DBB2     		uxtb	r3, r3
 938 002c 1370     		strb	r3, [r2]
 765:.\Generated_Source\PSoC5/Impresora.c ****         CyExitCriticalSection(enableInterrupts);
 939              		.loc 1 765 0
 940 002e FB79     		ldrb	r3, [r7, #7]	@ zero_extendqisi2
 941 0030 1846     		mov	r0, r3
 942 0032 FFF7FEFF 		bl	CyExitCriticalSection
ARM GAS  C:\Users\RECEPC~1\AppData\Local\Temp\ccU3VU2d.s 			page 31


 766:.\Generated_Source\PSoC5/Impresora.c **** 
 767:.\Generated_Source\PSoC5/Impresora.c ****     #if (Impresora_RX_INTERRUPT_ENABLED)
 768:.\Generated_Source\PSoC5/Impresora.c **** 
 769:.\Generated_Source\PSoC5/Impresora.c ****         /* Protect variables that could change on interrupt. */
 770:.\Generated_Source\PSoC5/Impresora.c ****         Impresora_DisableRxInt();
 943              		.loc 1 770 0
 944 0036 0B4B     		ldr	r3, .L57+4
 945 0038 0122     		movs	r2, #1
 946 003a 1A60     		str	r2, [r3]
 771:.\Generated_Source\PSoC5/Impresora.c **** 
 772:.\Generated_Source\PSoC5/Impresora.c ****         Impresora_rxBufferRead = 0u;
 947              		.loc 1 772 0
 948 003c 0A4B     		ldr	r3, .L57+8
 949 003e 0022     		movs	r2, #0
 950 0040 1A70     		strb	r2, [r3]
 773:.\Generated_Source\PSoC5/Impresora.c ****         Impresora_rxBufferWrite = 0u;
 951              		.loc 1 773 0
 952 0042 0A4B     		ldr	r3, .L57+12
 953 0044 0022     		movs	r2, #0
 954 0046 1A70     		strb	r2, [r3]
 774:.\Generated_Source\PSoC5/Impresora.c ****         Impresora_rxBufferLoopDetect = 0u;
 955              		.loc 1 774 0
 956 0048 094B     		ldr	r3, .L57+16
 957 004a 0022     		movs	r2, #0
 958 004c 1A70     		strb	r2, [r3]
 775:.\Generated_Source\PSoC5/Impresora.c ****         Impresora_rxBufferOverflow = 0u;
 959              		.loc 1 775 0
 960 004e 094B     		ldr	r3, .L57+20
 961 0050 0022     		movs	r2, #0
 962 0052 1A70     		strb	r2, [r3]
 776:.\Generated_Source\PSoC5/Impresora.c **** 
 777:.\Generated_Source\PSoC5/Impresora.c ****         Impresora_EnableRxInt();
 963              		.loc 1 777 0
 964 0054 084B     		ldr	r3, .L57+24
 965 0056 0122     		movs	r2, #1
 966 0058 1A60     		str	r2, [r3]
 778:.\Generated_Source\PSoC5/Impresora.c **** 
 779:.\Generated_Source\PSoC5/Impresora.c ****     #endif /* (Impresora_RX_INTERRUPT_ENABLED) */
 780:.\Generated_Source\PSoC5/Impresora.c **** 
 781:.\Generated_Source\PSoC5/Impresora.c ****     }
 967              		.loc 1 781 0
 968 005a 0837     		adds	r7, r7, #8
 969              		.cfi_def_cfa_offset 8
 970 005c BD46     		mov	sp, r7
 971              		.cfi_def_cfa_register 13
 972              		@ sp needed
 973 005e 80BD     		pop	{r7, pc}
 974              	.L58:
 975              		.align	2
 976              	.L57:
 977 0060 97640040 		.word	1073767575
 978 0064 80E100E0 		.word	-536813184
 979 0068 00000000 		.word	Impresora_rxBufferRead
 980 006c 00000000 		.word	Impresora_rxBufferWrite
 981 0070 00000000 		.word	Impresora_rxBufferLoopDetect
 982 0074 00000000 		.word	Impresora_rxBufferOverflow
 983 0078 00E100E0 		.word	-536813312
ARM GAS  C:\Users\RECEPC~1\AppData\Local\Temp\ccU3VU2d.s 			page 32


 984              		.cfi_endproc
 985              	.LFE12:
 986              		.size	Impresora_ClearRxBuffer, .-Impresora_ClearRxBuffer
 987              		.section	.text.Impresora_SetRxAddressMode,"ax",%progbits
 988              		.align	2
 989              		.global	Impresora_SetRxAddressMode
 990              		.thumb
 991              		.thumb_func
 992              		.type	Impresora_SetRxAddressMode, %function
 993              	Impresora_SetRxAddressMode:
 994              	.LFB13:
 782:.\Generated_Source\PSoC5/Impresora.c **** 
 783:.\Generated_Source\PSoC5/Impresora.c **** 
 784:.\Generated_Source\PSoC5/Impresora.c ****     /*******************************************************************************
 785:.\Generated_Source\PSoC5/Impresora.c ****     * Function Name: Impresora_SetRxAddressMode
 786:.\Generated_Source\PSoC5/Impresora.c ****     ********************************************************************************
 787:.\Generated_Source\PSoC5/Impresora.c ****     *
 788:.\Generated_Source\PSoC5/Impresora.c ****     * Summary:
 789:.\Generated_Source\PSoC5/Impresora.c ****     *  Sets the software controlled Addressing mode used by the RX portion of the
 790:.\Generated_Source\PSoC5/Impresora.c ****     *  UART.
 791:.\Generated_Source\PSoC5/Impresora.c ****     *
 792:.\Generated_Source\PSoC5/Impresora.c ****     * Parameters:
 793:.\Generated_Source\PSoC5/Impresora.c ****     *  addressMode: Enumerated value indicating the mode of RX addressing
 794:.\Generated_Source\PSoC5/Impresora.c ****     *  Impresora__B_UART__AM_SW_BYTE_BYTE -  Software Byte-by-Byte address
 795:.\Generated_Source\PSoC5/Impresora.c ****     *                                               detection
 796:.\Generated_Source\PSoC5/Impresora.c ****     *  Impresora__B_UART__AM_SW_DETECT_TO_BUFFER - Software Detect to Buffer
 797:.\Generated_Source\PSoC5/Impresora.c ****     *                                               address detection
 798:.\Generated_Source\PSoC5/Impresora.c ****     *  Impresora__B_UART__AM_HW_BYTE_BY_BYTE - Hardware Byte-by-Byte address
 799:.\Generated_Source\PSoC5/Impresora.c ****     *                                               detection
 800:.\Generated_Source\PSoC5/Impresora.c ****     *  Impresora__B_UART__AM_HW_DETECT_TO_BUFFER - Hardware Detect to Buffer
 801:.\Generated_Source\PSoC5/Impresora.c ****     *                                               address detection
 802:.\Generated_Source\PSoC5/Impresora.c ****     *  Impresora__B_UART__AM_NONE - No address detection
 803:.\Generated_Source\PSoC5/Impresora.c ****     *
 804:.\Generated_Source\PSoC5/Impresora.c ****     * Return:
 805:.\Generated_Source\PSoC5/Impresora.c ****     *  None.
 806:.\Generated_Source\PSoC5/Impresora.c ****     *
 807:.\Generated_Source\PSoC5/Impresora.c ****     * Global Variables:
 808:.\Generated_Source\PSoC5/Impresora.c ****     *  Impresora_rxAddressMode - the parameter stored in this variable for
 809:.\Generated_Source\PSoC5/Impresora.c ****     *   the farther usage in RX ISR.
 810:.\Generated_Source\PSoC5/Impresora.c ****     *  Impresora_rxAddressDetected - set to initial state (0).
 811:.\Generated_Source\PSoC5/Impresora.c ****     *
 812:.\Generated_Source\PSoC5/Impresora.c ****     *******************************************************************************/
 813:.\Generated_Source\PSoC5/Impresora.c ****     void Impresora_SetRxAddressMode(uint8 addressMode)
 814:.\Generated_Source\PSoC5/Impresora.c ****                                                         
 815:.\Generated_Source\PSoC5/Impresora.c ****     {
 995              		.loc 1 815 0
 996              		.cfi_startproc
 997              		@ args = 0, pretend = 0, frame = 8
 998              		@ frame_needed = 1, uses_anonymous_args = 0
 999              		@ link register save eliminated.
 1000 0000 80B4     		push	{r7}
 1001              		.cfi_def_cfa_offset 4
 1002              		.cfi_offset 7, -4
 1003 0002 83B0     		sub	sp, sp, #12
 1004              		.cfi_def_cfa_offset 16
 1005 0004 00AF     		add	r7, sp, #0
 1006              		.cfi_def_cfa_register 7
ARM GAS  C:\Users\RECEPC~1\AppData\Local\Temp\ccU3VU2d.s 			page 33


 1007 0006 0346     		mov	r3, r0
 1008 0008 FB71     		strb	r3, [r7, #7]
 816:.\Generated_Source\PSoC5/Impresora.c ****         #if(Impresora_RXHW_ADDRESS_ENABLED)
 817:.\Generated_Source\PSoC5/Impresora.c ****             #if(Impresora_CONTROL_REG_REMOVED)
 818:.\Generated_Source\PSoC5/Impresora.c ****                 if(0u != addressMode)
 819:.\Generated_Source\PSoC5/Impresora.c ****                 {
 820:.\Generated_Source\PSoC5/Impresora.c ****                     /* Suppress compiler warning */
 821:.\Generated_Source\PSoC5/Impresora.c ****                 }
 822:.\Generated_Source\PSoC5/Impresora.c ****             #else /* Impresora_CONTROL_REG_REMOVED */
 823:.\Generated_Source\PSoC5/Impresora.c ****                 uint8 tmpCtrl;
 824:.\Generated_Source\PSoC5/Impresora.c ****                 tmpCtrl = Impresora_CONTROL_REG & (uint8)~Impresora_CTRL_RXADDR_MODE_MASK;
 825:.\Generated_Source\PSoC5/Impresora.c ****                 tmpCtrl |= (uint8)(addressMode << Impresora_CTRL_RXADDR_MODE0_SHIFT);
 826:.\Generated_Source\PSoC5/Impresora.c ****                 Impresora_CONTROL_REG = tmpCtrl;
 827:.\Generated_Source\PSoC5/Impresora.c **** 
 828:.\Generated_Source\PSoC5/Impresora.c ****                 #if(Impresora_RX_INTERRUPT_ENABLED && \
 829:.\Generated_Source\PSoC5/Impresora.c ****                    (Impresora_RXBUFFERSIZE > Impresora_FIFO_LENGTH) )
 830:.\Generated_Source\PSoC5/Impresora.c ****                     Impresora_rxAddressMode = addressMode;
 831:.\Generated_Source\PSoC5/Impresora.c ****                     Impresora_rxAddressDetected = 0u;
 832:.\Generated_Source\PSoC5/Impresora.c ****                 #endif /* End Impresora_RXBUFFERSIZE > Impresora_FIFO_LENGTH*/
 833:.\Generated_Source\PSoC5/Impresora.c ****             #endif /* End Impresora_CONTROL_REG_REMOVED */
 834:.\Generated_Source\PSoC5/Impresora.c ****         #else /* Impresora_RXHW_ADDRESS_ENABLED */
 835:.\Generated_Source\PSoC5/Impresora.c ****             if(0u != addressMode)
 836:.\Generated_Source\PSoC5/Impresora.c ****             {
 837:.\Generated_Source\PSoC5/Impresora.c ****                 /* Suppress compiler warning */
 838:.\Generated_Source\PSoC5/Impresora.c ****             }
 839:.\Generated_Source\PSoC5/Impresora.c ****         #endif /* End Impresora_RXHW_ADDRESS_ENABLED */
 840:.\Generated_Source\PSoC5/Impresora.c ****     }
 1009              		.loc 1 840 0
 1010 000a 0C37     		adds	r7, r7, #12
 1011              		.cfi_def_cfa_offset 4
 1012 000c BD46     		mov	sp, r7
 1013              		.cfi_def_cfa_register 13
 1014              		@ sp needed
 1015 000e 5DF8047B 		ldr	r7, [sp], #4
 1016              		.cfi_restore 7
 1017              		.cfi_def_cfa_offset 0
 1018 0012 7047     		bx	lr
 1019              		.cfi_endproc
 1020              	.LFE13:
 1021              		.size	Impresora_SetRxAddressMode, .-Impresora_SetRxAddressMode
 1022              		.section	.text.Impresora_SetRxAddress1,"ax",%progbits
 1023              		.align	2
 1024              		.global	Impresora_SetRxAddress1
 1025              		.thumb
 1026              		.thumb_func
 1027              		.type	Impresora_SetRxAddress1, %function
 1028              	Impresora_SetRxAddress1:
 1029              	.LFB14:
 841:.\Generated_Source\PSoC5/Impresora.c **** 
 842:.\Generated_Source\PSoC5/Impresora.c **** 
 843:.\Generated_Source\PSoC5/Impresora.c ****     /*******************************************************************************
 844:.\Generated_Source\PSoC5/Impresora.c ****     * Function Name: Impresora_SetRxAddress1
 845:.\Generated_Source\PSoC5/Impresora.c ****     ********************************************************************************
 846:.\Generated_Source\PSoC5/Impresora.c ****     *
 847:.\Generated_Source\PSoC5/Impresora.c ****     * Summary:
 848:.\Generated_Source\PSoC5/Impresora.c ****     *  Sets the first of two hardware-detectable receiver addresses.
 849:.\Generated_Source\PSoC5/Impresora.c ****     *
ARM GAS  C:\Users\RECEPC~1\AppData\Local\Temp\ccU3VU2d.s 			page 34


 850:.\Generated_Source\PSoC5/Impresora.c ****     * Parameters:
 851:.\Generated_Source\PSoC5/Impresora.c ****     *  address: Address #1 for hardware address detection.
 852:.\Generated_Source\PSoC5/Impresora.c ****     *
 853:.\Generated_Source\PSoC5/Impresora.c ****     * Return:
 854:.\Generated_Source\PSoC5/Impresora.c ****     *  None.
 855:.\Generated_Source\PSoC5/Impresora.c ****     *
 856:.\Generated_Source\PSoC5/Impresora.c ****     *******************************************************************************/
 857:.\Generated_Source\PSoC5/Impresora.c ****     void Impresora_SetRxAddress1(uint8 address) 
 858:.\Generated_Source\PSoC5/Impresora.c ****     {
 1030              		.loc 1 858 0
 1031              		.cfi_startproc
 1032              		@ args = 0, pretend = 0, frame = 8
 1033              		@ frame_needed = 1, uses_anonymous_args = 0
 1034              		@ link register save eliminated.
 1035 0000 80B4     		push	{r7}
 1036              		.cfi_def_cfa_offset 4
 1037              		.cfi_offset 7, -4
 1038 0002 83B0     		sub	sp, sp, #12
 1039              		.cfi_def_cfa_offset 16
 1040 0004 00AF     		add	r7, sp, #0
 1041              		.cfi_def_cfa_register 7
 1042 0006 0346     		mov	r3, r0
 1043 0008 FB71     		strb	r3, [r7, #7]
 859:.\Generated_Source\PSoC5/Impresora.c ****         Impresora_RXADDRESS1_REG = address;
 1044              		.loc 1 859 0
 1045 000a 044A     		ldr	r2, .L61
 1046 000c FB79     		ldrb	r3, [r7, #7]
 1047 000e 1370     		strb	r3, [r2]
 860:.\Generated_Source\PSoC5/Impresora.c ****     }
 1048              		.loc 1 860 0
 1049 0010 0C37     		adds	r7, r7, #12
 1050              		.cfi_def_cfa_offset 4
 1051 0012 BD46     		mov	sp, r7
 1052              		.cfi_def_cfa_register 13
 1053              		@ sp needed
 1054 0014 5DF8047B 		ldr	r7, [sp], #4
 1055              		.cfi_restore 7
 1056              		.cfi_def_cfa_offset 0
 1057 0018 7047     		bx	lr
 1058              	.L62:
 1059 001a 00BF     		.align	2
 1060              	.L61:
 1061 001c 27640040 		.word	1073767463
 1062              		.cfi_endproc
 1063              	.LFE14:
 1064              		.size	Impresora_SetRxAddress1, .-Impresora_SetRxAddress1
 1065              		.section	.text.Impresora_SetRxAddress2,"ax",%progbits
 1066              		.align	2
 1067              		.global	Impresora_SetRxAddress2
 1068              		.thumb
 1069              		.thumb_func
 1070              		.type	Impresora_SetRxAddress2, %function
 1071              	Impresora_SetRxAddress2:
 1072              	.LFB15:
 861:.\Generated_Source\PSoC5/Impresora.c **** 
 862:.\Generated_Source\PSoC5/Impresora.c **** 
 863:.\Generated_Source\PSoC5/Impresora.c ****     /*******************************************************************************
ARM GAS  C:\Users\RECEPC~1\AppData\Local\Temp\ccU3VU2d.s 			page 35


 864:.\Generated_Source\PSoC5/Impresora.c ****     * Function Name: Impresora_SetRxAddress2
 865:.\Generated_Source\PSoC5/Impresora.c ****     ********************************************************************************
 866:.\Generated_Source\PSoC5/Impresora.c ****     *
 867:.\Generated_Source\PSoC5/Impresora.c ****     * Summary:
 868:.\Generated_Source\PSoC5/Impresora.c ****     *  Sets the second of two hardware-detectable receiver addresses.
 869:.\Generated_Source\PSoC5/Impresora.c ****     *
 870:.\Generated_Source\PSoC5/Impresora.c ****     * Parameters:
 871:.\Generated_Source\PSoC5/Impresora.c ****     *  address: Address #2 for hardware address detection.
 872:.\Generated_Source\PSoC5/Impresora.c ****     *
 873:.\Generated_Source\PSoC5/Impresora.c ****     * Return:
 874:.\Generated_Source\PSoC5/Impresora.c ****     *  None.
 875:.\Generated_Source\PSoC5/Impresora.c ****     *
 876:.\Generated_Source\PSoC5/Impresora.c ****     *******************************************************************************/
 877:.\Generated_Source\PSoC5/Impresora.c ****     void Impresora_SetRxAddress2(uint8 address) 
 878:.\Generated_Source\PSoC5/Impresora.c ****     {
 1073              		.loc 1 878 0
 1074              		.cfi_startproc
 1075              		@ args = 0, pretend = 0, frame = 8
 1076              		@ frame_needed = 1, uses_anonymous_args = 0
 1077              		@ link register save eliminated.
 1078 0000 80B4     		push	{r7}
 1079              		.cfi_def_cfa_offset 4
 1080              		.cfi_offset 7, -4
 1081 0002 83B0     		sub	sp, sp, #12
 1082              		.cfi_def_cfa_offset 16
 1083 0004 00AF     		add	r7, sp, #0
 1084              		.cfi_def_cfa_register 7
 1085 0006 0346     		mov	r3, r0
 1086 0008 FB71     		strb	r3, [r7, #7]
 879:.\Generated_Source\PSoC5/Impresora.c ****         Impresora_RXADDRESS2_REG = address;
 1087              		.loc 1 879 0
 1088 000a 044A     		ldr	r2, .L64
 1089 000c FB79     		ldrb	r3, [r7, #7]
 1090 000e 1370     		strb	r3, [r2]
 880:.\Generated_Source\PSoC5/Impresora.c ****     }
 1091              		.loc 1 880 0
 1092 0010 0C37     		adds	r7, r7, #12
 1093              		.cfi_def_cfa_offset 4
 1094 0012 BD46     		mov	sp, r7
 1095              		.cfi_def_cfa_register 13
 1096              		@ sp needed
 1097 0014 5DF8047B 		ldr	r7, [sp], #4
 1098              		.cfi_restore 7
 1099              		.cfi_def_cfa_offset 0
 1100 0018 7047     		bx	lr
 1101              	.L65:
 1102 001a 00BF     		.align	2
 1103              	.L64:
 1104 001c 37640040 		.word	1073767479
 1105              		.cfi_endproc
 1106              	.LFE15:
 1107              		.size	Impresora_SetRxAddress2, .-Impresora_SetRxAddress2
 1108              		.section	.text.Impresora_SetTxInterruptMode,"ax",%progbits
 1109              		.align	2
 1110              		.global	Impresora_SetTxInterruptMode
 1111              		.thumb
 1112              		.thumb_func
ARM GAS  C:\Users\RECEPC~1\AppData\Local\Temp\ccU3VU2d.s 			page 36


 1113              		.type	Impresora_SetTxInterruptMode, %function
 1114              	Impresora_SetTxInterruptMode:
 1115              	.LFB16:
 881:.\Generated_Source\PSoC5/Impresora.c **** 
 882:.\Generated_Source\PSoC5/Impresora.c **** #endif  /* Impresora_RX_ENABLED || Impresora_HD_ENABLED*/
 883:.\Generated_Source\PSoC5/Impresora.c **** 
 884:.\Generated_Source\PSoC5/Impresora.c **** 
 885:.\Generated_Source\PSoC5/Impresora.c **** #if( (Impresora_TX_ENABLED) || (Impresora_HD_ENABLED) )
 886:.\Generated_Source\PSoC5/Impresora.c ****     /*******************************************************************************
 887:.\Generated_Source\PSoC5/Impresora.c ****     * Function Name: Impresora_SetTxInterruptMode
 888:.\Generated_Source\PSoC5/Impresora.c ****     ********************************************************************************
 889:.\Generated_Source\PSoC5/Impresora.c ****     *
 890:.\Generated_Source\PSoC5/Impresora.c ****     * Summary:
 891:.\Generated_Source\PSoC5/Impresora.c ****     *  Configures the TX interrupt sources to be enabled, but does not enable the
 892:.\Generated_Source\PSoC5/Impresora.c ****     *  interrupt.
 893:.\Generated_Source\PSoC5/Impresora.c ****     *
 894:.\Generated_Source\PSoC5/Impresora.c ****     * Parameters:
 895:.\Generated_Source\PSoC5/Impresora.c ****     *  intSrc: Bit field containing the TX interrupt sources to enable
 896:.\Generated_Source\PSoC5/Impresora.c ****     *   Impresora_TX_STS_COMPLETE        Interrupt on TX byte complete
 897:.\Generated_Source\PSoC5/Impresora.c ****     *   Impresora_TX_STS_FIFO_EMPTY      Interrupt when TX FIFO is empty
 898:.\Generated_Source\PSoC5/Impresora.c ****     *   Impresora_TX_STS_FIFO_FULL       Interrupt when TX FIFO is full
 899:.\Generated_Source\PSoC5/Impresora.c ****     *   Impresora_TX_STS_FIFO_NOT_FULL   Interrupt when TX FIFO is not full
 900:.\Generated_Source\PSoC5/Impresora.c ****     *
 901:.\Generated_Source\PSoC5/Impresora.c ****     * Return:
 902:.\Generated_Source\PSoC5/Impresora.c ****     *  None.
 903:.\Generated_Source\PSoC5/Impresora.c ****     *
 904:.\Generated_Source\PSoC5/Impresora.c ****     * Theory:
 905:.\Generated_Source\PSoC5/Impresora.c ****     *  Enables the output of specific status bits to the interrupt controller
 906:.\Generated_Source\PSoC5/Impresora.c ****     *
 907:.\Generated_Source\PSoC5/Impresora.c ****     *******************************************************************************/
 908:.\Generated_Source\PSoC5/Impresora.c ****     void Impresora_SetTxInterruptMode(uint8 intSrc) 
 909:.\Generated_Source\PSoC5/Impresora.c ****     {
 1116              		.loc 1 909 0
 1117              		.cfi_startproc
 1118              		@ args = 0, pretend = 0, frame = 8
 1119              		@ frame_needed = 1, uses_anonymous_args = 0
 1120              		@ link register save eliminated.
 1121 0000 80B4     		push	{r7}
 1122              		.cfi_def_cfa_offset 4
 1123              		.cfi_offset 7, -4
 1124 0002 83B0     		sub	sp, sp, #12
 1125              		.cfi_def_cfa_offset 16
 1126 0004 00AF     		add	r7, sp, #0
 1127              		.cfi_def_cfa_register 7
 1128 0006 0346     		mov	r3, r0
 1129 0008 FB71     		strb	r3, [r7, #7]
 910:.\Generated_Source\PSoC5/Impresora.c ****         Impresora_TXSTATUS_MASK_REG = intSrc;
 1130              		.loc 1 910 0
 1131 000a 044A     		ldr	r2, .L67
 1132 000c FB79     		ldrb	r3, [r7, #7]
 1133 000e 1370     		strb	r3, [r2]
 911:.\Generated_Source\PSoC5/Impresora.c ****     }
 1134              		.loc 1 911 0
 1135 0010 0C37     		adds	r7, r7, #12
 1136              		.cfi_def_cfa_offset 4
 1137 0012 BD46     		mov	sp, r7
 1138              		.cfi_def_cfa_register 13
ARM GAS  C:\Users\RECEPC~1\AppData\Local\Temp\ccU3VU2d.s 			page 37


 1139              		@ sp needed
 1140 0014 5DF8047B 		ldr	r7, [sp], #4
 1141              		.cfi_restore 7
 1142              		.cfi_def_cfa_offset 0
 1143 0018 7047     		bx	lr
 1144              	.L68:
 1145 001a 00BF     		.align	2
 1146              	.L67:
 1147 001c 8A640040 		.word	1073767562
 1148              		.cfi_endproc
 1149              	.LFE16:
 1150              		.size	Impresora_SetTxInterruptMode, .-Impresora_SetTxInterruptMode
 1151              		.section	.text.Impresora_WriteTxData,"ax",%progbits
 1152              		.align	2
 1153              		.global	Impresora_WriteTxData
 1154              		.thumb
 1155              		.thumb_func
 1156              		.type	Impresora_WriteTxData, %function
 1157              	Impresora_WriteTxData:
 1158              	.LFB17:
 912:.\Generated_Source\PSoC5/Impresora.c **** 
 913:.\Generated_Source\PSoC5/Impresora.c **** 
 914:.\Generated_Source\PSoC5/Impresora.c ****     /*******************************************************************************
 915:.\Generated_Source\PSoC5/Impresora.c ****     * Function Name: Impresora_WriteTxData
 916:.\Generated_Source\PSoC5/Impresora.c ****     ********************************************************************************
 917:.\Generated_Source\PSoC5/Impresora.c ****     *
 918:.\Generated_Source\PSoC5/Impresora.c ****     * Summary:
 919:.\Generated_Source\PSoC5/Impresora.c ****     *  Places a byte of data into the transmit buffer to be sent when the bus is
 920:.\Generated_Source\PSoC5/Impresora.c ****     *  available without checking the TX status register. You must check status
 921:.\Generated_Source\PSoC5/Impresora.c ****     *  separately.
 922:.\Generated_Source\PSoC5/Impresora.c ****     *
 923:.\Generated_Source\PSoC5/Impresora.c ****     * Parameters:
 924:.\Generated_Source\PSoC5/Impresora.c ****     *  txDataByte: data byte
 925:.\Generated_Source\PSoC5/Impresora.c ****     *
 926:.\Generated_Source\PSoC5/Impresora.c ****     * Return:
 927:.\Generated_Source\PSoC5/Impresora.c ****     * None.
 928:.\Generated_Source\PSoC5/Impresora.c ****     *
 929:.\Generated_Source\PSoC5/Impresora.c ****     * Global Variables:
 930:.\Generated_Source\PSoC5/Impresora.c ****     *  Impresora_txBuffer - RAM buffer pointer for save data for transmission
 931:.\Generated_Source\PSoC5/Impresora.c ****     *  Impresora_txBufferWrite - cyclic index for write to txBuffer,
 932:.\Generated_Source\PSoC5/Impresora.c ****     *    incremented after each byte saved to buffer.
 933:.\Generated_Source\PSoC5/Impresora.c ****     *  Impresora_txBufferRead - cyclic index for read from txBuffer,
 934:.\Generated_Source\PSoC5/Impresora.c ****     *    checked to identify the condition to write to FIFO directly or to TX buffer
 935:.\Generated_Source\PSoC5/Impresora.c ****     *  Impresora_initVar - checked to identify that the component has been
 936:.\Generated_Source\PSoC5/Impresora.c ****     *    initialized.
 937:.\Generated_Source\PSoC5/Impresora.c ****     *
 938:.\Generated_Source\PSoC5/Impresora.c ****     * Reentrant:
 939:.\Generated_Source\PSoC5/Impresora.c ****     *  No.
 940:.\Generated_Source\PSoC5/Impresora.c ****     *
 941:.\Generated_Source\PSoC5/Impresora.c ****     *******************************************************************************/
 942:.\Generated_Source\PSoC5/Impresora.c ****     void Impresora_WriteTxData(uint8 txDataByte) 
 943:.\Generated_Source\PSoC5/Impresora.c ****     {
 1159              		.loc 1 943 0
 1160              		.cfi_startproc
 1161              		@ args = 0, pretend = 0, frame = 8
 1162              		@ frame_needed = 1, uses_anonymous_args = 0
 1163              		@ link register save eliminated.
ARM GAS  C:\Users\RECEPC~1\AppData\Local\Temp\ccU3VU2d.s 			page 38


 1164 0000 80B4     		push	{r7}
 1165              		.cfi_def_cfa_offset 4
 1166              		.cfi_offset 7, -4
 1167 0002 83B0     		sub	sp, sp, #12
 1168              		.cfi_def_cfa_offset 16
 1169 0004 00AF     		add	r7, sp, #0
 1170              		.cfi_def_cfa_register 7
 1171 0006 0346     		mov	r3, r0
 1172 0008 FB71     		strb	r3, [r7, #7]
 944:.\Generated_Source\PSoC5/Impresora.c ****         /* If not Initialized then skip this function*/
 945:.\Generated_Source\PSoC5/Impresora.c ****         if(Impresora_initVar != 0u)
 1173              		.loc 1 945 0
 1174 000a 064B     		ldr	r3, .L71
 1175 000c 1B78     		ldrb	r3, [r3]	@ zero_extendqisi2
 1176 000e 002B     		cmp	r3, #0
 1177 0010 02D0     		beq	.L69
 946:.\Generated_Source\PSoC5/Impresora.c ****         {
 947:.\Generated_Source\PSoC5/Impresora.c ****         #if (Impresora_TX_INTERRUPT_ENABLED)
 948:.\Generated_Source\PSoC5/Impresora.c **** 
 949:.\Generated_Source\PSoC5/Impresora.c ****             /* Protect variables that could change on interrupt. */
 950:.\Generated_Source\PSoC5/Impresora.c ****             Impresora_DisableTxInt();
 951:.\Generated_Source\PSoC5/Impresora.c **** 
 952:.\Generated_Source\PSoC5/Impresora.c ****             if( (Impresora_txBufferRead == Impresora_txBufferWrite) &&
 953:.\Generated_Source\PSoC5/Impresora.c ****                 ((Impresora_TXSTATUS_REG & Impresora_TX_STS_FIFO_FULL) == 0u) )
 954:.\Generated_Source\PSoC5/Impresora.c ****             {
 955:.\Generated_Source\PSoC5/Impresora.c ****                 /* Add directly to the FIFO. */
 956:.\Generated_Source\PSoC5/Impresora.c ****                 Impresora_TXDATA_REG = txDataByte;
 957:.\Generated_Source\PSoC5/Impresora.c ****             }
 958:.\Generated_Source\PSoC5/Impresora.c ****             else
 959:.\Generated_Source\PSoC5/Impresora.c ****             {
 960:.\Generated_Source\PSoC5/Impresora.c ****                 if(Impresora_txBufferWrite >= Impresora_TX_BUFFER_SIZE)
 961:.\Generated_Source\PSoC5/Impresora.c ****                 {
 962:.\Generated_Source\PSoC5/Impresora.c ****                     Impresora_txBufferWrite = 0u;
 963:.\Generated_Source\PSoC5/Impresora.c ****                 }
 964:.\Generated_Source\PSoC5/Impresora.c **** 
 965:.\Generated_Source\PSoC5/Impresora.c ****                 Impresora_txBuffer[Impresora_txBufferWrite] = txDataByte;
 966:.\Generated_Source\PSoC5/Impresora.c **** 
 967:.\Generated_Source\PSoC5/Impresora.c ****                 /* Add to the software buffer. */
 968:.\Generated_Source\PSoC5/Impresora.c ****                 Impresora_txBufferWrite++;
 969:.\Generated_Source\PSoC5/Impresora.c ****             }
 970:.\Generated_Source\PSoC5/Impresora.c **** 
 971:.\Generated_Source\PSoC5/Impresora.c ****             Impresora_EnableTxInt();
 972:.\Generated_Source\PSoC5/Impresora.c **** 
 973:.\Generated_Source\PSoC5/Impresora.c ****         #else
 974:.\Generated_Source\PSoC5/Impresora.c **** 
 975:.\Generated_Source\PSoC5/Impresora.c ****             /* Add directly to the FIFO. */
 976:.\Generated_Source\PSoC5/Impresora.c ****             Impresora_TXDATA_REG = txDataByte;
 1178              		.loc 1 976 0
 1179 0012 054A     		ldr	r2, .L71+4
 1180 0014 FB79     		ldrb	r3, [r7, #7]
 1181 0016 1370     		strb	r3, [r2]
 1182              	.L69:
 977:.\Generated_Source\PSoC5/Impresora.c **** 
 978:.\Generated_Source\PSoC5/Impresora.c ****         #endif /*(Impresora_TX_INTERRUPT_ENABLED) */
 979:.\Generated_Source\PSoC5/Impresora.c ****         }
 980:.\Generated_Source\PSoC5/Impresora.c ****     }
 1183              		.loc 1 980 0
ARM GAS  C:\Users\RECEPC~1\AppData\Local\Temp\ccU3VU2d.s 			page 39


 1184 0018 0C37     		adds	r7, r7, #12
 1185              		.cfi_def_cfa_offset 4
 1186 001a BD46     		mov	sp, r7
 1187              		.cfi_def_cfa_register 13
 1188              		@ sp needed
 1189 001c 5DF8047B 		ldr	r7, [sp], #4
 1190              		.cfi_restore 7
 1191              		.cfi_def_cfa_offset 0
 1192 0020 7047     		bx	lr
 1193              	.L72:
 1194 0022 00BF     		.align	2
 1195              	.L71:
 1196 0024 00000000 		.word	Impresora_initVar
 1197 0028 4A640040 		.word	1073767498
 1198              		.cfi_endproc
 1199              	.LFE17:
 1200              		.size	Impresora_WriteTxData, .-Impresora_WriteTxData
 1201              		.section	.text.Impresora_ReadTxStatus,"ax",%progbits
 1202              		.align	2
 1203              		.global	Impresora_ReadTxStatus
 1204              		.thumb
 1205              		.thumb_func
 1206              		.type	Impresora_ReadTxStatus, %function
 1207              	Impresora_ReadTxStatus:
 1208              	.LFB18:
 981:.\Generated_Source\PSoC5/Impresora.c **** 
 982:.\Generated_Source\PSoC5/Impresora.c **** 
 983:.\Generated_Source\PSoC5/Impresora.c ****     /*******************************************************************************
 984:.\Generated_Source\PSoC5/Impresora.c ****     * Function Name: Impresora_ReadTxStatus
 985:.\Generated_Source\PSoC5/Impresora.c ****     ********************************************************************************
 986:.\Generated_Source\PSoC5/Impresora.c ****     *
 987:.\Generated_Source\PSoC5/Impresora.c ****     * Summary:
 988:.\Generated_Source\PSoC5/Impresora.c ****     *  Reads the status register for the TX portion of the UART.
 989:.\Generated_Source\PSoC5/Impresora.c ****     *
 990:.\Generated_Source\PSoC5/Impresora.c ****     * Parameters:
 991:.\Generated_Source\PSoC5/Impresora.c ****     *  None.
 992:.\Generated_Source\PSoC5/Impresora.c ****     *
 993:.\Generated_Source\PSoC5/Impresora.c ****     * Return:
 994:.\Generated_Source\PSoC5/Impresora.c ****     *  Contents of the status register
 995:.\Generated_Source\PSoC5/Impresora.c ****     *
 996:.\Generated_Source\PSoC5/Impresora.c ****     * Theory:
 997:.\Generated_Source\PSoC5/Impresora.c ****     *  This function reads the TX status register, which is cleared on read.
 998:.\Generated_Source\PSoC5/Impresora.c ****     *  It is up to the user to handle all bits in this return value accordingly,
 999:.\Generated_Source\PSoC5/Impresora.c ****     *  even if the bit was not enabled as an interrupt source the event happened
1000:.\Generated_Source\PSoC5/Impresora.c ****     *  and must be handled accordingly.
1001:.\Generated_Source\PSoC5/Impresora.c ****     *
1002:.\Generated_Source\PSoC5/Impresora.c ****     *******************************************************************************/
1003:.\Generated_Source\PSoC5/Impresora.c ****     uint8 Impresora_ReadTxStatus(void) 
1004:.\Generated_Source\PSoC5/Impresora.c ****     {
 1209              		.loc 1 1004 0
 1210              		.cfi_startproc
 1211              		@ args = 0, pretend = 0, frame = 0
 1212              		@ frame_needed = 1, uses_anonymous_args = 0
 1213              		@ link register save eliminated.
 1214 0000 80B4     		push	{r7}
 1215              		.cfi_def_cfa_offset 4
 1216              		.cfi_offset 7, -4
ARM GAS  C:\Users\RECEPC~1\AppData\Local\Temp\ccU3VU2d.s 			page 40


 1217 0002 00AF     		add	r7, sp, #0
 1218              		.cfi_def_cfa_register 7
1005:.\Generated_Source\PSoC5/Impresora.c ****         return(Impresora_TXSTATUS_REG);
 1219              		.loc 1 1005 0
 1220 0004 034B     		ldr	r3, .L75
 1221 0006 1B78     		ldrb	r3, [r3]
 1222 0008 DBB2     		uxtb	r3, r3
1006:.\Generated_Source\PSoC5/Impresora.c ****     }
 1223              		.loc 1 1006 0
 1224 000a 1846     		mov	r0, r3
 1225 000c BD46     		mov	sp, r7
 1226              		.cfi_def_cfa_register 13
 1227              		@ sp needed
 1228 000e 5DF8047B 		ldr	r7, [sp], #4
 1229              		.cfi_restore 7
 1230              		.cfi_def_cfa_offset 0
 1231 0012 7047     		bx	lr
 1232              	.L76:
 1233              		.align	2
 1234              	.L75:
 1235 0014 6A640040 		.word	1073767530
 1236              		.cfi_endproc
 1237              	.LFE18:
 1238              		.size	Impresora_ReadTxStatus, .-Impresora_ReadTxStatus
 1239              		.section	.text.Impresora_PutChar,"ax",%progbits
 1240              		.align	2
 1241              		.global	Impresora_PutChar
 1242              		.thumb
 1243              		.thumb_func
 1244              		.type	Impresora_PutChar, %function
 1245              	Impresora_PutChar:
 1246              	.LFB19:
1007:.\Generated_Source\PSoC5/Impresora.c **** 
1008:.\Generated_Source\PSoC5/Impresora.c **** 
1009:.\Generated_Source\PSoC5/Impresora.c ****     /*******************************************************************************
1010:.\Generated_Source\PSoC5/Impresora.c ****     * Function Name: Impresora_PutChar
1011:.\Generated_Source\PSoC5/Impresora.c ****     ********************************************************************************
1012:.\Generated_Source\PSoC5/Impresora.c ****     *
1013:.\Generated_Source\PSoC5/Impresora.c ****     * Summary:
1014:.\Generated_Source\PSoC5/Impresora.c ****     *  Puts a byte of data into the transmit buffer to be sent when the bus is
1015:.\Generated_Source\PSoC5/Impresora.c ****     *  available. This is a blocking API that waits until the TX buffer has room to
1016:.\Generated_Source\PSoC5/Impresora.c ****     *  hold the data.
1017:.\Generated_Source\PSoC5/Impresora.c ****     *
1018:.\Generated_Source\PSoC5/Impresora.c ****     * Parameters:
1019:.\Generated_Source\PSoC5/Impresora.c ****     *  txDataByte: Byte containing the data to transmit
1020:.\Generated_Source\PSoC5/Impresora.c ****     *
1021:.\Generated_Source\PSoC5/Impresora.c ****     * Return:
1022:.\Generated_Source\PSoC5/Impresora.c ****     *  None.
1023:.\Generated_Source\PSoC5/Impresora.c ****     *
1024:.\Generated_Source\PSoC5/Impresora.c ****     * Global Variables:
1025:.\Generated_Source\PSoC5/Impresora.c ****     *  Impresora_txBuffer - RAM buffer pointer for save data for transmission
1026:.\Generated_Source\PSoC5/Impresora.c ****     *  Impresora_txBufferWrite - cyclic index for write to txBuffer,
1027:.\Generated_Source\PSoC5/Impresora.c ****     *     checked to identify free space in txBuffer and incremented after each byte
1028:.\Generated_Source\PSoC5/Impresora.c ****     *     saved to buffer.
1029:.\Generated_Source\PSoC5/Impresora.c ****     *  Impresora_txBufferRead - cyclic index for read from txBuffer,
1030:.\Generated_Source\PSoC5/Impresora.c ****     *     checked to identify free space in txBuffer.
1031:.\Generated_Source\PSoC5/Impresora.c ****     *  Impresora_initVar - checked to identify that the component has been
ARM GAS  C:\Users\RECEPC~1\AppData\Local\Temp\ccU3VU2d.s 			page 41


1032:.\Generated_Source\PSoC5/Impresora.c ****     *     initialized.
1033:.\Generated_Source\PSoC5/Impresora.c ****     *
1034:.\Generated_Source\PSoC5/Impresora.c ****     * Reentrant:
1035:.\Generated_Source\PSoC5/Impresora.c ****     *  No.
1036:.\Generated_Source\PSoC5/Impresora.c ****     *
1037:.\Generated_Source\PSoC5/Impresora.c ****     * Theory:
1038:.\Generated_Source\PSoC5/Impresora.c ****     *  Allows the user to transmit any byte of data in a single transfer
1039:.\Generated_Source\PSoC5/Impresora.c ****     *
1040:.\Generated_Source\PSoC5/Impresora.c ****     *******************************************************************************/
1041:.\Generated_Source\PSoC5/Impresora.c ****     void Impresora_PutChar(uint8 txDataByte) 
1042:.\Generated_Source\PSoC5/Impresora.c ****     {
 1247              		.loc 1 1042 0
 1248              		.cfi_startproc
 1249              		@ args = 0, pretend = 0, frame = 8
 1250              		@ frame_needed = 1, uses_anonymous_args = 0
 1251              		@ link register save eliminated.
 1252 0000 80B4     		push	{r7}
 1253              		.cfi_def_cfa_offset 4
 1254              		.cfi_offset 7, -4
 1255 0002 83B0     		sub	sp, sp, #12
 1256              		.cfi_def_cfa_offset 16
 1257 0004 00AF     		add	r7, sp, #0
 1258              		.cfi_def_cfa_register 7
 1259 0006 0346     		mov	r3, r0
 1260 0008 FB71     		strb	r3, [r7, #7]
1043:.\Generated_Source\PSoC5/Impresora.c ****     #if (Impresora_TX_INTERRUPT_ENABLED)
1044:.\Generated_Source\PSoC5/Impresora.c ****         /* The temporary output pointer is used since it takes two instructions
1045:.\Generated_Source\PSoC5/Impresora.c ****         *  to increment with a wrap, and we can't risk doing that with the real
1046:.\Generated_Source\PSoC5/Impresora.c ****         *  pointer and getting an interrupt in between instructions.
1047:.\Generated_Source\PSoC5/Impresora.c ****         */
1048:.\Generated_Source\PSoC5/Impresora.c ****         uint8 locTxBufferWrite;
1049:.\Generated_Source\PSoC5/Impresora.c ****         uint8 locTxBufferRead;
1050:.\Generated_Source\PSoC5/Impresora.c **** 
1051:.\Generated_Source\PSoC5/Impresora.c ****         do
1052:.\Generated_Source\PSoC5/Impresora.c ****         { /* Block if software buffer is full, so we don't overwrite. */
1053:.\Generated_Source\PSoC5/Impresora.c **** 
1054:.\Generated_Source\PSoC5/Impresora.c ****         #if ((Impresora_TX_BUFFER_SIZE > Impresora_MAX_BYTE_VALUE) && (CY_PSOC3))
1055:.\Generated_Source\PSoC5/Impresora.c ****             /* Disable TX interrupt to protect variables from modification */
1056:.\Generated_Source\PSoC5/Impresora.c ****             Impresora_DisableTxInt();
1057:.\Generated_Source\PSoC5/Impresora.c ****         #endif /* (Impresora_TX_BUFFER_SIZE > Impresora_MAX_BYTE_VALUE) && (CY_PSOC3) */
1058:.\Generated_Source\PSoC5/Impresora.c **** 
1059:.\Generated_Source\PSoC5/Impresora.c ****             locTxBufferWrite = Impresora_txBufferWrite;
1060:.\Generated_Source\PSoC5/Impresora.c ****             locTxBufferRead  = Impresora_txBufferRead;
1061:.\Generated_Source\PSoC5/Impresora.c **** 
1062:.\Generated_Source\PSoC5/Impresora.c ****         #if ((Impresora_TX_BUFFER_SIZE > Impresora_MAX_BYTE_VALUE) && (CY_PSOC3))
1063:.\Generated_Source\PSoC5/Impresora.c ****             /* Enable interrupt to continue transmission */
1064:.\Generated_Source\PSoC5/Impresora.c ****             Impresora_EnableTxInt();
1065:.\Generated_Source\PSoC5/Impresora.c ****         #endif /* (Impresora_TX_BUFFER_SIZE > Impresora_MAX_BYTE_VALUE) && (CY_PSOC3) */
1066:.\Generated_Source\PSoC5/Impresora.c ****         }
1067:.\Generated_Source\PSoC5/Impresora.c ****         while( (locTxBufferWrite < locTxBufferRead) ? (locTxBufferWrite == (locTxBufferRead - 1u)) 
1068:.\Generated_Source\PSoC5/Impresora.c ****                                 ((locTxBufferWrite - locTxBufferRead) ==
1069:.\Generated_Source\PSoC5/Impresora.c ****                                 (uint8)(Impresora_TX_BUFFER_SIZE - 1u)) );
1070:.\Generated_Source\PSoC5/Impresora.c **** 
1071:.\Generated_Source\PSoC5/Impresora.c ****         if( (locTxBufferRead == locTxBufferWrite) &&
1072:.\Generated_Source\PSoC5/Impresora.c ****             ((Impresora_TXSTATUS_REG & Impresora_TX_STS_FIFO_FULL) == 0u) )
1073:.\Generated_Source\PSoC5/Impresora.c ****         {
1074:.\Generated_Source\PSoC5/Impresora.c ****             /* Add directly to the FIFO */
ARM GAS  C:\Users\RECEPC~1\AppData\Local\Temp\ccU3VU2d.s 			page 42


1075:.\Generated_Source\PSoC5/Impresora.c ****             Impresora_TXDATA_REG = txDataByte;
1076:.\Generated_Source\PSoC5/Impresora.c ****         }
1077:.\Generated_Source\PSoC5/Impresora.c ****         else
1078:.\Generated_Source\PSoC5/Impresora.c ****         {
1079:.\Generated_Source\PSoC5/Impresora.c ****             if(locTxBufferWrite >= Impresora_TX_BUFFER_SIZE)
1080:.\Generated_Source\PSoC5/Impresora.c ****             {
1081:.\Generated_Source\PSoC5/Impresora.c ****                 locTxBufferWrite = 0u;
1082:.\Generated_Source\PSoC5/Impresora.c ****             }
1083:.\Generated_Source\PSoC5/Impresora.c ****             /* Add to the software buffer. */
1084:.\Generated_Source\PSoC5/Impresora.c ****             Impresora_txBuffer[locTxBufferWrite] = txDataByte;
1085:.\Generated_Source\PSoC5/Impresora.c ****             locTxBufferWrite++;
1086:.\Generated_Source\PSoC5/Impresora.c **** 
1087:.\Generated_Source\PSoC5/Impresora.c ****             /* Finally, update the real output pointer */
1088:.\Generated_Source\PSoC5/Impresora.c ****         #if ((Impresora_TX_BUFFER_SIZE > Impresora_MAX_BYTE_VALUE) && (CY_PSOC3))
1089:.\Generated_Source\PSoC5/Impresora.c ****             Impresora_DisableTxInt();
1090:.\Generated_Source\PSoC5/Impresora.c ****         #endif /* (Impresora_TX_BUFFER_SIZE > Impresora_MAX_BYTE_VALUE) && (CY_PSOC3) */
1091:.\Generated_Source\PSoC5/Impresora.c **** 
1092:.\Generated_Source\PSoC5/Impresora.c ****             Impresora_txBufferWrite = locTxBufferWrite;
1093:.\Generated_Source\PSoC5/Impresora.c **** 
1094:.\Generated_Source\PSoC5/Impresora.c ****         #if ((Impresora_TX_BUFFER_SIZE > Impresora_MAX_BYTE_VALUE) && (CY_PSOC3))
1095:.\Generated_Source\PSoC5/Impresora.c ****             Impresora_EnableTxInt();
1096:.\Generated_Source\PSoC5/Impresora.c ****         #endif /* (Impresora_TX_BUFFER_SIZE > Impresora_MAX_BYTE_VALUE) && (CY_PSOC3) */
1097:.\Generated_Source\PSoC5/Impresora.c **** 
1098:.\Generated_Source\PSoC5/Impresora.c ****             if(0u != (Impresora_TXSTATUS_REG & Impresora_TX_STS_FIFO_EMPTY))
1099:.\Generated_Source\PSoC5/Impresora.c ****             {
1100:.\Generated_Source\PSoC5/Impresora.c ****                 /* Trigger TX interrupt to send software buffer */
1101:.\Generated_Source\PSoC5/Impresora.c ****                 Impresora_SetPendingTxInt();
1102:.\Generated_Source\PSoC5/Impresora.c ****             }
1103:.\Generated_Source\PSoC5/Impresora.c ****         }
1104:.\Generated_Source\PSoC5/Impresora.c **** 
1105:.\Generated_Source\PSoC5/Impresora.c ****     #else
1106:.\Generated_Source\PSoC5/Impresora.c **** 
1107:.\Generated_Source\PSoC5/Impresora.c ****         while((Impresora_TXSTATUS_REG & Impresora_TX_STS_FIFO_FULL) != 0u)
 1261              		.loc 1 1107 0
 1262 000a 00BF     		nop
 1263              	.L78:
 1264              		.loc 1 1107 0 is_stmt 0 discriminator 1
 1265 000c 074B     		ldr	r3, .L79
 1266 000e 1B78     		ldrb	r3, [r3]
 1267 0010 DBB2     		uxtb	r3, r3
 1268 0012 03F00403 		and	r3, r3, #4
 1269 0016 002B     		cmp	r3, #0
 1270 0018 F8D1     		bne	.L78
1108:.\Generated_Source\PSoC5/Impresora.c ****         {
1109:.\Generated_Source\PSoC5/Impresora.c ****             /* Wait for room in the FIFO */
1110:.\Generated_Source\PSoC5/Impresora.c ****         }
1111:.\Generated_Source\PSoC5/Impresora.c **** 
1112:.\Generated_Source\PSoC5/Impresora.c ****         /* Add directly to the FIFO */
1113:.\Generated_Source\PSoC5/Impresora.c ****         Impresora_TXDATA_REG = txDataByte;
 1271              		.loc 1 1113 0 is_stmt 1
 1272 001a 054A     		ldr	r2, .L79+4
 1273 001c FB79     		ldrb	r3, [r7, #7]
 1274 001e 1370     		strb	r3, [r2]
1114:.\Generated_Source\PSoC5/Impresora.c **** 
1115:.\Generated_Source\PSoC5/Impresora.c ****     #endif /* Impresora_TX_INTERRUPT_ENABLED */
1116:.\Generated_Source\PSoC5/Impresora.c ****     }
 1275              		.loc 1 1116 0
ARM GAS  C:\Users\RECEPC~1\AppData\Local\Temp\ccU3VU2d.s 			page 43


 1276 0020 0C37     		adds	r7, r7, #12
 1277              		.cfi_def_cfa_offset 4
 1278 0022 BD46     		mov	sp, r7
 1279              		.cfi_def_cfa_register 13
 1280              		@ sp needed
 1281 0024 5DF8047B 		ldr	r7, [sp], #4
 1282              		.cfi_restore 7
 1283              		.cfi_def_cfa_offset 0
 1284 0028 7047     		bx	lr
 1285              	.L80:
 1286 002a 00BF     		.align	2
 1287              	.L79:
 1288 002c 6A640040 		.word	1073767530
 1289 0030 4A640040 		.word	1073767498
 1290              		.cfi_endproc
 1291              	.LFE19:
 1292              		.size	Impresora_PutChar, .-Impresora_PutChar
 1293              		.section	.text.Impresora_PutString,"ax",%progbits
 1294              		.align	2
 1295              		.global	Impresora_PutString
 1296              		.thumb
 1297              		.thumb_func
 1298              		.type	Impresora_PutString, %function
 1299              	Impresora_PutString:
 1300              	.LFB20:
1117:.\Generated_Source\PSoC5/Impresora.c **** 
1118:.\Generated_Source\PSoC5/Impresora.c **** 
1119:.\Generated_Source\PSoC5/Impresora.c ****     /*******************************************************************************
1120:.\Generated_Source\PSoC5/Impresora.c ****     * Function Name: Impresora_PutString
1121:.\Generated_Source\PSoC5/Impresora.c ****     ********************************************************************************
1122:.\Generated_Source\PSoC5/Impresora.c ****     *
1123:.\Generated_Source\PSoC5/Impresora.c ****     * Summary:
1124:.\Generated_Source\PSoC5/Impresora.c ****     *  Sends a NULL terminated string to the TX buffer for transmission.
1125:.\Generated_Source\PSoC5/Impresora.c ****     *
1126:.\Generated_Source\PSoC5/Impresora.c ****     * Parameters:
1127:.\Generated_Source\PSoC5/Impresora.c ****     *  string[]: Pointer to the null terminated string array residing in RAM or ROM
1128:.\Generated_Source\PSoC5/Impresora.c ****     *
1129:.\Generated_Source\PSoC5/Impresora.c ****     * Return:
1130:.\Generated_Source\PSoC5/Impresora.c ****     *  None.
1131:.\Generated_Source\PSoC5/Impresora.c ****     *
1132:.\Generated_Source\PSoC5/Impresora.c ****     * Global Variables:
1133:.\Generated_Source\PSoC5/Impresora.c ****     *  Impresora_initVar - checked to identify that the component has been
1134:.\Generated_Source\PSoC5/Impresora.c ****     *     initialized.
1135:.\Generated_Source\PSoC5/Impresora.c ****     *
1136:.\Generated_Source\PSoC5/Impresora.c ****     * Reentrant:
1137:.\Generated_Source\PSoC5/Impresora.c ****     *  No.
1138:.\Generated_Source\PSoC5/Impresora.c ****     *
1139:.\Generated_Source\PSoC5/Impresora.c ****     * Theory:
1140:.\Generated_Source\PSoC5/Impresora.c ****     *  If there is not enough memory in the TX buffer for the entire string, this
1141:.\Generated_Source\PSoC5/Impresora.c ****     *  function blocks until the last character of the string is loaded into the
1142:.\Generated_Source\PSoC5/Impresora.c ****     *  TX buffer.
1143:.\Generated_Source\PSoC5/Impresora.c ****     *
1144:.\Generated_Source\PSoC5/Impresora.c ****     *******************************************************************************/
1145:.\Generated_Source\PSoC5/Impresora.c ****     void Impresora_PutString(const char8 string[]) 
1146:.\Generated_Source\PSoC5/Impresora.c ****     {
 1301              		.loc 1 1146 0
 1302              		.cfi_startproc
ARM GAS  C:\Users\RECEPC~1\AppData\Local\Temp\ccU3VU2d.s 			page 44


 1303              		@ args = 0, pretend = 0, frame = 16
 1304              		@ frame_needed = 1, uses_anonymous_args = 0
 1305 0000 80B5     		push	{r7, lr}
 1306              		.cfi_def_cfa_offset 8
 1307              		.cfi_offset 7, -8
 1308              		.cfi_offset 14, -4
 1309 0002 84B0     		sub	sp, sp, #16
 1310              		.cfi_def_cfa_offset 24
 1311 0004 00AF     		add	r7, sp, #0
 1312              		.cfi_def_cfa_register 7
 1313 0006 7860     		str	r0, [r7, #4]
1147:.\Generated_Source\PSoC5/Impresora.c ****         uint16 bufIndex = 0u;
 1314              		.loc 1 1147 0
 1315 0008 0023     		movs	r3, #0
 1316 000a FB81     		strh	r3, [r7, #14]	@ movhi
1148:.\Generated_Source\PSoC5/Impresora.c **** 
1149:.\Generated_Source\PSoC5/Impresora.c ****         /* If not Initialized then skip this function */
1150:.\Generated_Source\PSoC5/Impresora.c ****         if(Impresora_initVar != 0u)
 1317              		.loc 1 1150 0
 1318 000c 0B4B     		ldr	r3, .L85
 1319 000e 1B78     		ldrb	r3, [r3]	@ zero_extendqisi2
 1320 0010 002B     		cmp	r3, #0
 1321 0012 10D0     		beq	.L81
1151:.\Generated_Source\PSoC5/Impresora.c ****         {
1152:.\Generated_Source\PSoC5/Impresora.c ****             /* This is a blocking function, it will not exit until all data is sent */
1153:.\Generated_Source\PSoC5/Impresora.c ****             while(string[bufIndex] != (char8) 0)
 1322              		.loc 1 1153 0
 1323 0014 09E0     		b	.L83
 1324              	.L84:
1154:.\Generated_Source\PSoC5/Impresora.c ****             {
1155:.\Generated_Source\PSoC5/Impresora.c ****                 Impresora_PutChar((uint8)string[bufIndex]);
 1325              		.loc 1 1155 0
 1326 0016 FB89     		ldrh	r3, [r7, #14]
 1327 0018 7A68     		ldr	r2, [r7, #4]
 1328 001a 1344     		add	r3, r3, r2
 1329 001c 1B78     		ldrb	r3, [r3]	@ zero_extendqisi2
 1330 001e 1846     		mov	r0, r3
 1331 0020 FFF7FEFF 		bl	Impresora_PutChar
1156:.\Generated_Source\PSoC5/Impresora.c ****                 bufIndex++;
 1332              		.loc 1 1156 0
 1333 0024 FB89     		ldrh	r3, [r7, #14]
 1334 0026 0133     		adds	r3, r3, #1
 1335 0028 FB81     		strh	r3, [r7, #14]	@ movhi
 1336              	.L83:
1153:.\Generated_Source\PSoC5/Impresora.c ****             {
 1337              		.loc 1 1153 0
 1338 002a FB89     		ldrh	r3, [r7, #14]
 1339 002c 7A68     		ldr	r2, [r7, #4]
 1340 002e 1344     		add	r3, r3, r2
 1341 0030 1B78     		ldrb	r3, [r3]	@ zero_extendqisi2
 1342 0032 002B     		cmp	r3, #0
 1343 0034 EFD1     		bne	.L84
 1344              	.L81:
1157:.\Generated_Source\PSoC5/Impresora.c ****             }
1158:.\Generated_Source\PSoC5/Impresora.c ****         }
1159:.\Generated_Source\PSoC5/Impresora.c ****     }
 1345              		.loc 1 1159 0
ARM GAS  C:\Users\RECEPC~1\AppData\Local\Temp\ccU3VU2d.s 			page 45


 1346 0036 1037     		adds	r7, r7, #16
 1347              		.cfi_def_cfa_offset 8
 1348 0038 BD46     		mov	sp, r7
 1349              		.cfi_def_cfa_register 13
 1350              		@ sp needed
 1351 003a 80BD     		pop	{r7, pc}
 1352              	.L86:
 1353              		.align	2
 1354              	.L85:
 1355 003c 00000000 		.word	Impresora_initVar
 1356              		.cfi_endproc
 1357              	.LFE20:
 1358              		.size	Impresora_PutString, .-Impresora_PutString
 1359              		.section	.text.Impresora_PutArray,"ax",%progbits
 1360              		.align	2
 1361              		.global	Impresora_PutArray
 1362              		.thumb
 1363              		.thumb_func
 1364              		.type	Impresora_PutArray, %function
 1365              	Impresora_PutArray:
 1366              	.LFB21:
1160:.\Generated_Source\PSoC5/Impresora.c **** 
1161:.\Generated_Source\PSoC5/Impresora.c **** 
1162:.\Generated_Source\PSoC5/Impresora.c ****     /*******************************************************************************
1163:.\Generated_Source\PSoC5/Impresora.c ****     * Function Name: Impresora_PutArray
1164:.\Generated_Source\PSoC5/Impresora.c ****     ********************************************************************************
1165:.\Generated_Source\PSoC5/Impresora.c ****     *
1166:.\Generated_Source\PSoC5/Impresora.c ****     * Summary:
1167:.\Generated_Source\PSoC5/Impresora.c ****     *  Places N bytes of data from a memory array into the TX buffer for
1168:.\Generated_Source\PSoC5/Impresora.c ****     *  transmission.
1169:.\Generated_Source\PSoC5/Impresora.c ****     *
1170:.\Generated_Source\PSoC5/Impresora.c ****     * Parameters:
1171:.\Generated_Source\PSoC5/Impresora.c ****     *  string[]: Address of the memory array residing in RAM or ROM.
1172:.\Generated_Source\PSoC5/Impresora.c ****     *  byteCount: Number of bytes to be transmitted. The type depends on TX Buffer
1173:.\Generated_Source\PSoC5/Impresora.c ****     *             Size parameter.
1174:.\Generated_Source\PSoC5/Impresora.c ****     *
1175:.\Generated_Source\PSoC5/Impresora.c ****     * Return:
1176:.\Generated_Source\PSoC5/Impresora.c ****     *  None.
1177:.\Generated_Source\PSoC5/Impresora.c ****     *
1178:.\Generated_Source\PSoC5/Impresora.c ****     * Global Variables:
1179:.\Generated_Source\PSoC5/Impresora.c ****     *  Impresora_initVar - checked to identify that the component has been
1180:.\Generated_Source\PSoC5/Impresora.c ****     *     initialized.
1181:.\Generated_Source\PSoC5/Impresora.c ****     *
1182:.\Generated_Source\PSoC5/Impresora.c ****     * Reentrant:
1183:.\Generated_Source\PSoC5/Impresora.c ****     *  No.
1184:.\Generated_Source\PSoC5/Impresora.c ****     *
1185:.\Generated_Source\PSoC5/Impresora.c ****     * Theory:
1186:.\Generated_Source\PSoC5/Impresora.c ****     *  If there is not enough memory in the TX buffer for the entire string, this
1187:.\Generated_Source\PSoC5/Impresora.c ****     *  function blocks until the last character of the string is loaded into the
1188:.\Generated_Source\PSoC5/Impresora.c ****     *  TX buffer.
1189:.\Generated_Source\PSoC5/Impresora.c ****     *
1190:.\Generated_Source\PSoC5/Impresora.c ****     *******************************************************************************/
1191:.\Generated_Source\PSoC5/Impresora.c ****     void Impresora_PutArray(const uint8 string[], uint8 byteCount)
1192:.\Generated_Source\PSoC5/Impresora.c ****                                                                     
1193:.\Generated_Source\PSoC5/Impresora.c ****     {
 1367              		.loc 1 1193 0
 1368              		.cfi_startproc
ARM GAS  C:\Users\RECEPC~1\AppData\Local\Temp\ccU3VU2d.s 			page 46


 1369              		@ args = 0, pretend = 0, frame = 16
 1370              		@ frame_needed = 1, uses_anonymous_args = 0
 1371 0000 80B5     		push	{r7, lr}
 1372              		.cfi_def_cfa_offset 8
 1373              		.cfi_offset 7, -8
 1374              		.cfi_offset 14, -4
 1375 0002 84B0     		sub	sp, sp, #16
 1376              		.cfi_def_cfa_offset 24
 1377 0004 00AF     		add	r7, sp, #0
 1378              		.cfi_def_cfa_register 7
 1379 0006 7860     		str	r0, [r7, #4]
 1380 0008 0B46     		mov	r3, r1
 1381 000a FB70     		strb	r3, [r7, #3]
1194:.\Generated_Source\PSoC5/Impresora.c ****         uint8 bufIndex = 0u;
 1382              		.loc 1 1194 0
 1383 000c 0023     		movs	r3, #0
 1384 000e FB73     		strb	r3, [r7, #15]
1195:.\Generated_Source\PSoC5/Impresora.c **** 
1196:.\Generated_Source\PSoC5/Impresora.c ****         /* If not Initialized then skip this function */
1197:.\Generated_Source\PSoC5/Impresora.c ****         if(Impresora_initVar != 0u)
 1385              		.loc 1 1197 0
 1386 0010 0A4B     		ldr	r3, .L91
 1387 0012 1B78     		ldrb	r3, [r3]	@ zero_extendqisi2
 1388 0014 002B     		cmp	r3, #0
 1389 0016 0ED0     		beq	.L87
1198:.\Generated_Source\PSoC5/Impresora.c ****         {
1199:.\Generated_Source\PSoC5/Impresora.c ****             while(bufIndex < byteCount)
 1390              		.loc 1 1199 0
 1391 0018 09E0     		b	.L89
 1392              	.L90:
1200:.\Generated_Source\PSoC5/Impresora.c ****             {
1201:.\Generated_Source\PSoC5/Impresora.c ****                 Impresora_PutChar(string[bufIndex]);
 1393              		.loc 1 1201 0
 1394 001a FB7B     		ldrb	r3, [r7, #15]	@ zero_extendqisi2
 1395 001c 7A68     		ldr	r2, [r7, #4]
 1396 001e 1344     		add	r3, r3, r2
 1397 0020 1B78     		ldrb	r3, [r3]	@ zero_extendqisi2
 1398 0022 1846     		mov	r0, r3
 1399 0024 FFF7FEFF 		bl	Impresora_PutChar
1202:.\Generated_Source\PSoC5/Impresora.c ****                 bufIndex++;
 1400              		.loc 1 1202 0
 1401 0028 FB7B     		ldrb	r3, [r7, #15]	@ zero_extendqisi2
 1402 002a 0133     		adds	r3, r3, #1
 1403 002c FB73     		strb	r3, [r7, #15]
 1404              	.L89:
1199:.\Generated_Source\PSoC5/Impresora.c ****             {
 1405              		.loc 1 1199 0
 1406 002e FA7B     		ldrb	r2, [r7, #15]	@ zero_extendqisi2
 1407 0030 FB78     		ldrb	r3, [r7, #3]	@ zero_extendqisi2
 1408 0032 9A42     		cmp	r2, r3
 1409 0034 F1D3     		bcc	.L90
 1410              	.L87:
1203:.\Generated_Source\PSoC5/Impresora.c ****             }
1204:.\Generated_Source\PSoC5/Impresora.c ****         }
1205:.\Generated_Source\PSoC5/Impresora.c ****     }
 1411              		.loc 1 1205 0
 1412 0036 1037     		adds	r7, r7, #16
ARM GAS  C:\Users\RECEPC~1\AppData\Local\Temp\ccU3VU2d.s 			page 47


 1413              		.cfi_def_cfa_offset 8
 1414 0038 BD46     		mov	sp, r7
 1415              		.cfi_def_cfa_register 13
 1416              		@ sp needed
 1417 003a 80BD     		pop	{r7, pc}
 1418              	.L92:
 1419              		.align	2
 1420              	.L91:
 1421 003c 00000000 		.word	Impresora_initVar
 1422              		.cfi_endproc
 1423              	.LFE21:
 1424              		.size	Impresora_PutArray, .-Impresora_PutArray
 1425              		.section	.text.Impresora_PutCRLF,"ax",%progbits
 1426              		.align	2
 1427              		.global	Impresora_PutCRLF
 1428              		.thumb
 1429              		.thumb_func
 1430              		.type	Impresora_PutCRLF, %function
 1431              	Impresora_PutCRLF:
 1432              	.LFB22:
1206:.\Generated_Source\PSoC5/Impresora.c **** 
1207:.\Generated_Source\PSoC5/Impresora.c **** 
1208:.\Generated_Source\PSoC5/Impresora.c ****     /*******************************************************************************
1209:.\Generated_Source\PSoC5/Impresora.c ****     * Function Name: Impresora_PutCRLF
1210:.\Generated_Source\PSoC5/Impresora.c ****     ********************************************************************************
1211:.\Generated_Source\PSoC5/Impresora.c ****     *
1212:.\Generated_Source\PSoC5/Impresora.c ****     * Summary:
1213:.\Generated_Source\PSoC5/Impresora.c ****     *  Writes a byte of data followed by a carriage return (0x0D) and line feed
1214:.\Generated_Source\PSoC5/Impresora.c ****     *  (0x0A) to the transmit buffer.
1215:.\Generated_Source\PSoC5/Impresora.c ****     *
1216:.\Generated_Source\PSoC5/Impresora.c ****     * Parameters:
1217:.\Generated_Source\PSoC5/Impresora.c ****     *  txDataByte: Data byte to transmit before the carriage return and line feed.
1218:.\Generated_Source\PSoC5/Impresora.c ****     *
1219:.\Generated_Source\PSoC5/Impresora.c ****     * Return:
1220:.\Generated_Source\PSoC5/Impresora.c ****     *  None.
1221:.\Generated_Source\PSoC5/Impresora.c ****     *
1222:.\Generated_Source\PSoC5/Impresora.c ****     * Global Variables:
1223:.\Generated_Source\PSoC5/Impresora.c ****     *  Impresora_initVar - checked to identify that the component has been
1224:.\Generated_Source\PSoC5/Impresora.c ****     *     initialized.
1225:.\Generated_Source\PSoC5/Impresora.c ****     *
1226:.\Generated_Source\PSoC5/Impresora.c ****     * Reentrant:
1227:.\Generated_Source\PSoC5/Impresora.c ****     *  No.
1228:.\Generated_Source\PSoC5/Impresora.c ****     *
1229:.\Generated_Source\PSoC5/Impresora.c ****     *******************************************************************************/
1230:.\Generated_Source\PSoC5/Impresora.c ****     void Impresora_PutCRLF(uint8 txDataByte) 
1231:.\Generated_Source\PSoC5/Impresora.c ****     {
 1433              		.loc 1 1231 0
 1434              		.cfi_startproc
 1435              		@ args = 0, pretend = 0, frame = 8
 1436              		@ frame_needed = 1, uses_anonymous_args = 0
 1437 0000 80B5     		push	{r7, lr}
 1438              		.cfi_def_cfa_offset 8
 1439              		.cfi_offset 7, -8
 1440              		.cfi_offset 14, -4
 1441 0002 82B0     		sub	sp, sp, #8
 1442              		.cfi_def_cfa_offset 16
 1443 0004 00AF     		add	r7, sp, #0
ARM GAS  C:\Users\RECEPC~1\AppData\Local\Temp\ccU3VU2d.s 			page 48


 1444              		.cfi_def_cfa_register 7
 1445 0006 0346     		mov	r3, r0
 1446 0008 FB71     		strb	r3, [r7, #7]
1232:.\Generated_Source\PSoC5/Impresora.c ****         /* If not Initialized then skip this function */
1233:.\Generated_Source\PSoC5/Impresora.c ****         if(Impresora_initVar != 0u)
 1447              		.loc 1 1233 0
 1448 000a 084B     		ldr	r3, .L95
 1449 000c 1B78     		ldrb	r3, [r3]	@ zero_extendqisi2
 1450 000e 002B     		cmp	r3, #0
 1451 0010 09D0     		beq	.L93
1234:.\Generated_Source\PSoC5/Impresora.c ****         {
1235:.\Generated_Source\PSoC5/Impresora.c ****             Impresora_PutChar(txDataByte);
 1452              		.loc 1 1235 0
 1453 0012 FB79     		ldrb	r3, [r7, #7]	@ zero_extendqisi2
 1454 0014 1846     		mov	r0, r3
 1455 0016 FFF7FEFF 		bl	Impresora_PutChar
1236:.\Generated_Source\PSoC5/Impresora.c ****             Impresora_PutChar(0x0Du);
 1456              		.loc 1 1236 0
 1457 001a 0D20     		movs	r0, #13
 1458 001c FFF7FEFF 		bl	Impresora_PutChar
1237:.\Generated_Source\PSoC5/Impresora.c ****             Impresora_PutChar(0x0Au);
 1459              		.loc 1 1237 0
 1460 0020 0A20     		movs	r0, #10
 1461 0022 FFF7FEFF 		bl	Impresora_PutChar
 1462              	.L93:
1238:.\Generated_Source\PSoC5/Impresora.c ****         }
1239:.\Generated_Source\PSoC5/Impresora.c ****     }
 1463              		.loc 1 1239 0
 1464 0026 0837     		adds	r7, r7, #8
 1465              		.cfi_def_cfa_offset 8
 1466 0028 BD46     		mov	sp, r7
 1467              		.cfi_def_cfa_register 13
 1468              		@ sp needed
 1469 002a 80BD     		pop	{r7, pc}
 1470              	.L96:
 1471              		.align	2
 1472              	.L95:
 1473 002c 00000000 		.word	Impresora_initVar
 1474              		.cfi_endproc
 1475              	.LFE22:
 1476              		.size	Impresora_PutCRLF, .-Impresora_PutCRLF
 1477              		.section	.text.Impresora_GetTxBufferSize,"ax",%progbits
 1478              		.align	2
 1479              		.global	Impresora_GetTxBufferSize
 1480              		.thumb
 1481              		.thumb_func
 1482              		.type	Impresora_GetTxBufferSize, %function
 1483              	Impresora_GetTxBufferSize:
 1484              	.LFB23:
1240:.\Generated_Source\PSoC5/Impresora.c **** 
1241:.\Generated_Source\PSoC5/Impresora.c **** 
1242:.\Generated_Source\PSoC5/Impresora.c ****     /*******************************************************************************
1243:.\Generated_Source\PSoC5/Impresora.c ****     * Function Name: Impresora_GetTxBufferSize
1244:.\Generated_Source\PSoC5/Impresora.c ****     ********************************************************************************
1245:.\Generated_Source\PSoC5/Impresora.c ****     *
1246:.\Generated_Source\PSoC5/Impresora.c ****     * Summary:
1247:.\Generated_Source\PSoC5/Impresora.c ****     *  Returns the number of bytes in the TX buffer which are waiting to be 
ARM GAS  C:\Users\RECEPC~1\AppData\Local\Temp\ccU3VU2d.s 			page 49


1248:.\Generated_Source\PSoC5/Impresora.c ****     *  transmitted.
1249:.\Generated_Source\PSoC5/Impresora.c ****     *  * TX software buffer is disabled (TX Buffer Size parameter is equal to 4): 
1250:.\Generated_Source\PSoC5/Impresora.c ****     *    returns 0 for empty TX FIFO, 1 for not full TX FIFO or 4 for full TX FIFO.
1251:.\Generated_Source\PSoC5/Impresora.c ****     *  * TX software buffer is enabled: returns the number of bytes in the TX 
1252:.\Generated_Source\PSoC5/Impresora.c ****     *    software buffer which are waiting to be transmitted. Bytes available in the
1253:.\Generated_Source\PSoC5/Impresora.c ****     *    TX FIFO do not count.
1254:.\Generated_Source\PSoC5/Impresora.c ****     *
1255:.\Generated_Source\PSoC5/Impresora.c ****     * Parameters:
1256:.\Generated_Source\PSoC5/Impresora.c ****     *  None.
1257:.\Generated_Source\PSoC5/Impresora.c ****     *
1258:.\Generated_Source\PSoC5/Impresora.c ****     * Return:
1259:.\Generated_Source\PSoC5/Impresora.c ****     *  Number of bytes used in the TX buffer. Return value type depends on the TX 
1260:.\Generated_Source\PSoC5/Impresora.c ****     *  Buffer Size parameter.
1261:.\Generated_Source\PSoC5/Impresora.c ****     *
1262:.\Generated_Source\PSoC5/Impresora.c ****     * Global Variables:
1263:.\Generated_Source\PSoC5/Impresora.c ****     *  Impresora_txBufferWrite - used to calculate left space.
1264:.\Generated_Source\PSoC5/Impresora.c ****     *  Impresora_txBufferRead - used to calculate left space.
1265:.\Generated_Source\PSoC5/Impresora.c ****     *
1266:.\Generated_Source\PSoC5/Impresora.c ****     * Reentrant:
1267:.\Generated_Source\PSoC5/Impresora.c ****     *  No.
1268:.\Generated_Source\PSoC5/Impresora.c ****     *
1269:.\Generated_Source\PSoC5/Impresora.c ****     * Theory:
1270:.\Generated_Source\PSoC5/Impresora.c ****     *  Allows the user to find out how full the TX Buffer is.
1271:.\Generated_Source\PSoC5/Impresora.c ****     *
1272:.\Generated_Source\PSoC5/Impresora.c ****     *******************************************************************************/
1273:.\Generated_Source\PSoC5/Impresora.c ****     uint8 Impresora_GetTxBufferSize(void)
1274:.\Generated_Source\PSoC5/Impresora.c ****                                                             
1275:.\Generated_Source\PSoC5/Impresora.c ****     {
 1485              		.loc 1 1275 0
 1486              		.cfi_startproc
 1487              		@ args = 0, pretend = 0, frame = 8
 1488              		@ frame_needed = 1, uses_anonymous_args = 0
 1489              		@ link register save eliminated.
 1490 0000 80B4     		push	{r7}
 1491              		.cfi_def_cfa_offset 4
 1492              		.cfi_offset 7, -4
 1493 0002 83B0     		sub	sp, sp, #12
 1494              		.cfi_def_cfa_offset 16
 1495 0004 00AF     		add	r7, sp, #0
 1496              		.cfi_def_cfa_register 7
1276:.\Generated_Source\PSoC5/Impresora.c ****         uint8 size;
1277:.\Generated_Source\PSoC5/Impresora.c **** 
1278:.\Generated_Source\PSoC5/Impresora.c ****     #if (Impresora_TX_INTERRUPT_ENABLED)
1279:.\Generated_Source\PSoC5/Impresora.c **** 
1280:.\Generated_Source\PSoC5/Impresora.c ****         /* Protect variables that could change on interrupt. */
1281:.\Generated_Source\PSoC5/Impresora.c ****         Impresora_DisableTxInt();
1282:.\Generated_Source\PSoC5/Impresora.c **** 
1283:.\Generated_Source\PSoC5/Impresora.c ****         if(Impresora_txBufferRead == Impresora_txBufferWrite)
1284:.\Generated_Source\PSoC5/Impresora.c ****         {
1285:.\Generated_Source\PSoC5/Impresora.c ****             size = 0u;
1286:.\Generated_Source\PSoC5/Impresora.c ****         }
1287:.\Generated_Source\PSoC5/Impresora.c ****         else if(Impresora_txBufferRead < Impresora_txBufferWrite)
1288:.\Generated_Source\PSoC5/Impresora.c ****         {
1289:.\Generated_Source\PSoC5/Impresora.c ****             size = (Impresora_txBufferWrite - Impresora_txBufferRead);
1290:.\Generated_Source\PSoC5/Impresora.c ****         }
1291:.\Generated_Source\PSoC5/Impresora.c ****         else
1292:.\Generated_Source\PSoC5/Impresora.c ****         {
ARM GAS  C:\Users\RECEPC~1\AppData\Local\Temp\ccU3VU2d.s 			page 50


1293:.\Generated_Source\PSoC5/Impresora.c ****             size = (Impresora_TX_BUFFER_SIZE - Impresora_txBufferRead) +
1294:.\Generated_Source\PSoC5/Impresora.c ****                     Impresora_txBufferWrite;
1295:.\Generated_Source\PSoC5/Impresora.c ****         }
1296:.\Generated_Source\PSoC5/Impresora.c **** 
1297:.\Generated_Source\PSoC5/Impresora.c ****         Impresora_EnableTxInt();
1298:.\Generated_Source\PSoC5/Impresora.c **** 
1299:.\Generated_Source\PSoC5/Impresora.c ****     #else
1300:.\Generated_Source\PSoC5/Impresora.c **** 
1301:.\Generated_Source\PSoC5/Impresora.c ****         size = Impresora_TXSTATUS_REG;
 1497              		.loc 1 1301 0
 1498 0006 0E4B     		ldr	r3, .L102
 1499 0008 1B78     		ldrb	r3, [r3]
 1500 000a FB71     		strb	r3, [r7, #7]
1302:.\Generated_Source\PSoC5/Impresora.c **** 
1303:.\Generated_Source\PSoC5/Impresora.c ****         /* Is the fifo is full. */
1304:.\Generated_Source\PSoC5/Impresora.c ****         if((size & Impresora_TX_STS_FIFO_FULL) != 0u)
 1501              		.loc 1 1304 0
 1502 000c FB79     		ldrb	r3, [r7, #7]	@ zero_extendqisi2
 1503 000e 03F00403 		and	r3, r3, #4
 1504 0012 002B     		cmp	r3, #0
 1505 0014 02D0     		beq	.L98
1305:.\Generated_Source\PSoC5/Impresora.c ****         {
1306:.\Generated_Source\PSoC5/Impresora.c ****             size = Impresora_FIFO_LENGTH;
 1506              		.loc 1 1306 0
 1507 0016 0423     		movs	r3, #4
 1508 0018 FB71     		strb	r3, [r7, #7]
 1509 001a 09E0     		b	.L99
 1510              	.L98:
1307:.\Generated_Source\PSoC5/Impresora.c ****         }
1308:.\Generated_Source\PSoC5/Impresora.c ****         else if((size & Impresora_TX_STS_FIFO_EMPTY) != 0u)
 1511              		.loc 1 1308 0
 1512 001c FB79     		ldrb	r3, [r7, #7]	@ zero_extendqisi2
 1513 001e 03F00203 		and	r3, r3, #2
 1514 0022 002B     		cmp	r3, #0
 1515 0024 02D0     		beq	.L100
1309:.\Generated_Source\PSoC5/Impresora.c ****         {
1310:.\Generated_Source\PSoC5/Impresora.c ****             size = 0u;
 1516              		.loc 1 1310 0
 1517 0026 0023     		movs	r3, #0
 1518 0028 FB71     		strb	r3, [r7, #7]
 1519 002a 01E0     		b	.L99
 1520              	.L100:
1311:.\Generated_Source\PSoC5/Impresora.c ****         }
1312:.\Generated_Source\PSoC5/Impresora.c ****         else
1313:.\Generated_Source\PSoC5/Impresora.c ****         {
1314:.\Generated_Source\PSoC5/Impresora.c ****             /* We only know there is data in the fifo. */
1315:.\Generated_Source\PSoC5/Impresora.c ****             size = 1u;
 1521              		.loc 1 1315 0
 1522 002c 0123     		movs	r3, #1
 1523 002e FB71     		strb	r3, [r7, #7]
 1524              	.L99:
1316:.\Generated_Source\PSoC5/Impresora.c ****         }
1317:.\Generated_Source\PSoC5/Impresora.c **** 
1318:.\Generated_Source\PSoC5/Impresora.c ****     #endif /* (Impresora_TX_INTERRUPT_ENABLED) */
1319:.\Generated_Source\PSoC5/Impresora.c **** 
1320:.\Generated_Source\PSoC5/Impresora.c ****     return(size);
 1525              		.loc 1 1320 0
ARM GAS  C:\Users\RECEPC~1\AppData\Local\Temp\ccU3VU2d.s 			page 51


 1526 0030 FB79     		ldrb	r3, [r7, #7]	@ zero_extendqisi2
1321:.\Generated_Source\PSoC5/Impresora.c ****     }
 1527              		.loc 1 1321 0
 1528 0032 1846     		mov	r0, r3
 1529 0034 0C37     		adds	r7, r7, #12
 1530              		.cfi_def_cfa_offset 4
 1531 0036 BD46     		mov	sp, r7
 1532              		.cfi_def_cfa_register 13
 1533              		@ sp needed
 1534 0038 5DF8047B 		ldr	r7, [sp], #4
 1535              		.cfi_restore 7
 1536              		.cfi_def_cfa_offset 0
 1537 003c 7047     		bx	lr
 1538              	.L103:
 1539 003e 00BF     		.align	2
 1540              	.L102:
 1541 0040 6A640040 		.word	1073767530
 1542              		.cfi_endproc
 1543              	.LFE23:
 1544              		.size	Impresora_GetTxBufferSize, .-Impresora_GetTxBufferSize
 1545              		.section	.text.Impresora_ClearTxBuffer,"ax",%progbits
 1546              		.align	2
 1547              		.global	Impresora_ClearTxBuffer
 1548              		.thumb
 1549              		.thumb_func
 1550              		.type	Impresora_ClearTxBuffer, %function
 1551              	Impresora_ClearTxBuffer:
 1552              	.LFB24:
1322:.\Generated_Source\PSoC5/Impresora.c **** 
1323:.\Generated_Source\PSoC5/Impresora.c **** 
1324:.\Generated_Source\PSoC5/Impresora.c ****     /*******************************************************************************
1325:.\Generated_Source\PSoC5/Impresora.c ****     * Function Name: Impresora_ClearTxBuffer
1326:.\Generated_Source\PSoC5/Impresora.c ****     ********************************************************************************
1327:.\Generated_Source\PSoC5/Impresora.c ****     *
1328:.\Generated_Source\PSoC5/Impresora.c ****     * Summary:
1329:.\Generated_Source\PSoC5/Impresora.c ****     *  Clears all data from the TX buffer and hardware TX FIFO.
1330:.\Generated_Source\PSoC5/Impresora.c ****     *
1331:.\Generated_Source\PSoC5/Impresora.c ****     * Parameters:
1332:.\Generated_Source\PSoC5/Impresora.c ****     *  None.
1333:.\Generated_Source\PSoC5/Impresora.c ****     *
1334:.\Generated_Source\PSoC5/Impresora.c ****     * Return:
1335:.\Generated_Source\PSoC5/Impresora.c ****     *  None.
1336:.\Generated_Source\PSoC5/Impresora.c ****     *
1337:.\Generated_Source\PSoC5/Impresora.c ****     * Global Variables:
1338:.\Generated_Source\PSoC5/Impresora.c ****     *  Impresora_txBufferWrite - cleared to zero.
1339:.\Generated_Source\PSoC5/Impresora.c ****     *  Impresora_txBufferRead - cleared to zero.
1340:.\Generated_Source\PSoC5/Impresora.c ****     *
1341:.\Generated_Source\PSoC5/Impresora.c ****     * Reentrant:
1342:.\Generated_Source\PSoC5/Impresora.c ****     *  No.
1343:.\Generated_Source\PSoC5/Impresora.c ****     *
1344:.\Generated_Source\PSoC5/Impresora.c ****     * Theory:
1345:.\Generated_Source\PSoC5/Impresora.c ****     *  Setting the pointers to zero makes the system believe there is no data to
1346:.\Generated_Source\PSoC5/Impresora.c ****     *  read and writing will resume at address 0 overwriting any data that may have
1347:.\Generated_Source\PSoC5/Impresora.c ****     *  remained in the RAM.
1348:.\Generated_Source\PSoC5/Impresora.c ****     *
1349:.\Generated_Source\PSoC5/Impresora.c ****     * Side Effects:
1350:.\Generated_Source\PSoC5/Impresora.c ****     *  Data waiting in the transmit buffer is not sent; a byte that is currently
ARM GAS  C:\Users\RECEPC~1\AppData\Local\Temp\ccU3VU2d.s 			page 52


1351:.\Generated_Source\PSoC5/Impresora.c ****     *  transmitting finishes transmitting.
1352:.\Generated_Source\PSoC5/Impresora.c ****     *
1353:.\Generated_Source\PSoC5/Impresora.c ****     *******************************************************************************/
1354:.\Generated_Source\PSoC5/Impresora.c ****     void Impresora_ClearTxBuffer(void) 
1355:.\Generated_Source\PSoC5/Impresora.c ****     {
 1553              		.loc 1 1355 0
 1554              		.cfi_startproc
 1555              		@ args = 0, pretend = 0, frame = 8
 1556              		@ frame_needed = 1, uses_anonymous_args = 0
 1557 0000 80B5     		push	{r7, lr}
 1558              		.cfi_def_cfa_offset 8
 1559              		.cfi_offset 7, -8
 1560              		.cfi_offset 14, -4
 1561 0002 82B0     		sub	sp, sp, #8
 1562              		.cfi_def_cfa_offset 16
 1563 0004 00AF     		add	r7, sp, #0
 1564              		.cfi_def_cfa_register 7
1356:.\Generated_Source\PSoC5/Impresora.c ****         uint8 enableInterrupts;
1357:.\Generated_Source\PSoC5/Impresora.c **** 
1358:.\Generated_Source\PSoC5/Impresora.c ****         enableInterrupts = CyEnterCriticalSection();
 1565              		.loc 1 1358 0
 1566 0006 FFF7FEFF 		bl	CyEnterCriticalSection
 1567 000a 0346     		mov	r3, r0
 1568 000c FB71     		strb	r3, [r7, #7]
1359:.\Generated_Source\PSoC5/Impresora.c ****         /* Clear the HW FIFO */
1360:.\Generated_Source\PSoC5/Impresora.c ****         Impresora_TXDATA_AUX_CTL_REG |= (uint8)  Impresora_TX_FIFO_CLR;
 1569              		.loc 1 1360 0
 1570 000e 0B4A     		ldr	r2, .L105
 1571 0010 0A4B     		ldr	r3, .L105
 1572 0012 1B78     		ldrb	r3, [r3]
 1573 0014 DBB2     		uxtb	r3, r3
 1574 0016 43F00103 		orr	r3, r3, #1
 1575 001a DBB2     		uxtb	r3, r3
 1576 001c 1370     		strb	r3, [r2]
1361:.\Generated_Source\PSoC5/Impresora.c ****         Impresora_TXDATA_AUX_CTL_REG &= (uint8) ~Impresora_TX_FIFO_CLR;
 1577              		.loc 1 1361 0
 1578 001e 074A     		ldr	r2, .L105
 1579 0020 064B     		ldr	r3, .L105
 1580 0022 1B78     		ldrb	r3, [r3]
 1581 0024 DBB2     		uxtb	r3, r3
 1582 0026 23F00103 		bic	r3, r3, #1
 1583 002a DBB2     		uxtb	r3, r3
 1584 002c 1370     		strb	r3, [r2]
1362:.\Generated_Source\PSoC5/Impresora.c ****         CyExitCriticalSection(enableInterrupts);
 1585              		.loc 1 1362 0
 1586 002e FB79     		ldrb	r3, [r7, #7]	@ zero_extendqisi2
 1587 0030 1846     		mov	r0, r3
 1588 0032 FFF7FEFF 		bl	CyExitCriticalSection
1363:.\Generated_Source\PSoC5/Impresora.c **** 
1364:.\Generated_Source\PSoC5/Impresora.c ****     #if (Impresora_TX_INTERRUPT_ENABLED)
1365:.\Generated_Source\PSoC5/Impresora.c **** 
1366:.\Generated_Source\PSoC5/Impresora.c ****         /* Protect variables that could change on interrupt. */
1367:.\Generated_Source\PSoC5/Impresora.c ****         Impresora_DisableTxInt();
1368:.\Generated_Source\PSoC5/Impresora.c **** 
1369:.\Generated_Source\PSoC5/Impresora.c ****         Impresora_txBufferRead = 0u;
1370:.\Generated_Source\PSoC5/Impresora.c ****         Impresora_txBufferWrite = 0u;
1371:.\Generated_Source\PSoC5/Impresora.c **** 
ARM GAS  C:\Users\RECEPC~1\AppData\Local\Temp\ccU3VU2d.s 			page 53


1372:.\Generated_Source\PSoC5/Impresora.c ****         /* Enable Tx interrupt. */
1373:.\Generated_Source\PSoC5/Impresora.c ****         Impresora_EnableTxInt();
1374:.\Generated_Source\PSoC5/Impresora.c **** 
1375:.\Generated_Source\PSoC5/Impresora.c ****     #endif /* (Impresora_TX_INTERRUPT_ENABLED) */
1376:.\Generated_Source\PSoC5/Impresora.c ****     }
 1589              		.loc 1 1376 0
 1590 0036 0837     		adds	r7, r7, #8
 1591              		.cfi_def_cfa_offset 8
 1592 0038 BD46     		mov	sp, r7
 1593              		.cfi_def_cfa_register 13
 1594              		@ sp needed
 1595 003a 80BD     		pop	{r7, pc}
 1596              	.L106:
 1597              		.align	2
 1598              	.L105:
 1599 003c 9A640040 		.word	1073767578
 1600              		.cfi_endproc
 1601              	.LFE24:
 1602              		.size	Impresora_ClearTxBuffer, .-Impresora_ClearTxBuffer
 1603              		.section	.text.Impresora_SendBreak,"ax",%progbits
 1604              		.align	2
 1605              		.global	Impresora_SendBreak
 1606              		.thumb
 1607              		.thumb_func
 1608              		.type	Impresora_SendBreak, %function
 1609              	Impresora_SendBreak:
 1610              	.LFB25:
1377:.\Generated_Source\PSoC5/Impresora.c **** 
1378:.\Generated_Source\PSoC5/Impresora.c **** 
1379:.\Generated_Source\PSoC5/Impresora.c ****     /*******************************************************************************
1380:.\Generated_Source\PSoC5/Impresora.c ****     * Function Name: Impresora_SendBreak
1381:.\Generated_Source\PSoC5/Impresora.c ****     ********************************************************************************
1382:.\Generated_Source\PSoC5/Impresora.c ****     *
1383:.\Generated_Source\PSoC5/Impresora.c ****     * Summary:
1384:.\Generated_Source\PSoC5/Impresora.c ****     *  Transmits a break signal on the bus.
1385:.\Generated_Source\PSoC5/Impresora.c ****     *
1386:.\Generated_Source\PSoC5/Impresora.c ****     * Parameters:
1387:.\Generated_Source\PSoC5/Impresora.c ****     *  uint8 retMode:  Send Break return mode. See the following table for options.
1388:.\Generated_Source\PSoC5/Impresora.c ****     *   Impresora_SEND_BREAK - Initialize registers for break, send the Break
1389:.\Generated_Source\PSoC5/Impresora.c ****     *       signal and return immediately.
1390:.\Generated_Source\PSoC5/Impresora.c ****     *   Impresora_WAIT_FOR_COMPLETE_REINIT - Wait until break transmission is
1391:.\Generated_Source\PSoC5/Impresora.c ****     *       complete, reinitialize registers to normal transmission mode then return
1392:.\Generated_Source\PSoC5/Impresora.c ****     *   Impresora_REINIT - Reinitialize registers to normal transmission mode
1393:.\Generated_Source\PSoC5/Impresora.c ****     *       then return.
1394:.\Generated_Source\PSoC5/Impresora.c ****     *   Impresora_SEND_WAIT_REINIT - Performs both options: 
1395:.\Generated_Source\PSoC5/Impresora.c ****     *      Impresora_SEND_BREAK and Impresora_WAIT_FOR_COMPLETE_REINIT.
1396:.\Generated_Source\PSoC5/Impresora.c ****     *      This option is recommended for most cases.
1397:.\Generated_Source\PSoC5/Impresora.c ****     *
1398:.\Generated_Source\PSoC5/Impresora.c ****     * Return:
1399:.\Generated_Source\PSoC5/Impresora.c ****     *  None.
1400:.\Generated_Source\PSoC5/Impresora.c ****     *
1401:.\Generated_Source\PSoC5/Impresora.c ****     * Global Variables:
1402:.\Generated_Source\PSoC5/Impresora.c ****     *  Impresora_initVar - checked to identify that the component has been
1403:.\Generated_Source\PSoC5/Impresora.c ****     *     initialized.
1404:.\Generated_Source\PSoC5/Impresora.c ****     *  txPeriod - static variable, used for keeping TX period configuration.
1405:.\Generated_Source\PSoC5/Impresora.c ****     *
1406:.\Generated_Source\PSoC5/Impresora.c ****     * Reentrant:
ARM GAS  C:\Users\RECEPC~1\AppData\Local\Temp\ccU3VU2d.s 			page 54


1407:.\Generated_Source\PSoC5/Impresora.c ****     *  No.
1408:.\Generated_Source\PSoC5/Impresora.c ****     *
1409:.\Generated_Source\PSoC5/Impresora.c ****     * Theory:
1410:.\Generated_Source\PSoC5/Impresora.c ****     *  SendBreak function initializes registers to send 13-bit break signal. It is
1411:.\Generated_Source\PSoC5/Impresora.c ****     *  important to return the registers configuration to normal for continue 8-bit
1412:.\Generated_Source\PSoC5/Impresora.c ****     *  operation.
1413:.\Generated_Source\PSoC5/Impresora.c ****     *  There are 3 variants for this API usage:
1414:.\Generated_Source\PSoC5/Impresora.c ****     *  1) SendBreak(3) - function will send the Break signal and take care on the
1415:.\Generated_Source\PSoC5/Impresora.c ****     *     configuration returning. Function will block CPU until transmission
1416:.\Generated_Source\PSoC5/Impresora.c ****     *     complete.
1417:.\Generated_Source\PSoC5/Impresora.c ****     *  2) User may want to use blocking time if UART configured to the low speed
1418:.\Generated_Source\PSoC5/Impresora.c ****     *     operation
1419:.\Generated_Source\PSoC5/Impresora.c ****     *     Example for this case:
1420:.\Generated_Source\PSoC5/Impresora.c ****     *     SendBreak(0);     - initialize Break signal transmission
1421:.\Generated_Source\PSoC5/Impresora.c ****     *         Add your code here to use CPU time
1422:.\Generated_Source\PSoC5/Impresora.c ****     *     SendBreak(1);     - complete Break operation
1423:.\Generated_Source\PSoC5/Impresora.c ****     *  3) Same to 2) but user may want to initialize and use the interrupt to
1424:.\Generated_Source\PSoC5/Impresora.c ****     *     complete break operation.
1425:.\Generated_Source\PSoC5/Impresora.c ****     *     Example for this case:
1426:.\Generated_Source\PSoC5/Impresora.c ****     *     Initialize TX interrupt with "TX - On TX Complete" parameter
1427:.\Generated_Source\PSoC5/Impresora.c ****     *     SendBreak(0);     - initialize Break signal transmission
1428:.\Generated_Source\PSoC5/Impresora.c ****     *         Add your code here to use CPU time
1429:.\Generated_Source\PSoC5/Impresora.c ****     *     When interrupt appear with Impresora_TX_STS_COMPLETE status:
1430:.\Generated_Source\PSoC5/Impresora.c ****     *     SendBreak(2);     - complete Break operation
1431:.\Generated_Source\PSoC5/Impresora.c ****     *
1432:.\Generated_Source\PSoC5/Impresora.c ****     * Side Effects:
1433:.\Generated_Source\PSoC5/Impresora.c ****     *  The Impresora_SendBreak() function initializes registers to send a
1434:.\Generated_Source\PSoC5/Impresora.c ****     *  break signal.
1435:.\Generated_Source\PSoC5/Impresora.c ****     *  Break signal length depends on the break signal bits configuration.
1436:.\Generated_Source\PSoC5/Impresora.c ****     *  The register configuration should be reinitialized before normal 8-bit
1437:.\Generated_Source\PSoC5/Impresora.c ****     *  communication can continue.
1438:.\Generated_Source\PSoC5/Impresora.c ****     *
1439:.\Generated_Source\PSoC5/Impresora.c ****     *******************************************************************************/
1440:.\Generated_Source\PSoC5/Impresora.c ****     void Impresora_SendBreak(uint8 retMode) 
1441:.\Generated_Source\PSoC5/Impresora.c ****     {
 1611              		.loc 1 1441 0
 1612              		.cfi_startproc
 1613              		@ args = 0, pretend = 0, frame = 16
 1614              		@ frame_needed = 1, uses_anonymous_args = 0
 1615 0000 80B5     		push	{r7, lr}
 1616              		.cfi_def_cfa_offset 8
 1617              		.cfi_offset 7, -8
 1618              		.cfi_offset 14, -4
 1619 0002 84B0     		sub	sp, sp, #16
 1620              		.cfi_def_cfa_offset 24
 1621 0004 00AF     		add	r7, sp, #0
 1622              		.cfi_def_cfa_register 7
 1623 0006 0346     		mov	r3, r0
 1624 0008 FB71     		strb	r3, [r7, #7]
1442:.\Generated_Source\PSoC5/Impresora.c **** 
1443:.\Generated_Source\PSoC5/Impresora.c ****         /* If not Initialized then skip this function*/
1444:.\Generated_Source\PSoC5/Impresora.c ****         if(Impresora_initVar != 0u)
 1625              		.loc 1 1444 0
 1626 000a 274B     		ldr	r3, .L115
 1627 000c 1B78     		ldrb	r3, [r3]	@ zero_extendqisi2
 1628 000e 002B     		cmp	r3, #0
 1629 0010 47D0     		beq	.L107
ARM GAS  C:\Users\RECEPC~1\AppData\Local\Temp\ccU3VU2d.s 			page 55


 1630              	.LBB2:
1445:.\Generated_Source\PSoC5/Impresora.c ****         {
1446:.\Generated_Source\PSoC5/Impresora.c ****             /* Set the Counter to 13-bits and transmit a 00 byte */
1447:.\Generated_Source\PSoC5/Impresora.c ****             /* When that is done then reset the counter value back */
1448:.\Generated_Source\PSoC5/Impresora.c ****             uint8 tmpStat;
1449:.\Generated_Source\PSoC5/Impresora.c **** 
1450:.\Generated_Source\PSoC5/Impresora.c ****         #if(Impresora_HD_ENABLED) /* Half Duplex mode*/
1451:.\Generated_Source\PSoC5/Impresora.c **** 
1452:.\Generated_Source\PSoC5/Impresora.c ****             if( (retMode == Impresora_SEND_BREAK) ||
1453:.\Generated_Source\PSoC5/Impresora.c ****                 (retMode == Impresora_SEND_WAIT_REINIT ) )
1454:.\Generated_Source\PSoC5/Impresora.c ****             {
1455:.\Generated_Source\PSoC5/Impresora.c ****                 /* CTRL_HD_SEND_BREAK - sends break bits in HD mode */
1456:.\Generated_Source\PSoC5/Impresora.c ****                 Impresora_WriteControlRegister(Impresora_ReadControlRegister() |
1457:.\Generated_Source\PSoC5/Impresora.c ****                                                       Impresora_CTRL_HD_SEND_BREAK);
1458:.\Generated_Source\PSoC5/Impresora.c ****                 /* Send zeros */
1459:.\Generated_Source\PSoC5/Impresora.c ****                 Impresora_TXDATA_REG = 0u;
1460:.\Generated_Source\PSoC5/Impresora.c **** 
1461:.\Generated_Source\PSoC5/Impresora.c ****                 do /* Wait until transmit starts */
1462:.\Generated_Source\PSoC5/Impresora.c ****                 {
1463:.\Generated_Source\PSoC5/Impresora.c ****                     tmpStat = Impresora_TXSTATUS_REG;
1464:.\Generated_Source\PSoC5/Impresora.c ****                 }
1465:.\Generated_Source\PSoC5/Impresora.c ****                 while((tmpStat & Impresora_TX_STS_FIFO_EMPTY) != 0u);
1466:.\Generated_Source\PSoC5/Impresora.c ****             }
1467:.\Generated_Source\PSoC5/Impresora.c **** 
1468:.\Generated_Source\PSoC5/Impresora.c ****             if( (retMode == Impresora_WAIT_FOR_COMPLETE_REINIT) ||
1469:.\Generated_Source\PSoC5/Impresora.c ****                 (retMode == Impresora_SEND_WAIT_REINIT) )
1470:.\Generated_Source\PSoC5/Impresora.c ****             {
1471:.\Generated_Source\PSoC5/Impresora.c ****                 do /* Wait until transmit complete */
1472:.\Generated_Source\PSoC5/Impresora.c ****                 {
1473:.\Generated_Source\PSoC5/Impresora.c ****                     tmpStat = Impresora_TXSTATUS_REG;
1474:.\Generated_Source\PSoC5/Impresora.c ****                 }
1475:.\Generated_Source\PSoC5/Impresora.c ****                 while(((uint8)~tmpStat & Impresora_TX_STS_COMPLETE) != 0u);
1476:.\Generated_Source\PSoC5/Impresora.c ****             }
1477:.\Generated_Source\PSoC5/Impresora.c **** 
1478:.\Generated_Source\PSoC5/Impresora.c ****             if( (retMode == Impresora_WAIT_FOR_COMPLETE_REINIT) ||
1479:.\Generated_Source\PSoC5/Impresora.c ****                 (retMode == Impresora_REINIT) ||
1480:.\Generated_Source\PSoC5/Impresora.c ****                 (retMode == Impresora_SEND_WAIT_REINIT) )
1481:.\Generated_Source\PSoC5/Impresora.c ****             {
1482:.\Generated_Source\PSoC5/Impresora.c ****                 Impresora_WriteControlRegister(Impresora_ReadControlRegister() &
1483:.\Generated_Source\PSoC5/Impresora.c ****                                               (uint8)~Impresora_CTRL_HD_SEND_BREAK);
1484:.\Generated_Source\PSoC5/Impresora.c ****             }
1485:.\Generated_Source\PSoC5/Impresora.c **** 
1486:.\Generated_Source\PSoC5/Impresora.c ****         #else /* Impresora_HD_ENABLED Full Duplex mode */
1487:.\Generated_Source\PSoC5/Impresora.c **** 
1488:.\Generated_Source\PSoC5/Impresora.c ****             static uint8 txPeriod;
1489:.\Generated_Source\PSoC5/Impresora.c **** 
1490:.\Generated_Source\PSoC5/Impresora.c ****             if( (retMode == Impresora_SEND_BREAK) ||
 1631              		.loc 1 1490 0
 1632 0012 FB79     		ldrb	r3, [r7, #7]	@ zero_extendqisi2
 1633 0014 002B     		cmp	r3, #0
 1634 0016 02D0     		beq	.L109
 1635              		.loc 1 1490 0 is_stmt 0 discriminator 1
 1636 0018 FB79     		ldrb	r3, [r7, #7]	@ zero_extendqisi2
 1637 001a 032B     		cmp	r3, #3
 1638 001c 1BD1     		bne	.L110
 1639              	.L109:
1491:.\Generated_Source\PSoC5/Impresora.c ****                 (retMode == Impresora_SEND_WAIT_REINIT) )
ARM GAS  C:\Users\RECEPC~1\AppData\Local\Temp\ccU3VU2d.s 			page 56


1492:.\Generated_Source\PSoC5/Impresora.c ****             {
1493:.\Generated_Source\PSoC5/Impresora.c ****                 /* CTRL_HD_SEND_BREAK - skip to send parity bit at Break signal in Full Duplex mode
1494:.\Generated_Source\PSoC5/Impresora.c ****                 #if( (Impresora_PARITY_TYPE != Impresora__B_UART__NONE_REVB) || \
1495:.\Generated_Source\PSoC5/Impresora.c ****                                     (Impresora_PARITY_TYPE_SW != 0u) )
1496:.\Generated_Source\PSoC5/Impresora.c ****                     Impresora_WriteControlRegister(Impresora_ReadControlRegister() |
 1640              		.loc 1 1496 0 is_stmt 1
 1641 001e FFF7FEFF 		bl	Impresora_ReadControlRegister
 1642 0022 0346     		mov	r3, r0
 1643 0024 43F00203 		orr	r3, r3, #2
 1644 0028 DBB2     		uxtb	r3, r3
 1645 002a 1846     		mov	r0, r3
 1646 002c FFF7FEFF 		bl	Impresora_WriteControlRegister
1497:.\Generated_Source\PSoC5/Impresora.c ****                                                           Impresora_CTRL_HD_SEND_BREAK);
1498:.\Generated_Source\PSoC5/Impresora.c ****                 #endif /* End Impresora_PARITY_TYPE != Impresora__B_UART__NONE_REVB  */
1499:.\Generated_Source\PSoC5/Impresora.c **** 
1500:.\Generated_Source\PSoC5/Impresora.c ****                 #if(Impresora_TXCLKGEN_DP)
1501:.\Generated_Source\PSoC5/Impresora.c ****                     txPeriod = Impresora_TXBITCLKTX_COMPLETE_REG;
 1647              		.loc 1 1501 0
 1648 0030 1E4B     		ldr	r3, .L115+4
 1649 0032 1B78     		ldrb	r3, [r3]
 1650 0034 DAB2     		uxtb	r2, r3
 1651 0036 1E4B     		ldr	r3, .L115+8
 1652 0038 1A70     		strb	r2, [r3]
1502:.\Generated_Source\PSoC5/Impresora.c ****                     Impresora_TXBITCLKTX_COMPLETE_REG = Impresora_TXBITCTR_BREAKBITS;
 1653              		.loc 1 1502 0
 1654 003a 1C4B     		ldr	r3, .L115+4
 1655 003c 6722     		movs	r2, #103
 1656 003e 1A70     		strb	r2, [r3]
1503:.\Generated_Source\PSoC5/Impresora.c ****                 #else
1504:.\Generated_Source\PSoC5/Impresora.c ****                     txPeriod = Impresora_TXBITCTR_PERIOD_REG;
1505:.\Generated_Source\PSoC5/Impresora.c ****                     Impresora_TXBITCTR_PERIOD_REG = Impresora_TXBITCTR_BREAKBITS8X;
1506:.\Generated_Source\PSoC5/Impresora.c ****                 #endif /* End Impresora_TXCLKGEN_DP */
1507:.\Generated_Source\PSoC5/Impresora.c **** 
1508:.\Generated_Source\PSoC5/Impresora.c ****                 /* Send zeros */
1509:.\Generated_Source\PSoC5/Impresora.c ****                 Impresora_TXDATA_REG = 0u;
 1657              		.loc 1 1509 0
 1658 0040 1C4B     		ldr	r3, .L115+12
 1659 0042 0022     		movs	r2, #0
 1660 0044 1A70     		strb	r2, [r3]
 1661              	.L111:
1510:.\Generated_Source\PSoC5/Impresora.c **** 
1511:.\Generated_Source\PSoC5/Impresora.c ****                 do /* Wait until transmit starts */
1512:.\Generated_Source\PSoC5/Impresora.c ****                 {
1513:.\Generated_Source\PSoC5/Impresora.c ****                     tmpStat = Impresora_TXSTATUS_REG;
 1662              		.loc 1 1513 0 discriminator 1
 1663 0046 1C4B     		ldr	r3, .L115+16
 1664 0048 1B78     		ldrb	r3, [r3]
 1665 004a FB73     		strb	r3, [r7, #15]
1514:.\Generated_Source\PSoC5/Impresora.c ****                 }
1515:.\Generated_Source\PSoC5/Impresora.c ****                 while((tmpStat & Impresora_TX_STS_FIFO_EMPTY) != 0u);
 1666              		.loc 1 1515 0 discriminator 1
 1667 004c FB7B     		ldrb	r3, [r7, #15]	@ zero_extendqisi2
 1668 004e 03F00203 		and	r3, r3, #2
 1669 0052 002B     		cmp	r3, #0
 1670 0054 F7D1     		bne	.L111
 1671              	.L110:
1516:.\Generated_Source\PSoC5/Impresora.c ****             }
ARM GAS  C:\Users\RECEPC~1\AppData\Local\Temp\ccU3VU2d.s 			page 57


1517:.\Generated_Source\PSoC5/Impresora.c **** 
1518:.\Generated_Source\PSoC5/Impresora.c ****             if( (retMode == Impresora_WAIT_FOR_COMPLETE_REINIT) ||
 1672              		.loc 1 1518 0
 1673 0056 FB79     		ldrb	r3, [r7, #7]	@ zero_extendqisi2
 1674 0058 012B     		cmp	r3, #1
 1675 005a 02D0     		beq	.L112
 1676              		.loc 1 1518 0 is_stmt 0 discriminator 1
 1677 005c FB79     		ldrb	r3, [r7, #7]	@ zero_extendqisi2
 1678 005e 032B     		cmp	r3, #3
 1679 0060 09D1     		bne	.L113
 1680              	.L112:
1519:.\Generated_Source\PSoC5/Impresora.c ****                 (retMode == Impresora_SEND_WAIT_REINIT) )
1520:.\Generated_Source\PSoC5/Impresora.c ****             {
1521:.\Generated_Source\PSoC5/Impresora.c ****                 do /* Wait until transmit complete */
1522:.\Generated_Source\PSoC5/Impresora.c ****                 {
1523:.\Generated_Source\PSoC5/Impresora.c ****                     tmpStat = Impresora_TXSTATUS_REG;
 1681              		.loc 1 1523 0 is_stmt 1 discriminator 1
 1682 0062 154B     		ldr	r3, .L115+16
 1683 0064 1B78     		ldrb	r3, [r3]
 1684 0066 FB73     		strb	r3, [r7, #15]
1524:.\Generated_Source\PSoC5/Impresora.c ****                 }
1525:.\Generated_Source\PSoC5/Impresora.c ****                 while(((uint8)~tmpStat & Impresora_TX_STS_COMPLETE) != 0u);
 1685              		.loc 1 1525 0 discriminator 1
 1686 0068 FB7B     		ldrb	r3, [r7, #15]
 1687 006a DB43     		mvns	r3, r3
 1688 006c DBB2     		uxtb	r3, r3
 1689 006e 03F00103 		and	r3, r3, #1
 1690 0072 002B     		cmp	r3, #0
 1691 0074 F5D1     		bne	.L112
 1692              	.L113:
1526:.\Generated_Source\PSoC5/Impresora.c ****             }
1527:.\Generated_Source\PSoC5/Impresora.c **** 
1528:.\Generated_Source\PSoC5/Impresora.c ****             if( (retMode == Impresora_WAIT_FOR_COMPLETE_REINIT) ||
 1693              		.loc 1 1528 0
 1694 0076 FB79     		ldrb	r3, [r7, #7]	@ zero_extendqisi2
 1695 0078 012B     		cmp	r3, #1
 1696 007a 05D0     		beq	.L114
 1697              		.loc 1 1528 0 is_stmt 0 discriminator 1
 1698 007c FB79     		ldrb	r3, [r7, #7]	@ zero_extendqisi2
 1699 007e 022B     		cmp	r3, #2
 1700 0080 02D0     		beq	.L114
1529:.\Generated_Source\PSoC5/Impresora.c ****                 (retMode == Impresora_REINIT) ||
 1701              		.loc 1 1529 0 is_stmt 1
 1702 0082 FB79     		ldrb	r3, [r7, #7]	@ zero_extendqisi2
 1703 0084 032B     		cmp	r3, #3
 1704 0086 0CD1     		bne	.L107
 1705              	.L114:
1530:.\Generated_Source\PSoC5/Impresora.c ****                 (retMode == Impresora_SEND_WAIT_REINIT) )
1531:.\Generated_Source\PSoC5/Impresora.c ****             {
1532:.\Generated_Source\PSoC5/Impresora.c **** 
1533:.\Generated_Source\PSoC5/Impresora.c ****             #if(Impresora_TXCLKGEN_DP)
1534:.\Generated_Source\PSoC5/Impresora.c ****                 Impresora_TXBITCLKTX_COMPLETE_REG = txPeriod;
 1706              		.loc 1 1534 0
 1707 0088 084B     		ldr	r3, .L115+4
 1708 008a 094A     		ldr	r2, .L115+8
 1709 008c 1278     		ldrb	r2, [r2]	@ zero_extendqisi2
 1710 008e 1A70     		strb	r2, [r3]
ARM GAS  C:\Users\RECEPC~1\AppData\Local\Temp\ccU3VU2d.s 			page 58


1535:.\Generated_Source\PSoC5/Impresora.c ****             #else
1536:.\Generated_Source\PSoC5/Impresora.c ****                 Impresora_TXBITCTR_PERIOD_REG = txPeriod;
1537:.\Generated_Source\PSoC5/Impresora.c ****             #endif /* End Impresora_TXCLKGEN_DP */
1538:.\Generated_Source\PSoC5/Impresora.c **** 
1539:.\Generated_Source\PSoC5/Impresora.c ****             #if( (Impresora_PARITY_TYPE != Impresora__B_UART__NONE_REVB) || \
1540:.\Generated_Source\PSoC5/Impresora.c ****                  (Impresora_PARITY_TYPE_SW != 0u) )
1541:.\Generated_Source\PSoC5/Impresora.c ****                 Impresora_WriteControlRegister(Impresora_ReadControlRegister() &
 1711              		.loc 1 1541 0
 1712 0090 FFF7FEFF 		bl	Impresora_ReadControlRegister
 1713 0094 0346     		mov	r3, r0
 1714 0096 23F00203 		bic	r3, r3, #2
 1715 009a DBB2     		uxtb	r3, r3
 1716 009c 1846     		mov	r0, r3
 1717 009e FFF7FEFF 		bl	Impresora_WriteControlRegister
 1718              	.L107:
 1719              	.LBE2:
1542:.\Generated_Source\PSoC5/Impresora.c ****                                                       (uint8) ~Impresora_CTRL_HD_SEND_BREAK);
1543:.\Generated_Source\PSoC5/Impresora.c ****             #endif /* End Impresora_PARITY_TYPE != NONE */
1544:.\Generated_Source\PSoC5/Impresora.c ****             }
1545:.\Generated_Source\PSoC5/Impresora.c ****         #endif    /* End Impresora_HD_ENABLED */
1546:.\Generated_Source\PSoC5/Impresora.c ****         }
1547:.\Generated_Source\PSoC5/Impresora.c ****     }
 1720              		.loc 1 1547 0
 1721 00a2 1037     		adds	r7, r7, #16
 1722              		.cfi_def_cfa_offset 8
 1723 00a4 BD46     		mov	sp, r7
 1724              		.cfi_def_cfa_register 13
 1725              		@ sp needed
 1726 00a6 80BD     		pop	{r7, pc}
 1727              	.L116:
 1728              		.align	2
 1729              	.L115:
 1730 00a8 00000000 		.word	Impresora_initVar
 1731 00ac 39640040 		.word	1073767481
 1732 00b0 06000000 		.word	txPeriod.4985
 1733 00b4 4A640040 		.word	1073767498
 1734 00b8 6A640040 		.word	1073767530
 1735              		.cfi_endproc
 1736              	.LFE25:
 1737              		.size	Impresora_SendBreak, .-Impresora_SendBreak
 1738              		.section	.text.Impresora_SetTxAddressMode,"ax",%progbits
 1739              		.align	2
 1740              		.global	Impresora_SetTxAddressMode
 1741              		.thumb
 1742              		.thumb_func
 1743              		.type	Impresora_SetTxAddressMode, %function
 1744              	Impresora_SetTxAddressMode:
 1745              	.LFB26:
1548:.\Generated_Source\PSoC5/Impresora.c **** 
1549:.\Generated_Source\PSoC5/Impresora.c **** 
1550:.\Generated_Source\PSoC5/Impresora.c ****     /*******************************************************************************
1551:.\Generated_Source\PSoC5/Impresora.c ****     * Function Name: Impresora_SetTxAddressMode
1552:.\Generated_Source\PSoC5/Impresora.c ****     ********************************************************************************
1553:.\Generated_Source\PSoC5/Impresora.c ****     *
1554:.\Generated_Source\PSoC5/Impresora.c ****     * Summary:
1555:.\Generated_Source\PSoC5/Impresora.c ****     *  Configures the transmitter to signal the next bytes is address or data.
1556:.\Generated_Source\PSoC5/Impresora.c ****     *
ARM GAS  C:\Users\RECEPC~1\AppData\Local\Temp\ccU3VU2d.s 			page 59


1557:.\Generated_Source\PSoC5/Impresora.c ****     * Parameters:
1558:.\Generated_Source\PSoC5/Impresora.c ****     *  addressMode: 
1559:.\Generated_Source\PSoC5/Impresora.c ****     *       Impresora_SET_SPACE - Configure the transmitter to send the next
1560:.\Generated_Source\PSoC5/Impresora.c ****     *                                    byte as a data.
1561:.\Generated_Source\PSoC5/Impresora.c ****     *       Impresora_SET_MARK  - Configure the transmitter to send the next
1562:.\Generated_Source\PSoC5/Impresora.c ****     *                                    byte as an address.
1563:.\Generated_Source\PSoC5/Impresora.c ****     *
1564:.\Generated_Source\PSoC5/Impresora.c ****     * Return:
1565:.\Generated_Source\PSoC5/Impresora.c ****     *  None.
1566:.\Generated_Source\PSoC5/Impresora.c ****     *
1567:.\Generated_Source\PSoC5/Impresora.c ****     * Side Effects:
1568:.\Generated_Source\PSoC5/Impresora.c ****     *  This function sets and clears Impresora_CTRL_MARK bit in the Control
1569:.\Generated_Source\PSoC5/Impresora.c ****     *  register.
1570:.\Generated_Source\PSoC5/Impresora.c ****     *
1571:.\Generated_Source\PSoC5/Impresora.c ****     *******************************************************************************/
1572:.\Generated_Source\PSoC5/Impresora.c ****     void Impresora_SetTxAddressMode(uint8 addressMode) 
1573:.\Generated_Source\PSoC5/Impresora.c ****     {
 1746              		.loc 1 1573 0
 1747              		.cfi_startproc
 1748              		@ args = 0, pretend = 0, frame = 8
 1749              		@ frame_needed = 1, uses_anonymous_args = 0
 1750              		@ link register save eliminated.
 1751 0000 80B4     		push	{r7}
 1752              		.cfi_def_cfa_offset 4
 1753              		.cfi_offset 7, -4
 1754 0002 83B0     		sub	sp, sp, #12
 1755              		.cfi_def_cfa_offset 16
 1756 0004 00AF     		add	r7, sp, #0
 1757              		.cfi_def_cfa_register 7
 1758 0006 0346     		mov	r3, r0
 1759 0008 FB71     		strb	r3, [r7, #7]
1574:.\Generated_Source\PSoC5/Impresora.c ****         /* Mark/Space sending enable */
1575:.\Generated_Source\PSoC5/Impresora.c ****         if(addressMode != 0u)
1576:.\Generated_Source\PSoC5/Impresora.c ****         {
1577:.\Generated_Source\PSoC5/Impresora.c ****         #if( Impresora_CONTROL_REG_REMOVED == 0u )
1578:.\Generated_Source\PSoC5/Impresora.c ****             Impresora_WriteControlRegister(Impresora_ReadControlRegister() |
1579:.\Generated_Source\PSoC5/Impresora.c ****                                                   Impresora_CTRL_MARK);
1580:.\Generated_Source\PSoC5/Impresora.c ****         #endif /* End Impresora_CONTROL_REG_REMOVED == 0u */
1581:.\Generated_Source\PSoC5/Impresora.c ****         }
1582:.\Generated_Source\PSoC5/Impresora.c ****         else
1583:.\Generated_Source\PSoC5/Impresora.c ****         {
1584:.\Generated_Source\PSoC5/Impresora.c ****         #if( Impresora_CONTROL_REG_REMOVED == 0u )
1585:.\Generated_Source\PSoC5/Impresora.c ****             Impresora_WriteControlRegister(Impresora_ReadControlRegister() &
1586:.\Generated_Source\PSoC5/Impresora.c ****                                                   (uint8) ~Impresora_CTRL_MARK);
1587:.\Generated_Source\PSoC5/Impresora.c ****         #endif /* End Impresora_CONTROL_REG_REMOVED == 0u */
1588:.\Generated_Source\PSoC5/Impresora.c ****         }
1589:.\Generated_Source\PSoC5/Impresora.c ****     }
 1760              		.loc 1 1589 0
 1761 000a 0C37     		adds	r7, r7, #12
 1762              		.cfi_def_cfa_offset 4
 1763 000c BD46     		mov	sp, r7
 1764              		.cfi_def_cfa_register 13
 1765              		@ sp needed
 1766 000e 5DF8047B 		ldr	r7, [sp], #4
 1767              		.cfi_restore 7
 1768              		.cfi_def_cfa_offset 0
 1769 0012 7047     		bx	lr
ARM GAS  C:\Users\RECEPC~1\AppData\Local\Temp\ccU3VU2d.s 			page 60


 1770              		.cfi_endproc
 1771              	.LFE26:
 1772              		.size	Impresora_SetTxAddressMode, .-Impresora_SetTxAddressMode
 1773              		.bss
 1774              	txPeriod.4985:
 1775 0006 00       		.space	1
 1776              		.text
 1777              	.Letext0:
 1778              		.file 2 ".\\Generated_Source\\PSoC5\\cytypes.h"
 1779              		.section	.debug_info,"",%progbits
 1780              	.Ldebug_info0:
 1781 0000 E3050000 		.4byte	0x5e3
 1782 0004 0400     		.2byte	0x4
 1783 0006 00000000 		.4byte	.Ldebug_abbrev0
 1784 000a 04       		.byte	0x4
 1785 000b 01       		.uleb128 0x1
 1786 000c AA020000 		.4byte	.LASF72
 1787 0010 01       		.byte	0x1
 1788 0011 37000000 		.4byte	.LASF73
 1789 0015 33050000 		.4byte	.LASF74
 1790 0019 00000000 		.4byte	.Ldebug_ranges0+0
 1791 001d 00000000 		.4byte	0
 1792 0021 00000000 		.4byte	.Ldebug_line0
 1793 0025 02       		.uleb128 0x2
 1794 0026 01       		.byte	0x1
 1795 0027 06       		.byte	0x6
 1796 0028 A0000000 		.4byte	.LASF0
 1797 002c 02       		.uleb128 0x2
 1798 002d 01       		.byte	0x1
 1799 002e 08       		.byte	0x8
 1800 002f E0030000 		.4byte	.LASF1
 1801 0033 02       		.uleb128 0x2
 1802 0034 02       		.byte	0x2
 1803 0035 05       		.byte	0x5
 1804 0036 EE030000 		.4byte	.LASF2
 1805 003a 02       		.uleb128 0x2
 1806 003b 02       		.byte	0x2
 1807 003c 07       		.byte	0x7
 1808 003d 35020000 		.4byte	.LASF3
 1809 0041 02       		.uleb128 0x2
 1810 0042 04       		.byte	0x4
 1811 0043 05       		.byte	0x5
 1812 0044 E8000000 		.4byte	.LASF4
 1813 0048 02       		.uleb128 0x2
 1814 0049 04       		.byte	0x4
 1815 004a 07       		.byte	0x7
 1816 004b D3010000 		.4byte	.LASF5
 1817 004f 02       		.uleb128 0x2
 1818 0050 08       		.byte	0x8
 1819 0051 05       		.byte	0x5
 1820 0052 92000000 		.4byte	.LASF6
 1821 0056 02       		.uleb128 0x2
 1822 0057 08       		.byte	0x8
 1823 0058 07       		.byte	0x7
 1824 0059 63000000 		.4byte	.LASF7
 1825 005d 03       		.uleb128 0x3
 1826 005e 04       		.byte	0x4
ARM GAS  C:\Users\RECEPC~1\AppData\Local\Temp\ccU3VU2d.s 			page 61


 1827 005f 05       		.byte	0x5
 1828 0060 696E7400 		.ascii	"int\000"
 1829 0064 02       		.uleb128 0x2
 1830 0065 04       		.byte	0x4
 1831 0066 07       		.byte	0x7
 1832 0067 78010000 		.4byte	.LASF8
 1833 006b 04       		.uleb128 0x4
 1834 006c 20010000 		.4byte	.LASF9
 1835 0070 02       		.byte	0x2
 1836 0071 B4       		.byte	0xb4
 1837 0072 2C000000 		.4byte	0x2c
 1838 0076 04       		.uleb128 0x4
 1839 0077 12000000 		.4byte	.LASF10
 1840 007b 02       		.byte	0x2
 1841 007c B5       		.byte	0xb5
 1842 007d 3A000000 		.4byte	0x3a
 1843 0081 04       		.uleb128 0x4
 1844 0082 39010000 		.4byte	.LASF11
 1845 0086 02       		.byte	0x2
 1846 0087 B6       		.byte	0xb6
 1847 0088 48000000 		.4byte	0x48
 1848 008c 02       		.uleb128 0x2
 1849 008d 04       		.byte	0x4
 1850 008e 04       		.byte	0x4
 1851 008f 6B030000 		.4byte	.LASF12
 1852 0093 02       		.uleb128 0x2
 1853 0094 08       		.byte	0x8
 1854 0095 04       		.byte	0x4
 1855 0096 26010000 		.4byte	.LASF13
 1856 009a 04       		.uleb128 0x4
 1857 009b 61040000 		.4byte	.LASF14
 1858 009f 02       		.byte	0x2
 1859 00a0 C5       		.byte	0xc5
 1860 00a1 A5000000 		.4byte	0xa5
 1861 00a5 02       		.uleb128 0x2
 1862 00a6 01       		.byte	0x1
 1863 00a7 08       		.byte	0x8
 1864 00a8 32040000 		.4byte	.LASF15
 1865 00ac 05       		.uleb128 0x5
 1866 00ad 8B030000 		.4byte	.LASF16
 1867 00b1 02       		.byte	0x2
 1868 00b2 5E01     		.2byte	0x15e
 1869 00b4 B8000000 		.4byte	0xb8
 1870 00b8 06       		.uleb128 0x6
 1871 00b9 6B000000 		.4byte	0x6b
 1872 00bd 05       		.uleb128 0x5
 1873 00be 78020000 		.4byte	.LASF17
 1874 00c2 02       		.byte	0x2
 1875 00c3 6001     		.2byte	0x160
 1876 00c5 C9000000 		.4byte	0xc9
 1877 00c9 06       		.uleb128 0x6
 1878 00ca 81000000 		.4byte	0x81
 1879 00ce 02       		.uleb128 0x2
 1880 00cf 04       		.byte	0x4
 1881 00d0 07       		.byte	0x7
 1882 00d1 99020000 		.4byte	.LASF18
 1883 00d5 07       		.uleb128 0x7
ARM GAS  C:\Users\RECEPC~1\AppData\Local\Temp\ccU3VU2d.s 			page 62


 1884 00d6 82000000 		.4byte	.LASF19
 1885 00da 01       		.byte	0x1
 1886 00db 4C       		.byte	0x4c
 1887 00dc 00000000 		.4byte	.LFB0
 1888 00e0 20000000 		.4byte	.LFE0-.LFB0
 1889 00e4 01       		.uleb128 0x1
 1890 00e5 9C       		.byte	0x9c
 1891 00e6 07       		.uleb128 0x7
 1892 00e7 86040000 		.4byte	.LASF20
 1893 00eb 01       		.byte	0x1
 1894 00ec 6A       		.byte	0x6a
 1895 00ed 00000000 		.4byte	.LFB1
 1896 00f1 58000000 		.4byte	.LFE1-.LFB1
 1897 00f5 01       		.uleb128 0x1
 1898 00f6 9C       		.byte	0x9c
 1899 00f7 08       		.uleb128 0x8
 1900 00f8 85010000 		.4byte	.LASF21
 1901 00fc 01       		.byte	0x1
 1902 00fd B7       		.byte	0xb7
 1903 00fe 00000000 		.4byte	.LFB2
 1904 0102 64000000 		.4byte	.LFE2-.LFB2
 1905 0106 01       		.uleb128 0x1
 1906 0107 9C       		.byte	0x9c
 1907 0108 1B010000 		.4byte	0x11b
 1908 010c 09       		.uleb128 0x9
 1909 010d D1040000 		.4byte	.LASF23
 1910 0111 01       		.byte	0x1
 1911 0112 B9       		.byte	0xb9
 1912 0113 6B000000 		.4byte	0x6b
 1913 0117 02       		.uleb128 0x2
 1914 0118 91       		.byte	0x91
 1915 0119 77       		.sleb128 -9
 1916 011a 00       		.byte	0
 1917 011b 08       		.uleb128 0x8
 1918 011c 51020000 		.4byte	.LASF22
 1919 0120 01       		.byte	0x1
 1920 0121 F0       		.byte	0xf0
 1921 0122 00000000 		.4byte	.LFB3
 1922 0126 64000000 		.4byte	.LFE3-.LFB3
 1923 012a 01       		.uleb128 0x1
 1924 012b 9C       		.byte	0x9c
 1925 012c 3F010000 		.4byte	0x13f
 1926 0130 09       		.uleb128 0x9
 1927 0131 D1040000 		.4byte	.LASF23
 1928 0135 01       		.byte	0x1
 1929 0136 F2       		.byte	0xf2
 1930 0137 6B000000 		.4byte	0x6b
 1931 013b 02       		.uleb128 0x2
 1932 013c 91       		.byte	0x91
 1933 013d 77       		.sleb128 -9
 1934 013e 00       		.byte	0
 1935 013f 0A       		.uleb128 0xa
 1936 0140 5A010000 		.4byte	.LASF49
 1937 0144 01       		.byte	0x1
 1938 0145 2701     		.2byte	0x127
 1939 0147 6B000000 		.4byte	0x6b
 1940 014b 00000000 		.4byte	.LFB4
ARM GAS  C:\Users\RECEPC~1\AppData\Local\Temp\ccU3VU2d.s 			page 63


 1941 014f 10000000 		.4byte	.LFE4-.LFB4
 1942 0153 01       		.uleb128 0x1
 1943 0154 9C       		.byte	0x9c
 1944 0155 0B       		.uleb128 0xb
 1945 0156 67040000 		.4byte	.LASF24
 1946 015a 01       		.byte	0x1
 1947 015b 3F01     		.2byte	0x13f
 1948 015d 00000000 		.4byte	.LFB5
 1949 0161 14000000 		.4byte	.LFE5-.LFB5
 1950 0165 01       		.uleb128 0x1
 1951 0166 9C       		.byte	0x9c
 1952 0167 7B010000 		.4byte	0x17b
 1953 016b 0C       		.uleb128 0xc
 1954 016c 40010000 		.4byte	.LASF26
 1955 0170 01       		.byte	0x1
 1956 0171 3F01     		.2byte	0x13f
 1957 0173 6B000000 		.4byte	0x6b
 1958 0177 02       		.uleb128 0x2
 1959 0178 91       		.byte	0x91
 1960 0179 77       		.sleb128 -9
 1961 017a 00       		.byte	0
 1962 017b 0B       		.uleb128 0xb
 1963 017c AD030000 		.4byte	.LASF25
 1964 0180 01       		.byte	0x1
 1965 0181 6701     		.2byte	0x167
 1966 0183 00000000 		.4byte	.LFB6
 1967 0187 20000000 		.4byte	.LFE6-.LFB6
 1968 018b 01       		.uleb128 0x1
 1969 018c 9C       		.byte	0x9c
 1970 018d A1010000 		.4byte	0x1a1
 1971 0191 0C       		.uleb128 0xc
 1972 0192 60020000 		.4byte	.LASF27
 1973 0196 01       		.byte	0x1
 1974 0197 6701     		.2byte	0x167
 1975 0199 6B000000 		.4byte	0x6b
 1976 019d 02       		.uleb128 0x2
 1977 019e 91       		.byte	0x91
 1978 019f 77       		.sleb128 -9
 1979 01a0 00       		.byte	0
 1980 01a1 0D       		.uleb128 0xd
 1981 01a2 95040000 		.4byte	.LASF31
 1982 01a6 01       		.byte	0x1
 1983 01a7 8801     		.2byte	0x188
 1984 01a9 6B000000 		.4byte	0x6b
 1985 01ad 00000000 		.4byte	.LFB7
 1986 01b1 94000000 		.4byte	.LFE7-.LFB7
 1987 01b5 01       		.uleb128 0x1
 1988 01b6 9C       		.byte	0x9c
 1989 01b7 E9010000 		.4byte	0x1e9
 1990 01bb 0E       		.uleb128 0xe
 1991 01bc 02040000 		.4byte	.LASF28
 1992 01c0 01       		.byte	0x1
 1993 01c1 8A01     		.2byte	0x18a
 1994 01c3 6B000000 		.4byte	0x6b
 1995 01c7 02       		.uleb128 0x2
 1996 01c8 91       		.byte	0x91
 1997 01c9 77       		.sleb128 -9
ARM GAS  C:\Users\RECEPC~1\AppData\Local\Temp\ccU3VU2d.s 			page 64


 1998 01ca 0E       		.uleb128 0xe
 1999 01cb C1040000 		.4byte	.LASF29
 2000 01cf 01       		.byte	0x1
 2001 01d0 8E01     		.2byte	0x18e
 2002 01d2 6B000000 		.4byte	0x6b
 2003 01d6 02       		.uleb128 0x2
 2004 01d7 91       		.byte	0x91
 2005 01d8 76       		.sleb128 -10
 2006 01d9 0E       		.uleb128 0xe
 2007 01da 67020000 		.4byte	.LASF30
 2008 01de 01       		.byte	0x1
 2009 01df 8F01     		.2byte	0x18f
 2010 01e1 6B000000 		.4byte	0x6b
 2011 01e5 02       		.uleb128 0x2
 2012 01e6 91       		.byte	0x91
 2013 01e7 75       		.sleb128 -11
 2014 01e8 00       		.byte	0
 2015 01e9 0D       		.uleb128 0xd
 2016 01ea AA040000 		.4byte	.LASF32
 2017 01ee 01       		.byte	0x1
 2018 01ef E501     		.2byte	0x1e5
 2019 01f1 6B000000 		.4byte	0x6b
 2020 01f5 00000000 		.4byte	.LFB8
 2021 01f9 40000000 		.4byte	.LFE8-.LFB8
 2022 01fd 01       		.uleb128 0x1
 2023 01fe 9C       		.byte	0x9c
 2024 01ff 13020000 		.4byte	0x213
 2025 0203 0E       		.uleb128 0xe
 2026 0204 0F050000 		.4byte	.LASF33
 2027 0208 01       		.byte	0x1
 2028 0209 E701     		.2byte	0x1e7
 2029 020b 6B000000 		.4byte	0x6b
 2030 020f 02       		.uleb128 0x2
 2031 0210 91       		.byte	0x91
 2032 0211 77       		.sleb128 -9
 2033 0212 00       		.byte	0
 2034 0213 0D       		.uleb128 0xd
 2035 0214 4F040000 		.4byte	.LASF34
 2036 0218 01       		.byte	0x1
 2037 0219 1402     		.2byte	0x214
 2038 021b 6B000000 		.4byte	0x6b
 2039 021f 00000000 		.4byte	.LFB9
 2040 0223 B8000000 		.4byte	.LFE9-.LFB9
 2041 0227 01       		.uleb128 0x1
 2042 0228 9C       		.byte	0x9c
 2043 0229 6A020000 		.4byte	0x26a
 2044 022d 0E       		.uleb128 0xe
 2045 022e 02040000 		.4byte	.LASF28
 2046 0232 01       		.byte	0x1
 2047 0233 1602     		.2byte	0x216
 2048 0235 6B000000 		.4byte	0x6b
 2049 0239 02       		.uleb128 0x2
 2050 023a 91       		.byte	0x91
 2051 023b 77       		.sleb128 -9
 2052 023c 0E       		.uleb128 0xe
 2053 023d 38030000 		.4byte	.LASF35
 2054 0241 01       		.byte	0x1
ARM GAS  C:\Users\RECEPC~1\AppData\Local\Temp\ccU3VU2d.s 			page 65


 2055 0242 1702     		.2byte	0x217
 2056 0244 6B000000 		.4byte	0x6b
 2057 0248 02       		.uleb128 0x2
 2058 0249 91       		.byte	0x91
 2059 024a 74       		.sleb128 -12
 2060 024b 0E       		.uleb128 0xe
 2061 024c C1040000 		.4byte	.LASF29
 2062 0250 01       		.byte	0x1
 2063 0251 1A02     		.2byte	0x21a
 2064 0253 6B000000 		.4byte	0x6b
 2065 0257 02       		.uleb128 0x2
 2066 0258 91       		.byte	0x91
 2067 0259 76       		.sleb128 -10
 2068 025a 0E       		.uleb128 0xe
 2069 025b 67020000 		.4byte	.LASF30
 2070 025f 01       		.byte	0x1
 2071 0260 1B02     		.2byte	0x21b
 2072 0262 6B000000 		.4byte	0x6b
 2073 0266 02       		.uleb128 0x2
 2074 0267 91       		.byte	0x91
 2075 0268 75       		.sleb128 -11
 2076 0269 00       		.byte	0
 2077 026a 0F       		.uleb128 0xf
 2078 026b 48010000 		.4byte	.LASF36
 2079 026f 01       		.byte	0x1
 2080 0270 7A02     		.2byte	0x27a
 2081 0272 76000000 		.4byte	0x76
 2082 0276 00000000 		.4byte	.LFB10
 2083 027a 44000000 		.4byte	.LFE10-.LFB10
 2084 027e 01       		.uleb128 0x1
 2085 027f 9C       		.byte	0x9c
 2086 0280 94020000 		.4byte	0x294
 2087 0284 0E       		.uleb128 0xe
 2088 0285 B0010000 		.4byte	.LASF37
 2089 0289 01       		.byte	0x1
 2090 028a 7E02     		.2byte	0x27e
 2091 028c 76000000 		.4byte	0x76
 2092 0290 02       		.uleb128 0x2
 2093 0291 91       		.byte	0x91
 2094 0292 6E       		.sleb128 -18
 2095 0293 00       		.byte	0
 2096 0294 0D       		.uleb128 0xd
 2097 0295 71030000 		.4byte	.LASF38
 2098 0299 01       		.byte	0x1
 2099 029a AB02     		.2byte	0x2ab
 2100 029c 6B000000 		.4byte	0x6b
 2101 02a0 00000000 		.4byte	.LFB11
 2102 02a4 90000000 		.4byte	.LFE11-.LFB11
 2103 02a8 01       		.uleb128 0x1
 2104 02a9 9C       		.byte	0x9c
 2105 02aa BE020000 		.4byte	0x2be
 2106 02ae 0E       		.uleb128 0xe
 2107 02af 30020000 		.4byte	.LASF39
 2108 02b3 01       		.byte	0x1
 2109 02b4 AE02     		.2byte	0x2ae
 2110 02b6 6B000000 		.4byte	0x6b
 2111 02ba 02       		.uleb128 0x2
ARM GAS  C:\Users\RECEPC~1\AppData\Local\Temp\ccU3VU2d.s 			page 66


 2112 02bb 91       		.byte	0x91
 2113 02bc 77       		.sleb128 -9
 2114 02bd 00       		.byte	0
 2115 02be 10       		.uleb128 0x10
 2116 02bf 37040000 		.4byte	.LASF40
 2117 02c3 01       		.byte	0x1
 2118 02c4 F502     		.2byte	0x2f5
 2119 02c6 00000000 		.4byte	.LFB12
 2120 02ca 7C000000 		.4byte	.LFE12-.LFB12
 2121 02ce 01       		.uleb128 0x1
 2122 02cf 9C       		.byte	0x9c
 2123 02d0 E4020000 		.4byte	0x2e4
 2124 02d4 0E       		.uleb128 0xe
 2125 02d5 D1040000 		.4byte	.LASF23
 2126 02d9 01       		.byte	0x1
 2127 02da F702     		.2byte	0x2f7
 2128 02dc 6B000000 		.4byte	0x6b
 2129 02e0 02       		.uleb128 0x2
 2130 02e1 91       		.byte	0x91
 2131 02e2 77       		.sleb128 -9
 2132 02e3 00       		.byte	0
 2133 02e4 0B       		.uleb128 0xb
 2134 02e5 15020000 		.4byte	.LASF41
 2135 02e9 01       		.byte	0x1
 2136 02ea 2D03     		.2byte	0x32d
 2137 02ec 00000000 		.4byte	.LFB13
 2138 02f0 14000000 		.4byte	.LFE13-.LFB13
 2139 02f4 01       		.uleb128 0x1
 2140 02f5 9C       		.byte	0x9c
 2141 02f6 0A030000 		.4byte	0x30a
 2142 02fa 0C       		.uleb128 0xc
 2143 02fb 2D010000 		.4byte	.LASF42
 2144 02ff 01       		.byte	0x1
 2145 0300 2D03     		.2byte	0x32d
 2146 0302 6B000000 		.4byte	0x6b
 2147 0306 02       		.uleb128 0x2
 2148 0307 91       		.byte	0x91
 2149 0308 77       		.sleb128 -9
 2150 0309 00       		.byte	0
 2151 030a 0B       		.uleb128 0xb
 2152 030b E5010000 		.4byte	.LASF43
 2153 030f 01       		.byte	0x1
 2154 0310 5903     		.2byte	0x359
 2155 0312 00000000 		.4byte	.LFB14
 2156 0316 20000000 		.4byte	.LFE14-.LFB14
 2157 031a 01       		.uleb128 0x1
 2158 031b 9C       		.byte	0x9c
 2159 031c 30030000 		.4byte	0x330
 2160 0320 0C       		.uleb128 0xc
 2161 0321 A2020000 		.4byte	.LASF44
 2162 0325 01       		.byte	0x1
 2163 0326 5903     		.2byte	0x359
 2164 0328 6B000000 		.4byte	0x6b
 2165 032c 02       		.uleb128 0x2
 2166 032d 91       		.byte	0x91
 2167 032e 77       		.sleb128 -9
 2168 032f 00       		.byte	0
ARM GAS  C:\Users\RECEPC~1\AppData\Local\Temp\ccU3VU2d.s 			page 67


 2169 0330 0B       		.uleb128 0xb
 2170 0331 FD010000 		.4byte	.LASF45
 2171 0335 01       		.byte	0x1
 2172 0336 6D03     		.2byte	0x36d
 2173 0338 00000000 		.4byte	.LFB15
 2174 033c 20000000 		.4byte	.LFE15-.LFB15
 2175 0340 01       		.uleb128 0x1
 2176 0341 9C       		.byte	0x9c
 2177 0342 56030000 		.4byte	0x356
 2178 0346 0C       		.uleb128 0xc
 2179 0347 A2020000 		.4byte	.LASF44
 2180 034b 01       		.byte	0x1
 2181 034c 6D03     		.2byte	0x36d
 2182 034e 6B000000 		.4byte	0x6b
 2183 0352 02       		.uleb128 0x2
 2184 0353 91       		.byte	0x91
 2185 0354 77       		.sleb128 -9
 2186 0355 00       		.byte	0
 2187 0356 0B       		.uleb128 0xb
 2188 0357 90030000 		.4byte	.LASF46
 2189 035b 01       		.byte	0x1
 2190 035c 8C03     		.2byte	0x38c
 2191 035e 00000000 		.4byte	.LFB16
 2192 0362 20000000 		.4byte	.LFE16-.LFB16
 2193 0366 01       		.uleb128 0x1
 2194 0367 9C       		.byte	0x9c
 2195 0368 7C030000 		.4byte	0x37c
 2196 036c 0C       		.uleb128 0xc
 2197 036d 60020000 		.4byte	.LASF27
 2198 0371 01       		.byte	0x1
 2199 0372 8C03     		.2byte	0x38c
 2200 0374 6B000000 		.4byte	0x6b
 2201 0378 02       		.uleb128 0x2
 2202 0379 91       		.byte	0x91
 2203 037a 77       		.sleb128 -9
 2204 037b 00       		.byte	0
 2205 037c 0B       		.uleb128 0xb
 2206 037d CA030000 		.4byte	.LASF47
 2207 0381 01       		.byte	0x1
 2208 0382 AE03     		.2byte	0x3ae
 2209 0384 00000000 		.4byte	.LFB17
 2210 0388 2C000000 		.4byte	.LFE17-.LFB17
 2211 038c 01       		.uleb128 0x1
 2212 038d 9C       		.byte	0x9c
 2213 038e A2030000 		.4byte	0x3a2
 2214 0392 0C       		.uleb128 0xc
 2215 0393 2C000000 		.4byte	.LASF48
 2216 0397 01       		.byte	0x1
 2217 0398 AE03     		.2byte	0x3ae
 2218 039a 6B000000 		.4byte	0x6b
 2219 039e 02       		.uleb128 0x2
 2220 039f 91       		.byte	0x91
 2221 03a0 77       		.sleb128 -9
 2222 03a1 00       		.byte	0
 2223 03a2 0A       		.uleb128 0xa
 2224 03a3 09040000 		.4byte	.LASF50
 2225 03a7 01       		.byte	0x1
ARM GAS  C:\Users\RECEPC~1\AppData\Local\Temp\ccU3VU2d.s 			page 68


 2226 03a8 EB03     		.2byte	0x3eb
 2227 03aa 6B000000 		.4byte	0x6b
 2228 03ae 00000000 		.4byte	.LFB18
 2229 03b2 18000000 		.4byte	.LFE18-.LFB18
 2230 03b6 01       		.uleb128 0x1
 2231 03b7 9C       		.byte	0x9c
 2232 03b8 0B       		.uleb128 0xb
 2233 03b9 20040000 		.4byte	.LASF51
 2234 03bd 01       		.byte	0x1
 2235 03be 1104     		.2byte	0x411
 2236 03c0 00000000 		.4byte	.LFB19
 2237 03c4 34000000 		.4byte	.LFE19-.LFB19
 2238 03c8 01       		.uleb128 0x1
 2239 03c9 9C       		.byte	0x9c
 2240 03ca DE030000 		.4byte	0x3de
 2241 03ce 0C       		.uleb128 0xc
 2242 03cf 2C000000 		.4byte	.LASF48
 2243 03d3 01       		.byte	0x1
 2244 03d4 1104     		.2byte	0x411
 2245 03d6 6B000000 		.4byte	0x6b
 2246 03da 02       		.uleb128 0x2
 2247 03db 91       		.byte	0x91
 2248 03dc 77       		.sleb128 -9
 2249 03dd 00       		.byte	0
 2250 03de 10       		.uleb128 0x10
 2251 03df 57030000 		.4byte	.LASF52
 2252 03e3 01       		.byte	0x1
 2253 03e4 7904     		.2byte	0x479
 2254 03e6 00000000 		.4byte	.LFB20
 2255 03ea 40000000 		.4byte	.LFE20-.LFB20
 2256 03ee 01       		.uleb128 0x1
 2257 03ef 9C       		.byte	0x9c
 2258 03f0 13040000 		.4byte	0x413
 2259 03f4 0C       		.uleb128 0xc
 2260 03f5 5C000000 		.4byte	.LASF53
 2261 03f9 01       		.byte	0x1
 2262 03fa 7904     		.2byte	0x479
 2263 03fc 13040000 		.4byte	0x413
 2264 0400 02       		.uleb128 0x2
 2265 0401 91       		.byte	0x91
 2266 0402 6C       		.sleb128 -20
 2267 0403 0E       		.uleb128 0xe
 2268 0404 48020000 		.4byte	.LASF54
 2269 0408 01       		.byte	0x1
 2270 0409 7B04     		.2byte	0x47b
 2271 040b 76000000 		.4byte	0x76
 2272 040f 02       		.uleb128 0x2
 2273 0410 91       		.byte	0x91
 2274 0411 76       		.sleb128 -10
 2275 0412 00       		.byte	0
 2276 0413 11       		.uleb128 0x11
 2277 0414 04       		.byte	0x4
 2278 0415 19040000 		.4byte	0x419
 2279 0419 12       		.uleb128 0x12
 2280 041a 9A000000 		.4byte	0x9a
 2281 041e 10       		.uleb128 0x10
 2282 041f 86020000 		.4byte	.LASF55
ARM GAS  C:\Users\RECEPC~1\AppData\Local\Temp\ccU3VU2d.s 			page 69


 2283 0423 01       		.byte	0x1
 2284 0424 A704     		.2byte	0x4a7
 2285 0426 00000000 		.4byte	.LFB21
 2286 042a 40000000 		.4byte	.LFE21-.LFB21
 2287 042e 01       		.uleb128 0x1
 2288 042f 9C       		.byte	0x9c
 2289 0430 62040000 		.4byte	0x462
 2290 0434 0C       		.uleb128 0xc
 2291 0435 5C000000 		.4byte	.LASF53
 2292 0439 01       		.byte	0x1
 2293 043a A704     		.2byte	0x4a7
 2294 043c 62040000 		.4byte	0x462
 2295 0440 02       		.uleb128 0x2
 2296 0441 91       		.byte	0x91
 2297 0442 6C       		.sleb128 -20
 2298 0443 0C       		.uleb128 0xc
 2299 0444 F8030000 		.4byte	.LASF56
 2300 0448 01       		.byte	0x1
 2301 0449 A704     		.2byte	0x4a7
 2302 044b 6B000000 		.4byte	0x6b
 2303 044f 02       		.uleb128 0x2
 2304 0450 91       		.byte	0x91
 2305 0451 6B       		.sleb128 -21
 2306 0452 0E       		.uleb128 0xe
 2307 0453 48020000 		.4byte	.LASF54
 2308 0457 01       		.byte	0x1
 2309 0458 AA04     		.2byte	0x4aa
 2310 045a 6B000000 		.4byte	0x6b
 2311 045e 02       		.uleb128 0x2
 2312 045f 91       		.byte	0x91
 2313 0460 77       		.sleb128 -9
 2314 0461 00       		.byte	0
 2315 0462 11       		.uleb128 0x11
 2316 0463 04       		.byte	0x4
 2317 0464 68040000 		.4byte	0x468
 2318 0468 12       		.uleb128 0x12
 2319 0469 6B000000 		.4byte	0x6b
 2320 046d 10       		.uleb128 0x10
 2321 046e FD040000 		.4byte	.LASF57
 2322 0472 01       		.byte	0x1
 2323 0473 CE04     		.2byte	0x4ce
 2324 0475 00000000 		.4byte	.LFB22
 2325 0479 30000000 		.4byte	.LFE22-.LFB22
 2326 047d 01       		.uleb128 0x1
 2327 047e 9C       		.byte	0x9c
 2328 047f 93040000 		.4byte	0x493
 2329 0483 0C       		.uleb128 0xc
 2330 0484 2C000000 		.4byte	.LASF48
 2331 0488 01       		.byte	0x1
 2332 0489 CE04     		.2byte	0x4ce
 2333 048b 6B000000 		.4byte	0x6b
 2334 048f 02       		.uleb128 0x2
 2335 0490 91       		.byte	0x91
 2336 0491 77       		.sleb128 -9
 2337 0492 00       		.byte	0
 2338 0493 0D       		.uleb128 0xd
 2339 0494 96010000 		.4byte	.LASF58
ARM GAS  C:\Users\RECEPC~1\AppData\Local\Temp\ccU3VU2d.s 			page 70


 2340 0498 01       		.byte	0x1
 2341 0499 F904     		.2byte	0x4f9
 2342 049b 6B000000 		.4byte	0x6b
 2343 049f 00000000 		.4byte	.LFB23
 2344 04a3 44000000 		.4byte	.LFE23-.LFB23
 2345 04a7 01       		.uleb128 0x1
 2346 04a8 9C       		.byte	0x9c
 2347 04a9 BD040000 		.4byte	0x4bd
 2348 04ad 0E       		.uleb128 0xe
 2349 04ae 30020000 		.4byte	.LASF39
 2350 04b2 01       		.byte	0x1
 2351 04b3 FC04     		.2byte	0x4fc
 2352 04b5 6B000000 		.4byte	0x6b
 2353 04b9 02       		.uleb128 0x2
 2354 04ba 91       		.byte	0x91
 2355 04bb 77       		.sleb128 -9
 2356 04bc 00       		.byte	0
 2357 04bd 10       		.uleb128 0x10
 2358 04be D0000000 		.4byte	.LASF59
 2359 04c2 01       		.byte	0x1
 2360 04c3 4A05     		.2byte	0x54a
 2361 04c5 00000000 		.4byte	.LFB24
 2362 04c9 40000000 		.4byte	.LFE24-.LFB24
 2363 04cd 01       		.uleb128 0x1
 2364 04ce 9C       		.byte	0x9c
 2365 04cf E3040000 		.4byte	0x4e3
 2366 04d3 0E       		.uleb128 0xe
 2367 04d4 D1040000 		.4byte	.LASF23
 2368 04d8 01       		.byte	0x1
 2369 04d9 4C05     		.2byte	0x54c
 2370 04db 6B000000 		.4byte	0x6b
 2371 04df 02       		.uleb128 0x2
 2372 04e0 91       		.byte	0x91
 2373 04e1 77       		.sleb128 -9
 2374 04e2 00       		.byte	0
 2375 04e3 10       		.uleb128 0x10
 2376 04e4 BF010000 		.4byte	.LASF60
 2377 04e8 01       		.byte	0x1
 2378 04e9 A005     		.2byte	0x5a0
 2379 04eb 00000000 		.4byte	.LFB25
 2380 04ef BC000000 		.4byte	.LFE25-.LFB25
 2381 04f3 01       		.uleb128 0x1
 2382 04f4 9C       		.byte	0x9c
 2383 04f5 34050000 		.4byte	0x534
 2384 04f9 0C       		.uleb128 0xc
 2385 04fa 7A000000 		.4byte	.LASF61
 2386 04fe 01       		.byte	0x1
 2387 04ff A005     		.2byte	0x5a0
 2388 0501 6B000000 		.4byte	0x6b
 2389 0505 02       		.uleb128 0x2
 2390 0506 91       		.byte	0x91
 2391 0507 6F       		.sleb128 -17
 2392 0508 13       		.uleb128 0x13
 2393 0509 12000000 		.4byte	.LBB2
 2394 050d 90000000 		.4byte	.LBE2-.LBB2
 2395 0511 0E       		.uleb128 0xe
 2396 0512 7E020000 		.4byte	.LASF62
ARM GAS  C:\Users\RECEPC~1\AppData\Local\Temp\ccU3VU2d.s 			page 71


 2397 0516 01       		.byte	0x1
 2398 0517 A805     		.2byte	0x5a8
 2399 0519 6B000000 		.4byte	0x6b
 2400 051d 02       		.uleb128 0x2
 2401 051e 91       		.byte	0x91
 2402 051f 77       		.sleb128 -9
 2403 0520 0E       		.uleb128 0xe
 2404 0521 AC000000 		.4byte	.LASF63
 2405 0525 01       		.byte	0x1
 2406 0526 D005     		.2byte	0x5d0
 2407 0528 6B000000 		.4byte	0x6b
 2408 052c 05       		.uleb128 0x5
 2409 052d 03       		.byte	0x3
 2410 052e 06000000 		.4byte	txPeriod.4985
 2411 0532 00       		.byte	0
 2412 0533 00       		.byte	0
 2413 0534 0B       		.uleb128 0xb
 2414 0535 B5000000 		.4byte	.LASF64
 2415 0539 01       		.byte	0x1
 2416 053a 2406     		.2byte	0x624
 2417 053c 00000000 		.4byte	.LFB26
 2418 0540 14000000 		.4byte	.LFE26-.LFB26
 2419 0544 01       		.uleb128 0x1
 2420 0545 9C       		.byte	0x9c
 2421 0546 5A050000 		.4byte	0x55a
 2422 054a 0C       		.uleb128 0xc
 2423 054b 2D010000 		.4byte	.LASF42
 2424 054f 01       		.byte	0x1
 2425 0550 2406     		.2byte	0x624
 2426 0552 6B000000 		.4byte	0x6b
 2427 0556 02       		.uleb128 0x2
 2428 0557 91       		.byte	0x91
 2429 0558 77       		.sleb128 -9
 2430 0559 00       		.byte	0
 2431 055a 14       		.uleb128 0x14
 2432 055b 00000000 		.4byte	.LASF65
 2433 055f 01       		.byte	0x1
 2434 0560 1B       		.byte	0x1b
 2435 0561 6B000000 		.4byte	0x6b
 2436 0565 05       		.uleb128 0x5
 2437 0566 03       		.byte	0x3
 2438 0567 00000000 		.4byte	Impresora_initVar
 2439 056b 14       		.uleb128 0x14
 2440 056c 41030000 		.4byte	.LASF66
 2441 0570 01       		.byte	0x1
 2442 0571 24       		.byte	0x24
 2443 0572 6B000000 		.4byte	0x6b
 2444 0576 05       		.uleb128 0x5
 2445 0577 03       		.byte	0x3
 2446 0578 00000000 		.4byte	Impresora_errorStatus
 2447 057c 15       		.uleb128 0x15
 2448 057d 6B000000 		.4byte	0x6b
 2449 0581 8C050000 		.4byte	0x58c
 2450 0585 16       		.uleb128 0x16
 2451 0586 CE000000 		.4byte	0xce
 2452 058a C7       		.byte	0xc7
 2453 058b 00       		.byte	0
ARM GAS  C:\Users\RECEPC~1\AppData\Local\Temp\ccU3VU2d.s 			page 72


 2454 058c 14       		.uleb128 0x14
 2455 058d 19000000 		.4byte	.LASF67
 2456 0591 01       		.byte	0x1
 2457 0592 25       		.byte	0x25
 2458 0593 9D050000 		.4byte	0x59d
 2459 0597 05       		.uleb128 0x5
 2460 0598 03       		.byte	0x3
 2461 0599 00000000 		.4byte	Impresora_rxBuffer
 2462 059d 06       		.uleb128 0x6
 2463 059e 7C050000 		.4byte	0x57c
 2464 05a2 14       		.uleb128 0x14
 2465 05a3 09010000 		.4byte	.LASF68
 2466 05a7 01       		.byte	0x1
 2467 05a8 26       		.byte	0x26
 2468 05a9 B8000000 		.4byte	0xb8
 2469 05ad 05       		.uleb128 0x5
 2470 05ae 03       		.byte	0x3
 2471 05af 00000000 		.4byte	Impresora_rxBufferRead
 2472 05b3 14       		.uleb128 0x14
 2473 05b4 F1000000 		.4byte	.LASF69
 2474 05b8 01       		.byte	0x1
 2475 05b9 27       		.byte	0x27
 2476 05ba B8000000 		.4byte	0xb8
 2477 05be 05       		.uleb128 0x5
 2478 05bf 03       		.byte	0x3
 2479 05c0 00000000 		.4byte	Impresora_rxBufferWrite
 2480 05c4 14       		.uleb128 0x14
 2481 05c5 16050000 		.4byte	.LASF70
 2482 05c9 01       		.byte	0x1
 2483 05ca 28       		.byte	0x28
 2484 05cb B8000000 		.4byte	0xb8
 2485 05cf 05       		.uleb128 0x5
 2486 05d0 03       		.byte	0x3
 2487 05d1 00000000 		.4byte	Impresora_rxBufferLoopDetect
 2488 05d5 14       		.uleb128 0x14
 2489 05d6 E2040000 		.4byte	.LASF71
 2490 05da 01       		.byte	0x1
 2491 05db 29       		.byte	0x29
 2492 05dc B8000000 		.4byte	0xb8
 2493 05e0 05       		.uleb128 0x5
 2494 05e1 03       		.byte	0x3
 2495 05e2 00000000 		.4byte	Impresora_rxBufferOverflow
 2496 05e6 00       		.byte	0
 2497              		.section	.debug_abbrev,"",%progbits
 2498              	.Ldebug_abbrev0:
 2499 0000 01       		.uleb128 0x1
 2500 0001 11       		.uleb128 0x11
 2501 0002 01       		.byte	0x1
 2502 0003 25       		.uleb128 0x25
 2503 0004 0E       		.uleb128 0xe
 2504 0005 13       		.uleb128 0x13
 2505 0006 0B       		.uleb128 0xb
 2506 0007 03       		.uleb128 0x3
 2507 0008 0E       		.uleb128 0xe
 2508 0009 1B       		.uleb128 0x1b
 2509 000a 0E       		.uleb128 0xe
 2510 000b 55       		.uleb128 0x55
ARM GAS  C:\Users\RECEPC~1\AppData\Local\Temp\ccU3VU2d.s 			page 73


 2511 000c 17       		.uleb128 0x17
 2512 000d 11       		.uleb128 0x11
 2513 000e 01       		.uleb128 0x1
 2514 000f 10       		.uleb128 0x10
 2515 0010 17       		.uleb128 0x17
 2516 0011 00       		.byte	0
 2517 0012 00       		.byte	0
 2518 0013 02       		.uleb128 0x2
 2519 0014 24       		.uleb128 0x24
 2520 0015 00       		.byte	0
 2521 0016 0B       		.uleb128 0xb
 2522 0017 0B       		.uleb128 0xb
 2523 0018 3E       		.uleb128 0x3e
 2524 0019 0B       		.uleb128 0xb
 2525 001a 03       		.uleb128 0x3
 2526 001b 0E       		.uleb128 0xe
 2527 001c 00       		.byte	0
 2528 001d 00       		.byte	0
 2529 001e 03       		.uleb128 0x3
 2530 001f 24       		.uleb128 0x24
 2531 0020 00       		.byte	0
 2532 0021 0B       		.uleb128 0xb
 2533 0022 0B       		.uleb128 0xb
 2534 0023 3E       		.uleb128 0x3e
 2535 0024 0B       		.uleb128 0xb
 2536 0025 03       		.uleb128 0x3
 2537 0026 08       		.uleb128 0x8
 2538 0027 00       		.byte	0
 2539 0028 00       		.byte	0
 2540 0029 04       		.uleb128 0x4
 2541 002a 16       		.uleb128 0x16
 2542 002b 00       		.byte	0
 2543 002c 03       		.uleb128 0x3
 2544 002d 0E       		.uleb128 0xe
 2545 002e 3A       		.uleb128 0x3a
 2546 002f 0B       		.uleb128 0xb
 2547 0030 3B       		.uleb128 0x3b
 2548 0031 0B       		.uleb128 0xb
 2549 0032 49       		.uleb128 0x49
 2550 0033 13       		.uleb128 0x13
 2551 0034 00       		.byte	0
 2552 0035 00       		.byte	0
 2553 0036 05       		.uleb128 0x5
 2554 0037 16       		.uleb128 0x16
 2555 0038 00       		.byte	0
 2556 0039 03       		.uleb128 0x3
 2557 003a 0E       		.uleb128 0xe
 2558 003b 3A       		.uleb128 0x3a
 2559 003c 0B       		.uleb128 0xb
 2560 003d 3B       		.uleb128 0x3b
 2561 003e 05       		.uleb128 0x5
 2562 003f 49       		.uleb128 0x49
 2563 0040 13       		.uleb128 0x13
 2564 0041 00       		.byte	0
 2565 0042 00       		.byte	0
 2566 0043 06       		.uleb128 0x6
 2567 0044 35       		.uleb128 0x35
ARM GAS  C:\Users\RECEPC~1\AppData\Local\Temp\ccU3VU2d.s 			page 74


 2568 0045 00       		.byte	0
 2569 0046 49       		.uleb128 0x49
 2570 0047 13       		.uleb128 0x13
 2571 0048 00       		.byte	0
 2572 0049 00       		.byte	0
 2573 004a 07       		.uleb128 0x7
 2574 004b 2E       		.uleb128 0x2e
 2575 004c 00       		.byte	0
 2576 004d 3F       		.uleb128 0x3f
 2577 004e 19       		.uleb128 0x19
 2578 004f 03       		.uleb128 0x3
 2579 0050 0E       		.uleb128 0xe
 2580 0051 3A       		.uleb128 0x3a
 2581 0052 0B       		.uleb128 0xb
 2582 0053 3B       		.uleb128 0x3b
 2583 0054 0B       		.uleb128 0xb
 2584 0055 27       		.uleb128 0x27
 2585 0056 19       		.uleb128 0x19
 2586 0057 11       		.uleb128 0x11
 2587 0058 01       		.uleb128 0x1
 2588 0059 12       		.uleb128 0x12
 2589 005a 06       		.uleb128 0x6
 2590 005b 40       		.uleb128 0x40
 2591 005c 18       		.uleb128 0x18
 2592 005d 9642     		.uleb128 0x2116
 2593 005f 19       		.uleb128 0x19
 2594 0060 00       		.byte	0
 2595 0061 00       		.byte	0
 2596 0062 08       		.uleb128 0x8
 2597 0063 2E       		.uleb128 0x2e
 2598 0064 01       		.byte	0x1
 2599 0065 3F       		.uleb128 0x3f
 2600 0066 19       		.uleb128 0x19
 2601 0067 03       		.uleb128 0x3
 2602 0068 0E       		.uleb128 0xe
 2603 0069 3A       		.uleb128 0x3a
 2604 006a 0B       		.uleb128 0xb
 2605 006b 3B       		.uleb128 0x3b
 2606 006c 0B       		.uleb128 0xb
 2607 006d 27       		.uleb128 0x27
 2608 006e 19       		.uleb128 0x19
 2609 006f 11       		.uleb128 0x11
 2610 0070 01       		.uleb128 0x1
 2611 0071 12       		.uleb128 0x12
 2612 0072 06       		.uleb128 0x6
 2613 0073 40       		.uleb128 0x40
 2614 0074 18       		.uleb128 0x18
 2615 0075 9642     		.uleb128 0x2116
 2616 0077 19       		.uleb128 0x19
 2617 0078 01       		.uleb128 0x1
 2618 0079 13       		.uleb128 0x13
 2619 007a 00       		.byte	0
 2620 007b 00       		.byte	0
 2621 007c 09       		.uleb128 0x9
 2622 007d 34       		.uleb128 0x34
 2623 007e 00       		.byte	0
 2624 007f 03       		.uleb128 0x3
ARM GAS  C:\Users\RECEPC~1\AppData\Local\Temp\ccU3VU2d.s 			page 75


 2625 0080 0E       		.uleb128 0xe
 2626 0081 3A       		.uleb128 0x3a
 2627 0082 0B       		.uleb128 0xb
 2628 0083 3B       		.uleb128 0x3b
 2629 0084 0B       		.uleb128 0xb
 2630 0085 49       		.uleb128 0x49
 2631 0086 13       		.uleb128 0x13
 2632 0087 02       		.uleb128 0x2
 2633 0088 18       		.uleb128 0x18
 2634 0089 00       		.byte	0
 2635 008a 00       		.byte	0
 2636 008b 0A       		.uleb128 0xa
 2637 008c 2E       		.uleb128 0x2e
 2638 008d 00       		.byte	0
 2639 008e 3F       		.uleb128 0x3f
 2640 008f 19       		.uleb128 0x19
 2641 0090 03       		.uleb128 0x3
 2642 0091 0E       		.uleb128 0xe
 2643 0092 3A       		.uleb128 0x3a
 2644 0093 0B       		.uleb128 0xb
 2645 0094 3B       		.uleb128 0x3b
 2646 0095 05       		.uleb128 0x5
 2647 0096 27       		.uleb128 0x27
 2648 0097 19       		.uleb128 0x19
 2649 0098 49       		.uleb128 0x49
 2650 0099 13       		.uleb128 0x13
 2651 009a 11       		.uleb128 0x11
 2652 009b 01       		.uleb128 0x1
 2653 009c 12       		.uleb128 0x12
 2654 009d 06       		.uleb128 0x6
 2655 009e 40       		.uleb128 0x40
 2656 009f 18       		.uleb128 0x18
 2657 00a0 9742     		.uleb128 0x2117
 2658 00a2 19       		.uleb128 0x19
 2659 00a3 00       		.byte	0
 2660 00a4 00       		.byte	0
 2661 00a5 0B       		.uleb128 0xb
 2662 00a6 2E       		.uleb128 0x2e
 2663 00a7 01       		.byte	0x1
 2664 00a8 3F       		.uleb128 0x3f
 2665 00a9 19       		.uleb128 0x19
 2666 00aa 03       		.uleb128 0x3
 2667 00ab 0E       		.uleb128 0xe
 2668 00ac 3A       		.uleb128 0x3a
 2669 00ad 0B       		.uleb128 0xb
 2670 00ae 3B       		.uleb128 0x3b
 2671 00af 05       		.uleb128 0x5
 2672 00b0 27       		.uleb128 0x27
 2673 00b1 19       		.uleb128 0x19
 2674 00b2 11       		.uleb128 0x11
 2675 00b3 01       		.uleb128 0x1
 2676 00b4 12       		.uleb128 0x12
 2677 00b5 06       		.uleb128 0x6
 2678 00b6 40       		.uleb128 0x40
 2679 00b7 18       		.uleb128 0x18
 2680 00b8 9742     		.uleb128 0x2117
 2681 00ba 19       		.uleb128 0x19
ARM GAS  C:\Users\RECEPC~1\AppData\Local\Temp\ccU3VU2d.s 			page 76


 2682 00bb 01       		.uleb128 0x1
 2683 00bc 13       		.uleb128 0x13
 2684 00bd 00       		.byte	0
 2685 00be 00       		.byte	0
 2686 00bf 0C       		.uleb128 0xc
 2687 00c0 05       		.uleb128 0x5
 2688 00c1 00       		.byte	0
 2689 00c2 03       		.uleb128 0x3
 2690 00c3 0E       		.uleb128 0xe
 2691 00c4 3A       		.uleb128 0x3a
 2692 00c5 0B       		.uleb128 0xb
 2693 00c6 3B       		.uleb128 0x3b
 2694 00c7 05       		.uleb128 0x5
 2695 00c8 49       		.uleb128 0x49
 2696 00c9 13       		.uleb128 0x13
 2697 00ca 02       		.uleb128 0x2
 2698 00cb 18       		.uleb128 0x18
 2699 00cc 00       		.byte	0
 2700 00cd 00       		.byte	0
 2701 00ce 0D       		.uleb128 0xd
 2702 00cf 2E       		.uleb128 0x2e
 2703 00d0 01       		.byte	0x1
 2704 00d1 3F       		.uleb128 0x3f
 2705 00d2 19       		.uleb128 0x19
 2706 00d3 03       		.uleb128 0x3
 2707 00d4 0E       		.uleb128 0xe
 2708 00d5 3A       		.uleb128 0x3a
 2709 00d6 0B       		.uleb128 0xb
 2710 00d7 3B       		.uleb128 0x3b
 2711 00d8 05       		.uleb128 0x5
 2712 00d9 27       		.uleb128 0x27
 2713 00da 19       		.uleb128 0x19
 2714 00db 49       		.uleb128 0x49
 2715 00dc 13       		.uleb128 0x13
 2716 00dd 11       		.uleb128 0x11
 2717 00de 01       		.uleb128 0x1
 2718 00df 12       		.uleb128 0x12
 2719 00e0 06       		.uleb128 0x6
 2720 00e1 40       		.uleb128 0x40
 2721 00e2 18       		.uleb128 0x18
 2722 00e3 9742     		.uleb128 0x2117
 2723 00e5 19       		.uleb128 0x19
 2724 00e6 01       		.uleb128 0x1
 2725 00e7 13       		.uleb128 0x13
 2726 00e8 00       		.byte	0
 2727 00e9 00       		.byte	0
 2728 00ea 0E       		.uleb128 0xe
 2729 00eb 34       		.uleb128 0x34
 2730 00ec 00       		.byte	0
 2731 00ed 03       		.uleb128 0x3
 2732 00ee 0E       		.uleb128 0xe
 2733 00ef 3A       		.uleb128 0x3a
 2734 00f0 0B       		.uleb128 0xb
 2735 00f1 3B       		.uleb128 0x3b
 2736 00f2 05       		.uleb128 0x5
 2737 00f3 49       		.uleb128 0x49
 2738 00f4 13       		.uleb128 0x13
ARM GAS  C:\Users\RECEPC~1\AppData\Local\Temp\ccU3VU2d.s 			page 77


 2739 00f5 02       		.uleb128 0x2
 2740 00f6 18       		.uleb128 0x18
 2741 00f7 00       		.byte	0
 2742 00f8 00       		.byte	0
 2743 00f9 0F       		.uleb128 0xf
 2744 00fa 2E       		.uleb128 0x2e
 2745 00fb 01       		.byte	0x1
 2746 00fc 3F       		.uleb128 0x3f
 2747 00fd 19       		.uleb128 0x19
 2748 00fe 03       		.uleb128 0x3
 2749 00ff 0E       		.uleb128 0xe
 2750 0100 3A       		.uleb128 0x3a
 2751 0101 0B       		.uleb128 0xb
 2752 0102 3B       		.uleb128 0x3b
 2753 0103 05       		.uleb128 0x5
 2754 0104 27       		.uleb128 0x27
 2755 0105 19       		.uleb128 0x19
 2756 0106 49       		.uleb128 0x49
 2757 0107 13       		.uleb128 0x13
 2758 0108 11       		.uleb128 0x11
 2759 0109 01       		.uleb128 0x1
 2760 010a 12       		.uleb128 0x12
 2761 010b 06       		.uleb128 0x6
 2762 010c 40       		.uleb128 0x40
 2763 010d 18       		.uleb128 0x18
 2764 010e 9642     		.uleb128 0x2116
 2765 0110 19       		.uleb128 0x19
 2766 0111 01       		.uleb128 0x1
 2767 0112 13       		.uleb128 0x13
 2768 0113 00       		.byte	0
 2769 0114 00       		.byte	0
 2770 0115 10       		.uleb128 0x10
 2771 0116 2E       		.uleb128 0x2e
 2772 0117 01       		.byte	0x1
 2773 0118 3F       		.uleb128 0x3f
 2774 0119 19       		.uleb128 0x19
 2775 011a 03       		.uleb128 0x3
 2776 011b 0E       		.uleb128 0xe
 2777 011c 3A       		.uleb128 0x3a
 2778 011d 0B       		.uleb128 0xb
 2779 011e 3B       		.uleb128 0x3b
 2780 011f 05       		.uleb128 0x5
 2781 0120 27       		.uleb128 0x27
 2782 0121 19       		.uleb128 0x19
 2783 0122 11       		.uleb128 0x11
 2784 0123 01       		.uleb128 0x1
 2785 0124 12       		.uleb128 0x12
 2786 0125 06       		.uleb128 0x6
 2787 0126 40       		.uleb128 0x40
 2788 0127 18       		.uleb128 0x18
 2789 0128 9642     		.uleb128 0x2116
 2790 012a 19       		.uleb128 0x19
 2791 012b 01       		.uleb128 0x1
 2792 012c 13       		.uleb128 0x13
 2793 012d 00       		.byte	0
 2794 012e 00       		.byte	0
 2795 012f 11       		.uleb128 0x11
ARM GAS  C:\Users\RECEPC~1\AppData\Local\Temp\ccU3VU2d.s 			page 78


 2796 0130 0F       		.uleb128 0xf
 2797 0131 00       		.byte	0
 2798 0132 0B       		.uleb128 0xb
 2799 0133 0B       		.uleb128 0xb
 2800 0134 49       		.uleb128 0x49
 2801 0135 13       		.uleb128 0x13
 2802 0136 00       		.byte	0
 2803 0137 00       		.byte	0
 2804 0138 12       		.uleb128 0x12
 2805 0139 26       		.uleb128 0x26
 2806 013a 00       		.byte	0
 2807 013b 49       		.uleb128 0x49
 2808 013c 13       		.uleb128 0x13
 2809 013d 00       		.byte	0
 2810 013e 00       		.byte	0
 2811 013f 13       		.uleb128 0x13
 2812 0140 0B       		.uleb128 0xb
 2813 0141 01       		.byte	0x1
 2814 0142 11       		.uleb128 0x11
 2815 0143 01       		.uleb128 0x1
 2816 0144 12       		.uleb128 0x12
 2817 0145 06       		.uleb128 0x6
 2818 0146 00       		.byte	0
 2819 0147 00       		.byte	0
 2820 0148 14       		.uleb128 0x14
 2821 0149 34       		.uleb128 0x34
 2822 014a 00       		.byte	0
 2823 014b 03       		.uleb128 0x3
 2824 014c 0E       		.uleb128 0xe
 2825 014d 3A       		.uleb128 0x3a
 2826 014e 0B       		.uleb128 0xb
 2827 014f 3B       		.uleb128 0x3b
 2828 0150 0B       		.uleb128 0xb
 2829 0151 49       		.uleb128 0x49
 2830 0152 13       		.uleb128 0x13
 2831 0153 3F       		.uleb128 0x3f
 2832 0154 19       		.uleb128 0x19
 2833 0155 02       		.uleb128 0x2
 2834 0156 18       		.uleb128 0x18
 2835 0157 00       		.byte	0
 2836 0158 00       		.byte	0
 2837 0159 15       		.uleb128 0x15
 2838 015a 01       		.uleb128 0x1
 2839 015b 01       		.byte	0x1
 2840 015c 49       		.uleb128 0x49
 2841 015d 13       		.uleb128 0x13
 2842 015e 01       		.uleb128 0x1
 2843 015f 13       		.uleb128 0x13
 2844 0160 00       		.byte	0
 2845 0161 00       		.byte	0
 2846 0162 16       		.uleb128 0x16
 2847 0163 21       		.uleb128 0x21
 2848 0164 00       		.byte	0
 2849 0165 49       		.uleb128 0x49
 2850 0166 13       		.uleb128 0x13
 2851 0167 2F       		.uleb128 0x2f
 2852 0168 0B       		.uleb128 0xb
ARM GAS  C:\Users\RECEPC~1\AppData\Local\Temp\ccU3VU2d.s 			page 79


 2853 0169 00       		.byte	0
 2854 016a 00       		.byte	0
 2855 016b 00       		.byte	0
 2856              		.section	.debug_aranges,"",%progbits
 2857 0000 EC000000 		.4byte	0xec
 2858 0004 0200     		.2byte	0x2
 2859 0006 00000000 		.4byte	.Ldebug_info0
 2860 000a 04       		.byte	0x4
 2861 000b 00       		.byte	0
 2862 000c 0000     		.2byte	0
 2863 000e 0000     		.2byte	0
 2864 0010 00000000 		.4byte	.LFB0
 2865 0014 20000000 		.4byte	.LFE0-.LFB0
 2866 0018 00000000 		.4byte	.LFB1
 2867 001c 58000000 		.4byte	.LFE1-.LFB1
 2868 0020 00000000 		.4byte	.LFB2
 2869 0024 64000000 		.4byte	.LFE2-.LFB2
 2870 0028 00000000 		.4byte	.LFB3
 2871 002c 64000000 		.4byte	.LFE3-.LFB3
 2872 0030 00000000 		.4byte	.LFB4
 2873 0034 10000000 		.4byte	.LFE4-.LFB4
 2874 0038 00000000 		.4byte	.LFB5
 2875 003c 14000000 		.4byte	.LFE5-.LFB5
 2876 0040 00000000 		.4byte	.LFB6
 2877 0044 20000000 		.4byte	.LFE6-.LFB6
 2878 0048 00000000 		.4byte	.LFB7
 2879 004c 94000000 		.4byte	.LFE7-.LFB7
 2880 0050 00000000 		.4byte	.LFB8
 2881 0054 40000000 		.4byte	.LFE8-.LFB8
 2882 0058 00000000 		.4byte	.LFB9
 2883 005c B8000000 		.4byte	.LFE9-.LFB9
 2884 0060 00000000 		.4byte	.LFB10
 2885 0064 44000000 		.4byte	.LFE10-.LFB10
 2886 0068 00000000 		.4byte	.LFB11
 2887 006c 90000000 		.4byte	.LFE11-.LFB11
 2888 0070 00000000 		.4byte	.LFB12
 2889 0074 7C000000 		.4byte	.LFE12-.LFB12
 2890 0078 00000000 		.4byte	.LFB13
 2891 007c 14000000 		.4byte	.LFE13-.LFB13
 2892 0080 00000000 		.4byte	.LFB14
 2893 0084 20000000 		.4byte	.LFE14-.LFB14
 2894 0088 00000000 		.4byte	.LFB15
 2895 008c 20000000 		.4byte	.LFE15-.LFB15
 2896 0090 00000000 		.4byte	.LFB16
 2897 0094 20000000 		.4byte	.LFE16-.LFB16
 2898 0098 00000000 		.4byte	.LFB17
 2899 009c 2C000000 		.4byte	.LFE17-.LFB17
 2900 00a0 00000000 		.4byte	.LFB18
 2901 00a4 18000000 		.4byte	.LFE18-.LFB18
 2902 00a8 00000000 		.4byte	.LFB19
 2903 00ac 34000000 		.4byte	.LFE19-.LFB19
 2904 00b0 00000000 		.4byte	.LFB20
 2905 00b4 40000000 		.4byte	.LFE20-.LFB20
 2906 00b8 00000000 		.4byte	.LFB21
 2907 00bc 40000000 		.4byte	.LFE21-.LFB21
 2908 00c0 00000000 		.4byte	.LFB22
 2909 00c4 30000000 		.4byte	.LFE22-.LFB22
ARM GAS  C:\Users\RECEPC~1\AppData\Local\Temp\ccU3VU2d.s 			page 80


 2910 00c8 00000000 		.4byte	.LFB23
 2911 00cc 44000000 		.4byte	.LFE23-.LFB23
 2912 00d0 00000000 		.4byte	.LFB24
 2913 00d4 40000000 		.4byte	.LFE24-.LFB24
 2914 00d8 00000000 		.4byte	.LFB25
 2915 00dc BC000000 		.4byte	.LFE25-.LFB25
 2916 00e0 00000000 		.4byte	.LFB26
 2917 00e4 14000000 		.4byte	.LFE26-.LFB26
 2918 00e8 00000000 		.4byte	0
 2919 00ec 00000000 		.4byte	0
 2920              		.section	.debug_ranges,"",%progbits
 2921              	.Ldebug_ranges0:
 2922 0000 00000000 		.4byte	.LFB0
 2923 0004 20000000 		.4byte	.LFE0
 2924 0008 00000000 		.4byte	.LFB1
 2925 000c 58000000 		.4byte	.LFE1
 2926 0010 00000000 		.4byte	.LFB2
 2927 0014 64000000 		.4byte	.LFE2
 2928 0018 00000000 		.4byte	.LFB3
 2929 001c 64000000 		.4byte	.LFE3
 2930 0020 00000000 		.4byte	.LFB4
 2931 0024 10000000 		.4byte	.LFE4
 2932 0028 00000000 		.4byte	.LFB5
 2933 002c 14000000 		.4byte	.LFE5
 2934 0030 00000000 		.4byte	.LFB6
 2935 0034 20000000 		.4byte	.LFE6
 2936 0038 00000000 		.4byte	.LFB7
 2937 003c 94000000 		.4byte	.LFE7
 2938 0040 00000000 		.4byte	.LFB8
 2939 0044 40000000 		.4byte	.LFE8
 2940 0048 00000000 		.4byte	.LFB9
 2941 004c B8000000 		.4byte	.LFE9
 2942 0050 00000000 		.4byte	.LFB10
 2943 0054 44000000 		.4byte	.LFE10
 2944 0058 00000000 		.4byte	.LFB11
 2945 005c 90000000 		.4byte	.LFE11
 2946 0060 00000000 		.4byte	.LFB12
 2947 0064 7C000000 		.4byte	.LFE12
 2948 0068 00000000 		.4byte	.LFB13
 2949 006c 14000000 		.4byte	.LFE13
 2950 0070 00000000 		.4byte	.LFB14
 2951 0074 20000000 		.4byte	.LFE14
 2952 0078 00000000 		.4byte	.LFB15
 2953 007c 20000000 		.4byte	.LFE15
 2954 0080 00000000 		.4byte	.LFB16
 2955 0084 20000000 		.4byte	.LFE16
 2956 0088 00000000 		.4byte	.LFB17
 2957 008c 2C000000 		.4byte	.LFE17
 2958 0090 00000000 		.4byte	.LFB18
 2959 0094 18000000 		.4byte	.LFE18
 2960 0098 00000000 		.4byte	.LFB19
 2961 009c 34000000 		.4byte	.LFE19
 2962 00a0 00000000 		.4byte	.LFB20
 2963 00a4 40000000 		.4byte	.LFE20
 2964 00a8 00000000 		.4byte	.LFB21
 2965 00ac 40000000 		.4byte	.LFE21
 2966 00b0 00000000 		.4byte	.LFB22
ARM GAS  C:\Users\RECEPC~1\AppData\Local\Temp\ccU3VU2d.s 			page 81


 2967 00b4 30000000 		.4byte	.LFE22
 2968 00b8 00000000 		.4byte	.LFB23
 2969 00bc 44000000 		.4byte	.LFE23
 2970 00c0 00000000 		.4byte	.LFB24
 2971 00c4 40000000 		.4byte	.LFE24
 2972 00c8 00000000 		.4byte	.LFB25
 2973 00cc BC000000 		.4byte	.LFE25
 2974 00d0 00000000 		.4byte	.LFB26
 2975 00d4 14000000 		.4byte	.LFE26
 2976 00d8 00000000 		.4byte	0
 2977 00dc 00000000 		.4byte	0
 2978              		.section	.debug_line,"",%progbits
 2979              	.Ldebug_line0:
 2980 0000 0B030000 		.section	.debug_str,"MS",%progbits,1
 2980      02004800 
 2980      00000201 
 2980      FB0E0D00 
 2980      01010101 
 2981              	.LASF65:
 2982 0000 496D7072 		.ascii	"Impresora_initVar\000"
 2982      65736F72 
 2982      615F696E 
 2982      69745661 
 2982      7200
 2983              	.LASF10:
 2984 0012 75696E74 		.ascii	"uint16\000"
 2984      313600
 2985              	.LASF67:
 2986 0019 496D7072 		.ascii	"Impresora_rxBuffer\000"
 2986      65736F72 
 2986      615F7278 
 2986      42756666 
 2986      657200
 2987              	.LASF48:
 2988 002c 74784461 		.ascii	"txDataByte\000"
 2988      74614279 
 2988      746500
 2989              	.LASF73:
 2990 0037 2E5C4765 		.ascii	".\\Generated_Source\\PSoC5\\Impresora.c\000"
 2990      6E657261 
 2990      7465645F 
 2990      536F7572 
 2990      63655C50 
 2991              	.LASF53:
 2992 005c 73747269 		.ascii	"string\000"
 2992      6E6700
 2993              	.LASF7:
 2994 0063 6C6F6E67 		.ascii	"long long unsigned int\000"
 2994      206C6F6E 
 2994      6720756E 
 2994      7369676E 
 2994      65642069 
 2995              	.LASF61:
 2996 007a 7265744D 		.ascii	"retMode\000"
 2996      6F646500 
 2997              	.LASF19:
 2998 0082 496D7072 		.ascii	"Impresora_Start\000"
ARM GAS  C:\Users\RECEPC~1\AppData\Local\Temp\ccU3VU2d.s 			page 82


 2998      65736F72 
 2998      615F5374 
 2998      61727400 
 2999              	.LASF6:
 3000 0092 6C6F6E67 		.ascii	"long long int\000"
 3000      206C6F6E 
 3000      6720696E 
 3000      7400
 3001              	.LASF0:
 3002 00a0 7369676E 		.ascii	"signed char\000"
 3002      65642063 
 3002      68617200 
 3003              	.LASF63:
 3004 00ac 74785065 		.ascii	"txPeriod\000"
 3004      72696F64 
 3004      00
 3005              	.LASF64:
 3006 00b5 496D7072 		.ascii	"Impresora_SetTxAddressMode\000"
 3006      65736F72 
 3006      615F5365 
 3006      74547841 
 3006      64647265 
 3007              	.LASF59:
 3008 00d0 496D7072 		.ascii	"Impresora_ClearTxBuffer\000"
 3008      65736F72 
 3008      615F436C 
 3008      65617254 
 3008      78427566 
 3009              	.LASF4:
 3010 00e8 6C6F6E67 		.ascii	"long int\000"
 3010      20696E74 
 3010      00
 3011              	.LASF69:
 3012 00f1 496D7072 		.ascii	"Impresora_rxBufferWrite\000"
 3012      65736F72 
 3012      615F7278 
 3012      42756666 
 3012      65725772 
 3013              	.LASF68:
 3014 0109 496D7072 		.ascii	"Impresora_rxBufferRead\000"
 3014      65736F72 
 3014      615F7278 
 3014      42756666 
 3014      65725265 
 3015              	.LASF9:
 3016 0120 75696E74 		.ascii	"uint8\000"
 3016      3800
 3017              	.LASF13:
 3018 0126 646F7562 		.ascii	"double\000"
 3018      6C6500
 3019              	.LASF42:
 3020 012d 61646472 		.ascii	"addressMode\000"
 3020      6573734D 
 3020      6F646500 
 3021              	.LASF11:
 3022 0139 75696E74 		.ascii	"uint32\000"
 3022      333200
ARM GAS  C:\Users\RECEPC~1\AppData\Local\Temp\ccU3VU2d.s 			page 83


 3023              	.LASF26:
 3024 0140 636F6E74 		.ascii	"control\000"
 3024      726F6C00 
 3025              	.LASF36:
 3026 0148 496D7072 		.ascii	"Impresora_GetByte\000"
 3026      65736F72 
 3026      615F4765 
 3026      74427974 
 3026      6500
 3027              	.LASF49:
 3028 015a 496D7072 		.ascii	"Impresora_ReadControlRegister\000"
 3028      65736F72 
 3028      615F5265 
 3028      6164436F 
 3028      6E74726F 
 3029              	.LASF8:
 3030 0178 756E7369 		.ascii	"unsigned int\000"
 3030      676E6564 
 3030      20696E74 
 3030      00
 3031              	.LASF21:
 3032 0185 496D7072 		.ascii	"Impresora_Enable\000"
 3032      65736F72 
 3032      615F456E 
 3032      61626C65 
 3032      00
 3033              	.LASF58:
 3034 0196 496D7072 		.ascii	"Impresora_GetTxBufferSize\000"
 3034      65736F72 
 3034      615F4765 
 3034      74547842 
 3034      75666665 
 3035              	.LASF37:
 3036 01b0 6C6F6345 		.ascii	"locErrorStatus\000"
 3036      72726F72 
 3036      53746174 
 3036      757300
 3037              	.LASF60:
 3038 01bf 496D7072 		.ascii	"Impresora_SendBreak\000"
 3038      65736F72 
 3038      615F5365 
 3038      6E644272 
 3038      65616B00 
 3039              	.LASF5:
 3040 01d3 6C6F6E67 		.ascii	"long unsigned int\000"
 3040      20756E73 
 3040      69676E65 
 3040      6420696E 
 3040      7400
 3041              	.LASF43:
 3042 01e5 496D7072 		.ascii	"Impresora_SetRxAddress1\000"
 3042      65736F72 
 3042      615F5365 
 3042      74527841 
 3042      64647265 
 3043              	.LASF45:
 3044 01fd 496D7072 		.ascii	"Impresora_SetRxAddress2\000"
ARM GAS  C:\Users\RECEPC~1\AppData\Local\Temp\ccU3VU2d.s 			page 84


 3044      65736F72 
 3044      615F5365 
 3044      74527841 
 3044      64647265 
 3045              	.LASF41:
 3046 0215 496D7072 		.ascii	"Impresora_SetRxAddressMode\000"
 3046      65736F72 
 3046      615F5365 
 3046      74527841 
 3046      64647265 
 3047              	.LASF39:
 3048 0230 73697A65 		.ascii	"size\000"
 3048      00
 3049              	.LASF3:
 3050 0235 73686F72 		.ascii	"short unsigned int\000"
 3050      7420756E 
 3050      7369676E 
 3050      65642069 
 3050      6E7400
 3051              	.LASF54:
 3052 0248 62756649 		.ascii	"bufIndex\000"
 3052      6E646578 
 3052      00
 3053              	.LASF22:
 3054 0251 496D7072 		.ascii	"Impresora_Stop\000"
 3054      65736F72 
 3054      615F5374 
 3054      6F7000
 3055              	.LASF27:
 3056 0260 696E7453 		.ascii	"intSrc\000"
 3056      726300
 3057              	.LASF30:
 3058 0267 6C6F6352 		.ascii	"locRxBufferWrite\000"
 3058      78427566 
 3058      66657257 
 3058      72697465 
 3058      00
 3059              	.LASF17:
 3060 0278 72656733 		.ascii	"reg32\000"
 3060      3200
 3061              	.LASF62:
 3062 027e 746D7053 		.ascii	"tmpStat\000"
 3062      74617400 
 3063              	.LASF55:
 3064 0286 496D7072 		.ascii	"Impresora_PutArray\000"
 3064      65736F72 
 3064      615F5075 
 3064      74417272 
 3064      617900
 3065              	.LASF18:
 3066 0299 73697A65 		.ascii	"sizetype\000"
 3066      74797065 
 3066      00
 3067              	.LASF44:
 3068 02a2 61646472 		.ascii	"address\000"
 3068      65737300 
 3069              	.LASF72:
ARM GAS  C:\Users\RECEPC~1\AppData\Local\Temp\ccU3VU2d.s 			page 85


 3070 02aa 474E5520 		.ascii	"GNU C 4.9.3 20150303 (release) [ARM/embedded-4_9-br"
 3070      4320342E 
 3070      392E3320 
 3070      32303135 
 3070      30333033 
 3071 02dd 616E6368 		.ascii	"anch revision 221220] -mcpu=cortex-m3 -mthumb -g -O"
 3071      20726576 
 3071      6973696F 
 3071      6E203232 
 3071      31323230 
 3072 0310 30202D66 		.ascii	"0 -ffunction-sections -ffat-lto-objects\000"
 3072      66756E63 
 3072      74696F6E 
 3072      2D736563 
 3072      74696F6E 
 3073              	.LASF35:
 3074 0338 72785374 		.ascii	"rxStatus\000"
 3074      61747573 
 3074      00
 3075              	.LASF66:
 3076 0341 496D7072 		.ascii	"Impresora_errorStatus\000"
 3076      65736F72 
 3076      615F6572 
 3076      726F7253 
 3076      74617475 
 3077              	.LASF52:
 3078 0357 496D7072 		.ascii	"Impresora_PutString\000"
 3078      65736F72 
 3078      615F5075 
 3078      74537472 
 3078      696E6700 
 3079              	.LASF12:
 3080 036b 666C6F61 		.ascii	"float\000"
 3080      7400
 3081              	.LASF38:
 3082 0371 496D7072 		.ascii	"Impresora_GetRxBufferSize\000"
 3082      65736F72 
 3082      615F4765 
 3082      74527842 
 3082      75666665 
 3083              	.LASF16:
 3084 038b 72656738 		.ascii	"reg8\000"
 3084      00
 3085              	.LASF46:
 3086 0390 496D7072 		.ascii	"Impresora_SetTxInterruptMode\000"
 3086      65736F72 
 3086      615F5365 
 3086      74547849 
 3086      6E746572 
 3087              	.LASF25:
 3088 03ad 496D7072 		.ascii	"Impresora_SetRxInterruptMode\000"
 3088      65736F72 
 3088      615F5365 
 3088      74527849 
 3088      6E746572 
 3089              	.LASF47:
 3090 03ca 496D7072 		.ascii	"Impresora_WriteTxData\000"
ARM GAS  C:\Users\RECEPC~1\AppData\Local\Temp\ccU3VU2d.s 			page 86


 3090      65736F72 
 3090      615F5772 
 3090      69746554 
 3090      78446174 
 3091              	.LASF1:
 3092 03e0 756E7369 		.ascii	"unsigned char\000"
 3092      676E6564 
 3092      20636861 
 3092      7200
 3093              	.LASF2:
 3094 03ee 73686F72 		.ascii	"short int\000"
 3094      7420696E 
 3094      7400
 3095              	.LASF56:
 3096 03f8 62797465 		.ascii	"byteCount\000"
 3096      436F756E 
 3096      7400
 3097              	.LASF28:
 3098 0402 72784461 		.ascii	"rxData\000"
 3098      746100
 3099              	.LASF50:
 3100 0409 496D7072 		.ascii	"Impresora_ReadTxStatus\000"
 3100      65736F72 
 3100      615F5265 
 3100      61645478 
 3100      53746174 
 3101              	.LASF51:
 3102 0420 496D7072 		.ascii	"Impresora_PutChar\000"
 3102      65736F72 
 3102      615F5075 
 3102      74436861 
 3102      7200
 3103              	.LASF15:
 3104 0432 63686172 		.ascii	"char\000"
 3104      00
 3105              	.LASF40:
 3106 0437 496D7072 		.ascii	"Impresora_ClearRxBuffer\000"
 3106      65736F72 
 3106      615F436C 
 3106      65617252 
 3106      78427566 
 3107              	.LASF34:
 3108 044f 496D7072 		.ascii	"Impresora_GetChar\000"
 3108      65736F72 
 3108      615F4765 
 3108      74436861 
 3108      7200
 3109              	.LASF14:
 3110 0461 63686172 		.ascii	"char8\000"
 3110      3800
 3111              	.LASF24:
 3112 0467 496D7072 		.ascii	"Impresora_WriteControlRegister\000"
 3112      65736F72 
 3112      615F5772 
 3112      69746543 
 3112      6F6E7472 
 3113              	.LASF20:
ARM GAS  C:\Users\RECEPC~1\AppData\Local\Temp\ccU3VU2d.s 			page 87


 3114 0486 496D7072 		.ascii	"Impresora_Init\000"
 3114      65736F72 
 3114      615F496E 
 3114      697400
 3115              	.LASF31:
 3116 0495 496D7072 		.ascii	"Impresora_ReadRxData\000"
 3116      65736F72 
 3116      615F5265 
 3116      61645278 
 3116      44617461 
 3117              	.LASF32:
 3118 04aa 496D7072 		.ascii	"Impresora_ReadRxStatus\000"
 3118      65736F72 
 3118      615F5265 
 3118      61645278 
 3118      53746174 
 3119              	.LASF29:
 3120 04c1 6C6F6352 		.ascii	"locRxBufferRead\000"
 3120      78427566 
 3120      66657252 
 3120      65616400 
 3121              	.LASF23:
 3122 04d1 656E6162 		.ascii	"enableInterrupts\000"
 3122      6C65496E 
 3122      74657272 
 3122      75707473 
 3122      00
 3123              	.LASF71:
 3124 04e2 496D7072 		.ascii	"Impresora_rxBufferOverflow\000"
 3124      65736F72 
 3124      615F7278 
 3124      42756666 
 3124      65724F76 
 3125              	.LASF57:
 3126 04fd 496D7072 		.ascii	"Impresora_PutCRLF\000"
 3126      65736F72 
 3126      615F5075 
 3126      7443524C 
 3126      4600
 3127              	.LASF33:
 3128 050f 73746174 		.ascii	"status\000"
 3128      757300
 3129              	.LASF70:
 3130 0516 496D7072 		.ascii	"Impresora_rxBufferLoopDetect\000"
 3130      65736F72 
 3130      615F7278 
 3130      42756666 
 3130      65724C6F 
 3131              	.LASF74:
 3132 0533 433A5C55 		.ascii	"C:\\Users\\Recepcion\\Desktop\\Prueba_GRPFleet\\BBB"
 3132      73657273 
 3132      5C526563 
 3132      65706369 
 3132      6F6E5C44 
 3133 0561 2E637964 		.ascii	".cydsn\000"
 3133      736E00
 3134              		.ident	"GCC: (GNU Tools for ARM Embedded Processors) 4.9.3 20150303 (release) [ARM/embedded-4_9-br
ARM GAS  C:\Users\RECEPC~1\AppData\Local\Temp\ccU3VU2d.s 			page 88


