ARM GAS  C:\Users\RECEPC~1\AppData\Local\Temp\ccIpe7td.s 			page 1


   1              		.syntax unified
   2              		.cpu cortex-m3
   3              		.fpu softvfp
   4              		.eabi_attribute 20, 1
   5              		.eabi_attribute 21, 1
   6              		.eabi_attribute 23, 3
   7              		.eabi_attribute 24, 1
   8              		.eabi_attribute 25, 1
   9              		.eabi_attribute 26, 1
  10              		.eabi_attribute 30, 6
  11              		.eabi_attribute 34, 1
  12              		.eabi_attribute 18, 4
  13              		.thumb
  14              		.file	"main.c"
  15              		.text
  16              	.Ltext0:
  17              		.cfi_sections	.debug_frame
  18              		.comm	count_teclas1,1,1
  19              		.comm	comas1,1,1
  20              		.comm	comas2,1,1
  21              		.comm	id_coma1,1,1
  22              		.comm	id_teclado1,1,1
  23              		.comm	count_teclas2,1,1
  24              		.comm	id_coma2,1,1
  25              		.comm	id_teclado2,1,1
  26              		.comm	posx1,2,2
  27              		.comm	posy1,2,2
  28              		.comm	sizeletra1,2,2
  29              		.comm	posx2,2,2
  30              		.comm	posy2,2,2
  31              		.comm	sizeletra2,2,2
  32              		.comm	teclas1,1,1
  33              		.comm	teclas2,1,1
  34              		.comm	flujo_LCD1,1,1
  35              		.comm	flujo_LCD2,1,1
  36              		.comm	flujo_pos1,1,1
  37              		.comm	flujo_pos2,1,1
  38              		.comm	seleccion_pos,1,1
  39              		.comm	flujo_pos,1,1
  40              		.comm	venta_activa,1,1
  41              		.comm	venta_activa2,1,1
  42              		.comm	Buffer_LCD1,30,4
  43              		.comm	Buffer_LCD2,30,4
  44              		.comm	count_protector,1,1
  45              		.comm	count_protector2,1,1
  46              		.comm	password_lcd,9,4
  47              		.comm	imagen_grado,2,2
  48              		.comm	prox_caso,8,4
  49              		.comm	bloqueo_LCD,3,4
  50              		.comm	id_estacion,5,4
  51              		.comm	id_venta,8,4
  52              		.comm	trama_totales,200,4
  53              		.comm	ppux10,1,1
  54              		.comm	nombre_pro1,17,4
  55              		.comm	nombre_pro2,17,4
  56              		.comm	nombre_pro3,17,4
  57              		.comm	version,4,4
ARM GAS  C:\Users\RECEPC~1\AppData\Local\Temp\ccIpe7td.s 			page 2


  58              		.comm	lado1,93,4
  59              		.comm	lado2,93,4
  60              		.comm	nombre,33,4
  61              		.comm	nit,15,4
  62              		.comm	telefono,20,4
  63              		.comm	direccion,33,4
  64              		.comm	lema1,32,4
  65              		.comm	lema2,32,4
  66              		.comm	id_logo,2,4
  67              		.comm	km,2,4
  68              		.comm	fecha,3,4
  69              		.comm	hora,2,4
  70              		.comm	rventa1,118,4
  71              		.comm	rventa2,118,4
  72              		.comm	ok_RF,1,1
  73              		.comm	ok_datosRF,1,1
  74              		.comm	rf_mod,200,4
  75              		.comm	buffer_i2c,64,4
  76              		.comm	crc_total,1,1
  77              		.comm	print1,2,4
  78              		.comm	print2,2,4
  79              		.comm	tipo_venta,1,1
  80              		.global	letras
  81              		.data
  82              		.align	2
  83              		.type	letras, %object
  84              		.size	letras, 26
  85              	letras:
  86 0000 25       		.byte	37
  87 0001 42       		.byte	66
  88 0002 31       		.byte	49
  89 0003 27       		.byte	39
  90 0004 1D       		.byte	29
  91 0005 28       		.byte	40
  92 0006 29       		.byte	41
  93 0007 2A       		.byte	42
  94 0008 22       		.byte	34
  95 0009 2B       		.byte	43
  96 000a 2C       		.byte	44
  97 000b 2D       		.byte	45
  98 000c 35       		.byte	53
  99 000d 34       		.byte	52
 100 000e 23       		.byte	35
 101 000f 24       		.byte	36
 102 0010 1B       		.byte	27
 103 0011 1E       		.byte	30
 104 0012 26       		.byte	38
 105 0013 1F       		.byte	31
 106 0014 21       		.byte	33
 107 0015 32       		.byte	50
 108 0016 1C       		.byte	28
 109 0017 30       		.byte	48
 110 0018 20       		.byte	32
 111 0019 2F       		.byte	47
 112              		.global	clave_config
 113 001a 0000     		.align	2
 114              		.type	clave_config, %object
ARM GAS  C:\Users\RECEPC~1\AppData\Local\Temp\ccIpe7td.s 			page 3


 115              		.size	clave_config, 5
 116              	clave_config:
 117 001c 30323431 		.ascii	"02412"
 117      32
 118              		.global	test
 119 0021 000000   		.align	2
 120              		.type	test, %object
 121              		.size	test, 18
 122              	test:
 123 0024 54657374 		.ascii	"Test de Impresora\000"
 123      20646520 
 123      496D7072 
 123      65736F72 
 123      6100
 124              		.comm	num_decimal2,2,2
 125              		.comm	idaux,8,4
 126              		.comm	state_rf,1,1
 127              		.comm	timeout_autorizacion,2,2
 128              		.comm	estado_tanqueando,1,1
 129              		.global	consulta_sistema
 130              		.type	consulta_sistema, %object
 131              		.size	consulta_sistema, 1
 132              	consulta_sistema:
 133 0036 01       		.byte	1
 134              		.global	clave_local
 135 0037 00       		.align	2
 136              		.type	clave_local, %object
 137              		.size	clave_local, 4
 138              	clave_local:
 139 0038 39       		.byte	57
 140 0039 36       		.byte	54
 141 003a 33       		.byte	51
 142 003b 31       		.byte	49
 143              		.comm	v_digitos_1,1,1
 144              		.global	ppuinicial
 145              		.bss
 146              		.type	ppuinicial, %object
 147              		.size	ppuinicial, 1
 148              	ppuinicial:
 149 0000 00       		.space	1
 150              		.comm	Producto,1,1
 151              		.comm	Productos,4,4
 152              		.global	producto1
 153              		.data
 154              		.type	producto1, %object
 155              		.size	producto1, 1
 156              	producto1:
 157 003c 01       		.byte	1
 158              		.global	producto2
 159              		.type	producto2, %object
 160              		.size	producto2, 1
 161              	producto2:
 162 003d 01       		.byte	1
 163              		.global	producto3
 164              		.type	producto3, %object
 165              		.size	producto3, 1
 166              	producto3:
ARM GAS  C:\Users\RECEPC~1\AppData\Local\Temp\ccIpe7td.s 			page 4


 167 003e 01       		.byte	1
 168              		.global	producto4
 169              		.type	producto4, %object
 170              		.size	producto4, 1
 171              	producto4:
 172 003f 01       		.byte	1
 173              		.comm	status1LP,1,1
 174              		.comm	status2LP,1,1
 175              		.comm	status1st,1,1
 176              		.comm	status2st,1,1
 177              		.section	.text.init,"ax",%progbits
 178              		.align	2
 179              		.global	init
 180              		.thumb
 181              		.thumb_func
 182              		.type	init, %function
 183              	init:
 184              	.LFB63:
 185              		.file 1 ".\\main.c"
   1:.\main.c      **** /*
   2:.\main.c      **** ***************************************************************************************************
   3:.\main.c      **** *                                           GRP550M CODE2
   4:.\main.c      **** *
   5:.\main.c      **** *                             (c) Copyright 2013; Sistemas Insepet LTDA
   6:.\main.c      **** *
   7:.\main.c      **** *               All rights reserved.  Protected by international copyright laws.
   8:.\main.c      **** *               Knowledge of the source code may NOT be used to develop a similar product.
   9:.\main.c      **** *               Please help us continue to provide the Embedded community with the finest
  10:.\main.c      **** *               software available.  Your honesty is greatly appreciated.
  11:.\main.c      **** ***************************************************************************************************
  12:.\main.c      **** */
  13:.\main.c      **** 
  14:.\main.c      **** /*
  15:.\main.c      **** ***************************************************************************************************
  16:.\main.c      **** *
  17:.\main.c      **** *                                               GRP550M CODE
  18:.\main.c      **** *
  19:.\main.c      **** *                                             CYPRESS PSoC5LP
  20:.\main.c      **** *                                                with the
  21:.\main.c      **** *                                            CY8C5969AXI-LP035
  22:.\main.c      **** *
  23:.\main.c      **** * Filename      : main.c
  24:.\main.c      **** * Version       : V2.00
  25:.\main.c      **** * Programmer(s) : 
  26:.\main.c      ****                   
  27:.\main.c      **** ***************************************************************************************************
  28:.\main.c      **** */
  29:.\main.c      **** 
  30:.\main.c      **** /*
  31:.\main.c      **** ***************************************************************************************************
  32:.\main.c      **** *                                             INCLUDE FILES
  33:.\main.c      **** ***************************************************************************************************
  34:.\main.c      **** */
  35:.\main.c      **** 
  36:.\main.c      **** #include <device.h>
  37:.\main.c      **** #include <math.h>
  38:.\main.c      **** #include <stdio.h>
ARM GAS  C:\Users\RECEPC~1\AppData\Local\Temp\ccIpe7td.s 			page 5


  39:.\main.c      **** #include <stdlib.h>
  40:.\main.c      **** #include <string.h>
  41:.\main.c      **** #include "Protocolo.h"
  42:.\main.c      **** #include "VariablesG.h"
  43:.\main.c      **** #include "Print.h"
  44:.\main.c      **** #include "LCD.h"
  45:.\main.c      **** #include "ibutton.h"
  46:.\main.c      **** #include "i2c.h"
  47:.\main.c      **** 
  48:.\main.c      **** /*
  49:.\main.c      **** ***************************************************************************************************
  50:.\main.c      **** *                                             DECLARACION DE FUNCIONES
  51:.\main.c      **** ***************************************************************************************************
  52:.\main.c      **** */
  53:.\main.c      **** uint8 letras[26]={0x25,0x42,0x31,0x27,0x1D,0x28,0x29,0x2A,0x22,0x2B,0x2C,0x2D,0x35,0x34,0x23,0x24,0
  54:.\main.c      **** uint8 clave_config[5]="02412";
  55:.\main.c      **** uint8 test[18]="Test de Impresora";
  56:.\main.c      **** uint16 num_decimal2;
  57:.\main.c      **** CY_ISR(animacion);
  58:.\main.c      **** CY_ISR(animacion2);
  59:.\main.c      **** CY_ISR(modo_mux);
  60:.\main.c      **** uint8  idaux[8];
  61:.\main.c      **** uint8  state_rf;
  62:.\main.c      **** uint16 timeout_autorizacion;
  63:.\main.c      **** uint8  estado_tanqueando; 
  64:.\main.c      **** uint8  consulta_sistema=1;
  65:.\main.c      **** uint8  clave_local[4]={'9','6','3','1'};
  66:.\main.c      **** uint8  v_digitos_1;
  67:.\main.c      **** uint8  ppuinicial=0;
  68:.\main.c      **** uint8  Producto;
  69:.\main.c      **** uint8  Productos[4];// el buffer es para guardar los tipos de combustible
  70:.\main.c      **** uint8  producto1=1,producto2=1,producto3=1,producto4=1;
  71:.\main.c      **** uint8 status1LP,status2LP,status1st,status2st; 
  72:.\main.c      **** 
  73:.\main.c      **** 
  74:.\main.c      **** /*
  75:.\main.c      **** ***************************************************************************************************
  76:.\main.c      **** *                                         init( void )
  77:.\main.c      **** *
  78:.\main.c      **** * Description : 
  79:.\main.c      **** *               
  80:.\main.c      **** *
  81:.\main.c      **** * Argument(s) : none
  82:.\main.c      **** *
  83:.\main.c      **** * Return(s)   : none
  84:.\main.c      **** *
  85:.\main.c      **** * Caller(s)   : 
  86:.\main.c      **** *
  87:.\main.c      **** * Note(s)     : none.
  88:.\main.c      **** ***************************************************************************************************
  89:.\main.c      **** */ 
  90:.\main.c      **** void init(void){
 186              		.loc 1 90 0
 187              		.cfi_startproc
 188              		@ args = 0, pretend = 0, frame = 8
 189              		@ frame_needed = 1, uses_anonymous_args = 0
 190 0000 90B5     		push	{r4, r7, lr}
ARM GAS  C:\Users\RECEPC~1\AppData\Local\Temp\ccIpe7td.s 			page 6


 191              		.cfi_def_cfa_offset 12
 192              		.cfi_offset 4, -12
 193              		.cfi_offset 7, -8
 194              		.cfi_offset 14, -4
 195 0002 83B0     		sub	sp, sp, #12
 196              		.cfi_def_cfa_offset 24
 197 0004 00AF     		add	r7, sp, #0
 198              		.cfi_def_cfa_register 7
  91:.\main.c      ****     timeout_autorizacion=0;
 199              		.loc 1 91 0
 200 0006 6A4B     		ldr	r3, .L6
 201 0008 0022     		movs	r2, #0
 202 000a 1A80     		strh	r2, [r3]	@ movhi
  92:.\main.c      **** 	uint8 x;
  93:.\main.c      ****     CyGlobalIntEnable;
 203              		.loc 1 93 0
 204              	@ 93 ".\main.c" 1
 205 000c 62B6     		CPSIE   i
 206              	@ 0 "" 2
  94:.\main.c      **** 	PC_Start();
 207              		.loc 1 94 0
 208              		.thumb
 209 000e FFF7FEFF 		bl	PC_Start
  95:.\main.c      ****     I2C_1_Start();
 210              		.loc 1 95 0
 211 0012 FFF7FEFF 		bl	I2C_1_Start
  96:.\main.c      ****     Surtidor_Start();
 212              		.loc 1 96 0
 213 0016 FFF7FEFF 		bl	Surtidor_Start
  97:.\main.c      ****     LCD_1_Start();
 214              		.loc 1 97 0
 215 001a FFF7FEFF 		bl	LCD_1_Start
  98:.\main.c      ****     LCD_2_Start();   	
 216              		.loc 1 98 0
 217 001e FFF7FEFF 		bl	LCD_2_Start
  99:.\main.c      **** 	EEPROM_Start();
 218              		.loc 1 99 0
 219 0022 FFF7FEFF 		bl	EEPROM_Start
 100:.\main.c      **** 
 101:.\main.c      **** 	/***********Iniciacion de variables***************/
 102:.\main.c      **** 	lado1.grado[0][0]=0;
 220              		.loc 1 102 0
 221 0026 634B     		ldr	r3, .L6+4
 222 0028 0022     		movs	r2, #0
 223 002a 83F85920 		strb	r2, [r3, #89]
 103:.\main.c      **** 	lado1.grado[1][0]=0;
 224              		.loc 1 103 0
 225 002e 614B     		ldr	r3, .L6+4
 226 0030 0022     		movs	r2, #0
 227 0032 83F85A20 		strb	r2, [r3, #90]
 104:.\main.c      **** 	lado1.grado[2][0]=0;
 228              		.loc 1 104 0
 229 0036 5F4B     		ldr	r3, .L6+4
 230 0038 0022     		movs	r2, #0
 231 003a 83F85B20 		strb	r2, [r3, #91]
 105:.\main.c      **** 	lado2.grado[0][0]=0;
 232              		.loc 1 105 0
ARM GAS  C:\Users\RECEPC~1\AppData\Local\Temp\ccIpe7td.s 			page 7


 233 003e 5E4B     		ldr	r3, .L6+8
 234 0040 0022     		movs	r2, #0
 235 0042 83F85920 		strb	r2, [r3, #89]
 106:.\main.c      **** 	lado2.grado[1][0]=0;
 236              		.loc 1 106 0
 237 0046 5C4B     		ldr	r3, .L6+8
 238 0048 0022     		movs	r2, #0
 239 004a 83F85A20 		strb	r2, [r3, #90]
 107:.\main.c      **** 	lado2.grado[2][0]=0;
 240              		.loc 1 107 0
 241 004e 5A4B     		ldr	r3, .L6+8
 242 0050 0022     		movs	r2, #0
 243 0052 83F85B20 		strb	r2, [r3, #91]
 108:.\main.c      ****     for(x=0; x<=15; x++){
 244              		.loc 1 108 0
 245 0056 0023     		movs	r3, #0
 246 0058 FB71     		strb	r3, [r7, #7]
 247 005a 08E0     		b	.L2
 248              	.L3:
 109:.\main.c      ****         rventa1.id_ef[x]= 1;
 249              		.loc 1 109 0 discriminator 3
 250 005c FB79     		ldrb	r3, [r7, #7]	@ zero_extendqisi2
 251 005e 574A     		ldr	r2, .L6+12
 252 0060 1344     		add	r3, r3, r2
 253 0062 0122     		movs	r2, #1
 254 0064 83F83320 		strb	r2, [r3, #51]
 108:.\main.c      ****     for(x=0; x<=15; x++){
 255              		.loc 1 108 0 discriminator 3
 256 0068 FB79     		ldrb	r3, [r7, #7]	@ zero_extendqisi2
 257 006a 0133     		adds	r3, r3, #1
 258 006c FB71     		strb	r3, [r7, #7]
 259              	.L2:
 108:.\main.c      ****     for(x=0; x<=15; x++){
 260              		.loc 1 108 0 is_stmt 0 discriminator 1
 261 006e FB79     		ldrb	r3, [r7, #7]	@ zero_extendqisi2
 262 0070 0F2B     		cmp	r3, #15
 263 0072 F3D9     		bls	.L3
 110:.\main.c      ****     }
 111:.\main.c      **** 
 112:.\main.c      ****     CyDelay(5);
 264              		.loc 1 112 0 is_stmt 1
 265 0074 0520     		movs	r0, #5
 266 0076 FFF7FEFF 		bl	CyDelay
 113:.\main.c      **** 	/******************Lectura de EEPROM*************/
 114:.\main.c      **** 	
 115:.\main.c      **** 	for(x=13;x<=14;x++){									//Logo
 267              		.loc 1 115 0
 268 007a 0D23     		movs	r3, #13
 269 007c FB71     		strb	r3, [r7, #7]
 270 007e 0EE0     		b	.L4
 271              	.L5:
 116:.\main.c      **** 		id_logo[x-13]=EEPROM_ReadByte(x);
 272              		.loc 1 116 0 discriminator 3
 273 0080 FB79     		ldrb	r3, [r7, #7]	@ zero_extendqisi2
 274 0082 A3F10D04 		sub	r4, r3, #13
 275 0086 FB79     		ldrb	r3, [r7, #7]	@ zero_extendqisi2
 276 0088 9BB2     		uxth	r3, r3
ARM GAS  C:\Users\RECEPC~1\AppData\Local\Temp\ccIpe7td.s 			page 8


 277 008a 1846     		mov	r0, r3
 278 008c FFF7FEFF 		bl	EEPROM_ReadByte
 279 0090 0346     		mov	r3, r0
 280 0092 1A46     		mov	r2, r3
 281 0094 4A4B     		ldr	r3, .L6+16
 282 0096 1A55     		strb	r2, [r3, r4]
 115:.\main.c      **** 		id_logo[x-13]=EEPROM_ReadByte(x);
 283              		.loc 1 115 0 discriminator 3
 284 0098 FB79     		ldrb	r3, [r7, #7]	@ zero_extendqisi2
 285 009a 0133     		adds	r3, r3, #1
 286 009c FB71     		strb	r3, [r7, #7]
 287              	.L4:
 115:.\main.c      **** 		id_logo[x-13]=EEPROM_ReadByte(x);
 288              		.loc 1 115 0 is_stmt 0 discriminator 1
 289 009e FB79     		ldrb	r3, [r7, #7]	@ zero_extendqisi2
 290 00a0 0E2B     		cmp	r3, #14
 291 00a2 EDD9     		bls	.L5
 117:.\main.c      **** 	}
 118:.\main.c      **** 	lado1.mangueras=EEPROM_ReadByte(15);					//Numero de grados y codigo de cada uno 1
 292              		.loc 1 118 0 is_stmt 1
 293 00a4 0F20     		movs	r0, #15
 294 00a6 FFF7FEFF 		bl	EEPROM_ReadByte
 295 00aa 0346     		mov	r3, r0
 296 00ac 1A46     		mov	r2, r3
 297 00ae 414B     		ldr	r3, .L6+4
 298 00b0 83F85C20 		strb	r2, [r3, #92]
 119:.\main.c      **** 	lado1.grado[0][0]=EEPROM_ReadByte(16);
 299              		.loc 1 119 0
 300 00b4 1020     		movs	r0, #16
 301 00b6 FFF7FEFF 		bl	EEPROM_ReadByte
 302 00ba 0346     		mov	r3, r0
 303 00bc 1A46     		mov	r2, r3
 304 00be 3D4B     		ldr	r3, .L6+4
 305 00c0 83F85920 		strb	r2, [r3, #89]
 120:.\main.c      **** 	lado1.grado[1][0]=EEPROM_ReadByte(17);
 306              		.loc 1 120 0
 307 00c4 1120     		movs	r0, #17
 308 00c6 FFF7FEFF 		bl	EEPROM_ReadByte
 309 00ca 0346     		mov	r3, r0
 310 00cc 1A46     		mov	r2, r3
 311 00ce 394B     		ldr	r3, .L6+4
 312 00d0 83F85A20 		strb	r2, [r3, #90]
 121:.\main.c      **** 	lado1.grado[2][0]=EEPROM_ReadByte(18);
 313              		.loc 1 121 0
 314 00d4 1220     		movs	r0, #18
 315 00d6 FFF7FEFF 		bl	EEPROM_ReadByte
 316 00da 0346     		mov	r3, r0
 317 00dc 1A46     		mov	r2, r3
 318 00de 354B     		ldr	r3, .L6+4
 319 00e0 83F85B20 		strb	r2, [r3, #91]
 122:.\main.c      **** 	
 123:.\main.c      **** 	lado2.mangueras=EEPROM_ReadByte(19);					//Numero de grados y codigo de cada uno 1
 320              		.loc 1 123 0
 321 00e4 1320     		movs	r0, #19
 322 00e6 FFF7FEFF 		bl	EEPROM_ReadByte
 323 00ea 0346     		mov	r3, r0
 324 00ec 1A46     		mov	r2, r3
ARM GAS  C:\Users\RECEPC~1\AppData\Local\Temp\ccIpe7td.s 			page 9


 325 00ee 324B     		ldr	r3, .L6+8
 326 00f0 83F85C20 		strb	r2, [r3, #92]
 124:.\main.c      **** 	lado2.grado[0][0]=EEPROM_ReadByte(20);
 327              		.loc 1 124 0
 328 00f4 1420     		movs	r0, #20
 329 00f6 FFF7FEFF 		bl	EEPROM_ReadByte
 330 00fa 0346     		mov	r3, r0
 331 00fc 1A46     		mov	r2, r3
 332 00fe 2E4B     		ldr	r3, .L6+8
 333 0100 83F85920 		strb	r2, [r3, #89]
 125:.\main.c      **** 	lado2.grado[1][0]=EEPROM_ReadByte(21);
 334              		.loc 1 125 0
 335 0104 1520     		movs	r0, #21
 336 0106 FFF7FEFF 		bl	EEPROM_ReadByte
 337 010a 0346     		mov	r3, r0
 338 010c 1A46     		mov	r2, r3
 339 010e 2A4B     		ldr	r3, .L6+8
 340 0110 83F85A20 		strb	r2, [r3, #90]
 126:.\main.c      **** 	lado2.grado[2][0]=EEPROM_ReadByte(22);	
 341              		.loc 1 126 0
 342 0114 1620     		movs	r0, #22
 343 0116 FFF7FEFF 		bl	EEPROM_ReadByte
 344 011a 0346     		mov	r3, r0
 345 011c 1A46     		mov	r2, r3
 346 011e 264B     		ldr	r3, .L6+8
 347 0120 83F85B20 		strb	r2, [r3, #91]
 127:.\main.c      **** 	
 128:.\main.c      **** 	ppux10=EEPROM_ReadByte(23);								//PPU X10
 348              		.loc 1 128 0
 349 0124 1720     		movs	r0, #23
 350 0126 FFF7FEFF 		bl	EEPROM_ReadByte
 351 012a 0346     		mov	r3, r0
 352 012c 1A46     		mov	r2, r3
 353 012e 254B     		ldr	r3, .L6+20
 354 0130 1A70     		strb	r2, [r3]
 129:.\main.c      **** 
 130:.\main.c      **** 	version[1]=EEPROM_ReadByte(30);							//Version de digitos y decimales
 355              		.loc 1 130 0
 356 0132 1E20     		movs	r0, #30
 357 0134 FFF7FEFF 		bl	EEPROM_ReadByte
 358 0138 0346     		mov	r3, r0
 359 013a 1A46     		mov	r2, r3
 360 013c 224B     		ldr	r3, .L6+24
 361 013e 5A70     		strb	r2, [r3, #1]
 131:.\main.c      **** 	version[2]=EEPROM_ReadByte(31);
 362              		.loc 1 131 0
 363 0140 1F20     		movs	r0, #31
 364 0142 FFF7FEFF 		bl	EEPROM_ReadByte
 365 0146 0346     		mov	r3, r0
 366 0148 1A46     		mov	r2, r3
 367 014a 1F4B     		ldr	r3, .L6+24
 368 014c 9A70     		strb	r2, [r3, #2]
 132:.\main.c      **** 	version[3]=EEPROM_ReadByte(32);
 369              		.loc 1 132 0
 370 014e 2020     		movs	r0, #32
 371 0150 FFF7FEFF 		bl	EEPROM_ReadByte
 372 0154 0346     		mov	r3, r0
ARM GAS  C:\Users\RECEPC~1\AppData\Local\Temp\ccIpe7td.s 			page 10


 373 0156 1A46     		mov	r2, r3
 374 0158 1B4B     		ldr	r3, .L6+24
 375 015a DA70     		strb	r2, [r3, #3]
 133:.\main.c      **** 		 
 134:.\main.c      **** 	lado1.dir=EEPROM_ReadByte(26);							//Lado A
 376              		.loc 1 134 0
 377 015c 1A20     		movs	r0, #26
 378 015e FFF7FEFF 		bl	EEPROM_ReadByte
 379 0162 0346     		mov	r3, r0
 380 0164 1A46     		mov	r2, r3
 381 0166 134B     		ldr	r3, .L6+4
 382 0168 1A70     		strb	r2, [r3]
 135:.\main.c      **** 
 136:.\main.c      **** 	lado2.dir=EEPROM_ReadByte(28);							//Lado B
 383              		.loc 1 136 0
 384 016a 1C20     		movs	r0, #28
 385 016c FFF7FEFF 		bl	EEPROM_ReadByte
 386 0170 0346     		mov	r3, r0
 387 0172 1A46     		mov	r2, r3
 388 0174 104B     		ldr	r3, .L6+8
 389 0176 1A70     		strb	r2, [r3]
 137:.\main.c      **** 
 138:.\main.c      ****     lado1.estado=libre;
 390              		.loc 1 138 0
 391 0178 0E4B     		ldr	r3, .L6+4
 392 017a 0122     		movs	r2, #1
 393 017c 5A70     		strb	r2, [r3, #1]
 139:.\main.c      ****     lado2.estado=libre;
 394              		.loc 1 139 0
 395 017e 0E4B     		ldr	r3, .L6+8
 396 0180 0122     		movs	r2, #1
 397 0182 5A70     		strb	r2, [r3, #1]
 140:.\main.c      ****     estado_tanqueando=0;
 398              		.loc 1 140 0
 399 0184 114B     		ldr	r3, .L6+28
 400 0186 0022     		movs	r2, #0
 401 0188 1A70     		strb	r2, [r3]
 141:.\main.c      **** 	//ppux10=1;//1 estacion autogas prueba version de digitos 6
 142:.\main.c      **** 	lado1.mangueras=3;
 402              		.loc 1 142 0
 403 018a 0A4B     		ldr	r3, .L6+4
 404 018c 0322     		movs	r2, #3
 405 018e 83F85C20 		strb	r2, [r3, #92]
 143:.\main.c      **** //	lado1.grado[0][0]=2;				//1 Diesel 2 Corriente 3 Extra 4 Supreme Diesel
 144:.\main.c      **** //	lado1.grado[1][0]=3;
 145:.\main.c      **** //	lado1.grado[2][0]=0;
 146:.\main.c      ****     //version[1]=6;
 147:.\main.c      **** 	version[2]=0;
 406              		.loc 1 147 0
 407 0192 0D4B     		ldr	r3, .L6+24
 408 0194 0022     		movs	r2, #0
 409 0196 9A70     		strb	r2, [r3, #2]
 148:.\main.c      **** 	version[3]=3;
 410              		.loc 1 148 0
 411 0198 0B4B     		ldr	r3, .L6+24
 412 019a 0322     		movs	r2, #3
 413 019c DA70     		strb	r2, [r3, #3]
ARM GAS  C:\Users\RECEPC~1\AppData\Local\Temp\ccIpe7td.s 			page 11


 149:.\main.c      ****     flujo_LCD1 = 0;
 414              		.loc 1 149 0
 415 019e 0C4B     		ldr	r3, .L6+32
 416 01a0 0022     		movs	r2, #0
 417 01a2 1A70     		strb	r2, [r3]
 150:.\main.c      ****     CyDelay(5);	
 418              		.loc 1 150 0
 419 01a4 0520     		movs	r0, #5
 420 01a6 FFF7FEFF 		bl	CyDelay
 151:.\main.c      ****     
 152:.\main.c      **** }
 421              		.loc 1 152 0
 422 01aa 0C37     		adds	r7, r7, #12
 423              		.cfi_def_cfa_offset 12
 424 01ac BD46     		mov	sp, r7
 425              		.cfi_def_cfa_register 13
 426              		@ sp needed
 427 01ae 90BD     		pop	{r4, r7, pc}
 428              	.L7:
 429              		.align	2
 430              	.L6:
 431 01b0 00000000 		.word	timeout_autorizacion
 432 01b4 00000000 		.word	lado1
 433 01b8 00000000 		.word	lado2
 434 01bc 00000000 		.word	rventa1
 435 01c0 00000000 		.word	id_logo
 436 01c4 00000000 		.word	ppux10
 437 01c8 00000000 		.word	version
 438 01cc 00000000 		.word	estado_tanqueando
 439 01d0 00000000 		.word	flujo_LCD1
 440              		.cfi_endproc
 441              	.LFE63:
 442              		.size	init, .-init
 443              		.section	.rodata
 444              		.align	2
 445              	.LC0:
 446 0000 00       		.byte	0
 447 0001 5E       		.byte	94
 448 0002 BC       		.byte	-68
 449 0003 E2       		.byte	-30
 450 0004 61       		.byte	97
 451 0005 3F       		.byte	63
 452 0006 DD       		.byte	-35
 453 0007 83       		.byte	-125
 454 0008 C2       		.byte	-62
 455 0009 9C       		.byte	-100
 456 000a 7E       		.byte	126
 457 000b 20       		.byte	32
 458 000c A3       		.byte	-93
 459 000d FD       		.byte	-3
 460 000e 1F       		.byte	31
 461 000f 41       		.byte	65
 462 0010 9D       		.byte	-99
 463 0011 C3       		.byte	-61
 464 0012 21       		.byte	33
 465 0013 7F       		.byte	127
 466 0014 FC       		.byte	-4
ARM GAS  C:\Users\RECEPC~1\AppData\Local\Temp\ccIpe7td.s 			page 12


 467 0015 A2       		.byte	-94
 468 0016 40       		.byte	64
 469 0017 1E       		.byte	30
 470 0018 5F       		.byte	95
 471 0019 01       		.byte	1
 472 001a E3       		.byte	-29
 473 001b BD       		.byte	-67
 474 001c 3E       		.byte	62
 475 001d 60       		.byte	96
 476 001e 82       		.byte	-126
 477 001f DC       		.byte	-36
 478 0020 23       		.byte	35
 479 0021 7D       		.byte	125
 480 0022 9F       		.byte	-97
 481 0023 C1       		.byte	-63
 482 0024 42       		.byte	66
 483 0025 1C       		.byte	28
 484 0026 FE       		.byte	-2
 485 0027 A0       		.byte	-96
 486 0028 E1       		.byte	-31
 487 0029 BF       		.byte	-65
 488 002a 5D       		.byte	93
 489 002b 03       		.byte	3
 490 002c 80       		.byte	-128
 491 002d DE       		.byte	-34
 492 002e 3C       		.byte	60
 493 002f 62       		.byte	98
 494 0030 BE       		.byte	-66
 495 0031 E0       		.byte	-32
 496 0032 02       		.byte	2
 497 0033 5C       		.byte	92
 498 0034 DF       		.byte	-33
 499 0035 81       		.byte	-127
 500 0036 63       		.byte	99
 501 0037 3D       		.byte	61
 502 0038 7C       		.byte	124
 503 0039 22       		.byte	34
 504 003a C0       		.byte	-64
 505 003b 9E       		.byte	-98
 506 003c 1D       		.byte	29
 507 003d 43       		.byte	67
 508 003e A1       		.byte	-95
 509 003f FF       		.byte	-1
 510 0040 46       		.byte	70
 511 0041 18       		.byte	24
 512 0042 FA       		.byte	-6
 513 0043 A4       		.byte	-92
 514 0044 27       		.byte	39
 515 0045 79       		.byte	121
 516 0046 9B       		.byte	-101
 517 0047 C5       		.byte	-59
 518 0048 84       		.byte	-124
 519 0049 DA       		.byte	-38
 520 004a 38       		.byte	56
 521 004b 66       		.byte	102
 522 004c E5       		.byte	-27
 523 004d BB       		.byte	-69
ARM GAS  C:\Users\RECEPC~1\AppData\Local\Temp\ccIpe7td.s 			page 13


 524 004e 59       		.byte	89
 525 004f 07       		.byte	7
 526 0050 DB       		.byte	-37
 527 0051 85       		.byte	-123
 528 0052 67       		.byte	103
 529 0053 39       		.byte	57
 530 0054 BA       		.byte	-70
 531 0055 E4       		.byte	-28
 532 0056 06       		.byte	6
 533 0057 58       		.byte	88
 534 0058 19       		.byte	25
 535 0059 47       		.byte	71
 536 005a A5       		.byte	-91
 537 005b FB       		.byte	-5
 538 005c 78       		.byte	120
 539 005d 26       		.byte	38
 540 005e C4       		.byte	-60
 541 005f 9A       		.byte	-102
 542 0060 65       		.byte	101
 543 0061 3B       		.byte	59
 544 0062 D9       		.byte	-39
 545 0063 87       		.byte	-121
 546 0064 04       		.byte	4
 547 0065 5A       		.byte	90
 548 0066 B8       		.byte	-72
 549 0067 E6       		.byte	-26
 550 0068 A7       		.byte	-89
 551 0069 F9       		.byte	-7
 552 006a 1B       		.byte	27
 553 006b 45       		.byte	69
 554 006c C6       		.byte	-58
 555 006d 98       		.byte	-104
 556 006e 7A       		.byte	122
 557 006f 24       		.byte	36
 558 0070 F8       		.byte	-8
 559 0071 A6       		.byte	-90
 560 0072 44       		.byte	68
 561 0073 1A       		.byte	26
 562 0074 99       		.byte	-103
 563 0075 C7       		.byte	-57
 564 0076 25       		.byte	37
 565 0077 7B       		.byte	123
 566 0078 3A       		.byte	58
 567 0079 64       		.byte	100
 568 007a 86       		.byte	-122
 569 007b D8       		.byte	-40
 570 007c 5B       		.byte	91
 571 007d 05       		.byte	5
 572 007e E7       		.byte	-25
 573 007f B9       		.byte	-71
 574 0080 8C       		.byte	-116
 575 0081 D2       		.byte	-46
 576 0082 30       		.byte	48
 577 0083 6E       		.byte	110
 578 0084 ED       		.byte	-19
 579 0085 B3       		.byte	-77
 580 0086 51       		.byte	81
ARM GAS  C:\Users\RECEPC~1\AppData\Local\Temp\ccIpe7td.s 			page 14


 581 0087 0F       		.byte	15
 582 0088 4E       		.byte	78
 583 0089 10       		.byte	16
 584 008a F2       		.byte	-14
 585 008b AC       		.byte	-84
 586 008c 2F       		.byte	47
 587 008d 71       		.byte	113
 588 008e 93       		.byte	-109
 589 008f CD       		.byte	-51
 590 0090 11       		.byte	17
 591 0091 4F       		.byte	79
 592 0092 AD       		.byte	-83
 593 0093 F3       		.byte	-13
 594 0094 70       		.byte	112
 595 0095 2E       		.byte	46
 596 0096 CC       		.byte	-52
 597 0097 92       		.byte	-110
 598 0098 D3       		.byte	-45
 599 0099 8D       		.byte	-115
 600 009a 6F       		.byte	111
 601 009b 31       		.byte	49
 602 009c B2       		.byte	-78
 603 009d EC       		.byte	-20
 604 009e 0E       		.byte	14
 605 009f 50       		.byte	80
 606 00a0 AF       		.byte	-81
 607 00a1 F1       		.byte	-15
 608 00a2 13       		.byte	19
 609 00a3 4D       		.byte	77
 610 00a4 CE       		.byte	-50
 611 00a5 90       		.byte	-112
 612 00a6 72       		.byte	114
 613 00a7 2C       		.byte	44
 614 00a8 6D       		.byte	109
 615 00a9 33       		.byte	51
 616 00aa D1       		.byte	-47
 617 00ab 8F       		.byte	-113
 618 00ac 0C       		.byte	12
 619 00ad 52       		.byte	82
 620 00ae B0       		.byte	-80
 621 00af EE       		.byte	-18
 622 00b0 32       		.byte	50
 623 00b1 6C       		.byte	108
 624 00b2 8E       		.byte	-114
 625 00b3 D0       		.byte	-48
 626 00b4 53       		.byte	83
 627 00b5 0D       		.byte	13
 628 00b6 EF       		.byte	-17
 629 00b7 B1       		.byte	-79
 630 00b8 F0       		.byte	-16
 631 00b9 AE       		.byte	-82
 632 00ba 4C       		.byte	76
 633 00bb 12       		.byte	18
 634 00bc 91       		.byte	-111
 635 00bd CF       		.byte	-49
 636 00be 2D       		.byte	45
 637 00bf 73       		.byte	115
ARM GAS  C:\Users\RECEPC~1\AppData\Local\Temp\ccIpe7td.s 			page 15


 638 00c0 CA       		.byte	-54
 639 00c1 94       		.byte	-108
 640 00c2 76       		.byte	118
 641 00c3 28       		.byte	40
 642 00c4 AB       		.byte	-85
 643 00c5 F5       		.byte	-11
 644 00c6 17       		.byte	23
 645 00c7 49       		.byte	73
 646 00c8 08       		.byte	8
 647 00c9 56       		.byte	86
 648 00ca B4       		.byte	-76
 649 00cb EA       		.byte	-22
 650 00cc 69       		.byte	105
 651 00cd 37       		.byte	55
 652 00ce D5       		.byte	-43
 653 00cf 8B       		.byte	-117
 654 00d0 57       		.byte	87
 655 00d1 09       		.byte	9
 656 00d2 EB       		.byte	-21
 657 00d3 B5       		.byte	-75
 658 00d4 36       		.byte	54
 659 00d5 68       		.byte	104
 660 00d6 8A       		.byte	-118
 661 00d7 D4       		.byte	-44
 662 00d8 95       		.byte	-107
 663 00d9 CB       		.byte	-53
 664 00da 29       		.byte	41
 665 00db 77       		.byte	119
 666 00dc F4       		.byte	-12
 667 00dd AA       		.byte	-86
 668 00de 48       		.byte	72
 669 00df 16       		.byte	22
 670 00e0 E9       		.byte	-23
 671 00e1 B7       		.byte	-73
 672 00e2 55       		.byte	85
 673 00e3 0B       		.byte	11
 674 00e4 88       		.byte	-120
 675 00e5 D6       		.byte	-42
 676 00e6 34       		.byte	52
 677 00e7 6A       		.byte	106
 678 00e8 2B       		.byte	43
 679 00e9 75       		.byte	117
 680 00ea 97       		.byte	-105
 681 00eb C9       		.byte	-55
 682 00ec 4A       		.byte	74
 683 00ed 14       		.byte	20
 684 00ee F6       		.byte	-10
 685 00ef A8       		.byte	-88
 686 00f0 74       		.byte	116
 687 00f1 2A       		.byte	42
 688 00f2 C8       		.byte	-56
 689 00f3 96       		.byte	-106
 690 00f4 15       		.byte	21
 691 00f5 4B       		.byte	75
 692 00f6 A9       		.byte	-87
 693 00f7 F7       		.byte	-9
 694 00f8 B6       		.byte	-74
ARM GAS  C:\Users\RECEPC~1\AppData\Local\Temp\ccIpe7td.s 			page 16


 695 00f9 E8       		.byte	-24
 696 00fa 0A       		.byte	10
 697 00fb 54       		.byte	84
 698 00fc D7       		.byte	-41
 699 00fd 89       		.byte	-119
 700 00fe 6B       		.byte	107
 701 00ff 35       		.byte	53
 702              		.section	.text.verificar_check,"ax",%progbits
 703              		.align	2
 704              		.global	verificar_check
 705              		.thumb
 706              		.thumb_func
 707              		.type	verificar_check, %function
 708              	verificar_check:
 709              	.LFB64:
 153:.\main.c      **** 
 154:.\main.c      **** 
 155:.\main.c      **** /*
 156:.\main.c      **** ***************************************************************************************************
 157:.\main.c      **** *                             uint8 verificar_check(uint8 *datos, uint16 size)
 158:.\main.c      **** *
 159:.\main.c      **** * Description : calcula el checksum
 160:.\main.c      **** *               
 161:.\main.c      **** 
 162:.\main.c      **** ***************************************************************************************************
 163:.\main.c      **** */
 164:.\main.c      **** uint8 verificar_check(uint8 *datos, uint16 size){
 710              		.loc 1 164 0
 711              		.cfi_startproc
 712              		@ args = 0, pretend = 0, frame = 272
 713              		@ frame_needed = 1, uses_anonymous_args = 0
 714 0000 80B5     		push	{r7, lr}
 715              		.cfi_def_cfa_offset 8
 716              		.cfi_offset 7, -8
 717              		.cfi_offset 14, -4
 718 0002 C4B0     		sub	sp, sp, #272
 719              		.cfi_def_cfa_offset 280
 720 0004 00AF     		add	r7, sp, #0
 721              		.cfi_def_cfa_register 7
 722 0006 3B1D     		adds	r3, r7, #4
 723 0008 1860     		str	r0, [r3]
 724 000a 0A46     		mov	r2, r1
 725 000c BB1C     		adds	r3, r7, #2
 726 000e 1A80     		strh	r2, [r3]	@ movhi
 165:.\main.c      **** 	uint8 checksum,index;
 166:.\main.c      **** 	uint16 i;
 167:.\main.c      ****     uint8 table[256] = { 
 727              		.loc 1 167 0
 728 0010 07F10803 		add	r3, r7, #8
 729 0014 1A4A     		ldr	r2, .L12
 730 0016 1946     		mov	r1, r3
 731 0018 4FF48073 		mov	r3, #256
 732 001c 0846     		mov	r0, r1
 733 001e 1146     		mov	r1, r2
 734 0020 1A46     		mov	r2, r3
 735 0022 FFF7FEFF 		bl	memcpy
 168:.\main.c      ****     0, 94,188,226, 97, 63,221,131,194,156,126, 32,163,253, 31, 65,
ARM GAS  C:\Users\RECEPC~1\AppData\Local\Temp\ccIpe7td.s 			page 17


 169:.\main.c      ****     157,195, 33,127,252,162, 64, 30, 95,  1,227,189, 62, 96,130,220,
 170:.\main.c      ****     35,125,159,193, 66, 28,254,160,225,191, 93,  3,128,222, 60, 98,
 171:.\main.c      ****     190,224,  2, 92,223,129, 99, 61,124, 34,192,158, 29, 67,161,255,
 172:.\main.c      ****     70, 24,250,164, 39,121,155,197,132,218, 56,102,229,187, 89,  7,
 173:.\main.c      ****     219,133,103, 57,186,228,  6, 88, 25, 71,165,251,120, 38,196,154,
 174:.\main.c      ****     101, 59,217,135,  4, 90,184,230,167,249, 27, 69,198,152,122, 36,
 175:.\main.c      ****     248,166, 68, 26,153,199, 37,123, 58,100,134,216, 91,  5,231,185,
 176:.\main.c      ****     140,210, 48,110,237,179, 81, 15, 78, 16,242,172, 47,113,147,205,
 177:.\main.c      ****     17, 79,173,243,112, 46,204,146,211,141,111, 49,178,236, 14, 80,
 178:.\main.c      ****     175,241, 19, 77,206,144,114, 44,109, 51,209,143, 12, 82,176,238,
 179:.\main.c      ****     50,108,142,208, 83, 13,239,177,240,174, 76, 18,145,207, 45,115,
 180:.\main.c      ****     202,148,118, 40,171,245, 23, 73,  8, 86,180,234,105, 55,213,139,
 181:.\main.c      ****     87,  9,235,181, 54,104,138,212,149,203, 41,119,244,170, 72, 22,
 182:.\main.c      ****     233,183, 85, 11,136,214, 52,106, 43,117,151,201, 74, 20,246,168,
 183:.\main.c      ****     116, 42,200,150, 21, 75,169,247,182,232, 10, 84,215,137,107, 53};	
 184:.\main.c      **** 	checksum=0;
 736              		.loc 1 184 0
 737 0026 0023     		movs	r3, #0
 738 0028 87F80F31 		strb	r3, [r7, #271]
 185:.\main.c      **** 	for(i=0;i<(size-1);i++){
 739              		.loc 1 185 0
 740 002c 0023     		movs	r3, #0
 741 002e A7F80C31 		strh	r3, [r7, #268]	@ movhi
 742 0032 16E0     		b	.L9
 743              	.L10:
 186:.\main.c      **** 		index = (uint8)(checksum ^ datos[i]);
 744              		.loc 1 186 0 discriminator 3
 745 0034 B7F80C31 		ldrh	r3, [r7, #268]
 746 0038 3A1D     		adds	r2, r7, #4
 747 003a 1268     		ldr	r2, [r2]
 748 003c 1344     		add	r3, r3, r2
 749 003e 1A78     		ldrb	r2, [r3]	@ zero_extendqisi2
 750 0040 97F80F31 		ldrb	r3, [r7, #271]
 751 0044 5340     		eors	r3, r3, r2
 752 0046 87F80B31 		strb	r3, [r7, #267]
 187:.\main.c      **** 		checksum = table[index];				
 753              		.loc 1 187 0 discriminator 3
 754 004a 97F80B31 		ldrb	r3, [r7, #267]	@ zero_extendqisi2
 755 004e 07F10802 		add	r2, r7, #8
 756 0052 D35C     		ldrb	r3, [r2, r3]
 757 0054 87F80F31 		strb	r3, [r7, #271]
 185:.\main.c      **** 	for(i=0;i<(size-1);i++){
 758              		.loc 1 185 0 discriminator 3
 759 0058 B7F80C31 		ldrh	r3, [r7, #268]
 760 005c 0133     		adds	r3, r3, #1
 761 005e A7F80C31 		strh	r3, [r7, #268]	@ movhi
 762              	.L9:
 185:.\main.c      **** 	for(i=0;i<(size-1);i++){
 763              		.loc 1 185 0 is_stmt 0 discriminator 1
 764 0062 B7F80C21 		ldrh	r2, [r7, #268]
 765 0066 BB1C     		adds	r3, r7, #2
 766 0068 1B88     		ldrh	r3, [r3]
 767 006a 013B     		subs	r3, r3, #1
 768 006c 9A42     		cmp	r2, r3
 769 006e E1DB     		blt	.L10
 188:.\main.c      **** 	}
 189:.\main.c      **** 	return checksum;
ARM GAS  C:\Users\RECEPC~1\AppData\Local\Temp\ccIpe7td.s 			page 18


 770              		.loc 1 189 0 is_stmt 1
 771 0070 97F80F31 		ldrb	r3, [r7, #271]	@ zero_extendqisi2
 190:.\main.c      **** }
 772              		.loc 1 190 0
 773 0074 1846     		mov	r0, r3
 774 0076 07F58877 		add	r7, r7, #272
 775              		.cfi_def_cfa_offset 8
 776 007a BD46     		mov	sp, r7
 777              		.cfi_def_cfa_register 13
 778              		@ sp needed
 779 007c 80BD     		pop	{r7, pc}
 780              	.L13:
 781 007e 00BF     		.align	2
 782              	.L12:
 783 0080 00000000 		.word	.LC0
 784              		.cfi_endproc
 785              	.LFE64:
 786              		.size	verificar_check, .-verificar_check
 787              		.section	.text.error_op,"ax",%progbits
 788              		.align	2
 789              		.global	error_op
 790              		.thumb
 791              		.thumb_func
 792              		.type	error_op, %function
 793              	error_op:
 794              	.LFB65:
 191:.\main.c      **** 
 192:.\main.c      **** /*
 193:.\main.c      **** ***************************************************************************************************
 194:.\main.c      **** *                                         void error_op()
 195:.\main.c      **** *
 196:.\main.c      **** * Description : Muestra en la pantalla el mensaje de operación incorrecta y regresa al inicio del 
 197:.\main.c      **** *               
 198:.\main.c      **** *
 199:.\main.c      **** * Argument(s) : uint8 lcd, para elegir cual pantalla entra en esta función
 200:.\main.c      **** *
 201:.\main.c      **** * Return(s)   : none
 202:.\main.c      **** *
 203:.\main.c      **** * Caller(s)   : Desde cualquier momento de la operacion donde ocurra un error por parte del usuario
 204:.\main.c      **** *
 205:.\main.c      **** * Note(s)     : none.
 206:.\main.c      **** ***************************************************************************************************
 207:.\main.c      **** */
 208:.\main.c      **** void error_op(uint8 lcd, uint16 imagen){
 795              		.loc 1 208 0
 796              		.cfi_startproc
 797              		@ args = 0, pretend = 0, frame = 8
 798              		@ frame_needed = 1, uses_anonymous_args = 0
 799 0000 80B5     		push	{r7, lr}
 800              		.cfi_def_cfa_offset 8
 801              		.cfi_offset 7, -8
 802              		.cfi_offset 14, -4
 803 0002 82B0     		sub	sp, sp, #8
 804              		.cfi_def_cfa_offset 16
 805 0004 00AF     		add	r7, sp, #0
 806              		.cfi_def_cfa_register 7
 807 0006 0346     		mov	r3, r0
ARM GAS  C:\Users\RECEPC~1\AppData\Local\Temp\ccIpe7td.s 			page 19


 808 0008 0A46     		mov	r2, r1
 809 000a FB71     		strb	r3, [r7, #7]
 810 000c 1346     		mov	r3, r2	@ movhi
 811 000e BB80     		strh	r3, [r7, #4]	@ movhi
 209:.\main.c      **** 	if(lcd==1){
 812              		.loc 1 209 0
 813 0010 FB79     		ldrb	r3, [r7, #7]	@ zero_extendqisi2
 814 0012 012B     		cmp	r3, #1
 815 0014 13D1     		bne	.L15
 210:.\main.c      **** 	   set_imagen(1,imagen);
 816              		.loc 1 210 0
 817 0016 BB88     		ldrh	r3, [r7, #4]
 818 0018 0120     		movs	r0, #1
 819 001a 1946     		mov	r1, r3
 820 001c FFF7FEFF 		bl	set_imagen
 211:.\main.c      **** 	   flujo_LCD1=100;
 821              		.loc 1 211 0
 822 0020 104B     		ldr	r3, .L17
 823 0022 6422     		movs	r2, #100
 824 0024 1A70     		strb	r2, [r3]
 212:.\main.c      **** 	   count_protector=1;
 825              		.loc 1 212 0
 826 0026 104B     		ldr	r3, .L17+4
 827 0028 0122     		movs	r2, #1
 828 002a 1A70     		strb	r2, [r3]
 213:.\main.c      ****        lado1.estado=libre;       
 829              		.loc 1 213 0
 830 002c 0F4B     		ldr	r3, .L17+8
 831 002e 0122     		movs	r2, #1
 832 0030 5A70     		strb	r2, [r3, #1]
 214:.\main.c      **** 	   isr_3_StartEx(animacion);  
 833              		.loc 1 214 0
 834 0032 0F48     		ldr	r0, .L17+12
 835 0034 FFF7FEFF 		bl	isr_3_StartEx
 215:.\main.c      **** 	   Timer_Animacion_Start();
 836              		.loc 1 215 0
 837 0038 FFF7FEFF 		bl	Timer_Animacion_Start
 838 003c 0FE0     		b	.L14
 839              	.L15:
 216:.\main.c      **** 	}
 217:.\main.c      **** 	else{
 218:.\main.c      **** 	    set_imagen(2,imagen);
 840              		.loc 1 218 0
 841 003e BB88     		ldrh	r3, [r7, #4]
 842 0040 0220     		movs	r0, #2
 843 0042 1946     		mov	r1, r3
 844 0044 FFF7FEFF 		bl	set_imagen
 219:.\main.c      **** 	    flujo_LCD2=100;
 845              		.loc 1 219 0
 846 0048 0A4B     		ldr	r3, .L17+16
 847 004a 6422     		movs	r2, #100
 848 004c 1A70     		strb	r2, [r3]
 220:.\main.c      **** 		count_protector2=1;
 849              		.loc 1 220 0
 850 004e 0A4B     		ldr	r3, .L17+20
 851 0050 0122     		movs	r2, #1
 852 0052 1A70     		strb	r2, [r3]
ARM GAS  C:\Users\RECEPC~1\AppData\Local\Temp\ccIpe7td.s 			page 20


 221:.\main.c      **** 	    isr_4_StartEx(animacion2);  
 853              		.loc 1 221 0
 854 0054 0948     		ldr	r0, .L17+24
 855 0056 FFF7FEFF 		bl	isr_4_StartEx
 222:.\main.c      **** 	    Timer_Animacion2_Start();	
 856              		.loc 1 222 0
 857 005a FFF7FEFF 		bl	Timer_Animacion2_Start
 858              	.L14:
 223:.\main.c      **** 	}
 224:.\main.c      **** }
 859              		.loc 1 224 0
 860 005e 0837     		adds	r7, r7, #8
 861              		.cfi_def_cfa_offset 8
 862 0060 BD46     		mov	sp, r7
 863              		.cfi_def_cfa_register 13
 864              		@ sp needed
 865 0062 80BD     		pop	{r7, pc}
 866              	.L18:
 867              		.align	2
 868              	.L17:
 869 0064 00000000 		.word	flujo_LCD1
 870 0068 00000000 		.word	count_protector
 871 006c 00000000 		.word	lado1
 872 0070 00000000 		.word	animacion
 873 0074 00000000 		.word	flujo_LCD2
 874 0078 00000000 		.word	count_protector2
 875 007c 00000000 		.word	animacion2
 876              		.cfi_endproc
 877              	.LFE65:
 878              		.size	error_op, .-error_op
 879              		.section	.text.init_surt,"ax",%progbits
 880              		.align	2
 881              		.global	init_surt
 882              		.thumb
 883              		.thumb_func
 884              		.type	init_surt, %function
 885              	init_surt:
 886              	.LFB66:
 225:.\main.c      **** 
 226:.\main.c      **** /*
 227:.\main.c      **** ***************************************************************************************************
 228:.\main.c      **** *                                         init_surt( void )
 229:.\main.c      **** *
 230:.\main.c      **** * Description : Busca las posiciones del surtidor y las graba en lado.a.dir y lado.b.dir
 231:.\main.c      **** *               
 232:.\main.c      **** *
 233:.\main.c      **** * Argument(s) : none
 234:.\main.c      **** *
 235:.\main.c      **** * Return(s)   : none
 236:.\main.c      **** *
 237:.\main.c      **** * Caller(s)   : main()
 238:.\main.c      **** *
 239:.\main.c      **** * Note(s)     : Falta generar codigo para los casos 1 y 2
 240:.\main.c      **** ***************************************************************************************************
 241:.\main.c      **** */
 242:.\main.c      **** void init_surt(void){
 887              		.loc 1 242 0
ARM GAS  C:\Users\RECEPC~1\AppData\Local\Temp\ccIpe7td.s 			page 21


 888              		.cfi_startproc
 889              		@ args = 0, pretend = 0, frame = 8
 890              		@ frame_needed = 1, uses_anonymous_args = 0
 891 0000 80B5     		push	{r7, lr}
 892              		.cfi_def_cfa_offset 8
 893              		.cfi_offset 7, -8
 894              		.cfi_offset 14, -4
 895 0002 82B0     		sub	sp, sp, #8
 896              		.cfi_def_cfa_offset 16
 897 0004 00AF     		add	r7, sp, #0
 898              		.cfi_def_cfa_register 7
 243:.\main.c      **** 	uint8 estado, ok=0;
 899              		.loc 1 243 0
 900 0006 0023     		movs	r3, #0
 901 0008 FB71     		strb	r3, [r7, #7]
 244:.\main.c      **** 	while(ok<=1){
 902              		.loc 1 244 0
 903 000a 7BE1     		b	.L20
 904              	.L49:
 245:.\main.c      **** 		ok=0;
 905              		.loc 1 245 0
 906 000c 0023     		movs	r3, #0
 907 000e FB71     		strb	r3, [r7, #7]
 246:.\main.c      **** 		if((lado1.dir==0xFF)||(lado2.dir==0xFF)){
 908              		.loc 1 246 0
 909 0010 C04B     		ldr	r3, .L50
 910 0012 1B78     		ldrb	r3, [r3]
 911 0014 DBB2     		uxtb	r3, r3
 912 0016 FF2B     		cmp	r3, #255
 913 0018 04D0     		beq	.L21
 914              		.loc 1 246 0 is_stmt 0 discriminator 1
 915 001a BF4B     		ldr	r3, .L50+4
 916 001c 1B78     		ldrb	r3, [r3]
 917 001e DBB2     		uxtb	r3, r3
 918 0020 FF2B     		cmp	r3, #255
 919 0022 58D1     		bne	.L22
 920              	.L21:
 247:.\main.c      **** 			while(ver_pos()==0){};
 921              		.loc 1 247 0 is_stmt 1
 922 0024 00BF     		nop
 923              	.L23:
 924              		.loc 1 247 0 is_stmt 0 discriminator 1
 925 0026 FFF7FEFF 		bl	ver_pos
 926 002a 0346     		mov	r3, r0
 927 002c 002B     		cmp	r3, #0
 928 002e FAD0     		beq	.L23
 248:.\main.c      **** 		    while(totales(lado1.dir, lado1.mangueras)==0);			
 929              		.loc 1 248 0 is_stmt 1
 930 0030 00BF     		nop
 931              	.L24:
 932              		.loc 1 248 0 is_stmt 0 discriminator 1
 933 0032 B84B     		ldr	r3, .L50
 934 0034 1B78     		ldrb	r3, [r3]
 935 0036 DAB2     		uxtb	r2, r3
 936 0038 B64B     		ldr	r3, .L50
 937 003a 93F85C30 		ldrb	r3, [r3, #92]
 938 003e DBB2     		uxtb	r3, r3
ARM GAS  C:\Users\RECEPC~1\AppData\Local\Temp\ccIpe7td.s 			page 22


 939 0040 1046     		mov	r0, r2
 940 0042 1946     		mov	r1, r3
 941 0044 FFF7FEFF 		bl	totales
 942 0048 0346     		mov	r3, r0
 943 004a 002B     		cmp	r3, #0
 944 004c F1D0     		beq	.L24
 249:.\main.c      **** 			CyDelay(50);	
 945              		.loc 1 249 0 is_stmt 1
 946 004e 3220     		movs	r0, #50
 947 0050 FFF7FEFF 		bl	CyDelay
 250:.\main.c      **** 			while(totales(lado2.dir, lado2.mangueras)==0);
 948              		.loc 1 250 0
 949 0054 00BF     		nop
 950              	.L25:
 951              		.loc 1 250 0 is_stmt 0 discriminator 1
 952 0056 B04B     		ldr	r3, .L50+4
 953 0058 1B78     		ldrb	r3, [r3]
 954 005a DAB2     		uxtb	r2, r3
 955 005c AE4B     		ldr	r3, .L50+4
 956 005e 93F85C30 		ldrb	r3, [r3, #92]
 957 0062 DBB2     		uxtb	r3, r3
 958 0064 1046     		mov	r0, r2
 959 0066 1946     		mov	r1, r3
 960 0068 FFF7FEFF 		bl	totales
 961 006c 0346     		mov	r3, r0
 962 006e 002B     		cmp	r3, #0
 963 0070 F1D0     		beq	.L25
 251:.\main.c      **** 			CyDelay(50);	
 964              		.loc 1 251 0 is_stmt 1
 965 0072 3220     		movs	r0, #50
 966 0074 FFF7FEFF 		bl	CyDelay
 252:.\main.c      **** 			if(EEPROM_WriteByte(lado1.dir, 26)==CYRET_SUCCESS){
 967              		.loc 1 252 0
 968 0078 A64B     		ldr	r3, .L50
 969 007a 1B78     		ldrb	r3, [r3]
 970 007c DBB2     		uxtb	r3, r3
 971 007e 1846     		mov	r0, r3
 972 0080 1A21     		movs	r1, #26
 973 0082 FFF7FEFF 		bl	EEPROM_WriteByte
 974 0086 0346     		mov	r3, r0
 975 0088 002B     		cmp	r3, #0
 976 008a 04D1     		bne	.L26
 253:.\main.c      **** 				set_imagen(1,60);								
 977              		.loc 1 253 0
 978 008c 0120     		movs	r0, #1
 979 008e 3C21     		movs	r1, #60
 980 0090 FFF7FEFF 		bl	set_imagen
 981 0094 03E0     		b	.L27
 982              	.L26:
 254:.\main.c      **** 			}
 255:.\main.c      **** 			else{
 256:.\main.c      **** 				set_imagen(1,85);
 983              		.loc 1 256 0
 984 0096 0120     		movs	r0, #1
 985 0098 5521     		movs	r1, #85
 986 009a FFF7FEFF 		bl	set_imagen
 987              	.L27:
ARM GAS  C:\Users\RECEPC~1\AppData\Local\Temp\ccIpe7td.s 			page 23


 257:.\main.c      **** 			}
 258:.\main.c      **** 			if(EEPROM_WriteByte(lado2.dir, 28)==CYRET_SUCCESS){
 988              		.loc 1 258 0
 989 009e 9E4B     		ldr	r3, .L50+4
 990 00a0 1B78     		ldrb	r3, [r3]
 991 00a2 DBB2     		uxtb	r3, r3
 992 00a4 1846     		mov	r0, r3
 993 00a6 1C21     		movs	r1, #28
 994 00a8 FFF7FEFF 		bl	EEPROM_WriteByte
 995 00ac 0346     		mov	r3, r0
 996 00ae 002B     		cmp	r3, #0
 997 00b0 04D1     		bne	.L28
 259:.\main.c      **** 				set_imagen(2,60);								
 998              		.loc 1 259 0
 999 00b2 0220     		movs	r0, #2
 1000 00b4 3C21     		movs	r1, #60
 1001 00b6 FFF7FEFF 		bl	set_imagen
 1002 00ba 03E0     		b	.L29
 1003              	.L28:
 260:.\main.c      **** 			}
 261:.\main.c      **** 			else{
 262:.\main.c      **** 				set_imagen(2,85);
 1004              		.loc 1 262 0
 1005 00bc 0220     		movs	r0, #2
 1006 00be 5521     		movs	r1, #85
 1007 00c0 FFF7FEFF 		bl	set_imagen
 1008              	.L29:
 263:.\main.c      **** 			}
 264:.\main.c      **** 			flujo_LCD2=0;
 1009              		.loc 1 264 0
 1010 00c4 954B     		ldr	r3, .L50+8
 1011 00c6 0022     		movs	r2, #0
 1012 00c8 1A70     		strb	r2, [r3]
 265:.\main.c      **** 			flujo_LCD1=0;			
 1013              		.loc 1 265 0
 1014 00ca 954B     		ldr	r3, .L50+12
 1015 00cc 0022     		movs	r2, #0
 1016 00ce 1A70     		strb	r2, [r3]
 266:.\main.c      **** 			ok=1;	
 1017              		.loc 1 266 0
 1018 00d0 0123     		movs	r3, #1
 1019 00d2 FB71     		strb	r3, [r7, #7]
 1020 00d4 16E1     		b	.L20
 1021              	.L22:
 267:.\main.c      **** 		}
 268:.\main.c      **** 		else{
 269:.\main.c      **** 			estado=get_estado(lado1.dir);										
 1022              		.loc 1 269 0
 1023 00d6 8F4B     		ldr	r3, .L50
 1024 00d8 1B78     		ldrb	r3, [r3]
 1025 00da DBB2     		uxtb	r3, r3
 1026 00dc 1846     		mov	r0, r3
 1027 00de FFF7FEFF 		bl	get_estado
 1028 00e2 0346     		mov	r3, r0
 1029 00e4 BB71     		strb	r3, [r7, #6]
 270:.\main.c      **** 			switch(estado){
 1030              		.loc 1 270 0
ARM GAS  C:\Users\RECEPC~1\AppData\Local\Temp\ccIpe7td.s 			page 24


 1031 00e6 BB79     		ldrb	r3, [r7, #6]	@ zero_extendqisi2
 1032 00e8 0C2B     		cmp	r3, #12
 1033 00ea 7BD8     		bhi	.L30
 1034 00ec 01A2     		adr	r2, .L32
 1035 00ee 52F823F0 		ldr	pc, [r2, r3, lsl #2]
 1036 00f2 00BF     		.p2align 2
 1037              	.L32:
 1038 00f4 29010000 		.word	.L31+1
 1039 00f8 E5010000 		.word	.L30+1
 1040 00fc E5010000 		.word	.L30+1
 1041 0100 E5010000 		.word	.L30+1
 1042 0104 E5010000 		.word	.L30+1
 1043 0108 E5010000 		.word	.L30+1
 1044 010c 31010000 		.word	.L33+1
 1045 0110 6D010000 		.word	.L34+1
 1046 0114 97010000 		.word	.L35+1
 1047 0118 A5010000 		.word	.L36+1
 1048 011c C1010000 		.word	.L37+1
 1049 0120 B3010000 		.word	.L38+1
 1050 0124 CF010000 		.word	.L39+1
 1051              		.p2align 1
 1052              	.L31:
 271:.\main.c      **** 		         case 0:                     
 272:.\main.c      **** 					lado1.dir=0xFF;
 1053              		.loc 1 272 0
 1054 0128 7A4B     		ldr	r3, .L50
 1055 012a FF22     		movs	r2, #255
 1056 012c 1A70     		strb	r2, [r3]
 273:.\main.c      **** 				 break;	
 1057              		.loc 1 273 0
 1058 012e 59E0     		b	.L30
 1059              	.L33:
 274:.\main.c      **** 			
 275:.\main.c      **** 				case 0x06:
 276:.\main.c      **** 					venta(lado1.dir);
 1060              		.loc 1 276 0
 1061 0130 784B     		ldr	r3, .L50
 1062 0132 1B78     		ldrb	r3, [r3]
 1063 0134 DBB2     		uxtb	r3, r3
 1064 0136 1846     		mov	r0, r3
 1065 0138 FFF7FEFF 		bl	venta
 277:.\main.c      **** 					CyDelay(50);	
 1066              		.loc 1 277 0
 1067 013c 3220     		movs	r0, #50
 1068 013e FFF7FEFF 		bl	CyDelay
 278:.\main.c      **** 					totales(lado1.dir, lado1.mangueras);
 1069              		.loc 1 278 0
 1070 0142 744B     		ldr	r3, .L50
 1071 0144 1B78     		ldrb	r3, [r3]
 1072 0146 DAB2     		uxtb	r2, r3
 1073 0148 724B     		ldr	r3, .L50
 1074 014a 93F85C30 		ldrb	r3, [r3, #92]
 1075 014e DBB2     		uxtb	r3, r3
 1076 0150 1046     		mov	r0, r2
 1077 0152 1946     		mov	r1, r3
 1078 0154 FFF7FEFF 		bl	totales
 279:.\main.c      **** 					CyDelay(50);	
ARM GAS  C:\Users\RECEPC~1\AppData\Local\Temp\ccIpe7td.s 			page 25


 1079              		.loc 1 279 0
 1080 0158 3220     		movs	r0, #50
 1081 015a FFF7FEFF 		bl	CyDelay
 280:.\main.c      **** 					flujo_LCD1=0;					
 1082              		.loc 1 280 0
 1083 015e 704B     		ldr	r3, .L50+12
 1084 0160 0022     		movs	r2, #0
 1085 0162 1A70     		strb	r2, [r3]
 281:.\main.c      **** 					ok++;
 1086              		.loc 1 281 0
 1087 0164 FB79     		ldrb	r3, [r7, #7]	@ zero_extendqisi2
 1088 0166 0133     		adds	r3, r3, #1
 1089 0168 FB71     		strb	r3, [r7, #7]
 282:.\main.c      **** 				break;
 1090              		.loc 1 282 0
 1091 016a 3BE0     		b	.L30
 1092              	.L34:
 283:.\main.c      **** 					
 284:.\main.c      **** 				case 0x07:	
 285:.\main.c      **** 					totales(lado1.dir, lado1.mangueras);
 1093              		.loc 1 285 0
 1094 016c 694B     		ldr	r3, .L50
 1095 016e 1B78     		ldrb	r3, [r3]
 1096 0170 DAB2     		uxtb	r2, r3
 1097 0172 684B     		ldr	r3, .L50
 1098 0174 93F85C30 		ldrb	r3, [r3, #92]
 1099 0178 DBB2     		uxtb	r3, r3
 1100 017a 1046     		mov	r0, r2
 1101 017c 1946     		mov	r1, r3
 1102 017e FFF7FEFF 		bl	totales
 286:.\main.c      **** 					CyDelay(50);	
 1103              		.loc 1 286 0
 1104 0182 3220     		movs	r0, #50
 1105 0184 FFF7FEFF 		bl	CyDelay
 287:.\main.c      **** 					flujo_LCD1=0;					
 1106              		.loc 1 287 0
 1107 0188 654B     		ldr	r3, .L50+12
 1108 018a 0022     		movs	r2, #0
 1109 018c 1A70     		strb	r2, [r3]
 288:.\main.c      **** 					ok++;
 1110              		.loc 1 288 0
 1111 018e FB79     		ldrb	r3, [r7, #7]	@ zero_extendqisi2
 1112 0190 0133     		adds	r3, r3, #1
 1113 0192 FB71     		strb	r3, [r7, #7]
 289:.\main.c      **** 				break;
 1114              		.loc 1 289 0
 1115 0194 26E0     		b	.L30
 1116              	.L35:
 290:.\main.c      **** 				
 291:.\main.c      **** 				case 0x08:
 292:.\main.c      **** 			     	flujo_LCD1=11;
 1117              		.loc 1 292 0
 1118 0196 624B     		ldr	r3, .L50+12
 1119 0198 0B22     		movs	r2, #11
 1120 019a 1A70     		strb	r2, [r3]
 293:.\main.c      **** 					ok++;
 1121              		.loc 1 293 0
ARM GAS  C:\Users\RECEPC~1\AppData\Local\Temp\ccIpe7td.s 			page 26


 1122 019c FB79     		ldrb	r3, [r7, #7]	@ zero_extendqisi2
 1123 019e 0133     		adds	r3, r3, #1
 1124 01a0 FB71     		strb	r3, [r7, #7]
 294:.\main.c      **** 				break;
 1125              		.loc 1 294 0
 1126 01a2 1FE0     		b	.L30
 1127              	.L36:
 295:.\main.c      **** 					
 296:.\main.c      **** 				case 0x09:
 297:.\main.c      **** 			     	flujo_LCD1=11;
 1128              		.loc 1 297 0
 1129 01a4 5E4B     		ldr	r3, .L50+12
 1130 01a6 0B22     		movs	r2, #11
 1131 01a8 1A70     		strb	r2, [r3]
 298:.\main.c      **** 					ok++;
 1132              		.loc 1 298 0
 1133 01aa FB79     		ldrb	r3, [r7, #7]	@ zero_extendqisi2
 1134 01ac 0133     		adds	r3, r3, #1
 1135 01ae FB71     		strb	r3, [r7, #7]
 299:.\main.c      **** 				break;
 1136              		.loc 1 299 0
 1137 01b0 18E0     		b	.L30
 1138              	.L38:
 300:.\main.c      **** 				
 301:.\main.c      **** 		         case 0x0B:                     //Termino venta
 302:.\main.c      **** 					flujo_LCD1=12;
 1139              		.loc 1 302 0
 1140 01b2 5B4B     		ldr	r3, .L50+12
 1141 01b4 0C22     		movs	r2, #12
 1142 01b6 1A70     		strb	r2, [r3]
 303:.\main.c      **** 					ok++;
 1143              		.loc 1 303 0
 1144 01b8 FB79     		ldrb	r3, [r7, #7]	@ zero_extendqisi2
 1145 01ba 0133     		adds	r3, r3, #1
 1146 01bc FB71     		strb	r3, [r7, #7]
 304:.\main.c      **** 				 break;	
 1147              		.loc 1 304 0
 1148 01be 11E0     		b	.L30
 1149              	.L37:
 305:.\main.c      **** 					
 306:.\main.c      **** 		         case 0x0A:						//Termino venta
 307:.\main.c      **** 					flujo_LCD1=12;
 1150              		.loc 1 307 0
 1151 01c0 574B     		ldr	r3, .L50+12
 1152 01c2 0C22     		movs	r2, #12
 1153 01c4 1A70     		strb	r2, [r3]
 308:.\main.c      **** 					ok++;
 1154              		.loc 1 308 0
 1155 01c6 FB79     		ldrb	r3, [r7, #7]	@ zero_extendqisi2
 1156 01c8 0133     		adds	r3, r3, #1
 1157 01ca FB71     		strb	r3, [r7, #7]
 309:.\main.c      **** 				 break;
 1158              		.loc 1 309 0
 1159 01cc 0AE0     		b	.L30
 1160              	.L39:
 310:.\main.c      **** 					
 311:.\main.c      **** 		         case 0x0C:						//Bloqueado por surtiendo al iniciar
ARM GAS  C:\Users\RECEPC~1\AppData\Local\Temp\ccIpe7td.s 			page 27


 312:.\main.c      **** 			     	flujo_LCD1=11;
 1161              		.loc 1 312 0
 1162 01ce 544B     		ldr	r3, .L50+12
 1163 01d0 0B22     		movs	r2, #11
 1164 01d2 1A70     		strb	r2, [r3]
 313:.\main.c      **** 				 	set_imagen(1,8);
 1165              		.loc 1 313 0
 1166 01d4 0120     		movs	r0, #1
 1167 01d6 0821     		movs	r1, #8
 1168 01d8 FFF7FEFF 		bl	set_imagen
 314:.\main.c      **** 					ok++;
 1169              		.loc 1 314 0
 1170 01dc FB79     		ldrb	r3, [r7, #7]	@ zero_extendqisi2
 1171 01de 0133     		adds	r3, r3, #1
 1172 01e0 FB71     		strb	r3, [r7, #7]
 315:.\main.c      **** 				 break;					
 1173              		.loc 1 315 0
 1174 01e2 00BF     		nop
 1175              	.L30:
 316:.\main.c      **** 					
 317:.\main.c      **** 			}
 318:.\main.c      **** 			estado=get_estado(lado2.dir);										
 1176              		.loc 1 318 0
 1177 01e4 4C4B     		ldr	r3, .L50+4
 1178 01e6 1B78     		ldrb	r3, [r3]
 1179 01e8 DBB2     		uxtb	r3, r3
 1180 01ea 1846     		mov	r0, r3
 1181 01ec FFF7FEFF 		bl	get_estado
 1182 01f0 0346     		mov	r3, r0
 1183 01f2 BB71     		strb	r3, [r7, #6]
 319:.\main.c      **** 			switch(estado){
 1184              		.loc 1 319 0
 1185 01f4 BB79     		ldrb	r3, [r7, #6]	@ zero_extendqisi2
 1186 01f6 0C2B     		cmp	r3, #12
 1187 01f8 00F28480 		bhi	.L20
 1188 01fc 01A2     		adr	r2, .L41
 1189 01fe 52F823F0 		ldr	pc, [r2, r3, lsl #2]
 1190 0202 00BF     		.p2align 2
 1191              	.L41:
 1192 0204 39020000 		.word	.L40+1
 1193 0208 05030000 		.word	.L20+1
 1194 020c 05030000 		.word	.L20+1
 1195 0210 05030000 		.word	.L20+1
 1196 0214 05030000 		.word	.L20+1
 1197 0218 05030000 		.word	.L20+1
 1198 021c 41020000 		.word	.L42+1
 1199 0220 7D020000 		.word	.L43+1
 1200 0224 A7020000 		.word	.L44+1
 1201 0228 BD020000 		.word	.L45+1
 1202 022c E1020000 		.word	.L46+1
 1203 0230 D3020000 		.word	.L47+1
 1204 0234 EF020000 		.word	.L48+1
 1205              		.p2align 1
 1206              	.L40:
 320:.\main.c      **** 		         case 0:                     
 321:.\main.c      **** 					lado2.dir=0xFF;
 1207              		.loc 1 321 0
ARM GAS  C:\Users\RECEPC~1\AppData\Local\Temp\ccIpe7td.s 			page 28


 1208 0238 374B     		ldr	r3, .L50+4
 1209 023a FF22     		movs	r2, #255
 1210 023c 1A70     		strb	r2, [r3]
 322:.\main.c      **** 				 break;	
 1211              		.loc 1 322 0
 1212 023e 61E0     		b	.L20
 1213              	.L42:
 323:.\main.c      **** 			
 324:.\main.c      **** 				case 0x06:
 325:.\main.c      **** 					venta(lado2.dir);
 1214              		.loc 1 325 0
 1215 0240 354B     		ldr	r3, .L50+4
 1216 0242 1B78     		ldrb	r3, [r3]
 1217 0244 DBB2     		uxtb	r3, r3
 1218 0246 1846     		mov	r0, r3
 1219 0248 FFF7FEFF 		bl	venta
 326:.\main.c      **** 					CyDelay(50);		
 1220              		.loc 1 326 0
 1221 024c 3220     		movs	r0, #50
 1222 024e FFF7FEFF 		bl	CyDelay
 327:.\main.c      **** 					totales(lado2.dir, lado2.mangueras);
 1223              		.loc 1 327 0
 1224 0252 314B     		ldr	r3, .L50+4
 1225 0254 1B78     		ldrb	r3, [r3]
 1226 0256 DAB2     		uxtb	r2, r3
 1227 0258 2F4B     		ldr	r3, .L50+4
 1228 025a 93F85C30 		ldrb	r3, [r3, #92]
 1229 025e DBB2     		uxtb	r3, r3
 1230 0260 1046     		mov	r0, r2
 1231 0262 1946     		mov	r1, r3
 1232 0264 FFF7FEFF 		bl	totales
 328:.\main.c      **** 					CyDelay(50);	
 1233              		.loc 1 328 0
 1234 0268 3220     		movs	r0, #50
 1235 026a FFF7FEFF 		bl	CyDelay
 329:.\main.c      **** 					flujo_LCD2=0;				
 1236              		.loc 1 329 0
 1237 026e 2B4B     		ldr	r3, .L50+8
 1238 0270 0022     		movs	r2, #0
 1239 0272 1A70     		strb	r2, [r3]
 330:.\main.c      **** 					ok++;
 1240              		.loc 1 330 0
 1241 0274 FB79     		ldrb	r3, [r7, #7]	@ zero_extendqisi2
 1242 0276 0133     		adds	r3, r3, #1
 1243 0278 FB71     		strb	r3, [r7, #7]
 331:.\main.c      **** 				break;
 1244              		.loc 1 331 0
 1245 027a 43E0     		b	.L20
 1246              	.L43:
 332:.\main.c      **** 					
 333:.\main.c      **** 				case 0x07:	
 334:.\main.c      **** 					totales(lado2.dir, lado2.mangueras);
 1247              		.loc 1 334 0
 1248 027c 264B     		ldr	r3, .L50+4
 1249 027e 1B78     		ldrb	r3, [r3]
 1250 0280 DAB2     		uxtb	r2, r3
 1251 0282 254B     		ldr	r3, .L50+4
ARM GAS  C:\Users\RECEPC~1\AppData\Local\Temp\ccIpe7td.s 			page 29


 1252 0284 93F85C30 		ldrb	r3, [r3, #92]
 1253 0288 DBB2     		uxtb	r3, r3
 1254 028a 1046     		mov	r0, r2
 1255 028c 1946     		mov	r1, r3
 1256 028e FFF7FEFF 		bl	totales
 335:.\main.c      **** 					CyDelay(50);	
 1257              		.loc 1 335 0
 1258 0292 3220     		movs	r0, #50
 1259 0294 FFF7FEFF 		bl	CyDelay
 336:.\main.c      **** 					flujo_LCD2=0;					
 1260              		.loc 1 336 0
 1261 0298 204B     		ldr	r3, .L50+8
 1262 029a 0022     		movs	r2, #0
 1263 029c 1A70     		strb	r2, [r3]
 337:.\main.c      **** 					ok++;
 1264              		.loc 1 337 0
 1265 029e FB79     		ldrb	r3, [r7, #7]	@ zero_extendqisi2
 1266 02a0 0133     		adds	r3, r3, #1
 1267 02a2 FB71     		strb	r3, [r7, #7]
 338:.\main.c      **** 				break;
 1268              		.loc 1 338 0
 1269 02a4 2EE0     		b	.L20
 1270              	.L44:
 339:.\main.c      **** 				
 340:.\main.c      **** 				case 0x08:
 341:.\main.c      **** 			     	flujo_LCD2=11;
 1271              		.loc 1 341 0
 1272 02a6 1D4B     		ldr	r3, .L50+8
 1273 02a8 0B22     		movs	r2, #11
 1274 02aa 1A70     		strb	r2, [r3]
 342:.\main.c      **** 				 	set_imagen(2,8);
 1275              		.loc 1 342 0
 1276 02ac 0220     		movs	r0, #2
 1277 02ae 0821     		movs	r1, #8
 1278 02b0 FFF7FEFF 		bl	set_imagen
 343:.\main.c      **** 					ok++;
 1279              		.loc 1 343 0
 1280 02b4 FB79     		ldrb	r3, [r7, #7]	@ zero_extendqisi2
 1281 02b6 0133     		adds	r3, r3, #1
 1282 02b8 FB71     		strb	r3, [r7, #7]
 344:.\main.c      **** 				break;
 1283              		.loc 1 344 0
 1284 02ba 23E0     		b	.L20
 1285              	.L45:
 345:.\main.c      **** 					
 346:.\main.c      **** 				case 0x09:
 347:.\main.c      **** 			     	flujo_LCD2=11;
 1286              		.loc 1 347 0
 1287 02bc 174B     		ldr	r3, .L50+8
 1288 02be 0B22     		movs	r2, #11
 1289 02c0 1A70     		strb	r2, [r3]
 348:.\main.c      **** 				 	set_imagen(2,8);
 1290              		.loc 1 348 0
 1291 02c2 0220     		movs	r0, #2
 1292 02c4 0821     		movs	r1, #8
 1293 02c6 FFF7FEFF 		bl	set_imagen
 349:.\main.c      **** 					ok++;
ARM GAS  C:\Users\RECEPC~1\AppData\Local\Temp\ccIpe7td.s 			page 30


 1294              		.loc 1 349 0
 1295 02ca FB79     		ldrb	r3, [r7, #7]	@ zero_extendqisi2
 1296 02cc 0133     		adds	r3, r3, #1
 1297 02ce FB71     		strb	r3, [r7, #7]
 350:.\main.c      **** 				break;
 1298              		.loc 1 350 0
 1299 02d0 18E0     		b	.L20
 1300              	.L47:
 351:.\main.c      **** 				
 352:.\main.c      **** 		         case 0x0B:                     //Termino venta
 353:.\main.c      **** 					flujo_LCD2=12;
 1301              		.loc 1 353 0
 1302 02d2 124B     		ldr	r3, .L50+8
 1303 02d4 0C22     		movs	r2, #12
 1304 02d6 1A70     		strb	r2, [r3]
 354:.\main.c      **** 					ok++;
 1305              		.loc 1 354 0
 1306 02d8 FB79     		ldrb	r3, [r7, #7]	@ zero_extendqisi2
 1307 02da 0133     		adds	r3, r3, #1
 1308 02dc FB71     		strb	r3, [r7, #7]
 355:.\main.c      **** 				 break;	
 1309              		.loc 1 355 0
 1310 02de 11E0     		b	.L20
 1311              	.L46:
 356:.\main.c      **** 					
 357:.\main.c      **** 		         case 0x0A:						//Termino venta
 358:.\main.c      **** 					flujo_LCD2=12;
 1312              		.loc 1 358 0
 1313 02e0 0E4B     		ldr	r3, .L50+8
 1314 02e2 0C22     		movs	r2, #12
 1315 02e4 1A70     		strb	r2, [r3]
 359:.\main.c      **** 					ok++;
 1316              		.loc 1 359 0
 1317 02e6 FB79     		ldrb	r3, [r7, #7]	@ zero_extendqisi2
 1318 02e8 0133     		adds	r3, r3, #1
 1319 02ea FB71     		strb	r3, [r7, #7]
 360:.\main.c      **** 				 break;
 1320              		.loc 1 360 0
 1321 02ec 0AE0     		b	.L20
 1322              	.L48:
 361:.\main.c      **** 					
 362:.\main.c      **** 		         case 0x0C:						//Bloqueado por surtiendo al iniciar
 363:.\main.c      **** 			     	flujo_LCD2=11;
 1323              		.loc 1 363 0
 1324 02ee 0B4B     		ldr	r3, .L50+8
 1325 02f0 0B22     		movs	r2, #11
 1326 02f2 1A70     		strb	r2, [r3]
 364:.\main.c      **** 				 	set_imagen(2,8);
 1327              		.loc 1 364 0
 1328 02f4 0220     		movs	r0, #2
 1329 02f6 0821     		movs	r1, #8
 1330 02f8 FFF7FEFF 		bl	set_imagen
 365:.\main.c      **** 					ok++;
 1331              		.loc 1 365 0
 1332 02fc FB79     		ldrb	r3, [r7, #7]	@ zero_extendqisi2
 1333 02fe 0133     		adds	r3, r3, #1
 1334 0300 FB71     		strb	r3, [r7, #7]
ARM GAS  C:\Users\RECEPC~1\AppData\Local\Temp\ccIpe7td.s 			page 31


 366:.\main.c      **** 				 break;										
 1335              		.loc 1 366 0
 1336 0302 00BF     		nop
 1337              	.L20:
 244:.\main.c      **** 		ok=0;
 1338              		.loc 1 244 0
 1339 0304 FB79     		ldrb	r3, [r7, #7]	@ zero_extendqisi2
 1340 0306 012B     		cmp	r3, #1
 1341 0308 7FF680AE 		bls	.L49
 367:.\main.c      **** 			}			
 368:.\main.c      **** 		}
 369:.\main.c      **** 	}
 370:.\main.c      **** }
 1342              		.loc 1 370 0
 1343 030c 0837     		adds	r7, r7, #8
 1344              		.cfi_def_cfa_offset 8
 1345 030e BD46     		mov	sp, r7
 1346              		.cfi_def_cfa_register 13
 1347              		@ sp needed
 1348 0310 80BD     		pop	{r7, pc}
 1349              	.L51:
 1350 0312 00BF     		.align	2
 1351              	.L50:
 1352 0314 00000000 		.word	lado1
 1353 0318 00000000 		.word	lado2
 1354 031c 00000000 		.word	flujo_LCD2
 1355 0320 00000000 		.word	flujo_LCD1
 1356              		.cfi_endproc
 1357              	.LFE66:
 1358              		.size	init_surt, .-init_surt
 1359              		.section	.text.polling_rf,"ax",%progbits
 1360              		.align	2
 1361              		.global	polling_rf
 1362              		.thumb
 1363              		.thumb_func
 1364              		.type	polling_rf, %function
 1365              	polling_rf:
 1366              	.LFB67:
 371:.\main.c      **** 
 372:.\main.c      **** /*
 373:.\main.c      **** ***************************************************************************************************
 374:.\main.c      **** *                                         uint8 polling_rf(void)
 375:.\main.c      **** *
 376:.\main.c      **** * Description : 
 377:.\main.c      **** *               
 378:.\main.c      **** *
 379:.\main.c      **** * Argument(s) : none
 380:.\main.c      **** *
 381:.\main.c      **** * Return(s)   : none
 382:.\main.c      **** *
 383:.\main.c      **** * Caller(s)   : 
 384:.\main.c      **** *
 385:.\main.c      **** * Note(s)     : none.
 386:.\main.c      **** ***************************************************************************************************
 387:.\main.c      **** */
 388:.\main.c      **** void polling_rf(void){
 1367              		.loc 1 388 0
ARM GAS  C:\Users\RECEPC~1\AppData\Local\Temp\ccIpe7td.s 			page 32


 1368              		.cfi_startproc
 1369              		@ args = 0, pretend = 0, frame = 24
 1370              		@ frame_needed = 1, uses_anonymous_args = 0
 1371 0000 80B5     		push	{r7, lr}
 1372              		.cfi_def_cfa_offset 8
 1373              		.cfi_offset 7, -8
 1374              		.cfi_offset 14, -4
 1375 0002 86B0     		sub	sp, sp, #24
 1376              		.cfi_def_cfa_offset 32
 1377 0004 00AF     		add	r7, sp, #0
 1378              		.cfi_def_cfa_register 7
 389:.\main.c      **** 	uint16 status1, status2,size,x,t_preset;
 390:.\main.c      **** 	uint8  precio[5],preset[8];
 391:.\main.c      ****     
 392:.\main.c      **** 	if(PC_GetRxBufferSize()>=3){
 1379              		.loc 1 392 0
 1380 0006 FFF7FEFF 		bl	PC_GetRxBufferSize
 1381 000a 0346     		mov	r3, r0
 1382 000c 022B     		cmp	r3, #2
 1383 000e 40F27982 		bls	.L52
 393:.\main.c      **** 		status1=PC_GetRxBufferSize();
 1384              		.loc 1 393 0
 1385 0012 FFF7FEFF 		bl	PC_GetRxBufferSize
 1386 0016 0346     		mov	r3, r0
 1387 0018 3B82     		strh	r3, [r7, #16]	@ movhi
 394:.\main.c      **** 		CyDelay(10);
 1388              		.loc 1 394 0
 1389 001a 0A20     		movs	r0, #10
 1390 001c FFF7FEFF 		bl	CyDelay
 395:.\main.c      **** 		status2=PC_GetRxBufferSize();
 1391              		.loc 1 395 0
 1392 0020 FFF7FEFF 		bl	PC_GetRxBufferSize
 1393 0024 0346     		mov	r3, r0
 1394 0026 FB81     		strh	r3, [r7, #14]	@ movhi
 396:.\main.c      **** 		if(status1==status2){		
 1395              		.loc 1 396 0
 1396 0028 3A8A     		ldrh	r2, [r7, #16]
 1397 002a FB89     		ldrh	r3, [r7, #14]
 1398 002c 9A42     		cmp	r2, r3
 1399 002e 40F06982 		bne	.L52
 397:.\main.c      **** 			if((PC_rxBuffer[0]=='B')&&(PC_rxBuffer[1]=='B')&&(PC_rxBuffer[2]=='B')){
 1400              		.loc 1 397 0
 1401 0032 924B     		ldr	r3, .L87
 1402 0034 1B78     		ldrb	r3, [r3]
 1403 0036 DBB2     		uxtb	r3, r3
 1404 0038 422B     		cmp	r3, #66
 1405 003a 40F05B82 		bne	.L54
 1406              		.loc 1 397 0 is_stmt 0 discriminator 1
 1407 003e 8F4B     		ldr	r3, .L87
 1408 0040 5B78     		ldrb	r3, [r3, #1]
 1409 0042 DBB2     		uxtb	r3, r3
 1410 0044 422B     		cmp	r3, #66
 1411 0046 40F05582 		bne	.L54
 1412              		.loc 1 397 0 discriminator 2
 1413 004a 8C4B     		ldr	r3, .L87
 1414 004c 9B78     		ldrb	r3, [r3, #2]
 1415 004e DBB2     		uxtb	r3, r3
ARM GAS  C:\Users\RECEPC~1\AppData\Local\Temp\ccIpe7td.s 			page 33


 1416 0050 422B     		cmp	r3, #66
 1417 0052 40F04F82 		bne	.L54
 398:.\main.c      **** 				ok_datosRF=0;   
 1418              		.loc 1 398 0 is_stmt 1
 1419 0056 8A4B     		ldr	r3, .L87+4
 1420 0058 0022     		movs	r2, #0
 1421 005a 1A70     		strb	r2, [r3]
 399:.\main.c      **** 				switch(PC_rxBuffer[3]){
 1422              		.loc 1 399 0
 1423 005c 874B     		ldr	r3, .L87
 1424 005e DB78     		ldrb	r3, [r3, #3]
 1425 0060 DBB2     		uxtb	r3, r3
 1426 0062 312B     		cmp	r3, #49
 1427 0064 00F0DE81 		beq	.L56
 1428 0068 452B     		cmp	r3, #69
 1429 006a 00F00482 		beq	.L57
 1430 006e 302B     		cmp	r3, #48
 1431 0070 40F02C82 		bne	.L55
 400:.\main.c      **** 					case cautorizar:
 401:.\main.c      ****                     PC_rxBuffer[3] = 0;
 1432              		.loc 1 401 0
 1433 0074 814B     		ldr	r3, .L87
 1434 0076 0022     		movs	r2, #0
 1435 0078 DA70     		strb	r2, [r3, #3]
 402:.\main.c      **** 						if(PC_rxBuffer[5]=='N'){			//No autorizo el servidor		
 1436              		.loc 1 402 0
 1437 007a 804B     		ldr	r3, .L87
 1438 007c 5B79     		ldrb	r3, [r3, #5]
 1439 007e DBB2     		uxtb	r3, r3
 1440 0080 4E2B     		cmp	r3, #78
 1441 0082 0AD1     		bne	.L59
 403:.\main.c      **** 							error_op((PC_rxBuffer[4] & 0x0F),28);
 1442              		.loc 1 403 0
 1443 0084 7D4B     		ldr	r3, .L87
 1444 0086 1B79     		ldrb	r3, [r3, #4]
 1445 0088 DBB2     		uxtb	r3, r3
 1446 008a 03F00F03 		and	r3, r3, #15
 1447 008e DBB2     		uxtb	r3, r3
 1448 0090 1846     		mov	r0, r3
 1449 0092 1C21     		movs	r1, #28
 1450 0094 FFF7FEFF 		bl	error_op
 404:.\main.c      **** 							break;
 1451              		.loc 1 404 0
 1452 0098 18E2     		b	.L55
 1453              	.L59:
 405:.\main.c      **** 						}
 406:.\main.c      **** 						if(PC_rxBuffer[10]=='F'){		//Cambia precio
 1454              		.loc 1 406 0
 1455 009a 784B     		ldr	r3, .L87
 1456 009c 9B7A     		ldrb	r3, [r3, #10]
 1457 009e DBB2     		uxtb	r3, r3
 1458 00a0 462B     		cmp	r3, #70
 1459 00a2 7DD1     		bne	.L60
 407:.\main.c      ****                             precio[0]=lado1.ppu[rventa1.manguera-1][0]&0x0f;	
 1460              		.loc 1 407 0
 1461 00a4 774B     		ldr	r3, .L87+8
 1462 00a6 9B7E     		ldrb	r3, [r3, #26]	@ zero_extendqisi2
ARM GAS  C:\Users\RECEPC~1\AppData\Local\Temp\ccIpe7td.s 			page 34


 1463 00a8 5A1E     		subs	r2, r3, #1
 1464 00aa 7749     		ldr	r1, .L87+12
 1465 00ac 1346     		mov	r3, r2
 1466 00ae 9B00     		lsls	r3, r3, #2
 1467 00b0 1344     		add	r3, r3, r2
 1468 00b2 0B44     		add	r3, r3, r1
 1469 00b4 4833     		adds	r3, r3, #72
 1470 00b6 9B78     		ldrb	r3, [r3, #2]
 1471 00b8 DBB2     		uxtb	r3, r3
 1472 00ba 03F00F03 		and	r3, r3, #15
 1473 00be DBB2     		uxtb	r3, r3
 1474 00c0 3B72     		strb	r3, [r7, #8]
 408:.\main.c      ****     						precio[1]=lado1.ppu[rventa1.manguera-1][1]&0x0f;
 1475              		.loc 1 408 0
 1476 00c2 704B     		ldr	r3, .L87+8
 1477 00c4 9B7E     		ldrb	r3, [r3, #26]	@ zero_extendqisi2
 1478 00c6 5A1E     		subs	r2, r3, #1
 1479 00c8 6F49     		ldr	r1, .L87+12
 1480 00ca 1346     		mov	r3, r2
 1481 00cc 9B00     		lsls	r3, r3, #2
 1482 00ce 1344     		add	r3, r3, r2
 1483 00d0 0B44     		add	r3, r3, r1
 1484 00d2 4933     		adds	r3, r3, #73
 1485 00d4 9B78     		ldrb	r3, [r3, #2]
 1486 00d6 DBB2     		uxtb	r3, r3
 1487 00d8 03F00F03 		and	r3, r3, #15
 1488 00dc DBB2     		uxtb	r3, r3
 1489 00de 7B72     		strb	r3, [r7, #9]
 409:.\main.c      ****     						precio[2]=lado1.ppu[rventa1.manguera-1][2]&0x0f;
 1490              		.loc 1 409 0
 1491 00e0 684B     		ldr	r3, .L87+8
 1492 00e2 9B7E     		ldrb	r3, [r3, #26]	@ zero_extendqisi2
 1493 00e4 5A1E     		subs	r2, r3, #1
 1494 00e6 6849     		ldr	r1, .L87+12
 1495 00e8 1346     		mov	r3, r2
 1496 00ea 9B00     		lsls	r3, r3, #2
 1497 00ec 1344     		add	r3, r3, r2
 1498 00ee 0B44     		add	r3, r3, r1
 1499 00f0 4A33     		adds	r3, r3, #74
 1500 00f2 9B78     		ldrb	r3, [r3, #2]
 1501 00f4 DBB2     		uxtb	r3, r3
 1502 00f6 03F00F03 		and	r3, r3, #15
 1503 00fa DBB2     		uxtb	r3, r3
 1504 00fc BB72     		strb	r3, [r7, #10]
 410:.\main.c      ****     						precio[3]=lado1.ppu[rventa1.manguera-1][3]&0x0f;
 1505              		.loc 1 410 0
 1506 00fe 614B     		ldr	r3, .L87+8
 1507 0100 9B7E     		ldrb	r3, [r3, #26]	@ zero_extendqisi2
 1508 0102 5A1E     		subs	r2, r3, #1
 1509 0104 6049     		ldr	r1, .L87+12
 1510 0106 1346     		mov	r3, r2
 1511 0108 9B00     		lsls	r3, r3, #2
 1512 010a 1344     		add	r3, r3, r2
 1513 010c 0B44     		add	r3, r3, r1
 1514 010e 4B33     		adds	r3, r3, #75
 1515 0110 9B78     		ldrb	r3, [r3, #2]
 1516 0112 DBB2     		uxtb	r3, r3
ARM GAS  C:\Users\RECEPC~1\AppData\Local\Temp\ccIpe7td.s 			page 35


 1517 0114 03F00F03 		and	r3, r3, #15
 1518 0118 DBB2     		uxtb	r3, r3
 1519 011a FB72     		strb	r3, [r7, #11]
 411:.\main.c      ****     						precio[4]=lado1.ppu[rventa1.manguera-1][4]&0x0f;
 1520              		.loc 1 411 0
 1521 011c 594B     		ldr	r3, .L87+8
 1522 011e 9B7E     		ldrb	r3, [r3, #26]	@ zero_extendqisi2
 1523 0120 5A1E     		subs	r2, r3, #1
 1524 0122 5949     		ldr	r1, .L87+12
 1525 0124 1346     		mov	r3, r2
 1526 0126 9B00     		lsls	r3, r3, #2
 1527 0128 1344     		add	r3, r3, r2
 1528 012a 0B44     		add	r3, r3, r1
 1529 012c 4C33     		adds	r3, r3, #76
 1530 012e 9B78     		ldrb	r3, [r3, #2]
 1531 0130 DBB2     		uxtb	r3, r3
 1532 0132 03F00F03 		and	r3, r3, #15
 1533 0136 DBB2     		uxtb	r3, r3
 1534 0138 3B73     		strb	r3, [r7, #12]
 412:.\main.c      ****                         	if(cambiar_precio((lado1.dir & 0x0F),precio,rventa1.manguera)==0){
 1535              		.loc 1 412 0
 1536 013a 534B     		ldr	r3, .L87+12
 1537 013c 1B78     		ldrb	r3, [r3]
 1538 013e DBB2     		uxtb	r3, r3
 1539 0140 03F00F03 		and	r3, r3, #15
 1540 0144 D9B2     		uxtb	r1, r3
 1541 0146 4F4B     		ldr	r3, .L87+8
 1542 0148 9B7E     		ldrb	r3, [r3, #26]	@ zero_extendqisi2
 1543 014a 07F10802 		add	r2, r7, #8
 1544 014e 0846     		mov	r0, r1
 1545 0150 1146     		mov	r1, r2
 1546 0152 1A46     		mov	r2, r3
 1547 0154 FFF7FEFF 		bl	cambiar_precio
 1548 0158 0346     		mov	r3, r0
 1549 015a 002B     		cmp	r3, #0
 1550 015c 40F09A80 		bne	.L61
 413:.\main.c      **** 								rf_mod[0]='M';
 1551              		.loc 1 413 0
 1552 0160 4A4B     		ldr	r3, .L87+16
 1553 0162 4D22     		movs	r2, #77
 1554 0164 1A70     		strb	r2, [r3]
 414:.\main.c      **** 								rf_mod[1]='U';
 1555              		.loc 1 414 0
 1556 0166 494B     		ldr	r3, .L87+16
 1557 0168 5522     		movs	r2, #85
 1558 016a 5A70     		strb	r2, [r3, #1]
 415:.\main.c      **** 								rf_mod[2]='X';
 1559              		.loc 1 415 0
 1560 016c 474B     		ldr	r3, .L87+16
 1561 016e 5822     		movs	r2, #88
 1562 0170 9A70     		strb	r2, [r3, #2]
 416:.\main.c      **** 								rf_mod[3]=creset;
 1563              		.loc 1 416 0
 1564 0172 464B     		ldr	r3, .L87+16
 1565 0174 4522     		movs	r2, #69
 1566 0176 DA70     		strb	r2, [r3, #3]
 417:.\main.c      **** 								rf_mod[4]=cautorizar;
ARM GAS  C:\Users\RECEPC~1\AppData\Local\Temp\ccIpe7td.s 			page 36


 1567              		.loc 1 417 0
 1568 0178 444B     		ldr	r3, .L87+16
 1569 017a 3022     		movs	r2, #48
 1570 017c 1A71     		strb	r2, [r3, #4]
 418:.\main.c      **** 								rf_mod[5]=PC_rxBuffer[4];
 1571              		.loc 1 418 0
 1572 017e 3F4B     		ldr	r3, .L87
 1573 0180 1B79     		ldrb	r3, [r3, #4]
 1574 0182 DAB2     		uxtb	r2, r3
 1575 0184 414B     		ldr	r3, .L87+16
 1576 0186 5A71     		strb	r2, [r3, #5]
 419:.\main.c      **** 								rf_mod[6]='1';
 1577              		.loc 1 419 0
 1578 0188 404B     		ldr	r3, .L87+16
 1579 018a 3122     		movs	r2, #49
 1580 018c 9A71     		strb	r2, [r3, #6]
 420:.\main.c      **** 								rf_mod[7]='*';
 1581              		.loc 1 420 0
 1582 018e 3F4B     		ldr	r3, .L87+16
 1583 0190 2A22     		movs	r2, #42
 1584 0192 DA71     		strb	r2, [r3, #7]
 421:.\main.c      **** 								size=8;
 1585              		.loc 1 421 0
 1586 0194 0823     		movs	r3, #8
 1587 0196 FB82     		strh	r3, [r7, #22]	@ movhi
 422:.\main.c      **** 								ok_datosRF=1;
 1588              		.loc 1 422 0
 1589 0198 394B     		ldr	r3, .L87+4
 1590 019a 0122     		movs	r2, #1
 1591 019c 1A70     		strb	r2, [r3]
 423:.\main.c      **** 								break;
 1592              		.loc 1 423 0
 1593 019e 95E1     		b	.L55
 1594              	.L60:
 424:.\main.c      **** 							}                                                      
 425:.\main.c      ****   						}
 426:.\main.c      ****                         else{
 427:.\main.c      **** 							totales(lado1.dir, lado1.mangueras);
 1595              		.loc 1 427 0
 1596 01a0 394B     		ldr	r3, .L87+12
 1597 01a2 1B78     		ldrb	r3, [r3]
 1598 01a4 DAB2     		uxtb	r2, r3
 1599 01a6 384B     		ldr	r3, .L87+12
 1600 01a8 93F85C30 		ldrb	r3, [r3, #92]
 1601 01ac DBB2     		uxtb	r3, r3
 1602 01ae 1046     		mov	r0, r2
 1603 01b0 1946     		mov	r1, r3
 1604 01b2 FFF7FEFF 		bl	totales
 428:.\main.c      ****                             if(ppux10==1){
 1605              		.loc 1 428 0
 1606 01b6 364B     		ldr	r3, .L87+20
 1607 01b8 1B78     		ldrb	r3, [r3]
 1608 01ba DBB2     		uxtb	r3, r3
 1609 01bc 012B     		cmp	r3, #1
 1610 01be 11D1     		bne	.L62
 429:.\main.c      ****     							precio[4]=PC_rxBuffer[9];	
 1611              		.loc 1 429 0
ARM GAS  C:\Users\RECEPC~1\AppData\Local\Temp\ccIpe7td.s 			page 37


 1612 01c0 2E4B     		ldr	r3, .L87
 1613 01c2 5B7A     		ldrb	r3, [r3, #9]
 1614 01c4 DBB2     		uxtb	r3, r3
 1615 01c6 3B73     		strb	r3, [r7, #12]
 430:.\main.c      ****     							precio[3]=PC_rxBuffer[8];
 1616              		.loc 1 430 0
 1617 01c8 2C4B     		ldr	r3, .L87
 1618 01ca 1B7A     		ldrb	r3, [r3, #8]
 1619 01cc DBB2     		uxtb	r3, r3
 1620 01ce FB72     		strb	r3, [r7, #11]
 431:.\main.c      ****     							precio[2]=PC_rxBuffer[7];
 1621              		.loc 1 431 0
 1622 01d0 2A4B     		ldr	r3, .L87
 1623 01d2 DB79     		ldrb	r3, [r3, #7]
 1624 01d4 DBB2     		uxtb	r3, r3
 1625 01d6 BB72     		strb	r3, [r7, #10]
 432:.\main.c      ****     							precio[1]=PC_rxBuffer[6];
 1626              		.loc 1 432 0
 1627 01d8 284B     		ldr	r3, .L87
 1628 01da 9B79     		ldrb	r3, [r3, #6]
 1629 01dc DBB2     		uxtb	r3, r3
 1630 01de 7B72     		strb	r3, [r7, #9]
 433:.\main.c      ****     							precio[0]=0;			
 1631              		.loc 1 433 0
 1632 01e0 0023     		movs	r3, #0
 1633 01e2 3B72     		strb	r3, [r7, #8]
 1634              	.L62:
 434:.\main.c      ****                             }
 435:.\main.c      ****                             if(ppux10==0){
 1635              		.loc 1 435 0
 1636 01e4 2A4B     		ldr	r3, .L87+20
 1637 01e6 1B78     		ldrb	r3, [r3]
 1638 01e8 DBB2     		uxtb	r3, r3
 1639 01ea 002B     		cmp	r3, #0
 1640 01ec 13D1     		bne	.L63
 436:.\main.c      ****     							precio[4]=PC_rxBuffer[10];	
 1641              		.loc 1 436 0
 1642 01ee 234B     		ldr	r3, .L87
 1643 01f0 9B7A     		ldrb	r3, [r3, #10]
 1644 01f2 DBB2     		uxtb	r3, r3
 1645 01f4 3B73     		strb	r3, [r7, #12]
 437:.\main.c      ****     							precio[3]=PC_rxBuffer[9];
 1646              		.loc 1 437 0
 1647 01f6 214B     		ldr	r3, .L87
 1648 01f8 5B7A     		ldrb	r3, [r3, #9]
 1649 01fa DBB2     		uxtb	r3, r3
 1650 01fc FB72     		strb	r3, [r7, #11]
 438:.\main.c      ****     							precio[2]=PC_rxBuffer[8];
 1651              		.loc 1 438 0
 1652 01fe 1F4B     		ldr	r3, .L87
 1653 0200 1B7A     		ldrb	r3, [r3, #8]
 1654 0202 DBB2     		uxtb	r3, r3
 1655 0204 BB72     		strb	r3, [r7, #10]
 439:.\main.c      ****     							precio[1]=PC_rxBuffer[7];
 1656              		.loc 1 439 0
 1657 0206 1D4B     		ldr	r3, .L87
 1658 0208 DB79     		ldrb	r3, [r3, #7]
ARM GAS  C:\Users\RECEPC~1\AppData\Local\Temp\ccIpe7td.s 			page 38


 1659 020a DBB2     		uxtb	r3, r3
 1660 020c 7B72     		strb	r3, [r7, #9]
 440:.\main.c      ****     							precio[0]=PC_rxBuffer[6];                            
 1661              		.loc 1 440 0
 1662 020e 1B4B     		ldr	r3, .L87
 1663 0210 9B79     		ldrb	r3, [r3, #6]
 1664 0212 DBB2     		uxtb	r3, r3
 1665 0214 3B72     		strb	r3, [r7, #8]
 1666              	.L63:
 441:.\main.c      ****                             }
 442:.\main.c      **** 							if(cambiar_precio((lado1.dir & 0x0F),precio,rventa1.manguera)==0){
 1667              		.loc 1 442 0
 1668 0216 1C4B     		ldr	r3, .L87+12
 1669 0218 1B78     		ldrb	r3, [r3]
 1670 021a DBB2     		uxtb	r3, r3
 1671 021c 03F00F03 		and	r3, r3, #15
 1672 0220 D9B2     		uxtb	r1, r3
 1673 0222 184B     		ldr	r3, .L87+8
 1674 0224 9B7E     		ldrb	r3, [r3, #26]	@ zero_extendqisi2
 1675 0226 07F10802 		add	r2, r7, #8
 1676 022a 0846     		mov	r0, r1
 1677 022c 1146     		mov	r1, r2
 1678 022e 1A46     		mov	r2, r3
 1679 0230 FFF7FEFF 		bl	cambiar_precio
 1680 0234 0346     		mov	r3, r0
 1681 0236 002B     		cmp	r3, #0
 1682 0238 2CD1     		bne	.L61
 443:.\main.c      **** 								rf_mod[0]='M';
 1683              		.loc 1 443 0
 1684 023a 144B     		ldr	r3, .L87+16
 1685 023c 4D22     		movs	r2, #77
 1686 023e 1A70     		strb	r2, [r3]
 444:.\main.c      **** 								rf_mod[1]='U';
 1687              		.loc 1 444 0
 1688 0240 124B     		ldr	r3, .L87+16
 1689 0242 5522     		movs	r2, #85
 1690 0244 5A70     		strb	r2, [r3, #1]
 445:.\main.c      **** 								rf_mod[2]='X';
 1691              		.loc 1 445 0
 1692 0246 114B     		ldr	r3, .L87+16
 1693 0248 5822     		movs	r2, #88
 1694 024a 9A70     		strb	r2, [r3, #2]
 446:.\main.c      **** 								rf_mod[3]=creset;
 1695              		.loc 1 446 0
 1696 024c 0F4B     		ldr	r3, .L87+16
 1697 024e 4522     		movs	r2, #69
 1698 0250 DA70     		strb	r2, [r3, #3]
 447:.\main.c      **** 								rf_mod[4]=cautorizar;
 1699              		.loc 1 447 0
 1700 0252 0E4B     		ldr	r3, .L87+16
 1701 0254 3022     		movs	r2, #48
 1702 0256 1A71     		strb	r2, [r3, #4]
 448:.\main.c      **** 								rf_mod[5]=PC_rxBuffer[4];
 1703              		.loc 1 448 0
 1704 0258 084B     		ldr	r3, .L87
 1705 025a 1B79     		ldrb	r3, [r3, #4]
 1706 025c DAB2     		uxtb	r2, r3
ARM GAS  C:\Users\RECEPC~1\AppData\Local\Temp\ccIpe7td.s 			page 39


 1707 025e 0B4B     		ldr	r3, .L87+16
 1708 0260 5A71     		strb	r2, [r3, #5]
 449:.\main.c      **** 								rf_mod[6]='1';
 1709              		.loc 1 449 0
 1710 0262 0A4B     		ldr	r3, .L87+16
 1711 0264 3122     		movs	r2, #49
 1712 0266 9A71     		strb	r2, [r3, #6]
 450:.\main.c      **** 								rf_mod[7]='*';
 1713              		.loc 1 450 0
 1714 0268 084B     		ldr	r3, .L87+16
 1715 026a 2A22     		movs	r2, #42
 1716 026c DA71     		strb	r2, [r3, #7]
 451:.\main.c      **** 								size=8;
 1717              		.loc 1 451 0
 1718 026e 0823     		movs	r3, #8
 1719 0270 FB82     		strh	r3, [r7, #22]	@ movhi
 452:.\main.c      **** 								ok_datosRF=1;
 1720              		.loc 1 452 0
 1721 0272 034B     		ldr	r3, .L87+4
 1722 0274 0122     		movs	r2, #1
 1723 0276 1A70     		strb	r2, [r3]
 453:.\main.c      **** 								break;
 1724              		.loc 1 453 0
 1725 0278 28E1     		b	.L55
 1726              	.L88:
 1727 027a 00BF     		.align	2
 1728              	.L87:
 1729 027c 00000000 		.word	PC_rxBuffer
 1730 0280 00000000 		.word	ok_datosRF
 1731 0284 00000000 		.word	rventa1
 1732 0288 00000000 		.word	lado1
 1733 028c 00000000 		.word	rf_mod
 1734 0290 00000000 		.word	ppux10
 1735              	.L61:
 454:.\main.c      **** 							}
 455:.\main.c      ****                         }
 456:.\main.c      **** 						preset[1]=PC_rxBuffer[17];				//Preset
 1736              		.loc 1 456 0
 1737 0294 9D4B     		ldr	r3, .L89
 1738 0296 5B7C     		ldrb	r3, [r3, #17]
 1739 0298 DBB2     		uxtb	r3, r3
 1740 029a 7B70     		strb	r3, [r7, #1]
 457:.\main.c      **** 						if(PC_rxBuffer[17]!=','){
 1741              		.loc 1 457 0
 1742 029c 9B4B     		ldr	r3, .L89
 1743 029e 5B7C     		ldrb	r3, [r3, #17]
 1744 02a0 DBB2     		uxtb	r3, r3
 1745 02a2 2C2B     		cmp	r3, #44
 1746 02a4 06D0     		beq	.L64
 458:.\main.c      **** 							preset[1]=PC_rxBuffer[17] & 0x0F;
 1747              		.loc 1 458 0
 1748 02a6 994B     		ldr	r3, .L89
 1749 02a8 5B7C     		ldrb	r3, [r3, #17]
 1750 02aa DBB2     		uxtb	r3, r3
 1751 02ac 03F00F03 		and	r3, r3, #15
 1752 02b0 DBB2     		uxtb	r3, r3
 1753 02b2 7B70     		strb	r3, [r7, #1]
ARM GAS  C:\Users\RECEPC~1\AppData\Local\Temp\ccIpe7td.s 			page 40


 1754              	.L64:
 459:.\main.c      **** 						}
 460:.\main.c      **** 						preset[2]=PC_rxBuffer[16];
 1755              		.loc 1 460 0
 1756 02b4 954B     		ldr	r3, .L89
 1757 02b6 1B7C     		ldrb	r3, [r3, #16]
 1758 02b8 DBB2     		uxtb	r3, r3
 1759 02ba BB70     		strb	r3, [r7, #2]
 461:.\main.c      **** 						if(PC_rxBuffer[16]!=','){
 1760              		.loc 1 461 0
 1761 02bc 934B     		ldr	r3, .L89
 1762 02be 1B7C     		ldrb	r3, [r3, #16]
 1763 02c0 DBB2     		uxtb	r3, r3
 1764 02c2 2C2B     		cmp	r3, #44
 1765 02c4 06D0     		beq	.L65
 462:.\main.c      **** 							preset[2]=PC_rxBuffer[16] & 0x0F;
 1766              		.loc 1 462 0
 1767 02c6 914B     		ldr	r3, .L89
 1768 02c8 1B7C     		ldrb	r3, [r3, #16]
 1769 02ca DBB2     		uxtb	r3, r3
 1770 02cc 03F00F03 		and	r3, r3, #15
 1771 02d0 DBB2     		uxtb	r3, r3
 1772 02d2 BB70     		strb	r3, [r7, #2]
 1773              	.L65:
 463:.\main.c      **** 						}
 464:.\main.c      **** 						preset[3]=PC_rxBuffer[15];
 1774              		.loc 1 464 0
 1775 02d4 8D4B     		ldr	r3, .L89
 1776 02d6 DB7B     		ldrb	r3, [r3, #15]
 1777 02d8 DBB2     		uxtb	r3, r3
 1778 02da FB70     		strb	r3, [r7, #3]
 465:.\main.c      **** 						if(PC_rxBuffer[15]!=','){
 1779              		.loc 1 465 0
 1780 02dc 8B4B     		ldr	r3, .L89
 1781 02de DB7B     		ldrb	r3, [r3, #15]
 1782 02e0 DBB2     		uxtb	r3, r3
 1783 02e2 2C2B     		cmp	r3, #44
 1784 02e4 06D0     		beq	.L66
 466:.\main.c      **** 							preset[3]=PC_rxBuffer[15] & 0x0F;
 1785              		.loc 1 466 0
 1786 02e6 894B     		ldr	r3, .L89
 1787 02e8 DB7B     		ldrb	r3, [r3, #15]
 1788 02ea DBB2     		uxtb	r3, r3
 1789 02ec 03F00F03 		and	r3, r3, #15
 1790 02f0 DBB2     		uxtb	r3, r3
 1791 02f2 FB70     		strb	r3, [r7, #3]
 1792              	.L66:
 467:.\main.c      **** 						}
 468:.\main.c      **** 						preset[4]=PC_rxBuffer[14];
 1793              		.loc 1 468 0
 1794 02f4 854B     		ldr	r3, .L89
 1795 02f6 9B7B     		ldrb	r3, [r3, #14]
 1796 02f8 DBB2     		uxtb	r3, r3
 1797 02fa 3B71     		strb	r3, [r7, #4]
 469:.\main.c      **** 						if(PC_rxBuffer[14]!=','){
 1798              		.loc 1 469 0
 1799 02fc 834B     		ldr	r3, .L89
ARM GAS  C:\Users\RECEPC~1\AppData\Local\Temp\ccIpe7td.s 			page 41


 1800 02fe 9B7B     		ldrb	r3, [r3, #14]
 1801 0300 DBB2     		uxtb	r3, r3
 1802 0302 2C2B     		cmp	r3, #44
 1803 0304 06D0     		beq	.L67
 470:.\main.c      **** 							preset[4]=PC_rxBuffer[14] & 0x0F;
 1804              		.loc 1 470 0
 1805 0306 814B     		ldr	r3, .L89
 1806 0308 9B7B     		ldrb	r3, [r3, #14]
 1807 030a DBB2     		uxtb	r3, r3
 1808 030c 03F00F03 		and	r3, r3, #15
 1809 0310 DBB2     		uxtb	r3, r3
 1810 0312 3B71     		strb	r3, [r7, #4]
 1811              	.L67:
 471:.\main.c      **** 						}
 472:.\main.c      **** 						preset[5]=PC_rxBuffer[13];
 1812              		.loc 1 472 0
 1813 0314 7D4B     		ldr	r3, .L89
 1814 0316 5B7B     		ldrb	r3, [r3, #13]
 1815 0318 DBB2     		uxtb	r3, r3
 1816 031a 7B71     		strb	r3, [r7, #5]
 473:.\main.c      **** 						if(PC_rxBuffer[13]!=','){
 1817              		.loc 1 473 0
 1818 031c 7B4B     		ldr	r3, .L89
 1819 031e 5B7B     		ldrb	r3, [r3, #13]
 1820 0320 DBB2     		uxtb	r3, r3
 1821 0322 2C2B     		cmp	r3, #44
 1822 0324 06D0     		beq	.L68
 474:.\main.c      **** 							preset[5]=PC_rxBuffer[13] & 0x0F;
 1823              		.loc 1 474 0
 1824 0326 794B     		ldr	r3, .L89
 1825 0328 5B7B     		ldrb	r3, [r3, #13]
 1826 032a DBB2     		uxtb	r3, r3
 1827 032c 03F00F03 		and	r3, r3, #15
 1828 0330 DBB2     		uxtb	r3, r3
 1829 0332 7B71     		strb	r3, [r7, #5]
 1830              	.L68:
 475:.\main.c      **** 						}
 476:.\main.c      **** 						preset[6]=PC_rxBuffer[12];
 1831              		.loc 1 476 0
 1832 0334 754B     		ldr	r3, .L89
 1833 0336 1B7B     		ldrb	r3, [r3, #12]
 1834 0338 DBB2     		uxtb	r3, r3
 1835 033a BB71     		strb	r3, [r7, #6]
 477:.\main.c      **** 						if(PC_rxBuffer[12]!=','){
 1836              		.loc 1 477 0
 1837 033c 734B     		ldr	r3, .L89
 1838 033e 1B7B     		ldrb	r3, [r3, #12]
 1839 0340 DBB2     		uxtb	r3, r3
 1840 0342 2C2B     		cmp	r3, #44
 1841 0344 06D0     		beq	.L69
 478:.\main.c      **** 							preset[6]=PC_rxBuffer[12] & 0x0F;
 1842              		.loc 1 478 0
 1843 0346 714B     		ldr	r3, .L89
 1844 0348 1B7B     		ldrb	r3, [r3, #12]
 1845 034a DBB2     		uxtb	r3, r3
 1846 034c 03F00F03 		and	r3, r3, #15
 1847 0350 DBB2     		uxtb	r3, r3
ARM GAS  C:\Users\RECEPC~1\AppData\Local\Temp\ccIpe7td.s 			page 42


 1848 0352 BB71     		strb	r3, [r7, #6]
 1849              	.L69:
 479:.\main.c      **** 						}
 480:.\main.c      **** 						preset[7]=PC_rxBuffer[11];
 1850              		.loc 1 480 0
 1851 0354 6D4B     		ldr	r3, .L89
 1852 0356 DB7A     		ldrb	r3, [r3, #11]
 1853 0358 DBB2     		uxtb	r3, r3
 1854 035a FB71     		strb	r3, [r7, #7]
 481:.\main.c      **** 						if(PC_rxBuffer[11]!=','){
 1855              		.loc 1 481 0
 1856 035c 6B4B     		ldr	r3, .L89
 1857 035e DB7A     		ldrb	r3, [r3, #11]
 1858 0360 DBB2     		uxtb	r3, r3
 1859 0362 2C2B     		cmp	r3, #44
 1860 0364 06D0     		beq	.L70
 482:.\main.c      **** 							preset[7]=PC_rxBuffer[11] & 0x0F;
 1861              		.loc 1 482 0
 1862 0366 694B     		ldr	r3, .L89
 1863 0368 DB7A     		ldrb	r3, [r3, #11]
 1864 036a DBB2     		uxtb	r3, r3
 1865 036c 03F00F03 		and	r3, r3, #15
 1866 0370 DBB2     		uxtb	r3, r3
 1867 0372 FB71     		strb	r3, [r7, #7]
 1868              	.L70:
 483:.\main.c      **** 						}
 484:.\main.c      **** 						t_preset=PC_rxBuffer[18];
 1869              		.loc 1 484 0
 1870 0374 654B     		ldr	r3, .L89
 1871 0376 9B7C     		ldrb	r3, [r3, #18]
 1872 0378 DBB2     		uxtb	r3, r3
 1873 037a 7B82     		strh	r3, [r7, #18]	@ movhi
 485:.\main.c      **** 						if(t_preset=='1'){
 1874              		.loc 1 485 0
 1875 037c 7B8A     		ldrh	r3, [r7, #18]
 1876 037e 312B     		cmp	r3, #49
 1877 0380 02D1     		bne	.L71
 486:.\main.c      **** 							t_preset=2;
 1878              		.loc 1 486 0
 1879 0382 0223     		movs	r3, #2
 1880 0384 7B82     		strh	r3, [r7, #18]	@ movhi
 1881 0386 01E0     		b	.L72
 1882              	.L71:
 487:.\main.c      **** 						}
 488:.\main.c      **** 						else{
 489:.\main.c      **** 							t_preset=1;
 1883              		.loc 1 489 0
 1884 0388 0123     		movs	r3, #1
 1885 038a 7B82     		strh	r3, [r7, #18]	@ movhi
 1886              	.L72:
 490:.\main.c      **** 						}
 491:.\main.c      **** 						if(programar((lado1.dir & 0x0F),rventa1.manguera,preset,t_preset)==1){		//Programar
 1887              		.loc 1 491 0
 1888 038c 604B     		ldr	r3, .L89+4
 1889 038e 1B78     		ldrb	r3, [r3]
 1890 0390 DBB2     		uxtb	r3, r3
 1891 0392 03F00F03 		and	r3, r3, #15
ARM GAS  C:\Users\RECEPC~1\AppData\Local\Temp\ccIpe7td.s 			page 43


 1892 0396 D8B2     		uxtb	r0, r3
 1893 0398 5E4B     		ldr	r3, .L89+8
 1894 039a 997E     		ldrb	r1, [r3, #26]	@ zero_extendqisi2
 1895 039c 7B8A     		ldrh	r3, [r7, #18]	@ movhi
 1896 039e DBB2     		uxtb	r3, r3
 1897 03a0 3A46     		mov	r2, r7
 1898 03a2 FFF7FEFF 		bl	programar
 1899 03a6 0346     		mov	r3, r0
 1900 03a8 012B     		cmp	r3, #1
 1901 03aa 1BD1     		bne	.L73
 492:.\main.c      ****                             if(ppuinicial==0){                          
 493:.\main.c      **** //                                for(x=0;x<=4;x++){
 494:.\main.c      **** //                            	    precio[x]=lado1.ppu[0][x];	    
 495:.\main.c      **** //                                }
 496:.\main.c      **** //                                cambiar_precio(lado1.dir,precio,1);    
 497:.\main.c      **** //                                for(x=0;x<=4;x++){
 498:.\main.c      **** //                            	    precio[x]=lado1.ppu[1][x];	    
 499:.\main.c      **** //                                }    
 500:.\main.c      **** //                                cambiar_precio(lado1.dir,precio,2);
 501:.\main.c      **** //                                for(x=0;x<=4;x++){
 502:.\main.c      **** //                            	    precio[x]=lado1.ppu[2][x];	    
 503:.\main.c      **** //                                }
 504:.\main.c      **** //                                cambiar_precio(lado1.dir,precio,3);       
 505:.\main.c      ****                             }
 506:.\main.c      ****                             CyDelay(10);
 1902              		.loc 1 506 0
 1903 03ac 0A20     		movs	r0, #10
 1904 03ae FFF7FEFF 		bl	CyDelay
 507:.\main.c      **** 							Surtidor_PutChar(0x10|(lado1.dir & 0x0F));							
 1905              		.loc 1 507 0
 1906 03b2 574B     		ldr	r3, .L89+4
 1907 03b4 1B78     		ldrb	r3, [r3]
 1908 03b6 DBB2     		uxtb	r3, r3
 1909 03b8 DBB2     		uxtb	r3, r3
 1910 03ba 03F00F03 		and	r3, r3, #15
 1911 03be DBB2     		uxtb	r3, r3
 1912 03c0 43F01003 		orr	r3, r3, #16
 1913 03c4 DBB2     		uxtb	r3, r3
 1914 03c6 DBB2     		uxtb	r3, r3
 1915 03c8 1846     		mov	r0, r3
 1916 03ca FFF7FEFF 		bl	Surtidor_PutChar
 508:.\main.c      **** 							lado1.estado=tanqueo;
 1917              		.loc 1 508 0
 1918 03ce 504B     		ldr	r3, .L89+4
 1919 03d0 0622     		movs	r2, #6
 1920 03d2 5A70     		strb	r2, [r3, #1]
 509:.\main.c      **** 							flujo_LCD1=8;
 1921              		.loc 1 509 0
 1922 03d4 504B     		ldr	r3, .L89+12
 1923 03d6 0822     		movs	r2, #8
 1924 03d8 1A70     		strb	r2, [r3]
 510:.\main.c      **** 							set_imagen(1,8);
 1925              		.loc 1 510 0
 1926 03da 0120     		movs	r0, #1
 1927 03dc 0821     		movs	r1, #8
 1928 03de FFF7FEFF 		bl	set_imagen
 511:.\main.c      **** 						}
ARM GAS  C:\Users\RECEPC~1\AppData\Local\Temp\ccIpe7td.s 			page 44


 512:.\main.c      **** 						else{
 513:.\main.c      **** 							rf_mod[0]='M';
 514:.\main.c      **** 							rf_mod[1]='U';
 515:.\main.c      **** 							rf_mod[2]='X';
 516:.\main.c      **** 							rf_mod[3]=creset;
 517:.\main.c      **** 							rf_mod[4]=cautorizar;
 518:.\main.c      **** 							rf_mod[5]=PC_rxBuffer[4];
 519:.\main.c      **** 							rf_mod[6]='2';
 520:.\main.c      **** 							rf_mod[7]='*';
 521:.\main.c      **** 							size=8;
 522:.\main.c      **** 							ok_datosRF=1;							
 523:.\main.c      **** 						}
 524:.\main.c      **** 					break;
 1929              		.loc 1 524 0
 1930 03e2 73E0     		b	.L55
 1931              	.L73:
 513:.\main.c      **** 							rf_mod[1]='U';
 1932              		.loc 1 513 0
 1933 03e4 4D4B     		ldr	r3, .L89+16
 1934 03e6 4D22     		movs	r2, #77
 1935 03e8 1A70     		strb	r2, [r3]
 514:.\main.c      **** 							rf_mod[2]='X';
 1936              		.loc 1 514 0
 1937 03ea 4C4B     		ldr	r3, .L89+16
 1938 03ec 5522     		movs	r2, #85
 1939 03ee 5A70     		strb	r2, [r3, #1]
 515:.\main.c      **** 							rf_mod[3]=creset;
 1940              		.loc 1 515 0
 1941 03f0 4A4B     		ldr	r3, .L89+16
 1942 03f2 5822     		movs	r2, #88
 1943 03f4 9A70     		strb	r2, [r3, #2]
 516:.\main.c      **** 							rf_mod[4]=cautorizar;
 1944              		.loc 1 516 0
 1945 03f6 494B     		ldr	r3, .L89+16
 1946 03f8 4522     		movs	r2, #69
 1947 03fa DA70     		strb	r2, [r3, #3]
 517:.\main.c      **** 							rf_mod[5]=PC_rxBuffer[4];
 1948              		.loc 1 517 0
 1949 03fc 474B     		ldr	r3, .L89+16
 1950 03fe 3022     		movs	r2, #48
 1951 0400 1A71     		strb	r2, [r3, #4]
 518:.\main.c      **** 							rf_mod[6]='2';
 1952              		.loc 1 518 0
 1953 0402 424B     		ldr	r3, .L89
 1954 0404 1B79     		ldrb	r3, [r3, #4]
 1955 0406 DAB2     		uxtb	r2, r3
 1956 0408 444B     		ldr	r3, .L89+16
 1957 040a 5A71     		strb	r2, [r3, #5]
 519:.\main.c      **** 							rf_mod[7]='*';
 1958              		.loc 1 519 0
 1959 040c 434B     		ldr	r3, .L89+16
 1960 040e 3222     		movs	r2, #50
 1961 0410 9A71     		strb	r2, [r3, #6]
 520:.\main.c      **** 							size=8;
 1962              		.loc 1 520 0
 1963 0412 424B     		ldr	r3, .L89+16
 1964 0414 2A22     		movs	r2, #42
ARM GAS  C:\Users\RECEPC~1\AppData\Local\Temp\ccIpe7td.s 			page 45


 1965 0416 DA71     		strb	r2, [r3, #7]
 521:.\main.c      **** 							ok_datosRF=1;							
 1966              		.loc 1 521 0
 1967 0418 0823     		movs	r3, #8
 1968 041a FB82     		strh	r3, [r7, #22]	@ movhi
 522:.\main.c      **** 						}
 1969              		.loc 1 522 0
 1970 041c 404B     		ldr	r3, .L89+20
 1971 041e 0122     		movs	r2, #1
 1972 0420 1A70     		strb	r2, [r3]
 1973              		.loc 1 524 0
 1974 0422 53E0     		b	.L55
 1975              	.L56:
 525:.\main.c      **** 					
 526:.\main.c      **** 					case cimprimir:
 527:.\main.c      **** 						set_imagen(1,55);					
 1976              		.loc 1 527 0
 1977 0424 0120     		movs	r0, #1
 1978 0426 3721     		movs	r1, #55
 1979 0428 FFF7FEFF 		bl	set_imagen
 528:.\main.c      **** 						if(lado1.dir==(lado1.dir & 0x0F)){
 1980              		.loc 1 528 0
 1981 042c 384B     		ldr	r3, .L89+4
 1982 042e 1B78     		ldrb	r3, [r3]
 1983 0430 DBB2     		uxtb	r3, r3
 1984 0432 1A46     		mov	r2, r3
 1985 0434 364B     		ldr	r3, .L89+4
 1986 0436 1B78     		ldrb	r3, [r3]
 1987 0438 DBB2     		uxtb	r3, r3
 1988 043a 03F00F03 		and	r3, r3, #15
 1989 043e 9A42     		cmp	r2, r3
 1990 0440 06D1     		bne	.L75
 529:.\main.c      **** 							lado1.estado=libre;
 1991              		.loc 1 529 0
 1992 0442 334B     		ldr	r3, .L89+4
 1993 0444 0122     		movs	r2, #1
 1994 0446 5A70     		strb	r2, [r3, #1]
 530:.\main.c      **** 							flujo_LCD1=0;
 1995              		.loc 1 530 0
 1996 0448 334B     		ldr	r3, .L89+12
 1997 044a 0022     		movs	r2, #0
 1998 044c 1A70     		strb	r2, [r3]
 1999 044e 11E0     		b	.L76
 2000              	.L75:
 531:.\main.c      **** 						}
 532:.\main.c      **** 						else if(lado2.dir==(PC_rxBuffer[4] & 0x0F)){
 2001              		.loc 1 532 0
 2002 0450 344B     		ldr	r3, .L89+24
 2003 0452 1B78     		ldrb	r3, [r3]
 2004 0454 DBB2     		uxtb	r3, r3
 2005 0456 1A46     		mov	r2, r3
 2006 0458 2C4B     		ldr	r3, .L89
 2007 045a 1B79     		ldrb	r3, [r3, #4]
 2008 045c DBB2     		uxtb	r3, r3
 2009 045e 03F00F03 		and	r3, r3, #15
 2010 0462 9A42     		cmp	r2, r3
 2011 0464 06D1     		bne	.L76
ARM GAS  C:\Users\RECEPC~1\AppData\Local\Temp\ccIpe7td.s 			page 46


 533:.\main.c      **** 							lado2.estado=libre;
 2012              		.loc 1 533 0
 2013 0466 2F4B     		ldr	r3, .L89+24
 2014 0468 0122     		movs	r2, #1
 2015 046a 5A70     		strb	r2, [r3, #1]
 534:.\main.c      **** 							flujo_LCD1=0;
 2016              		.loc 1 534 0
 2017 046c 2A4B     		ldr	r3, .L89+12
 2018 046e 0022     		movs	r2, #0
 2019 0470 1A70     		strb	r2, [r3]
 535:.\main.c      **** 						}						
 536:.\main.c      **** 					break;
 2020              		.loc 1 536 0
 2021 0472 2BE0     		b	.L55
 2022              	.L76:
 2023 0474 2AE0     		b	.L55
 2024              	.L57:
 537:.\main.c      **** 					
 538:.\main.c      **** 					case creset:                                   
 539:.\main.c      ****     						switch(PC_rxBuffer[5]){
 2025              		.loc 1 539 0
 2026 0476 254B     		ldr	r3, .L89
 2027 0478 5B79     		ldrb	r3, [r3, #5]
 2028 047a DBB2     		uxtb	r3, r3
 2029 047c 313B     		subs	r3, r3, #49
 2030 047e 032B     		cmp	r3, #3
 2031 0480 23D8     		bhi	.L85
 2032 0482 01A2     		adr	r2, .L79
 2033 0484 52F823F0 		ldr	pc, [r2, r3, lsl #2]
 2034              		.p2align 2
 2035              	.L79:
 2036 0488 99040000 		.word	.L78+1
 2037 048c A9040000 		.word	.L80+1
 2038 0490 B9040000 		.word	.L81+1
 2039 0494 C9040000 		.word	.L86+1
 2040              		.p2align 1
 2041              	.L78:
 540:.\main.c      ****     							case '1':														
 541:.\main.c      ****     								lado1.estado=libre;
 2042              		.loc 1 541 0
 2043 0498 1D4B     		ldr	r3, .L89+4
 2044 049a 0122     		movs	r2, #1
 2045 049c 5A70     		strb	r2, [r3, #1]
 542:.\main.c      ****     								error_op(1,28);					 //Error de id					
 2046              		.loc 1 542 0
 2047 049e 0120     		movs	r0, #1
 2048 04a0 1C21     		movs	r1, #28
 2049 04a2 FFF7FEFF 		bl	error_op
 543:.\main.c      ****     							break;
 2050              		.loc 1 543 0
 2051 04a6 10E0     		b	.L77
 2052              	.L80:
 544:.\main.c      ****     								
 545:.\main.c      ****     							case '2':
 546:.\main.c      ****     								lado1.estado=libre;
 2053              		.loc 1 546 0
 2054 04a8 194B     		ldr	r3, .L89+4
ARM GAS  C:\Users\RECEPC~1\AppData\Local\Temp\ccIpe7td.s 			page 47


 2055 04aa 0122     		movs	r2, #1
 2056 04ac 5A70     		strb	r2, [r3, #1]
 547:.\main.c      ****     								error_op(1,12);					//Gracias por su compra
 2057              		.loc 1 547 0
 2058 04ae 0120     		movs	r0, #1
 2059 04b0 0C21     		movs	r1, #12
 2060 04b2 FFF7FEFF 		bl	error_op
 548:.\main.c      ****     							break;
 2061              		.loc 1 548 0
 2062 04b6 08E0     		b	.L77
 2063              	.L81:
 549:.\main.c      ****     								
 550:.\main.c      ****     							case '3':
 551:.\main.c      ****     								lado1.estado=libre;
 2064              		.loc 1 551 0
 2065 04b8 154B     		ldr	r3, .L89+4
 2066 04ba 0122     		movs	r2, #1
 2067 04bc 5A70     		strb	r2, [r3, #1]
 552:.\main.c      ****     								error_op(1,12);					//Error de Operacion //85
 2068              		.loc 1 552 0
 2069 04be 0120     		movs	r0, #1
 2070 04c0 0C21     		movs	r1, #12
 2071 04c2 FFF7FEFF 		bl	error_op
 553:.\main.c      ****     							break;
 2072              		.loc 1 553 0
 2073 04c6 00E0     		b	.L77
 2074              	.L86:
 554:.\main.c      ****     								
 555:.\main.c      ****     							case '4':
 556:.\main.c      **** //    								lado1.estado=libre;//
 557:.\main.c      **** //    								error_op(1,12);		//			//Fin Corte
 558:.\main.c      ****     							break;								
 2075              		.loc 1 558 0
 2076 04c8 00BF     		nop
 2077              	.L77:
 2078              	.L85:
 559:.\main.c      ****     								
 560:.\main.c      ****     						}                        
 561:.\main.c      **** 					break;
 2079              		.loc 1 561 0
 2080 04ca 00BF     		nop
 2081              	.L55:
 562:.\main.c      **** 				}
 563:.\main.c      **** 				if(ok_datosRF==1){
 2082              		.loc 1 563 0
 2083 04cc 144B     		ldr	r3, .L89+20
 2084 04ce 1B78     		ldrb	r3, [r3]	@ zero_extendqisi2
 2085 04d0 012B     		cmp	r3, #1
 2086 04d2 0FD1     		bne	.L54
 564:.\main.c      **** 				    for(x=0;x<size;x++){
 2087              		.loc 1 564 0
 2088 04d4 0023     		movs	r3, #0
 2089 04d6 BB82     		strh	r3, [r7, #20]	@ movhi
 2090 04d8 08E0     		b	.L83
 2091              	.L84:
 565:.\main.c      **** 					   PC_PutChar(rf_mod[x]);
 2092              		.loc 1 565 0 discriminator 3
ARM GAS  C:\Users\RECEPC~1\AppData\Local\Temp\ccIpe7td.s 			page 48


 2093 04da BB8A     		ldrh	r3, [r7, #20]
 2094 04dc 0F4A     		ldr	r2, .L89+16
 2095 04de D35C     		ldrb	r3, [r2, r3]	@ zero_extendqisi2
 2096 04e0 1846     		mov	r0, r3
 2097 04e2 FFF7FEFF 		bl	PC_PutChar
 564:.\main.c      **** 				    for(x=0;x<size;x++){
 2098              		.loc 1 564 0 discriminator 3
 2099 04e6 BB8A     		ldrh	r3, [r7, #20]
 2100 04e8 0133     		adds	r3, r3, #1
 2101 04ea BB82     		strh	r3, [r7, #20]	@ movhi
 2102              	.L83:
 564:.\main.c      **** 				    for(x=0;x<size;x++){
 2103              		.loc 1 564 0 is_stmt 0 discriminator 1
 2104 04ec BA8A     		ldrh	r2, [r7, #20]
 2105 04ee FB8A     		ldrh	r3, [r7, #22]
 2106 04f0 9A42     		cmp	r2, r3
 2107 04f2 F2D3     		bcc	.L84
 2108              	.L54:
 566:.\main.c      **** 				    }	               
 567:.\main.c      **** 				}
 568:.\main.c      **** 			}
 569:.\main.c      **** 			PC_ClearRxBuffer();
 2109              		.loc 1 569 0 is_stmt 1
 2110 04f4 FFF7FEFF 		bl	PC_ClearRxBuffer
 570:.\main.c      ****             Surtidor_ClearRxBuffer();
 2111              		.loc 1 570 0
 2112 04f8 FFF7FEFF 		bl	Surtidor_ClearRxBuffer
 571:.\main.c      **** 			status1=0;
 2113              		.loc 1 571 0
 2114 04fc 0023     		movs	r3, #0
 2115 04fe 3B82     		strh	r3, [r7, #16]	@ movhi
 572:.\main.c      **** 			status2=0;			
 2116              		.loc 1 572 0
 2117 0500 0023     		movs	r3, #0
 2118 0502 FB81     		strh	r3, [r7, #14]	@ movhi
 2119              	.L52:
 573:.\main.c      **** 		}		
 574:.\main.c      **** 	}	
 575:.\main.c      **** }
 2120              		.loc 1 575 0
 2121 0504 1837     		adds	r7, r7, #24
 2122              		.cfi_def_cfa_offset 8
 2123 0506 BD46     		mov	sp, r7
 2124              		.cfi_def_cfa_register 13
 2125              		@ sp needed
 2126 0508 80BD     		pop	{r7, pc}
 2127              	.L90:
 2128 050a 00BF     		.align	2
 2129              	.L89:
 2130 050c 00000000 		.word	PC_rxBuffer
 2131 0510 00000000 		.word	lado1
 2132 0514 00000000 		.word	rventa1
 2133 0518 00000000 		.word	flujo_LCD1
 2134 051c 00000000 		.word	rf_mod
 2135 0520 00000000 		.word	ok_datosRF
 2136 0524 00000000 		.word	lado2
 2137              		.cfi_endproc
ARM GAS  C:\Users\RECEPC~1\AppData\Local\Temp\ccIpe7td.s 			page 49


 2138              	.LFE67:
 2139              		.size	polling_rf, .-polling_rf
 2140              		.section	.text.polling_rf2,"ax",%progbits
 2141              		.align	2
 2142              		.global	polling_rf2
 2143              		.thumb
 2144              		.thumb_func
 2145              		.type	polling_rf2, %function
 2146              	polling_rf2:
 2147              	.LFB68:
 576:.\main.c      **** 
 577:.\main.c      **** 
 578:.\main.c      **** 
 579:.\main.c      **** /*
 580:.\main.c      **** ***************************************************************************************************
 581:.\main.c      **** *                                         uint8 polling_rf(void)
 582:.\main.c      **** *
 583:.\main.c      **** * Description : 
 584:.\main.c      **** *               
 585:.\main.c      **** *
 586:.\main.c      **** * Argument(s) : none
 587:.\main.c      **** *
 588:.\main.c      **** * Return(s)   : none
 589:.\main.c      **** *
 590:.\main.c      **** * Caller(s)   : 
 591:.\main.c      **** *
 592:.\main.c      **** * Note(s)     : none.
 593:.\main.c      **** ***************************************************************************************************
 594:.\main.c      **** */
 595:.\main.c      **** void polling_rf2(void){
 2148              		.loc 1 595 0
 2149              		.cfi_startproc
 2150              		@ args = 0, pretend = 0, frame = 24
 2151              		@ frame_needed = 1, uses_anonymous_args = 0
 2152 0000 80B5     		push	{r7, lr}
 2153              		.cfi_def_cfa_offset 8
 2154              		.cfi_offset 7, -8
 2155              		.cfi_offset 14, -4
 2156 0002 86B0     		sub	sp, sp, #24
 2157              		.cfi_def_cfa_offset 32
 2158 0004 00AF     		add	r7, sp, #0
 2159              		.cfi_def_cfa_register 7
 596:.\main.c      **** 	uint16 status1, status2,size,x,t_preset;
 597:.\main.c      **** 	uint8  precio[5],preset[8];
 598:.\main.c      ****     
 599:.\main.c      **** 	if(PC_GetRxBufferSize()>=6){
 2160              		.loc 1 599 0
 2161 0006 FFF7FEFF 		bl	PC_GetRxBufferSize
 2162 000a 0346     		mov	r3, r0
 2163 000c 052B     		cmp	r3, #5
 2164 000e 40F27B82 		bls	.L91
 600:.\main.c      **** 		status1=PC_GetRxBufferSize();
 2165              		.loc 1 600 0
 2166 0012 FFF7FEFF 		bl	PC_GetRxBufferSize
 2167 0016 0346     		mov	r3, r0
 2168 0018 3B82     		strh	r3, [r7, #16]	@ movhi
 601:.\main.c      **** 		CyDelay(10);
ARM GAS  C:\Users\RECEPC~1\AppData\Local\Temp\ccIpe7td.s 			page 50


 2169              		.loc 1 601 0
 2170 001a 0A20     		movs	r0, #10
 2171 001c FFF7FEFF 		bl	CyDelay
 602:.\main.c      **** 		status2=PC_GetRxBufferSize();
 2172              		.loc 1 602 0
 2173 0020 FFF7FEFF 		bl	PC_GetRxBufferSize
 2174 0024 0346     		mov	r3, r0
 2175 0026 FB81     		strh	r3, [r7, #14]	@ movhi
 603:.\main.c      **** 		if(status1==status2){		
 2176              		.loc 1 603 0
 2177 0028 3A8A     		ldrh	r2, [r7, #16]
 2178 002a FB89     		ldrh	r3, [r7, #14]
 2179 002c 9A42     		cmp	r2, r3
 2180 002e 40F06B82 		bne	.L91
 604:.\main.c      **** 			if((PC_rxBuffer[0]=='B')&&(PC_rxBuffer[1]=='B')&&(PC_rxBuffer[2]=='B')){
 2181              		.loc 1 604 0
 2182 0032 924B     		ldr	r3, .L126
 2183 0034 1B78     		ldrb	r3, [r3]
 2184 0036 DBB2     		uxtb	r3, r3
 2185 0038 422B     		cmp	r3, #66
 2186 003a 40F05D82 		bne	.L93
 2187              		.loc 1 604 0 is_stmt 0 discriminator 1
 2188 003e 8F4B     		ldr	r3, .L126
 2189 0040 5B78     		ldrb	r3, [r3, #1]
 2190 0042 DBB2     		uxtb	r3, r3
 2191 0044 422B     		cmp	r3, #66
 2192 0046 40F05782 		bne	.L93
 2193              		.loc 1 604 0 discriminator 2
 2194 004a 8C4B     		ldr	r3, .L126
 2195 004c 9B78     		ldrb	r3, [r3, #2]
 2196 004e DBB2     		uxtb	r3, r3
 2197 0050 422B     		cmp	r3, #66
 2198 0052 40F05182 		bne	.L93
 605:.\main.c      **** 				ok_datosRF=0;   
 2199              		.loc 1 605 0 is_stmt 1
 2200 0056 8A4B     		ldr	r3, .L126+4
 2201 0058 0022     		movs	r2, #0
 2202 005a 1A70     		strb	r2, [r3]
 606:.\main.c      **** 				switch(PC_rxBuffer[3]){
 2203              		.loc 1 606 0
 2204 005c 874B     		ldr	r3, .L126
 2205 005e DB78     		ldrb	r3, [r3, #3]
 2206 0060 DBB2     		uxtb	r3, r3
 2207 0062 312B     		cmp	r3, #49
 2208 0064 00F0E081 		beq	.L95
 2209 0068 452B     		cmp	r3, #69
 2210 006a 00F00682 		beq	.L96
 2211 006e 302B     		cmp	r3, #48
 2212 0070 40F02E82 		bne	.L94
 607:.\main.c      **** 					case cautorizar:
 608:.\main.c      ****                     PC_rxBuffer[3] = 0;
 2213              		.loc 1 608 0
 2214 0074 814B     		ldr	r3, .L126
 2215 0076 0022     		movs	r2, #0
 2216 0078 DA70     		strb	r2, [r3, #3]
 609:.\main.c      **** 						if(PC_rxBuffer[5]=='N'){			//No autorizo el servidor		
 2217              		.loc 1 609 0
ARM GAS  C:\Users\RECEPC~1\AppData\Local\Temp\ccIpe7td.s 			page 51


 2218 007a 804B     		ldr	r3, .L126
 2219 007c 5B79     		ldrb	r3, [r3, #5]
 2220 007e DBB2     		uxtb	r3, r3
 2221 0080 4E2B     		cmp	r3, #78
 2222 0082 0AD1     		bne	.L98
 610:.\main.c      **** 							error_op((PC_rxBuffer[4] & 0x0F),28);
 2223              		.loc 1 610 0
 2224 0084 7D4B     		ldr	r3, .L126
 2225 0086 1B79     		ldrb	r3, [r3, #4]
 2226 0088 DBB2     		uxtb	r3, r3
 2227 008a 03F00F03 		and	r3, r3, #15
 2228 008e DBB2     		uxtb	r3, r3
 2229 0090 1846     		mov	r0, r3
 2230 0092 1C21     		movs	r1, #28
 2231 0094 FFF7FEFF 		bl	error_op
 611:.\main.c      **** 							break;
 2232              		.loc 1 611 0
 2233 0098 1AE2     		b	.L94
 2234              	.L98:
 612:.\main.c      **** 						}
 613:.\main.c      **** 						if(PC_rxBuffer[10]=='F'){		//Cambia precio
 2235              		.loc 1 613 0
 2236 009a 784B     		ldr	r3, .L126
 2237 009c 9B7A     		ldrb	r3, [r3, #10]
 2238 009e DBB2     		uxtb	r3, r3
 2239 00a0 462B     		cmp	r3, #70
 2240 00a2 7DD1     		bne	.L99
 614:.\main.c      ****                             precio[0]=lado2.ppu[rventa1.manguera-1][0]&0x0f;	
 2241              		.loc 1 614 0
 2242 00a4 774B     		ldr	r3, .L126+8
 2243 00a6 9B7E     		ldrb	r3, [r3, #26]	@ zero_extendqisi2
 2244 00a8 5A1E     		subs	r2, r3, #1
 2245 00aa 7749     		ldr	r1, .L126+12
 2246 00ac 1346     		mov	r3, r2
 2247 00ae 9B00     		lsls	r3, r3, #2
 2248 00b0 1344     		add	r3, r3, r2
 2249 00b2 0B44     		add	r3, r3, r1
 2250 00b4 4833     		adds	r3, r3, #72
 2251 00b6 9B78     		ldrb	r3, [r3, #2]
 2252 00b8 DBB2     		uxtb	r3, r3
 2253 00ba 03F00F03 		and	r3, r3, #15
 2254 00be DBB2     		uxtb	r3, r3
 2255 00c0 3B72     		strb	r3, [r7, #8]
 615:.\main.c      ****     						precio[1]=lado2.ppu[rventa1.manguera-1][1]&0x0f;
 2256              		.loc 1 615 0
 2257 00c2 704B     		ldr	r3, .L126+8
 2258 00c4 9B7E     		ldrb	r3, [r3, #26]	@ zero_extendqisi2
 2259 00c6 5A1E     		subs	r2, r3, #1
 2260 00c8 6F49     		ldr	r1, .L126+12
 2261 00ca 1346     		mov	r3, r2
 2262 00cc 9B00     		lsls	r3, r3, #2
 2263 00ce 1344     		add	r3, r3, r2
 2264 00d0 0B44     		add	r3, r3, r1
 2265 00d2 4933     		adds	r3, r3, #73
 2266 00d4 9B78     		ldrb	r3, [r3, #2]
 2267 00d6 DBB2     		uxtb	r3, r3
 2268 00d8 03F00F03 		and	r3, r3, #15
ARM GAS  C:\Users\RECEPC~1\AppData\Local\Temp\ccIpe7td.s 			page 52


 2269 00dc DBB2     		uxtb	r3, r3
 2270 00de 7B72     		strb	r3, [r7, #9]
 616:.\main.c      ****     						precio[2]=lado2.ppu[rventa1.manguera-1][2]&0x0f;
 2271              		.loc 1 616 0
 2272 00e0 684B     		ldr	r3, .L126+8
 2273 00e2 9B7E     		ldrb	r3, [r3, #26]	@ zero_extendqisi2
 2274 00e4 5A1E     		subs	r2, r3, #1
 2275 00e6 6849     		ldr	r1, .L126+12
 2276 00e8 1346     		mov	r3, r2
 2277 00ea 9B00     		lsls	r3, r3, #2
 2278 00ec 1344     		add	r3, r3, r2
 2279 00ee 0B44     		add	r3, r3, r1
 2280 00f0 4A33     		adds	r3, r3, #74
 2281 00f2 9B78     		ldrb	r3, [r3, #2]
 2282 00f4 DBB2     		uxtb	r3, r3
 2283 00f6 03F00F03 		and	r3, r3, #15
 2284 00fa DBB2     		uxtb	r3, r3
 2285 00fc BB72     		strb	r3, [r7, #10]
 617:.\main.c      ****     						precio[3]=lado2.ppu[rventa1.manguera-1][3]&0x0f;
 2286              		.loc 1 617 0
 2287 00fe 614B     		ldr	r3, .L126+8
 2288 0100 9B7E     		ldrb	r3, [r3, #26]	@ zero_extendqisi2
 2289 0102 5A1E     		subs	r2, r3, #1
 2290 0104 6049     		ldr	r1, .L126+12
 2291 0106 1346     		mov	r3, r2
 2292 0108 9B00     		lsls	r3, r3, #2
 2293 010a 1344     		add	r3, r3, r2
 2294 010c 0B44     		add	r3, r3, r1
 2295 010e 4B33     		adds	r3, r3, #75
 2296 0110 9B78     		ldrb	r3, [r3, #2]
 2297 0112 DBB2     		uxtb	r3, r3
 2298 0114 03F00F03 		and	r3, r3, #15
 2299 0118 DBB2     		uxtb	r3, r3
 2300 011a FB72     		strb	r3, [r7, #11]
 618:.\main.c      ****     						precio[4]=lado2.ppu[rventa1.manguera-1][4]&0x0f;
 2301              		.loc 1 618 0
 2302 011c 594B     		ldr	r3, .L126+8
 2303 011e 9B7E     		ldrb	r3, [r3, #26]	@ zero_extendqisi2
 2304 0120 5A1E     		subs	r2, r3, #1
 2305 0122 5949     		ldr	r1, .L126+12
 2306 0124 1346     		mov	r3, r2
 2307 0126 9B00     		lsls	r3, r3, #2
 2308 0128 1344     		add	r3, r3, r2
 2309 012a 0B44     		add	r3, r3, r1
 2310 012c 4C33     		adds	r3, r3, #76
 2311 012e 9B78     		ldrb	r3, [r3, #2]
 2312 0130 DBB2     		uxtb	r3, r3
 2313 0132 03F00F03 		and	r3, r3, #15
 2314 0136 DBB2     		uxtb	r3, r3
 2315 0138 3B73     		strb	r3, [r7, #12]
 619:.\main.c      ****                         	if(cambiar_precio((lado2.dir & 0x0F),precio,rventa2.manguera)==0){
 2316              		.loc 1 619 0
 2317 013a 534B     		ldr	r3, .L126+12
 2318 013c 1B78     		ldrb	r3, [r3]
 2319 013e DBB2     		uxtb	r3, r3
 2320 0140 03F00F03 		and	r3, r3, #15
 2321 0144 D9B2     		uxtb	r1, r3
ARM GAS  C:\Users\RECEPC~1\AppData\Local\Temp\ccIpe7td.s 			page 53


 2322 0146 514B     		ldr	r3, .L126+16
 2323 0148 9B7E     		ldrb	r3, [r3, #26]	@ zero_extendqisi2
 2324 014a 07F10802 		add	r2, r7, #8
 2325 014e 0846     		mov	r0, r1
 2326 0150 1146     		mov	r1, r2
 2327 0152 1A46     		mov	r2, r3
 2328 0154 FFF7FEFF 		bl	cambiar_precio
 2329 0158 0346     		mov	r3, r0
 2330 015a 002B     		cmp	r3, #0
 2331 015c 40F09C80 		bne	.L100
 620:.\main.c      **** 								rf_mod[0]='M';
 2332              		.loc 1 620 0
 2333 0160 4B4B     		ldr	r3, .L126+20
 2334 0162 4D22     		movs	r2, #77
 2335 0164 1A70     		strb	r2, [r3]
 621:.\main.c      **** 								rf_mod[1]='U';
 2336              		.loc 1 621 0
 2337 0166 4A4B     		ldr	r3, .L126+20
 2338 0168 5522     		movs	r2, #85
 2339 016a 5A70     		strb	r2, [r3, #1]
 622:.\main.c      **** 								rf_mod[2]='X';
 2340              		.loc 1 622 0
 2341 016c 484B     		ldr	r3, .L126+20
 2342 016e 5822     		movs	r2, #88
 2343 0170 9A70     		strb	r2, [r3, #2]
 623:.\main.c      **** 								rf_mod[3]=creset;
 2344              		.loc 1 623 0
 2345 0172 474B     		ldr	r3, .L126+20
 2346 0174 4522     		movs	r2, #69
 2347 0176 DA70     		strb	r2, [r3, #3]
 624:.\main.c      **** 								rf_mod[4]=cautorizar;
 2348              		.loc 1 624 0
 2349 0178 454B     		ldr	r3, .L126+20
 2350 017a 3022     		movs	r2, #48
 2351 017c 1A71     		strb	r2, [r3, #4]
 625:.\main.c      **** 								rf_mod[5]=PC_rxBuffer[4];
 2352              		.loc 1 625 0
 2353 017e 3F4B     		ldr	r3, .L126
 2354 0180 1B79     		ldrb	r3, [r3, #4]
 2355 0182 DAB2     		uxtb	r2, r3
 2356 0184 424B     		ldr	r3, .L126+20
 2357 0186 5A71     		strb	r2, [r3, #5]
 626:.\main.c      **** 								rf_mod[6]='1';
 2358              		.loc 1 626 0
 2359 0188 414B     		ldr	r3, .L126+20
 2360 018a 3122     		movs	r2, #49
 2361 018c 9A71     		strb	r2, [r3, #6]
 627:.\main.c      **** 								rf_mod[7]='*';
 2362              		.loc 1 627 0
 2363 018e 404B     		ldr	r3, .L126+20
 2364 0190 2A22     		movs	r2, #42
 2365 0192 DA71     		strb	r2, [r3, #7]
 628:.\main.c      **** 								size=8;
 2366              		.loc 1 628 0
 2367 0194 0823     		movs	r3, #8
 2368 0196 FB82     		strh	r3, [r7, #22]	@ movhi
 629:.\main.c      **** 								ok_datosRF=1;
ARM GAS  C:\Users\RECEPC~1\AppData\Local\Temp\ccIpe7td.s 			page 54


 2369              		.loc 1 629 0
 2370 0198 394B     		ldr	r3, .L126+4
 2371 019a 0122     		movs	r2, #1
 2372 019c 1A70     		strb	r2, [r3]
 630:.\main.c      **** 								break;
 2373              		.loc 1 630 0
 2374 019e 97E1     		b	.L94
 2375              	.L99:
 631:.\main.c      **** 							}                                                      
 632:.\main.c      ****   						}
 633:.\main.c      ****                         else{
 634:.\main.c      **** 							totales(lado2.dir, lado2.mangueras);
 2376              		.loc 1 634 0
 2377 01a0 394B     		ldr	r3, .L126+12
 2378 01a2 1B78     		ldrb	r3, [r3]
 2379 01a4 DAB2     		uxtb	r2, r3
 2380 01a6 384B     		ldr	r3, .L126+12
 2381 01a8 93F85C30 		ldrb	r3, [r3, #92]
 2382 01ac DBB2     		uxtb	r3, r3
 2383 01ae 1046     		mov	r0, r2
 2384 01b0 1946     		mov	r1, r3
 2385 01b2 FFF7FEFF 		bl	totales
 635:.\main.c      ****                             if(ppux10==1){
 2386              		.loc 1 635 0
 2387 01b6 374B     		ldr	r3, .L126+24
 2388 01b8 1B78     		ldrb	r3, [r3]
 2389 01ba DBB2     		uxtb	r3, r3
 2390 01bc 012B     		cmp	r3, #1
 2391 01be 11D1     		bne	.L101
 636:.\main.c      ****     							precio[4]=PC_rxBuffer[9];	
 2392              		.loc 1 636 0
 2393 01c0 2E4B     		ldr	r3, .L126
 2394 01c2 5B7A     		ldrb	r3, [r3, #9]
 2395 01c4 DBB2     		uxtb	r3, r3
 2396 01c6 3B73     		strb	r3, [r7, #12]
 637:.\main.c      ****     							precio[3]=PC_rxBuffer[8];
 2397              		.loc 1 637 0
 2398 01c8 2C4B     		ldr	r3, .L126
 2399 01ca 1B7A     		ldrb	r3, [r3, #8]
 2400 01cc DBB2     		uxtb	r3, r3
 2401 01ce FB72     		strb	r3, [r7, #11]
 638:.\main.c      ****     							precio[2]=PC_rxBuffer[7];
 2402              		.loc 1 638 0
 2403 01d0 2A4B     		ldr	r3, .L126
 2404 01d2 DB79     		ldrb	r3, [r3, #7]
 2405 01d4 DBB2     		uxtb	r3, r3
 2406 01d6 BB72     		strb	r3, [r7, #10]
 639:.\main.c      ****     							precio[1]=PC_rxBuffer[6];
 2407              		.loc 1 639 0
 2408 01d8 284B     		ldr	r3, .L126
 2409 01da 9B79     		ldrb	r3, [r3, #6]
 2410 01dc DBB2     		uxtb	r3, r3
 2411 01de 7B72     		strb	r3, [r7, #9]
 640:.\main.c      ****     							precio[0]=0;			
 2412              		.loc 1 640 0
 2413 01e0 0023     		movs	r3, #0
 2414 01e2 3B72     		strb	r3, [r7, #8]
ARM GAS  C:\Users\RECEPC~1\AppData\Local\Temp\ccIpe7td.s 			page 55


 2415              	.L101:
 641:.\main.c      ****                             }
 642:.\main.c      ****                             if(ppux10==0){
 2416              		.loc 1 642 0
 2417 01e4 2B4B     		ldr	r3, .L126+24
 2418 01e6 1B78     		ldrb	r3, [r3]
 2419 01e8 DBB2     		uxtb	r3, r3
 2420 01ea 002B     		cmp	r3, #0
 2421 01ec 13D1     		bne	.L102
 643:.\main.c      ****     							precio[4]=PC_rxBuffer[10];	
 2422              		.loc 1 643 0
 2423 01ee 234B     		ldr	r3, .L126
 2424 01f0 9B7A     		ldrb	r3, [r3, #10]
 2425 01f2 DBB2     		uxtb	r3, r3
 2426 01f4 3B73     		strb	r3, [r7, #12]
 644:.\main.c      ****     							precio[3]=PC_rxBuffer[9];
 2427              		.loc 1 644 0
 2428 01f6 214B     		ldr	r3, .L126
 2429 01f8 5B7A     		ldrb	r3, [r3, #9]
 2430 01fa DBB2     		uxtb	r3, r3
 2431 01fc FB72     		strb	r3, [r7, #11]
 645:.\main.c      ****     							precio[2]=PC_rxBuffer[8];
 2432              		.loc 1 645 0
 2433 01fe 1F4B     		ldr	r3, .L126
 2434 0200 1B7A     		ldrb	r3, [r3, #8]
 2435 0202 DBB2     		uxtb	r3, r3
 2436 0204 BB72     		strb	r3, [r7, #10]
 646:.\main.c      ****     							precio[1]=PC_rxBuffer[7];
 2437              		.loc 1 646 0
 2438 0206 1D4B     		ldr	r3, .L126
 2439 0208 DB79     		ldrb	r3, [r3, #7]
 2440 020a DBB2     		uxtb	r3, r3
 2441 020c 7B72     		strb	r3, [r7, #9]
 647:.\main.c      ****     							precio[0]=PC_rxBuffer[6];                            
 2442              		.loc 1 647 0
 2443 020e 1B4B     		ldr	r3, .L126
 2444 0210 9B79     		ldrb	r3, [r3, #6]
 2445 0212 DBB2     		uxtb	r3, r3
 2446 0214 3B72     		strb	r3, [r7, #8]
 2447              	.L102:
 648:.\main.c      ****                             }
 649:.\main.c      **** 							if(cambiar_precio((lado2.dir & 0x0F),precio,rventa2.manguera)==0){
 2448              		.loc 1 649 0
 2449 0216 1C4B     		ldr	r3, .L126+12
 2450 0218 1B78     		ldrb	r3, [r3]
 2451 021a DBB2     		uxtb	r3, r3
 2452 021c 03F00F03 		and	r3, r3, #15
 2453 0220 D9B2     		uxtb	r1, r3
 2454 0222 1A4B     		ldr	r3, .L126+16
 2455 0224 9B7E     		ldrb	r3, [r3, #26]	@ zero_extendqisi2
 2456 0226 07F10802 		add	r2, r7, #8
 2457 022a 0846     		mov	r0, r1
 2458 022c 1146     		mov	r1, r2
 2459 022e 1A46     		mov	r2, r3
 2460 0230 FFF7FEFF 		bl	cambiar_precio
 2461 0234 0346     		mov	r3, r0
 2462 0236 002B     		cmp	r3, #0
ARM GAS  C:\Users\RECEPC~1\AppData\Local\Temp\ccIpe7td.s 			page 56


 2463 0238 2ED1     		bne	.L100
 650:.\main.c      **** 								rf_mod[0]='M';
 2464              		.loc 1 650 0
 2465 023a 154B     		ldr	r3, .L126+20
 2466 023c 4D22     		movs	r2, #77
 2467 023e 1A70     		strb	r2, [r3]
 651:.\main.c      **** 								rf_mod[1]='U';
 2468              		.loc 1 651 0
 2469 0240 134B     		ldr	r3, .L126+20
 2470 0242 5522     		movs	r2, #85
 2471 0244 5A70     		strb	r2, [r3, #1]
 652:.\main.c      **** 								rf_mod[2]='X';
 2472              		.loc 1 652 0
 2473 0246 124B     		ldr	r3, .L126+20
 2474 0248 5822     		movs	r2, #88
 2475 024a 9A70     		strb	r2, [r3, #2]
 653:.\main.c      **** 								rf_mod[3]=creset;
 2476              		.loc 1 653 0
 2477 024c 104B     		ldr	r3, .L126+20
 2478 024e 4522     		movs	r2, #69
 2479 0250 DA70     		strb	r2, [r3, #3]
 654:.\main.c      **** 								rf_mod[4]=cautorizar;
 2480              		.loc 1 654 0
 2481 0252 0F4B     		ldr	r3, .L126+20
 2482 0254 3022     		movs	r2, #48
 2483 0256 1A71     		strb	r2, [r3, #4]
 655:.\main.c      **** 								rf_mod[5]=PC_rxBuffer[4];
 2484              		.loc 1 655 0
 2485 0258 084B     		ldr	r3, .L126
 2486 025a 1B79     		ldrb	r3, [r3, #4]
 2487 025c DAB2     		uxtb	r2, r3
 2488 025e 0C4B     		ldr	r3, .L126+20
 2489 0260 5A71     		strb	r2, [r3, #5]
 656:.\main.c      **** 								rf_mod[6]='1';
 2490              		.loc 1 656 0
 2491 0262 0B4B     		ldr	r3, .L126+20
 2492 0264 3122     		movs	r2, #49
 2493 0266 9A71     		strb	r2, [r3, #6]
 657:.\main.c      **** 								rf_mod[7]='*';
 2494              		.loc 1 657 0
 2495 0268 094B     		ldr	r3, .L126+20
 2496 026a 2A22     		movs	r2, #42
 2497 026c DA71     		strb	r2, [r3, #7]
 658:.\main.c      **** 								size=8;
 2498              		.loc 1 658 0
 2499 026e 0823     		movs	r3, #8
 2500 0270 FB82     		strh	r3, [r7, #22]	@ movhi
 659:.\main.c      **** 								ok_datosRF=1;
 2501              		.loc 1 659 0
 2502 0272 034B     		ldr	r3, .L126+4
 2503 0274 0122     		movs	r2, #1
 2504 0276 1A70     		strb	r2, [r3]
 660:.\main.c      **** 								break;
 2505              		.loc 1 660 0
 2506 0278 2AE1     		b	.L94
 2507              	.L127:
 2508 027a 00BF     		.align	2
ARM GAS  C:\Users\RECEPC~1\AppData\Local\Temp\ccIpe7td.s 			page 57


 2509              	.L126:
 2510 027c 00000000 		.word	PC_rxBuffer
 2511 0280 00000000 		.word	ok_datosRF
 2512 0284 00000000 		.word	rventa1
 2513 0288 00000000 		.word	lado2
 2514 028c 00000000 		.word	rventa2
 2515 0290 00000000 		.word	rf_mod
 2516 0294 00000000 		.word	ppux10
 2517              	.L100:
 661:.\main.c      **** 							}
 662:.\main.c      ****                         }
 663:.\main.c      **** 						preset[1]=PC_rxBuffer[17];				//Preset
 2518              		.loc 1 663 0
 2519 0298 9D4B     		ldr	r3, .L128
 2520 029a 5B7C     		ldrb	r3, [r3, #17]
 2521 029c DBB2     		uxtb	r3, r3
 2522 029e 7B70     		strb	r3, [r7, #1]
 664:.\main.c      **** 						if(PC_rxBuffer[17]!=','){
 2523              		.loc 1 664 0
 2524 02a0 9B4B     		ldr	r3, .L128
 2525 02a2 5B7C     		ldrb	r3, [r3, #17]
 2526 02a4 DBB2     		uxtb	r3, r3
 2527 02a6 2C2B     		cmp	r3, #44
 2528 02a8 06D0     		beq	.L103
 665:.\main.c      **** 							preset[1]=PC_rxBuffer[17] & 0x0F;
 2529              		.loc 1 665 0
 2530 02aa 994B     		ldr	r3, .L128
 2531 02ac 5B7C     		ldrb	r3, [r3, #17]
 2532 02ae DBB2     		uxtb	r3, r3
 2533 02b0 03F00F03 		and	r3, r3, #15
 2534 02b4 DBB2     		uxtb	r3, r3
 2535 02b6 7B70     		strb	r3, [r7, #1]
 2536              	.L103:
 666:.\main.c      **** 						}
 667:.\main.c      **** 						preset[2]=PC_rxBuffer[16];
 2537              		.loc 1 667 0
 2538 02b8 954B     		ldr	r3, .L128
 2539 02ba 1B7C     		ldrb	r3, [r3, #16]
 2540 02bc DBB2     		uxtb	r3, r3
 2541 02be BB70     		strb	r3, [r7, #2]
 668:.\main.c      **** 						if(PC_rxBuffer[16]!=','){
 2542              		.loc 1 668 0
 2543 02c0 934B     		ldr	r3, .L128
 2544 02c2 1B7C     		ldrb	r3, [r3, #16]
 2545 02c4 DBB2     		uxtb	r3, r3
 2546 02c6 2C2B     		cmp	r3, #44
 2547 02c8 06D0     		beq	.L104
 669:.\main.c      **** 							preset[2]=PC_rxBuffer[16] & 0x0F;
 2548              		.loc 1 669 0
 2549 02ca 914B     		ldr	r3, .L128
 2550 02cc 1B7C     		ldrb	r3, [r3, #16]
 2551 02ce DBB2     		uxtb	r3, r3
 2552 02d0 03F00F03 		and	r3, r3, #15
 2553 02d4 DBB2     		uxtb	r3, r3
 2554 02d6 BB70     		strb	r3, [r7, #2]
 2555              	.L104:
 670:.\main.c      **** 						}
ARM GAS  C:\Users\RECEPC~1\AppData\Local\Temp\ccIpe7td.s 			page 58


 671:.\main.c      **** 						preset[3]=PC_rxBuffer[15];
 2556              		.loc 1 671 0
 2557 02d8 8D4B     		ldr	r3, .L128
 2558 02da DB7B     		ldrb	r3, [r3, #15]
 2559 02dc DBB2     		uxtb	r3, r3
 2560 02de FB70     		strb	r3, [r7, #3]
 672:.\main.c      **** 						if(PC_rxBuffer[15]!=','){
 2561              		.loc 1 672 0
 2562 02e0 8B4B     		ldr	r3, .L128
 2563 02e2 DB7B     		ldrb	r3, [r3, #15]
 2564 02e4 DBB2     		uxtb	r3, r3
 2565 02e6 2C2B     		cmp	r3, #44
 2566 02e8 06D0     		beq	.L105
 673:.\main.c      **** 							preset[3]=PC_rxBuffer[15] & 0x0F;
 2567              		.loc 1 673 0
 2568 02ea 894B     		ldr	r3, .L128
 2569 02ec DB7B     		ldrb	r3, [r3, #15]
 2570 02ee DBB2     		uxtb	r3, r3
 2571 02f0 03F00F03 		and	r3, r3, #15
 2572 02f4 DBB2     		uxtb	r3, r3
 2573 02f6 FB70     		strb	r3, [r7, #3]
 2574              	.L105:
 674:.\main.c      **** 						}
 675:.\main.c      **** 						preset[4]=PC_rxBuffer[14];
 2575              		.loc 1 675 0
 2576 02f8 854B     		ldr	r3, .L128
 2577 02fa 9B7B     		ldrb	r3, [r3, #14]
 2578 02fc DBB2     		uxtb	r3, r3
 2579 02fe 3B71     		strb	r3, [r7, #4]
 676:.\main.c      **** 						if(PC_rxBuffer[14]!=','){
 2580              		.loc 1 676 0
 2581 0300 834B     		ldr	r3, .L128
 2582 0302 9B7B     		ldrb	r3, [r3, #14]
 2583 0304 DBB2     		uxtb	r3, r3
 2584 0306 2C2B     		cmp	r3, #44
 2585 0308 06D0     		beq	.L106
 677:.\main.c      **** 							preset[4]=PC_rxBuffer[14] & 0x0F;
 2586              		.loc 1 677 0
 2587 030a 814B     		ldr	r3, .L128
 2588 030c 9B7B     		ldrb	r3, [r3, #14]
 2589 030e DBB2     		uxtb	r3, r3
 2590 0310 03F00F03 		and	r3, r3, #15
 2591 0314 DBB2     		uxtb	r3, r3
 2592 0316 3B71     		strb	r3, [r7, #4]
 2593              	.L106:
 678:.\main.c      **** 						}
 679:.\main.c      **** 						preset[5]=PC_rxBuffer[13];
 2594              		.loc 1 679 0
 2595 0318 7D4B     		ldr	r3, .L128
 2596 031a 5B7B     		ldrb	r3, [r3, #13]
 2597 031c DBB2     		uxtb	r3, r3
 2598 031e 7B71     		strb	r3, [r7, #5]
 680:.\main.c      **** 						if(PC_rxBuffer[13]!=','){
 2599              		.loc 1 680 0
 2600 0320 7B4B     		ldr	r3, .L128
 2601 0322 5B7B     		ldrb	r3, [r3, #13]
 2602 0324 DBB2     		uxtb	r3, r3
ARM GAS  C:\Users\RECEPC~1\AppData\Local\Temp\ccIpe7td.s 			page 59


 2603 0326 2C2B     		cmp	r3, #44
 2604 0328 06D0     		beq	.L107
 681:.\main.c      **** 							preset[5]=PC_rxBuffer[13] & 0x0F;
 2605              		.loc 1 681 0
 2606 032a 794B     		ldr	r3, .L128
 2607 032c 5B7B     		ldrb	r3, [r3, #13]
 2608 032e DBB2     		uxtb	r3, r3
 2609 0330 03F00F03 		and	r3, r3, #15
 2610 0334 DBB2     		uxtb	r3, r3
 2611 0336 7B71     		strb	r3, [r7, #5]
 2612              	.L107:
 682:.\main.c      **** 						}
 683:.\main.c      **** 						preset[6]=PC_rxBuffer[12];
 2613              		.loc 1 683 0
 2614 0338 754B     		ldr	r3, .L128
 2615 033a 1B7B     		ldrb	r3, [r3, #12]
 2616 033c DBB2     		uxtb	r3, r3
 2617 033e BB71     		strb	r3, [r7, #6]
 684:.\main.c      **** 						if(PC_rxBuffer[12]!=','){
 2618              		.loc 1 684 0
 2619 0340 734B     		ldr	r3, .L128
 2620 0342 1B7B     		ldrb	r3, [r3, #12]
 2621 0344 DBB2     		uxtb	r3, r3
 2622 0346 2C2B     		cmp	r3, #44
 2623 0348 06D0     		beq	.L108
 685:.\main.c      **** 							preset[6]=PC_rxBuffer[12] & 0x0F;
 2624              		.loc 1 685 0
 2625 034a 714B     		ldr	r3, .L128
 2626 034c 1B7B     		ldrb	r3, [r3, #12]
 2627 034e DBB2     		uxtb	r3, r3
 2628 0350 03F00F03 		and	r3, r3, #15
 2629 0354 DBB2     		uxtb	r3, r3
 2630 0356 BB71     		strb	r3, [r7, #6]
 2631              	.L108:
 686:.\main.c      **** 						}
 687:.\main.c      **** 						preset[7]=PC_rxBuffer[11];
 2632              		.loc 1 687 0
 2633 0358 6D4B     		ldr	r3, .L128
 2634 035a DB7A     		ldrb	r3, [r3, #11]
 2635 035c DBB2     		uxtb	r3, r3
 2636 035e FB71     		strb	r3, [r7, #7]
 688:.\main.c      **** 						if(PC_rxBuffer[11]!=','){
 2637              		.loc 1 688 0
 2638 0360 6B4B     		ldr	r3, .L128
 2639 0362 DB7A     		ldrb	r3, [r3, #11]
 2640 0364 DBB2     		uxtb	r3, r3
 2641 0366 2C2B     		cmp	r3, #44
 2642 0368 06D0     		beq	.L109
 689:.\main.c      **** 							preset[7]=PC_rxBuffer[11] & 0x0F;
 2643              		.loc 1 689 0
 2644 036a 694B     		ldr	r3, .L128
 2645 036c DB7A     		ldrb	r3, [r3, #11]
 2646 036e DBB2     		uxtb	r3, r3
 2647 0370 03F00F03 		and	r3, r3, #15
 2648 0374 DBB2     		uxtb	r3, r3
 2649 0376 FB71     		strb	r3, [r7, #7]
 2650              	.L109:
ARM GAS  C:\Users\RECEPC~1\AppData\Local\Temp\ccIpe7td.s 			page 60


 690:.\main.c      **** 						}
 691:.\main.c      **** 						t_preset=PC_rxBuffer[18];
 2651              		.loc 1 691 0
 2652 0378 654B     		ldr	r3, .L128
 2653 037a 9B7C     		ldrb	r3, [r3, #18]
 2654 037c DBB2     		uxtb	r3, r3
 2655 037e 7B82     		strh	r3, [r7, #18]	@ movhi
 692:.\main.c      **** 						if(t_preset=='1'){
 2656              		.loc 1 692 0
 2657 0380 7B8A     		ldrh	r3, [r7, #18]
 2658 0382 312B     		cmp	r3, #49
 2659 0384 02D1     		bne	.L110
 693:.\main.c      **** 							t_preset=2;
 2660              		.loc 1 693 0
 2661 0386 0223     		movs	r3, #2
 2662 0388 7B82     		strh	r3, [r7, #18]	@ movhi
 2663 038a 01E0     		b	.L111
 2664              	.L110:
 694:.\main.c      **** 						}
 695:.\main.c      **** 						else{
 696:.\main.c      **** 							t_preset=1;
 2665              		.loc 1 696 0
 2666 038c 0123     		movs	r3, #1
 2667 038e 7B82     		strh	r3, [r7, #18]	@ movhi
 2668              	.L111:
 697:.\main.c      **** 						}
 698:.\main.c      **** 						if(programar((lado2.dir & 0x0F),rventa2.manguera,preset,t_preset)==1){		//Programar
 2669              		.loc 1 698 0
 2670 0390 604B     		ldr	r3, .L128+4
 2671 0392 1B78     		ldrb	r3, [r3]
 2672 0394 DBB2     		uxtb	r3, r3
 2673 0396 03F00F03 		and	r3, r3, #15
 2674 039a D8B2     		uxtb	r0, r3
 2675 039c 5E4B     		ldr	r3, .L128+8
 2676 039e 997E     		ldrb	r1, [r3, #26]	@ zero_extendqisi2
 2677 03a0 7B8A     		ldrh	r3, [r7, #18]	@ movhi
 2678 03a2 DBB2     		uxtb	r3, r3
 2679 03a4 3A46     		mov	r2, r7
 2680 03a6 FFF7FEFF 		bl	programar
 2681 03aa 0346     		mov	r3, r0
 2682 03ac 012B     		cmp	r3, #1
 2683 03ae 1BD1     		bne	.L112
 699:.\main.c      ****                             if(ppuinicial==0){                          
 700:.\main.c      **** //                                for(x=0;x<=4;x++){
 701:.\main.c      **** //                            	    precio[x]=lado1.ppu[0][x];	    
 702:.\main.c      **** //                                }
 703:.\main.c      **** //                                cambiar_precio(lado1.dir,precio,1);    
 704:.\main.c      **** //                                for(x=0;x<=4;x++){
 705:.\main.c      **** //                            	    precio[x]=lado1.ppu[1][x];	    
 706:.\main.c      **** //                                }    
 707:.\main.c      **** //                                cambiar_precio(lado1.dir,precio,2);
 708:.\main.c      **** //                                for(x=0;x<=4;x++){
 709:.\main.c      **** //                            	    precio[x]=lado1.ppu[2][x];	    
 710:.\main.c      **** //                                }
 711:.\main.c      **** //                                cambiar_precio(lado1.dir,precio,3);       
 712:.\main.c      ****                             }
 713:.\main.c      ****                             CyDelay(10);
ARM GAS  C:\Users\RECEPC~1\AppData\Local\Temp\ccIpe7td.s 			page 61


 2684              		.loc 1 713 0
 2685 03b0 0A20     		movs	r0, #10
 2686 03b2 FFF7FEFF 		bl	CyDelay
 714:.\main.c      **** 							Surtidor_PutChar(0x10|(lado2.dir & 0x0F));							
 2687              		.loc 1 714 0
 2688 03b6 574B     		ldr	r3, .L128+4
 2689 03b8 1B78     		ldrb	r3, [r3]
 2690 03ba DBB2     		uxtb	r3, r3
 2691 03bc DBB2     		uxtb	r3, r3
 2692 03be 03F00F03 		and	r3, r3, #15
 2693 03c2 DBB2     		uxtb	r3, r3
 2694 03c4 43F01003 		orr	r3, r3, #16
 2695 03c8 DBB2     		uxtb	r3, r3
 2696 03ca DBB2     		uxtb	r3, r3
 2697 03cc 1846     		mov	r0, r3
 2698 03ce FFF7FEFF 		bl	Surtidor_PutChar
 715:.\main.c      **** 							lado2.estado=tanqueo;
 2699              		.loc 1 715 0
 2700 03d2 504B     		ldr	r3, .L128+4
 2701 03d4 0622     		movs	r2, #6
 2702 03d6 5A70     		strb	r2, [r3, #1]
 716:.\main.c      **** 							flujo_LCD1=8;
 2703              		.loc 1 716 0
 2704 03d8 504B     		ldr	r3, .L128+12
 2705 03da 0822     		movs	r2, #8
 2706 03dc 1A70     		strb	r2, [r3]
 717:.\main.c      **** 							set_imagen(1,8);
 2707              		.loc 1 717 0
 2708 03de 0120     		movs	r0, #1
 2709 03e0 0821     		movs	r1, #8
 2710 03e2 FFF7FEFF 		bl	set_imagen
 718:.\main.c      **** 						}
 719:.\main.c      **** 						else{
 720:.\main.c      **** 							rf_mod[0]='M';
 721:.\main.c      **** 							rf_mod[1]='U';
 722:.\main.c      **** 							rf_mod[2]='X';
 723:.\main.c      **** 							rf_mod[3]=creset;
 724:.\main.c      **** 							rf_mod[4]=cautorizar;
 725:.\main.c      **** 							rf_mod[5]=PC_rxBuffer[4];
 726:.\main.c      **** 							rf_mod[6]='2';
 727:.\main.c      **** 							rf_mod[7]='*';
 728:.\main.c      **** 							size=8;
 729:.\main.c      **** 							ok_datosRF=1;							
 730:.\main.c      **** 						}
 731:.\main.c      **** 					break;
 2711              		.loc 1 731 0
 2712 03e6 73E0     		b	.L94
 2713              	.L112:
 720:.\main.c      **** 							rf_mod[1]='U';
 2714              		.loc 1 720 0
 2715 03e8 4D4B     		ldr	r3, .L128+16
 2716 03ea 4D22     		movs	r2, #77
 2717 03ec 1A70     		strb	r2, [r3]
 721:.\main.c      **** 							rf_mod[2]='X';
 2718              		.loc 1 721 0
 2719 03ee 4C4B     		ldr	r3, .L128+16
 2720 03f0 5522     		movs	r2, #85
ARM GAS  C:\Users\RECEPC~1\AppData\Local\Temp\ccIpe7td.s 			page 62


 2721 03f2 5A70     		strb	r2, [r3, #1]
 722:.\main.c      **** 							rf_mod[3]=creset;
 2722              		.loc 1 722 0
 2723 03f4 4A4B     		ldr	r3, .L128+16
 2724 03f6 5822     		movs	r2, #88
 2725 03f8 9A70     		strb	r2, [r3, #2]
 723:.\main.c      **** 							rf_mod[4]=cautorizar;
 2726              		.loc 1 723 0
 2727 03fa 494B     		ldr	r3, .L128+16
 2728 03fc 4522     		movs	r2, #69
 2729 03fe DA70     		strb	r2, [r3, #3]
 724:.\main.c      **** 							rf_mod[5]=PC_rxBuffer[4];
 2730              		.loc 1 724 0
 2731 0400 474B     		ldr	r3, .L128+16
 2732 0402 3022     		movs	r2, #48
 2733 0404 1A71     		strb	r2, [r3, #4]
 725:.\main.c      **** 							rf_mod[6]='2';
 2734              		.loc 1 725 0
 2735 0406 424B     		ldr	r3, .L128
 2736 0408 1B79     		ldrb	r3, [r3, #4]
 2737 040a DAB2     		uxtb	r2, r3
 2738 040c 444B     		ldr	r3, .L128+16
 2739 040e 5A71     		strb	r2, [r3, #5]
 726:.\main.c      **** 							rf_mod[7]='*';
 2740              		.loc 1 726 0
 2741 0410 434B     		ldr	r3, .L128+16
 2742 0412 3222     		movs	r2, #50
 2743 0414 9A71     		strb	r2, [r3, #6]
 727:.\main.c      **** 							size=8;
 2744              		.loc 1 727 0
 2745 0416 424B     		ldr	r3, .L128+16
 2746 0418 2A22     		movs	r2, #42
 2747 041a DA71     		strb	r2, [r3, #7]
 728:.\main.c      **** 							ok_datosRF=1;							
 2748              		.loc 1 728 0
 2749 041c 0823     		movs	r3, #8
 2750 041e FB82     		strh	r3, [r7, #22]	@ movhi
 729:.\main.c      **** 						}
 2751              		.loc 1 729 0
 2752 0420 404B     		ldr	r3, .L128+20
 2753 0422 0122     		movs	r2, #1
 2754 0424 1A70     		strb	r2, [r3]
 2755              		.loc 1 731 0
 2756 0426 53E0     		b	.L94
 2757              	.L95:
 732:.\main.c      **** 					
 733:.\main.c      **** 					case cimprimir:
 734:.\main.c      **** 						set_imagen(1,55);					
 2758              		.loc 1 734 0
 2759 0428 0120     		movs	r0, #1
 2760 042a 3721     		movs	r1, #55
 2761 042c FFF7FEFF 		bl	set_imagen
 735:.\main.c      **** 						if(lado1.dir==(lado1.dir & 0x0F)){
 2762              		.loc 1 735 0
 2763 0430 3D4B     		ldr	r3, .L128+24
 2764 0432 1B78     		ldrb	r3, [r3]
 2765 0434 DBB2     		uxtb	r3, r3
ARM GAS  C:\Users\RECEPC~1\AppData\Local\Temp\ccIpe7td.s 			page 63


 2766 0436 1A46     		mov	r2, r3
 2767 0438 3B4B     		ldr	r3, .L128+24
 2768 043a 1B78     		ldrb	r3, [r3]
 2769 043c DBB2     		uxtb	r3, r3
 2770 043e 03F00F03 		and	r3, r3, #15
 2771 0442 9A42     		cmp	r2, r3
 2772 0444 06D1     		bne	.L114
 736:.\main.c      **** 							lado1.estado=libre;
 2773              		.loc 1 736 0
 2774 0446 384B     		ldr	r3, .L128+24
 2775 0448 0122     		movs	r2, #1
 2776 044a 5A70     		strb	r2, [r3, #1]
 737:.\main.c      **** 							flujo_LCD1=0;
 2777              		.loc 1 737 0
 2778 044c 334B     		ldr	r3, .L128+12
 2779 044e 0022     		movs	r2, #0
 2780 0450 1A70     		strb	r2, [r3]
 2781 0452 11E0     		b	.L115
 2782              	.L114:
 738:.\main.c      **** 						}
 739:.\main.c      **** 						else if(lado2.dir==(PC_rxBuffer[4] & 0x0F)){
 2783              		.loc 1 739 0
 2784 0454 2F4B     		ldr	r3, .L128+4
 2785 0456 1B78     		ldrb	r3, [r3]
 2786 0458 DBB2     		uxtb	r3, r3
 2787 045a 1A46     		mov	r2, r3
 2788 045c 2C4B     		ldr	r3, .L128
 2789 045e 1B79     		ldrb	r3, [r3, #4]
 2790 0460 DBB2     		uxtb	r3, r3
 2791 0462 03F00F03 		and	r3, r3, #15
 2792 0466 9A42     		cmp	r2, r3
 2793 0468 06D1     		bne	.L115
 740:.\main.c      **** 							lado2.estado=libre;
 2794              		.loc 1 740 0
 2795 046a 2A4B     		ldr	r3, .L128+4
 2796 046c 0122     		movs	r2, #1
 2797 046e 5A70     		strb	r2, [r3, #1]
 741:.\main.c      **** 							flujo_LCD1=0;
 2798              		.loc 1 741 0
 2799 0470 2A4B     		ldr	r3, .L128+12
 2800 0472 0022     		movs	r2, #0
 2801 0474 1A70     		strb	r2, [r3]
 742:.\main.c      **** 						}						
 743:.\main.c      **** 					break;
 2802              		.loc 1 743 0
 2803 0476 2BE0     		b	.L94
 2804              	.L115:
 2805 0478 2AE0     		b	.L94
 2806              	.L96:
 744:.\main.c      **** 					
 745:.\main.c      **** 					case creset:                                   
 746:.\main.c      ****     						switch(PC_rxBuffer[5]){
 2807              		.loc 1 746 0
 2808 047a 254B     		ldr	r3, .L128
 2809 047c 5B79     		ldrb	r3, [r3, #5]
 2810 047e DBB2     		uxtb	r3, r3
 2811 0480 313B     		subs	r3, r3, #49
ARM GAS  C:\Users\RECEPC~1\AppData\Local\Temp\ccIpe7td.s 			page 64


 2812 0482 032B     		cmp	r3, #3
 2813 0484 23D8     		bhi	.L124
 2814 0486 01A2     		adr	r2, .L118
 2815 0488 52F823F0 		ldr	pc, [r2, r3, lsl #2]
 2816              		.p2align 2
 2817              	.L118:
 2818 048c 9D040000 		.word	.L117+1
 2819 0490 AD040000 		.word	.L119+1
 2820 0494 BD040000 		.word	.L120+1
 2821 0498 CD040000 		.word	.L125+1
 2822              		.p2align 1
 2823              	.L117:
 747:.\main.c      ****     							case '1':														
 748:.\main.c      ****     								lado2.estado=libre;
 2824              		.loc 1 748 0
 2825 049c 1D4B     		ldr	r3, .L128+4
 2826 049e 0122     		movs	r2, #1
 2827 04a0 5A70     		strb	r2, [r3, #1]
 749:.\main.c      ****     								error_op(1,28);					 //Error de id					
 2828              		.loc 1 749 0
 2829 04a2 0120     		movs	r0, #1
 2830 04a4 1C21     		movs	r1, #28
 2831 04a6 FFF7FEFF 		bl	error_op
 750:.\main.c      ****     							break;
 2832              		.loc 1 750 0
 2833 04aa 10E0     		b	.L116
 2834              	.L119:
 751:.\main.c      ****     								
 752:.\main.c      ****     							case '2':
 753:.\main.c      ****     								lado2.estado=libre;
 2835              		.loc 1 753 0
 2836 04ac 194B     		ldr	r3, .L128+4
 2837 04ae 0122     		movs	r2, #1
 2838 04b0 5A70     		strb	r2, [r3, #1]
 754:.\main.c      ****     								error_op(1,12);					//Gracias por su compra
 2839              		.loc 1 754 0
 2840 04b2 0120     		movs	r0, #1
 2841 04b4 0C21     		movs	r1, #12
 2842 04b6 FFF7FEFF 		bl	error_op
 755:.\main.c      ****     							break;
 2843              		.loc 1 755 0
 2844 04ba 08E0     		b	.L116
 2845              	.L120:
 756:.\main.c      ****     								
 757:.\main.c      ****     							case '3':
 758:.\main.c      ****     								lado2.estado=libre;
 2846              		.loc 1 758 0
 2847 04bc 154B     		ldr	r3, .L128+4
 2848 04be 0122     		movs	r2, #1
 2849 04c0 5A70     		strb	r2, [r3, #1]
 759:.\main.c      ****     								error_op(1,12);					//Error de Operacion //85
 2850              		.loc 1 759 0
 2851 04c2 0120     		movs	r0, #1
 2852 04c4 0C21     		movs	r1, #12
 2853 04c6 FFF7FEFF 		bl	error_op
 760:.\main.c      ****     							break;
 2854              		.loc 1 760 0
ARM GAS  C:\Users\RECEPC~1\AppData\Local\Temp\ccIpe7td.s 			page 65


 2855 04ca 00E0     		b	.L116
 2856              	.L125:
 761:.\main.c      ****     								
 762:.\main.c      ****     							case '4':
 763:.\main.c      **** //    								lado1.estado=libre;//
 764:.\main.c      **** //    								error_op(1,12);		//			//Fin Corte
 765:.\main.c      ****     							break;								
 2857              		.loc 1 765 0
 2858 04cc 00BF     		nop
 2859              	.L116:
 2860              	.L124:
 766:.\main.c      ****     								
 767:.\main.c      ****     						}                        
 768:.\main.c      **** 					break;
 2861              		.loc 1 768 0
 2862 04ce 00BF     		nop
 2863              	.L94:
 769:.\main.c      **** 				}
 770:.\main.c      **** 				if(ok_datosRF==1){
 2864              		.loc 1 770 0
 2865 04d0 144B     		ldr	r3, .L128+20
 2866 04d2 1B78     		ldrb	r3, [r3]	@ zero_extendqisi2
 2867 04d4 012B     		cmp	r3, #1
 2868 04d6 0FD1     		bne	.L93
 771:.\main.c      **** 				    for(x=0;x<size;x++){
 2869              		.loc 1 771 0
 2870 04d8 0023     		movs	r3, #0
 2871 04da BB82     		strh	r3, [r7, #20]	@ movhi
 2872 04dc 08E0     		b	.L122
 2873              	.L123:
 772:.\main.c      **** 					   PC_PutChar(rf_mod[x]);
 2874              		.loc 1 772 0 discriminator 3
 2875 04de BB8A     		ldrh	r3, [r7, #20]
 2876 04e0 0F4A     		ldr	r2, .L128+16
 2877 04e2 D35C     		ldrb	r3, [r2, r3]	@ zero_extendqisi2
 2878 04e4 1846     		mov	r0, r3
 2879 04e6 FFF7FEFF 		bl	PC_PutChar
 771:.\main.c      **** 				    for(x=0;x<size;x++){
 2880              		.loc 1 771 0 discriminator 3
 2881 04ea BB8A     		ldrh	r3, [r7, #20]
 2882 04ec 0133     		adds	r3, r3, #1
 2883 04ee BB82     		strh	r3, [r7, #20]	@ movhi
 2884              	.L122:
 771:.\main.c      **** 				    for(x=0;x<size;x++){
 2885              		.loc 1 771 0 is_stmt 0 discriminator 1
 2886 04f0 BA8A     		ldrh	r2, [r7, #20]
 2887 04f2 FB8A     		ldrh	r3, [r7, #22]
 2888 04f4 9A42     		cmp	r2, r3
 2889 04f6 F2D3     		bcc	.L123
 2890              	.L93:
 773:.\main.c      **** 				    }	               
 774:.\main.c      **** 				}
 775:.\main.c      **** 			}
 776:.\main.c      **** 			PC_ClearRxBuffer();
 2891              		.loc 1 776 0 is_stmt 1
 2892 04f8 FFF7FEFF 		bl	PC_ClearRxBuffer
 777:.\main.c      ****             Surtidor_ClearRxBuffer();
ARM GAS  C:\Users\RECEPC~1\AppData\Local\Temp\ccIpe7td.s 			page 66


 2893              		.loc 1 777 0
 2894 04fc FFF7FEFF 		bl	Surtidor_ClearRxBuffer
 778:.\main.c      **** 			status1=0;
 2895              		.loc 1 778 0
 2896 0500 0023     		movs	r3, #0
 2897 0502 3B82     		strh	r3, [r7, #16]	@ movhi
 779:.\main.c      **** 			status2=0;			
 2898              		.loc 1 779 0
 2899 0504 0023     		movs	r3, #0
 2900 0506 FB81     		strh	r3, [r7, #14]	@ movhi
 2901              	.L91:
 780:.\main.c      **** 		}		
 781:.\main.c      **** 	}	
 782:.\main.c      **** }
 2902              		.loc 1 782 0
 2903 0508 1837     		adds	r7, r7, #24
 2904              		.cfi_def_cfa_offset 8
 2905 050a BD46     		mov	sp, r7
 2906              		.cfi_def_cfa_register 13
 2907              		@ sp needed
 2908 050c 80BD     		pop	{r7, pc}
 2909              	.L129:
 2910 050e 00BF     		.align	2
 2911              	.L128:
 2912 0510 00000000 		.word	PC_rxBuffer
 2913 0514 00000000 		.word	lado2
 2914 0518 00000000 		.word	rventa2
 2915 051c 00000000 		.word	flujo_LCD1
 2916 0520 00000000 		.word	rf_mod
 2917 0524 00000000 		.word	ok_datosRF
 2918 0528 00000000 		.word	lado1
 2919              		.cfi_endproc
 2920              	.LFE68:
 2921              		.size	polling_rf2, .-polling_rf2
 2922              		.section	.text.polling_surt,"ax",%progbits
 2923              		.align	2
 2924              		.global	polling_surt
 2925              		.thumb
 2926              		.thumb_func
 2927              		.type	polling_surt, %function
 2928              	polling_surt:
 2929              	.LFB69:
 783:.\main.c      **** 
 784:.\main.c      **** 
 785:.\main.c      **** /*
 786:.\main.c      **** ***************************************************************************************************
 787:.\main.c      **** *                                         uint8 polling_surt(void)
 788:.\main.c      **** *
 789:.\main.c      **** * Description : 
 790:.\main.c      **** *               
 791:.\main.c      **** *
 792:.\main.c      **** * Argument(s) : none
 793:.\main.c      **** *
 794:.\main.c      **** * Return(s)   : none
 795:.\main.c      **** *
 796:.\main.c      **** * Caller(s)   : 
 797:.\main.c      **** *
ARM GAS  C:\Users\RECEPC~1\AppData\Local\Temp\ccIpe7td.s 			page 67


 798:.\main.c      **** * Note(s)     : none.
 799:.\main.c      **** ***************************************************************************************************
 800:.\main.c      **** */
 801:.\main.c      **** 
 802:.\main.c      **** void polling_surt(void){
 2930              		.loc 1 802 0
 2931              		.cfi_startproc
 2932              		@ args = 0, pretend = 0, frame = 0
 2933              		@ frame_needed = 1, uses_anonymous_args = 0
 2934              		@ link register save eliminated.
 2935 0000 80B4     		push	{r7}
 2936              		.cfi_def_cfa_offset 4
 2937              		.cfi_offset 7, -4
 2938 0002 00AF     		add	r7, sp, #0
 2939              		.cfi_def_cfa_register 7
 803:.\main.c      **** 	         
 804:.\main.c      ****             
 805:.\main.c      **** }
 2940              		.loc 1 805 0
 2941 0004 BD46     		mov	sp, r7
 2942              		.cfi_def_cfa_register 13
 2943              		@ sp needed
 2944 0006 5DF8047B 		ldr	r7, [sp], #4
 2945              		.cfi_restore 7
 2946              		.cfi_def_cfa_offset 0
 2947 000a 7047     		bx	lr
 2948              		.cfi_endproc
 2949              	.LFE69:
 2950              		.size	polling_surt, .-polling_surt
 2951              		.global	__aeabi_dcmpge
 2952              		.global	__aeabi_dcmple
 2953              		.global	__aeabi_dcmpgt
 2954              		.section	.text.polling_LCD1,"ax",%progbits
 2955              		.align	2
 2956              		.global	polling_LCD1
 2957              		.thumb
 2958              		.thumb_func
 2959              		.type	polling_LCD1, %function
 2960              	polling_LCD1:
 2961              	.LFB70:
 806:.\main.c      **** 
 807:.\main.c      **** 
 808:.\main.c      **** 
 809:.\main.c      **** /*
 810:.\main.c      **** ***************************************************************************************************
 811:.\main.c      **** *                                         void polling_LCD1(void)
 812:.\main.c      **** *
 813:.\main.c      **** * Description : 
 814:.\main.c      **** *               
 815:.\main.c      **** *
 816:.\main.c      **** * Argument(s) : none
 817:.\main.c      **** *
 818:.\main.c      **** * Return(s)   : none
 819:.\main.c      **** *
 820:.\main.c      **** * Caller(s)   : 
 821:.\main.c      **** *
 822:.\main.c      **** * Note(s)     : none.
ARM GAS  C:\Users\RECEPC~1\AppData\Local\Temp\ccIpe7td.s 			page 68


 823:.\main.c      **** ***************************************************************************************************
 824:.\main.c      **** */
 825:.\main.c      **** 
 826:.\main.c      **** void polling_LCD1(void){
 2962              		.loc 1 826 0
 2963              		.cfi_startproc
 2964              		@ args = 0, pretend = 0, frame = 48
 2965              		@ frame_needed = 1, uses_anonymous_args = 0
 2966 0000 B0B5     		push	{r4, r5, r7, lr}
 2967              		.cfi_def_cfa_offset 16
 2968              		.cfi_offset 4, -16
 2969              		.cfi_offset 5, -12
 2970              		.cfi_offset 7, -8
 2971              		.cfi_offset 14, -4
 2972 0002 8EB0     		sub	sp, sp, #56
 2973              		.cfi_def_cfa_offset 72
 2974 0004 02AF     		add	r7, sp, #8
 2975              		.cfi_def_cfa 7, 64
 827:.\main.c      ****     uint8 x,y,aux[10],precio[5],x_1,xaux;
 828:.\main.c      **** 	char numero[8];
 829:.\main.c      **** 	double num_decimal;   
 830:.\main.c      ****     switch(flujo_LCD1){
 2976              		.loc 1 830 0
 2977 0006 CD4B     		ldr	r3, .L693
 2978 0008 1B78     		ldrb	r3, [r3]
 2979 000a DBB2     		uxtb	r3, r3
 2980 000c 662B     		cmp	r3, #102
 2981 000e 04F20787 		bhi	.L131
 2982 0012 01A2     		adr	r2, .L134
 2983 0014 52F823F0 		ldr	pc, [r2, r3, lsl #2]
 2984              		.p2align 2
 2985              	.L134:
 2986 0018 B5010000 		.word	.L133+1
 2987 001c CF010000 		.word	.L135+1
 2988 0020 77020000 		.word	.L136+1
 2989 0024 8D070000 		.word	.L137+1
 2990 0028 3D080000 		.word	.L138+1
 2991 002c 130C0000 		.word	.L139+1
 2992 0030 F90D0000 		.word	.L140+1
 2993 0034 214E0000 		.word	.L131+1
 2994 0038 BD0E0000 		.word	.L141+1
 2995 003c 6F110000 		.word	.L142+1
 2996 0040 214E0000 		.word	.L131+1
 2997 0044 7B1A0000 		.word	.L143+1
 2998 0048 531D0000 		.word	.L144+1
 2999 004c ED320000 		.word	.L145+1
 3000 0050 513E0000 		.word	.L146+1
 3001 0054 77400000 		.word	.L147+1
 3002 0058 B7410000 		.word	.L148+1
 3003 005c A5420000 		.word	.L149+1
 3004 0060 4B430000 		.word	.L150+1
 3005 0064 0B4C0000 		.word	.L151+1
 3006 0068 01020000 		.word	.L152+1
 3007 006c 214E0000 		.word	.L131+1
 3008 0070 214E0000 		.word	.L131+1
 3009 0074 214E0000 		.word	.L131+1
 3010 0078 214E0000 		.word	.L131+1
ARM GAS  C:\Users\RECEPC~1\AppData\Local\Temp\ccIpe7td.s 			page 69


 3011 007c 214E0000 		.word	.L131+1
 3012 0080 214E0000 		.word	.L131+1
 3013 0084 214E0000 		.word	.L131+1
 3014 0088 214E0000 		.word	.L131+1
 3015 008c 214E0000 		.word	.L131+1
 3016 0090 214E0000 		.word	.L131+1
 3017 0094 214E0000 		.word	.L131+1
 3018 0098 214E0000 		.word	.L131+1
 3019 009c 214E0000 		.word	.L131+1
 3020 00a0 214E0000 		.word	.L131+1
 3021 00a4 214E0000 		.word	.L131+1
 3022 00a8 214E0000 		.word	.L131+1
 3023 00ac 214E0000 		.word	.L131+1
 3024 00b0 214E0000 		.word	.L131+1
 3025 00b4 214E0000 		.word	.L131+1
 3026 00b8 214E0000 		.word	.L131+1
 3027 00bc 214E0000 		.word	.L131+1
 3028 00c0 214E0000 		.word	.L131+1
 3029 00c4 214E0000 		.word	.L131+1
 3030 00c8 214E0000 		.word	.L131+1
 3031 00cc 214E0000 		.word	.L131+1
 3032 00d0 214E0000 		.word	.L131+1
 3033 00d4 214E0000 		.word	.L131+1
 3034 00d8 214E0000 		.word	.L131+1
 3035 00dc 214E0000 		.word	.L131+1
 3036 00e0 214E0000 		.word	.L131+1
 3037 00e4 214E0000 		.word	.L131+1
 3038 00e8 214E0000 		.word	.L131+1
 3039 00ec 214E0000 		.word	.L131+1
 3040 00f0 214E0000 		.word	.L131+1
 3041 00f4 214E0000 		.word	.L131+1
 3042 00f8 214E0000 		.word	.L131+1
 3043 00fc 214E0000 		.word	.L131+1
 3044 0100 214E0000 		.word	.L131+1
 3045 0104 214E0000 		.word	.L131+1
 3046 0108 214E0000 		.word	.L131+1
 3047 010c 214E0000 		.word	.L131+1
 3048 0110 214E0000 		.word	.L131+1
 3049 0114 214E0000 		.word	.L131+1
 3050 0118 214E0000 		.word	.L131+1
 3051 011c 214E0000 		.word	.L131+1
 3052 0120 214E0000 		.word	.L131+1
 3053 0124 214E0000 		.word	.L131+1
 3054 0128 214E0000 		.word	.L131+1
 3055 012c 214E0000 		.word	.L131+1
 3056 0130 214E0000 		.word	.L131+1
 3057 0134 214E0000 		.word	.L131+1
 3058 0138 214E0000 		.word	.L131+1
 3059 013c 214E0000 		.word	.L131+1
 3060 0140 214E0000 		.word	.L131+1
 3061 0144 214E0000 		.word	.L131+1
 3062 0148 214E0000 		.word	.L131+1
 3063 014c 214E0000 		.word	.L131+1
 3064 0150 214E0000 		.word	.L131+1
 3065 0154 214E0000 		.word	.L131+1
 3066 0158 214E0000 		.word	.L131+1
 3067 015c 214E0000 		.word	.L131+1
ARM GAS  C:\Users\RECEPC~1\AppData\Local\Temp\ccIpe7td.s 			page 70


 3068 0160 214E0000 		.word	.L131+1
 3069 0164 214E0000 		.word	.L131+1
 3070 0168 214E0000 		.word	.L131+1
 3071 016c 214E0000 		.word	.L131+1
 3072 0170 214E0000 		.word	.L131+1
 3073 0174 214E0000 		.word	.L131+1
 3074 0178 214E0000 		.word	.L131+1
 3075 017c 214E0000 		.word	.L131+1
 3076 0180 214E0000 		.word	.L131+1
 3077 0184 214E0000 		.word	.L131+1
 3078 0188 214E0000 		.word	.L131+1
 3079 018c 214E0000 		.word	.L131+1
 3080 0190 214E0000 		.word	.L131+1
 3081 0194 214E0000 		.word	.L131+1
 3082 0198 214E0000 		.word	.L131+1
 3083 019c 214E0000 		.word	.L131+1
 3084 01a0 214E0000 		.word	.L131+1
 3085 01a4 214E0000 		.word	.L131+1
 3086 01a8 014E0000 		.word	.L153+1
 3087 01ac 214E0000 		.word	.L131+1
 3088 01b0 214E0000 		.word	.L131+1
 3089              		.p2align 1
 3090              	.L133:
 831:.\main.c      ****         case 0:
 832:.\main.c      ****          isr_3_StartEx(animacion); 
 3091              		.loc 1 832 0
 3092 01b4 6248     		ldr	r0, .L693+4
 3093 01b6 FFF7FEFF 		bl	isr_3_StartEx
 833:.\main.c      ****          Timer_Animacion_Start();
 3094              		.loc 1 833 0
 3095 01ba FFF7FEFF 		bl	Timer_Animacion_Start
 834:.\main.c      ****          count_protector=0;
 3096              		.loc 1 834 0
 3097 01be 614B     		ldr	r3, .L693+8
 3098 01c0 0022     		movs	r2, #0
 3099 01c2 1A70     		strb	r2, [r3]
 835:.\main.c      ****          flujo_LCD1=1;	       
 3100              		.loc 1 835 0
 3101 01c4 5D4B     		ldr	r3, .L693
 3102 01c6 0122     		movs	r2, #1
 3103 01c8 1A70     		strb	r2, [r3]
 836:.\main.c      ****         break;
 3104              		.loc 1 836 0
 3105 01ca 04F029BE 		b	.L131
 3106              	.L135:
 837:.\main.c      ****         
 838:.\main.c      ****         case 1:
 839:.\main.c      ****          if(LCD_1_GetRxBufferSize()==8){ 
 3107              		.loc 1 839 0
 3108 01ce FFF7FEFF 		bl	LCD_1_GetRxBufferSize
 3109 01d2 0346     		mov	r3, r0
 3110 01d4 082B     		cmp	r3, #8
 3111 01d6 11D1     		bne	.L155
 840:.\main.c      ****              isr_3_Stop(); 
 3112              		.loc 1 840 0
 3113 01d8 FFF7FEFF 		bl	isr_3_Stop
 841:.\main.c      ****              Timer_Animacion_Stop();
ARM GAS  C:\Users\RECEPC~1\AppData\Local\Temp\ccIpe7td.s 			page 71


 3114              		.loc 1 841 0
 3115 01dc FFF7FEFF 		bl	Timer_Animacion_Stop
 842:.\main.c      ****              set_imagen(1,46);				//Muestra imagen de inicio GRP700
 3116              		.loc 1 842 0
 3117 01e0 0120     		movs	r0, #1
 3118 01e2 2E21     		movs	r1, #46
 3119 01e4 FFF7FEFF 		bl	set_imagen
 843:.\main.c      **** 	         flujo_LCD1 = 20;	         
 3120              		.loc 1 843 0
 3121 01e8 544B     		ldr	r3, .L693
 3122 01ea 1422     		movs	r2, #20
 3123 01ec 1A70     		strb	r2, [r3]
 844:.\main.c      ****              LCD_1_ClearRxBuffer();	
 3124              		.loc 1 844 0
 3125 01ee FFF7FEFF 		bl	LCD_1_ClearRxBuffer
 845:.\main.c      ****              seleccion_pos = 0;
 3126              		.loc 1 845 0
 3127 01f2 554B     		ldr	r3, .L693+12
 3128 01f4 0022     		movs	r2, #0
 3129 01f6 1A70     		strb	r2, [r3]
 846:.\main.c      ****          }
 847:.\main.c      ****         break;
 3130              		.loc 1 847 0
 3131 01f8 04F012BE 		b	.L131
 3132              	.L155:
 3133 01fc 04F010BE 		b	.L131
 3134              	.L152:
 848:.\main.c      ****         
 849:.\main.c      ****         case 20:        
 850:.\main.c      **** 	    if(LCD_1_GetRxBufferSize()==8){
 3135              		.loc 1 850 0
 3136 0200 FFF7FEFF 		bl	LCD_1_GetRxBufferSize
 3137 0204 0346     		mov	r3, r0
 3138 0206 082B     		cmp	r3, #8
 3139 0208 33D1     		bne	.L156
 851:.\main.c      ****             if((LCD_1_rxBuffer[0]==0xAA) && (LCD_1_rxBuffer[6]==0xC3) && (LCD_1_rxBuffer[7]==0x3C))
 3140              		.loc 1 851 0
 3141 020a 504B     		ldr	r3, .L693+16
 3142 020c 1B78     		ldrb	r3, [r3]
 3143 020e DBB2     		uxtb	r3, r3
 3144 0210 AA2B     		cmp	r3, #170
 3145 0212 27D1     		bne	.L157
 3146              		.loc 1 851 0 is_stmt 0 discriminator 1
 3147 0214 4D4B     		ldr	r3, .L693+16
 3148 0216 9B79     		ldrb	r3, [r3, #6]
 3149 0218 DBB2     		uxtb	r3, r3
 3150 021a C32B     		cmp	r3, #195
 3151 021c 22D1     		bne	.L157
 3152              		.loc 1 851 0 discriminator 2
 3153 021e 4B4B     		ldr	r3, .L693+16
 3154 0220 DB79     		ldrb	r3, [r3, #7]
 3155 0222 DBB2     		uxtb	r3, r3
 3156 0224 3C2B     		cmp	r3, #60
 3157 0226 1DD1     		bne	.L157
 852:.\main.c      ****                 switch(LCD_1_rxBuffer[3]){
 3158              		.loc 1 852 0 is_stmt 1
 3159 0228 484B     		ldr	r3, .L693+16
ARM GAS  C:\Users\RECEPC~1\AppData\Local\Temp\ccIpe7td.s 			page 72


 3160 022a DB78     		ldrb	r3, [r3, #3]
 3161 022c DBB2     		uxtb	r3, r3
 3162 022e 562B     		cmp	r3, #86
 3163 0230 02D0     		beq	.L158
 3164 0232 572B     		cmp	r3, #87
 3165 0234 0BD0     		beq	.L159
 3166 0236 15E0     		b	.L157
 3167              	.L158:
 853:.\main.c      **** 			        case 0x56:						        //POS A                                                         
 854:.\main.c      ****                         set_imagen(1,99);           //Inicio opciones GRP 700 POS A
 3168              		.loc 1 854 0
 3169 0238 0120     		movs	r0, #1
 3170 023a 6321     		movs	r1, #99
 3171 023c FFF7FEFF 		bl	set_imagen
 855:.\main.c      ****                         seleccion_pos = 1;
 3172              		.loc 1 855 0
 3173 0240 414B     		ldr	r3, .L693+12
 3174 0242 0122     		movs	r2, #1
 3175 0244 1A70     		strb	r2, [r3]
 856:.\main.c      ****                         flujo_LCD1  = 2;                                                
 3176              		.loc 1 856 0
 3177 0246 3D4B     		ldr	r3, .L693
 3178 0248 0222     		movs	r2, #2
 3179 024a 1A70     		strb	r2, [r3]
 857:.\main.c      **** 				    break;
 3180              		.loc 1 857 0
 3181 024c 0AE0     		b	.L157
 3182              	.L159:
 858:.\main.c      ****                         		       
 859:.\main.c      **** 				    case 0x57:  				            //POS B                                                        
 860:.\main.c      ****                         set_imagen(1,99);           //Inicio opciones GRP 700
 3183              		.loc 1 860 0
 3184 024e 0120     		movs	r0, #1
 3185 0250 6321     		movs	r1, #99
 3186 0252 FFF7FEFF 		bl	set_imagen
 861:.\main.c      **** 				        seleccion_pos = 2;
 3187              		.loc 1 861 0
 3188 0256 3C4B     		ldr	r3, .L693+12
 3189 0258 0222     		movs	r2, #2
 3190 025a 1A70     		strb	r2, [r3]
 862:.\main.c      ****                         flujo_LCD1 = 2;                                                            
 3191              		.loc 1 862 0
 3192 025c 374B     		ldr	r3, .L693
 3193 025e 0222     		movs	r2, #2
 3194 0260 1A70     		strb	r2, [r3]
 863:.\main.c      **** 				    break;
 3195              		.loc 1 863 0
 3196 0262 00BF     		nop
 3197              	.L157:
 864:.\main.c      ****                                                
 865:.\main.c      **** 			    }                                                            
 866:.\main.c      **** 		    }
 867:.\main.c      ****             CyDelay(100);
 3198              		.loc 1 867 0
 3199 0264 6420     		movs	r0, #100
 3200 0266 FFF7FEFF 		bl	CyDelay
 868:.\main.c      **** 		    LCD_1_ClearRxBuffer();
ARM GAS  C:\Users\RECEPC~1\AppData\Local\Temp\ccIpe7td.s 			page 73


 3201              		.loc 1 868 0
 3202 026a FFF7FEFF 		bl	LCD_1_ClearRxBuffer
 869:.\main.c      **** 	    }                                        
 870:.\main.c      ****         break;
 3203              		.loc 1 870 0
 3204 026e 04F0D7BD 		b	.L131
 3205              	.L156:
 3206              		.loc 1 870 0 is_stmt 0 discriminator 2
 3207 0272 04F0D5BD 		b	.L131
 3208              	.L136:
 871:.\main.c      ****         
 872:.\main.c      ****         case 2:
 873:.\main.c      **** 	        if(LCD_1_GetRxBufferSize()==8){
 3209              		.loc 1 873 0 is_stmt 1
 3210 0276 FFF7FEFF 		bl	LCD_1_GetRxBufferSize
 3211 027a 0346     		mov	r3, r0
 3212 027c 082B     		cmp	r3, #8
 3213 027e 40F08382 		bne	.L160
 874:.\main.c      **** 	            if((LCD_1_rxBuffer[0]==0xAA) && (LCD_1_rxBuffer[6]==0xC3) && (LCD_1_rxBuffer[7]==0x3C)
 3214              		.loc 1 874 0
 3215 0282 324B     		ldr	r3, .L693+16
 3216 0284 1B78     		ldrb	r3, [r3]
 3217 0286 DBB2     		uxtb	r3, r3
 3218 0288 AA2B     		cmp	r3, #170
 3219 028a 40F07682 		bne	.L161
 3220              		.loc 1 874 0 is_stmt 0 discriminator 1
 3221 028e 2F4B     		ldr	r3, .L693+16
 3222 0290 9B79     		ldrb	r3, [r3, #6]
 3223 0292 DBB2     		uxtb	r3, r3
 3224 0294 C32B     		cmp	r3, #195
 3225 0296 40F07082 		bne	.L161
 3226              		.loc 1 874 0 discriminator 2
 3227 029a 2C4B     		ldr	r3, .L693+16
 3228 029c DB79     		ldrb	r3, [r3, #7]
 3229 029e DBB2     		uxtb	r3, r3
 3230 02a0 3C2B     		cmp	r3, #60
 3231 02a2 40F06A82 		bne	.L161
 875:.\main.c      ****                     switch(LCD_1_rxBuffer[3]){
 3232              		.loc 1 875 0 is_stmt 1
 3233 02a6 294B     		ldr	r3, .L693+16
 3234 02a8 DB78     		ldrb	r3, [r3, #3]
 3235 02aa DBB2     		uxtb	r3, r3
 3236 02ac 592B     		cmp	r3, #89
 3237 02ae 1AD0     		beq	.L162
 3238 02b0 592B     		cmp	r3, #89
 3239 02b2 02DC     		bgt	.L163
 3240 02b4 452B     		cmp	r3, #69
 3241 02b6 0ED0     		beq	.L164
 3242 02b8 5FE2     		b	.L161
 3243              	.L163:
 3244 02ba 5C2B     		cmp	r3, #92
 3245 02bc 03D0     		beq	.L165
 3246 02be 7E2B     		cmp	r3, #126
 3247 02c0 00F05382 		beq	.L166
 3248 02c4 59E2     		b	.L161
 3249              	.L165:
 876:.\main.c      **** 	                    case 0x5C:                                  //Venta							
ARM GAS  C:\Users\RECEPC~1\AppData\Local\Temp\ccIpe7td.s 			page 74


 877:.\main.c      **** 							set_imagen(1,73);
 3250              		.loc 1 877 0
 3251 02c6 0120     		movs	r0, #1
 3252 02c8 4921     		movs	r1, #73
 3253 02ca FFF7FEFF 		bl	set_imagen
 878:.\main.c      ****                             flujo_LCD1 = 3;
 3254              		.loc 1 878 0
 3255 02ce 1B4B     		ldr	r3, .L693
 3256 02d0 0322     		movs	r2, #3
 3257 02d2 1A70     		strb	r2, [r3]
 879:.\main.c      **** 	                    break;                
 3258              		.loc 1 879 0
 3259 02d4 51E2     		b	.L161
 3260              	.L164:
 880:.\main.c      **** 	                    
 881:.\main.c      **** 	                    case 0x45:								    //Otras opciones
 882:.\main.c      ****                             set_imagen(1,114);
 3261              		.loc 1 882 0
 3262 02d6 0120     		movs	r0, #1
 3263 02d8 7221     		movs	r1, #114
 3264 02da FFF7FEFF 		bl	set_imagen
 883:.\main.c      ****                             flujo_LCD1 = 15;
 3265              		.loc 1 883 0
 3266 02de 174B     		ldr	r3, .L693
 3267 02e0 0F22     		movs	r2, #15
 3268 02e2 1A70     		strb	r2, [r3]
 884:.\main.c      **** 	                    break; 
 3269              		.loc 1 884 0
 3270 02e4 49E2     		b	.L161
 3271              	.L162:
 885:.\main.c      **** 
 886:.\main.c      **** 	                    case 0x59:									//Corte
 887:.\main.c      **** 							set_imagen(1,57);
 3272              		.loc 1 887 0
 3273 02e6 0120     		movs	r0, #1
 3274 02e8 3921     		movs	r1, #57
 3275 02ea FFF7FEFF 		bl	set_imagen
 888:.\main.c      **** 							rf_mod[0]='M';
 3276              		.loc 1 888 0
 3277 02ee 184B     		ldr	r3, .L693+20
 3278 02f0 4D22     		movs	r2, #77
 3279 02f2 1A70     		strb	r2, [r3]
 889:.\main.c      **** 							rf_mod[1]='U';
 3280              		.loc 1 889 0
 3281 02f4 164B     		ldr	r3, .L693+20
 3282 02f6 5522     		movs	r2, #85
 3283 02f8 5A70     		strb	r2, [r3, #1]
 890:.\main.c      **** 							rf_mod[2]='X';
 3284              		.loc 1 890 0
 3285 02fa 154B     		ldr	r3, .L693+20
 3286 02fc 5822     		movs	r2, #88
 3287 02fe 9A70     		strb	r2, [r3, #2]
 891:.\main.c      **** 							rf_mod[3]='2';
 3288              		.loc 1 891 0
 3289 0300 134B     		ldr	r3, .L693+20
 3290 0302 3222     		movs	r2, #50
 3291 0304 DA70     		strb	r2, [r3, #3]
ARM GAS  C:\Users\RECEPC~1\AppData\Local\Temp\ccIpe7td.s 			page 75


 892:.\main.c      ****                             if(seleccion_pos == 1){
 3292              		.loc 1 892 0
 3293 0306 104B     		ldr	r3, .L693+12
 3294 0308 1B78     		ldrb	r3, [r3]
 3295 030a DBB2     		uxtb	r3, r3
 3296 030c 012B     		cmp	r3, #1
 3297 030e 40F01381 		bne	.L167
 893:.\main.c      ****                                 totales(lado1.dir, lado1.mangueras);
 3298              		.loc 1 893 0
 3299 0312 104B     		ldr	r3, .L693+24
 3300 0314 1B78     		ldrb	r3, [r3]
 3301 0316 DAB2     		uxtb	r2, r3
 3302 0318 0E4B     		ldr	r3, .L693+24
 3303 031a 93F85C30 		ldrb	r3, [r3, #92]
 3304 031e DBB2     		uxtb	r3, r3
 3305 0320 1046     		mov	r0, r2
 3306 0322 1946     		mov	r1, r3
 3307 0324 FFF7FEFF 		bl	totales
 894:.\main.c      ****                                 CyDelay(50);  
 3308              		.loc 1 894 0
 3309 0328 3220     		movs	r0, #50
 3310 032a FFF7FEFF 		bl	CyDelay
 895:.\main.c      ****                                 x_1=4;
 3311              		.loc 1 895 0
 3312 032e 0423     		movs	r3, #4
 3313 0330 87F82D30 		strb	r3, [r7, #45]
 896:.\main.c      ****                                 for(x=0;x<=11;x++){     //volumen_pro1 
 3314              		.loc 1 896 0
 3315 0334 0023     		movs	r3, #0
 3316 0336 87F82F30 		strb	r3, [r7, #47]
 3317 033a 26E0     		b	.L168
 3318              	.L694:
 3319              		.align	2
 3320              	.L693:
 3321 033c 00000000 		.word	flujo_LCD1
 3322 0340 00000000 		.word	animacion
 3323 0344 00000000 		.word	count_protector
 3324 0348 00000000 		.word	seleccion_pos
 3325 034c 00000000 		.word	LCD_1_rxBuffer
 3326 0350 00000000 		.word	rf_mod
 3327 0354 00000000 		.word	lado1
 3328              	.L169:
 897:.\main.c      ****                                     rf_mod[x_1]=(lado1.totales[0][x]&0X0F)+48;
 3329              		.loc 1 897 0 discriminator 3
 3330 0358 97F82D30 		ldrb	r3, [r7, #45]	@ zero_extendqisi2
 3331 035c 97F82F20 		ldrb	r2, [r7, #47]	@ zero_extendqisi2
 3332 0360 C549     		ldr	r1, .L695
 3333 0362 0A44     		add	r2, r2, r1
 3334 0364 9278     		ldrb	r2, [r2, #2]
 3335 0366 D2B2     		uxtb	r2, r2
 3336 0368 02F00F02 		and	r2, r2, #15
 3337 036c D2B2     		uxtb	r2, r2
 3338 036e 3032     		adds	r2, r2, #48
 3339 0370 D1B2     		uxtb	r1, r2
 3340 0372 C24A     		ldr	r2, .L695+4
 3341 0374 D154     		strb	r1, [r2, r3]
 898:.\main.c      ****                                     x_1++;
ARM GAS  C:\Users\RECEPC~1\AppData\Local\Temp\ccIpe7td.s 			page 76


 3342              		.loc 1 898 0 discriminator 3
 3343 0376 97F82D30 		ldrb	r3, [r7, #45]	@ zero_extendqisi2
 3344 037a 0133     		adds	r3, r3, #1
 3345 037c 87F82D30 		strb	r3, [r7, #45]
 896:.\main.c      ****                                 for(x=0;x<=11;x++){     //volumen_pro1 
 3346              		.loc 1 896 0 discriminator 3
 3347 0380 97F82F30 		ldrb	r3, [r7, #47]	@ zero_extendqisi2
 3348 0384 0133     		adds	r3, r3, #1
 3349 0386 87F82F30 		strb	r3, [r7, #47]
 3350              	.L168:
 896:.\main.c      ****                                 for(x=0;x<=11;x++){     //volumen_pro1 
 3351              		.loc 1 896 0 is_stmt 0 discriminator 1
 3352 038a 97F82F30 		ldrb	r3, [r7, #47]	@ zero_extendqisi2
 3353 038e 0B2B     		cmp	r3, #11
 3354 0390 E2D9     		bls	.L169
 899:.\main.c      ****                                 }
 900:.\main.c      ****                                 for(x=12;x<=23;x++){    //dinero_pro1
 3355              		.loc 1 900 0 is_stmt 1
 3356 0392 0C23     		movs	r3, #12
 3357 0394 87F82F30 		strb	r3, [r7, #47]
 3358 0398 18E0     		b	.L170
 3359              	.L171:
 901:.\main.c      ****                                     rf_mod[x_1]=(lado1.totales[0][x]&0X0F)+48;
 3360              		.loc 1 901 0 discriminator 3
 3361 039a 97F82D30 		ldrb	r3, [r7, #45]	@ zero_extendqisi2
 3362 039e 97F82F20 		ldrb	r2, [r7, #47]	@ zero_extendqisi2
 3363 03a2 B549     		ldr	r1, .L695
 3364 03a4 0A44     		add	r2, r2, r1
 3365 03a6 9278     		ldrb	r2, [r2, #2]
 3366 03a8 D2B2     		uxtb	r2, r2
 3367 03aa 02F00F02 		and	r2, r2, #15
 3368 03ae D2B2     		uxtb	r2, r2
 3369 03b0 3032     		adds	r2, r2, #48
 3370 03b2 D1B2     		uxtb	r1, r2
 3371 03b4 B14A     		ldr	r2, .L695+4
 3372 03b6 D154     		strb	r1, [r2, r3]
 902:.\main.c      ****                                     x_1++;
 3373              		.loc 1 902 0 discriminator 3
 3374 03b8 97F82D30 		ldrb	r3, [r7, #45]	@ zero_extendqisi2
 3375 03bc 0133     		adds	r3, r3, #1
 3376 03be 87F82D30 		strb	r3, [r7, #45]
 900:.\main.c      ****                                     rf_mod[x_1]=(lado1.totales[0][x]&0X0F)+48;
 3377              		.loc 1 900 0 discriminator 3
 3378 03c2 97F82F30 		ldrb	r3, [r7, #47]	@ zero_extendqisi2
 3379 03c6 0133     		adds	r3, r3, #1
 3380 03c8 87F82F30 		strb	r3, [r7, #47]
 3381              	.L170:
 900:.\main.c      ****                                     rf_mod[x_1]=(lado1.totales[0][x]&0X0F)+48;
 3382              		.loc 1 900 0 is_stmt 0 discriminator 1
 3383 03cc 97F82F30 		ldrb	r3, [r7, #47]	@ zero_extendqisi2
 3384 03d0 172B     		cmp	r3, #23
 3385 03d2 E2D9     		bls	.L171
 903:.\main.c      ****                                 }           
 904:.\main.c      ****                                 for(x=0;x<=11;x++){     //volumen_pro2     
 3386              		.loc 1 904 0 is_stmt 1
 3387 03d4 0023     		movs	r3, #0
 3388 03d6 87F82F30 		strb	r3, [r7, #47]
ARM GAS  C:\Users\RECEPC~1\AppData\Local\Temp\ccIpe7td.s 			page 77


 3389 03da 18E0     		b	.L172
 3390              	.L173:
 905:.\main.c      ****                                     rf_mod[x_1]=(lado1.totales[1][x]&0X0F)+48;
 3391              		.loc 1 905 0 discriminator 3
 3392 03dc 97F82D30 		ldrb	r3, [r7, #45]	@ zero_extendqisi2
 3393 03e0 97F82F20 		ldrb	r2, [r7, #47]	@ zero_extendqisi2
 3394 03e4 A449     		ldr	r1, .L695
 3395 03e6 0A44     		add	r2, r2, r1
 3396 03e8 927E     		ldrb	r2, [r2, #26]
 3397 03ea D2B2     		uxtb	r2, r2
 3398 03ec 02F00F02 		and	r2, r2, #15
 3399 03f0 D2B2     		uxtb	r2, r2
 3400 03f2 3032     		adds	r2, r2, #48
 3401 03f4 D1B2     		uxtb	r1, r2
 3402 03f6 A14A     		ldr	r2, .L695+4
 3403 03f8 D154     		strb	r1, [r2, r3]
 906:.\main.c      ****                                     x_1++;
 3404              		.loc 1 906 0 discriminator 3
 3405 03fa 97F82D30 		ldrb	r3, [r7, #45]	@ zero_extendqisi2
 3406 03fe 0133     		adds	r3, r3, #1
 3407 0400 87F82D30 		strb	r3, [r7, #45]
 904:.\main.c      ****                                     rf_mod[x_1]=(lado1.totales[1][x]&0X0F)+48;
 3408              		.loc 1 904 0 discriminator 3
 3409 0404 97F82F30 		ldrb	r3, [r7, #47]	@ zero_extendqisi2
 3410 0408 0133     		adds	r3, r3, #1
 3411 040a 87F82F30 		strb	r3, [r7, #47]
 3412              	.L172:
 904:.\main.c      ****                                     rf_mod[x_1]=(lado1.totales[1][x]&0X0F)+48;
 3413              		.loc 1 904 0 is_stmt 0 discriminator 1
 3414 040e 97F82F30 		ldrb	r3, [r7, #47]	@ zero_extendqisi2
 3415 0412 0B2B     		cmp	r3, #11
 3416 0414 E2D9     		bls	.L173
 907:.\main.c      ****                                 }
 908:.\main.c      ****                                 for(x=12;x<=23;x++){    //dinero_pro2    
 3417              		.loc 1 908 0 is_stmt 1
 3418 0416 0C23     		movs	r3, #12
 3419 0418 87F82F30 		strb	r3, [r7, #47]
 3420 041c 18E0     		b	.L174
 3421              	.L175:
 909:.\main.c      ****                                     rf_mod[x_1]=(lado1.totales[1][x]&0X0F)+48;
 3422              		.loc 1 909 0 discriminator 3
 3423 041e 97F82D30 		ldrb	r3, [r7, #45]	@ zero_extendqisi2
 3424 0422 97F82F20 		ldrb	r2, [r7, #47]	@ zero_extendqisi2
 3425 0426 9449     		ldr	r1, .L695
 3426 0428 0A44     		add	r2, r2, r1
 3427 042a 927E     		ldrb	r2, [r2, #26]
 3428 042c D2B2     		uxtb	r2, r2
 3429 042e 02F00F02 		and	r2, r2, #15
 3430 0432 D2B2     		uxtb	r2, r2
 3431 0434 3032     		adds	r2, r2, #48
 3432 0436 D1B2     		uxtb	r1, r2
 3433 0438 904A     		ldr	r2, .L695+4
 3434 043a D154     		strb	r1, [r2, r3]
 910:.\main.c      ****                                     x_1++;
 3435              		.loc 1 910 0 discriminator 3
 3436 043c 97F82D30 		ldrb	r3, [r7, #45]	@ zero_extendqisi2
 3437 0440 0133     		adds	r3, r3, #1
ARM GAS  C:\Users\RECEPC~1\AppData\Local\Temp\ccIpe7td.s 			page 78


 3438 0442 87F82D30 		strb	r3, [r7, #45]
 908:.\main.c      ****                                     rf_mod[x_1]=(lado1.totales[1][x]&0X0F)+48;
 3439              		.loc 1 908 0 discriminator 3
 3440 0446 97F82F30 		ldrb	r3, [r7, #47]	@ zero_extendqisi2
 3441 044a 0133     		adds	r3, r3, #1
 3442 044c 87F82F30 		strb	r3, [r7, #47]
 3443              	.L174:
 908:.\main.c      ****                                     rf_mod[x_1]=(lado1.totales[1][x]&0X0F)+48;
 3444              		.loc 1 908 0 is_stmt 0 discriminator 1
 3445 0450 97F82F30 		ldrb	r3, [r7, #47]	@ zero_extendqisi2
 3446 0454 172B     		cmp	r3, #23
 3447 0456 E2D9     		bls	.L175
 911:.\main.c      ****                                 }           
 912:.\main.c      ****                                 for(x=0;x<=11;x++){     //volumen_pro3   
 3448              		.loc 1 912 0 is_stmt 1
 3449 0458 0023     		movs	r3, #0
 3450 045a 87F82F30 		strb	r3, [r7, #47]
 3451 045e 19E0     		b	.L176
 3452              	.L177:
 913:.\main.c      ****                                     rf_mod[x_1]=(lado1.totales[2][x]&0X0F)+48;
 3453              		.loc 1 913 0 discriminator 3
 3454 0460 97F82D30 		ldrb	r3, [r7, #45]	@ zero_extendqisi2
 3455 0464 97F82F20 		ldrb	r2, [r7, #47]	@ zero_extendqisi2
 3456 0468 8349     		ldr	r1, .L695
 3457 046a 0A44     		add	r2, r2, r1
 3458 046c 92F83220 		ldrb	r2, [r2, #50]
 3459 0470 D2B2     		uxtb	r2, r2
 3460 0472 02F00F02 		and	r2, r2, #15
 3461 0476 D2B2     		uxtb	r2, r2
 3462 0478 3032     		adds	r2, r2, #48
 3463 047a D1B2     		uxtb	r1, r2
 3464 047c 7F4A     		ldr	r2, .L695+4
 3465 047e D154     		strb	r1, [r2, r3]
 914:.\main.c      ****                                     x_1++;
 3466              		.loc 1 914 0 discriminator 3
 3467 0480 97F82D30 		ldrb	r3, [r7, #45]	@ zero_extendqisi2
 3468 0484 0133     		adds	r3, r3, #1
 3469 0486 87F82D30 		strb	r3, [r7, #45]
 912:.\main.c      ****                                     rf_mod[x_1]=(lado1.totales[2][x]&0X0F)+48;
 3470              		.loc 1 912 0 discriminator 3
 3471 048a 97F82F30 		ldrb	r3, [r7, #47]	@ zero_extendqisi2
 3472 048e 0133     		adds	r3, r3, #1
 3473 0490 87F82F30 		strb	r3, [r7, #47]
 3474              	.L176:
 912:.\main.c      ****                                     rf_mod[x_1]=(lado1.totales[2][x]&0X0F)+48;
 3475              		.loc 1 912 0 is_stmt 0 discriminator 1
 3476 0494 97F82F30 		ldrb	r3, [r7, #47]	@ zero_extendqisi2
 3477 0498 0B2B     		cmp	r3, #11
 3478 049a E1D9     		bls	.L177
 915:.\main.c      ****                                 }
 916:.\main.c      ****                                 for(x=12;x<=23;x++){    //dinero_pro3    
 3479              		.loc 1 916 0 is_stmt 1
 3480 049c 0C23     		movs	r3, #12
 3481 049e 87F82F30 		strb	r3, [r7, #47]
 3482 04a2 19E0     		b	.L178
 3483              	.L179:
 917:.\main.c      ****                                     rf_mod[x_1]=(lado1.totales[2][x]&0X0F)+48;
ARM GAS  C:\Users\RECEPC~1\AppData\Local\Temp\ccIpe7td.s 			page 79


 3484              		.loc 1 917 0 discriminator 3
 3485 04a4 97F82D30 		ldrb	r3, [r7, #45]	@ zero_extendqisi2
 3486 04a8 97F82F20 		ldrb	r2, [r7, #47]	@ zero_extendqisi2
 3487 04ac 7249     		ldr	r1, .L695
 3488 04ae 0A44     		add	r2, r2, r1
 3489 04b0 92F83220 		ldrb	r2, [r2, #50]
 3490 04b4 D2B2     		uxtb	r2, r2
 3491 04b6 02F00F02 		and	r2, r2, #15
 3492 04ba D2B2     		uxtb	r2, r2
 3493 04bc 3032     		adds	r2, r2, #48
 3494 04be D1B2     		uxtb	r1, r2
 3495 04c0 6E4A     		ldr	r2, .L695+4
 3496 04c2 D154     		strb	r1, [r2, r3]
 918:.\main.c      ****                                     x_1++;
 3497              		.loc 1 918 0 discriminator 3
 3498 04c4 97F82D30 		ldrb	r3, [r7, #45]	@ zero_extendqisi2
 3499 04c8 0133     		adds	r3, r3, #1
 3500 04ca 87F82D30 		strb	r3, [r7, #45]
 916:.\main.c      ****                                     rf_mod[x_1]=(lado1.totales[2][x]&0X0F)+48;
 3501              		.loc 1 916 0 discriminator 3
 3502 04ce 97F82F30 		ldrb	r3, [r7, #47]	@ zero_extendqisi2
 3503 04d2 0133     		adds	r3, r3, #1
 3504 04d4 87F82F30 		strb	r3, [r7, #47]
 3505              	.L178:
 916:.\main.c      ****                                     rf_mod[x_1]=(lado1.totales[2][x]&0X0F)+48;
 3506              		.loc 1 916 0 is_stmt 0 discriminator 1
 3507 04d8 97F82F30 		ldrb	r3, [r7, #47]	@ zero_extendqisi2
 3508 04dc 172B     		cmp	r3, #23
 3509 04de E1D9     		bls	.L179
 919:.\main.c      ****                                 }
 920:.\main.c      ****                                 rf_mod[75]='*';                            
 3510              		.loc 1 920 0 is_stmt 1
 3511 04e0 664B     		ldr	r3, .L695+4
 3512 04e2 2A22     		movs	r2, #42
 3513 04e4 83F84B20 		strb	r2, [r3, #75]
 921:.\main.c      ****                                 PC_ClearRxBuffer();
 3514              		.loc 1 921 0
 3515 04e8 FFF7FEFF 		bl	PC_ClearRxBuffer
 922:.\main.c      ****     						    for(x=0;x<=75;x++){
 3516              		.loc 1 922 0
 3517 04ec 0023     		movs	r3, #0
 3518 04ee 87F82F30 		strb	r3, [r7, #47]
 3519 04f2 0BE0     		b	.L180
 3520              	.L181:
 923:.\main.c      ****     							   PC_PutChar(rf_mod[x]);
 3521              		.loc 1 923 0 discriminator 3
 3522 04f4 97F82F30 		ldrb	r3, [r7, #47]	@ zero_extendqisi2
 3523 04f8 604A     		ldr	r2, .L695+4
 3524 04fa D35C     		ldrb	r3, [r2, r3]	@ zero_extendqisi2
 3525 04fc 1846     		mov	r0, r3
 3526 04fe FFF7FEFF 		bl	PC_PutChar
 922:.\main.c      ****     						    for(x=0;x<=75;x++){
 3527              		.loc 1 922 0 discriminator 3
 3528 0502 97F82F30 		ldrb	r3, [r7, #47]	@ zero_extendqisi2
 3529 0506 0133     		adds	r3, r3, #1
 3530 0508 87F82F30 		strb	r3, [r7, #47]
 3531              	.L180:
ARM GAS  C:\Users\RECEPC~1\AppData\Local\Temp\ccIpe7td.s 			page 80


 922:.\main.c      ****     						    for(x=0;x<=75;x++){
 3532              		.loc 1 922 0 is_stmt 0 discriminator 1
 3533 050c 97F82F30 		ldrb	r3, [r7, #47]	@ zero_extendqisi2
 3534 0510 4B2B     		cmp	r3, #75
 3535 0512 EFD9     		bls	.L181
 924:.\main.c      ****     						    }                                 
 925:.\main.c      ****     							CyDelay(250);                
 3536              		.loc 1 925 0 is_stmt 1
 3537 0514 FA20     		movs	r0, #250
 3538 0516 FFF7FEFF 		bl	CyDelay
 926:.\main.c      ****     							if(PC_GetRxBufferSize()>=2){
 3539              		.loc 1 926 0
 3540 051a FFF7FEFF 		bl	PC_GetRxBufferSize
 3541 051e 0346     		mov	r3, r0
 3542 0520 012B     		cmp	r3, #1
 3543 0522 09D9     		bls	.L167
 927:.\main.c      ****  							        set_imagen(1,74);
 3544              		.loc 1 927 0
 3545 0524 0120     		movs	r0, #1
 3546 0526 4A21     		movs	r1, #74
 3547 0528 FFF7FEFF 		bl	set_imagen
 928:.\main.c      **** 							        flujo_LCD1=0;
 3548              		.loc 1 928 0
 3549 052c 544B     		ldr	r3, .L695+8
 3550 052e 0022     		movs	r2, #0
 3551 0530 1A70     		strb	r2, [r3]
 929:.\main.c      **** 							        lado1.estado=libre;     //Fin de reimpresion                                        
 3552              		.loc 1 929 0
 3553 0532 514B     		ldr	r3, .L695
 3554 0534 0122     		movs	r2, #1
 3555 0536 5A70     		strb	r2, [r3, #1]
 3556              	.L167:
 930:.\main.c      **** 							    }
 931:.\main.c      ****                             }
 932:.\main.c      ****                 			if(seleccion_pos == 2){
 3557              		.loc 1 932 0
 3558 0538 524B     		ldr	r3, .L695+12
 3559 053a 1B78     		ldrb	r3, [r3]
 3560 053c DBB2     		uxtb	r3, r3
 3561 053e 022B     		cmp	r3, #2
 3562 0540 40F01081 		bne	.L182
 933:.\main.c      ****                                 totales(lado2.dir, lado2.mangueras);
 3563              		.loc 1 933 0
 3564 0544 504B     		ldr	r3, .L695+16
 3565 0546 1B78     		ldrb	r3, [r3]
 3566 0548 DAB2     		uxtb	r2, r3
 3567 054a 4F4B     		ldr	r3, .L695+16
 3568 054c 93F85C30 		ldrb	r3, [r3, #92]
 3569 0550 DBB2     		uxtb	r3, r3
 3570 0552 1046     		mov	r0, r2
 3571 0554 1946     		mov	r1, r3
 3572 0556 FFF7FEFF 		bl	totales
 934:.\main.c      ****                                 CyDelay(50);  
 3573              		.loc 1 934 0
 3574 055a 3220     		movs	r0, #50
 3575 055c FFF7FEFF 		bl	CyDelay
 935:.\main.c      ****                                 x_1=4;
ARM GAS  C:\Users\RECEPC~1\AppData\Local\Temp\ccIpe7td.s 			page 81


 3576              		.loc 1 935 0
 3577 0560 0423     		movs	r3, #4
 3578 0562 87F82D30 		strb	r3, [r7, #45]
 936:.\main.c      ****                                 for(x=0;x<=11;x++){     //volumen_pro1 
 3579              		.loc 1 936 0
 3580 0566 0023     		movs	r3, #0
 3581 0568 87F82F30 		strb	r3, [r7, #47]
 3582 056c 18E0     		b	.L183
 3583              	.L184:
 937:.\main.c      ****                                     rf_mod[x_1]=(lado2.totales[0][x]&0X0F)+48;
 3584              		.loc 1 937 0 discriminator 3
 3585 056e 97F82D30 		ldrb	r3, [r7, #45]	@ zero_extendqisi2
 3586 0572 97F82F20 		ldrb	r2, [r7, #47]	@ zero_extendqisi2
 3587 0576 4449     		ldr	r1, .L695+16
 3588 0578 0A44     		add	r2, r2, r1
 3589 057a 9278     		ldrb	r2, [r2, #2]
 3590 057c D2B2     		uxtb	r2, r2
 3591 057e 02F00F02 		and	r2, r2, #15
 3592 0582 D2B2     		uxtb	r2, r2
 3593 0584 3032     		adds	r2, r2, #48
 3594 0586 D1B2     		uxtb	r1, r2
 3595 0588 3C4A     		ldr	r2, .L695+4
 3596 058a D154     		strb	r1, [r2, r3]
 938:.\main.c      ****                                     x_1++;
 3597              		.loc 1 938 0 discriminator 3
 3598 058c 97F82D30 		ldrb	r3, [r7, #45]	@ zero_extendqisi2
 3599 0590 0133     		adds	r3, r3, #1
 3600 0592 87F82D30 		strb	r3, [r7, #45]
 936:.\main.c      ****                                 for(x=0;x<=11;x++){     //volumen_pro1 
 3601              		.loc 1 936 0 discriminator 3
 3602 0596 97F82F30 		ldrb	r3, [r7, #47]	@ zero_extendqisi2
 3603 059a 0133     		adds	r3, r3, #1
 3604 059c 87F82F30 		strb	r3, [r7, #47]
 3605              	.L183:
 936:.\main.c      ****                                 for(x=0;x<=11;x++){     //volumen_pro1 
 3606              		.loc 1 936 0 is_stmt 0 discriminator 1
 3607 05a0 97F82F30 		ldrb	r3, [r7, #47]	@ zero_extendqisi2
 3608 05a4 0B2B     		cmp	r3, #11
 3609 05a6 E2D9     		bls	.L184
 939:.\main.c      ****                                 }
 940:.\main.c      ****                                 for(x=12;x<=23;x++){    //dinero_pro1
 3610              		.loc 1 940 0 is_stmt 1
 3611 05a8 0C23     		movs	r3, #12
 3612 05aa 87F82F30 		strb	r3, [r7, #47]
 3613 05ae 18E0     		b	.L185
 3614              	.L186:
 941:.\main.c      ****                                     rf_mod[x_1]=(lado2.totales[0][x]&0X0F)+48;
 3615              		.loc 1 941 0 discriminator 3
 3616 05b0 97F82D30 		ldrb	r3, [r7, #45]	@ zero_extendqisi2
 3617 05b4 97F82F20 		ldrb	r2, [r7, #47]	@ zero_extendqisi2
 3618 05b8 3349     		ldr	r1, .L695+16
 3619 05ba 0A44     		add	r2, r2, r1
 3620 05bc 9278     		ldrb	r2, [r2, #2]
 3621 05be D2B2     		uxtb	r2, r2
 3622 05c0 02F00F02 		and	r2, r2, #15
 3623 05c4 D2B2     		uxtb	r2, r2
 3624 05c6 3032     		adds	r2, r2, #48
ARM GAS  C:\Users\RECEPC~1\AppData\Local\Temp\ccIpe7td.s 			page 82


 3625 05c8 D1B2     		uxtb	r1, r2
 3626 05ca 2C4A     		ldr	r2, .L695+4
 3627 05cc D154     		strb	r1, [r2, r3]
 942:.\main.c      ****                                     x_1++;
 3628              		.loc 1 942 0 discriminator 3
 3629 05ce 97F82D30 		ldrb	r3, [r7, #45]	@ zero_extendqisi2
 3630 05d2 0133     		adds	r3, r3, #1
 3631 05d4 87F82D30 		strb	r3, [r7, #45]
 940:.\main.c      ****                                     rf_mod[x_1]=(lado2.totales[0][x]&0X0F)+48;
 3632              		.loc 1 940 0 discriminator 3
 3633 05d8 97F82F30 		ldrb	r3, [r7, #47]	@ zero_extendqisi2
 3634 05dc 0133     		adds	r3, r3, #1
 3635 05de 87F82F30 		strb	r3, [r7, #47]
 3636              	.L185:
 940:.\main.c      ****                                     rf_mod[x_1]=(lado2.totales[0][x]&0X0F)+48;
 3637              		.loc 1 940 0 is_stmt 0 discriminator 1
 3638 05e2 97F82F30 		ldrb	r3, [r7, #47]	@ zero_extendqisi2
 3639 05e6 172B     		cmp	r3, #23
 3640 05e8 E2D9     		bls	.L186
 943:.\main.c      ****                                 }           
 944:.\main.c      ****                                 for(x=0;x<=11;x++){     //volumen_pro2     
 3641              		.loc 1 944 0 is_stmt 1
 3642 05ea 0023     		movs	r3, #0
 3643 05ec 87F82F30 		strb	r3, [r7, #47]
 3644 05f0 18E0     		b	.L187
 3645              	.L188:
 945:.\main.c      ****                                     rf_mod[x_1]=(lado2.totales[1][x]&0X0F)+48;
 3646              		.loc 1 945 0 discriminator 3
 3647 05f2 97F82D30 		ldrb	r3, [r7, #45]	@ zero_extendqisi2
 3648 05f6 97F82F20 		ldrb	r2, [r7, #47]	@ zero_extendqisi2
 3649 05fa 2349     		ldr	r1, .L695+16
 3650 05fc 0A44     		add	r2, r2, r1
 3651 05fe 927E     		ldrb	r2, [r2, #26]
 3652 0600 D2B2     		uxtb	r2, r2
 3653 0602 02F00F02 		and	r2, r2, #15
 3654 0606 D2B2     		uxtb	r2, r2
 3655 0608 3032     		adds	r2, r2, #48
 3656 060a D1B2     		uxtb	r1, r2
 3657 060c 1B4A     		ldr	r2, .L695+4
 3658 060e D154     		strb	r1, [r2, r3]
 946:.\main.c      ****                                     x_1++;
 3659              		.loc 1 946 0 discriminator 3
 3660 0610 97F82D30 		ldrb	r3, [r7, #45]	@ zero_extendqisi2
 3661 0614 0133     		adds	r3, r3, #1
 3662 0616 87F82D30 		strb	r3, [r7, #45]
 944:.\main.c      ****                                     rf_mod[x_1]=(lado2.totales[1][x]&0X0F)+48;
 3663              		.loc 1 944 0 discriminator 3
 3664 061a 97F82F30 		ldrb	r3, [r7, #47]	@ zero_extendqisi2
 3665 061e 0133     		adds	r3, r3, #1
 3666 0620 87F82F30 		strb	r3, [r7, #47]
 3667              	.L187:
 944:.\main.c      ****                                     rf_mod[x_1]=(lado2.totales[1][x]&0X0F)+48;
 3668              		.loc 1 944 0 is_stmt 0 discriminator 1
 3669 0624 97F82F30 		ldrb	r3, [r7, #47]	@ zero_extendqisi2
 3670 0628 0B2B     		cmp	r3, #11
 3671 062a E2D9     		bls	.L188
 947:.\main.c      ****                                 }
ARM GAS  C:\Users\RECEPC~1\AppData\Local\Temp\ccIpe7td.s 			page 83


 948:.\main.c      ****                                 for(x=12;x<=23;x++){    //dinero_pro2    
 3672              		.loc 1 948 0 is_stmt 1
 3673 062c 0C23     		movs	r3, #12
 3674 062e 87F82F30 		strb	r3, [r7, #47]
 3675 0632 18E0     		b	.L189
 3676              	.L190:
 949:.\main.c      ****                                     rf_mod[x_1]=(lado2.totales[1][x]&0X0F)+48;
 3677              		.loc 1 949 0 discriminator 3
 3678 0634 97F82D30 		ldrb	r3, [r7, #45]	@ zero_extendqisi2
 3679 0638 97F82F20 		ldrb	r2, [r7, #47]	@ zero_extendqisi2
 3680 063c 1249     		ldr	r1, .L695+16
 3681 063e 0A44     		add	r2, r2, r1
 3682 0640 927E     		ldrb	r2, [r2, #26]
 3683 0642 D2B2     		uxtb	r2, r2
 3684 0644 02F00F02 		and	r2, r2, #15
 3685 0648 D2B2     		uxtb	r2, r2
 3686 064a 3032     		adds	r2, r2, #48
 3687 064c D1B2     		uxtb	r1, r2
 3688 064e 0B4A     		ldr	r2, .L695+4
 3689 0650 D154     		strb	r1, [r2, r3]
 950:.\main.c      ****                                     x_1++;
 3690              		.loc 1 950 0 discriminator 3
 3691 0652 97F82D30 		ldrb	r3, [r7, #45]	@ zero_extendqisi2
 3692 0656 0133     		adds	r3, r3, #1
 3693 0658 87F82D30 		strb	r3, [r7, #45]
 948:.\main.c      ****                                     rf_mod[x_1]=(lado2.totales[1][x]&0X0F)+48;
 3694              		.loc 1 948 0 discriminator 3
 3695 065c 97F82F30 		ldrb	r3, [r7, #47]	@ zero_extendqisi2
 3696 0660 0133     		adds	r3, r3, #1
 3697 0662 87F82F30 		strb	r3, [r7, #47]
 3698              	.L189:
 948:.\main.c      ****                                     rf_mod[x_1]=(lado2.totales[1][x]&0X0F)+48;
 3699              		.loc 1 948 0 is_stmt 0 discriminator 1
 3700 0666 97F82F30 		ldrb	r3, [r7, #47]	@ zero_extendqisi2
 3701 066a 172B     		cmp	r3, #23
 3702 066c E2D9     		bls	.L190
 951:.\main.c      ****                                 }           
 952:.\main.c      ****                                 for(x=0;x<=11;x++){     //volumen_pro3   
 3703              		.loc 1 952 0 is_stmt 1
 3704 066e 0023     		movs	r3, #0
 3705 0670 87F82F30 		strb	r3, [r7, #47]
 3706 0674 24E0     		b	.L191
 3707              	.L696:
 3708 0676 00BF     		.align	2
 3709              	.L695:
 3710 0678 00000000 		.word	lado1
 3711 067c 00000000 		.word	rf_mod
 3712 0680 00000000 		.word	flujo_LCD1
 3713 0684 00000000 		.word	seleccion_pos
 3714 0688 00000000 		.word	lado2
 3715              	.L192:
 953:.\main.c      ****                                     rf_mod[x_1]=(lado2.totales[2][x]&0X0F)+48;
 3716              		.loc 1 953 0 discriminator 3
 3717 068c 97F82D30 		ldrb	r3, [r7, #45]	@ zero_extendqisi2
 3718 0690 97F82F20 		ldrb	r2, [r7, #47]	@ zero_extendqisi2
 3719 0694 C549     		ldr	r1, .L697
 3720 0696 0A44     		add	r2, r2, r1
ARM GAS  C:\Users\RECEPC~1\AppData\Local\Temp\ccIpe7td.s 			page 84


 3721 0698 92F83220 		ldrb	r2, [r2, #50]
 3722 069c D2B2     		uxtb	r2, r2
 3723 069e 02F00F02 		and	r2, r2, #15
 3724 06a2 D2B2     		uxtb	r2, r2
 3725 06a4 3032     		adds	r2, r2, #48
 3726 06a6 D1B2     		uxtb	r1, r2
 3727 06a8 C14A     		ldr	r2, .L697+4
 3728 06aa D154     		strb	r1, [r2, r3]
 954:.\main.c      ****                                     x_1++;
 3729              		.loc 1 954 0 discriminator 3
 3730 06ac 97F82D30 		ldrb	r3, [r7, #45]	@ zero_extendqisi2
 3731 06b0 0133     		adds	r3, r3, #1
 3732 06b2 87F82D30 		strb	r3, [r7, #45]
 952:.\main.c      ****                                     rf_mod[x_1]=(lado2.totales[2][x]&0X0F)+48;
 3733              		.loc 1 952 0 discriminator 3
 3734 06b6 97F82F30 		ldrb	r3, [r7, #47]	@ zero_extendqisi2
 3735 06ba 0133     		adds	r3, r3, #1
 3736 06bc 87F82F30 		strb	r3, [r7, #47]
 3737              	.L191:
 952:.\main.c      ****                                     rf_mod[x_1]=(lado2.totales[2][x]&0X0F)+48;
 3738              		.loc 1 952 0 is_stmt 0 discriminator 1
 3739 06c0 97F82F30 		ldrb	r3, [r7, #47]	@ zero_extendqisi2
 3740 06c4 0B2B     		cmp	r3, #11
 3741 06c6 E1D9     		bls	.L192
 955:.\main.c      ****                                 }
 956:.\main.c      ****                                 for(x=12;x<=23;x++){    //dinero_pro3    
 3742              		.loc 1 956 0 is_stmt 1
 3743 06c8 0C23     		movs	r3, #12
 3744 06ca 87F82F30 		strb	r3, [r7, #47]
 3745 06ce 19E0     		b	.L193
 3746              	.L194:
 957:.\main.c      ****                                     rf_mod[x_1]=(lado2.totales[2][x]&0X0F)+48;
 3747              		.loc 1 957 0 discriminator 3
 3748 06d0 97F82D30 		ldrb	r3, [r7, #45]	@ zero_extendqisi2
 3749 06d4 97F82F20 		ldrb	r2, [r7, #47]	@ zero_extendqisi2
 3750 06d8 B449     		ldr	r1, .L697
 3751 06da 0A44     		add	r2, r2, r1
 3752 06dc 92F83220 		ldrb	r2, [r2, #50]
 3753 06e0 D2B2     		uxtb	r2, r2
 3754 06e2 02F00F02 		and	r2, r2, #15
 3755 06e6 D2B2     		uxtb	r2, r2
 3756 06e8 3032     		adds	r2, r2, #48
 3757 06ea D1B2     		uxtb	r1, r2
 3758 06ec B04A     		ldr	r2, .L697+4
 3759 06ee D154     		strb	r1, [r2, r3]
 958:.\main.c      ****                                     x_1++;
 3760              		.loc 1 958 0 discriminator 3
 3761 06f0 97F82D30 		ldrb	r3, [r7, #45]	@ zero_extendqisi2
 3762 06f4 0133     		adds	r3, r3, #1
 3763 06f6 87F82D30 		strb	r3, [r7, #45]
 956:.\main.c      ****                                     rf_mod[x_1]=(lado2.totales[2][x]&0X0F)+48;
 3764              		.loc 1 956 0 discriminator 3
 3765 06fa 97F82F30 		ldrb	r3, [r7, #47]	@ zero_extendqisi2
 3766 06fe 0133     		adds	r3, r3, #1
 3767 0700 87F82F30 		strb	r3, [r7, #47]
 3768              	.L193:
 956:.\main.c      ****                                     rf_mod[x_1]=(lado2.totales[2][x]&0X0F)+48;
ARM GAS  C:\Users\RECEPC~1\AppData\Local\Temp\ccIpe7td.s 			page 85


 3769              		.loc 1 956 0 is_stmt 0 discriminator 1
 3770 0704 97F82F30 		ldrb	r3, [r7, #47]	@ zero_extendqisi2
 3771 0708 172B     		cmp	r3, #23
 3772 070a E1D9     		bls	.L194
 959:.\main.c      ****                                 }
 960:.\main.c      ****                                 rf_mod[75]='*';                            
 3773              		.loc 1 960 0 is_stmt 1
 3774 070c A84B     		ldr	r3, .L697+4
 3775 070e 2A22     		movs	r2, #42
 3776 0710 83F84B20 		strb	r2, [r3, #75]
 961:.\main.c      ****                                 PC_ClearRxBuffer();
 3777              		.loc 1 961 0
 3778 0714 FFF7FEFF 		bl	PC_ClearRxBuffer
 962:.\main.c      ****     						    for(x=0;x<=75;x++){
 3779              		.loc 1 962 0
 3780 0718 0023     		movs	r3, #0
 3781 071a 87F82F30 		strb	r3, [r7, #47]
 3782 071e 0BE0     		b	.L195
 3783              	.L196:
 963:.\main.c      ****     							   PC_PutChar(rf_mod[x]);
 3784              		.loc 1 963 0 discriminator 3
 3785 0720 97F82F30 		ldrb	r3, [r7, #47]	@ zero_extendqisi2
 3786 0724 A24A     		ldr	r2, .L697+4
 3787 0726 D35C     		ldrb	r3, [r2, r3]	@ zero_extendqisi2
 3788 0728 1846     		mov	r0, r3
 3789 072a FFF7FEFF 		bl	PC_PutChar
 962:.\main.c      ****     						    for(x=0;x<=75;x++){
 3790              		.loc 1 962 0 discriminator 3
 3791 072e 97F82F30 		ldrb	r3, [r7, #47]	@ zero_extendqisi2
 3792 0732 0133     		adds	r3, r3, #1
 3793 0734 87F82F30 		strb	r3, [r7, #47]
 3794              	.L195:
 962:.\main.c      ****     						    for(x=0;x<=75;x++){
 3795              		.loc 1 962 0 is_stmt 0 discriminator 1
 3796 0738 97F82F30 		ldrb	r3, [r7, #47]	@ zero_extendqisi2
 3797 073c 4B2B     		cmp	r3, #75
 3798 073e EFD9     		bls	.L196
 964:.\main.c      ****     						    }                                 
 965:.\main.c      ****     							CyDelay(250);                
 3799              		.loc 1 965 0 is_stmt 1
 3800 0740 FA20     		movs	r0, #250
 3801 0742 FFF7FEFF 		bl	CyDelay
 966:.\main.c      ****     							if(PC_GetRxBufferSize()>=2){
 3802              		.loc 1 966 0
 3803 0746 FFF7FEFF 		bl	PC_GetRxBufferSize
 3804 074a 0346     		mov	r3, r0
 3805 074c 012B     		cmp	r3, #1
 3806 074e 09D9     		bls	.L182
 967:.\main.c      ****  							        set_imagen(1,74);
 3807              		.loc 1 967 0
 3808 0750 0120     		movs	r0, #1
 3809 0752 4A21     		movs	r1, #74
 3810 0754 FFF7FEFF 		bl	set_imagen
 968:.\main.c      **** 							        flujo_LCD1=0;
 3811              		.loc 1 968 0
 3812 0758 964B     		ldr	r3, .L697+8
 3813 075a 0022     		movs	r2, #0
ARM GAS  C:\Users\RECEPC~1\AppData\Local\Temp\ccIpe7td.s 			page 86


 3814 075c 1A70     		strb	r2, [r3]
 969:.\main.c      **** 							        lado2.estado=libre;     //Fin de reimpresion                                        
 3815              		.loc 1 969 0
 3816 075e 934B     		ldr	r3, .L697
 3817 0760 0122     		movs	r2, #1
 3818 0762 5A70     		strb	r2, [r3, #1]
 3819              	.L182:
 970:.\main.c      **** 							    }
 971:.\main.c      ****                             }                			                                
 972:.\main.c      **** 							PC_ClearRxBuffer();                                                                         
 3820              		.loc 1 972 0
 3821 0764 FFF7FEFF 		bl	PC_ClearRxBuffer
 973:.\main.c      **** 	                    break;					
 3822              		.loc 1 973 0
 3823 0768 07E0     		b	.L161
 3824              	.L166:
 974:.\main.c      **** 						
 975:.\main.c      **** 	                    case 0x7E:									//ir a menu
 976:.\main.c      **** 						  set_imagen(1,74);	
 3825              		.loc 1 976 0
 3826 076a 0120     		movs	r0, #1
 3827 076c 4A21     		movs	r1, #74
 3828 076e FFF7FEFF 		bl	set_imagen
 977:.\main.c      **** 	                      flujo_LCD1=0;     
 3829              		.loc 1 977 0
 3830 0772 904B     		ldr	r3, .L697+8
 3831 0774 0022     		movs	r2, #0
 3832 0776 1A70     		strb	r2, [r3]
 978:.\main.c      **** 	                    break;					
 3833              		.loc 1 978 0
 3834 0778 00BF     		nop
 3835              	.L161:
 979:.\main.c      **** 	                }
 980:.\main.c      **** 	            }
 981:.\main.c      **** 	            CyDelay(100);
 3836              		.loc 1 981 0
 3837 077a 6420     		movs	r0, #100
 3838 077c FFF7FEFF 		bl	CyDelay
 982:.\main.c      **** 	            LCD_1_ClearRxBuffer();
 3839              		.loc 1 982 0
 3840 0780 FFF7FEFF 		bl	LCD_1_ClearRxBuffer
 983:.\main.c      **** 	        }				
 984:.\main.c      **** 		break;
 3841              		.loc 1 984 0
 3842 0784 04F04CBB 		b	.L131
 3843              	.L160:
 3844              		.loc 1 984 0 is_stmt 0 discriminator 3
 3845 0788 04F04ABB 		b	.L131
 3846              	.L137:
 985:.\main.c      ****             
 986:.\main.c      ****          case 3:     
 987:.\main.c      ****          if(LCD_1_GetRxBufferSize()==8){
 3847              		.loc 1 987 0 is_stmt 1
 3848 078c FFF7FEFF 		bl	LCD_1_GetRxBufferSize
 3849 0790 0346     		mov	r3, r0
 3850 0792 082B     		cmp	r3, #8
 3851 0794 50D1     		bne	.L197
ARM GAS  C:\Users\RECEPC~1\AppData\Local\Temp\ccIpe7td.s 			page 87


 988:.\main.c      ****             if((LCD_1_rxBuffer[0]==0xAA) && (LCD_1_rxBuffer[6]==0xC3) && (LCD_1_rxBuffer[7]==0x3C))
 3852              		.loc 1 988 0
 3853 0796 884B     		ldr	r3, .L697+12
 3854 0798 1B78     		ldrb	r3, [r3]
 3855 079a DBB2     		uxtb	r3, r3
 3856 079c AA2B     		cmp	r3, #170
 3857 079e 44D1     		bne	.L198
 3858              		.loc 1 988 0 is_stmt 0 discriminator 1
 3859 07a0 854B     		ldr	r3, .L697+12
 3860 07a2 9B79     		ldrb	r3, [r3, #6]
 3861 07a4 DBB2     		uxtb	r3, r3
 3862 07a6 C32B     		cmp	r3, #195
 3863 07a8 3FD1     		bne	.L198
 3864              		.loc 1 988 0 discriminator 2
 3865 07aa 834B     		ldr	r3, .L697+12
 3866 07ac DB79     		ldrb	r3, [r3, #7]
 3867 07ae DBB2     		uxtb	r3, r3
 3868 07b0 3C2B     		cmp	r3, #60
 3869 07b2 3AD1     		bne	.L198
 989:.\main.c      ****                 switch(LCD_1_rxBuffer[3]){
 3870              		.loc 1 989 0 is_stmt 1
 3871 07b4 804B     		ldr	r3, .L697+12
 3872 07b6 DB78     		ldrb	r3, [r3, #3]
 3873 07b8 DBB2     		uxtb	r3, r3
 3874 07ba 5F2B     		cmp	r3, #95
 3875 07bc 09D0     		beq	.L199
 3876 07be 5F2B     		cmp	r3, #95
 3877 07c0 02DC     		bgt	.L200
 3878 07c2 5E2B     		cmp	r3, #94
 3879 07c4 13D0     		beq	.L201
 3880 07c6 30E0     		b	.L198
 3881              	.L200:
 3882 07c8 7E2B     		cmp	r3, #126
 3883 07ca 1ED0     		beq	.L202
 3884 07cc 942B     		cmp	r3, #148
 3885 07ce 24D0     		beq	.L203
 3886 07d0 2BE0     		b	.L198
 3887              	.L199:
 990:.\main.c      ****                     case 0x5F:							//Sin ID	                                                     
 991:.\main.c      ****                       set_imagen(1,18);                 //Pasa a pantalla de tipo de venta viejo:5
 3888              		.loc 1 991 0
 3889 07d2 0120     		movs	r0, #1
 3890 07d4 1221     		movs	r1, #18
 3891 07d6 FFF7FEFF 		bl	set_imagen
 992:.\main.c      ****                       tipo_venta = 0;
 3892              		.loc 1 992 0
 3893 07da 784B     		ldr	r3, .L697+16
 3894 07dc 0022     		movs	r2, #0
 3895 07de 1A70     		strb	r2, [r3]
 993:.\main.c      ****                       id_teclado1 = 8;
 3896              		.loc 1 993 0
 3897 07e0 774B     		ldr	r3, .L697+20
 3898 07e2 0822     		movs	r2, #8
 3899 07e4 1A70     		strb	r2, [r3]
 994:.\main.c      ****                       flujo_LCD1 = 11;                 // viejo: 4
 3900              		.loc 1 994 0
 3901 07e6 734B     		ldr	r3, .L697+8
ARM GAS  C:\Users\RECEPC~1\AppData\Local\Temp\ccIpe7td.s 			page 88


 3902 07e8 0B22     		movs	r2, #11
 3903 07ea 1A70     		strb	r2, [r3]
 995:.\main.c      ****                     break;
 3904              		.loc 1 995 0
 3905 07ec 1DE0     		b	.L198
 3906              	.L201:
 996:.\main.c      ****                     
 997:.\main.c      ****                     case 0x5E:  						//Con ID                                         
 998:.\main.c      ****                       set_imagen(1,18);
 3907              		.loc 1 998 0
 3908 07ee 0120     		movs	r0, #1
 3909 07f0 1221     		movs	r1, #18
 3910 07f2 FFF7FEFF 		bl	set_imagen
 999:.\main.c      ****                       tipo_venta = 1;
 3911              		.loc 1 999 0
 3912 07f6 714B     		ldr	r3, .L697+16
 3913 07f8 0122     		movs	r2, #1
 3914 07fa 1A70     		strb	r2, [r3]
1000:.\main.c      ****                       flujo_LCD1 = 11;
 3915              		.loc 1 1000 0
 3916 07fc 6D4B     		ldr	r3, .L697+8
 3917 07fe 0B22     		movs	r2, #11
 3918 0800 1A70     		strb	r2, [r3]
1001:.\main.c      ****                       id_teclado1 = 0;
 3919              		.loc 1 1001 0
 3920 0802 6F4B     		ldr	r3, .L697+20
 3921 0804 0022     		movs	r2, #0
 3922 0806 1A70     		strb	r2, [r3]
1002:.\main.c      ****                     break;	
 3923              		.loc 1 1002 0
 3924 0808 0FE0     		b	.L198
 3925              	.L202:
1003:.\main.c      **** 
1004:.\main.c      ****                     case 0x7E:						    //ir a menu
1005:.\main.c      **** 					  set_imagen(1,74);	
 3926              		.loc 1 1005 0
 3927 080a 0120     		movs	r0, #1
 3928 080c 4A21     		movs	r1, #74
 3929 080e FFF7FEFF 		bl	set_imagen
1006:.\main.c      ****                       flujo_LCD1 = 0;     
 3930              		.loc 1 1006 0
 3931 0812 684B     		ldr	r3, .L697+8
 3932 0814 0022     		movs	r2, #0
 3933 0816 1A70     		strb	r2, [r3]
1007:.\main.c      ****                     break;	
 3934              		.loc 1 1007 0
 3935 0818 07E0     		b	.L198
 3936              	.L203:
1008:.\main.c      ****                     
1009:.\main.c      ****                     case 0x94:
1010:.\main.c      ****                         set_imagen(1,99); //Regreso a pantalla de opcion de venta
 3937              		.loc 1 1010 0
 3938 081a 0120     		movs	r0, #1
 3939 081c 6321     		movs	r1, #99
 3940 081e FFF7FEFF 		bl	set_imagen
1011:.\main.c      ****                         flujo_LCD1 = 1;
 3941              		.loc 1 1011 0
ARM GAS  C:\Users\RECEPC~1\AppData\Local\Temp\ccIpe7td.s 			page 89


 3942 0822 644B     		ldr	r3, .L697+8
 3943 0824 0122     		movs	r2, #1
 3944 0826 1A70     		strb	r2, [r3]
1012:.\main.c      ****                     break;
 3945              		.loc 1 1012 0
 3946 0828 00BF     		nop
 3947              	.L198:
1013:.\main.c      ****                 }
1014:.\main.c      ****             }
1015:.\main.c      ****             CyDelay(100);
 3948              		.loc 1 1015 0
 3949 082a 6420     		movs	r0, #100
 3950 082c FFF7FEFF 		bl	CyDelay
1016:.\main.c      ****             LCD_1_ClearRxBuffer();
 3951              		.loc 1 1016 0
 3952 0830 FFF7FEFF 		bl	LCD_1_ClearRxBuffer
1017:.\main.c      ****         }        
1018:.\main.c      ****         break;    
 3953              		.loc 1 1018 0
 3954 0834 04F0F4BA 		b	.L131
 3955              	.L197:
 3956              		.loc 1 1018 0 is_stmt 0 discriminator 4
 3957 0838 04F0F2BA 		b	.L131
 3958              	.L138:
1019:.\main.c      ****             
1020:.\main.c      ****         case 4:
1021:.\main.c      ****          if(LCD_1_GetRxBufferSize()==8){
 3959              		.loc 1 1021 0 is_stmt 1
 3960 083c FFF7FEFF 		bl	LCD_1_GetRxBufferSize
 3961 0840 0346     		mov	r3, r0
 3962 0842 082B     		cmp	r3, #8
 3963 0844 40F0E381 		bne	.L204
1022:.\main.c      ****             if((LCD_1_rxBuffer[0]==0xAA) && (LCD_1_rxBuffer[6]==0xC3) && (LCD_1_rxBuffer[7]==0x3C))
 3964              		.loc 1 1022 0
 3965 0848 5B4B     		ldr	r3, .L697+12
 3966 084a 1B78     		ldrb	r3, [r3]
 3967 084c DBB2     		uxtb	r3, r3
 3968 084e AA2B     		cmp	r3, #170
 3969 0850 40F0D681 		bne	.L205
 3970              		.loc 1 1022 0 is_stmt 0 discriminator 1
 3971 0854 584B     		ldr	r3, .L697+12
 3972 0856 9B79     		ldrb	r3, [r3, #6]
 3973 0858 DBB2     		uxtb	r3, r3
 3974 085a C32B     		cmp	r3, #195
 3975 085c 40F0D081 		bne	.L205
 3976              		.loc 1 1022 0 discriminator 2
 3977 0860 554B     		ldr	r3, .L697+12
 3978 0862 DB79     		ldrb	r3, [r3, #7]
 3979 0864 DBB2     		uxtb	r3, r3
 3980 0866 3C2B     		cmp	r3, #60
 3981 0868 40F0CA81 		bne	.L205
1023:.\main.c      ****                 switch(LCD_1_rxBuffer[3]){
 3982              		.loc 1 1023 0 is_stmt 1
 3983 086c 524B     		ldr	r3, .L697+12
 3984 086e DB78     		ldrb	r3, [r3, #3]
 3985 0870 DBB2     		uxtb	r3, r3
 3986 0872 3B2B     		cmp	r3, #59
ARM GAS  C:\Users\RECEPC~1\AppData\Local\Temp\ccIpe7td.s 			page 90


 3987 0874 00F0B881 		beq	.L206
 3988 0878 3B2B     		cmp	r3, #59
 3989 087a 05DC     		bgt	.L207
 3990 087c 0F2B     		cmp	r3, #15
 3991 087e 0AD0     		beq	.L208
 3992 0880 102B     		cmp	r3, #16
 3993 0882 00F0B580 		beq	.L209
 3994 0886 BBE1     		b	.L205
 3995              	.L207:
 3996 0888 432B     		cmp	r3, #67
 3997 088a 00F03B81 		beq	.L210
 3998 088e 7E2B     		cmp	r3, #126
 3999 0890 00F0AE81 		beq	.L211
 4000 0894 B4E1     		b	.L205
 4001              	.L208:
1024:.\main.c      ****                     case 0x0F:                               	//$
1025:.\main.c      ****                     if(seleccion_pos == 1){
 4002              		.loc 1 1025 0
 4003 0896 4B4B     		ldr	r3, .L697+24
 4004 0898 1B78     		ldrb	r3, [r3]
 4005 089a DBB2     		uxtb	r3, r3
 4006 089c 012B     		cmp	r3, #1
 4007 089e 3ED1     		bne	.L212
1026:.\main.c      **** 					  for(x=0;x<=7;x++){
 4008              		.loc 1 1026 0
 4009 08a0 0023     		movs	r3, #0
 4010 08a2 87F82F30 		strb	r3, [r7, #47]
 4011 08a6 0AE0     		b	.L213
 4012              	.L214:
1027:.\main.c      **** 					 	rventa1.preset[x]=0;
 4013              		.loc 1 1027 0 discriminator 3
 4014 08a8 97F82F30 		ldrb	r3, [r7, #47]	@ zero_extendqisi2
 4015 08ac 464A     		ldr	r2, .L697+28
 4016 08ae 1344     		add	r3, r3, r2
 4017 08b0 0022     		movs	r2, #0
 4018 08b2 DA76     		strb	r2, [r3, #27]
1026:.\main.c      **** 					  for(x=0;x<=7;x++){
 4019              		.loc 1 1026 0 discriminator 3
 4020 08b4 97F82F30 		ldrb	r3, [r7, #47]	@ zero_extendqisi2
 4021 08b8 0133     		adds	r3, r3, #1
 4022 08ba 87F82F30 		strb	r3, [r7, #47]
 4023              	.L213:
1026:.\main.c      **** 					  for(x=0;x<=7;x++){
 4024              		.loc 1 1026 0 is_stmt 0 discriminator 1
 4025 08be 97F82F30 		ldrb	r3, [r7, #47]	@ zero_extendqisi2
 4026 08c2 072B     		cmp	r3, #7
 4027 08c4 F0D9     		bls	.L214
1028:.\main.c      **** 					  }					                      
1029:.\main.c      **** 					  count_teclas1=0;							//Inicia el contador de teclas	
 4028              		.loc 1 1029 0 is_stmt 1
 4029 08c6 414B     		ldr	r3, .L697+32
 4030 08c8 0022     		movs	r2, #0
 4031 08ca 1A70     		strb	r2, [r3]
1030:.\main.c      **** 					  id_teclado1=1;
 4032              		.loc 1 1030 0
 4033 08cc 3C4B     		ldr	r3, .L697+20
 4034 08ce 0122     		movs	r2, #1
ARM GAS  C:\Users\RECEPC~1\AppData\Local\Temp\ccIpe7td.s 			page 91


 4035 08d0 1A70     		strb	r2, [r3]
1031:.\main.c      **** 					  id_coma1=',';	
 4036              		.loc 1 1031 0
 4037 08d2 3F4B     		ldr	r3, .L697+36
 4038 08d4 2C22     		movs	r2, #44
 4039 08d6 1A70     		strb	r2, [r3]
1032:.\main.c      ****                       teclas1=version[1]; 						//cantidad de teclas q puede digitar
 4040              		.loc 1 1032 0
 4041 08d8 3E4B     		ldr	r3, .L697+40
 4042 08da 5B78     		ldrb	r3, [r3, #1]
 4043 08dc DAB2     		uxtb	r2, r3
 4044 08de 3E4B     		ldr	r3, .L697+44
 4045 08e0 1A70     		strb	r2, [r3]
1033:.\main.c      **** 					  rventa1.preset[0]=1;
 4046              		.loc 1 1033 0
 4047 08e2 394B     		ldr	r3, .L697+28
 4048 08e4 0122     		movs	r2, #1
 4049 08e6 DA76     		strb	r2, [r3, #27]
1034:.\main.c      ****                       comas1=0;									
 4050              		.loc 1 1034 0
 4051 08e8 3C4B     		ldr	r3, .L697+48
 4052 08ea 0022     		movs	r2, #0
 4053 08ec 1A70     		strb	r2, [r3]
1035:.\main.c      ****                       set_imagen(1,6); 
 4054              		.loc 1 1035 0
 4055 08ee 0120     		movs	r0, #1
 4056 08f0 0621     		movs	r1, #6
 4057 08f2 FFF7FEFF 		bl	set_imagen
1036:.\main.c      **** 					  posx1=4;
 4058              		.loc 1 1036 0
 4059 08f6 3A4B     		ldr	r3, .L697+52
 4060 08f8 0422     		movs	r2, #4
 4061 08fa 1A80     		strh	r2, [r3]	@ movhi
1037:.\main.c      **** 					  posy1=3;
 4062              		.loc 1 1037 0
 4063 08fc 394B     		ldr	r3, .L697+56
 4064 08fe 0322     		movs	r2, #3
 4065 0900 1A80     		strh	r2, [r3]	@ movhi
1038:.\main.c      **** 					  sizeletra1=1;	
 4066              		.loc 1 1038 0
 4067 0902 394B     		ldr	r3, .L697+60
 4068 0904 0122     		movs	r2, #1
 4069 0906 1A80     		strh	r2, [r3]	@ movhi
1039:.\main.c      **** 					  write_LCD(1,'$', 3, 4, 1);
 4070              		.loc 1 1039 0
 4071 0908 0123     		movs	r3, #1
 4072 090a 0093     		str	r3, [sp]
 4073 090c 0120     		movs	r0, #1
 4074 090e 2421     		movs	r1, #36
 4075 0910 0322     		movs	r2, #3
 4076 0912 0423     		movs	r3, #4
 4077 0914 FFF7FEFF 		bl	write_LCD
1040:.\main.c      ****                       flujo_LCD1 = 12; 
 4078              		.loc 1 1040 0
 4079 0918 264B     		ldr	r3, .L697+8
 4080 091a 0C22     		movs	r2, #12
 4081 091c 1A70     		strb	r2, [r3]
ARM GAS  C:\Users\RECEPC~1\AppData\Local\Temp\ccIpe7td.s 			page 92


 4082              	.L212:
1041:.\main.c      ****                     }
1042:.\main.c      ****                     if(seleccion_pos == 2){
 4083              		.loc 1 1042 0
 4084 091e 294B     		ldr	r3, .L697+24
 4085 0920 1B78     		ldrb	r3, [r3]
 4086 0922 DBB2     		uxtb	r3, r3
 4087 0924 022B     		cmp	r3, #2
 4088 0926 3FD1     		bne	.L215
1043:.\main.c      **** 					  for(x=0;x<=7;x++){
 4089              		.loc 1 1043 0
 4090 0928 0023     		movs	r3, #0
 4091 092a 87F82F30 		strb	r3, [r7, #47]
 4092 092e 0AE0     		b	.L216
 4093              	.L217:
1044:.\main.c      **** 					 	rventa2.preset[x]=0;
 4094              		.loc 1 1044 0 discriminator 3
 4095 0930 97F82F30 		ldrb	r3, [r7, #47]	@ zero_extendqisi2
 4096 0934 2D4A     		ldr	r2, .L697+64
 4097 0936 1344     		add	r3, r3, r2
 4098 0938 0022     		movs	r2, #0
 4099 093a DA76     		strb	r2, [r3, #27]
1043:.\main.c      **** 					  for(x=0;x<=7;x++){
 4100              		.loc 1 1043 0 discriminator 3
 4101 093c 97F82F30 		ldrb	r3, [r7, #47]	@ zero_extendqisi2
 4102 0940 0133     		adds	r3, r3, #1
 4103 0942 87F82F30 		strb	r3, [r7, #47]
 4104              	.L216:
1043:.\main.c      **** 					  for(x=0;x<=7;x++){
 4105              		.loc 1 1043 0 is_stmt 0 discriminator 1
 4106 0946 97F82F30 		ldrb	r3, [r7, #47]	@ zero_extendqisi2
 4107 094a 072B     		cmp	r3, #7
 4108 094c F0D9     		bls	.L217
1045:.\main.c      **** 					  }					                      
1046:.\main.c      **** 					  count_teclas1=0;							//Inicia el contador de teclas	
 4109              		.loc 1 1046 0 is_stmt 1
 4110 094e 1F4B     		ldr	r3, .L697+32
 4111 0950 0022     		movs	r2, #0
 4112 0952 1A70     		strb	r2, [r3]
1047:.\main.c      **** 					  id_teclado1=1;
 4113              		.loc 1 1047 0
 4114 0954 1A4B     		ldr	r3, .L697+20
 4115 0956 0122     		movs	r2, #1
 4116 0958 1A70     		strb	r2, [r3]
1048:.\main.c      **** 					  id_coma1=',';	
 4117              		.loc 1 1048 0
 4118 095a 1D4B     		ldr	r3, .L697+36
 4119 095c 2C22     		movs	r2, #44
 4120 095e 1A70     		strb	r2, [r3]
1049:.\main.c      ****                       teclas1=version[1]; 						//cantidad de teclas q puede digitar
 4121              		.loc 1 1049 0
 4122 0960 1C4B     		ldr	r3, .L697+40
 4123 0962 5B78     		ldrb	r3, [r3, #1]
 4124 0964 DAB2     		uxtb	r2, r3
 4125 0966 1C4B     		ldr	r3, .L697+44
 4126 0968 1A70     		strb	r2, [r3]
1050:.\main.c      **** 					  rventa2.preset[0]=1;
ARM GAS  C:\Users\RECEPC~1\AppData\Local\Temp\ccIpe7td.s 			page 93


 4127              		.loc 1 1050 0
 4128 096a 204B     		ldr	r3, .L697+64
 4129 096c 0122     		movs	r2, #1
 4130 096e DA76     		strb	r2, [r3, #27]
1051:.\main.c      ****                       comas1=0;									
 4131              		.loc 1 1051 0
 4132 0970 1A4B     		ldr	r3, .L697+48
 4133 0972 0022     		movs	r2, #0
 4134 0974 1A70     		strb	r2, [r3]
1052:.\main.c      ****                       set_imagen(1,6); 
 4135              		.loc 1 1052 0
 4136 0976 0120     		movs	r0, #1
 4137 0978 0621     		movs	r1, #6
 4138 097a FFF7FEFF 		bl	set_imagen
1053:.\main.c      **** 					  posx1=4;
 4139              		.loc 1 1053 0
 4140 097e 184B     		ldr	r3, .L697+52
 4141 0980 0422     		movs	r2, #4
 4142 0982 1A80     		strh	r2, [r3]	@ movhi
1054:.\main.c      **** 					  posy1=3;
 4143              		.loc 1 1054 0
 4144 0984 174B     		ldr	r3, .L697+56
 4145 0986 0322     		movs	r2, #3
 4146 0988 1A80     		strh	r2, [r3]	@ movhi
1055:.\main.c      **** 					  sizeletra1=1;	
 4147              		.loc 1 1055 0
 4148 098a 174B     		ldr	r3, .L697+60
 4149 098c 0122     		movs	r2, #1
 4150 098e 1A80     		strh	r2, [r3]	@ movhi
1056:.\main.c      **** 					  write_LCD(1,'$', 3, 4, 1);
 4151              		.loc 1 1056 0
 4152 0990 0123     		movs	r3, #1
 4153 0992 0093     		str	r3, [sp]
 4154 0994 0120     		movs	r0, #1
 4155 0996 2421     		movs	r1, #36
 4156 0998 0322     		movs	r2, #3
 4157 099a 0423     		movs	r3, #4
 4158 099c FFF7FEFF 		bl	write_LCD
1057:.\main.c      ****                       flujo_LCD1 = 12; 
 4159              		.loc 1 1057 0
 4160 09a0 044B     		ldr	r3, .L697+8
 4161 09a2 0C22     		movs	r2, #12
 4162 09a4 1A70     		strb	r2, [r3]
1058:.\main.c      ****                     }
1059:.\main.c      ****                     break;
 4163              		.loc 1 1059 0
 4164 09a6 2BE1     		b	.L205
 4165              	.L215:
 4166 09a8 2AE1     		b	.L205
 4167              	.L698:
 4168 09aa 00BF     		.align	2
 4169              	.L697:
 4170 09ac 00000000 		.word	lado2
 4171 09b0 00000000 		.word	rf_mod
 4172 09b4 00000000 		.word	flujo_LCD1
 4173 09b8 00000000 		.word	LCD_1_rxBuffer
 4174 09bc 00000000 		.word	tipo_venta
ARM GAS  C:\Users\RECEPC~1\AppData\Local\Temp\ccIpe7td.s 			page 94


 4175 09c0 00000000 		.word	id_teclado1
 4176 09c4 00000000 		.word	seleccion_pos
 4177 09c8 00000000 		.word	rventa1
 4178 09cc 00000000 		.word	count_teclas1
 4179 09d0 00000000 		.word	id_coma1
 4180 09d4 00000000 		.word	version
 4181 09d8 00000000 		.word	teclas1
 4182 09dc 00000000 		.word	comas1
 4183 09e0 00000000 		.word	posx1
 4184 09e4 00000000 		.word	posy1
 4185 09e8 00000000 		.word	sizeletra1
 4186 09ec 00000000 		.word	rventa2
 4187              	.L209:
1060:.\main.c      ****                     
1061:.\main.c      ****                     case 0x10: 									//L 
1062:.\main.c      ****                     if(seleccion_pos == 1){
 4188              		.loc 1 1062 0
 4189 09f0 B84B     		ldr	r3, .L699
 4190 09f2 1B78     		ldrb	r3, [r3]
 4191 09f4 DBB2     		uxtb	r3, r3
 4192 09f6 012B     		cmp	r3, #1
 4193 09f8 3ED1     		bne	.L218
1063:.\main.c      **** 					  for(x=0;x<=7;x++){
 4194              		.loc 1 1063 0
 4195 09fa 0023     		movs	r3, #0
 4196 09fc 87F82F30 		strb	r3, [r7, #47]
 4197 0a00 0AE0     		b	.L219
 4198              	.L220:
1064:.\main.c      **** 					 	rventa1.preset[x]=0;
 4199              		.loc 1 1064 0 discriminator 3
 4200 0a02 97F82F30 		ldrb	r3, [r7, #47]	@ zero_extendqisi2
 4201 0a06 B44A     		ldr	r2, .L699+4
 4202 0a08 1344     		add	r3, r3, r2
 4203 0a0a 0022     		movs	r2, #0
 4204 0a0c DA76     		strb	r2, [r3, #27]
1063:.\main.c      **** 					  for(x=0;x<=7;x++){
 4205              		.loc 1 1063 0 discriminator 3
 4206 0a0e 97F82F30 		ldrb	r3, [r7, #47]	@ zero_extendqisi2
 4207 0a12 0133     		adds	r3, r3, #1
 4208 0a14 87F82F30 		strb	r3, [r7, #47]
 4209              	.L219:
1063:.\main.c      **** 					  for(x=0;x<=7;x++){
 4210              		.loc 1 1063 0 is_stmt 0 discriminator 1
 4211 0a18 97F82F30 		ldrb	r3, [r7, #47]	@ zero_extendqisi2
 4212 0a1c 072B     		cmp	r3, #7
 4213 0a1e F0D9     		bls	.L220
1065:.\main.c      **** 					  }						                      
1066:.\main.c      **** 					  count_teclas1=0;							//Inicia el contador de teclas	
 4214              		.loc 1 1066 0 is_stmt 1
 4215 0a20 AE4B     		ldr	r3, .L699+8
 4216 0a22 0022     		movs	r2, #0
 4217 0a24 1A70     		strb	r2, [r3]
1067:.\main.c      **** 					  id_teclado1=1;
 4218              		.loc 1 1067 0
 4219 0a26 AE4B     		ldr	r3, .L699+12
 4220 0a28 0122     		movs	r2, #1
 4221 0a2a 1A70     		strb	r2, [r3]
ARM GAS  C:\Users\RECEPC~1\AppData\Local\Temp\ccIpe7td.s 			page 95


1068:.\main.c      **** 					  id_coma1=',';	
 4222              		.loc 1 1068 0
 4223 0a2c AD4B     		ldr	r3, .L699+16
 4224 0a2e 2C22     		movs	r2, #44
 4225 0a30 1A70     		strb	r2, [r3]
1069:.\main.c      ****                       teclas1=version[1]; 
 4226              		.loc 1 1069 0
 4227 0a32 AD4B     		ldr	r3, .L699+20
 4228 0a34 5B78     		ldrb	r3, [r3, #1]
 4229 0a36 DAB2     		uxtb	r2, r3
 4230 0a38 AC4B     		ldr	r3, .L699+24
 4231 0a3a 1A70     		strb	r2, [r3]
1070:.\main.c      **** 					  rventa1.preset[0]=2;
 4232              		.loc 1 1070 0
 4233 0a3c A64B     		ldr	r3, .L699+4
 4234 0a3e 0222     		movs	r2, #2
 4235 0a40 DA76     		strb	r2, [r3, #27]
1071:.\main.c      ****                       comas1=0;									
 4236              		.loc 1 1071 0
 4237 0a42 AB4B     		ldr	r3, .L699+28
 4238 0a44 0022     		movs	r2, #0
 4239 0a46 1A70     		strb	r2, [r3]
1072:.\main.c      ****                       set_imagen(1,13); 
 4240              		.loc 1 1072 0
 4241 0a48 0120     		movs	r0, #1
 4242 0a4a 0D21     		movs	r1, #13
 4243 0a4c FFF7FEFF 		bl	set_imagen
1073:.\main.c      **** 					  posx1=4;
 4244              		.loc 1 1073 0
 4245 0a50 A84B     		ldr	r3, .L699+32
 4246 0a52 0422     		movs	r2, #4
 4247 0a54 1A80     		strh	r2, [r3]	@ movhi
1074:.\main.c      **** 					  posy1=3;
 4248              		.loc 1 1074 0
 4249 0a56 A84B     		ldr	r3, .L699+36
 4250 0a58 0322     		movs	r2, #3
 4251 0a5a 1A80     		strh	r2, [r3]	@ movhi
1075:.\main.c      **** 					  sizeletra1=1;					
 4252              		.loc 1 1075 0
 4253 0a5c A74B     		ldr	r3, .L699+40
 4254 0a5e 0122     		movs	r2, #1
 4255 0a60 1A80     		strh	r2, [r3]	@ movhi
1076:.\main.c      **** 					  write_LCD(1,'L', 3, 4, 1);
 4256              		.loc 1 1076 0
 4257 0a62 0123     		movs	r3, #1
 4258 0a64 0093     		str	r3, [sp]
 4259 0a66 0120     		movs	r0, #1
 4260 0a68 4C21     		movs	r1, #76
 4261 0a6a 0322     		movs	r2, #3
 4262 0a6c 0423     		movs	r3, #4
 4263 0a6e FFF7FEFF 		bl	write_LCD
1077:.\main.c      ****                       flujo_LCD1=12; 
 4264              		.loc 1 1077 0
 4265 0a72 A34B     		ldr	r3, .L699+44
 4266 0a74 0C22     		movs	r2, #12
 4267 0a76 1A70     		strb	r2, [r3]
 4268              	.L218:
ARM GAS  C:\Users\RECEPC~1\AppData\Local\Temp\ccIpe7td.s 			page 96


1078:.\main.c      ****                     }
1079:.\main.c      ****                     if(seleccion_pos == 2){
 4269              		.loc 1 1079 0
 4270 0a78 964B     		ldr	r3, .L699
 4271 0a7a 1B78     		ldrb	r3, [r3]
 4272 0a7c DBB2     		uxtb	r3, r3
 4273 0a7e 022B     		cmp	r3, #2
 4274 0a80 3FD1     		bne	.L221
1080:.\main.c      **** 					  for(x=0;x<=7;x++){
 4275              		.loc 1 1080 0
 4276 0a82 0023     		movs	r3, #0
 4277 0a84 87F82F30 		strb	r3, [r7, #47]
 4278 0a88 0AE0     		b	.L222
 4279              	.L223:
1081:.\main.c      **** 					 	rventa1.preset[x]=0;
 4280              		.loc 1 1081 0 discriminator 3
 4281 0a8a 97F82F30 		ldrb	r3, [r7, #47]	@ zero_extendqisi2
 4282 0a8e 924A     		ldr	r2, .L699+4
 4283 0a90 1344     		add	r3, r3, r2
 4284 0a92 0022     		movs	r2, #0
 4285 0a94 DA76     		strb	r2, [r3, #27]
1080:.\main.c      **** 					  for(x=0;x<=7;x++){
 4286              		.loc 1 1080 0 discriminator 3
 4287 0a96 97F82F30 		ldrb	r3, [r7, #47]	@ zero_extendqisi2
 4288 0a9a 0133     		adds	r3, r3, #1
 4289 0a9c 87F82F30 		strb	r3, [r7, #47]
 4290              	.L222:
1080:.\main.c      **** 					  for(x=0;x<=7;x++){
 4291              		.loc 1 1080 0 is_stmt 0 discriminator 1
 4292 0aa0 97F82F30 		ldrb	r3, [r7, #47]	@ zero_extendqisi2
 4293 0aa4 072B     		cmp	r3, #7
 4294 0aa6 F0D9     		bls	.L223
1082:.\main.c      **** 					  }						                      
1083:.\main.c      **** 					  count_teclas1=0;							//Inicia el contador de teclas	
 4295              		.loc 1 1083 0 is_stmt 1
 4296 0aa8 8C4B     		ldr	r3, .L699+8
 4297 0aaa 0022     		movs	r2, #0
 4298 0aac 1A70     		strb	r2, [r3]
1084:.\main.c      **** 					  id_teclado1=1;
 4299              		.loc 1 1084 0
 4300 0aae 8C4B     		ldr	r3, .L699+12
 4301 0ab0 0122     		movs	r2, #1
 4302 0ab2 1A70     		strb	r2, [r3]
1085:.\main.c      **** 					  id_coma1=',';	
 4303              		.loc 1 1085 0
 4304 0ab4 8B4B     		ldr	r3, .L699+16
 4305 0ab6 2C22     		movs	r2, #44
 4306 0ab8 1A70     		strb	r2, [r3]
1086:.\main.c      ****                       teclas1=version[1]; 
 4307              		.loc 1 1086 0
 4308 0aba 8B4B     		ldr	r3, .L699+20
 4309 0abc 5B78     		ldrb	r3, [r3, #1]
 4310 0abe DAB2     		uxtb	r2, r3
 4311 0ac0 8A4B     		ldr	r3, .L699+24
 4312 0ac2 1A70     		strb	r2, [r3]
1087:.\main.c      **** 					  rventa2.preset[0]=2;
 4313              		.loc 1 1087 0
ARM GAS  C:\Users\RECEPC~1\AppData\Local\Temp\ccIpe7td.s 			page 97


 4314 0ac4 8F4B     		ldr	r3, .L699+48
 4315 0ac6 0222     		movs	r2, #2
 4316 0ac8 DA76     		strb	r2, [r3, #27]
1088:.\main.c      ****                       comas1=0;									
 4317              		.loc 1 1088 0
 4318 0aca 894B     		ldr	r3, .L699+28
 4319 0acc 0022     		movs	r2, #0
 4320 0ace 1A70     		strb	r2, [r3]
1089:.\main.c      ****                       set_imagen(1,13); 
 4321              		.loc 1 1089 0
 4322 0ad0 0120     		movs	r0, #1
 4323 0ad2 0D21     		movs	r1, #13
 4324 0ad4 FFF7FEFF 		bl	set_imagen
1090:.\main.c      **** 					  posx1=4;
 4325              		.loc 1 1090 0
 4326 0ad8 864B     		ldr	r3, .L699+32
 4327 0ada 0422     		movs	r2, #4
 4328 0adc 1A80     		strh	r2, [r3]	@ movhi
1091:.\main.c      **** 					  posy1=3;
 4329              		.loc 1 1091 0
 4330 0ade 864B     		ldr	r3, .L699+36
 4331 0ae0 0322     		movs	r2, #3
 4332 0ae2 1A80     		strh	r2, [r3]	@ movhi
1092:.\main.c      **** 					  sizeletra1=1;					
 4333              		.loc 1 1092 0
 4334 0ae4 854B     		ldr	r3, .L699+40
 4335 0ae6 0122     		movs	r2, #1
 4336 0ae8 1A80     		strh	r2, [r3]	@ movhi
1093:.\main.c      **** 					  write_LCD(1,'L', 3, 4, 1);
 4337              		.loc 1 1093 0
 4338 0aea 0123     		movs	r3, #1
 4339 0aec 0093     		str	r3, [sp]
 4340 0aee 0120     		movs	r0, #1
 4341 0af0 4C21     		movs	r1, #76
 4342 0af2 0322     		movs	r2, #3
 4343 0af4 0423     		movs	r3, #4
 4344 0af6 FFF7FEFF 		bl	write_LCD
1094:.\main.c      ****                       flujo_LCD1=12; 
 4345              		.loc 1 1094 0
 4346 0afa 814B     		ldr	r3, .L699+44
 4347 0afc 0C22     		movs	r2, #12
 4348 0afe 1A70     		strb	r2, [r3]
1095:.\main.c      ****                     }
1096:.\main.c      ****                     break;
 4349              		.loc 1 1096 0
 4350 0b00 7EE0     		b	.L205
 4351              	.L221:
 4352 0b02 7DE0     		b	.L205
 4353              	.L210:
1097:.\main.c      ****                     
1098:.\main.c      ****                     case 0x43:  								//Full 
1099:.\main.c      ****                     if(seleccion_pos == 1){
 4354              		.loc 1 1099 0
 4355 0b04 734B     		ldr	r3, .L699
 4356 0b06 1B78     		ldrb	r3, [r3]
 4357 0b08 DBB2     		uxtb	r3, r3
 4358 0b0a 012B     		cmp	r3, #1
ARM GAS  C:\Users\RECEPC~1\AppData\Local\Temp\ccIpe7td.s 			page 98


 4359 0b0c 32D1     		bne	.L224
1100:.\main.c      **** 					  for(x=0;x<=7;x++){
 4360              		.loc 1 1100 0
 4361 0b0e 0023     		movs	r3, #0
 4362 0b10 87F82F30 		strb	r3, [r7, #47]
 4363 0b14 0AE0     		b	.L225
 4364              	.L226:
1101:.\main.c      **** 					 	rventa1.preset[x]=0;
 4365              		.loc 1 1101 0 discriminator 3
 4366 0b16 97F82F30 		ldrb	r3, [r7, #47]	@ zero_extendqisi2
 4367 0b1a 6F4A     		ldr	r2, .L699+4
 4368 0b1c 1344     		add	r3, r3, r2
 4369 0b1e 0022     		movs	r2, #0
 4370 0b20 DA76     		strb	r2, [r3, #27]
1100:.\main.c      **** 					  for(x=0;x<=7;x++){
 4371              		.loc 1 1100 0 discriminator 3
 4372 0b22 97F82F30 		ldrb	r3, [r7, #47]	@ zero_extendqisi2
 4373 0b26 0133     		adds	r3, r3, #1
 4374 0b28 87F82F30 		strb	r3, [r7, #47]
 4375              	.L225:
1100:.\main.c      **** 					  for(x=0;x<=7;x++){
 4376              		.loc 1 1100 0 is_stmt 0 discriminator 1
 4377 0b2c 97F82F30 		ldrb	r3, [r7, #47]	@ zero_extendqisi2
 4378 0b30 072B     		cmp	r3, #7
 4379 0b32 F0D9     		bls	.L226
1102:.\main.c      **** 					  }
1103:.\main.c      ****                       rventa1.preset[0]=3;					
 4380              		.loc 1 1103 0 is_stmt 1
 4381 0b34 684B     		ldr	r3, .L699+4
 4382 0b36 0322     		movs	r2, #3
 4383 0b38 DA76     		strb	r2, [r3, #27]
1104:.\main.c      **** 					  for(x=5;x<=7;x++){
 4384              		.loc 1 1104 0
 4385 0b3a 0523     		movs	r3, #5
 4386 0b3c 87F82F30 		strb	r3, [r7, #47]
 4387 0b40 0AE0     		b	.L227
 4388              	.L228:
1105:.\main.c      **** 						rventa1.preset[x]=9;		
 4389              		.loc 1 1105 0 discriminator 3
 4390 0b42 97F82F30 		ldrb	r3, [r7, #47]	@ zero_extendqisi2
 4391 0b46 644A     		ldr	r2, .L699+4
 4392 0b48 1344     		add	r3, r3, r2
 4393 0b4a 0922     		movs	r2, #9
 4394 0b4c DA76     		strb	r2, [r3, #27]
1104:.\main.c      **** 					  for(x=5;x<=7;x++){
 4395              		.loc 1 1104 0 discriminator 3
 4396 0b4e 97F82F30 		ldrb	r3, [r7, #47]	@ zero_extendqisi2
 4397 0b52 0133     		adds	r3, r3, #1
 4398 0b54 87F82F30 		strb	r3, [r7, #47]
 4399              	.L227:
1104:.\main.c      **** 					  for(x=5;x<=7;x++){
 4400              		.loc 1 1104 0 is_stmt 0 discriminator 1
 4401 0b58 97F82F30 		ldrb	r3, [r7, #47]	@ zero_extendqisi2
 4402 0b5c 072B     		cmp	r3, #7
 4403 0b5e F0D9     		bls	.L228
1106:.\main.c      **** 					  }								                                     
1107:.\main.c      **** 		              set_imagen(1,7);
ARM GAS  C:\Users\RECEPC~1\AppData\Local\Temp\ccIpe7td.s 			page 99


 4404              		.loc 1 1107 0 is_stmt 1
 4405 0b60 0120     		movs	r0, #1
 4406 0b62 0721     		movs	r1, #7
 4407 0b64 FFF7FEFF 		bl	set_imagen
1108:.\main.c      **** 					  lado1.estado=espera;
 4408              		.loc 1 1108 0
 4409 0b68 674B     		ldr	r3, .L699+52
 4410 0b6a 0222     		movs	r2, #2
 4411 0b6c 5A70     		strb	r2, [r3, #1]
1109:.\main.c      ****                       flujo_LCD1 = 6;  
 4412              		.loc 1 1109 0
 4413 0b6e 644B     		ldr	r3, .L699+44
 4414 0b70 0622     		movs	r2, #6
 4415 0b72 1A70     		strb	r2, [r3]
 4416              	.L224:
1110:.\main.c      ****                     }
1111:.\main.c      ****                     if(seleccion_pos == 2){
 4417              		.loc 1 1111 0
 4418 0b74 574B     		ldr	r3, .L699
 4419 0b76 1B78     		ldrb	r3, [r3]
 4420 0b78 DBB2     		uxtb	r3, r3
 4421 0b7a 022B     		cmp	r3, #2
 4422 0b7c 33D1     		bne	.L229
1112:.\main.c      **** 					  for(x=0;x<=7;x++){
 4423              		.loc 1 1112 0
 4424 0b7e 0023     		movs	r3, #0
 4425 0b80 87F82F30 		strb	r3, [r7, #47]
 4426 0b84 0AE0     		b	.L230
 4427              	.L231:
1113:.\main.c      **** 					 	rventa2.preset[x]=0;
 4428              		.loc 1 1113 0 discriminator 3
 4429 0b86 97F82F30 		ldrb	r3, [r7, #47]	@ zero_extendqisi2
 4430 0b8a 5E4A     		ldr	r2, .L699+48
 4431 0b8c 1344     		add	r3, r3, r2
 4432 0b8e 0022     		movs	r2, #0
 4433 0b90 DA76     		strb	r2, [r3, #27]
1112:.\main.c      **** 					  for(x=0;x<=7;x++){
 4434              		.loc 1 1112 0 discriminator 3
 4435 0b92 97F82F30 		ldrb	r3, [r7, #47]	@ zero_extendqisi2
 4436 0b96 0133     		adds	r3, r3, #1
 4437 0b98 87F82F30 		strb	r3, [r7, #47]
 4438              	.L230:
1112:.\main.c      **** 					  for(x=0;x<=7;x++){
 4439              		.loc 1 1112 0 is_stmt 0 discriminator 1
 4440 0b9c 97F82F30 		ldrb	r3, [r7, #47]	@ zero_extendqisi2
 4441 0ba0 072B     		cmp	r3, #7
 4442 0ba2 F0D9     		bls	.L231
1114:.\main.c      **** 					  }
1115:.\main.c      ****                       rventa1.preset[0]=3;					
 4443              		.loc 1 1115 0 is_stmt 1
 4444 0ba4 4C4B     		ldr	r3, .L699+4
 4445 0ba6 0322     		movs	r2, #3
 4446 0ba8 DA76     		strb	r2, [r3, #27]
1116:.\main.c      **** 					  for(x=5;x<=7;x++){
 4447              		.loc 1 1116 0
 4448 0baa 0523     		movs	r3, #5
 4449 0bac 87F82F30 		strb	r3, [r7, #47]
ARM GAS  C:\Users\RECEPC~1\AppData\Local\Temp\ccIpe7td.s 			page 100


 4450 0bb0 0AE0     		b	.L232
 4451              	.L233:
1117:.\main.c      **** 						rventa2.preset[x]=9;		
 4452              		.loc 1 1117 0 discriminator 3
 4453 0bb2 97F82F30 		ldrb	r3, [r7, #47]	@ zero_extendqisi2
 4454 0bb6 534A     		ldr	r2, .L699+48
 4455 0bb8 1344     		add	r3, r3, r2
 4456 0bba 0922     		movs	r2, #9
 4457 0bbc DA76     		strb	r2, [r3, #27]
1116:.\main.c      **** 					  for(x=5;x<=7;x++){
 4458              		.loc 1 1116 0 discriminator 3
 4459 0bbe 97F82F30 		ldrb	r3, [r7, #47]	@ zero_extendqisi2
 4460 0bc2 0133     		adds	r3, r3, #1
 4461 0bc4 87F82F30 		strb	r3, [r7, #47]
 4462              	.L232:
1116:.\main.c      **** 					  for(x=5;x<=7;x++){
 4463              		.loc 1 1116 0 is_stmt 0 discriminator 1
 4464 0bc8 97F82F30 		ldrb	r3, [r7, #47]	@ zero_extendqisi2
 4465 0bcc 072B     		cmp	r3, #7
 4466 0bce F0D9     		bls	.L233
1118:.\main.c      **** 					  }								                                     
1119:.\main.c      **** 		              set_imagen(1,7);
 4467              		.loc 1 1119 0 is_stmt 1
 4468 0bd0 0120     		movs	r0, #1
 4469 0bd2 0721     		movs	r1, #7
 4470 0bd4 FFF7FEFF 		bl	set_imagen
1120:.\main.c      **** 					  lado2.estado=espera;
 4471              		.loc 1 1120 0
 4472 0bd8 4C4B     		ldr	r3, .L699+56
 4473 0bda 0222     		movs	r2, #2
 4474 0bdc 5A70     		strb	r2, [r3, #1]
1121:.\main.c      ****                       flujo_LCD1 = 6;  
 4475              		.loc 1 1121 0
 4476 0bde 484B     		ldr	r3, .L699+44
 4477 0be0 0622     		movs	r2, #6
 4478 0be2 1A70     		strb	r2, [r3]
1122:.\main.c      ****                     }
1123:.\main.c      ****                     break;
 4479              		.loc 1 1123 0
 4480 0be4 0CE0     		b	.L205
 4481              	.L229:
 4482 0be6 0BE0     		b	.L205
 4483              	.L206:
1124:.\main.c      ****                     
1125:.\main.c      ****                     case 0x3B:                                //Cancel                     
1126:.\main.c      ****                       flujo_LCD1=0;
 4484              		.loc 1 1126 0
 4485 0be8 454B     		ldr	r3, .L699+44
 4486 0bea 0022     		movs	r2, #0
 4487 0bec 1A70     		strb	r2, [r3]
1127:.\main.c      ****                     break;     
 4488              		.loc 1 1127 0
 4489 0bee 07E0     		b	.L205
 4490              	.L211:
1128:.\main.c      ****                     
1129:.\main.c      ****                     case 0x7E:                                //Símbolo de inicio                 
1130:.\main.c      ****                         set_imagen(1,74);	
ARM GAS  C:\Users\RECEPC~1\AppData\Local\Temp\ccIpe7td.s 			page 101


 4491              		.loc 1 1130 0
 4492 0bf0 0120     		movs	r0, #1
 4493 0bf2 4A21     		movs	r1, #74
 4494 0bf4 FFF7FEFF 		bl	set_imagen
1131:.\main.c      ****                         flujo_LCD1=0;
 4495              		.loc 1 1131 0
 4496 0bf8 414B     		ldr	r3, .L699+44
 4497 0bfa 0022     		movs	r2, #0
 4498 0bfc 1A70     		strb	r2, [r3]
1132:.\main.c      ****                     break;
 4499              		.loc 1 1132 0
 4500 0bfe 00BF     		nop
 4501              	.L205:
1133:.\main.c      ****                 }
1134:.\main.c      ****             }
1135:.\main.c      ****             CyDelay(100);            
 4502              		.loc 1 1135 0
 4503 0c00 6420     		movs	r0, #100
 4504 0c02 FFF7FEFF 		bl	CyDelay
1136:.\main.c      ****             LCD_1_ClearRxBuffer();
 4505              		.loc 1 1136 0
 4506 0c06 FFF7FEFF 		bl	LCD_1_ClearRxBuffer
1137:.\main.c      ****          } 
1138:.\main.c      ****         break;
 4507              		.loc 1 1138 0
 4508 0c0a 04F009B9 		b	.L131
 4509              	.L204:
 4510              		.loc 1 1138 0 is_stmt 0 discriminator 5
 4511 0c0e 04F007B9 		b	.L131
 4512              	.L139:
1139:.\main.c      ****         
1140:.\main.c      ****         case 5:
1141:.\main.c      ****         if(seleccion_pos == 1){
 4513              		.loc 1 1141 0 is_stmt 1
 4514 0c12 304B     		ldr	r3, .L699
 4515 0c14 1B78     		ldrb	r3, [r3]
 4516 0c16 DBB2     		uxtb	r3, r3
 4517 0c18 012B     		cmp	r3, #1
 4518 0c1a 40F08280 		bne	.L234
1142:.\main.c      ****     		CyDelay(50);
 4519              		.loc 1 1142 0
 4520 0c1e 3220     		movs	r0, #50
 4521 0c20 FFF7FEFF 		bl	CyDelay
1143:.\main.c      ****             if(LCD_1_GetRxBufferSize()==8){
 4522              		.loc 1 1143 0
 4523 0c24 FFF7FEFF 		bl	LCD_1_GetRxBufferSize
 4524 0c28 0346     		mov	r3, r0
 4525 0c2a 082B     		cmp	r3, #8
 4526 0c2c 1AD1     		bne	.L235
1144:.\main.c      ****                 if((LCD_1_rxBuffer[0]==0xAA) && (LCD_1_rxBuffer[6]==0xC3) && (LCD_1_rxBuffer[7]==0x
 4527              		.loc 1 1144 0
 4528 0c2e 384B     		ldr	r3, .L699+60
 4529 0c30 1B78     		ldrb	r3, [r3]
 4530 0c32 DBB2     		uxtb	r3, r3
 4531 0c34 AA2B     		cmp	r3, #170
 4532 0c36 11D1     		bne	.L236
 4533              		.loc 1 1144 0 is_stmt 0 discriminator 1
ARM GAS  C:\Users\RECEPC~1\AppData\Local\Temp\ccIpe7td.s 			page 102


 4534 0c38 354B     		ldr	r3, .L699+60
 4535 0c3a 9B79     		ldrb	r3, [r3, #6]
 4536 0c3c DBB2     		uxtb	r3, r3
 4537 0c3e C32B     		cmp	r3, #195
 4538 0c40 0CD1     		bne	.L236
 4539              		.loc 1 1144 0 discriminator 2
 4540 0c42 334B     		ldr	r3, .L699+60
 4541 0c44 DB79     		ldrb	r3, [r3, #7]
 4542 0c46 DBB2     		uxtb	r3, r3
 4543 0c48 3C2B     		cmp	r3, #60
 4544 0c4a 07D1     		bne	.L236
1145:.\main.c      ****                     if(LCD_1_rxBuffer[3]==0x7E){					//Cancel
 4545              		.loc 1 1145 0 is_stmt 1
 4546 0c4c 304B     		ldr	r3, .L699+60
 4547 0c4e DB78     		ldrb	r3, [r3, #3]
 4548 0c50 DBB2     		uxtb	r3, r3
 4549 0c52 7E2B     		cmp	r3, #126
 4550 0c54 02D1     		bne	.L236
1146:.\main.c      ****     					flujo_LCD1=0;
 4551              		.loc 1 1146 0
 4552 0c56 2A4B     		ldr	r3, .L699+44
 4553 0c58 0022     		movs	r2, #0
 4554 0c5a 1A70     		strb	r2, [r3]
 4555              	.L236:
1147:.\main.c      ****                     }												
1148:.\main.c      ****     			}                       
1149:.\main.c      ****                 LCD_1_ClearRxBuffer();
 4556              		.loc 1 1149 0
 4557 0c5c FFF7FEFF 		bl	LCD_1_ClearRxBuffer
1150:.\main.c      ****     			break;
 4558              		.loc 1 1150 0
 4559 0c60 04F0DEB8 		b	.L131
 4560              	.L235:
1151:.\main.c      ****     		}
1152:.\main.c      ****             x=get_estado(lado1.dir);
 4561              		.loc 1 1152 0
 4562 0c64 284B     		ldr	r3, .L699+52
 4563 0c66 1B78     		ldrb	r3, [r3]
 4564 0c68 DBB2     		uxtb	r3, r3
 4565 0c6a 1846     		mov	r0, r3
 4566 0c6c FFF7FEFF 		bl	get_estado
 4567 0c70 0346     		mov	r3, r0
 4568 0c72 87F82F30 		strb	r3, [r7, #47]
1153:.\main.c      ****             if(x==7){								//Espera a que este en listo el equipo	
 4569              		.loc 1 1153 0
 4570 0c76 97F82F30 		ldrb	r3, [r7, #47]	@ zero_extendqisi2
 4571 0c7a 072B     		cmp	r3, #7
 4572 0c7c 06D1     		bne	.L237
1154:.\main.c      ****     		    flujo_LCD1=6;
 4573              		.loc 1 1154 0
 4574 0c7e 204B     		ldr	r3, .L699+44
 4575 0c80 0622     		movs	r2, #6
 4576 0c82 1A70     		strb	r2, [r3]
1155:.\main.c      ****                 CyDelay(50);
 4577              		.loc 1 1155 0
 4578 0c84 3220     		movs	r0, #50
 4579 0c86 FFF7FEFF 		bl	CyDelay
ARM GAS  C:\Users\RECEPC~1\AppData\Local\Temp\ccIpe7td.s 			page 103


 4580 0c8a 4AE0     		b	.L234
 4581              	.L237:
1156:.\main.c      ****             }
1157:.\main.c      ****             else if(x==0){
 4582              		.loc 1 1157 0
 4583 0c8c 97F82F30 		ldrb	r3, [r7, #47]	@ zero_extendqisi2
 4584 0c90 002B     		cmp	r3, #0
 4585 0c92 0ED1     		bne	.L238
1158:.\main.c      ****     			CyDelay(50);
 4586              		.loc 1 1158 0
 4587 0c94 3220     		movs	r0, #50
 4588 0c96 FFF7FEFF 		bl	CyDelay
1159:.\main.c      ****     			programar(lado1.dir,1,aux,2);
 4589              		.loc 1 1159 0
 4590 0c9a 1B4B     		ldr	r3, .L699+52
 4591 0c9c 1B78     		ldrb	r3, [r3]
 4592 0c9e DAB2     		uxtb	r2, r3
 4593 0ca0 07F11403 		add	r3, r7, #20
 4594 0ca4 1046     		mov	r0, r2
 4595 0ca6 0121     		movs	r1, #1
 4596 0ca8 1A46     		mov	r2, r3
 4597 0caa 0223     		movs	r3, #2
 4598 0cac FFF7FEFF 		bl	programar
 4599 0cb0 37E0     		b	.L234
 4600              	.L238:
1160:.\main.c      ****             }
1161:.\main.c      ****             else if(x==0x0C){
 4601              		.loc 1 1161 0
 4602 0cb2 97F82F30 		ldrb	r3, [r7, #47]	@ zero_extendqisi2
 4603 0cb6 0C2B     		cmp	r3, #12
 4604 0cb8 04D1     		bne	.L239
1162:.\main.c      ****                 error_op(1,85);
 4605              		.loc 1 1162 0
 4606 0cba 0120     		movs	r0, #1
 4607 0cbc 5521     		movs	r1, #85
 4608 0cbe FFF7FEFF 		bl	error_op
 4609 0cc2 2EE0     		b	.L234
 4610              	.L239:
1163:.\main.c      ****             }
1164:.\main.c      ****     		else if(x==0x0B){                   //Termino venta
 4611              		.loc 1 1164 0
 4612 0cc4 97F82F30 		ldrb	r3, [r7, #47]	@ zero_extendqisi2
 4613 0cc8 0B2B     		cmp	r3, #11
 4614 0cca 23D1     		bne	.L240
1165:.\main.c      ****     			flujo_LCD1=13;
 4615              		.loc 1 1165 0
 4616 0ccc 0C4B     		ldr	r3, .L699+44
 4617 0cce 0D22     		movs	r2, #13
 4618 0cd0 1A70     		strb	r2, [r3]
 4619 0cd2 26E0     		b	.L234
 4620              	.L700:
 4621              		.align	2
 4622              	.L699:
 4623 0cd4 00000000 		.word	seleccion_pos
 4624 0cd8 00000000 		.word	rventa1
 4625 0cdc 00000000 		.word	count_teclas1
 4626 0ce0 00000000 		.word	id_teclado1
ARM GAS  C:\Users\RECEPC~1\AppData\Local\Temp\ccIpe7td.s 			page 104


 4627 0ce4 00000000 		.word	id_coma1
 4628 0ce8 00000000 		.word	version
 4629 0cec 00000000 		.word	teclas1
 4630 0cf0 00000000 		.word	comas1
 4631 0cf4 00000000 		.word	posx1
 4632 0cf8 00000000 		.word	posy1
 4633 0cfc 00000000 		.word	sizeletra1
 4634 0d00 00000000 		.word	flujo_LCD1
 4635 0d04 00000000 		.word	rventa2
 4636 0d08 00000000 		.word	lado1
 4637 0d0c 00000000 		.word	lado2
 4638 0d10 00000000 		.word	LCD_1_rxBuffer
 4639              	.L240:
1166:.\main.c      ****             }						
1167:.\main.c      ****     		else if(x==0x0A){					//Termino venta
 4640              		.loc 1 1167 0
 4641 0d14 97F82F30 		ldrb	r3, [r7, #47]	@ zero_extendqisi2
 4642 0d18 0A2B     		cmp	r3, #10
 4643 0d1a 02D1     		bne	.L234
1168:.\main.c      ****     			flujo_LCD1=13;
 4644              		.loc 1 1168 0
 4645 0d1c C44B     		ldr	r3, .L701
 4646 0d1e 0D22     		movs	r2, #13
 4647 0d20 1A70     		strb	r2, [r3]
 4648              	.L234:
1169:.\main.c      ****     		}  
1170:.\main.c      ****         }
1171:.\main.c      ****         if(seleccion_pos == 2){
 4649              		.loc 1 1171 0
 4650 0d22 C44B     		ldr	r3, .L701+4
 4651 0d24 1B78     		ldrb	r3, [r3]
 4652 0d26 DBB2     		uxtb	r3, r3
 4653 0d28 022B     		cmp	r3, #2
 4654 0d2a 63D1     		bne	.L241
1172:.\main.c      ****     		CyDelay(50);
 4655              		.loc 1 1172 0
 4656 0d2c 3220     		movs	r0, #50
 4657 0d2e FFF7FEFF 		bl	CyDelay
1173:.\main.c      ****             if(LCD_1_GetRxBufferSize()==8){
 4658              		.loc 1 1173 0
 4659 0d32 FFF7FEFF 		bl	LCD_1_GetRxBufferSize
 4660 0d36 0346     		mov	r3, r0
 4661 0d38 082B     		cmp	r3, #8
 4662 0d3a 1AD1     		bne	.L242
1174:.\main.c      ****                 if((LCD_1_rxBuffer[0]==0xAA) && (LCD_1_rxBuffer[6]==0xC3) && (LCD_1_rxBuffer[7]==0x
 4663              		.loc 1 1174 0
 4664 0d3c BE4B     		ldr	r3, .L701+8
 4665 0d3e 1B78     		ldrb	r3, [r3]
 4666 0d40 DBB2     		uxtb	r3, r3
 4667 0d42 AA2B     		cmp	r3, #170
 4668 0d44 11D1     		bne	.L243
 4669              		.loc 1 1174 0 is_stmt 0 discriminator 1
 4670 0d46 BC4B     		ldr	r3, .L701+8
 4671 0d48 9B79     		ldrb	r3, [r3, #6]
 4672 0d4a DBB2     		uxtb	r3, r3
 4673 0d4c C32B     		cmp	r3, #195
 4674 0d4e 0CD1     		bne	.L243
ARM GAS  C:\Users\RECEPC~1\AppData\Local\Temp\ccIpe7td.s 			page 105


 4675              		.loc 1 1174 0 discriminator 2
 4676 0d50 B94B     		ldr	r3, .L701+8
 4677 0d52 DB79     		ldrb	r3, [r3, #7]
 4678 0d54 DBB2     		uxtb	r3, r3
 4679 0d56 3C2B     		cmp	r3, #60
 4680 0d58 07D1     		bne	.L243
1175:.\main.c      ****                     if(LCD_1_rxBuffer[3]==0x7E){					//Cancel
 4681              		.loc 1 1175 0 is_stmt 1
 4682 0d5a B74B     		ldr	r3, .L701+8
 4683 0d5c DB78     		ldrb	r3, [r3, #3]
 4684 0d5e DBB2     		uxtb	r3, r3
 4685 0d60 7E2B     		cmp	r3, #126
 4686 0d62 02D1     		bne	.L243
1176:.\main.c      ****     					flujo_LCD1=0;
 4687              		.loc 1 1176 0
 4688 0d64 B24B     		ldr	r3, .L701
 4689 0d66 0022     		movs	r2, #0
 4690 0d68 1A70     		strb	r2, [r3]
 4691              	.L243:
1177:.\main.c      ****                     }												
1178:.\main.c      ****     			}                       
1179:.\main.c      ****                 LCD_1_ClearRxBuffer();
 4692              		.loc 1 1179 0
 4693 0d6a FFF7FEFF 		bl	LCD_1_ClearRxBuffer
1180:.\main.c      ****     			break;
 4694              		.loc 1 1180 0
 4695 0d6e 04F057B8 		b	.L131
 4696              	.L242:
1181:.\main.c      ****     		}
1182:.\main.c      ****             x=get_estado(lado2.dir);
 4697              		.loc 1 1182 0
 4698 0d72 B24B     		ldr	r3, .L701+12
 4699 0d74 1B78     		ldrb	r3, [r3]
 4700 0d76 DBB2     		uxtb	r3, r3
 4701 0d78 1846     		mov	r0, r3
 4702 0d7a FFF7FEFF 		bl	get_estado
 4703 0d7e 0346     		mov	r3, r0
 4704 0d80 87F82F30 		strb	r3, [r7, #47]
1183:.\main.c      ****             if(x==7){								//Espera a que este en listo el equipo	
 4705              		.loc 1 1183 0
 4706 0d84 97F82F30 		ldrb	r3, [r7, #47]	@ zero_extendqisi2
 4707 0d88 072B     		cmp	r3, #7
 4708 0d8a 06D1     		bne	.L244
1184:.\main.c      ****     		    flujo_LCD1=6;
 4709              		.loc 1 1184 0
 4710 0d8c A84B     		ldr	r3, .L701
 4711 0d8e 0622     		movs	r2, #6
 4712 0d90 1A70     		strb	r2, [r3]
1185:.\main.c      ****                 CyDelay(50);
 4713              		.loc 1 1185 0
 4714 0d92 3220     		movs	r0, #50
 4715 0d94 FFF7FEFF 		bl	CyDelay
 4716 0d98 2CE0     		b	.L241
 4717              	.L244:
1186:.\main.c      ****             }
1187:.\main.c      ****             else if(x==0){
 4718              		.loc 1 1187 0
ARM GAS  C:\Users\RECEPC~1\AppData\Local\Temp\ccIpe7td.s 			page 106


 4719 0d9a 97F82F30 		ldrb	r3, [r7, #47]	@ zero_extendqisi2
 4720 0d9e 002B     		cmp	r3, #0
 4721 0da0 0ED1     		bne	.L245
1188:.\main.c      ****     			CyDelay(50);
 4722              		.loc 1 1188 0
 4723 0da2 3220     		movs	r0, #50
 4724 0da4 FFF7FEFF 		bl	CyDelay
1189:.\main.c      ****     			programar(lado2.dir,1,aux,2);
 4725              		.loc 1 1189 0
 4726 0da8 A44B     		ldr	r3, .L701+12
 4727 0daa 1B78     		ldrb	r3, [r3]
 4728 0dac DAB2     		uxtb	r2, r3
 4729 0dae 07F11403 		add	r3, r7, #20
 4730 0db2 1046     		mov	r0, r2
 4731 0db4 0121     		movs	r1, #1
 4732 0db6 1A46     		mov	r2, r3
 4733 0db8 0223     		movs	r3, #2
 4734 0dba FFF7FEFF 		bl	programar
 4735 0dbe 19E0     		b	.L241
 4736              	.L245:
1190:.\main.c      ****             }
1191:.\main.c      ****             else if(x==0x0C){
 4737              		.loc 1 1191 0
 4738 0dc0 97F82F30 		ldrb	r3, [r7, #47]	@ zero_extendqisi2
 4739 0dc4 0C2B     		cmp	r3, #12
 4740 0dc6 04D1     		bne	.L246
1192:.\main.c      ****                 error_op(1,85);
 4741              		.loc 1 1192 0
 4742 0dc8 0120     		movs	r0, #1
 4743 0dca 5521     		movs	r1, #85
 4744 0dcc FFF7FEFF 		bl	error_op
 4745 0dd0 10E0     		b	.L241
 4746              	.L246:
1193:.\main.c      ****             }
1194:.\main.c      ****     		else if(x==0x0B){                   //Termino venta
 4747              		.loc 1 1194 0
 4748 0dd2 97F82F30 		ldrb	r3, [r7, #47]	@ zero_extendqisi2
 4749 0dd6 0B2B     		cmp	r3, #11
 4750 0dd8 03D1     		bne	.L247
1195:.\main.c      ****     			flujo_LCD1=13;
 4751              		.loc 1 1195 0
 4752 0dda 954B     		ldr	r3, .L701
 4753 0ddc 0D22     		movs	r2, #13
 4754 0dde 1A70     		strb	r2, [r3]
 4755 0de0 08E0     		b	.L241
 4756              	.L247:
1196:.\main.c      ****             }						
1197:.\main.c      ****     		else if(x==0x0A){					//Termino venta
 4757              		.loc 1 1197 0
 4758 0de2 97F82F30 		ldrb	r3, [r7, #47]	@ zero_extendqisi2
 4759 0de6 0A2B     		cmp	r3, #10
 4760 0de8 04D1     		bne	.L241
1198:.\main.c      ****     			flujo_LCD1=13;
 4761              		.loc 1 1198 0
 4762 0dea 914B     		ldr	r3, .L701
 4763 0dec 0D22     		movs	r2, #13
 4764 0dee 1A70     		strb	r2, [r3]
ARM GAS  C:\Users\RECEPC~1\AppData\Local\Temp\ccIpe7td.s 			page 107


1199:.\main.c      ****     		}  
1200:.\main.c      ****         }
1201:.\main.c      ****         break;
 4765              		.loc 1 1201 0
 4766 0df0 04F016B8 		b	.L131
 4767              	.L241:
 4768              		.loc 1 1201 0 is_stmt 0 discriminator 6
 4769 0df4 04F014B8 		b	.L131
 4770              	.L140:
1202:.\main.c      ****         
1203:.\main.c      ****         case 6:
1204:.\main.c      ****         if(seleccion_pos == 1){
 4771              		.loc 1 1204 0 is_stmt 1
 4772 0df8 8E4B     		ldr	r3, .L701+4
 4773 0dfa 1B78     		ldrb	r3, [r3]
 4774 0dfc DBB2     		uxtb	r3, r3
 4775 0dfe 012B     		cmp	r3, #1
 4776 0e00 29D1     		bne	.L248
1205:.\main.c      ****     		CyDelay(10);
 4777              		.loc 1 1205 0
 4778 0e02 0A20     		movs	r0, #10
 4779 0e04 FFF7FEFF 		bl	CyDelay
1206:.\main.c      ****     		rventa1.manguera=estado_ex(lado1.dir);
 4780              		.loc 1 1206 0
 4781 0e08 8D4B     		ldr	r3, .L701+16
 4782 0e0a 1B78     		ldrb	r3, [r3]
 4783 0e0c DBB2     		uxtb	r3, r3
 4784 0e0e 1846     		mov	r0, r3
 4785 0e10 FFF7FEFF 		bl	estado_ex
 4786 0e14 0346     		mov	r3, r0
 4787 0e16 1A46     		mov	r2, r3
 4788 0e18 8A4B     		ldr	r3, .L701+20
 4789 0e1a 9A76     		strb	r2, [r3, #26]
1207:.\main.c      ****     		if(rventa1.manguera!=0){			 
 4790              		.loc 1 1207 0
 4791 0e1c 894B     		ldr	r3, .L701+20
 4792 0e1e 9B7E     		ldrb	r3, [r3, #26]	@ zero_extendqisi2
 4793 0e20 002B     		cmp	r3, #0
 4794 0e22 18D0     		beq	.L248
1208:.\main.c      ****                 CyDelay(20);            
 4795              		.loc 1 1208 0
 4796 0e24 1420     		movs	r0, #20
 4797 0e26 FFF7FEFF 		bl	CyDelay
1209:.\main.c      ****     		    if(get_estado(lado1.dir)==7){     			    
 4798              		.loc 1 1209 0
 4799 0e2a 854B     		ldr	r3, .L701+16
 4800 0e2c 1B78     		ldrb	r3, [r3]
 4801 0e2e DBB2     		uxtb	r3, r3
 4802 0e30 1846     		mov	r0, r3
 4803 0e32 FFF7FEFF 		bl	get_estado
 4804 0e36 0346     		mov	r3, r0
 4805 0e38 072B     		cmp	r3, #7
 4806 0e3a 0CD1     		bne	.L248
1210:.\main.c      ****                     timeout_autorizacion=0;
 4807              		.loc 1 1210 0
 4808 0e3c 824B     		ldr	r3, .L701+24
 4809 0e3e 0022     		movs	r2, #0
ARM GAS  C:\Users\RECEPC~1\AppData\Local\Temp\ccIpe7td.s 			page 108


 4810 0e40 1A80     		strh	r2, [r3]	@ movhi
1211:.\main.c      ****     			    lado1.estado=listo;
 4811              		.loc 1 1211 0
 4812 0e42 7F4B     		ldr	r3, .L701+16
 4813 0e44 0422     		movs	r2, #4
 4814 0e46 5A70     		strb	r2, [r3, #1]
1212:.\main.c      ****                     set_imagen(1,57);                                
 4815              		.loc 1 1212 0
 4816 0e48 0120     		movs	r0, #1
 4817 0e4a 3921     		movs	r1, #57
 4818 0e4c FFF7FEFF 		bl	set_imagen
1213:.\main.c      ****                     flujo_LCD1 = 9;
 4819              		.loc 1 1213 0
 4820 0e50 774B     		ldr	r3, .L701
 4821 0e52 0922     		movs	r2, #9
 4822 0e54 1A70     		strb	r2, [r3]
 4823              	.L248:
1214:.\main.c      ****     		    }
1215:.\main.c      ****     		}
1216:.\main.c      ****         }
1217:.\main.c      ****         if(seleccion_pos == 2){
 4824              		.loc 1 1217 0
 4825 0e56 774B     		ldr	r3, .L701+4
 4826 0e58 1B78     		ldrb	r3, [r3]
 4827 0e5a DBB2     		uxtb	r3, r3
 4828 0e5c 022B     		cmp	r3, #2
 4829 0e5e 2BD1     		bne	.L249
1218:.\main.c      ****     		CyDelay(10);
 4830              		.loc 1 1218 0
 4831 0e60 0A20     		movs	r0, #10
 4832 0e62 FFF7FEFF 		bl	CyDelay
1219:.\main.c      ****     		rventa2.manguera=estado_ex(lado2.dir);
 4833              		.loc 1 1219 0
 4834 0e66 754B     		ldr	r3, .L701+12
 4835 0e68 1B78     		ldrb	r3, [r3]
 4836 0e6a DBB2     		uxtb	r3, r3
 4837 0e6c 1846     		mov	r0, r3
 4838 0e6e FFF7FEFF 		bl	estado_ex
 4839 0e72 0346     		mov	r3, r0
 4840 0e74 1A46     		mov	r2, r3
 4841 0e76 754B     		ldr	r3, .L701+28
 4842 0e78 9A76     		strb	r2, [r3, #26]
1220:.\main.c      ****     		if(rventa2.manguera!=0){			 
 4843              		.loc 1 1220 0
 4844 0e7a 744B     		ldr	r3, .L701+28
 4845 0e7c 9B7E     		ldrb	r3, [r3, #26]	@ zero_extendqisi2
 4846 0e7e 002B     		cmp	r3, #0
 4847 0e80 1AD0     		beq	.L249
1221:.\main.c      ****                 CyDelay(20);            
 4848              		.loc 1 1221 0
 4849 0e82 1420     		movs	r0, #20
 4850 0e84 FFF7FEFF 		bl	CyDelay
1222:.\main.c      ****     		    if(get_estado(lado2.dir)==7){     			    
 4851              		.loc 1 1222 0
 4852 0e88 6C4B     		ldr	r3, .L701+12
 4853 0e8a 1B78     		ldrb	r3, [r3]
 4854 0e8c DBB2     		uxtb	r3, r3
ARM GAS  C:\Users\RECEPC~1\AppData\Local\Temp\ccIpe7td.s 			page 109


 4855 0e8e 1846     		mov	r0, r3
 4856 0e90 FFF7FEFF 		bl	get_estado
 4857 0e94 0346     		mov	r3, r0
 4858 0e96 072B     		cmp	r3, #7
 4859 0e98 0ED1     		bne	.L249
1223:.\main.c      ****                     timeout_autorizacion=0;
 4860              		.loc 1 1223 0
 4861 0e9a 6B4B     		ldr	r3, .L701+24
 4862 0e9c 0022     		movs	r2, #0
 4863 0e9e 1A80     		strh	r2, [r3]	@ movhi
1224:.\main.c      ****     			    lado2.estado=listo;
 4864              		.loc 1 1224 0
 4865 0ea0 664B     		ldr	r3, .L701+12
 4866 0ea2 0422     		movs	r2, #4
 4867 0ea4 5A70     		strb	r2, [r3, #1]
1225:.\main.c      ****                     set_imagen(1,57);                                
 4868              		.loc 1 1225 0
 4869 0ea6 0120     		movs	r0, #1
 4870 0ea8 3921     		movs	r1, #57
 4871 0eaa FFF7FEFF 		bl	set_imagen
1226:.\main.c      ****                     flujo_LCD1 = 9;
 4872              		.loc 1 1226 0
 4873 0eae 604B     		ldr	r3, .L701
 4874 0eb0 0922     		movs	r2, #9
 4875 0eb2 1A70     		strb	r2, [r3]
1227:.\main.c      ****     		    }
1228:.\main.c      ****     		}
1229:.\main.c      ****         }
1230:.\main.c      **** 		break;
 4876              		.loc 1 1230 0
 4877 0eb4 03F0B4BF 		b	.L131
 4878              	.L249:
 4879              		.loc 1 1230 0 is_stmt 0 discriminator 7
 4880 0eb8 03F0B2BF 		b	.L131
 4881              	.L141:
1231:.\main.c      ****         
1232:.\main.c      ****         case 8:        
1233:.\main.c      **** 		 CyDelay(50);
 4882              		.loc 1 1233 0 is_stmt 1
 4883 0ebc 3220     		movs	r0, #50
 4884 0ebe FFF7FEFF 		bl	CyDelay
1234:.\main.c      ****         if(seleccion_pos == 1){
 4885              		.loc 1 1234 0
 4886 0ec2 5C4B     		ldr	r3, .L701+4
 4887 0ec4 1B78     		ldrb	r3, [r3]
 4888 0ec6 DBB2     		uxtb	r3, r3
 4889 0ec8 012B     		cmp	r3, #1
 4890 0eca 40F09B80 		bne	.L250
1235:.\main.c      **** 		 switch(get_estado(lado1.dir)){
 4891              		.loc 1 1235 0
 4892 0ece 5C4B     		ldr	r3, .L701+16
 4893 0ed0 1B78     		ldrb	r3, [r3]
 4894 0ed2 DBB2     		uxtb	r3, r3
 4895 0ed4 1846     		mov	r0, r3
 4896 0ed6 FFF7FEFF 		bl	get_estado
 4897 0eda 0346     		mov	r3, r0
 4898 0edc 0A2B     		cmp	r3, #10
ARM GAS  C:\Users\RECEPC~1\AppData\Local\Temp\ccIpe7td.s 			page 110


 4899 0ede 32D0     		beq	.L251
 4900 0ee0 0B2B     		cmp	r3, #11
 4901 0ee2 02D0     		beq	.L252
 4902 0ee4 062B     		cmp	r3, #6
 4903 0ee6 59D0     		beq	.L253
 4904 0ee8 8CE0     		b	.L250
 4905              	.L252:
1236:.\main.c      **** 	         case 0x0B:                     //Termino venta
1237:.\main.c      **** 				CyDelay(100);
 4906              		.loc 1 1237 0
 4907 0eea 6420     		movs	r0, #100
 4908 0eec FFF7FEFF 		bl	CyDelay
1238:.\main.c      **** 				for(x=0;x<=8;x++){
 4909              		.loc 1 1238 0
 4910 0ef0 0023     		movs	r3, #0
 4911 0ef2 87F82F30 		strb	r3, [r7, #47]
 4912 0ef6 10E0     		b	.L254
 4913              	.L255:
1239:.\main.c      **** 					rventa1.dinero[x]=0;
 4914              		.loc 1 1239 0 discriminator 3
 4915 0ef8 97F82F30 		ldrb	r3, [r7, #47]	@ zero_extendqisi2
 4916 0efc 514A     		ldr	r2, .L701+20
 4917 0efe 1344     		add	r3, r3, r2
 4918 0f00 0022     		movs	r2, #0
 4919 0f02 DA71     		strb	r2, [r3, #7]
1240:.\main.c      **** 					rventa1.volumen[x]=0;
 4920              		.loc 1 1240 0 discriminator 3
 4921 0f04 97F82F30 		ldrb	r3, [r7, #47]	@ zero_extendqisi2
 4922 0f08 4E4A     		ldr	r2, .L701+20
 4923 0f0a 1344     		add	r3, r3, r2
 4924 0f0c 0022     		movs	r2, #0
 4925 0f0e 1A74     		strb	r2, [r3, #16]
1238:.\main.c      **** 				for(x=0;x<=8;x++){
 4926              		.loc 1 1238 0 discriminator 3
 4927 0f10 97F82F30 		ldrb	r3, [r7, #47]	@ zero_extendqisi2
 4928 0f14 0133     		adds	r3, r3, #1
 4929 0f16 87F82F30 		strb	r3, [r7, #47]
 4930              	.L254:
1238:.\main.c      **** 				for(x=0;x<=8;x++){
 4931              		.loc 1 1238 0 is_stmt 0 discriminator 1
 4932 0f1a 97F82F30 		ldrb	r3, [r7, #47]	@ zero_extendqisi2
 4933 0f1e 082B     		cmp	r3, #8
 4934 0f20 EAD9     		bls	.L255
1241:.\main.c      **** 				}					
1242:.\main.c      **** 				if(venta(lado1.dir)==1){
 4935              		.loc 1 1242 0 is_stmt 1
 4936 0f22 474B     		ldr	r3, .L701+16
 4937 0f24 1B78     		ldrb	r3, [r3]
 4938 0f26 DBB2     		uxtb	r3, r3
 4939 0f28 1846     		mov	r0, r3
 4940 0f2a FFF7FEFF 		bl	venta
 4941 0f2e 0346     		mov	r3, r0
 4942 0f30 012B     		cmp	r3, #1
 4943 0f32 07D1     		bne	.L256
1243:.\main.c      **** 					flujo_LCD1 = 13;
 4944              		.loc 1 1243 0
 4945 0f34 3E4B     		ldr	r3, .L701
ARM GAS  C:\Users\RECEPC~1\AppData\Local\Temp\ccIpe7td.s 			page 111


 4946 0f36 0D22     		movs	r2, #13
 4947 0f38 1A70     		strb	r2, [r3]
1244:.\main.c      **** 					set_imagen(1,57);
 4948              		.loc 1 1244 0
 4949 0f3a 0120     		movs	r0, #1
 4950 0f3c 3921     		movs	r1, #57
 4951 0f3e FFF7FEFF 		bl	set_imagen
1245:.\main.c      **** 				}	
1246:.\main.c      **** 			 break;	
 4952              		.loc 1 1246 0
 4953 0f42 5FE0     		b	.L250
 4954              	.L256:
 4955 0f44 5EE0     		b	.L250
 4956              	.L251:
1247:.\main.c      **** 				
1248:.\main.c      **** 	         case 0x0A:						//Termino venta
1249:.\main.c      **** 				for(x=0;x<=8;x++){
 4957              		.loc 1 1249 0
 4958 0f46 0023     		movs	r3, #0
 4959 0f48 87F82F30 		strb	r3, [r7, #47]
 4960 0f4c 10E0     		b	.L257
 4961              	.L258:
1250:.\main.c      **** 					rventa1.dinero[x]=0;
 4962              		.loc 1 1250 0 discriminator 3
 4963 0f4e 97F82F30 		ldrb	r3, [r7, #47]	@ zero_extendqisi2
 4964 0f52 3C4A     		ldr	r2, .L701+20
 4965 0f54 1344     		add	r3, r3, r2
 4966 0f56 0022     		movs	r2, #0
 4967 0f58 DA71     		strb	r2, [r3, #7]
1251:.\main.c      **** 					rventa1.volumen[x]=0;
 4968              		.loc 1 1251 0 discriminator 3
 4969 0f5a 97F82F30 		ldrb	r3, [r7, #47]	@ zero_extendqisi2
 4970 0f5e 394A     		ldr	r2, .L701+20
 4971 0f60 1344     		add	r3, r3, r2
 4972 0f62 0022     		movs	r2, #0
 4973 0f64 1A74     		strb	r2, [r3, #16]
1249:.\main.c      **** 					rventa1.dinero[x]=0;
 4974              		.loc 1 1249 0 discriminator 3
 4975 0f66 97F82F30 		ldrb	r3, [r7, #47]	@ zero_extendqisi2
 4976 0f6a 0133     		adds	r3, r3, #1
 4977 0f6c 87F82F30 		strb	r3, [r7, #47]
 4978              	.L257:
1249:.\main.c      **** 					rventa1.dinero[x]=0;
 4979              		.loc 1 1249 0 is_stmt 0 discriminator 1
 4980 0f70 97F82F30 		ldrb	r3, [r7, #47]	@ zero_extendqisi2
 4981 0f74 082B     		cmp	r3, #8
 4982 0f76 EAD9     		bls	.L258
1252:.\main.c      **** 				}				
1253:.\main.c      **** 				if(venta(lado1.dir)==1){
 4983              		.loc 1 1253 0 is_stmt 1
 4984 0f78 314B     		ldr	r3, .L701+16
 4985 0f7a 1B78     		ldrb	r3, [r3]
 4986 0f7c DBB2     		uxtb	r3, r3
 4987 0f7e 1846     		mov	r0, r3
 4988 0f80 FFF7FEFF 		bl	venta
 4989 0f84 0346     		mov	r3, r0
 4990 0f86 012B     		cmp	r3, #1
ARM GAS  C:\Users\RECEPC~1\AppData\Local\Temp\ccIpe7td.s 			page 112


 4991 0f88 07D1     		bne	.L259
1254:.\main.c      **** 					flujo_LCD1 = 13;
 4992              		.loc 1 1254 0
 4993 0f8a 294B     		ldr	r3, .L701
 4994 0f8c 0D22     		movs	r2, #13
 4995 0f8e 1A70     		strb	r2, [r3]
1255:.\main.c      **** 					set_imagen(1,57);
 4996              		.loc 1 1255 0
 4997 0f90 0120     		movs	r0, #1
 4998 0f92 3921     		movs	r1, #57
 4999 0f94 FFF7FEFF 		bl	set_imagen
1256:.\main.c      **** 				}	
1257:.\main.c      **** 			 break;
 5000              		.loc 1 1257 0
 5001 0f98 34E0     		b	.L250
 5002              	.L259:
 5003 0f9a 33E0     		b	.L250
 5004              	.L253:
1258:.\main.c      **** 
1259:.\main.c      **** 	         case 0x06:                     //No hizo venta
1260:.\main.c      **** 				for(x=0;x<=8;x++){
 5005              		.loc 1 1260 0
 5006 0f9c 0023     		movs	r3, #0
 5007 0f9e 87F82F30 		strb	r3, [r7, #47]
 5008 0fa2 10E0     		b	.L260
 5009              	.L261:
1261:.\main.c      **** 					rventa1.dinero[x]=0;
 5010              		.loc 1 1261 0 discriminator 3
 5011 0fa4 97F82F30 		ldrb	r3, [r7, #47]	@ zero_extendqisi2
 5012 0fa8 264A     		ldr	r2, .L701+20
 5013 0faa 1344     		add	r3, r3, r2
 5014 0fac 0022     		movs	r2, #0
 5015 0fae DA71     		strb	r2, [r3, #7]
1262:.\main.c      **** 					rventa1.volumen[x]=0;
 5016              		.loc 1 1262 0 discriminator 3
 5017 0fb0 97F82F30 		ldrb	r3, [r7, #47]	@ zero_extendqisi2
 5018 0fb4 234A     		ldr	r2, .L701+20
 5019 0fb6 1344     		add	r3, r3, r2
 5020 0fb8 0022     		movs	r2, #0
 5021 0fba 1A74     		strb	r2, [r3, #16]
1260:.\main.c      **** 					rventa1.dinero[x]=0;
 5022              		.loc 1 1260 0 discriminator 3
 5023 0fbc 97F82F30 		ldrb	r3, [r7, #47]	@ zero_extendqisi2
 5024 0fc0 0133     		adds	r3, r3, #1
 5025 0fc2 87F82F30 		strb	r3, [r7, #47]
 5026              	.L260:
1260:.\main.c      **** 					rventa1.dinero[x]=0;
 5027              		.loc 1 1260 0 is_stmt 0 discriminator 1
 5028 0fc6 97F82F30 		ldrb	r3, [r7, #47]	@ zero_extendqisi2
 5029 0fca 082B     		cmp	r3, #8
 5030 0fcc EAD9     		bls	.L261
1263:.\main.c      **** 				}
1264:.\main.c      **** 				for(x=0;x<=4;x++){
 5031              		.loc 1 1264 0 is_stmt 1
 5032 0fce 0023     		movs	r3, #0
 5033 0fd0 87F82F30 		strb	r3, [r7, #47]
 5034 0fd4 0AE0     		b	.L262
ARM GAS  C:\Users\RECEPC~1\AppData\Local\Temp\ccIpe7td.s 			page 113


 5035              	.L263:
1265:.\main.c      **** 					rventa1.ppu[x]=0;
 5036              		.loc 1 1265 0 discriminator 3
 5037 0fd6 97F82F30 		ldrb	r3, [r7, #47]	@ zero_extendqisi2
 5038 0fda 1A4A     		ldr	r2, .L701+20
 5039 0fdc 1344     		add	r3, r3, r2
 5040 0fde 0022     		movs	r2, #0
 5041 0fe0 9A70     		strb	r2, [r3, #2]
1264:.\main.c      **** 					rventa1.ppu[x]=0;
 5042              		.loc 1 1264 0 discriminator 3
 5043 0fe2 97F82F30 		ldrb	r3, [r7, #47]	@ zero_extendqisi2
 5044 0fe6 0133     		adds	r3, r3, #1
 5045 0fe8 87F82F30 		strb	r3, [r7, #47]
 5046              	.L262:
1264:.\main.c      **** 					rventa1.ppu[x]=0;
 5047              		.loc 1 1264 0 is_stmt 0 discriminator 1
 5048 0fec 97F82F30 		ldrb	r3, [r7, #47]	@ zero_extendqisi2
 5049 0ff0 042B     		cmp	r3, #4
 5050 0ff2 F0D9     		bls	.L263
1266:.\main.c      **** 				}				
1267:.\main.c      **** 				flujo_LCD1 = 13;
 5051              		.loc 1 1267 0 is_stmt 1
 5052 0ff4 0E4B     		ldr	r3, .L701
 5053 0ff6 0D22     		movs	r2, #13
 5054 0ff8 1A70     		strb	r2, [r3]
1268:.\main.c      **** 				set_imagen(1,57);		
 5055              		.loc 1 1268 0
 5056 0ffa 0120     		movs	r0, #1
 5057 0ffc 3921     		movs	r1, #57
 5058 0ffe FFF7FEFF 		bl	set_imagen
1269:.\main.c      **** 			 break;				 	
 5059              		.loc 1 1269 0
 5060 1002 00BF     		nop
 5061              	.L250:
1270:.\main.c      ****          }	
1271:.\main.c      ****         }
1272:.\main.c      ****         if(seleccion_pos == 2){
 5062              		.loc 1 1272 0
 5063 1004 0B4B     		ldr	r3, .L701+4
 5064 1006 1B78     		ldrb	r3, [r3]
 5065 1008 DBB2     		uxtb	r3, r3
 5066 100a 022B     		cmp	r3, #2
 5067 100c 40F0AD80 		bne	.L264
1273:.\main.c      **** 		 switch(get_estado(lado2.dir)){
 5068              		.loc 1 1273 0
 5069 1010 0A4B     		ldr	r3, .L701+12
 5070 1012 1B78     		ldrb	r3, [r3]
 5071 1014 DBB2     		uxtb	r3, r3
 5072 1016 1846     		mov	r0, r3
 5073 1018 FFF7FEFF 		bl	get_estado
 5074 101c 0346     		mov	r3, r0
 5075 101e 0A2B     		cmp	r3, #10
 5076 1020 44D0     		beq	.L265
 5077 1022 0B2B     		cmp	r3, #11
 5078 1024 14D0     		beq	.L266
 5079 1026 062B     		cmp	r3, #6
 5080 1028 6BD0     		beq	.L267
ARM GAS  C:\Users\RECEPC~1\AppData\Local\Temp\ccIpe7td.s 			page 114


1274:.\main.c      **** 	         case 0x0B:                     //Termino venta
1275:.\main.c      **** 				CyDelay(100);
1276:.\main.c      **** 				for(x=0;x<=8;x++){
1277:.\main.c      **** 					rventa2.dinero[x]=0;
1278:.\main.c      **** 					rventa2.volumen[x]=0;
1279:.\main.c      **** 				}					
1280:.\main.c      **** 				if(venta(lado2.dir)==1){
1281:.\main.c      **** 					flujo_LCD1 = 13;
1282:.\main.c      **** 					set_imagen(1,57);
1283:.\main.c      **** 				}	
1284:.\main.c      **** 			 break;	
1285:.\main.c      **** 				
1286:.\main.c      **** 	         case 0x0A:						//Termino venta
1287:.\main.c      **** 				for(x=0;x<=8;x++){
1288:.\main.c      **** 					rventa2.dinero[x]=0;
1289:.\main.c      **** 					rventa2.volumen[x]=0;
1290:.\main.c      **** 				}				
1291:.\main.c      **** 				if(venta(lado2.dir)==1){
1292:.\main.c      **** 					flujo_LCD1 = 13;
1293:.\main.c      **** 					set_imagen(1,57);
1294:.\main.c      **** 				}	
1295:.\main.c      **** 			 break;
1296:.\main.c      **** 
1297:.\main.c      **** 	         case 0x06:                     //No hizo venta
1298:.\main.c      **** 				for(x=0;x<=8;x++){
1299:.\main.c      **** 					rventa2.dinero[x]=0;
1300:.\main.c      **** 					rventa2.volumen[x]=0;
1301:.\main.c      **** 				}
1302:.\main.c      **** 				for(x=0;x<=4;x++){
1303:.\main.c      **** 					rventa2.ppu[x]=0;
1304:.\main.c      **** 				}				
1305:.\main.c      **** 				flujo_LCD1 = 13;
1306:.\main.c      **** 				set_imagen(1,57);		
1307:.\main.c      **** 			 break;				 	
1308:.\main.c      ****          }	
1309:.\main.c      ****         }
1310:.\main.c      **** 		break;
 5081              		.loc 1 1310 0
 5082 102a 03F0F9BE 		b	.L131
 5083              	.L702:
 5084 102e 00BF     		.align	2
 5085              	.L701:
 5086 1030 00000000 		.word	flujo_LCD1
 5087 1034 00000000 		.word	seleccion_pos
 5088 1038 00000000 		.word	LCD_1_rxBuffer
 5089 103c 00000000 		.word	lado2
 5090 1040 00000000 		.word	lado1
 5091 1044 00000000 		.word	rventa1
 5092 1048 00000000 		.word	timeout_autorizacion
 5093 104c 00000000 		.word	rventa2
 5094              	.L266:
1275:.\main.c      **** 				for(x=0;x<=8;x++){
 5095              		.loc 1 1275 0
 5096 1050 6420     		movs	r0, #100
 5097 1052 FFF7FEFF 		bl	CyDelay
1276:.\main.c      **** 					rventa2.dinero[x]=0;
 5098              		.loc 1 1276 0
ARM GAS  C:\Users\RECEPC~1\AppData\Local\Temp\ccIpe7td.s 			page 115


 5099 1056 0023     		movs	r3, #0
 5100 1058 87F82F30 		strb	r3, [r7, #47]
 5101 105c 10E0     		b	.L268
 5102              	.L269:
1277:.\main.c      **** 					rventa2.volumen[x]=0;
 5103              		.loc 1 1277 0 discriminator 3
 5104 105e 97F82F30 		ldrb	r3, [r7, #47]	@ zero_extendqisi2
 5105 1062 734A     		ldr	r2, .L703
 5106 1064 1344     		add	r3, r3, r2
 5107 1066 0022     		movs	r2, #0
 5108 1068 DA71     		strb	r2, [r3, #7]
1278:.\main.c      **** 				}					
 5109              		.loc 1 1278 0 discriminator 3
 5110 106a 97F82F30 		ldrb	r3, [r7, #47]	@ zero_extendqisi2
 5111 106e 704A     		ldr	r2, .L703
 5112 1070 1344     		add	r3, r3, r2
 5113 1072 0022     		movs	r2, #0
 5114 1074 1A74     		strb	r2, [r3, #16]
1276:.\main.c      **** 					rventa2.dinero[x]=0;
 5115              		.loc 1 1276 0 discriminator 3
 5116 1076 97F82F30 		ldrb	r3, [r7, #47]	@ zero_extendqisi2
 5117 107a 0133     		adds	r3, r3, #1
 5118 107c 87F82F30 		strb	r3, [r7, #47]
 5119              	.L268:
1276:.\main.c      **** 					rventa2.dinero[x]=0;
 5120              		.loc 1 1276 0 is_stmt 0 discriminator 1
 5121 1080 97F82F30 		ldrb	r3, [r7, #47]	@ zero_extendqisi2
 5122 1084 082B     		cmp	r3, #8
 5123 1086 EAD9     		bls	.L269
1280:.\main.c      **** 					flujo_LCD1 = 13;
 5124              		.loc 1 1280 0 is_stmt 1
 5125 1088 6A4B     		ldr	r3, .L703+4
 5126 108a 1B78     		ldrb	r3, [r3]
 5127 108c DBB2     		uxtb	r3, r3
 5128 108e 1846     		mov	r0, r3
 5129 1090 FFF7FEFF 		bl	venta
 5130 1094 0346     		mov	r3, r0
 5131 1096 012B     		cmp	r3, #1
 5132 1098 07D1     		bne	.L270
1281:.\main.c      **** 					set_imagen(1,57);
 5133              		.loc 1 1281 0
 5134 109a 674B     		ldr	r3, .L703+8
 5135 109c 0D22     		movs	r2, #13
 5136 109e 1A70     		strb	r2, [r3]
1282:.\main.c      **** 				}	
 5137              		.loc 1 1282 0
 5138 10a0 0120     		movs	r0, #1
 5139 10a2 3921     		movs	r1, #57
 5140 10a4 FFF7FEFF 		bl	set_imagen
1284:.\main.c      **** 				
 5141              		.loc 1 1284 0
 5142 10a8 5FE0     		b	.L264
 5143              	.L270:
 5144 10aa 5EE0     		b	.L264
 5145              	.L265:
1287:.\main.c      **** 					rventa2.dinero[x]=0;
 5146              		.loc 1 1287 0
ARM GAS  C:\Users\RECEPC~1\AppData\Local\Temp\ccIpe7td.s 			page 116


 5147 10ac 0023     		movs	r3, #0
 5148 10ae 87F82F30 		strb	r3, [r7, #47]
 5149 10b2 10E0     		b	.L271
 5150              	.L272:
1288:.\main.c      **** 					rventa2.volumen[x]=0;
 5151              		.loc 1 1288 0 discriminator 3
 5152 10b4 97F82F30 		ldrb	r3, [r7, #47]	@ zero_extendqisi2
 5153 10b8 5D4A     		ldr	r2, .L703
 5154 10ba 1344     		add	r3, r3, r2
 5155 10bc 0022     		movs	r2, #0
 5156 10be DA71     		strb	r2, [r3, #7]
1289:.\main.c      **** 				}				
 5157              		.loc 1 1289 0 discriminator 3
 5158 10c0 97F82F30 		ldrb	r3, [r7, #47]	@ zero_extendqisi2
 5159 10c4 5A4A     		ldr	r2, .L703
 5160 10c6 1344     		add	r3, r3, r2
 5161 10c8 0022     		movs	r2, #0
 5162 10ca 1A74     		strb	r2, [r3, #16]
1287:.\main.c      **** 					rventa2.dinero[x]=0;
 5163              		.loc 1 1287 0 discriminator 3
 5164 10cc 97F82F30 		ldrb	r3, [r7, #47]	@ zero_extendqisi2
 5165 10d0 0133     		adds	r3, r3, #1
 5166 10d2 87F82F30 		strb	r3, [r7, #47]
 5167              	.L271:
1287:.\main.c      **** 					rventa2.dinero[x]=0;
 5168              		.loc 1 1287 0 is_stmt 0 discriminator 1
 5169 10d6 97F82F30 		ldrb	r3, [r7, #47]	@ zero_extendqisi2
 5170 10da 082B     		cmp	r3, #8
 5171 10dc EAD9     		bls	.L272
1291:.\main.c      **** 					flujo_LCD1 = 13;
 5172              		.loc 1 1291 0 is_stmt 1
 5173 10de 554B     		ldr	r3, .L703+4
 5174 10e0 1B78     		ldrb	r3, [r3]
 5175 10e2 DBB2     		uxtb	r3, r3
 5176 10e4 1846     		mov	r0, r3
 5177 10e6 FFF7FEFF 		bl	venta
 5178 10ea 0346     		mov	r3, r0
 5179 10ec 012B     		cmp	r3, #1
 5180 10ee 07D1     		bne	.L273
1292:.\main.c      **** 					set_imagen(1,57);
 5181              		.loc 1 1292 0
 5182 10f0 514B     		ldr	r3, .L703+8
 5183 10f2 0D22     		movs	r2, #13
 5184 10f4 1A70     		strb	r2, [r3]
1293:.\main.c      **** 				}	
 5185              		.loc 1 1293 0
 5186 10f6 0120     		movs	r0, #1
 5187 10f8 3921     		movs	r1, #57
 5188 10fa FFF7FEFF 		bl	set_imagen
1295:.\main.c      **** 
 5189              		.loc 1 1295 0
 5190 10fe 34E0     		b	.L264
 5191              	.L273:
1295:.\main.c      **** 
 5192              		.loc 1 1295 0 is_stmt 0 discriminator 9
 5193 1100 33E0     		b	.L264
 5194              	.L267:
ARM GAS  C:\Users\RECEPC~1\AppData\Local\Temp\ccIpe7td.s 			page 117


1298:.\main.c      **** 					rventa2.dinero[x]=0;
 5195              		.loc 1 1298 0 is_stmt 1
 5196 1102 0023     		movs	r3, #0
 5197 1104 87F82F30 		strb	r3, [r7, #47]
 5198 1108 10E0     		b	.L274
 5199              	.L275:
1299:.\main.c      **** 					rventa2.volumen[x]=0;
 5200              		.loc 1 1299 0 discriminator 3
 5201 110a 97F82F30 		ldrb	r3, [r7, #47]	@ zero_extendqisi2
 5202 110e 484A     		ldr	r2, .L703
 5203 1110 1344     		add	r3, r3, r2
 5204 1112 0022     		movs	r2, #0
 5205 1114 DA71     		strb	r2, [r3, #7]
1300:.\main.c      **** 				}
 5206              		.loc 1 1300 0 discriminator 3
 5207 1116 97F82F30 		ldrb	r3, [r7, #47]	@ zero_extendqisi2
 5208 111a 454A     		ldr	r2, .L703
 5209 111c 1344     		add	r3, r3, r2
 5210 111e 0022     		movs	r2, #0
 5211 1120 1A74     		strb	r2, [r3, #16]
1298:.\main.c      **** 					rventa2.dinero[x]=0;
 5212              		.loc 1 1298 0 discriminator 3
 5213 1122 97F82F30 		ldrb	r3, [r7, #47]	@ zero_extendqisi2
 5214 1126 0133     		adds	r3, r3, #1
 5215 1128 87F82F30 		strb	r3, [r7, #47]
 5216              	.L274:
1298:.\main.c      **** 					rventa2.dinero[x]=0;
 5217              		.loc 1 1298 0 is_stmt 0 discriminator 1
 5218 112c 97F82F30 		ldrb	r3, [r7, #47]	@ zero_extendqisi2
 5219 1130 082B     		cmp	r3, #8
 5220 1132 EAD9     		bls	.L275
1302:.\main.c      **** 					rventa2.ppu[x]=0;
 5221              		.loc 1 1302 0 is_stmt 1
 5222 1134 0023     		movs	r3, #0
 5223 1136 87F82F30 		strb	r3, [r7, #47]
 5224 113a 0AE0     		b	.L276
 5225              	.L277:
1303:.\main.c      **** 				}				
 5226              		.loc 1 1303 0 discriminator 3
 5227 113c 97F82F30 		ldrb	r3, [r7, #47]	@ zero_extendqisi2
 5228 1140 3B4A     		ldr	r2, .L703
 5229 1142 1344     		add	r3, r3, r2
 5230 1144 0022     		movs	r2, #0
 5231 1146 9A70     		strb	r2, [r3, #2]
1302:.\main.c      **** 					rventa2.ppu[x]=0;
 5232              		.loc 1 1302 0 discriminator 3
 5233 1148 97F82F30 		ldrb	r3, [r7, #47]	@ zero_extendqisi2
 5234 114c 0133     		adds	r3, r3, #1
 5235 114e 87F82F30 		strb	r3, [r7, #47]
 5236              	.L276:
1302:.\main.c      **** 					rventa2.ppu[x]=0;
 5237              		.loc 1 1302 0 is_stmt 0 discriminator 1
 5238 1152 97F82F30 		ldrb	r3, [r7, #47]	@ zero_extendqisi2
 5239 1156 042B     		cmp	r3, #4
 5240 1158 F0D9     		bls	.L277
1305:.\main.c      **** 				set_imagen(1,57);		
 5241              		.loc 1 1305 0 is_stmt 1
ARM GAS  C:\Users\RECEPC~1\AppData\Local\Temp\ccIpe7td.s 			page 118


 5242 115a 374B     		ldr	r3, .L703+8
 5243 115c 0D22     		movs	r2, #13
 5244 115e 1A70     		strb	r2, [r3]
1306:.\main.c      **** 			 break;				 	
 5245              		.loc 1 1306 0
 5246 1160 0120     		movs	r0, #1
 5247 1162 3921     		movs	r1, #57
 5248 1164 FFF7FEFF 		bl	set_imagen
1307:.\main.c      ****          }	
 5249              		.loc 1 1307 0
 5250 1168 00BF     		nop
 5251              	.L264:
 5252              		.loc 1 1310 0 discriminator 8
 5253 116a 03F059BE 		b	.L131
 5254              	.L142:
1311:.\main.c      ****         
1312:.\main.c      ****         case 9:
1313:.\main.c      **** 			rf_mod[0]='M';
 5255              		.loc 1 1313 0
 5256 116e 334B     		ldr	r3, .L703+12
 5257 1170 4D22     		movs	r2, #77
 5258 1172 1A70     		strb	r2, [r3]
1314:.\main.c      **** 			rf_mod[1]='U';
 5259              		.loc 1 1314 0
 5260 1174 314B     		ldr	r3, .L703+12
 5261 1176 5522     		movs	r2, #85
 5262 1178 5A70     		strb	r2, [r3, #1]
1315:.\main.c      **** 			rf_mod[2]='X';
 5263              		.loc 1 1315 0
 5264 117a 304B     		ldr	r3, .L703+12
 5265 117c 5822     		movs	r2, #88
 5266 117e 9A70     		strb	r2, [r3, #2]
1316:.\main.c      **** 			rf_mod[3]='0';
 5267              		.loc 1 1316 0
 5268 1180 2E4B     		ldr	r3, .L703+12
 5269 1182 3022     		movs	r2, #48
 5270 1184 DA70     		strb	r2, [r3, #3]
1317:.\main.c      ****             if(seleccion_pos == 1){
 5271              		.loc 1 1317 0
 5272 1186 2E4B     		ldr	r3, .L703+16
 5273 1188 1B78     		ldrb	r3, [r3]
 5274 118a DBB2     		uxtb	r3, r3
 5275 118c 012B     		cmp	r3, #1
 5276 118e 40F02482 		bne	.L278
1318:.\main.c      ****                 if (tipo_venta == 1){
 5277              		.loc 1 1318 0
 5278 1192 2C4B     		ldr	r3, .L703+20
 5279 1194 1B78     		ldrb	r3, [r3]	@ zero_extendqisi2
 5280 1196 012B     		cmp	r3, #1
 5281 1198 42D1     		bne	.L279
1319:.\main.c      ****     			    for(x=0;x<=15;x++){						//Serial				
 5282              		.loc 1 1319 0
 5283 119a 0023     		movs	r3, #0
 5284 119c 87F82F30 		strb	r3, [r7, #47]
 5285 11a0 3AE0     		b	.L280
 5286              	.L283:
1320:.\main.c      ****     				    y=(rventa1.id[x/2]>>4)&0x0F;
ARM GAS  C:\Users\RECEPC~1\AppData\Local\Temp\ccIpe7td.s 			page 119


 5287              		.loc 1 1320 0
 5288 11a2 97F82F30 		ldrb	r3, [r7, #47]	@ zero_extendqisi2
 5289 11a6 5B08     		lsrs	r3, r3, #1
 5290 11a8 DBB2     		uxtb	r3, r3
 5291 11aa 1A46     		mov	r2, r3
 5292 11ac 264B     		ldr	r3, .L703+24
 5293 11ae 1344     		add	r3, r3, r2
 5294 11b0 93F82330 		ldrb	r3, [r3, #35]	@ zero_extendqisi2
 5295 11b4 1B09     		lsrs	r3, r3, #4
 5296 11b6 87F82E30 		strb	r3, [r7, #46]
1321:.\main.c      ****     				    if((x%2)==0){
 5297              		.loc 1 1321 0
 5298 11ba 97F82F30 		ldrb	r3, [r7, #47]
 5299 11be 03F00103 		and	r3, r3, #1
 5300 11c2 DBB2     		uxtb	r3, r3
 5301 11c4 002B     		cmp	r3, #0
 5302 11c6 0CD1     		bne	.L281
1322:.\main.c      ****     					    y=rventa1.id[x/2]&0x0F;
 5303              		.loc 1 1322 0
 5304 11c8 97F82F30 		ldrb	r3, [r7, #47]	@ zero_extendqisi2
 5305 11cc 5B08     		lsrs	r3, r3, #1
 5306 11ce DBB2     		uxtb	r3, r3
 5307 11d0 1A46     		mov	r2, r3
 5308 11d2 1D4B     		ldr	r3, .L703+24
 5309 11d4 1344     		add	r3, r3, r2
 5310 11d6 93F82330 		ldrb	r3, [r3, #35]	@ zero_extendqisi2
 5311 11da 03F00F03 		and	r3, r3, #15
 5312 11de 87F82E30 		strb	r3, [r7, #46]
 5313              	.L281:
1323:.\main.c      ****     				    }
1324:.\main.c      ****     				    rf_mod[x+4] = y+48;
 5314              		.loc 1 1324 0
 5315 11e2 97F82F30 		ldrb	r3, [r7, #47]	@ zero_extendqisi2
 5316 11e6 0433     		adds	r3, r3, #4
 5317 11e8 97F82E20 		ldrb	r2, [r7, #46]
 5318 11ec 3032     		adds	r2, r2, #48
 5319 11ee D1B2     		uxtb	r1, r2
 5320 11f0 124A     		ldr	r2, .L703+12
 5321 11f2 D154     		strb	r1, [r2, r3]
1325:.\main.c      ****     				    if(y>9){
 5322              		.loc 1 1325 0
 5323 11f4 97F82E30 		ldrb	r3, [r7, #46]	@ zero_extendqisi2
 5324 11f8 092B     		cmp	r3, #9
 5325 11fa 08D9     		bls	.L282
1326:.\main.c      ****     					    rf_mod[x+4] = y+55;
 5326              		.loc 1 1326 0
 5327 11fc 97F82F30 		ldrb	r3, [r7, #47]	@ zero_extendqisi2
 5328 1200 0433     		adds	r3, r3, #4
 5329 1202 97F82E20 		ldrb	r2, [r7, #46]
 5330 1206 3732     		adds	r2, r2, #55
 5331 1208 D1B2     		uxtb	r1, r2
 5332 120a 0C4A     		ldr	r2, .L703+12
 5333 120c D154     		strb	r1, [r2, r3]
 5334              	.L282:
1319:.\main.c      ****     				    y=(rventa1.id[x/2]>>4)&0x0F;
 5335              		.loc 1 1319 0 discriminator 2
 5336 120e 97F82F30 		ldrb	r3, [r7, #47]	@ zero_extendqisi2
ARM GAS  C:\Users\RECEPC~1\AppData\Local\Temp\ccIpe7td.s 			page 120


 5337 1212 0133     		adds	r3, r3, #1
 5338 1214 87F82F30 		strb	r3, [r7, #47]
 5339              	.L280:
1319:.\main.c      ****     				    y=(rventa1.id[x/2]>>4)&0x0F;
 5340              		.loc 1 1319 0 is_stmt 0 discriminator 1
 5341 1218 97F82F30 		ldrb	r3, [r7, #47]	@ zero_extendqisi2
 5342 121c 0F2B     		cmp	r3, #15
 5343 121e C0D9     		bls	.L283
 5344              	.L279:
1327:.\main.c      ****     				    }
1328:.\main.c      ****     			    }                
1329:.\main.c      ****                 }
1330:.\main.c      ****                 if(tipo_venta == 0){
 5345              		.loc 1 1330 0 is_stmt 1
 5346 1220 084B     		ldr	r3, .L703+20
 5347 1222 1B78     		ldrb	r3, [r3]	@ zero_extendqisi2
 5348 1224 002B     		cmp	r3, #0
 5349 1226 50D1     		bne	.L284
1331:.\main.c      ****                     for(x=0;x<=15;x++){						//Serial				
 5350              		.loc 1 1331 0
 5351 1228 0023     		movs	r3, #0
 5352 122a 87F82F30 		strb	r3, [r7, #47]
 5353 122e 48E0     		b	.L285
 5354              	.L704:
 5355              		.align	2
 5356              	.L703:
 5357 1230 00000000 		.word	rventa2
 5358 1234 00000000 		.word	lado2
 5359 1238 00000000 		.word	flujo_LCD1
 5360 123c 00000000 		.word	rf_mod
 5361 1240 00000000 		.word	seleccion_pos
 5362 1244 00000000 		.word	tipo_venta
 5363 1248 00000000 		.word	rventa1
 5364              	.L288:
1332:.\main.c      ****     				    y=(rventa1.id[x/2]>>4)&0x0F;
 5365              		.loc 1 1332 0
 5366 124c 97F82F30 		ldrb	r3, [r7, #47]	@ zero_extendqisi2
 5367 1250 5B08     		lsrs	r3, r3, #1
 5368 1252 DBB2     		uxtb	r3, r3
 5369 1254 1A46     		mov	r2, r3
 5370 1256 B54B     		ldr	r3, .L705
 5371 1258 1344     		add	r3, r3, r2
 5372 125a 93F82330 		ldrb	r3, [r3, #35]	@ zero_extendqisi2
 5373 125e 1B09     		lsrs	r3, r3, #4
 5374 1260 87F82E30 		strb	r3, [r7, #46]
1333:.\main.c      ****     				    if((x%2)==0){
 5375              		.loc 1 1333 0
 5376 1264 97F82F30 		ldrb	r3, [r7, #47]
 5377 1268 03F00103 		and	r3, r3, #1
 5378 126c DBB2     		uxtb	r3, r3
 5379 126e 002B     		cmp	r3, #0
 5380 1270 0CD1     		bne	.L286
1334:.\main.c      ****     					    y=rventa1.id[x/2]&0x0F;
 5381              		.loc 1 1334 0
 5382 1272 97F82F30 		ldrb	r3, [r7, #47]	@ zero_extendqisi2
 5383 1276 5B08     		lsrs	r3, r3, #1
 5384 1278 DBB2     		uxtb	r3, r3
ARM GAS  C:\Users\RECEPC~1\AppData\Local\Temp\ccIpe7td.s 			page 121


 5385 127a 1A46     		mov	r2, r3
 5386 127c AB4B     		ldr	r3, .L705
 5387 127e 1344     		add	r3, r3, r2
 5388 1280 93F82330 		ldrb	r3, [r3, #35]	@ zero_extendqisi2
 5389 1284 03F00F03 		and	r3, r3, #15
 5390 1288 87F82E30 		strb	r3, [r7, #46]
 5391              	.L286:
1335:.\main.c      ****     				    }
1336:.\main.c      ****     				    rf_mod[x+4] = y+48;
 5392              		.loc 1 1336 0
 5393 128c 97F82F30 		ldrb	r3, [r7, #47]	@ zero_extendqisi2
 5394 1290 0433     		adds	r3, r3, #4
 5395 1292 97F82E20 		ldrb	r2, [r7, #46]
 5396 1296 3032     		adds	r2, r2, #48
 5397 1298 D1B2     		uxtb	r1, r2
 5398 129a A54A     		ldr	r2, .L705+4
 5399 129c D154     		strb	r1, [r2, r3]
1337:.\main.c      ****     				    if(y>9){
 5400              		.loc 1 1337 0
 5401 129e 97F82E30 		ldrb	r3, [r7, #46]	@ zero_extendqisi2
 5402 12a2 092B     		cmp	r3, #9
 5403 12a4 08D9     		bls	.L287
1338:.\main.c      ****     					    rf_mod[x+4] = y+55;
 5404              		.loc 1 1338 0
 5405 12a6 97F82F30 		ldrb	r3, [r7, #47]	@ zero_extendqisi2
 5406 12aa 0433     		adds	r3, r3, #4
 5407 12ac 97F82E20 		ldrb	r2, [r7, #46]
 5408 12b0 3732     		adds	r2, r2, #55
 5409 12b2 D1B2     		uxtb	r1, r2
 5410 12b4 9E4A     		ldr	r2, .L705+4
 5411 12b6 D154     		strb	r1, [r2, r3]
 5412              	.L287:
1331:.\main.c      ****     				    y=(rventa1.id[x/2]>>4)&0x0F;
 5413              		.loc 1 1331 0 discriminator 2
 5414 12b8 97F82F30 		ldrb	r3, [r7, #47]	@ zero_extendqisi2
 5415 12bc 0133     		adds	r3, r3, #1
 5416 12be 87F82F30 		strb	r3, [r7, #47]
 5417              	.L285:
1331:.\main.c      ****     				    y=(rventa1.id[x/2]>>4)&0x0F;
 5418              		.loc 1 1331 0 is_stmt 0 discriminator 1
 5419 12c2 97F82F30 		ldrb	r3, [r7, #47]	@ zero_extendqisi2
 5420 12c6 0F2B     		cmp	r3, #15
 5421 12c8 C0D9     		bls	.L288
 5422              	.L284:
1339:.\main.c      ****     				    }
1340:.\main.c      ****     			    }
1341:.\main.c      ****                 }
1342:.\main.c      ****     			rf_mod[20]=(lado1.grado[rventa1.manguera-1][0])+48;			//Id Producto
 5423              		.loc 1 1342 0 is_stmt 1
 5424 12ca 984B     		ldr	r3, .L705
 5425 12cc 9B7E     		ldrb	r3, [r3, #26]	@ zero_extendqisi2
 5426 12ce 013B     		subs	r3, r3, #1
 5427 12d0 984A     		ldr	r2, .L705+8
 5428 12d2 1344     		add	r3, r3, r2
 5429 12d4 93F85930 		ldrb	r3, [r3, #89]
 5430 12d8 DBB2     		uxtb	r3, r3
 5431 12da 3033     		adds	r3, r3, #48
ARM GAS  C:\Users\RECEPC~1\AppData\Local\Temp\ccIpe7td.s 			page 122


 5432 12dc DAB2     		uxtb	r2, r3
 5433 12de 944B     		ldr	r3, .L705+4
 5434 12e0 1A75     		strb	r2, [r3, #20]
1343:.\main.c      ****                 if(tipo_venta == 0){
 5435              		.loc 1 1343 0
 5436 12e2 954B     		ldr	r3, .L705+12
 5437 12e4 1B78     		ldrb	r3, [r3]	@ zero_extendqisi2
 5438 12e6 002B     		cmp	r3, #0
 5439 12e8 13D1     		bne	.L289
1344:.\main.c      ****                     rf_mod[21]= id_estacion[4];								    //Id vehiculo
 5440              		.loc 1 1344 0
 5441 12ea 944B     		ldr	r3, .L705+16
 5442 12ec 1B79     		ldrb	r3, [r3, #4]
 5443 12ee DAB2     		uxtb	r2, r3
 5444 12f0 8F4B     		ldr	r3, .L705+4
 5445 12f2 5A75     		strb	r2, [r3, #21]
1345:.\main.c      ****     			    rf_mod[22]= id_estacion[3];
 5446              		.loc 1 1345 0
 5447 12f4 914B     		ldr	r3, .L705+16
 5448 12f6 DB78     		ldrb	r3, [r3, #3]
 5449 12f8 DAB2     		uxtb	r2, r3
 5450 12fa 8D4B     		ldr	r3, .L705+4
 5451 12fc 9A75     		strb	r2, [r3, #22]
1346:.\main.c      ****     			    rf_mod[23]= id_estacion[2];
 5452              		.loc 1 1346 0
 5453 12fe 8F4B     		ldr	r3, .L705+16
 5454 1300 9B78     		ldrb	r3, [r3, #2]
 5455 1302 DAB2     		uxtb	r2, r3
 5456 1304 8A4B     		ldr	r3, .L705+4
 5457 1306 DA75     		strb	r2, [r3, #23]
1347:.\main.c      ****     			    rf_mod[24]= id_estacion[1];  
 5458              		.loc 1 1347 0
 5459 1308 8C4B     		ldr	r3, .L705+16
 5460 130a 5B78     		ldrb	r3, [r3, #1]
 5461 130c DAB2     		uxtb	r2, r3
 5462 130e 884B     		ldr	r3, .L705+4
 5463 1310 1A76     		strb	r2, [r3, #24]
 5464              	.L289:
1348:.\main.c      ****                 }
1349:.\main.c      ****     			if(tipo_venta == 1){
 5465              		.loc 1 1349 0
 5466 1312 894B     		ldr	r3, .L705+12
 5467 1314 1B78     		ldrb	r3, [r3]	@ zero_extendqisi2
 5468 1316 012B     		cmp	r3, #1
 5469 1318 0BD1     		bne	.L290
1350:.\main.c      ****                     rf_mod[21]= '0';								    //Id Estación
 5470              		.loc 1 1350 0
 5471 131a 854B     		ldr	r3, .L705+4
 5472 131c 3022     		movs	r2, #48
 5473 131e 5A75     		strb	r2, [r3, #21]
1351:.\main.c      ****     			    rf_mod[22]= '0';
 5474              		.loc 1 1351 0
 5475 1320 834B     		ldr	r3, .L705+4
 5476 1322 3022     		movs	r2, #48
 5477 1324 9A75     		strb	r2, [r3, #22]
1352:.\main.c      ****     			    rf_mod[23]= '0';
 5478              		.loc 1 1352 0
ARM GAS  C:\Users\RECEPC~1\AppData\Local\Temp\ccIpe7td.s 			page 123


 5479 1326 824B     		ldr	r3, .L705+4
 5480 1328 3022     		movs	r2, #48
 5481 132a DA75     		strb	r2, [r3, #23]
1353:.\main.c      ****     			    rf_mod[24]= '0';  
 5482              		.loc 1 1353 0
 5483 132c 804B     		ldr	r3, .L705+4
 5484 132e 3022     		movs	r2, #48
 5485 1330 1A76     		strb	r2, [r3, #24]
 5486              	.L290:
1354:.\main.c      ****                 } 
1355:.\main.c      ****                 
1356:.\main.c      ****                 if(ppux10==0){
 5487              		.loc 1 1356 0
 5488 1332 834B     		ldr	r3, .L705+20
 5489 1334 1B78     		ldrb	r3, [r3]
 5490 1336 DBB2     		uxtb	r3, r3
 5491 1338 002B     		cmp	r3, #0
 5492 133a 59D1     		bne	.L291
1357:.\main.c      ****         			rf_mod[25]=(lado1.ppu[rventa1.manguera-1][4]&0x0F)+0x30;		//PPU
 5493              		.loc 1 1357 0
 5494 133c 7B4B     		ldr	r3, .L705
 5495 133e 9B7E     		ldrb	r3, [r3, #26]	@ zero_extendqisi2
 5496 1340 5A1E     		subs	r2, r3, #1
 5497 1342 7C49     		ldr	r1, .L705+8
 5498 1344 1346     		mov	r3, r2
 5499 1346 9B00     		lsls	r3, r3, #2
 5500 1348 1344     		add	r3, r3, r2
 5501 134a 0B44     		add	r3, r3, r1
 5502 134c 4C33     		adds	r3, r3, #76
 5503 134e 9B78     		ldrb	r3, [r3, #2]
 5504 1350 DBB2     		uxtb	r3, r3
 5505 1352 03F00F03 		and	r3, r3, #15
 5506 1356 DBB2     		uxtb	r3, r3
 5507 1358 3033     		adds	r3, r3, #48
 5508 135a DAB2     		uxtb	r2, r3
 5509 135c 744B     		ldr	r3, .L705+4
 5510 135e 5A76     		strb	r2, [r3, #25]
1358:.\main.c      ****         			rf_mod[26]=(lado1.ppu[rventa1.manguera-1][3]&0x0F)+0x30;
 5511              		.loc 1 1358 0
 5512 1360 724B     		ldr	r3, .L705
 5513 1362 9B7E     		ldrb	r3, [r3, #26]	@ zero_extendqisi2
 5514 1364 5A1E     		subs	r2, r3, #1
 5515 1366 7349     		ldr	r1, .L705+8
 5516 1368 1346     		mov	r3, r2
 5517 136a 9B00     		lsls	r3, r3, #2
 5518 136c 1344     		add	r3, r3, r2
 5519 136e 0B44     		add	r3, r3, r1
 5520 1370 4B33     		adds	r3, r3, #75
 5521 1372 9B78     		ldrb	r3, [r3, #2]
 5522 1374 DBB2     		uxtb	r3, r3
 5523 1376 03F00F03 		and	r3, r3, #15
 5524 137a DBB2     		uxtb	r3, r3
 5525 137c 3033     		adds	r3, r3, #48
 5526 137e DAB2     		uxtb	r2, r3
 5527 1380 6B4B     		ldr	r3, .L705+4
 5528 1382 9A76     		strb	r2, [r3, #26]
1359:.\main.c      ****         			rf_mod[27]=(lado1.ppu[rventa1.manguera-1][2]&0x0F)+0x30;
ARM GAS  C:\Users\RECEPC~1\AppData\Local\Temp\ccIpe7td.s 			page 124


 5529              		.loc 1 1359 0
 5530 1384 694B     		ldr	r3, .L705
 5531 1386 9B7E     		ldrb	r3, [r3, #26]	@ zero_extendqisi2
 5532 1388 5A1E     		subs	r2, r3, #1
 5533 138a 6A49     		ldr	r1, .L705+8
 5534 138c 1346     		mov	r3, r2
 5535 138e 9B00     		lsls	r3, r3, #2
 5536 1390 1344     		add	r3, r3, r2
 5537 1392 0B44     		add	r3, r3, r1
 5538 1394 4A33     		adds	r3, r3, #74
 5539 1396 9B78     		ldrb	r3, [r3, #2]
 5540 1398 DBB2     		uxtb	r3, r3
 5541 139a 03F00F03 		and	r3, r3, #15
 5542 139e DBB2     		uxtb	r3, r3
 5543 13a0 3033     		adds	r3, r3, #48
 5544 13a2 DAB2     		uxtb	r2, r3
 5545 13a4 624B     		ldr	r3, .L705+4
 5546 13a6 DA76     		strb	r2, [r3, #27]
1360:.\main.c      ****         			rf_mod[28]=(lado1.ppu[rventa1.manguera-1][1]&0x0F)+0x30;
 5547              		.loc 1 1360 0
 5548 13a8 604B     		ldr	r3, .L705
 5549 13aa 9B7E     		ldrb	r3, [r3, #26]	@ zero_extendqisi2
 5550 13ac 5A1E     		subs	r2, r3, #1
 5551 13ae 6149     		ldr	r1, .L705+8
 5552 13b0 1346     		mov	r3, r2
 5553 13b2 9B00     		lsls	r3, r3, #2
 5554 13b4 1344     		add	r3, r3, r2
 5555 13b6 0B44     		add	r3, r3, r1
 5556 13b8 4933     		adds	r3, r3, #73
 5557 13ba 9B78     		ldrb	r3, [r3, #2]
 5558 13bc DBB2     		uxtb	r3, r3
 5559 13be 03F00F03 		and	r3, r3, #15
 5560 13c2 DBB2     		uxtb	r3, r3
 5561 13c4 3033     		adds	r3, r3, #48
 5562 13c6 DAB2     		uxtb	r2, r3
 5563 13c8 594B     		ldr	r3, .L705+4
 5564 13ca 1A77     		strb	r2, [r3, #28]
1361:.\main.c      ****         			rf_mod[29]=(lado1.ppu[rventa1.manguera-1][0]&0x0F)+0x30;
 5565              		.loc 1 1361 0
 5566 13cc 574B     		ldr	r3, .L705
 5567 13ce 9B7E     		ldrb	r3, [r3, #26]	@ zero_extendqisi2
 5568 13d0 5A1E     		subs	r2, r3, #1
 5569 13d2 5849     		ldr	r1, .L705+8
 5570 13d4 1346     		mov	r3, r2
 5571 13d6 9B00     		lsls	r3, r3, #2
 5572 13d8 1344     		add	r3, r3, r2
 5573 13da 0B44     		add	r3, r3, r1
 5574 13dc 4833     		adds	r3, r3, #72
 5575 13de 9B78     		ldrb	r3, [r3, #2]
 5576 13e0 DBB2     		uxtb	r3, r3
 5577 13e2 03F00F03 		and	r3, r3, #15
 5578 13e6 DBB2     		uxtb	r3, r3
 5579 13e8 3033     		adds	r3, r3, #48
 5580 13ea DAB2     		uxtb	r2, r3
 5581 13ec 504B     		ldr	r3, .L705+4
 5582 13ee 5A77     		strb	r2, [r3, #29]
 5583              	.L291:
ARM GAS  C:\Users\RECEPC~1\AppData\Local\Temp\ccIpe7td.s 			page 125


1362:.\main.c      ****                 }
1363:.\main.c      ****                 if(ppux10==1){
 5584              		.loc 1 1363 0
 5585 13f0 534B     		ldr	r3, .L705+20
 5586 13f2 1B78     		ldrb	r3, [r3]
 5587 13f4 DBB2     		uxtb	r3, r3
 5588 13f6 012B     		cmp	r3, #1
 5589 13f8 4AD1     		bne	.L292
1364:.\main.c      ****         			rf_mod[25]=(lado1.ppu[rventa1.manguera-1][3]&0x0F)+0x30;		//PPUx10
 5590              		.loc 1 1364 0
 5591 13fa 4C4B     		ldr	r3, .L705
 5592 13fc 9B7E     		ldrb	r3, [r3, #26]	@ zero_extendqisi2
 5593 13fe 5A1E     		subs	r2, r3, #1
 5594 1400 4C49     		ldr	r1, .L705+8
 5595 1402 1346     		mov	r3, r2
 5596 1404 9B00     		lsls	r3, r3, #2
 5597 1406 1344     		add	r3, r3, r2
 5598 1408 0B44     		add	r3, r3, r1
 5599 140a 4B33     		adds	r3, r3, #75
 5600 140c 9B78     		ldrb	r3, [r3, #2]
 5601 140e DBB2     		uxtb	r3, r3
 5602 1410 03F00F03 		and	r3, r3, #15
 5603 1414 DBB2     		uxtb	r3, r3
 5604 1416 3033     		adds	r3, r3, #48
 5605 1418 DAB2     		uxtb	r2, r3
 5606 141a 454B     		ldr	r3, .L705+4
 5607 141c 5A76     		strb	r2, [r3, #25]
1365:.\main.c      ****         			rf_mod[26]=(lado1.ppu[rventa1.manguera-1][2]&0x0F)+0x30;
 5608              		.loc 1 1365 0
 5609 141e 434B     		ldr	r3, .L705
 5610 1420 9B7E     		ldrb	r3, [r3, #26]	@ zero_extendqisi2
 5611 1422 5A1E     		subs	r2, r3, #1
 5612 1424 4349     		ldr	r1, .L705+8
 5613 1426 1346     		mov	r3, r2
 5614 1428 9B00     		lsls	r3, r3, #2
 5615 142a 1344     		add	r3, r3, r2
 5616 142c 0B44     		add	r3, r3, r1
 5617 142e 4A33     		adds	r3, r3, #74
 5618 1430 9B78     		ldrb	r3, [r3, #2]
 5619 1432 DBB2     		uxtb	r3, r3
 5620 1434 03F00F03 		and	r3, r3, #15
 5621 1438 DBB2     		uxtb	r3, r3
 5622 143a 3033     		adds	r3, r3, #48
 5623 143c DAB2     		uxtb	r2, r3
 5624 143e 3C4B     		ldr	r3, .L705+4
 5625 1440 9A76     		strb	r2, [r3, #26]
1366:.\main.c      ****         			rf_mod[27]=(lado1.ppu[rventa1.manguera-1][1]&0x0F)+0x30;
 5626              		.loc 1 1366 0
 5627 1442 3A4B     		ldr	r3, .L705
 5628 1444 9B7E     		ldrb	r3, [r3, #26]	@ zero_extendqisi2
 5629 1446 5A1E     		subs	r2, r3, #1
 5630 1448 3A49     		ldr	r1, .L705+8
 5631 144a 1346     		mov	r3, r2
 5632 144c 9B00     		lsls	r3, r3, #2
 5633 144e 1344     		add	r3, r3, r2
 5634 1450 0B44     		add	r3, r3, r1
 5635 1452 4933     		adds	r3, r3, #73
ARM GAS  C:\Users\RECEPC~1\AppData\Local\Temp\ccIpe7td.s 			page 126


 5636 1454 9B78     		ldrb	r3, [r3, #2]
 5637 1456 DBB2     		uxtb	r3, r3
 5638 1458 03F00F03 		and	r3, r3, #15
 5639 145c DBB2     		uxtb	r3, r3
 5640 145e 3033     		adds	r3, r3, #48
 5641 1460 DAB2     		uxtb	r2, r3
 5642 1462 334B     		ldr	r3, .L705+4
 5643 1464 DA76     		strb	r2, [r3, #27]
1367:.\main.c      ****         			rf_mod[28]=(lado1.ppu[rventa1.manguera-1][0]&0x0F)+0x30;
 5644              		.loc 1 1367 0
 5645 1466 314B     		ldr	r3, .L705
 5646 1468 9B7E     		ldrb	r3, [r3, #26]	@ zero_extendqisi2
 5647 146a 5A1E     		subs	r2, r3, #1
 5648 146c 3149     		ldr	r1, .L705+8
 5649 146e 1346     		mov	r3, r2
 5650 1470 9B00     		lsls	r3, r3, #2
 5651 1472 1344     		add	r3, r3, r2
 5652 1474 0B44     		add	r3, r3, r1
 5653 1476 4833     		adds	r3, r3, #72
 5654 1478 9B78     		ldrb	r3, [r3, #2]
 5655 147a DBB2     		uxtb	r3, r3
 5656 147c 03F00F03 		and	r3, r3, #15
 5657 1480 DBB2     		uxtb	r3, r3
 5658 1482 3033     		adds	r3, r3, #48
 5659 1484 DAB2     		uxtb	r2, r3
 5660 1486 2A4B     		ldr	r3, .L705+4
 5661 1488 1A77     		strb	r2, [r3, #28]
1368:.\main.c      ****         			rf_mod[29]=0x30;   
 5662              		.loc 1 1368 0
 5663 148a 294B     		ldr	r3, .L705+4
 5664 148c 3022     		movs	r2, #48
 5665 148e 5A77     		strb	r2, [r3, #29]
 5666              	.L292:
1369:.\main.c      ****                 }
1370:.\main.c      ****     			rf_mod[30]=(rventa1.preset[0]+48);								//Tipo de Preset
 5667              		.loc 1 1370 0
 5668 1490 264B     		ldr	r3, .L705
 5669 1492 DB7E     		ldrb	r3, [r3, #27]	@ zero_extendqisi2
 5670 1494 3033     		adds	r3, r3, #48
 5671 1496 DAB2     		uxtb	r2, r3
 5672 1498 254B     		ldr	r3, .L705+4
 5673 149a 9A77     		strb	r2, [r3, #30]
1371:.\main.c      ****     			rf_mod[31]=rventa1.preset[7];									//Preset
 5674              		.loc 1 1371 0
 5675 149c 234B     		ldr	r3, .L705
 5676 149e 93F82220 		ldrb	r2, [r3, #34]	@ zero_extendqisi2
 5677 14a2 234B     		ldr	r3, .L705+4
 5678 14a4 DA77     		strb	r2, [r3, #31]
1372:.\main.c      ****     			if(rventa1.preset[7]<10){				
 5679              		.loc 1 1372 0
 5680 14a6 214B     		ldr	r3, .L705
 5681 14a8 93F82230 		ldrb	r3, [r3, #34]	@ zero_extendqisi2
 5682 14ac 092B     		cmp	r3, #9
 5683 14ae 06D8     		bhi	.L293
1373:.\main.c      ****     				rf_mod[31]=rventa1.preset[7]+0x30;							
 5684              		.loc 1 1373 0
 5685 14b0 1E4B     		ldr	r3, .L705
ARM GAS  C:\Users\RECEPC~1\AppData\Local\Temp\ccIpe7td.s 			page 127


 5686 14b2 93F82230 		ldrb	r3, [r3, #34]	@ zero_extendqisi2
 5687 14b6 3033     		adds	r3, r3, #48
 5688 14b8 DAB2     		uxtb	r2, r3
 5689 14ba 1D4B     		ldr	r3, .L705+4
 5690 14bc DA77     		strb	r2, [r3, #31]
 5691              	.L293:
1374:.\main.c      ****     			}
1375:.\main.c      ****     			rf_mod[32]=rventa1.preset[6];
 5692              		.loc 1 1375 0
 5693 14be 1B4B     		ldr	r3, .L705
 5694 14c0 93F82120 		ldrb	r2, [r3, #33]	@ zero_extendqisi2
 5695 14c4 1A4B     		ldr	r3, .L705+4
 5696 14c6 83F82020 		strb	r2, [r3, #32]
1376:.\main.c      ****     			if(rventa1.preset[6]<10){				
 5697              		.loc 1 1376 0
 5698 14ca 184B     		ldr	r3, .L705
 5699 14cc 93F82130 		ldrb	r3, [r3, #33]	@ zero_extendqisi2
 5700 14d0 092B     		cmp	r3, #9
 5701 14d2 07D8     		bhi	.L294
1377:.\main.c      ****     				rf_mod[32]=rventa1.preset[6]+0x30;
 5702              		.loc 1 1377 0
 5703 14d4 154B     		ldr	r3, .L705
 5704 14d6 93F82130 		ldrb	r3, [r3, #33]	@ zero_extendqisi2
 5705 14da 3033     		adds	r3, r3, #48
 5706 14dc DAB2     		uxtb	r2, r3
 5707 14de 144B     		ldr	r3, .L705+4
 5708 14e0 83F82020 		strb	r2, [r3, #32]
 5709              	.L294:
1378:.\main.c      ****     			}
1379:.\main.c      ****     			rf_mod[33]=rventa1.preset[5];
 5710              		.loc 1 1379 0
 5711 14e4 114B     		ldr	r3, .L705
 5712 14e6 93F82020 		ldrb	r2, [r3, #32]	@ zero_extendqisi2
 5713 14ea 114B     		ldr	r3, .L705+4
 5714 14ec 83F82120 		strb	r2, [r3, #33]
1380:.\main.c      ****     			if(rventa1.preset[5]<10){				
 5715              		.loc 1 1380 0
 5716 14f0 0E4B     		ldr	r3, .L705
 5717 14f2 93F82030 		ldrb	r3, [r3, #32]	@ zero_extendqisi2
 5718 14f6 092B     		cmp	r3, #9
 5719 14f8 07D8     		bhi	.L295
1381:.\main.c      ****     				rf_mod[33]=rventa1.preset[5]+0x30;
 5720              		.loc 1 1381 0
 5721 14fa 0C4B     		ldr	r3, .L705
 5722 14fc 93F82030 		ldrb	r3, [r3, #32]	@ zero_extendqisi2
 5723 1500 3033     		adds	r3, r3, #48
 5724 1502 DAB2     		uxtb	r2, r3
 5725 1504 0A4B     		ldr	r3, .L705+4
 5726 1506 83F82120 		strb	r2, [r3, #33]
 5727              	.L295:
1382:.\main.c      ****     			}
1383:.\main.c      ****     			rf_mod[34]=rventa1.preset[4];
 5728              		.loc 1 1383 0
 5729 150a 084B     		ldr	r3, .L705
 5730 150c DA7F     		ldrb	r2, [r3, #31]	@ zero_extendqisi2
 5731 150e 084B     		ldr	r3, .L705+4
 5732 1510 83F82220 		strb	r2, [r3, #34]
ARM GAS  C:\Users\RECEPC~1\AppData\Local\Temp\ccIpe7td.s 			page 128


1384:.\main.c      ****     			if(rventa1.preset[4]<10){				
 5733              		.loc 1 1384 0
 5734 1514 054B     		ldr	r3, .L705
 5735 1516 DB7F     		ldrb	r3, [r3, #31]	@ zero_extendqisi2
 5736 1518 092B     		cmp	r3, #9
 5737 151a 13D8     		bhi	.L296
1385:.\main.c      ****     				rf_mod[34]=rventa1.preset[4]+0x30;
 5738              		.loc 1 1385 0
 5739 151c 034B     		ldr	r3, .L705
 5740 151e DB7F     		ldrb	r3, [r3, #31]	@ zero_extendqisi2
 5741 1520 3033     		adds	r3, r3, #48
 5742 1522 DAB2     		uxtb	r2, r3
 5743 1524 024B     		ldr	r3, .L705+4
 5744 1526 83F82220 		strb	r2, [r3, #34]
 5745 152a 0BE0     		b	.L706
 5746              	.L707:
 5747              		.align	2
 5748              	.L705:
 5749 152c 00000000 		.word	rventa1
 5750 1530 00000000 		.word	rf_mod
 5751 1534 00000000 		.word	lado1
 5752 1538 00000000 		.word	tipo_venta
 5753 153c 00000000 		.word	id_estacion
 5754 1540 00000000 		.word	ppux10
 5755              	.L706:
 5756              	.L296:
1386:.\main.c      ****     			}
1387:.\main.c      ****     			rf_mod[35]=rventa1.preset[3];
 5757              		.loc 1 1387 0
 5758 1544 4F4B     		ldr	r3, .L708
 5759 1546 9A7F     		ldrb	r2, [r3, #30]	@ zero_extendqisi2
 5760 1548 4F4B     		ldr	r3, .L708+4
 5761 154a 83F82320 		strb	r2, [r3, #35]
1388:.\main.c      ****     			if(rventa1.preset[3]<10){				
 5762              		.loc 1 1388 0
 5763 154e 4D4B     		ldr	r3, .L708
 5764 1550 9B7F     		ldrb	r3, [r3, #30]	@ zero_extendqisi2
 5765 1552 092B     		cmp	r3, #9
 5766 1554 06D8     		bhi	.L297
1389:.\main.c      ****     				rf_mod[35]=rventa1.preset[3]+0x30;
 5767              		.loc 1 1389 0
 5768 1556 4B4B     		ldr	r3, .L708
 5769 1558 9B7F     		ldrb	r3, [r3, #30]	@ zero_extendqisi2
 5770 155a 3033     		adds	r3, r3, #48
 5771 155c DAB2     		uxtb	r2, r3
 5772 155e 4A4B     		ldr	r3, .L708+4
 5773 1560 83F82320 		strb	r2, [r3, #35]
 5774              	.L297:
1390:.\main.c      ****     			}
1391:.\main.c      ****     			rf_mod[36]=rventa1.preset[2];
 5775              		.loc 1 1391 0
 5776 1564 474B     		ldr	r3, .L708
 5777 1566 5A7F     		ldrb	r2, [r3, #29]	@ zero_extendqisi2
 5778 1568 474B     		ldr	r3, .L708+4
 5779 156a 83F82420 		strb	r2, [r3, #36]
1392:.\main.c      ****     			if(rventa1.preset[2]<10){				
 5780              		.loc 1 1392 0
ARM GAS  C:\Users\RECEPC~1\AppData\Local\Temp\ccIpe7td.s 			page 129


 5781 156e 454B     		ldr	r3, .L708
 5782 1570 5B7F     		ldrb	r3, [r3, #29]	@ zero_extendqisi2
 5783 1572 092B     		cmp	r3, #9
 5784 1574 06D8     		bhi	.L298
1393:.\main.c      ****     				rf_mod[36]=rventa1.preset[2]+0x30;
 5785              		.loc 1 1393 0
 5786 1576 434B     		ldr	r3, .L708
 5787 1578 5B7F     		ldrb	r3, [r3, #29]	@ zero_extendqisi2
 5788 157a 3033     		adds	r3, r3, #48
 5789 157c DAB2     		uxtb	r2, r3
 5790 157e 424B     		ldr	r3, .L708+4
 5791 1580 83F82420 		strb	r2, [r3, #36]
 5792              	.L298:
1394:.\main.c      ****     			}
1395:.\main.c      ****     			rf_mod[37]=rventa1.preset[1];
 5793              		.loc 1 1395 0
 5794 1584 3F4B     		ldr	r3, .L708
 5795 1586 1A7F     		ldrb	r2, [r3, #28]	@ zero_extendqisi2
 5796 1588 3F4B     		ldr	r3, .L708+4
 5797 158a 83F82520 		strb	r2, [r3, #37]
1396:.\main.c      ****     			if(rventa1.preset[1]<10){				
 5798              		.loc 1 1396 0
 5799 158e 3D4B     		ldr	r3, .L708
 5800 1590 1B7F     		ldrb	r3, [r3, #28]	@ zero_extendqisi2
 5801 1592 092B     		cmp	r3, #9
 5802 1594 06D8     		bhi	.L299
1397:.\main.c      ****     				rf_mod[37]=rventa1.preset[1]+0x30;
 5803              		.loc 1 1397 0
 5804 1596 3B4B     		ldr	r3, .L708
 5805 1598 1B7F     		ldrb	r3, [r3, #28]	@ zero_extendqisi2
 5806 159a 3033     		adds	r3, r3, #48
 5807 159c DAB2     		uxtb	r2, r3
 5808 159e 3A4B     		ldr	r3, .L708+4
 5809 15a0 83F82520 		strb	r2, [r3, #37]
 5810              	.L299:
1398:.\main.c      ****     			}
1399:.\main.c      ****     			for(x=0;x<=6;x++){
 5811              		.loc 1 1399 0
 5812 15a4 0023     		movs	r3, #0
 5813 15a6 87F82F30 		strb	r3, [r7, #47]
 5814 15aa 12E0     		b	.L300
 5815              	.L301:
1400:.\main.c      ****     				rf_mod[38+x]=rventa1.km[x+1] + 48;
 5816              		.loc 1 1400 0 discriminator 3
 5817 15ac 97F82F30 		ldrb	r3, [r7, #47]	@ zero_extendqisi2
 5818 15b0 2633     		adds	r3, r3, #38
 5819 15b2 97F82F20 		ldrb	r2, [r7, #47]	@ zero_extendqisi2
 5820 15b6 0132     		adds	r2, r2, #1
 5821 15b8 3249     		ldr	r1, .L708
 5822 15ba 0A44     		add	r2, r2, r1
 5823 15bc 92F84320 		ldrb	r2, [r2, #67]	@ zero_extendqisi2
 5824 15c0 3032     		adds	r2, r2, #48
 5825 15c2 D1B2     		uxtb	r1, r2
 5826 15c4 304A     		ldr	r2, .L708+4
 5827 15c6 D154     		strb	r1, [r2, r3]
1399:.\main.c      ****     				rf_mod[38+x]=rventa1.km[x+1] + 48;
 5828              		.loc 1 1399 0 discriminator 3
ARM GAS  C:\Users\RECEPC~1\AppData\Local\Temp\ccIpe7td.s 			page 130


 5829 15c8 97F82F30 		ldrb	r3, [r7, #47]	@ zero_extendqisi2
 5830 15cc 0133     		adds	r3, r3, #1
 5831 15ce 87F82F30 		strb	r3, [r7, #47]
 5832              	.L300:
1399:.\main.c      ****     				rf_mod[38+x]=rventa1.km[x+1] + 48;
 5833              		.loc 1 1399 0 is_stmt 0 discriminator 1
 5834 15d2 97F82F30 		ldrb	r3, [r7, #47]	@ zero_extendqisi2
 5835 15d6 062B     		cmp	r3, #6
 5836 15d8 E8D9     		bls	.L301
 5837              	.L278:
1401:.\main.c      ****     			}
1402:.\main.c      ****             }
1403:.\main.c      ****             
1404:.\main.c      ****             if(seleccion_pos == 2){
 5838              		.loc 1 1404 0 is_stmt 1
 5839 15da 2C4B     		ldr	r3, .L708+8
 5840 15dc 1B78     		ldrb	r3, [r3]
 5841 15de DBB2     		uxtb	r3, r3
 5842 15e0 022B     		cmp	r3, #2
 5843 15e2 40F02482 		bne	.L302
1405:.\main.c      ****                 if (tipo_venta == 1){
 5844              		.loc 1 1405 0
 5845 15e6 2A4B     		ldr	r3, .L708+12
 5846 15e8 1B78     		ldrb	r3, [r3]	@ zero_extendqisi2
 5847 15ea 012B     		cmp	r3, #1
 5848 15ec 42D1     		bne	.L303
1406:.\main.c      ****     			    for(x=0;x<=15;x++){						//Serial				
 5849              		.loc 1 1406 0
 5850 15ee 0023     		movs	r3, #0
 5851 15f0 87F82F30 		strb	r3, [r7, #47]
 5852 15f4 3AE0     		b	.L304
 5853              	.L307:
1407:.\main.c      ****     				    y=(rventa2.id[x/2]>>4)&0x0F;
 5854              		.loc 1 1407 0
 5855 15f6 97F82F30 		ldrb	r3, [r7, #47]	@ zero_extendqisi2
 5856 15fa 5B08     		lsrs	r3, r3, #1
 5857 15fc DBB2     		uxtb	r3, r3
 5858 15fe 1A46     		mov	r2, r3
 5859 1600 244B     		ldr	r3, .L708+16
 5860 1602 1344     		add	r3, r3, r2
 5861 1604 93F82330 		ldrb	r3, [r3, #35]	@ zero_extendqisi2
 5862 1608 1B09     		lsrs	r3, r3, #4
 5863 160a 87F82E30 		strb	r3, [r7, #46]
1408:.\main.c      ****     				    if((x%2)==0){
 5864              		.loc 1 1408 0
 5865 160e 97F82F30 		ldrb	r3, [r7, #47]
 5866 1612 03F00103 		and	r3, r3, #1
 5867 1616 DBB2     		uxtb	r3, r3
 5868 1618 002B     		cmp	r3, #0
 5869 161a 0CD1     		bne	.L305
1409:.\main.c      ****     					    y=rventa2.id[x/2]&0x0F;
 5870              		.loc 1 1409 0
 5871 161c 97F82F30 		ldrb	r3, [r7, #47]	@ zero_extendqisi2
 5872 1620 5B08     		lsrs	r3, r3, #1
 5873 1622 DBB2     		uxtb	r3, r3
 5874 1624 1A46     		mov	r2, r3
 5875 1626 1B4B     		ldr	r3, .L708+16
ARM GAS  C:\Users\RECEPC~1\AppData\Local\Temp\ccIpe7td.s 			page 131


 5876 1628 1344     		add	r3, r3, r2
 5877 162a 93F82330 		ldrb	r3, [r3, #35]	@ zero_extendqisi2
 5878 162e 03F00F03 		and	r3, r3, #15
 5879 1632 87F82E30 		strb	r3, [r7, #46]
 5880              	.L305:
1410:.\main.c      ****     				    }
1411:.\main.c      ****     				    rf_mod[x+4] = y+48;
 5881              		.loc 1 1411 0
 5882 1636 97F82F30 		ldrb	r3, [r7, #47]	@ zero_extendqisi2
 5883 163a 0433     		adds	r3, r3, #4
 5884 163c 97F82E20 		ldrb	r2, [r7, #46]
 5885 1640 3032     		adds	r2, r2, #48
 5886 1642 D1B2     		uxtb	r1, r2
 5887 1644 104A     		ldr	r2, .L708+4
 5888 1646 D154     		strb	r1, [r2, r3]
1412:.\main.c      ****     				    if(y>9){
 5889              		.loc 1 1412 0
 5890 1648 97F82E30 		ldrb	r3, [r7, #46]	@ zero_extendqisi2
 5891 164c 092B     		cmp	r3, #9
 5892 164e 08D9     		bls	.L306
1413:.\main.c      ****     					    rf_mod[x+4] = y+55;
 5893              		.loc 1 1413 0
 5894 1650 97F82F30 		ldrb	r3, [r7, #47]	@ zero_extendqisi2
 5895 1654 0433     		adds	r3, r3, #4
 5896 1656 97F82E20 		ldrb	r2, [r7, #46]
 5897 165a 3732     		adds	r2, r2, #55
 5898 165c D1B2     		uxtb	r1, r2
 5899 165e 0A4A     		ldr	r2, .L708+4
 5900 1660 D154     		strb	r1, [r2, r3]
 5901              	.L306:
1406:.\main.c      ****     				    y=(rventa2.id[x/2]>>4)&0x0F;
 5902              		.loc 1 1406 0 discriminator 2
 5903 1662 97F82F30 		ldrb	r3, [r7, #47]	@ zero_extendqisi2
 5904 1666 0133     		adds	r3, r3, #1
 5905 1668 87F82F30 		strb	r3, [r7, #47]
 5906              	.L304:
1406:.\main.c      ****     				    y=(rventa2.id[x/2]>>4)&0x0F;
 5907              		.loc 1 1406 0 is_stmt 0 discriminator 1
 5908 166c 97F82F30 		ldrb	r3, [r7, #47]	@ zero_extendqisi2
 5909 1670 0F2B     		cmp	r3, #15
 5910 1672 C0D9     		bls	.L307
 5911              	.L303:
1414:.\main.c      ****     				    }
1415:.\main.c      ****     			    }                
1416:.\main.c      ****                 }
1417:.\main.c      ****                 if(tipo_venta == 0){
 5912              		.loc 1 1417 0 is_stmt 1
 5913 1674 064B     		ldr	r3, .L708+12
 5914 1676 1B78     		ldrb	r3, [r3]	@ zero_extendqisi2
 5915 1678 002B     		cmp	r3, #0
 5916 167a 4CD1     		bne	.L308
1418:.\main.c      ****                     for(x=0;x<=15;x++){						//Serial				
 5917              		.loc 1 1418 0
 5918 167c 0023     		movs	r3, #0
 5919 167e 87F82F30 		strb	r3, [r7, #47]
 5920 1682 44E0     		b	.L309
 5921              	.L709:
ARM GAS  C:\Users\RECEPC~1\AppData\Local\Temp\ccIpe7td.s 			page 132


 5922              		.align	2
 5923              	.L708:
 5924 1684 00000000 		.word	rventa1
 5925 1688 00000000 		.word	rf_mod
 5926 168c 00000000 		.word	seleccion_pos
 5927 1690 00000000 		.word	tipo_venta
 5928 1694 00000000 		.word	rventa2
 5929              	.L312:
1419:.\main.c      ****     				    y=(rventa2.id[x/2]>>4)&0x0F;
 5930              		.loc 1 1419 0
 5931 1698 97F82F30 		ldrb	r3, [r7, #47]	@ zero_extendqisi2
 5932 169c 5B08     		lsrs	r3, r3, #1
 5933 169e DBB2     		uxtb	r3, r3
 5934 16a0 1A46     		mov	r2, r3
 5935 16a2 B54B     		ldr	r3, .L710
 5936 16a4 1344     		add	r3, r3, r2
 5937 16a6 93F82330 		ldrb	r3, [r3, #35]	@ zero_extendqisi2
 5938 16aa 1B09     		lsrs	r3, r3, #4
 5939 16ac 87F82E30 		strb	r3, [r7, #46]
1420:.\main.c      ****     				    if((x%2)==0){
 5940              		.loc 1 1420 0
 5941 16b0 97F82F30 		ldrb	r3, [r7, #47]
 5942 16b4 03F00103 		and	r3, r3, #1
 5943 16b8 DBB2     		uxtb	r3, r3
 5944 16ba 002B     		cmp	r3, #0
 5945 16bc 0CD1     		bne	.L310
1421:.\main.c      ****     					    y=rventa2.id[x/2]&0x0F;
 5946              		.loc 1 1421 0
 5947 16be 97F82F30 		ldrb	r3, [r7, #47]	@ zero_extendqisi2
 5948 16c2 5B08     		lsrs	r3, r3, #1
 5949 16c4 DBB2     		uxtb	r3, r3
 5950 16c6 1A46     		mov	r2, r3
 5951 16c8 AB4B     		ldr	r3, .L710
 5952 16ca 1344     		add	r3, r3, r2
 5953 16cc 93F82330 		ldrb	r3, [r3, #35]	@ zero_extendqisi2
 5954 16d0 03F00F03 		and	r3, r3, #15
 5955 16d4 87F82E30 		strb	r3, [r7, #46]
 5956              	.L310:
1422:.\main.c      ****     				    }
1423:.\main.c      ****     				    rf_mod[x+4] = y+48;
 5957              		.loc 1 1423 0
 5958 16d8 97F82F30 		ldrb	r3, [r7, #47]	@ zero_extendqisi2
 5959 16dc 0433     		adds	r3, r3, #4
 5960 16de 97F82E20 		ldrb	r2, [r7, #46]
 5961 16e2 3032     		adds	r2, r2, #48
 5962 16e4 D1B2     		uxtb	r1, r2
 5963 16e6 A54A     		ldr	r2, .L710+4
 5964 16e8 D154     		strb	r1, [r2, r3]
1424:.\main.c      ****     				    if(y>9){
 5965              		.loc 1 1424 0
 5966 16ea 97F82E30 		ldrb	r3, [r7, #46]	@ zero_extendqisi2
 5967 16ee 092B     		cmp	r3, #9
 5968 16f0 08D9     		bls	.L311
1425:.\main.c      ****     					    rf_mod[x+4] = y+55;
 5969              		.loc 1 1425 0
 5970 16f2 97F82F30 		ldrb	r3, [r7, #47]	@ zero_extendqisi2
 5971 16f6 0433     		adds	r3, r3, #4
ARM GAS  C:\Users\RECEPC~1\AppData\Local\Temp\ccIpe7td.s 			page 133


 5972 16f8 97F82E20 		ldrb	r2, [r7, #46]
 5973 16fc 3732     		adds	r2, r2, #55
 5974 16fe D1B2     		uxtb	r1, r2
 5975 1700 9E4A     		ldr	r2, .L710+4
 5976 1702 D154     		strb	r1, [r2, r3]
 5977              	.L311:
1418:.\main.c      ****     				    y=(rventa2.id[x/2]>>4)&0x0F;
 5978              		.loc 1 1418 0 discriminator 2
 5979 1704 97F82F30 		ldrb	r3, [r7, #47]	@ zero_extendqisi2
 5980 1708 0133     		adds	r3, r3, #1
 5981 170a 87F82F30 		strb	r3, [r7, #47]
 5982              	.L309:
1418:.\main.c      ****     				    y=(rventa2.id[x/2]>>4)&0x0F;
 5983              		.loc 1 1418 0 is_stmt 0 discriminator 1
 5984 170e 97F82F30 		ldrb	r3, [r7, #47]	@ zero_extendqisi2
 5985 1712 0F2B     		cmp	r3, #15
 5986 1714 C0D9     		bls	.L312
 5987              	.L308:
1426:.\main.c      ****     				    }
1427:.\main.c      ****     			    }
1428:.\main.c      ****                 }
1429:.\main.c      ****     			rf_mod[20]=(lado2.grado[rventa2.manguera-1][0])+48;			//Id Producto
 5988              		.loc 1 1429 0 is_stmt 1
 5989 1716 984B     		ldr	r3, .L710
 5990 1718 9B7E     		ldrb	r3, [r3, #26]	@ zero_extendqisi2
 5991 171a 013B     		subs	r3, r3, #1
 5992 171c 984A     		ldr	r2, .L710+8
 5993 171e 1344     		add	r3, r3, r2
 5994 1720 93F85930 		ldrb	r3, [r3, #89]
 5995 1724 DBB2     		uxtb	r3, r3
 5996 1726 3033     		adds	r3, r3, #48
 5997 1728 DAB2     		uxtb	r2, r3
 5998 172a 944B     		ldr	r3, .L710+4
 5999 172c 1A75     		strb	r2, [r3, #20]
1430:.\main.c      ****                 if(tipo_venta == 0){
 6000              		.loc 1 1430 0
 6001 172e 954B     		ldr	r3, .L710+12
 6002 1730 1B78     		ldrb	r3, [r3]	@ zero_extendqisi2
 6003 1732 002B     		cmp	r3, #0
 6004 1734 13D1     		bne	.L313
1431:.\main.c      ****                     rf_mod[21]= id_estacion[4];								    //Id vehiculo
 6005              		.loc 1 1431 0
 6006 1736 944B     		ldr	r3, .L710+16
 6007 1738 1B79     		ldrb	r3, [r3, #4]
 6008 173a DAB2     		uxtb	r2, r3
 6009 173c 8F4B     		ldr	r3, .L710+4
 6010 173e 5A75     		strb	r2, [r3, #21]
1432:.\main.c      ****     			    rf_mod[22]= id_estacion[3];
 6011              		.loc 1 1432 0
 6012 1740 914B     		ldr	r3, .L710+16
 6013 1742 DB78     		ldrb	r3, [r3, #3]
 6014 1744 DAB2     		uxtb	r2, r3
 6015 1746 8D4B     		ldr	r3, .L710+4
 6016 1748 9A75     		strb	r2, [r3, #22]
1433:.\main.c      ****     			    rf_mod[23]= id_estacion[2];
 6017              		.loc 1 1433 0
 6018 174a 8F4B     		ldr	r3, .L710+16
ARM GAS  C:\Users\RECEPC~1\AppData\Local\Temp\ccIpe7td.s 			page 134


 6019 174c 9B78     		ldrb	r3, [r3, #2]
 6020 174e DAB2     		uxtb	r2, r3
 6021 1750 8A4B     		ldr	r3, .L710+4
 6022 1752 DA75     		strb	r2, [r3, #23]
1434:.\main.c      ****     			    rf_mod[24]= id_estacion[1];  
 6023              		.loc 1 1434 0
 6024 1754 8C4B     		ldr	r3, .L710+16
 6025 1756 5B78     		ldrb	r3, [r3, #1]
 6026 1758 DAB2     		uxtb	r2, r3
 6027 175a 884B     		ldr	r3, .L710+4
 6028 175c 1A76     		strb	r2, [r3, #24]
 6029              	.L313:
1435:.\main.c      ****                 }
1436:.\main.c      ****     			if(tipo_venta == 1){
 6030              		.loc 1 1436 0
 6031 175e 894B     		ldr	r3, .L710+12
 6032 1760 1B78     		ldrb	r3, [r3]	@ zero_extendqisi2
 6033 1762 012B     		cmp	r3, #1
 6034 1764 0BD1     		bne	.L314
1437:.\main.c      ****                     rf_mod[21]= '0';								    //Id Estación
 6035              		.loc 1 1437 0
 6036 1766 854B     		ldr	r3, .L710+4
 6037 1768 3022     		movs	r2, #48
 6038 176a 5A75     		strb	r2, [r3, #21]
1438:.\main.c      ****     			    rf_mod[22]= '0';
 6039              		.loc 1 1438 0
 6040 176c 834B     		ldr	r3, .L710+4
 6041 176e 3022     		movs	r2, #48
 6042 1770 9A75     		strb	r2, [r3, #22]
1439:.\main.c      ****     			    rf_mod[23]= '0';
 6043              		.loc 1 1439 0
 6044 1772 824B     		ldr	r3, .L710+4
 6045 1774 3022     		movs	r2, #48
 6046 1776 DA75     		strb	r2, [r3, #23]
1440:.\main.c      ****     			    rf_mod[24]= '0';  
 6047              		.loc 1 1440 0
 6048 1778 804B     		ldr	r3, .L710+4
 6049 177a 3022     		movs	r2, #48
 6050 177c 1A76     		strb	r2, [r3, #24]
 6051              	.L314:
1441:.\main.c      ****                 } 
1442:.\main.c      ****                 
1443:.\main.c      ****                 if(ppux10==0){
 6052              		.loc 1 1443 0
 6053 177e 834B     		ldr	r3, .L710+20
 6054 1780 1B78     		ldrb	r3, [r3]
 6055 1782 DBB2     		uxtb	r3, r3
 6056 1784 002B     		cmp	r3, #0
 6057 1786 59D1     		bne	.L315
1444:.\main.c      ****         			rf_mod[25]=(lado2.ppu[rventa2.manguera-1][4]&0x0F)+0x30;		//PPU
 6058              		.loc 1 1444 0
 6059 1788 7B4B     		ldr	r3, .L710
 6060 178a 9B7E     		ldrb	r3, [r3, #26]	@ zero_extendqisi2
 6061 178c 5A1E     		subs	r2, r3, #1
 6062 178e 7C49     		ldr	r1, .L710+8
 6063 1790 1346     		mov	r3, r2
 6064 1792 9B00     		lsls	r3, r3, #2
ARM GAS  C:\Users\RECEPC~1\AppData\Local\Temp\ccIpe7td.s 			page 135


 6065 1794 1344     		add	r3, r3, r2
 6066 1796 0B44     		add	r3, r3, r1
 6067 1798 4C33     		adds	r3, r3, #76
 6068 179a 9B78     		ldrb	r3, [r3, #2]
 6069 179c DBB2     		uxtb	r3, r3
 6070 179e 03F00F03 		and	r3, r3, #15
 6071 17a2 DBB2     		uxtb	r3, r3
 6072 17a4 3033     		adds	r3, r3, #48
 6073 17a6 DAB2     		uxtb	r2, r3
 6074 17a8 744B     		ldr	r3, .L710+4
 6075 17aa 5A76     		strb	r2, [r3, #25]
1445:.\main.c      ****         			rf_mod[26]=(lado2.ppu[rventa2.manguera-1][3]&0x0F)+0x30;
 6076              		.loc 1 1445 0
 6077 17ac 724B     		ldr	r3, .L710
 6078 17ae 9B7E     		ldrb	r3, [r3, #26]	@ zero_extendqisi2
 6079 17b0 5A1E     		subs	r2, r3, #1
 6080 17b2 7349     		ldr	r1, .L710+8
 6081 17b4 1346     		mov	r3, r2
 6082 17b6 9B00     		lsls	r3, r3, #2
 6083 17b8 1344     		add	r3, r3, r2
 6084 17ba 0B44     		add	r3, r3, r1
 6085 17bc 4B33     		adds	r3, r3, #75
 6086 17be 9B78     		ldrb	r3, [r3, #2]
 6087 17c0 DBB2     		uxtb	r3, r3
 6088 17c2 03F00F03 		and	r3, r3, #15
 6089 17c6 DBB2     		uxtb	r3, r3
 6090 17c8 3033     		adds	r3, r3, #48
 6091 17ca DAB2     		uxtb	r2, r3
 6092 17cc 6B4B     		ldr	r3, .L710+4
 6093 17ce 9A76     		strb	r2, [r3, #26]
1446:.\main.c      ****         			rf_mod[27]=(lado2.ppu[rventa2.manguera-1][2]&0x0F)+0x30;
 6094              		.loc 1 1446 0
 6095 17d0 694B     		ldr	r3, .L710
 6096 17d2 9B7E     		ldrb	r3, [r3, #26]	@ zero_extendqisi2
 6097 17d4 5A1E     		subs	r2, r3, #1
 6098 17d6 6A49     		ldr	r1, .L710+8
 6099 17d8 1346     		mov	r3, r2
 6100 17da 9B00     		lsls	r3, r3, #2
 6101 17dc 1344     		add	r3, r3, r2
 6102 17de 0B44     		add	r3, r3, r1
 6103 17e0 4A33     		adds	r3, r3, #74
 6104 17e2 9B78     		ldrb	r3, [r3, #2]
 6105 17e4 DBB2     		uxtb	r3, r3
 6106 17e6 03F00F03 		and	r3, r3, #15
 6107 17ea DBB2     		uxtb	r3, r3
 6108 17ec 3033     		adds	r3, r3, #48
 6109 17ee DAB2     		uxtb	r2, r3
 6110 17f0 624B     		ldr	r3, .L710+4
 6111 17f2 DA76     		strb	r2, [r3, #27]
1447:.\main.c      ****         			rf_mod[28]=(lado2.ppu[rventa2.manguera-1][1]&0x0F)+0x30;
 6112              		.loc 1 1447 0
 6113 17f4 604B     		ldr	r3, .L710
 6114 17f6 9B7E     		ldrb	r3, [r3, #26]	@ zero_extendqisi2
 6115 17f8 5A1E     		subs	r2, r3, #1
 6116 17fa 6149     		ldr	r1, .L710+8
 6117 17fc 1346     		mov	r3, r2
 6118 17fe 9B00     		lsls	r3, r3, #2
ARM GAS  C:\Users\RECEPC~1\AppData\Local\Temp\ccIpe7td.s 			page 136


 6119 1800 1344     		add	r3, r3, r2
 6120 1802 0B44     		add	r3, r3, r1
 6121 1804 4933     		adds	r3, r3, #73
 6122 1806 9B78     		ldrb	r3, [r3, #2]
 6123 1808 DBB2     		uxtb	r3, r3
 6124 180a 03F00F03 		and	r3, r3, #15
 6125 180e DBB2     		uxtb	r3, r3
 6126 1810 3033     		adds	r3, r3, #48
 6127 1812 DAB2     		uxtb	r2, r3
 6128 1814 594B     		ldr	r3, .L710+4
 6129 1816 1A77     		strb	r2, [r3, #28]
1448:.\main.c      ****         			rf_mod[29]=(lado2.ppu[rventa2.manguera-1][0]&0x0F)+0x30;
 6130              		.loc 1 1448 0
 6131 1818 574B     		ldr	r3, .L710
 6132 181a 9B7E     		ldrb	r3, [r3, #26]	@ zero_extendqisi2
 6133 181c 5A1E     		subs	r2, r3, #1
 6134 181e 5849     		ldr	r1, .L710+8
 6135 1820 1346     		mov	r3, r2
 6136 1822 9B00     		lsls	r3, r3, #2
 6137 1824 1344     		add	r3, r3, r2
 6138 1826 0B44     		add	r3, r3, r1
 6139 1828 4833     		adds	r3, r3, #72
 6140 182a 9B78     		ldrb	r3, [r3, #2]
 6141 182c DBB2     		uxtb	r3, r3
 6142 182e 03F00F03 		and	r3, r3, #15
 6143 1832 DBB2     		uxtb	r3, r3
 6144 1834 3033     		adds	r3, r3, #48
 6145 1836 DAB2     		uxtb	r2, r3
 6146 1838 504B     		ldr	r3, .L710+4
 6147 183a 5A77     		strb	r2, [r3, #29]
 6148              	.L315:
1449:.\main.c      ****                 }
1450:.\main.c      ****                 if(ppux10==1){
 6149              		.loc 1 1450 0
 6150 183c 534B     		ldr	r3, .L710+20
 6151 183e 1B78     		ldrb	r3, [r3]
 6152 1840 DBB2     		uxtb	r3, r3
 6153 1842 012B     		cmp	r3, #1
 6154 1844 4AD1     		bne	.L316
1451:.\main.c      ****         			rf_mod[25]=(lado1.ppu[rventa2.manguera-1][3]&0x0F)+0x30;		//PPUx10
 6155              		.loc 1 1451 0
 6156 1846 4C4B     		ldr	r3, .L710
 6157 1848 9B7E     		ldrb	r3, [r3, #26]	@ zero_extendqisi2
 6158 184a 5A1E     		subs	r2, r3, #1
 6159 184c 5049     		ldr	r1, .L710+24
 6160 184e 1346     		mov	r3, r2
 6161 1850 9B00     		lsls	r3, r3, #2
 6162 1852 1344     		add	r3, r3, r2
 6163 1854 0B44     		add	r3, r3, r1
 6164 1856 4B33     		adds	r3, r3, #75
 6165 1858 9B78     		ldrb	r3, [r3, #2]
 6166 185a DBB2     		uxtb	r3, r3
 6167 185c 03F00F03 		and	r3, r3, #15
 6168 1860 DBB2     		uxtb	r3, r3
 6169 1862 3033     		adds	r3, r3, #48
 6170 1864 DAB2     		uxtb	r2, r3
 6171 1866 454B     		ldr	r3, .L710+4
ARM GAS  C:\Users\RECEPC~1\AppData\Local\Temp\ccIpe7td.s 			page 137


 6172 1868 5A76     		strb	r2, [r3, #25]
1452:.\main.c      ****         			rf_mod[26]=(lado1.ppu[rventa2.manguera-1][2]&0x0F)+0x30;
 6173              		.loc 1 1452 0
 6174 186a 434B     		ldr	r3, .L710
 6175 186c 9B7E     		ldrb	r3, [r3, #26]	@ zero_extendqisi2
 6176 186e 5A1E     		subs	r2, r3, #1
 6177 1870 4749     		ldr	r1, .L710+24
 6178 1872 1346     		mov	r3, r2
 6179 1874 9B00     		lsls	r3, r3, #2
 6180 1876 1344     		add	r3, r3, r2
 6181 1878 0B44     		add	r3, r3, r1
 6182 187a 4A33     		adds	r3, r3, #74
 6183 187c 9B78     		ldrb	r3, [r3, #2]
 6184 187e DBB2     		uxtb	r3, r3
 6185 1880 03F00F03 		and	r3, r3, #15
 6186 1884 DBB2     		uxtb	r3, r3
 6187 1886 3033     		adds	r3, r3, #48
 6188 1888 DAB2     		uxtb	r2, r3
 6189 188a 3C4B     		ldr	r3, .L710+4
 6190 188c 9A76     		strb	r2, [r3, #26]
1453:.\main.c      ****         			rf_mod[27]=(lado1.ppu[rventa2.manguera-1][1]&0x0F)+0x30;
 6191              		.loc 1 1453 0
 6192 188e 3A4B     		ldr	r3, .L710
 6193 1890 9B7E     		ldrb	r3, [r3, #26]	@ zero_extendqisi2
 6194 1892 5A1E     		subs	r2, r3, #1
 6195 1894 3E49     		ldr	r1, .L710+24
 6196 1896 1346     		mov	r3, r2
 6197 1898 9B00     		lsls	r3, r3, #2
 6198 189a 1344     		add	r3, r3, r2
 6199 189c 0B44     		add	r3, r3, r1
 6200 189e 4933     		adds	r3, r3, #73
 6201 18a0 9B78     		ldrb	r3, [r3, #2]
 6202 18a2 DBB2     		uxtb	r3, r3
 6203 18a4 03F00F03 		and	r3, r3, #15
 6204 18a8 DBB2     		uxtb	r3, r3
 6205 18aa 3033     		adds	r3, r3, #48
 6206 18ac DAB2     		uxtb	r2, r3
 6207 18ae 334B     		ldr	r3, .L710+4
 6208 18b0 DA76     		strb	r2, [r3, #27]
1454:.\main.c      ****         			rf_mod[28]=(lado1.ppu[rventa2.manguera-1][0]&0x0F)+0x30;
 6209              		.loc 1 1454 0
 6210 18b2 314B     		ldr	r3, .L710
 6211 18b4 9B7E     		ldrb	r3, [r3, #26]	@ zero_extendqisi2
 6212 18b6 5A1E     		subs	r2, r3, #1
 6213 18b8 3549     		ldr	r1, .L710+24
 6214 18ba 1346     		mov	r3, r2
 6215 18bc 9B00     		lsls	r3, r3, #2
 6216 18be 1344     		add	r3, r3, r2
 6217 18c0 0B44     		add	r3, r3, r1
 6218 18c2 4833     		adds	r3, r3, #72
 6219 18c4 9B78     		ldrb	r3, [r3, #2]
 6220 18c6 DBB2     		uxtb	r3, r3
 6221 18c8 03F00F03 		and	r3, r3, #15
 6222 18cc DBB2     		uxtb	r3, r3
 6223 18ce 3033     		adds	r3, r3, #48
 6224 18d0 DAB2     		uxtb	r2, r3
 6225 18d2 2A4B     		ldr	r3, .L710+4
ARM GAS  C:\Users\RECEPC~1\AppData\Local\Temp\ccIpe7td.s 			page 138


 6226 18d4 1A77     		strb	r2, [r3, #28]
1455:.\main.c      ****         			rf_mod[29]=0x30;   
 6227              		.loc 1 1455 0
 6228 18d6 294B     		ldr	r3, .L710+4
 6229 18d8 3022     		movs	r2, #48
 6230 18da 5A77     		strb	r2, [r3, #29]
 6231              	.L316:
1456:.\main.c      ****                 }
1457:.\main.c      ****     			rf_mod[30]=(rventa2.preset[0]+48);								//Tipo de Preset
 6232              		.loc 1 1457 0
 6233 18dc 264B     		ldr	r3, .L710
 6234 18de DB7E     		ldrb	r3, [r3, #27]	@ zero_extendqisi2
 6235 18e0 3033     		adds	r3, r3, #48
 6236 18e2 DAB2     		uxtb	r2, r3
 6237 18e4 254B     		ldr	r3, .L710+4
 6238 18e6 9A77     		strb	r2, [r3, #30]
1458:.\main.c      ****     			rf_mod[31]=rventa2.preset[7];									//Preset
 6239              		.loc 1 1458 0
 6240 18e8 234B     		ldr	r3, .L710
 6241 18ea 93F82220 		ldrb	r2, [r3, #34]	@ zero_extendqisi2
 6242 18ee 234B     		ldr	r3, .L710+4
 6243 18f0 DA77     		strb	r2, [r3, #31]
1459:.\main.c      ****     			if(rventa1.preset[7]<10){				
 6244              		.loc 1 1459 0
 6245 18f2 284B     		ldr	r3, .L710+28
 6246 18f4 93F82230 		ldrb	r3, [r3, #34]	@ zero_extendqisi2
 6247 18f8 092B     		cmp	r3, #9
 6248 18fa 06D8     		bhi	.L317
1460:.\main.c      ****     				rf_mod[31]=rventa2.preset[7]+0x30;							
 6249              		.loc 1 1460 0
 6250 18fc 1E4B     		ldr	r3, .L710
 6251 18fe 93F82230 		ldrb	r3, [r3, #34]	@ zero_extendqisi2
 6252 1902 3033     		adds	r3, r3, #48
 6253 1904 DAB2     		uxtb	r2, r3
 6254 1906 1D4B     		ldr	r3, .L710+4
 6255 1908 DA77     		strb	r2, [r3, #31]
 6256              	.L317:
1461:.\main.c      ****     			}
1462:.\main.c      ****     			rf_mod[32]=rventa2.preset[6];
 6257              		.loc 1 1462 0
 6258 190a 1B4B     		ldr	r3, .L710
 6259 190c 93F82120 		ldrb	r2, [r3, #33]	@ zero_extendqisi2
 6260 1910 1A4B     		ldr	r3, .L710+4
 6261 1912 83F82020 		strb	r2, [r3, #32]
1463:.\main.c      ****     			if(rventa1.preset[6]<10){				
 6262              		.loc 1 1463 0
 6263 1916 1F4B     		ldr	r3, .L710+28
 6264 1918 93F82130 		ldrb	r3, [r3, #33]	@ zero_extendqisi2
 6265 191c 092B     		cmp	r3, #9
 6266 191e 07D8     		bhi	.L318
1464:.\main.c      ****     				rf_mod[32]=rventa2.preset[6]+0x30;
 6267              		.loc 1 1464 0
 6268 1920 154B     		ldr	r3, .L710
 6269 1922 93F82130 		ldrb	r3, [r3, #33]	@ zero_extendqisi2
 6270 1926 3033     		adds	r3, r3, #48
 6271 1928 DAB2     		uxtb	r2, r3
 6272 192a 144B     		ldr	r3, .L710+4
ARM GAS  C:\Users\RECEPC~1\AppData\Local\Temp\ccIpe7td.s 			page 139


 6273 192c 83F82020 		strb	r2, [r3, #32]
 6274              	.L318:
1465:.\main.c      ****     			}
1466:.\main.c      ****     			rf_mod[33]=rventa2.preset[5];
 6275              		.loc 1 1466 0
 6276 1930 114B     		ldr	r3, .L710
 6277 1932 93F82020 		ldrb	r2, [r3, #32]	@ zero_extendqisi2
 6278 1936 114B     		ldr	r3, .L710+4
 6279 1938 83F82120 		strb	r2, [r3, #33]
1467:.\main.c      ****     			if(rventa2.preset[5]<10){				
 6280              		.loc 1 1467 0
 6281 193c 0E4B     		ldr	r3, .L710
 6282 193e 93F82030 		ldrb	r3, [r3, #32]	@ zero_extendqisi2
 6283 1942 092B     		cmp	r3, #9
 6284 1944 07D8     		bhi	.L319
1468:.\main.c      ****     				rf_mod[33]=rventa2.preset[5]+0x30;
 6285              		.loc 1 1468 0
 6286 1946 0C4B     		ldr	r3, .L710
 6287 1948 93F82030 		ldrb	r3, [r3, #32]	@ zero_extendqisi2
 6288 194c 3033     		adds	r3, r3, #48
 6289 194e DAB2     		uxtb	r2, r3
 6290 1950 0A4B     		ldr	r3, .L710+4
 6291 1952 83F82120 		strb	r2, [r3, #33]
 6292              	.L319:
1469:.\main.c      ****     			}
1470:.\main.c      ****     			rf_mod[34]=rventa2.preset[4];
 6293              		.loc 1 1470 0
 6294 1956 084B     		ldr	r3, .L710
 6295 1958 DA7F     		ldrb	r2, [r3, #31]	@ zero_extendqisi2
 6296 195a 084B     		ldr	r3, .L710+4
 6297 195c 83F82220 		strb	r2, [r3, #34]
1471:.\main.c      ****     			if(rventa2.preset[4]<10){				
 6298              		.loc 1 1471 0
 6299 1960 054B     		ldr	r3, .L710
 6300 1962 DB7F     		ldrb	r3, [r3, #31]	@ zero_extendqisi2
 6301 1964 092B     		cmp	r3, #9
 6302 1966 17D8     		bhi	.L320
1472:.\main.c      ****     				rf_mod[34]=rventa2.preset[4]+0x30;
 6303              		.loc 1 1472 0
 6304 1968 034B     		ldr	r3, .L710
 6305 196a DB7F     		ldrb	r3, [r3, #31]	@ zero_extendqisi2
 6306 196c 3033     		adds	r3, r3, #48
 6307 196e DAB2     		uxtb	r2, r3
 6308 1970 024B     		ldr	r3, .L710+4
 6309 1972 83F82220 		strb	r2, [r3, #34]
 6310 1976 0FE0     		b	.L711
 6311              	.L712:
 6312              		.align	2
 6313              	.L710:
 6314 1978 00000000 		.word	rventa2
 6315 197c 00000000 		.word	rf_mod
 6316 1980 00000000 		.word	lado2
 6317 1984 00000000 		.word	tipo_venta
 6318 1988 00000000 		.word	id_estacion
 6319 198c 00000000 		.word	ppux10
 6320 1990 00000000 		.word	lado1
 6321 1994 00000000 		.word	rventa1
ARM GAS  C:\Users\RECEPC~1\AppData\Local\Temp\ccIpe7td.s 			page 140


 6322              	.L711:
 6323              	.L320:
1473:.\main.c      ****     			}
1474:.\main.c      ****     			rf_mod[35]=rventa2.preset[3];
 6324              		.loc 1 1474 0
 6325 1998 9D4B     		ldr	r3, .L713
 6326 199a 9A7F     		ldrb	r2, [r3, #30]	@ zero_extendqisi2
 6327 199c 9D4B     		ldr	r3, .L713+4
 6328 199e 83F82320 		strb	r2, [r3, #35]
1475:.\main.c      ****     			if(rventa2.preset[3]<10){				
 6329              		.loc 1 1475 0
 6330 19a2 9B4B     		ldr	r3, .L713
 6331 19a4 9B7F     		ldrb	r3, [r3, #30]	@ zero_extendqisi2
 6332 19a6 092B     		cmp	r3, #9
 6333 19a8 06D8     		bhi	.L321
1476:.\main.c      ****     				rf_mod[35]=rventa2.preset[3]+0x30;
 6334              		.loc 1 1476 0
 6335 19aa 994B     		ldr	r3, .L713
 6336 19ac 9B7F     		ldrb	r3, [r3, #30]	@ zero_extendqisi2
 6337 19ae 3033     		adds	r3, r3, #48
 6338 19b0 DAB2     		uxtb	r2, r3
 6339 19b2 984B     		ldr	r3, .L713+4
 6340 19b4 83F82320 		strb	r2, [r3, #35]
 6341              	.L321:
1477:.\main.c      ****     			}
1478:.\main.c      ****     			rf_mod[36]=rventa2.preset[2];
 6342              		.loc 1 1478 0
 6343 19b8 954B     		ldr	r3, .L713
 6344 19ba 5A7F     		ldrb	r2, [r3, #29]	@ zero_extendqisi2
 6345 19bc 954B     		ldr	r3, .L713+4
 6346 19be 83F82420 		strb	r2, [r3, #36]
1479:.\main.c      ****     			if(rventa2.preset[2]<10){				
 6347              		.loc 1 1479 0
 6348 19c2 934B     		ldr	r3, .L713
 6349 19c4 5B7F     		ldrb	r3, [r3, #29]	@ zero_extendqisi2
 6350 19c6 092B     		cmp	r3, #9
 6351 19c8 06D8     		bhi	.L322
1480:.\main.c      ****     				rf_mod[36]=rventa2.preset[2]+0x30;
 6352              		.loc 1 1480 0
 6353 19ca 914B     		ldr	r3, .L713
 6354 19cc 5B7F     		ldrb	r3, [r3, #29]	@ zero_extendqisi2
 6355 19ce 3033     		adds	r3, r3, #48
 6356 19d0 DAB2     		uxtb	r2, r3
 6357 19d2 904B     		ldr	r3, .L713+4
 6358 19d4 83F82420 		strb	r2, [r3, #36]
 6359              	.L322:
1481:.\main.c      ****     			}
1482:.\main.c      ****     			rf_mod[37]=rventa2.preset[1];
 6360              		.loc 1 1482 0
 6361 19d8 8D4B     		ldr	r3, .L713
 6362 19da 1A7F     		ldrb	r2, [r3, #28]	@ zero_extendqisi2
 6363 19dc 8D4B     		ldr	r3, .L713+4
 6364 19de 83F82520 		strb	r2, [r3, #37]
1483:.\main.c      ****     			if(rventa2.preset[1]<10){				
 6365              		.loc 1 1483 0
 6366 19e2 8B4B     		ldr	r3, .L713
 6367 19e4 1B7F     		ldrb	r3, [r3, #28]	@ zero_extendqisi2
ARM GAS  C:\Users\RECEPC~1\AppData\Local\Temp\ccIpe7td.s 			page 141


 6368 19e6 092B     		cmp	r3, #9
 6369 19e8 06D8     		bhi	.L323
1484:.\main.c      ****     				rf_mod[37]=rventa2.preset[1]+0x30;
 6370              		.loc 1 1484 0
 6371 19ea 894B     		ldr	r3, .L713
 6372 19ec 1B7F     		ldrb	r3, [r3, #28]	@ zero_extendqisi2
 6373 19ee 3033     		adds	r3, r3, #48
 6374 19f0 DAB2     		uxtb	r2, r3
 6375 19f2 884B     		ldr	r3, .L713+4
 6376 19f4 83F82520 		strb	r2, [r3, #37]
 6377              	.L323:
1485:.\main.c      ****     			}
1486:.\main.c      ****     			for(x=0;x<=6;x++){
 6378              		.loc 1 1486 0
 6379 19f8 0023     		movs	r3, #0
 6380 19fa 87F82F30 		strb	r3, [r7, #47]
 6381 19fe 12E0     		b	.L324
 6382              	.L325:
1487:.\main.c      ****     				rf_mod[38+x]=rventa2.km[x+1] + 48;
 6383              		.loc 1 1487 0 discriminator 3
 6384 1a00 97F82F30 		ldrb	r3, [r7, #47]	@ zero_extendqisi2
 6385 1a04 2633     		adds	r3, r3, #38
 6386 1a06 97F82F20 		ldrb	r2, [r7, #47]	@ zero_extendqisi2
 6387 1a0a 0132     		adds	r2, r2, #1
 6388 1a0c 8049     		ldr	r1, .L713
 6389 1a0e 0A44     		add	r2, r2, r1
 6390 1a10 92F84320 		ldrb	r2, [r2, #67]	@ zero_extendqisi2
 6391 1a14 3032     		adds	r2, r2, #48
 6392 1a16 D1B2     		uxtb	r1, r2
 6393 1a18 7E4A     		ldr	r2, .L713+4
 6394 1a1a D154     		strb	r1, [r2, r3]
1486:.\main.c      ****     				rf_mod[38+x]=rventa2.km[x+1] + 48;
 6395              		.loc 1 1486 0 discriminator 3
 6396 1a1c 97F82F30 		ldrb	r3, [r7, #47]	@ zero_extendqisi2
 6397 1a20 0133     		adds	r3, r3, #1
 6398 1a22 87F82F30 		strb	r3, [r7, #47]
 6399              	.L324:
1486:.\main.c      ****     				rf_mod[38+x]=rventa2.km[x+1] + 48;
 6400              		.loc 1 1486 0 is_stmt 0 discriminator 1
 6401 1a26 97F82F30 		ldrb	r3, [r7, #47]	@ zero_extendqisi2
 6402 1a2a 062B     		cmp	r3, #6
 6403 1a2c E8D9     		bls	.L325
 6404              	.L302:
1488:.\main.c      ****     			}
1489:.\main.c      ****             }
1490:.\main.c      **** 			rf_mod[45]=0x31;
 6405              		.loc 1 1490 0 is_stmt 1
 6406 1a2e 794B     		ldr	r3, .L713+4
 6407 1a30 3122     		movs	r2, #49
 6408 1a32 83F82D20 		strb	r2, [r3, #45]
1491:.\main.c      **** 			rf_mod[46]='*';
 6409              		.loc 1 1491 0
 6410 1a36 774B     		ldr	r3, .L713+4
 6411 1a38 2A22     		movs	r2, #42
 6412 1a3a 83F82E20 		strb	r2, [r3, #46]
1492:.\main.c      **** 			PC_ClearRxBuffer();				
 6413              		.loc 1 1492 0
ARM GAS  C:\Users\RECEPC~1\AppData\Local\Temp\ccIpe7td.s 			page 142


 6414 1a3e FFF7FEFF 		bl	PC_ClearRxBuffer
1493:.\main.c      **** 		    for(x=0;x<=46;x++){
 6415              		.loc 1 1493 0
 6416 1a42 0023     		movs	r3, #0
 6417 1a44 87F82F30 		strb	r3, [r7, #47]
 6418 1a48 0BE0     		b	.L326
 6419              	.L327:
1494:.\main.c      **** 			   PC_PutChar(rf_mod[x]);
 6420              		.loc 1 1494 0 discriminator 3
 6421 1a4a 97F82F30 		ldrb	r3, [r7, #47]	@ zero_extendqisi2
 6422 1a4e 714A     		ldr	r2, .L713+4
 6423 1a50 D35C     		ldrb	r3, [r2, r3]	@ zero_extendqisi2
 6424 1a52 1846     		mov	r0, r3
 6425 1a54 FFF7FEFF 		bl	PC_PutChar
1493:.\main.c      **** 		    for(x=0;x<=46;x++){
 6426              		.loc 1 1493 0 discriminator 3
 6427 1a58 97F82F30 		ldrb	r3, [r7, #47]	@ zero_extendqisi2
 6428 1a5c 0133     		adds	r3, r3, #1
 6429 1a5e 87F82F30 		strb	r3, [r7, #47]
 6430              	.L326:
1493:.\main.c      **** 		    for(x=0;x<=46;x++){
 6431              		.loc 1 1493 0 is_stmt 0 discriminator 1
 6432 1a62 97F82F30 		ldrb	r3, [r7, #47]	@ zero_extendqisi2
 6433 1a66 2E2B     		cmp	r3, #46
 6434 1a68 EFD9     		bls	.L327
1495:.\main.c      **** 		    }	            
1496:.\main.c      **** 			CyDelay(350);			
 6435              		.loc 1 1496 0 is_stmt 1
 6436 1a6a 4FF4AF70 		mov	r0, #350
 6437 1a6e FFF7FEFF 		bl	CyDelay
1497:.\main.c      ****             PC_ClearTxBuffer();
 6438              		.loc 1 1497 0
 6439 1a72 FFF7FEFF 		bl	PC_ClearTxBuffer
1498:.\main.c      **** 		break;
 6440              		.loc 1 1498 0
 6441 1a76 03F0D3B9 		b	.L131
 6442              	.L143:
1499:.\main.c      ****             
1500:.\main.c      ****         
1501:.\main.c      ****             
1502:.\main.c      ****         case 11:    
1503:.\main.c      ****             if(seleccion_pos == 1){
 6443              		.loc 1 1503 0
 6444 1a7a 674B     		ldr	r3, .L713+8
 6445 1a7c 1B78     		ldrb	r3, [r3]
 6446 1a7e DBB2     		uxtb	r3, r3
 6447 1a80 012B     		cmp	r3, #1
 6448 1a82 40F09180 		bne	.L328
1504:.\main.c      ****                 if(touch_present(1)==1){
 6449              		.loc 1 1504 0
 6450 1a86 0120     		movs	r0, #1
 6451 1a88 FFF7FEFF 		bl	touch_present
 6452 1a8c 0346     		mov	r3, r0
 6453 1a8e 012B     		cmp	r3, #1
 6454 1a90 40F08A80 		bne	.L328
1505:.\main.c      ****                     if(touch_write(1,0x33)){
 6455              		.loc 1 1505 0
ARM GAS  C:\Users\RECEPC~1\AppData\Local\Temp\ccIpe7td.s 			page 143


 6456 1a94 0120     		movs	r0, #1
 6457 1a96 3321     		movs	r1, #51
 6458 1a98 FFF7FEFF 		bl	touch_write
 6459 1a9c 0346     		mov	r3, r0
 6460 1a9e 002B     		cmp	r3, #0
 6461 1aa0 00F08280 		beq	.L328
1506:.\main.c      ****     	                for(x=0;x<=7;x++){
 6462              		.loc 1 1506 0
 6463 1aa4 0023     		movs	r3, #0
 6464 1aa6 87F82F30 		strb	r3, [r7, #47]
 6465 1aaa 0FE0     		b	.L329
 6466              	.L330:
1507:.\main.c      ****     	                    rventa1.id[x]=touch_read_byte(1);
 6467              		.loc 1 1507 0 discriminator 3
 6468 1aac 97F82F40 		ldrb	r4, [r7, #47]	@ zero_extendqisi2
 6469 1ab0 0120     		movs	r0, #1
 6470 1ab2 FFF7FEFF 		bl	touch_read_byte
 6471 1ab6 0346     		mov	r3, r0
 6472 1ab8 1A46     		mov	r2, r3
 6473 1aba 584B     		ldr	r3, .L713+12
 6474 1abc 2344     		add	r3, r3, r4
 6475 1abe 83F82320 		strb	r2, [r3, #35]
1506:.\main.c      ****     	                for(x=0;x<=7;x++){
 6476              		.loc 1 1506 0 discriminator 3
 6477 1ac2 97F82F30 		ldrb	r3, [r7, #47]	@ zero_extendqisi2
 6478 1ac6 0133     		adds	r3, r3, #1
 6479 1ac8 87F82F30 		strb	r3, [r7, #47]
 6480              	.L329:
1506:.\main.c      ****     	                for(x=0;x<=7;x++){
 6481              		.loc 1 1506 0 is_stmt 0 discriminator 1
 6482 1acc 97F82F30 		ldrb	r3, [r7, #47]	@ zero_extendqisi2
 6483 1ad0 072B     		cmp	r3, #7
 6484 1ad2 EBD9     		bls	.L330
1508:.\main.c      ****     	                }
1509:.\main.c      ****     				    crc_total=0;
 6485              		.loc 1 1509 0 is_stmt 1
 6486 1ad4 524B     		ldr	r3, .L713+16
 6487 1ad6 0022     		movs	r2, #0
 6488 1ad8 1A70     		strb	r2, [r3]
1510:.\main.c      ****     				    for(x=0;x<7;x++){
 6489              		.loc 1 1510 0
 6490 1ada 0023     		movs	r3, #0
 6491 1adc 87F82F30 		strb	r3, [r7, #47]
 6492 1ae0 14E0     		b	.L331
 6493              	.L332:
1511:.\main.c      ****     				 	    crc_total=crc_check(crc_total,rventa1.id[x]);
 6494              		.loc 1 1511 0 discriminator 3
 6495 1ae2 4F4B     		ldr	r3, .L713+16
 6496 1ae4 1978     		ldrb	r1, [r3]	@ zero_extendqisi2
 6497 1ae6 97F82F30 		ldrb	r3, [r7, #47]	@ zero_extendqisi2
 6498 1aea 4C4A     		ldr	r2, .L713+12
 6499 1aec 1344     		add	r3, r3, r2
 6500 1aee 93F82330 		ldrb	r3, [r3, #35]	@ zero_extendqisi2
 6501 1af2 0846     		mov	r0, r1
 6502 1af4 1946     		mov	r1, r3
 6503 1af6 FFF7FEFF 		bl	crc_check
 6504 1afa 0346     		mov	r3, r0
ARM GAS  C:\Users\RECEPC~1\AppData\Local\Temp\ccIpe7td.s 			page 144


 6505 1afc 1A46     		mov	r2, r3
 6506 1afe 484B     		ldr	r3, .L713+16
 6507 1b00 1A70     		strb	r2, [r3]
1510:.\main.c      ****     				    for(x=0;x<7;x++){
 6508              		.loc 1 1510 0 discriminator 3
 6509 1b02 97F82F30 		ldrb	r3, [r7, #47]	@ zero_extendqisi2
 6510 1b06 0133     		adds	r3, r3, #1
 6511 1b08 87F82F30 		strb	r3, [r7, #47]
 6512              	.L331:
1510:.\main.c      ****     				    for(x=0;x<7;x++){
 6513              		.loc 1 1510 0 is_stmt 0 discriminator 1
 6514 1b0c 97F82F30 		ldrb	r3, [r7, #47]	@ zero_extendqisi2
 6515 1b10 062B     		cmp	r3, #6
 6516 1b12 E6D9     		bls	.L332
1512:.\main.c      ****     				    }					
1513:.\main.c      ****     				    if(crc_total==rventa1.id[7]){
 6517              		.loc 1 1513 0 is_stmt 1
 6518 1b14 414B     		ldr	r3, .L713+12
 6519 1b16 93F82A20 		ldrb	r2, [r3, #42]	@ zero_extendqisi2
 6520 1b1a 414B     		ldr	r3, .L713+16
 6521 1b1c 1B78     		ldrb	r3, [r3]	@ zero_extendqisi2
 6522 1b1e 9A42     		cmp	r2, r3
 6523 1b20 42D1     		bne	.L328
1514:.\main.c      ****     		                set_imagen(1,19);
 6524              		.loc 1 1514 0
 6525 1b22 0120     		movs	r0, #1
 6526 1b24 1321     		movs	r1, #19
 6527 1b26 FFF7FEFF 		bl	set_imagen
1515:.\main.c      ****     		                CyDelay(500);					 				 
 6528              		.loc 1 1515 0
 6529 1b2a 4FF4FA70 		mov	r0, #500
 6530 1b2e FFF7FEFF 		bl	CyDelay
1516:.\main.c      ****     					    count_teclas1=0;							//Inicia el contador de teclas						    
 6531              		.loc 1 1516 0
 6532 1b32 3C4B     		ldr	r3, .L713+20
 6533 1b34 0022     		movs	r2, #0
 6534 1b36 1A70     		strb	r2, [r3]
1517:.\main.c      ****     					    teclas1=10;
 6535              		.loc 1 1517 0
 6536 1b38 3B4B     		ldr	r3, .L713+24
 6537 1b3a 0A22     		movs	r2, #10
 6538 1b3c 1A70     		strb	r2, [r3]
1518:.\main.c      ****     					    posx1=2;
 6539              		.loc 1 1518 0
 6540 1b3e 3B4B     		ldr	r3, .L713+28
 6541 1b40 0222     		movs	r2, #2
 6542 1b42 1A80     		strh	r2, [r3]	@ movhi
1519:.\main.c      ****     					    posy1=3;
 6543              		.loc 1 1519 0
 6544 1b44 3A4B     		ldr	r3, .L713+32
 6545 1b46 0322     		movs	r2, #3
 6546 1b48 1A80     		strh	r2, [r3]	@ movhi
1520:.\main.c      ****     					    sizeletra1=1;	                        
 6547              		.loc 1 1520 0
 6548 1b4a 3A4B     		ldr	r3, .L713+36
 6549 1b4c 0122     		movs	r2, #1
 6550 1b4e 1A80     		strh	r2, [r3]	@ movhi
ARM GAS  C:\Users\RECEPC~1\AppData\Local\Temp\ccIpe7td.s 			page 145


1521:.\main.c      ****                             if(id_teclado1 ==10){
 6551              		.loc 1 1521 0
 6552 1b50 394B     		ldr	r3, .L713+40
 6553 1b52 1B78     		ldrb	r3, [r3]
 6554 1b54 DBB2     		uxtb	r3, r3
 6555 1b56 0A2B     		cmp	r3, #10
 6556 1b58 06D1     		bne	.L333
1522:.\main.c      ****                                 set_imagen(1,19);
 6557              		.loc 1 1522 0
 6558 1b5a 0120     		movs	r0, #1
 6559 1b5c 1321     		movs	r1, #19
 6560 1b5e FFF7FEFF 		bl	set_imagen
1523:.\main.c      ****                                 flujo_LCD1 = 19;
 6561              		.loc 1 1523 0
 6562 1b62 364B     		ldr	r3, .L713+44
 6563 1b64 1322     		movs	r2, #19
 6564 1b66 1A70     		strb	r2, [r3]
 6565              	.L333:
1524:.\main.c      ****                             }
1525:.\main.c      ****                             if(id_teclado1 ==8){
 6566              		.loc 1 1525 0
 6567 1b68 334B     		ldr	r3, .L713+40
 6568 1b6a 1B78     		ldrb	r3, [r3]
 6569 1b6c DBB2     		uxtb	r3, r3
 6570 1b6e 082B     		cmp	r3, #8
 6571 1b70 06D1     		bne	.L334
1526:.\main.c      ****                                 set_imagen(1,36);
 6572              		.loc 1 1526 0
 6573 1b72 0120     		movs	r0, #1
 6574 1b74 2421     		movs	r1, #36
 6575 1b76 FFF7FEFF 		bl	set_imagen
1527:.\main.c      ****                                 flujo_LCD1 = 12;
 6576              		.loc 1 1527 0
 6577 1b7a 304B     		ldr	r3, .L713+44
 6578 1b7c 0C22     		movs	r2, #12
 6579 1b7e 1A70     		strb	r2, [r3]
 6580              	.L334:
1528:.\main.c      ****                             }
1529:.\main.c      ****                             if(id_teclado1 !=8 && id_teclado1 !=10){
 6581              		.loc 1 1529 0
 6582 1b80 2D4B     		ldr	r3, .L713+40
 6583 1b82 1B78     		ldrb	r3, [r3]
 6584 1b84 DBB2     		uxtb	r3, r3
 6585 1b86 082B     		cmp	r3, #8
 6586 1b88 0ED0     		beq	.L328
 6587              		.loc 1 1529 0 is_stmt 0 discriminator 1
 6588 1b8a 2B4B     		ldr	r3, .L713+40
 6589 1b8c 1B78     		ldrb	r3, [r3]
 6590 1b8e DBB2     		uxtb	r3, r3
 6591 1b90 0A2B     		cmp	r3, #10
 6592 1b92 09D0     		beq	.L328
1530:.\main.c      ****                                 id_teclado1=2;
 6593              		.loc 1 1530 0 is_stmt 1
 6594 1b94 284B     		ldr	r3, .L713+40
 6595 1b96 0222     		movs	r2, #2
 6596 1b98 1A70     		strb	r2, [r3]
1531:.\main.c      ****                                 set_imagen(1,14);
ARM GAS  C:\Users\RECEPC~1\AppData\Local\Temp\ccIpe7td.s 			page 146


 6597              		.loc 1 1531 0
 6598 1b9a 0120     		movs	r0, #1
 6599 1b9c 0E21     		movs	r1, #14
 6600 1b9e FFF7FEFF 		bl	set_imagen
1532:.\main.c      ****                                 flujo_LCD1=12;
 6601              		.loc 1 1532 0
 6602 1ba2 264B     		ldr	r3, .L713+44
 6603 1ba4 0C22     		movs	r2, #12
 6604 1ba6 1A70     		strb	r2, [r3]
 6605              	.L328:
1533:.\main.c      ****                             }
1534:.\main.c      ****     					    	
1535:.\main.c      ****     				    }
1536:.\main.c      ****                     }
1537:.\main.c      ****                 }  
1538:.\main.c      ****             }
1539:.\main.c      ****             if(seleccion_pos == 2){
 6606              		.loc 1 1539 0
 6607 1ba8 1B4B     		ldr	r3, .L713+8
 6608 1baa 1B78     		ldrb	r3, [r3]
 6609 1bac DBB2     		uxtb	r3, r3
 6610 1bae 022B     		cmp	r3, #2
 6611 1bb0 40F0A980 		bne	.L335
1540:.\main.c      ****                 if(touch_present(1)==1){
 6612              		.loc 1 1540 0
 6613 1bb4 0120     		movs	r0, #1
 6614 1bb6 FFF7FEFF 		bl	touch_present
 6615 1bba 0346     		mov	r3, r0
 6616 1bbc 012B     		cmp	r3, #1
 6617 1bbe 40F0A280 		bne	.L335
1541:.\main.c      ****                     if(touch_write(1,0x33)){
 6618              		.loc 1 1541 0
 6619 1bc2 0120     		movs	r0, #1
 6620 1bc4 3321     		movs	r1, #51
 6621 1bc6 FFF7FEFF 		bl	touch_write
 6622 1bca 0346     		mov	r3, r0
 6623 1bcc 002B     		cmp	r3, #0
 6624 1bce 00F09A80 		beq	.L335
1542:.\main.c      ****     	                for(x=0;x<=7;x++){
 6625              		.loc 1 1542 0
 6626 1bd2 0023     		movs	r3, #0
 6627 1bd4 87F82F30 		strb	r3, [r7, #47]
 6628 1bd8 0FE0     		b	.L336
 6629              	.L337:
1543:.\main.c      ****     	                    rventa2.id[x]=touch_read_byte(1);
 6630              		.loc 1 1543 0 discriminator 3
 6631 1bda 97F82F40 		ldrb	r4, [r7, #47]	@ zero_extendqisi2
 6632 1bde 0120     		movs	r0, #1
 6633 1be0 FFF7FEFF 		bl	touch_read_byte
 6634 1be4 0346     		mov	r3, r0
 6635 1be6 1A46     		mov	r2, r3
 6636 1be8 094B     		ldr	r3, .L713
 6637 1bea 2344     		add	r3, r3, r4
 6638 1bec 83F82320 		strb	r2, [r3, #35]
1542:.\main.c      ****     	                for(x=0;x<=7;x++){
 6639              		.loc 1 1542 0 discriminator 3
 6640 1bf0 97F82F30 		ldrb	r3, [r7, #47]	@ zero_extendqisi2
ARM GAS  C:\Users\RECEPC~1\AppData\Local\Temp\ccIpe7td.s 			page 147


 6641 1bf4 0133     		adds	r3, r3, #1
 6642 1bf6 87F82F30 		strb	r3, [r7, #47]
 6643              	.L336:
1542:.\main.c      ****     	                for(x=0;x<=7;x++){
 6644              		.loc 1 1542 0 is_stmt 0 discriminator 1
 6645 1bfa 97F82F30 		ldrb	r3, [r7, #47]	@ zero_extendqisi2
 6646 1bfe 072B     		cmp	r3, #7
 6647 1c00 EBD9     		bls	.L337
1544:.\main.c      ****     	                }
1545:.\main.c      ****     				    crc_total=0;
 6648              		.loc 1 1545 0 is_stmt 1
 6649 1c02 074B     		ldr	r3, .L713+16
 6650 1c04 0022     		movs	r2, #0
 6651 1c06 1A70     		strb	r2, [r3]
1546:.\main.c      ****     				    for(x=0;x<7;x++){
 6652              		.loc 1 1546 0
 6653 1c08 0023     		movs	r3, #0
 6654 1c0a 87F82F30 		strb	r3, [r7, #47]
 6655 1c0e 2CE0     		b	.L338
 6656              	.L714:
 6657              		.align	2
 6658              	.L713:
 6659 1c10 00000000 		.word	rventa2
 6660 1c14 00000000 		.word	rf_mod
 6661 1c18 00000000 		.word	seleccion_pos
 6662 1c1c 00000000 		.word	rventa1
 6663 1c20 00000000 		.word	crc_total
 6664 1c24 00000000 		.word	count_teclas1
 6665 1c28 00000000 		.word	teclas1
 6666 1c2c 00000000 		.word	posx1
 6667 1c30 00000000 		.word	posy1
 6668 1c34 00000000 		.word	sizeletra1
 6669 1c38 00000000 		.word	id_teclado1
 6670 1c3c 00000000 		.word	flujo_LCD1
 6671              	.L339:
1547:.\main.c      ****     				 	    crc_total=crc_check(crc_total,rventa2.id[x]);
 6672              		.loc 1 1547 0 discriminator 3
 6673 1c40 7F4B     		ldr	r3, .L715
 6674 1c42 1978     		ldrb	r1, [r3]	@ zero_extendqisi2
 6675 1c44 97F82F30 		ldrb	r3, [r7, #47]	@ zero_extendqisi2
 6676 1c48 7E4A     		ldr	r2, .L715+4
 6677 1c4a 1344     		add	r3, r3, r2
 6678 1c4c 93F82330 		ldrb	r3, [r3, #35]	@ zero_extendqisi2
 6679 1c50 0846     		mov	r0, r1
 6680 1c52 1946     		mov	r1, r3
 6681 1c54 FFF7FEFF 		bl	crc_check
 6682 1c58 0346     		mov	r3, r0
 6683 1c5a 1A46     		mov	r2, r3
 6684 1c5c 784B     		ldr	r3, .L715
 6685 1c5e 1A70     		strb	r2, [r3]
1546:.\main.c      ****     				    for(x=0;x<7;x++){
 6686              		.loc 1 1546 0 discriminator 3
 6687 1c60 97F82F30 		ldrb	r3, [r7, #47]	@ zero_extendqisi2
 6688 1c64 0133     		adds	r3, r3, #1
 6689 1c66 87F82F30 		strb	r3, [r7, #47]
 6690              	.L338:
1546:.\main.c      ****     				    for(x=0;x<7;x++){
ARM GAS  C:\Users\RECEPC~1\AppData\Local\Temp\ccIpe7td.s 			page 148


 6691              		.loc 1 1546 0 is_stmt 0 discriminator 1
 6692 1c6a 97F82F30 		ldrb	r3, [r7, #47]	@ zero_extendqisi2
 6693 1c6e 062B     		cmp	r3, #6
 6694 1c70 E6D9     		bls	.L339
1548:.\main.c      ****     				    }					
1549:.\main.c      ****     				    if(crc_total==rventa2.id[7]){
 6695              		.loc 1 1549 0 is_stmt 1
 6696 1c72 744B     		ldr	r3, .L715+4
 6697 1c74 93F82A20 		ldrb	r2, [r3, #42]	@ zero_extendqisi2
 6698 1c78 714B     		ldr	r3, .L715
 6699 1c7a 1B78     		ldrb	r3, [r3]	@ zero_extendqisi2
 6700 1c7c 9A42     		cmp	r2, r3
 6701 1c7e 42D1     		bne	.L335
1550:.\main.c      ****     		                set_imagen(1,19);
 6702              		.loc 1 1550 0
 6703 1c80 0120     		movs	r0, #1
 6704 1c82 1321     		movs	r1, #19
 6705 1c84 FFF7FEFF 		bl	set_imagen
1551:.\main.c      ****     		                CyDelay(500);					 				 
 6706              		.loc 1 1551 0
 6707 1c88 4FF4FA70 		mov	r0, #500
 6708 1c8c FFF7FEFF 		bl	CyDelay
1552:.\main.c      ****     					    count_teclas1=0;							//Inicia el contador de teclas						    
 6709              		.loc 1 1552 0
 6710 1c90 6D4B     		ldr	r3, .L715+8
 6711 1c92 0022     		movs	r2, #0
 6712 1c94 1A70     		strb	r2, [r3]
1553:.\main.c      ****     					    teclas1=10;
 6713              		.loc 1 1553 0
 6714 1c96 6D4B     		ldr	r3, .L715+12
 6715 1c98 0A22     		movs	r2, #10
 6716 1c9a 1A70     		strb	r2, [r3]
1554:.\main.c      ****     					    posx1=2;
 6717              		.loc 1 1554 0
 6718 1c9c 6C4B     		ldr	r3, .L715+16
 6719 1c9e 0222     		movs	r2, #2
 6720 1ca0 1A80     		strh	r2, [r3]	@ movhi
1555:.\main.c      ****     					    posy1=3;
 6721              		.loc 1 1555 0
 6722 1ca2 6C4B     		ldr	r3, .L715+20
 6723 1ca4 0322     		movs	r2, #3
 6724 1ca6 1A80     		strh	r2, [r3]	@ movhi
1556:.\main.c      ****     					    sizeletra1=1;	                        
 6725              		.loc 1 1556 0
 6726 1ca8 6B4B     		ldr	r3, .L715+24
 6727 1caa 0122     		movs	r2, #1
 6728 1cac 1A80     		strh	r2, [r3]	@ movhi
1557:.\main.c      ****                             if(id_teclado1 ==10){
 6729              		.loc 1 1557 0
 6730 1cae 6B4B     		ldr	r3, .L715+28
 6731 1cb0 1B78     		ldrb	r3, [r3]
 6732 1cb2 DBB2     		uxtb	r3, r3
 6733 1cb4 0A2B     		cmp	r3, #10
 6734 1cb6 06D1     		bne	.L340
1558:.\main.c      ****                                 set_imagen(1,19);
 6735              		.loc 1 1558 0
 6736 1cb8 0120     		movs	r0, #1
ARM GAS  C:\Users\RECEPC~1\AppData\Local\Temp\ccIpe7td.s 			page 149


 6737 1cba 1321     		movs	r1, #19
 6738 1cbc FFF7FEFF 		bl	set_imagen
1559:.\main.c      ****                                 flujo_LCD1 = 19;
 6739              		.loc 1 1559 0
 6740 1cc0 674B     		ldr	r3, .L715+32
 6741 1cc2 1322     		movs	r2, #19
 6742 1cc4 1A70     		strb	r2, [r3]
 6743              	.L340:
1560:.\main.c      ****                             }
1561:.\main.c      ****                             if(id_teclado1 ==8){
 6744              		.loc 1 1561 0
 6745 1cc6 654B     		ldr	r3, .L715+28
 6746 1cc8 1B78     		ldrb	r3, [r3]
 6747 1cca DBB2     		uxtb	r3, r3
 6748 1ccc 082B     		cmp	r3, #8
 6749 1cce 06D1     		bne	.L341
1562:.\main.c      ****                                 set_imagen(1,36);
 6750              		.loc 1 1562 0
 6751 1cd0 0120     		movs	r0, #1
 6752 1cd2 2421     		movs	r1, #36
 6753 1cd4 FFF7FEFF 		bl	set_imagen
1563:.\main.c      ****                                 flujo_LCD1 = 12;
 6754              		.loc 1 1563 0
 6755 1cd8 614B     		ldr	r3, .L715+32
 6756 1cda 0C22     		movs	r2, #12
 6757 1cdc 1A70     		strb	r2, [r3]
 6758              	.L341:
1564:.\main.c      ****                             }
1565:.\main.c      ****                             if(id_teclado1 !=8 && id_teclado1 !=10){
 6759              		.loc 1 1565 0
 6760 1cde 5F4B     		ldr	r3, .L715+28
 6761 1ce0 1B78     		ldrb	r3, [r3]
 6762 1ce2 DBB2     		uxtb	r3, r3
 6763 1ce4 082B     		cmp	r3, #8
 6764 1ce6 0ED0     		beq	.L335
 6765              		.loc 1 1565 0 is_stmt 0 discriminator 1
 6766 1ce8 5C4B     		ldr	r3, .L715+28
 6767 1cea 1B78     		ldrb	r3, [r3]
 6768 1cec DBB2     		uxtb	r3, r3
 6769 1cee 0A2B     		cmp	r3, #10
 6770 1cf0 09D0     		beq	.L335
1566:.\main.c      ****                                 id_teclado1=2;
 6771              		.loc 1 1566 0 is_stmt 1
 6772 1cf2 5A4B     		ldr	r3, .L715+28
 6773 1cf4 0222     		movs	r2, #2
 6774 1cf6 1A70     		strb	r2, [r3]
1567:.\main.c      ****                                 set_imagen(1,14);
 6775              		.loc 1 1567 0
 6776 1cf8 0120     		movs	r0, #1
 6777 1cfa 0E21     		movs	r1, #14
 6778 1cfc FFF7FEFF 		bl	set_imagen
1568:.\main.c      ****                                 flujo_LCD1=12;
 6779              		.loc 1 1568 0
 6780 1d00 574B     		ldr	r3, .L715+32
 6781 1d02 0C22     		movs	r2, #12
 6782 1d04 1A70     		strb	r2, [r3]
 6783              	.L335:
ARM GAS  C:\Users\RECEPC~1\AppData\Local\Temp\ccIpe7td.s 			page 150


1569:.\main.c      ****                             }
1570:.\main.c      ****     					    	
1571:.\main.c      ****     				    }
1572:.\main.c      ****                     }
1573:.\main.c      ****                 }  
1574:.\main.c      ****             }
1575:.\main.c      ****             
1576:.\main.c      ****             if(LCD_1_GetRxBufferSize()==8){
 6784              		.loc 1 1576 0
 6785 1d06 FFF7FEFF 		bl	LCD_1_GetRxBufferSize
 6786 1d0a 0346     		mov	r3, r0
 6787 1d0c 082B     		cmp	r3, #8
 6788 1d0e 1ED1     		bne	.L342
1577:.\main.c      ****                 if((LCD_1_rxBuffer[0]==0xAA) && (LCD_1_rxBuffer[6]==0xC3) && (LCD_1_rxBuffer[7]==0x
 6789              		.loc 1 1577 0
 6790 1d10 544B     		ldr	r3, .L715+36
 6791 1d12 1B78     		ldrb	r3, [r3]
 6792 1d14 DBB2     		uxtb	r3, r3
 6793 1d16 AA2B     		cmp	r3, #170
 6794 1d18 12D1     		bne	.L343
 6795              		.loc 1 1577 0 is_stmt 0 discriminator 1
 6796 1d1a 524B     		ldr	r3, .L715+36
 6797 1d1c 9B79     		ldrb	r3, [r3, #6]
 6798 1d1e DBB2     		uxtb	r3, r3
 6799 1d20 C32B     		cmp	r3, #195
 6800 1d22 0DD1     		bne	.L343
 6801              		.loc 1 1577 0 discriminator 2
 6802 1d24 4F4B     		ldr	r3, .L715+36
 6803 1d26 DB79     		ldrb	r3, [r3, #7]
 6804 1d28 DBB2     		uxtb	r3, r3
 6805 1d2a 3C2B     		cmp	r3, #60
 6806 1d2c 08D1     		bne	.L343
1578:.\main.c      ****                     switch(LCD_1_rxBuffer[3]){
 6807              		.loc 1 1578 0 is_stmt 1
 6808 1d2e 4D4B     		ldr	r3, .L715+36
 6809 1d30 DB78     		ldrb	r3, [r3, #3]
 6810 1d32 DBB2     		uxtb	r3, r3
 6811 1d34 3B2B     		cmp	r3, #59
 6812 1d36 03D1     		bne	.L343
1579:.\main.c      ****                         case 0x3B:
1580:.\main.c      ****                             flujo_LCD1=0; 
 6813              		.loc 1 1580 0
 6814 1d38 494B     		ldr	r3, .L715+32
 6815 1d3a 0022     		movs	r2, #0
 6816 1d3c 1A70     		strb	r2, [r3]
1581:.\main.c      ****                         break; 
 6817              		.loc 1 1581 0
 6818 1d3e 00BF     		nop
 6819              	.L343:
1582:.\main.c      ****                     }
1583:.\main.c      ****                 }
1584:.\main.c      ****                 CyDelay(100);            
 6820              		.loc 1 1584 0
 6821 1d40 6420     		movs	r0, #100
 6822 1d42 FFF7FEFF 		bl	CyDelay
1585:.\main.c      ****                 LCD_1_ClearRxBuffer();            
 6823              		.loc 1 1585 0
ARM GAS  C:\Users\RECEPC~1\AppData\Local\Temp\ccIpe7td.s 			page 151


 6824 1d46 FFF7FEFF 		bl	LCD_1_ClearRxBuffer
1586:.\main.c      ****         }		
1587:.\main.c      **** 		break;
 6825              		.loc 1 1587 0
 6826 1d4a 03F069B8 		b	.L131
 6827              	.L342:
 6828              		.loc 1 1587 0 is_stmt 0 discriminator 11
 6829 1d4e 03F067B8 		b	.L131
 6830              	.L144:
1588:.\main.c      ****         
1589:.\main.c      ****         
1590:.\main.c      ****         case 12: 
1591:.\main.c      ****         if(seleccion_pos == 1){
 6831              		.loc 1 1591 0 is_stmt 1
 6832 1d52 454B     		ldr	r3, .L715+40
 6833 1d54 1B78     		ldrb	r3, [r3]
 6834 1d56 DBB2     		uxtb	r3, r3
 6835 1d58 012B     		cmp	r3, #1
 6836 1d5a 40F05D85 		bne	.L345
1592:.\main.c      ****          if(LCD_1_GetRxBufferSize()==8){
 6837              		.loc 1 1592 0
 6838 1d5e FFF7FEFF 		bl	LCD_1_GetRxBufferSize
 6839 1d62 0346     		mov	r3, r0
 6840 1d64 082B     		cmp	r3, #8
 6841 1d66 40F05785 		bne	.L345
1593:.\main.c      ****             if((LCD_1_rxBuffer[0]==0xAA) && (LCD_1_rxBuffer[6]==0xC3) && (LCD_1_rxBuffer[7]==0x3C))
 6842              		.loc 1 1593 0
 6843 1d6a 3E4B     		ldr	r3, .L715+36
 6844 1d6c 1B78     		ldrb	r3, [r3]
 6845 1d6e DBB2     		uxtb	r3, r3
 6846 1d70 AA2B     		cmp	r3, #170
 6847 1d72 40F04F85 		bne	.L346
 6848              		.loc 1 1593 0 is_stmt 0 discriminator 1
 6849 1d76 3B4B     		ldr	r3, .L715+36
 6850 1d78 9B79     		ldrb	r3, [r3, #6]
 6851 1d7a DBB2     		uxtb	r3, r3
 6852 1d7c C32B     		cmp	r3, #195
 6853 1d7e 40F04985 		bne	.L346
 6854              		.loc 1 1593 0 discriminator 2
 6855 1d82 384B     		ldr	r3, .L715+36
 6856 1d84 DB79     		ldrb	r3, [r3, #7]
 6857 1d86 DBB2     		uxtb	r3, r3
 6858 1d88 3C2B     		cmp	r3, #60
 6859 1d8a 40F04385 		bne	.L346
1594:.\main.c      **** 				count_protector=0;
 6860              		.loc 1 1594 0 is_stmt 1
 6861 1d8e 374B     		ldr	r3, .L715+44
 6862 1d90 0022     		movs	r2, #0
 6863 1d92 1A70     		strb	r2, [r3]
1595:.\main.c      ****                 if(count_teclas1<teclas1){									
 6864              		.loc 1 1595 0
 6865 1d94 2C4B     		ldr	r3, .L715+8
 6866 1d96 1B78     		ldrb	r3, [r3]
 6867 1d98 DAB2     		uxtb	r2, r3
 6868 1d9a 2C4B     		ldr	r3, .L715+12
 6869 1d9c 1B78     		ldrb	r3, [r3]
 6870 1d9e DBB2     		uxtb	r3, r3
ARM GAS  C:\Users\RECEPC~1\AppData\Local\Temp\ccIpe7td.s 			page 152


 6871 1da0 9A42     		cmp	r2, r3
 6872 1da2 80F0D780 		bcs	.L347
1596:.\main.c      ****                     if(LCD_1_rxBuffer[3]<=9){								//Numero de 1-9
 6873              		.loc 1 1596 0
 6874 1da6 2F4B     		ldr	r3, .L715+36
 6875 1da8 DB78     		ldrb	r3, [r3, #3]
 6876 1daa DBB2     		uxtb	r3, r3
 6877 1dac 092B     		cmp	r3, #9
 6878 1dae 32D8     		bhi	.L348
1597:.\main.c      ****                         count_teclas1++;
 6879              		.loc 1 1597 0
 6880 1db0 254B     		ldr	r3, .L715+8
 6881 1db2 1B78     		ldrb	r3, [r3]
 6882 1db4 DBB2     		uxtb	r3, r3
 6883 1db6 0133     		adds	r3, r3, #1
 6884 1db8 DAB2     		uxtb	r2, r3
 6885 1dba 234B     		ldr	r3, .L715+8
 6886 1dbc 1A70     		strb	r2, [r3]
1598:.\main.c      ****                         Buffer_LCD1[count_teclas1]=LCD_1_rxBuffer[3];
 6887              		.loc 1 1598 0
 6888 1dbe 224B     		ldr	r3, .L715+8
 6889 1dc0 1B78     		ldrb	r3, [r3]
 6890 1dc2 DBB2     		uxtb	r3, r3
 6891 1dc4 1A46     		mov	r2, r3
 6892 1dc6 274B     		ldr	r3, .L715+36
 6893 1dc8 DB78     		ldrb	r3, [r3, #3]
 6894 1dca D9B2     		uxtb	r1, r3
 6895 1dcc 284B     		ldr	r3, .L715+48
 6896 1dce 9954     		strb	r1, [r3, r2]
1599:.\main.c      ****                         write_LCD(1,(LCD_1_rxBuffer[3]+0x30), posy1, ((count_teclas1*(sizeletra1+1)
 6897              		.loc 1 1599 0
 6898 1dd0 244B     		ldr	r3, .L715+36
 6899 1dd2 DB78     		ldrb	r3, [r3, #3]
 6900 1dd4 DBB2     		uxtb	r3, r3
 6901 1dd6 3033     		adds	r3, r3, #48
 6902 1dd8 D9B2     		uxtb	r1, r3
 6903 1dda 1E4B     		ldr	r3, .L715+20
 6904 1ddc 1B88     		ldrh	r3, [r3]	@ movhi
 6905 1dde 9DB2     		uxth	r5, r3
 6906 1de0 194B     		ldr	r3, .L715+8
 6907 1de2 1B78     		ldrb	r3, [r3]
 6908 1de4 DBB2     		uxtb	r3, r3
 6909 1de6 9BB2     		uxth	r3, r3
 6910 1de8 1B4A     		ldr	r2, .L715+24
 6911 1dea 1288     		ldrh	r2, [r2]	@ movhi
 6912 1dec 92B2     		uxth	r2, r2
 6913 1dee 0132     		adds	r2, r2, #1
 6914 1df0 92B2     		uxth	r2, r2
 6915 1df2 02FB03F3 		mul	r3, r2, r3
 6916 1df6 9AB2     		uxth	r2, r3
 6917 1df8 154B     		ldr	r3, .L715+16
 6918 1dfa 1B88     		ldrh	r3, [r3]	@ movhi
 6919 1dfc 9BB2     		uxth	r3, r3
 6920 1dfe 1344     		add	r3, r3, r2
 6921 1e00 9CB2     		uxth	r4, r3
 6922 1e02 154B     		ldr	r3, .L715+24
 6923 1e04 1B88     		ldrh	r3, [r3]	@ movhi
ARM GAS  C:\Users\RECEPC~1\AppData\Local\Temp\ccIpe7td.s 			page 153


 6924 1e06 9BB2     		uxth	r3, r3
 6925 1e08 DBB2     		uxtb	r3, r3
 6926 1e0a 0093     		str	r3, [sp]
 6927 1e0c 0120     		movs	r0, #1
 6928 1e0e 2A46     		mov	r2, r5
 6929 1e10 2346     		mov	r3, r4
 6930 1e12 FFF7FEFF 		bl	write_LCD
 6931              	.L348:
1600:.\main.c      ****                     }
1601:.\main.c      ****                     if(LCD_1_rxBuffer[3]==0x0A){            				//Comando de 0
 6932              		.loc 1 1601 0
 6933 1e16 134B     		ldr	r3, .L715+36
 6934 1e18 DB78     		ldrb	r3, [r3, #3]
 6935 1e1a DBB2     		uxtb	r3, r3
 6936 1e1c 0A2B     		cmp	r3, #10
 6937 1e1e 56D1     		bne	.L349
1602:.\main.c      **** 						if((id_teclado1==1)&&(count_teclas1==1)&&(Buffer_LCD1[1]==0)){
 6938              		.loc 1 1602 0
 6939 1e20 0E4B     		ldr	r3, .L715+28
 6940 1e22 1B78     		ldrb	r3, [r3]
 6941 1e24 DBB2     		uxtb	r3, r3
 6942 1e26 012B     		cmp	r3, #1
 6943 1e28 24D1     		bne	.L350
 6944              		.loc 1 1602 0 is_stmt 0 discriminator 1
 6945 1e2a 074B     		ldr	r3, .L715+8
 6946 1e2c 1B78     		ldrb	r3, [r3]
 6947 1e2e DBB2     		uxtb	r3, r3
 6948 1e30 012B     		cmp	r3, #1
 6949 1e32 1FD1     		bne	.L350
 6950              		.loc 1 1602 0 discriminator 2
 6951 1e34 0E4B     		ldr	r3, .L715+48
 6952 1e36 5B78     		ldrb	r3, [r3, #1]
 6953 1e38 DBB2     		uxtb	r3, r3
 6954 1e3a 002B     		cmp	r3, #0
 6955 1e3c 1AD1     		bne	.L350
 6956              		.loc 1 1602 0
 6957 1e3e 46E0     		b	.L349
 6958              	.L716:
 6959              		.align	2
 6960              	.L715:
 6961 1e40 00000000 		.word	crc_total
 6962 1e44 00000000 		.word	rventa2
 6963 1e48 00000000 		.word	count_teclas1
 6964 1e4c 00000000 		.word	teclas1
 6965 1e50 00000000 		.word	posx1
 6966 1e54 00000000 		.word	posy1
 6967 1e58 00000000 		.word	sizeletra1
 6968 1e5c 00000000 		.word	id_teclado1
 6969 1e60 00000000 		.word	flujo_LCD1
 6970 1e64 00000000 		.word	LCD_1_rxBuffer
 6971 1e68 00000000 		.word	seleccion_pos
 6972 1e6c 00000000 		.word	count_protector
 6973 1e70 00000000 		.word	Buffer_LCD1
 6974              	.L350:
1603:.\main.c      **** 						}
1604:.\main.c      **** 						else{
1605:.\main.c      **** 	                        count_teclas1++;
ARM GAS  C:\Users\RECEPC~1\AppData\Local\Temp\ccIpe7td.s 			page 154


 6975              		.loc 1 1605 0 is_stmt 1
 6976 1e74 AF4B     		ldr	r3, .L717
 6977 1e76 1B78     		ldrb	r3, [r3]
 6978 1e78 DBB2     		uxtb	r3, r3
 6979 1e7a 0133     		adds	r3, r3, #1
 6980 1e7c DAB2     		uxtb	r2, r3
 6981 1e7e AD4B     		ldr	r3, .L717
 6982 1e80 1A70     		strb	r2, [r3]
1606:.\main.c      **** 	                        Buffer_LCD1[count_teclas1]=0;
 6983              		.loc 1 1606 0
 6984 1e82 AC4B     		ldr	r3, .L717
 6985 1e84 1B78     		ldrb	r3, [r3]
 6986 1e86 DBB2     		uxtb	r3, r3
 6987 1e88 1A46     		mov	r2, r3
 6988 1e8a AB4B     		ldr	r3, .L717+4
 6989 1e8c 0021     		movs	r1, #0
 6990 1e8e 9954     		strb	r1, [r3, r2]
1607:.\main.c      **** 							write_LCD(1,0x30, posy1, ((count_teclas1*(sizeletra1+1))+posx1), sizeletra1);
 6991              		.loc 1 1607 0
 6992 1e90 AA4B     		ldr	r3, .L717+8
 6993 1e92 1B88     		ldrh	r3, [r3]	@ movhi
 6994 1e94 9DB2     		uxth	r5, r3
 6995 1e96 A74B     		ldr	r3, .L717
 6996 1e98 1B78     		ldrb	r3, [r3]
 6997 1e9a DBB2     		uxtb	r3, r3
 6998 1e9c 9BB2     		uxth	r3, r3
 6999 1e9e A84A     		ldr	r2, .L717+12
 7000 1ea0 1288     		ldrh	r2, [r2]	@ movhi
 7001 1ea2 92B2     		uxth	r2, r2
 7002 1ea4 0132     		adds	r2, r2, #1
 7003 1ea6 92B2     		uxth	r2, r2
 7004 1ea8 02FB03F3 		mul	r3, r2, r3
 7005 1eac 9AB2     		uxth	r2, r3
 7006 1eae A54B     		ldr	r3, .L717+16
 7007 1eb0 1B88     		ldrh	r3, [r3]	@ movhi
 7008 1eb2 9BB2     		uxth	r3, r3
 7009 1eb4 1344     		add	r3, r3, r2
 7010 1eb6 9CB2     		uxth	r4, r3
 7011 1eb8 A14B     		ldr	r3, .L717+12
 7012 1eba 1B88     		ldrh	r3, [r3]	@ movhi
 7013 1ebc 9BB2     		uxth	r3, r3
 7014 1ebe DBB2     		uxtb	r3, r3
 7015 1ec0 0093     		str	r3, [sp]
 7016 1ec2 0120     		movs	r0, #1
 7017 1ec4 3021     		movs	r1, #48
 7018 1ec6 2A46     		mov	r2, r5
 7019 1ec8 2346     		mov	r3, r4
 7020 1eca FFF7FEFF 		bl	write_LCD
 7021              	.L349:
1608:.\main.c      **** 						}
1609:.\main.c      ****                     }  
1610:.\main.c      ****                     if(LCD_1_rxBuffer[3]==0x51){            	 			//Comando de Coma
 7022              		.loc 1 1610 0
 7023 1ece 9E4B     		ldr	r3, .L717+20
 7024 1ed0 DB78     		ldrb	r3, [r3, #3]
 7025 1ed2 DBB2     		uxtb	r3, r3
 7026 1ed4 512B     		cmp	r3, #81
ARM GAS  C:\Users\RECEPC~1\AppData\Local\Temp\ccIpe7td.s 			page 155


 7027 1ed6 3DD1     		bne	.L347
1611:.\main.c      ****                         if(count_teclas1>=1 && comas1==0){
 7028              		.loc 1 1611 0
 7029 1ed8 964B     		ldr	r3, .L717
 7030 1eda 1B78     		ldrb	r3, [r3]
 7031 1edc DBB2     		uxtb	r3, r3
 7032 1ede 002B     		cmp	r3, #0
 7033 1ee0 38D0     		beq	.L347
 7034              		.loc 1 1611 0 is_stmt 0 discriminator 1
 7035 1ee2 9A4B     		ldr	r3, .L717+24
 7036 1ee4 1B78     		ldrb	r3, [r3]
 7037 1ee6 DBB2     		uxtb	r3, r3
 7038 1ee8 002B     		cmp	r3, #0
 7039 1eea 33D1     		bne	.L347
1612:.\main.c      ****                             count_teclas1++;
 7040              		.loc 1 1612 0 is_stmt 1
 7041 1eec 914B     		ldr	r3, .L717
 7042 1eee 1B78     		ldrb	r3, [r3]
 7043 1ef0 DBB2     		uxtb	r3, r3
 7044 1ef2 0133     		adds	r3, r3, #1
 7045 1ef4 DAB2     		uxtb	r2, r3
 7046 1ef6 8F4B     		ldr	r3, .L717
 7047 1ef8 1A70     		strb	r2, [r3]
1613:.\main.c      ****                             Buffer_LCD1[count_teclas1]=id_coma1;
 7048              		.loc 1 1613 0
 7049 1efa 8E4B     		ldr	r3, .L717
 7050 1efc 1B78     		ldrb	r3, [r3]
 7051 1efe DBB2     		uxtb	r3, r3
 7052 1f00 1A46     		mov	r2, r3
 7053 1f02 934B     		ldr	r3, .L717+28
 7054 1f04 1B78     		ldrb	r3, [r3]
 7055 1f06 D9B2     		uxtb	r1, r3
 7056 1f08 8B4B     		ldr	r3, .L717+4
 7057 1f0a 9954     		strb	r1, [r3, r2]
1614:.\main.c      **** 							write_LCD(1,id_coma1, posy1, ((count_teclas1*(sizeletra1+1))+posx1), sizeletra1);
 7058              		.loc 1 1614 0
 7059 1f0c 904B     		ldr	r3, .L717+28
 7060 1f0e 1B78     		ldrb	r3, [r3]
 7061 1f10 D9B2     		uxtb	r1, r3
 7062 1f12 8A4B     		ldr	r3, .L717+8
 7063 1f14 1B88     		ldrh	r3, [r3]	@ movhi
 7064 1f16 9DB2     		uxth	r5, r3
 7065 1f18 864B     		ldr	r3, .L717
 7066 1f1a 1B78     		ldrb	r3, [r3]
 7067 1f1c DBB2     		uxtb	r3, r3
 7068 1f1e 9BB2     		uxth	r3, r3
 7069 1f20 874A     		ldr	r2, .L717+12
 7070 1f22 1288     		ldrh	r2, [r2]	@ movhi
 7071 1f24 92B2     		uxth	r2, r2
 7072 1f26 0132     		adds	r2, r2, #1
 7073 1f28 92B2     		uxth	r2, r2
 7074 1f2a 02FB03F3 		mul	r3, r2, r3
 7075 1f2e 9AB2     		uxth	r2, r3
 7076 1f30 844B     		ldr	r3, .L717+16
 7077 1f32 1B88     		ldrh	r3, [r3]	@ movhi
 7078 1f34 9BB2     		uxth	r3, r3
 7079 1f36 1344     		add	r3, r3, r2
ARM GAS  C:\Users\RECEPC~1\AppData\Local\Temp\ccIpe7td.s 			page 156


 7080 1f38 9CB2     		uxth	r4, r3
 7081 1f3a 814B     		ldr	r3, .L717+12
 7082 1f3c 1B88     		ldrh	r3, [r3]	@ movhi
 7083 1f3e 9BB2     		uxth	r3, r3
 7084 1f40 DBB2     		uxtb	r3, r3
 7085 1f42 0093     		str	r3, [sp]
 7086 1f44 0120     		movs	r0, #1
 7087 1f46 2A46     		mov	r2, r5
 7088 1f48 2346     		mov	r3, r4
 7089 1f4a FFF7FEFF 		bl	write_LCD
1615:.\main.c      ****                             comas1=1;
 7090              		.loc 1 1615 0
 7091 1f4e 7F4B     		ldr	r3, .L717+24
 7092 1f50 0122     		movs	r2, #1
 7093 1f52 1A70     		strb	r2, [r3]
 7094              	.L347:
1616:.\main.c      ****                         }
1617:.\main.c      ****                     }                    
1618:.\main.c      ****                 }                                
1619:.\main.c      ****                 if(LCD_1_rxBuffer[3]==0x0B){								//Cancel
 7095              		.loc 1 1619 0
 7096 1f54 7C4B     		ldr	r3, .L717+20
 7097 1f56 DB78     		ldrb	r3, [r3, #3]
 7098 1f58 DBB2     		uxtb	r3, r3
 7099 1f5a 0B2B     		cmp	r3, #11
 7100 1f5c 40F0A080 		bne	.L351
1620:.\main.c      ****                     if(count_teclas1==0){
 7101              		.loc 1 1620 0
 7102 1f60 744B     		ldr	r3, .L717
 7103 1f62 1B78     		ldrb	r3, [r3]
 7104 1f64 DBB2     		uxtb	r3, r3
 7105 1f66 002B     		cmp	r3, #0
 7106 1f68 5ED1     		bne	.L352
1621:.\main.c      **** 						switch(id_teclado1){
 7107              		.loc 1 1621 0
 7108 1f6a 7A4B     		ldr	r3, .L717+32
 7109 1f6c 1B78     		ldrb	r3, [r3]
 7110 1f6e DBB2     		uxtb	r3, r3
 7111 1f70 013B     		subs	r3, r3, #1
 7112 1f72 072B     		cmp	r3, #7
 7113 1f74 00F29480 		bhi	.L351
 7114 1f78 01A2     		adr	r2, .L355
 7115 1f7a 52F823F0 		ldr	pc, [r2, r3, lsl #2]
 7116 1f7e 00BF     		.p2align 2
 7117              	.L355:
 7118 1f80 A11F0000 		.word	.L354+1
 7119 1f84 B11F0000 		.word	.L356+1
 7120 1f88 B91F0000 		.word	.L357+1
 7121 1f8c CF1F0000 		.word	.L358+1
 7122 1f90 E51F0000 		.word	.L359+1
 7123 1f94 FB1F0000 		.word	.L360+1
 7124 1f98 A1200000 		.word	.L351+1
 7125 1f9c 11200000 		.word	.L361+1
 7126              		.p2align 1
 7127              	.L354:
1622:.\main.c      **** 							case 1:
1623:.\main.c      **** 							set_imagen(1,5);
ARM GAS  C:\Users\RECEPC~1\AppData\Local\Temp\ccIpe7td.s 			page 157


 7128              		.loc 1 1623 0
 7129 1fa0 0120     		movs	r0, #1
 7130 1fa2 0521     		movs	r1, #5
 7131 1fa4 FFF7FEFF 		bl	set_imagen
1624:.\main.c      **** 							flujo_LCD1=4;
 7132              		.loc 1 1624 0
 7133 1fa8 6B4B     		ldr	r3, .L717+36
 7134 1faa 0422     		movs	r2, #4
 7135 1fac 1A70     		strb	r2, [r3]
1625:.\main.c      **** 							break;
 7136              		.loc 1 1625 0
 7137 1fae 3AE0     		b	.L353
 7138              	.L356:
1626:.\main.c      **** 							case 2:
1627:.\main.c      **** 	                        flujo_LCD1=0;	
 7139              		.loc 1 1627 0
 7140 1fb0 694B     		ldr	r3, .L717+36
 7141 1fb2 0022     		movs	r2, #0
 7142 1fb4 1A70     		strb	r2, [r3]
1628:.\main.c      **** 							break;
 7143              		.loc 1 1628 0
 7144 1fb6 36E0     		b	.L353
 7145              	.L357:
1629:.\main.c      **** 							case 3:
1630:.\main.c      **** 							set_imagen(1,0);
 7146              		.loc 1 1630 0
 7147 1fb8 0120     		movs	r0, #1
 7148 1fba 0021     		movs	r1, #0
 7149 1fbc FFF7FEFF 		bl	set_imagen
1631:.\main.c      **** 							flujo_LCD1=0;
 7150              		.loc 1 1631 0
 7151 1fc0 654B     		ldr	r3, .L717+36
 7152 1fc2 0022     		movs	r2, #0
 7153 1fc4 1A70     		strb	r2, [r3]
1632:.\main.c      **** 							lado1.estado=libre;
 7154              		.loc 1 1632 0
 7155 1fc6 654B     		ldr	r3, .L717+40
 7156 1fc8 0122     		movs	r2, #1
 7157 1fca 5A70     		strb	r2, [r3, #1]
1633:.\main.c      **** 							break;
 7158              		.loc 1 1633 0
 7159 1fcc 2BE0     		b	.L353
 7160              	.L358:
1634:.\main.c      **** 							case 4:
1635:.\main.c      **** 							set_imagen(1,0);
 7161              		.loc 1 1635 0
 7162 1fce 0120     		movs	r0, #1
 7163 1fd0 0021     		movs	r1, #0
 7164 1fd2 FFF7FEFF 		bl	set_imagen
1636:.\main.c      **** 							flujo_LCD1=0;
 7165              		.loc 1 1636 0
 7166 1fd6 604B     		ldr	r3, .L717+36
 7167 1fd8 0022     		movs	r2, #0
 7168 1fda 1A70     		strb	r2, [r3]
1637:.\main.c      **** 							lado1.estado=libre;
 7169              		.loc 1 1637 0
 7170 1fdc 5F4B     		ldr	r3, .L717+40
ARM GAS  C:\Users\RECEPC~1\AppData\Local\Temp\ccIpe7td.s 			page 158


 7171 1fde 0122     		movs	r2, #1
 7172 1fe0 5A70     		strb	r2, [r3, #1]
1638:.\main.c      **** 							break;
 7173              		.loc 1 1638 0
 7174 1fe2 20E0     		b	.L353
 7175              	.L359:
1639:.\main.c      ****                             case 5:
1640:.\main.c      **** 							set_imagen(1,0);
 7176              		.loc 1 1640 0
 7177 1fe4 0120     		movs	r0, #1
 7178 1fe6 0021     		movs	r1, #0
 7179 1fe8 FFF7FEFF 		bl	set_imagen
1641:.\main.c      **** 							flujo_LCD1=0;
 7180              		.loc 1 1641 0
 7181 1fec 5A4B     		ldr	r3, .L717+36
 7182 1fee 0022     		movs	r2, #0
 7183 1ff0 1A70     		strb	r2, [r3]
1642:.\main.c      **** 							lado1.estado=libre;                            
 7184              		.loc 1 1642 0
 7185 1ff2 5A4B     		ldr	r3, .L717+40
 7186 1ff4 0122     		movs	r2, #1
 7187 1ff6 5A70     		strb	r2, [r3, #1]
1643:.\main.c      ****                             break;
 7188              		.loc 1 1643 0
 7189 1ff8 15E0     		b	.L353
 7190              	.L360:
1644:.\main.c      ****                             case 6:
1645:.\main.c      **** 							set_imagen(1,0);
 7191              		.loc 1 1645 0
 7192 1ffa 0120     		movs	r0, #1
 7193 1ffc 0021     		movs	r1, #0
 7194 1ffe FFF7FEFF 		bl	set_imagen
1646:.\main.c      **** 							flujo_LCD1=0;
 7195              		.loc 1 1646 0
 7196 2002 554B     		ldr	r3, .L717+36
 7197 2004 0022     		movs	r2, #0
 7198 2006 1A70     		strb	r2, [r3]
1647:.\main.c      **** 							lado1.estado=libre;                            
 7199              		.loc 1 1647 0
 7200 2008 544B     		ldr	r3, .L717+40
 7201 200a 0122     		movs	r2, #1
 7202 200c 5A70     		strb	r2, [r3, #1]
1648:.\main.c      ****                             break;  
 7203              		.loc 1 1648 0
 7204 200e 0AE0     		b	.L353
 7205              	.L361:
1649:.\main.c      ****                             case 8:
1650:.\main.c      **** 							set_imagen(1,0);
 7206              		.loc 1 1650 0
 7207 2010 0120     		movs	r0, #1
 7208 2012 0021     		movs	r1, #0
 7209 2014 FFF7FEFF 		bl	set_imagen
1651:.\main.c      **** 							flujo_LCD1 = 0;
 7210              		.loc 1 1651 0
 7211 2018 4F4B     		ldr	r3, .L717+36
 7212 201a 0022     		movs	r2, #0
 7213 201c 1A70     		strb	r2, [r3]
ARM GAS  C:\Users\RECEPC~1\AppData\Local\Temp\ccIpe7td.s 			page 159


1652:.\main.c      **** 							lado1.estado=libre;                            
 7214              		.loc 1 1652 0
 7215 201e 4F4B     		ldr	r3, .L717+40
 7216 2020 0122     		movs	r2, #1
 7217 2022 5A70     		strb	r2, [r3, #1]
1653:.\main.c      ****                             break;                             
 7218              		.loc 1 1653 0
 7219 2024 00BF     		nop
 7220              	.L353:
 7221 2026 3BE0     		b	.L351
 7222              	.L352:
1654:.\main.c      **** 						}
1655:.\main.c      ****                     }
1656:.\main.c      ****                     else{
1657:.\main.c      **** 						write_LCD(1,0x20, posy1, ((count_teclas1*(sizeletra1+1))+posx1), sizeletra1);
 7223              		.loc 1 1657 0
 7224 2028 444B     		ldr	r3, .L717+8
 7225 202a 1B88     		ldrh	r3, [r3]	@ movhi
 7226 202c 9DB2     		uxth	r5, r3
 7227 202e 414B     		ldr	r3, .L717
 7228 2030 1B78     		ldrb	r3, [r3]
 7229 2032 DBB2     		uxtb	r3, r3
 7230 2034 9BB2     		uxth	r3, r3
 7231 2036 424A     		ldr	r2, .L717+12
 7232 2038 1288     		ldrh	r2, [r2]	@ movhi
 7233 203a 92B2     		uxth	r2, r2
 7234 203c 0132     		adds	r2, r2, #1
 7235 203e 92B2     		uxth	r2, r2
 7236 2040 02FB03F3 		mul	r3, r2, r3
 7237 2044 9AB2     		uxth	r2, r3
 7238 2046 3F4B     		ldr	r3, .L717+16
 7239 2048 1B88     		ldrh	r3, [r3]	@ movhi
 7240 204a 9BB2     		uxth	r3, r3
 7241 204c 1344     		add	r3, r3, r2
 7242 204e 9CB2     		uxth	r4, r3
 7243 2050 3B4B     		ldr	r3, .L717+12
 7244 2052 1B88     		ldrh	r3, [r3]	@ movhi
 7245 2054 9BB2     		uxth	r3, r3
 7246 2056 DBB2     		uxtb	r3, r3
 7247 2058 0093     		str	r3, [sp]
 7248 205a 0120     		movs	r0, #1
 7249 205c 2021     		movs	r1, #32
 7250 205e 2A46     		mov	r2, r5
 7251 2060 2346     		mov	r3, r4
 7252 2062 FFF7FEFF 		bl	write_LCD
1658:.\main.c      ****                         if(Buffer_LCD1[count_teclas1]==id_coma1){
 7253              		.loc 1 1658 0
 7254 2066 334B     		ldr	r3, .L717
 7255 2068 1B78     		ldrb	r3, [r3]
 7256 206a DBB2     		uxtb	r3, r3
 7257 206c 1A46     		mov	r2, r3
 7258 206e 324B     		ldr	r3, .L717+4
 7259 2070 9B5C     		ldrb	r3, [r3, r2]
 7260 2072 DAB2     		uxtb	r2, r3
 7261 2074 364B     		ldr	r3, .L717+28
 7262 2076 1B78     		ldrb	r3, [r3]
 7263 2078 DBB2     		uxtb	r3, r3
ARM GAS  C:\Users\RECEPC~1\AppData\Local\Temp\ccIpe7td.s 			page 160


 7264 207a 9A42     		cmp	r2, r3
 7265 207c 02D1     		bne	.L362
1659:.\main.c      ****                             comas1=0;
 7266              		.loc 1 1659 0
 7267 207e 334B     		ldr	r3, .L717+24
 7268 2080 0022     		movs	r2, #0
 7269 2082 1A70     		strb	r2, [r3]
 7270              	.L362:
1660:.\main.c      ****                         }
1661:.\main.c      **** 						Buffer_LCD1[count_teclas1]=0;
 7271              		.loc 1 1661 0
 7272 2084 2B4B     		ldr	r3, .L717
 7273 2086 1B78     		ldrb	r3, [r3]
 7274 2088 DBB2     		uxtb	r3, r3
 7275 208a 1A46     		mov	r2, r3
 7276 208c 2A4B     		ldr	r3, .L717+4
 7277 208e 0021     		movs	r1, #0
 7278 2090 9954     		strb	r1, [r3, r2]
1662:.\main.c      ****                         count_teclas1--;
 7279              		.loc 1 1662 0
 7280 2092 284B     		ldr	r3, .L717
 7281 2094 1B78     		ldrb	r3, [r3]
 7282 2096 DBB2     		uxtb	r3, r3
 7283 2098 013B     		subs	r3, r3, #1
 7284 209a DAB2     		uxtb	r2, r3
 7285 209c 254B     		ldr	r3, .L717
 7286 209e 1A70     		strb	r2, [r3]
 7287              	.L351:
1663:.\main.c      ****                     }
1664:.\main.c      ****                 }
1665:.\main.c      ****                 if(LCD_1_rxBuffer[3]==0x0C){								//Enter
 7288              		.loc 1 1665 0
 7289 20a0 294B     		ldr	r3, .L717+20
 7290 20a2 DB78     		ldrb	r3, [r3, #3]
 7291 20a4 DBB2     		uxtb	r3, r3
 7292 20a6 0C2B     		cmp	r3, #12
 7293 20a8 40F0B483 		bne	.L346
1666:.\main.c      **** 					switch(id_teclado1){
 7294              		.loc 1 1666 0
 7295 20ac 294B     		ldr	r3, .L717+32
 7296 20ae 1B78     		ldrb	r3, [r3]
 7297 20b0 DBB2     		uxtb	r3, r3
 7298 20b2 013B     		subs	r3, r3, #1
 7299 20b4 072B     		cmp	r3, #7
 7300 20b6 00F2AD83 		bhi	.L346
 7301 20ba 01A2     		adr	r2, .L364
 7302 20bc 52F823F0 		ldr	pc, [r2, r3, lsl #2]
 7303              		.p2align 2
 7304              	.L364:
 7305 20c0 E1200000 		.word	.L363+1
 7306 20c4 75220000 		.word	.L365+1
 7307 20c8 ED220000 		.word	.L366+1
 7308 20cc 65230000 		.word	.L367+1
 7309 20d0 BF230000 		.word	.L368+1
 7310 20d4 AD240000 		.word	.L369+1
 7311 20d8 DF240000 		.word	.L370+1
 7312 20dc 87260000 		.word	.L371+1
ARM GAS  C:\Users\RECEPC~1\AppData\Local\Temp\ccIpe7td.s 			page 161


 7313              		.p2align 1
 7314              	.L363:
1667:.\main.c      **** 						case 1:
1668:.\main.c      **** 							for(x=0;x<=7;x++){
 7315              		.loc 1 1668 0
 7316 20e0 0023     		movs	r3, #0
 7317 20e2 87F82F30 		strb	r3, [r7, #47]
 7318 20e6 0CE0     		b	.L372
 7319              	.L373:
1669:.\main.c      **** 								numero[x]=0;
 7320              		.loc 1 1669 0 discriminator 3
 7321 20e8 97F82F30 		ldrb	r3, [r7, #47]	@ zero_extendqisi2
 7322 20ec 07F13002 		add	r2, r7, #48
 7323 20f0 1344     		add	r3, r3, r2
 7324 20f2 0022     		movs	r2, #0
 7325 20f4 03F82C2C 		strb	r2, [r3, #-44]
1668:.\main.c      **** 								numero[x]=0;
 7326              		.loc 1 1668 0 discriminator 3
 7327 20f8 97F82F30 		ldrb	r3, [r7, #47]	@ zero_extendqisi2
 7328 20fc 0133     		adds	r3, r3, #1
 7329 20fe 87F82F30 		strb	r3, [r7, #47]
 7330              	.L372:
1668:.\main.c      **** 								numero[x]=0;
 7331              		.loc 1 1668 0 is_stmt 0 discriminator 1
 7332 2102 97F82F30 		ldrb	r3, [r7, #47]	@ zero_extendqisi2
 7333 2106 072B     		cmp	r3, #7
 7334 2108 EED9     		bls	.L373
1670:.\main.c      **** 							}						
1671:.\main.c      **** 							if((count_teclas1>=1)&&(Buffer_LCD1[count_teclas1]!=',')){
 7335              		.loc 1 1671 0 is_stmt 1
 7336 210a 0A4B     		ldr	r3, .L717
 7337 210c 1B78     		ldrb	r3, [r3]
 7338 210e DBB2     		uxtb	r3, r3
 7339 2110 002B     		cmp	r3, #0
 7340 2112 00F0AE80 		beq	.L374
 7341              		.loc 1 1671 0 is_stmt 0 discriminator 1
 7342 2116 074B     		ldr	r3, .L717
 7343 2118 1B78     		ldrb	r3, [r3]
 7344 211a DBB2     		uxtb	r3, r3
 7345 211c 1A46     		mov	r2, r3
 7346 211e 064B     		ldr	r3, .L717+4
 7347 2120 9B5C     		ldrb	r3, [r3, r2]
 7348 2122 DBB2     		uxtb	r3, r3
 7349 2124 2C2B     		cmp	r3, #44
 7350 2126 00F0A480 		beq	.L374
1672:.\main.c      **** 								for(x=1;x<=count_teclas1;x++){
 7351              		.loc 1 1672 0 is_stmt 1
 7352 212a 0123     		movs	r3, #1
 7353 212c 87F82F30 		strb	r3, [r7, #47]
 7354 2130 3FE0     		b	.L375
 7355              	.L718:
 7356 2132 00BF     		.align	2
 7357              	.L717:
 7358 2134 00000000 		.word	count_teclas1
 7359 2138 00000000 		.word	Buffer_LCD1
 7360 213c 00000000 		.word	posy1
 7361 2140 00000000 		.word	sizeletra1
ARM GAS  C:\Users\RECEPC~1\AppData\Local\Temp\ccIpe7td.s 			page 162


 7362 2144 00000000 		.word	posx1
 7363 2148 00000000 		.word	LCD_1_rxBuffer
 7364 214c 00000000 		.word	comas1
 7365 2150 00000000 		.word	id_coma1
 7366 2154 00000000 		.word	id_teclado1
 7367 2158 00000000 		.word	flujo_LCD1
 7368 215c 00000000 		.word	lado1
 7369              	.L378:
1673:.\main.c      **** 									if(Buffer_LCD1[x]!=','){
 7370              		.loc 1 1673 0
 7371 2160 97F82F30 		ldrb	r3, [r7, #47]	@ zero_extendqisi2
 7372 2164 BC4A     		ldr	r2, .L719
 7373 2166 D35C     		ldrb	r3, [r2, r3]
 7374 2168 DBB2     		uxtb	r3, r3
 7375 216a 2C2B     		cmp	r3, #44
 7376 216c 0FD0     		beq	.L376
1674:.\main.c      **** 										numero[x-1]=Buffer_LCD1[x]+48;
 7377              		.loc 1 1674 0
 7378 216e 97F82F30 		ldrb	r3, [r7, #47]	@ zero_extendqisi2
 7379 2172 013B     		subs	r3, r3, #1
 7380 2174 97F82F20 		ldrb	r2, [r7, #47]	@ zero_extendqisi2
 7381 2178 B749     		ldr	r1, .L719
 7382 217a 8A5C     		ldrb	r2, [r1, r2]
 7383 217c D2B2     		uxtb	r2, r2
 7384 217e 3032     		adds	r2, r2, #48
 7385 2180 D2B2     		uxtb	r2, r2
 7386 2182 07F13001 		add	r1, r7, #48
 7387 2186 0B44     		add	r3, r3, r1
 7388 2188 03F82C2C 		strb	r2, [r3, #-44]
 7389 218c 0CE0     		b	.L377
 7390              	.L376:
1675:.\main.c      **** 									}
1676:.\main.c      **** 									else{
1677:.\main.c      **** 										numero[x-1]=Buffer_LCD1[x];
 7391              		.loc 1 1677 0
 7392 218e 97F82F30 		ldrb	r3, [r7, #47]	@ zero_extendqisi2
 7393 2192 013B     		subs	r3, r3, #1
 7394 2194 97F82F20 		ldrb	r2, [r7, #47]	@ zero_extendqisi2
 7395 2198 AF49     		ldr	r1, .L719
 7396 219a 8A5C     		ldrb	r2, [r1, r2]
 7397 219c D2B2     		uxtb	r2, r2
 7398 219e 07F13001 		add	r1, r7, #48
 7399 21a2 0B44     		add	r3, r3, r1
 7400 21a4 03F82C2C 		strb	r2, [r3, #-44]
 7401              	.L377:
1672:.\main.c      **** 									if(Buffer_LCD1[x]!=','){
 7402              		.loc 1 1672 0 discriminator 2
 7403 21a8 97F82F30 		ldrb	r3, [r7, #47]	@ zero_extendqisi2
 7404 21ac 0133     		adds	r3, r3, #1
 7405 21ae 87F82F30 		strb	r3, [r7, #47]
 7406              	.L375:
1672:.\main.c      **** 									if(Buffer_LCD1[x]!=','){
 7407              		.loc 1 1672 0 is_stmt 0 discriminator 1
 7408 21b2 AA4B     		ldr	r3, .L719+4
 7409 21b4 1B78     		ldrb	r3, [r3]
 7410 21b6 DBB2     		uxtb	r3, r3
 7411 21b8 97F82F20 		ldrb	r2, [r7, #47]	@ zero_extendqisi2
ARM GAS  C:\Users\RECEPC~1\AppData\Local\Temp\ccIpe7td.s 			page 163


 7412 21bc 9A42     		cmp	r2, r3
 7413 21be CFD9     		bls	.L378
1678:.\main.c      **** 									}
1679:.\main.c      **** 								}
1680:.\main.c      **** 								num_decimal=atof(numero);
 7414              		.loc 1 1680 0 is_stmt 1
 7415 21c0 3B1D     		adds	r3, r7, #4
 7416 21c2 1846     		mov	r0, r3
 7417 21c4 FFF7FEFF 		bl	atof
 7418 21c8 C7E90801 		strd	r0, [r7, #32]
1681:.\main.c      **** 								if(((rventa1.preset[0]==1)&&(num_decimal>=5))||((rventa1.preset[0]==2)&&(num_decimal<=5)&&(
 7419              		.loc 1 1681 0
 7420 21cc A44B     		ldr	r3, .L719+8
 7421 21ce DB7E     		ldrb	r3, [r3, #27]	@ zero_extendqisi2
 7422 21d0 012B     		cmp	r3, #1
 7423 21d2 09D1     		bne	.L379
 7424              		.loc 1 1681 0 is_stmt 0 discriminator 1
 7425 21d4 D7E90801 		ldrd	r0, [r7, #32]
 7426 21d8 4FF00002 		mov	r2, #0
 7427 21dc A14B     		ldr	r3, .L719+12
 7428 21de FFF7FEFF 		bl	__aeabi_dcmpge
 7429 21e2 0346     		mov	r3, r0
 7430 21e4 002B     		cmp	r3, #0
 7431 21e6 1AD1     		bne	.L380
 7432              	.L379:
 7433              		.loc 1 1681 0 discriminator 3
 7434 21e8 9D4B     		ldr	r3, .L719+8
 7435 21ea DB7E     		ldrb	r3, [r3, #27]	@ zero_extendqisi2
 7436 21ec 022B     		cmp	r3, #2
 7437 21ee 40D1     		bne	.L374
 7438              		.loc 1 1681 0 discriminator 4
 7439 21f0 D7E90801 		ldrd	r0, [r7, #32]
 7440 21f4 4FF00002 		mov	r2, #0
 7441 21f8 9A4B     		ldr	r3, .L719+12
 7442 21fa FFF7FEFF 		bl	__aeabi_dcmple
 7443 21fe 0346     		mov	r3, r0
 7444 2200 002B     		cmp	r3, #0
 7445 2202 00D1     		bne	.L683
1682:.\main.c      **** 									for(x=count_teclas1;x>=1;x--){
1683:.\main.c      **** 										rventa1.preset[x]=Buffer_LCD1[(count_teclas1-x)+1];
1684:.\main.c      **** 									}
1685:.\main.c      **** 									flujo_LCD1=5;								
1686:.\main.c      ****                          			lado1.estado=espera;
1687:.\main.c      **** 						            set_imagen(1,7);
1688:.\main.c      **** 								}
1689:.\main.c      **** 							}
1690:.\main.c      **** 						break;
 7446              		.loc 1 1690 0 is_stmt 1 discriminator 4
 7447 2204 06E3     		b	.L346
 7448              	.L683:
1681:.\main.c      **** 								if(((rventa1.preset[0]==1)&&(num_decimal>=5))||((rventa1.preset[0]==2)&&(num_decimal<=5)&&(
 7449              		.loc 1 1681 0 discriminator 5
 7450 2206 D7E90801 		ldrd	r0, [r7, #32]
 7451 220a 4FF00002 		mov	r2, #0
 7452 220e 4FF00003 		mov	r3, #0
 7453 2212 FFF7FEFF 		bl	__aeabi_dcmpgt
 7454 2216 0346     		mov	r3, r0
ARM GAS  C:\Users\RECEPC~1\AppData\Local\Temp\ccIpe7td.s 			page 164


 7455 2218 002B     		cmp	r3, #0
 7456 221a 00D1     		bne	.L380
 7457              		.loc 1 1690 0 discriminator 5
 7458 221c FAE2     		b	.L346
 7459              	.L380:
1682:.\main.c      **** 									for(x=count_teclas1;x>=1;x--){
 7460              		.loc 1 1682 0
 7461 221e 8F4B     		ldr	r3, .L719+4
 7462 2220 1B78     		ldrb	r3, [r3]
 7463 2222 87F82F30 		strb	r3, [r7, #47]
 7464 2226 15E0     		b	.L383
 7465              	.L384:
1683:.\main.c      **** 									}
 7466              		.loc 1 1683 0 discriminator 3
 7467 2228 97F82F30 		ldrb	r3, [r7, #47]	@ zero_extendqisi2
 7468 222c 8B4A     		ldr	r2, .L719+4
 7469 222e 1278     		ldrb	r2, [r2]
 7470 2230 D2B2     		uxtb	r2, r2
 7471 2232 1146     		mov	r1, r2
 7472 2234 97F82F20 		ldrb	r2, [r7, #47]	@ zero_extendqisi2
 7473 2238 8A1A     		subs	r2, r1, r2
 7474 223a 0132     		adds	r2, r2, #1
 7475 223c 8649     		ldr	r1, .L719
 7476 223e 8A5C     		ldrb	r2, [r1, r2]
 7477 2240 D1B2     		uxtb	r1, r2
 7478 2242 874A     		ldr	r2, .L719+8
 7479 2244 1344     		add	r3, r3, r2
 7480 2246 0A46     		mov	r2, r1
 7481 2248 DA76     		strb	r2, [r3, #27]
1682:.\main.c      **** 									for(x=count_teclas1;x>=1;x--){
 7482              		.loc 1 1682 0 discriminator 3
 7483 224a 97F82F30 		ldrb	r3, [r7, #47]	@ zero_extendqisi2
 7484 224e 013B     		subs	r3, r3, #1
 7485 2250 87F82F30 		strb	r3, [r7, #47]
 7486              	.L383:
1682:.\main.c      **** 									for(x=count_teclas1;x>=1;x--){
 7487              		.loc 1 1682 0 is_stmt 0 discriminator 1
 7488 2254 97F82F30 		ldrb	r3, [r7, #47]	@ zero_extendqisi2
 7489 2258 002B     		cmp	r3, #0
 7490 225a E5D1     		bne	.L384
1685:.\main.c      ****                          			lado1.estado=espera;
 7491              		.loc 1 1685 0 is_stmt 1
 7492 225c 824B     		ldr	r3, .L719+16
 7493 225e 0522     		movs	r2, #5
 7494 2260 1A70     		strb	r2, [r3]
1686:.\main.c      **** 						            set_imagen(1,7);
 7495              		.loc 1 1686 0
 7496 2262 824B     		ldr	r3, .L719+20
 7497 2264 0222     		movs	r2, #2
 7498 2266 5A70     		strb	r2, [r3, #1]
1687:.\main.c      **** 								}
 7499              		.loc 1 1687 0
 7500 2268 0120     		movs	r0, #1
 7501 226a 0721     		movs	r1, #7
 7502 226c FFF7FEFF 		bl	set_imagen
 7503              		.loc 1 1690 0
 7504 2270 D0E2     		b	.L346
ARM GAS  C:\Users\RECEPC~1\AppData\Local\Temp\ccIpe7td.s 			page 165


 7505              	.L374:
 7506 2272 CFE2     		b	.L346
 7507              	.L365:
1691:.\main.c      **** 						case 2:	
1692:.\main.c      ****                             set_imagen(1,5);
 7508              		.loc 1 1692 0
 7509 2274 0120     		movs	r0, #1
 7510 2276 0521     		movs	r1, #5
 7511 2278 FFF7FEFF 		bl	set_imagen
1693:.\main.c      ****                             for(x=0;x<=10;x++){
 7512              		.loc 1 1693 0
 7513 227c 0023     		movs	r3, #0
 7514 227e 87F82F30 		strb	r3, [r7, #47]
 7515 2282 0BE0     		b	.L385
 7516              	.L386:
1694:.\main.c      ****                               rventa1.km[x]=0;
 7517              		.loc 1 1694 0 discriminator 3
 7518 2284 97F82F30 		ldrb	r3, [r7, #47]	@ zero_extendqisi2
 7519 2288 754A     		ldr	r2, .L719+8
 7520 228a 1344     		add	r3, r3, r2
 7521 228c 0022     		movs	r2, #0
 7522 228e 83F84320 		strb	r2, [r3, #67]
1693:.\main.c      ****                             for(x=0;x<=10;x++){
 7523              		.loc 1 1693 0 discriminator 3
 7524 2292 97F82F30 		ldrb	r3, [r7, #47]	@ zero_extendqisi2
 7525 2296 0133     		adds	r3, r3, #1
 7526 2298 87F82F30 		strb	r3, [r7, #47]
 7527              	.L385:
1693:.\main.c      ****                             for(x=0;x<=10;x++){
 7528              		.loc 1 1693 0 is_stmt 0 discriminator 1
 7529 229c 97F82F30 		ldrb	r3, [r7, #47]	@ zero_extendqisi2
 7530 22a0 0A2B     		cmp	r3, #10
 7531 22a2 EFD9     		bls	.L386
1695:.\main.c      ****                             }
1696:.\main.c      **** 							for(x=count_teclas1;x>=1;x--){
 7532              		.loc 1 1696 0 is_stmt 1
 7533 22a4 6D4B     		ldr	r3, .L719+4
 7534 22a6 1B78     		ldrb	r3, [r3]
 7535 22a8 87F82F30 		strb	r3, [r7, #47]
 7536 22ac 16E0     		b	.L387
 7537              	.L388:
1697:.\main.c      **** 								rventa1.km[x]=Buffer_LCD1[(count_teclas1-x)+1];
 7538              		.loc 1 1697 0 discriminator 3
 7539 22ae 97F82F30 		ldrb	r3, [r7, #47]	@ zero_extendqisi2
 7540 22b2 6A4A     		ldr	r2, .L719+4
 7541 22b4 1278     		ldrb	r2, [r2]
 7542 22b6 D2B2     		uxtb	r2, r2
 7543 22b8 1146     		mov	r1, r2
 7544 22ba 97F82F20 		ldrb	r2, [r7, #47]	@ zero_extendqisi2
 7545 22be 8A1A     		subs	r2, r1, r2
 7546 22c0 0132     		adds	r2, r2, #1
 7547 22c2 6549     		ldr	r1, .L719
 7548 22c4 8A5C     		ldrb	r2, [r1, r2]
 7549 22c6 D1B2     		uxtb	r1, r2
 7550 22c8 654A     		ldr	r2, .L719+8
 7551 22ca 1344     		add	r3, r3, r2
 7552 22cc 0A46     		mov	r2, r1
ARM GAS  C:\Users\RECEPC~1\AppData\Local\Temp\ccIpe7td.s 			page 166


 7553 22ce 83F84320 		strb	r2, [r3, #67]
1696:.\main.c      **** 								rventa1.km[x]=Buffer_LCD1[(count_teclas1-x)+1];
 7554              		.loc 1 1696 0 discriminator 3
 7555 22d2 97F82F30 		ldrb	r3, [r7, #47]	@ zero_extendqisi2
 7556 22d6 013B     		subs	r3, r3, #1
 7557 22d8 87F82F30 		strb	r3, [r7, #47]
 7558              	.L387:
1696:.\main.c      **** 								rventa1.km[x]=Buffer_LCD1[(count_teclas1-x)+1];
 7559              		.loc 1 1696 0 is_stmt 0 discriminator 1
 7560 22dc 97F82F30 		ldrb	r3, [r7, #47]	@ zero_extendqisi2
 7561 22e0 002B     		cmp	r3, #0
 7562 22e2 E4D1     		bne	.L388
1698:.\main.c      **** 							}
1699:.\main.c      **** 	                        flujo_LCD1=4;		                        
 7563              		.loc 1 1699 0 is_stmt 1
 7564 22e4 604B     		ldr	r3, .L719+16
 7565 22e6 0422     		movs	r2, #4
 7566 22e8 1A70     		strb	r2, [r3]
1700:.\main.c      **** 						break;
 7567              		.loc 1 1700 0
 7568 22ea 93E2     		b	.L346
 7569              	.L366:
1701:.\main.c      **** 						case 3:
1702:.\main.c      **** 							for(x=count_teclas1;x>=1;x--){
 7570              		.loc 1 1702 0
 7571 22ec 5B4B     		ldr	r3, .L719+4
 7572 22ee 1B78     		ldrb	r3, [r3]
 7573 22f0 87F82F30 		strb	r3, [r7, #47]
 7574 22f4 18E0     		b	.L389
 7575              	.L390:
1703:.\main.c      **** 								rventa1.cedula[x]=Buffer_LCD1[(count_teclas1-x)+1]+48;
 7576              		.loc 1 1703 0 discriminator 3
 7577 22f6 97F82F30 		ldrb	r3, [r7, #47]	@ zero_extendqisi2
 7578 22fa 584A     		ldr	r2, .L719+4
 7579 22fc 1278     		ldrb	r2, [r2]
 7580 22fe D2B2     		uxtb	r2, r2
 7581 2300 1146     		mov	r1, r2
 7582 2302 97F82F20 		ldrb	r2, [r7, #47]	@ zero_extendqisi2
 7583 2306 8A1A     		subs	r2, r1, r2
 7584 2308 0132     		adds	r2, r2, #1
 7585 230a 5349     		ldr	r1, .L719
 7586 230c 8A5C     		ldrb	r2, [r1, r2]
 7587 230e D2B2     		uxtb	r2, r2
 7588 2310 3032     		adds	r2, r2, #48
 7589 2312 D1B2     		uxtb	r1, r2
 7590 2314 524A     		ldr	r2, .L719+8
 7591 2316 1344     		add	r3, r3, r2
 7592 2318 0A46     		mov	r2, r1
 7593 231a 83F85920 		strb	r2, [r3, #89]
1702:.\main.c      **** 								rventa1.cedula[x]=Buffer_LCD1[(count_teclas1-x)+1]+48;
 7594              		.loc 1 1702 0 discriminator 3
 7595 231e 97F82F30 		ldrb	r3, [r7, #47]	@ zero_extendqisi2
 7596 2322 013B     		subs	r3, r3, #1
 7597 2324 87F82F30 		strb	r3, [r7, #47]
 7598              	.L389:
1702:.\main.c      **** 								rventa1.cedula[x]=Buffer_LCD1[(count_teclas1-x)+1]+48;
 7599              		.loc 1 1702 0 is_stmt 0 discriminator 1
ARM GAS  C:\Users\RECEPC~1\AppData\Local\Temp\ccIpe7td.s 			page 167


 7600 2328 97F82F30 		ldrb	r3, [r7, #47]	@ zero_extendqisi2
 7601 232c 002B     		cmp	r3, #0
 7602 232e E2D1     		bne	.L390
1704:.\main.c      **** 							}
1705:.\main.c      ****                         	flujo_LCD1=2;	
 7603              		.loc 1 1705 0 is_stmt 1
 7604 2330 4D4B     		ldr	r3, .L719+16
 7605 2332 0222     		movs	r2, #2
 7606 2334 1A70     		strb	r2, [r3]
1706:.\main.c      ****                         	set_imagen(1,5);
 7607              		.loc 1 1706 0
 7608 2336 0120     		movs	r0, #1
 7609 2338 0521     		movs	r1, #5
 7610 233a FFF7FEFF 		bl	set_imagen
1707:.\main.c      **** 							count_teclas1=0;
 7611              		.loc 1 1707 0
 7612 233e 474B     		ldr	r3, .L719+4
 7613 2340 0022     		movs	r2, #0
 7614 2342 1A70     		strb	r2, [r3]
1708:.\main.c      **** 							id_teclado1=4;
 7615              		.loc 1 1708 0
 7616 2344 4A4B     		ldr	r3, .L719+24
 7617 2346 0422     		movs	r2, #4
 7618 2348 1A70     		strb	r2, [r3]
1709:.\main.c      **** 							teclas1=10;
 7619              		.loc 1 1709 0
 7620 234a 4A4B     		ldr	r3, .L719+28
 7621 234c 0A22     		movs	r2, #10
 7622 234e 1A70     		strb	r2, [r3]
1710:.\main.c      **** 							posx1=2;
 7623              		.loc 1 1710 0
 7624 2350 494B     		ldr	r3, .L719+32
 7625 2352 0222     		movs	r2, #2
 7626 2354 1A80     		strh	r2, [r3]	@ movhi
1711:.\main.c      **** 							posy1=3;
 7627              		.loc 1 1711 0
 7628 2356 494B     		ldr	r3, .L719+36
 7629 2358 0322     		movs	r2, #3
 7630 235a 1A80     		strh	r2, [r3]	@ movhi
1712:.\main.c      **** 							sizeletra1=1;								
 7631              		.loc 1 1712 0
 7632 235c 484B     		ldr	r3, .L719+40
 7633 235e 0122     		movs	r2, #1
 7634 2360 1A80     		strh	r2, [r3]	@ movhi
1713:.\main.c      **** 						break;
 7635              		.loc 1 1713 0
 7636 2362 57E2     		b	.L346
 7637              	.L367:
1714:.\main.c      **** 						case 4:
1715:.\main.c      **** 							for(x=count_teclas1;x>=1;x--){
 7638              		.loc 1 1715 0
 7639 2364 3D4B     		ldr	r3, .L719+4
 7640 2366 1B78     		ldrb	r3, [r3]
 7641 2368 87F82F30 		strb	r3, [r7, #47]
 7642 236c 18E0     		b	.L391
 7643              	.L392:
1716:.\main.c      **** 								rventa1.password[x]=Buffer_LCD1[(count_teclas1-x)+1]+48;
ARM GAS  C:\Users\RECEPC~1\AppData\Local\Temp\ccIpe7td.s 			page 168


 7644              		.loc 1 1716 0 discriminator 3
 7645 236e 97F82F30 		ldrb	r3, [r7, #47]	@ zero_extendqisi2
 7646 2372 3A4A     		ldr	r2, .L719+4
 7647 2374 1278     		ldrb	r2, [r2]
 7648 2376 D2B2     		uxtb	r2, r2
 7649 2378 1146     		mov	r1, r2
 7650 237a 97F82F20 		ldrb	r2, [r7, #47]	@ zero_extendqisi2
 7651 237e 8A1A     		subs	r2, r1, r2
 7652 2380 0132     		adds	r2, r2, #1
 7653 2382 3549     		ldr	r1, .L719
 7654 2384 8A5C     		ldrb	r2, [r1, r2]
 7655 2386 D2B2     		uxtb	r2, r2
 7656 2388 3032     		adds	r2, r2, #48
 7657 238a D1B2     		uxtb	r1, r2
 7658 238c 344A     		ldr	r2, .L719+8
 7659 238e 1344     		add	r3, r3, r2
 7660 2390 0A46     		mov	r2, r1
 7661 2392 83F86420 		strb	r2, [r3, #100]
1715:.\main.c      **** 								rventa1.password[x]=Buffer_LCD1[(count_teclas1-x)+1]+48;
 7662              		.loc 1 1715 0 discriminator 3
 7663 2396 97F82F30 		ldrb	r3, [r7, #47]	@ zero_extendqisi2
 7664 239a 013B     		subs	r3, r3, #1
 7665 239c 87F82F30 		strb	r3, [r7, #47]
 7666              	.L391:
1715:.\main.c      **** 								rventa1.password[x]=Buffer_LCD1[(count_teclas1-x)+1]+48;
 7667              		.loc 1 1715 0 is_stmt 0 discriminator 1
 7668 23a0 97F82F30 		ldrb	r3, [r7, #47]	@ zero_extendqisi2
 7669 23a4 002B     		cmp	r3, #0
 7670 23a6 E2D1     		bne	.L392
1717:.\main.c      **** 							}
1718:.\main.c      ****                         	flujo_LCD1=102;	
 7671              		.loc 1 1718 0 is_stmt 1
 7672 23a8 2F4B     		ldr	r3, .L719+16
 7673 23aa 6622     		movs	r2, #102
 7674 23ac 1A70     		strb	r2, [r3]
1719:.\main.c      ****                         	set_imagen(1,57);
 7675              		.loc 1 1719 0
 7676 23ae 0120     		movs	r0, #1
 7677 23b0 3921     		movs	r1, #57
 7678 23b2 FFF7FEFF 		bl	set_imagen
1720:.\main.c      **** 							lado1.estado=16;
 7679              		.loc 1 1720 0
 7680 23b6 2D4B     		ldr	r3, .L719+20
 7681 23b8 1022     		movs	r2, #16
 7682 23ba 5A70     		strb	r2, [r3, #1]
1721:.\main.c      **** 						break;	
 7683              		.loc 1 1721 0
 7684 23bc 2AE2     		b	.L346
 7685              	.L368:
1722:.\main.c      ****                         case 5:
1723:.\main.c      **** 							for(x=count_teclas1;x>=1;x--){
 7686              		.loc 1 1723 0
 7687 23be 274B     		ldr	r3, .L719+4
 7688 23c0 1B78     		ldrb	r3, [r3]
 7689 23c2 87F82F30 		strb	r3, [r7, #47]
 7690 23c6 18E0     		b	.L393
 7691              	.L394:
ARM GAS  C:\Users\RECEPC~1\AppData\Local\Temp\ccIpe7td.s 			page 169


1724:.\main.c      **** 								rventa1.password_local[x]=Buffer_LCD1[(count_teclas1-x)+1]+48;
 7692              		.loc 1 1724 0 discriminator 3
 7693 23c8 97F82F30 		ldrb	r3, [r7, #47]	@ zero_extendqisi2
 7694 23cc 234A     		ldr	r2, .L719+4
 7695 23ce 1278     		ldrb	r2, [r2]
 7696 23d0 D2B2     		uxtb	r2, r2
 7697 23d2 1146     		mov	r1, r2
 7698 23d4 97F82F20 		ldrb	r2, [r7, #47]	@ zero_extendqisi2
 7699 23d8 8A1A     		subs	r2, r1, r2
 7700 23da 0132     		adds	r2, r2, #1
 7701 23dc 1E49     		ldr	r1, .L719
 7702 23de 8A5C     		ldrb	r2, [r1, r2]
 7703 23e0 D2B2     		uxtb	r2, r2
 7704 23e2 3032     		adds	r2, r2, #48
 7705 23e4 D1B2     		uxtb	r1, r2
 7706 23e6 1E4A     		ldr	r2, .L719+8
 7707 23e8 1344     		add	r3, r3, r2
 7708 23ea 0A46     		mov	r2, r1
 7709 23ec 83F87120 		strb	r2, [r3, #113]
1723:.\main.c      **** 								rventa1.password_local[x]=Buffer_LCD1[(count_teclas1-x)+1]+48;
 7710              		.loc 1 1723 0 discriminator 3
 7711 23f0 97F82F30 		ldrb	r3, [r7, #47]	@ zero_extendqisi2
 7712 23f4 013B     		subs	r3, r3, #1
 7713 23f6 87F82F30 		strb	r3, [r7, #47]
 7714              	.L393:
1723:.\main.c      **** 								rventa1.password_local[x]=Buffer_LCD1[(count_teclas1-x)+1]+48;
 7715              		.loc 1 1723 0 is_stmt 0 discriminator 1
 7716 23fa 97F82F30 		ldrb	r3, [r7, #47]	@ zero_extendqisi2
 7717 23fe 002B     		cmp	r3, #0
 7718 2400 E2D1     		bne	.L394
1725:.\main.c      **** 							}
1726:.\main.c      ****                             if(clave_local[0]==rventa1.password_local[4] && clave_local[1]==rventa1
 7719              		.loc 1 1726 0 is_stmt 1
 7720 2402 204B     		ldr	r3, .L719+44
 7721 2404 1A78     		ldrb	r2, [r3]	@ zero_extendqisi2
 7722 2406 164B     		ldr	r3, .L719+8
 7723 2408 93F87530 		ldrb	r3, [r3, #117]	@ zero_extendqisi2
 7724 240c 9A42     		cmp	r2, r3
 7725 240e 3BD1     		bne	.L395
 7726              		.loc 1 1726 0 is_stmt 0 discriminator 1
 7727 2410 1C4B     		ldr	r3, .L719+44
 7728 2412 5A78     		ldrb	r2, [r3, #1]	@ zero_extendqisi2
 7729 2414 124B     		ldr	r3, .L719+8
 7730 2416 93F87430 		ldrb	r3, [r3, #116]	@ zero_extendqisi2
 7731 241a 9A42     		cmp	r2, r3
 7732 241c 34D1     		bne	.L395
 7733              		.loc 1 1726 0 discriminator 2
 7734 241e 194B     		ldr	r3, .L719+44
 7735 2420 9A78     		ldrb	r2, [r3, #2]	@ zero_extendqisi2
 7736 2422 0F4B     		ldr	r3, .L719+8
 7737 2424 93F87330 		ldrb	r3, [r3, #115]	@ zero_extendqisi2
 7738 2428 9A42     		cmp	r2, r3
 7739 242a 2DD1     		bne	.L395
 7740              		.loc 1 1726 0 discriminator 3
 7741 242c 154B     		ldr	r3, .L719+44
 7742 242e DA78     		ldrb	r2, [r3, #3]	@ zero_extendqisi2
 7743 2430 0B4B     		ldr	r3, .L719+8
ARM GAS  C:\Users\RECEPC~1\AppData\Local\Temp\ccIpe7td.s 			page 170


 7744 2432 93F87230 		ldrb	r3, [r3, #114]	@ zero_extendqisi2
 7745 2436 9A42     		cmp	r2, r3
 7746 2438 26D1     		bne	.L395
1727:.\main.c      ****                         	    set_imagen(1,38); 
 7747              		.loc 1 1727 0 is_stmt 1
 7748 243a 0120     		movs	r0, #1
 7749 243c 2621     		movs	r1, #38
 7750 243e FFF7FEFF 		bl	set_imagen
1728:.\main.c      ****                                 CyDelay(200);
 7751              		.loc 1 1728 0
 7752 2442 C820     		movs	r0, #200
 7753 2444 FFF7FEFF 		bl	CyDelay
1729:.\main.c      **** 							    set_imagen(1,70);  
 7754              		.loc 1 1729 0
 7755 2448 0120     		movs	r0, #1
 7756 244a 4621     		movs	r1, #70
 7757 244c FFF7FEFF 		bl	set_imagen
1730:.\main.c      ****                                 flujo_LCD1 = 16;
 7758              		.loc 1 1730 0
 7759 2450 054B     		ldr	r3, .L719+16
 7760 2452 1022     		movs	r2, #16
 7761 2454 1A70     		strb	r2, [r3]
1731:.\main.c      ****                             }else{
1732:.\main.c      ****                         	    flujo_LCD1=0;	
1733:.\main.c      ****                         	    set_imagen(1,39); 
1734:.\main.c      **** 							    lado1.estado=libre;                                 
1735:.\main.c      ****                                 CyDelay(200);
1736:.\main.c      **** 							    set_imagen(1,0);                                 
1737:.\main.c      ****                             }
1738:.\main.c      ****                         break; 
 7762              		.loc 1 1738 0
 7763 2456 DDE1     		b	.L346
 7764              	.L720:
 7765              		.align	2
 7766              	.L719:
 7767 2458 00000000 		.word	Buffer_LCD1
 7768 245c 00000000 		.word	count_teclas1
 7769 2460 00000000 		.word	rventa1
 7770 2464 00001440 		.word	1075052544
 7771 2468 00000000 		.word	flujo_LCD1
 7772 246c 00000000 		.word	lado1
 7773 2470 00000000 		.word	id_teclado1
 7774 2474 00000000 		.word	teclas1
 7775 2478 00000000 		.word	posx1
 7776 247c 00000000 		.word	posy1
 7777 2480 00000000 		.word	sizeletra1
 7778 2484 00000000 		.word	clave_local
 7779              	.L395:
1732:.\main.c      ****                         	    set_imagen(1,39); 
 7780              		.loc 1 1732 0
 7781 2488 8C4B     		ldr	r3, .L721
 7782 248a 0022     		movs	r2, #0
 7783 248c 1A70     		strb	r2, [r3]
1733:.\main.c      **** 							    lado1.estado=libre;                                 
 7784              		.loc 1 1733 0
 7785 248e 0120     		movs	r0, #1
 7786 2490 2721     		movs	r1, #39
ARM GAS  C:\Users\RECEPC~1\AppData\Local\Temp\ccIpe7td.s 			page 171


 7787 2492 FFF7FEFF 		bl	set_imagen
1734:.\main.c      ****                                 CyDelay(200);
 7788              		.loc 1 1734 0
 7789 2496 8A4B     		ldr	r3, .L721+4
 7790 2498 0122     		movs	r2, #1
 7791 249a 5A70     		strb	r2, [r3, #1]
1735:.\main.c      **** 							    set_imagen(1,0);                                 
 7792              		.loc 1 1735 0
 7793 249c C820     		movs	r0, #200
 7794 249e FFF7FEFF 		bl	CyDelay
1736:.\main.c      ****                             }
 7795              		.loc 1 1736 0
 7796 24a2 0120     		movs	r0, #1
 7797 24a4 0021     		movs	r1, #0
 7798 24a6 FFF7FEFF 		bl	set_imagen
 7799              		.loc 1 1738 0
 7800 24aa B3E1     		b	.L346
 7801              	.L369:
1739:.\main.c      ****                         case 6:                        
1740:.\main.c      **** 						    EEPROM_WriteByte(Buffer_LCD1[count_teclas1],30);
 7802              		.loc 1 1740 0
 7803 24ac 854B     		ldr	r3, .L721+8
 7804 24ae 1B78     		ldrb	r3, [r3]
 7805 24b0 DBB2     		uxtb	r3, r3
 7806 24b2 1A46     		mov	r2, r3
 7807 24b4 844B     		ldr	r3, .L721+12
 7808 24b6 9B5C     		ldrb	r3, [r3, r2]
 7809 24b8 DBB2     		uxtb	r3, r3
 7810 24ba 1846     		mov	r0, r3
 7811 24bc 1E21     		movs	r1, #30
 7812 24be FFF7FEFF 		bl	EEPROM_WriteByte
1741:.\main.c      ****                         	flujo_LCD1 = 0;	
 7813              		.loc 1 1741 0
 7814 24c2 7E4B     		ldr	r3, .L721
 7815 24c4 0022     		movs	r2, #0
 7816 24c6 1A70     		strb	r2, [r3]
1742:.\main.c      ****                         	set_imagen(1,60);
 7817              		.loc 1 1742 0
 7818 24c8 0120     		movs	r0, #1
 7819 24ca 3C21     		movs	r1, #60
 7820 24cc FFF7FEFF 		bl	set_imagen
1743:.\main.c      ****                             CyDelay(200);
 7821              		.loc 1 1743 0
 7822 24d0 C820     		movs	r0, #200
 7823 24d2 FFF7FEFF 		bl	CyDelay
1744:.\main.c      **** 							lado1.estado=libre;                                                     
 7824              		.loc 1 1744 0
 7825 24d6 7A4B     		ldr	r3, .L721+4
 7826 24d8 0122     		movs	r2, #1
 7827 24da 5A70     		strb	r2, [r3, #1]
1745:.\main.c      ****                         break;   
 7828              		.loc 1 1745 0
 7829 24dc 9AE1     		b	.L346
 7830              	.L370:
1746:.\main.c      ****                         case 7:
1747:.\main.c      ****                             flujo_LCD1=18;
 7831              		.loc 1 1747 0
ARM GAS  C:\Users\RECEPC~1\AppData\Local\Temp\ccIpe7td.s 			page 172


 7832 24de 774B     		ldr	r3, .L721
 7833 24e0 1222     		movs	r2, #18
 7834 24e2 1A70     		strb	r2, [r3]
1748:.\main.c      ****                             set_imagen(1,88);
 7835              		.loc 1 1748 0
 7836 24e4 0120     		movs	r0, #1
 7837 24e6 5821     		movs	r1, #88
 7838 24e8 FFF7FEFF 		bl	set_imagen
1749:.\main.c      ****                             switch(Producto){
 7839              		.loc 1 1749 0
 7840 24ec 774B     		ldr	r3, .L721+16
 7841 24ee 1B78     		ldrb	r3, [r3]	@ zero_extendqisi2
 7842 24f0 013B     		subs	r3, r3, #1
 7843 24f2 032B     		cmp	r3, #3
 7844 24f4 00F29880 		bhi	.L397
 7845 24f8 01A2     		adr	r2, .L399
 7846 24fa 52F823F0 		ldr	pc, [r2, r3, lsl #2]
 7847 24fe 00BF     		.p2align 2
 7848              	.L399:
 7849 2500 11250000 		.word	.L398+1
 7850 2504 57250000 		.word	.L400+1
 7851 2508 9D250000 		.word	.L401+1
 7852 250c E3250000 		.word	.L402+1
 7853              		.p2align 1
 7854              	.L398:
1750:.\main.c      ****                                 case 1:// 1=diesel, siempre para Autogas, 
1751:.\main.c      ****                                     Productos[0]=Buffer_LCD1[1]+48;//para la estacion seria el digi
 7855              		.loc 1 1751 0
 7856 2510 6D4B     		ldr	r3, .L721+12
 7857 2512 5B78     		ldrb	r3, [r3, #1]
 7858 2514 DBB2     		uxtb	r3, r3
 7859 2516 3033     		adds	r3, r3, #48
 7860 2518 DAB2     		uxtb	r2, r3
 7861 251a 6D4B     		ldr	r3, .L721+20
 7862 251c 1A70     		strb	r2, [r3]
1752:.\main.c      ****                                     switch(Productos[0]){
 7863              		.loc 1 1752 0
 7864 251e 6C4B     		ldr	r3, .L721+20
 7865 2520 1B78     		ldrb	r3, [r3]	@ zero_extendqisi2
 7866 2522 322B     		cmp	r3, #50
 7867 2524 08D0     		beq	.L404
 7868 2526 332B     		cmp	r3, #51
 7869 2528 0BD0     		beq	.L405
 7870 252a 312B     		cmp	r3, #49
 7871 252c 0ED1     		bne	.L685
1753:.\main.c      ****                                         case '1':
1754:.\main.c      ****                                         lado1.grado[0][0]=1;                                       
 7872              		.loc 1 1754 0
 7873 252e 644B     		ldr	r3, .L721+4
 7874 2530 0122     		movs	r2, #1
 7875 2532 83F85920 		strb	r2, [r3, #89]
1755:.\main.c      ****                                         break;
 7876              		.loc 1 1755 0
 7877 2536 0DE0     		b	.L407
 7878              	.L404:
1756:.\main.c      ****                                         case '2':
1757:.\main.c      ****                                         lado1.grado[1][0]=1;                                       
ARM GAS  C:\Users\RECEPC~1\AppData\Local\Temp\ccIpe7td.s 			page 173


 7879              		.loc 1 1757 0
 7880 2538 614B     		ldr	r3, .L721+4
 7881 253a 0122     		movs	r2, #1
 7882 253c 83F85A20 		strb	r2, [r3, #90]
1758:.\main.c      ****                                         break;
 7883              		.loc 1 1758 0
 7884 2540 08E0     		b	.L407
 7885              	.L405:
1759:.\main.c      ****                                         case '3':
1760:.\main.c      ****                                         lado1.grado[2][0]=1;                                       
 7886              		.loc 1 1760 0
 7887 2542 5F4B     		ldr	r3, .L721+4
 7888 2544 0122     		movs	r2, #1
 7889 2546 83F85B20 		strb	r2, [r3, #91]
1761:.\main.c      ****                                         break;                    
 7890              		.loc 1 1761 0
 7891 254a 03E0     		b	.L407
 7892              	.L685:
1762:.\main.c      ****                                         default:
1763:.\main.c      ****                                         producto1 = 0;
 7893              		.loc 1 1763 0
 7894 254c 614B     		ldr	r3, .L721+24
 7895 254e 0022     		movs	r2, #0
 7896 2550 1A70     		strb	r2, [r3]
1764:.\main.c      ****                                         break;
 7897              		.loc 1 1764 0
 7898 2552 00BF     		nop
 7899              	.L407:
1765:.\main.c      ****                                     }                                   
1766:.\main.c      ****                                 break;
 7900              		.loc 1 1766 0
 7901 2554 68E0     		b	.L397
 7902              	.L400:
1767:.\main.c      ****                                 case 2:// 2=corriente, siempre para Autogas,
1768:.\main.c      ****                                     Productos[1]=Buffer_LCD1[1]+48;
 7903              		.loc 1 1768 0
 7904 2556 5C4B     		ldr	r3, .L721+12
 7905 2558 5B78     		ldrb	r3, [r3, #1]
 7906 255a DBB2     		uxtb	r3, r3
 7907 255c 3033     		adds	r3, r3, #48
 7908 255e DAB2     		uxtb	r2, r3
 7909 2560 5B4B     		ldr	r3, .L721+20
 7910 2562 5A70     		strb	r2, [r3, #1]
1769:.\main.c      ****                                     switch(Productos[1]){
 7911              		.loc 1 1769 0
 7912 2564 5A4B     		ldr	r3, .L721+20
 7913 2566 5B78     		ldrb	r3, [r3, #1]	@ zero_extendqisi2
 7914 2568 322B     		cmp	r3, #50
 7915 256a 08D0     		beq	.L409
 7916 256c 332B     		cmp	r3, #51
 7917 256e 0BD0     		beq	.L410
 7918 2570 312B     		cmp	r3, #49
 7919 2572 0ED1     		bne	.L686
1770:.\main.c      ****                                         case '1':
1771:.\main.c      ****                                         lado1.grado[0][0]=2;                                       
 7920              		.loc 1 1771 0
 7921 2574 524B     		ldr	r3, .L721+4
ARM GAS  C:\Users\RECEPC~1\AppData\Local\Temp\ccIpe7td.s 			page 174


 7922 2576 0222     		movs	r2, #2
 7923 2578 83F85920 		strb	r2, [r3, #89]
1772:.\main.c      ****                                         break;
 7924              		.loc 1 1772 0
 7925 257c 0DE0     		b	.L412
 7926              	.L409:
1773:.\main.c      ****                                         case '2':
1774:.\main.c      ****                                         lado1.grado[1][0]=2;                                       
 7927              		.loc 1 1774 0
 7928 257e 504B     		ldr	r3, .L721+4
 7929 2580 0222     		movs	r2, #2
 7930 2582 83F85A20 		strb	r2, [r3, #90]
1775:.\main.c      ****                                         break;
 7931              		.loc 1 1775 0
 7932 2586 08E0     		b	.L412
 7933              	.L410:
1776:.\main.c      ****                                         case '3':
1777:.\main.c      ****                                         lado1.grado[2][0]=2;                                       
 7934              		.loc 1 1777 0
 7935 2588 4D4B     		ldr	r3, .L721+4
 7936 258a 0222     		movs	r2, #2
 7937 258c 83F85B20 		strb	r2, [r3, #91]
1778:.\main.c      ****                                         break; 
 7938              		.loc 1 1778 0
 7939 2590 03E0     		b	.L412
 7940              	.L686:
1779:.\main.c      ****                                         default:
1780:.\main.c      ****                                         producto2=0;
 7941              		.loc 1 1780 0
 7942 2592 514B     		ldr	r3, .L721+28
 7943 2594 0022     		movs	r2, #0
 7944 2596 1A70     		strb	r2, [r3]
1781:.\main.c      ****                                         break;                                        
 7945              		.loc 1 1781 0
 7946 2598 00BF     		nop
 7947              	.L412:
1782:.\main.c      ****                                     }                                      
1783:.\main.c      ****                                 break;
 7948              		.loc 1 1783 0
 7949 259a 45E0     		b	.L397
 7950              	.L401:
1784:.\main.c      ****                                 case 3:// 3=extra, siempre para Autogas,
1785:.\main.c      ****                                     Productos[2]=Buffer_LCD1[1]+48;
 7951              		.loc 1 1785 0
 7952 259c 4A4B     		ldr	r3, .L721+12
 7953 259e 5B78     		ldrb	r3, [r3, #1]
 7954 25a0 DBB2     		uxtb	r3, r3
 7955 25a2 3033     		adds	r3, r3, #48
 7956 25a4 DAB2     		uxtb	r2, r3
 7957 25a6 4A4B     		ldr	r3, .L721+20
 7958 25a8 9A70     		strb	r2, [r3, #2]
1786:.\main.c      ****                                     switch(Productos[2]){
 7959              		.loc 1 1786 0
 7960 25aa 494B     		ldr	r3, .L721+20
 7961 25ac 9B78     		ldrb	r3, [r3, #2]	@ zero_extendqisi2
 7962 25ae 322B     		cmp	r3, #50
 7963 25b0 08D0     		beq	.L414
ARM GAS  C:\Users\RECEPC~1\AppData\Local\Temp\ccIpe7td.s 			page 175


 7964 25b2 332B     		cmp	r3, #51
 7965 25b4 0BD0     		beq	.L415
 7966 25b6 312B     		cmp	r3, #49
 7967 25b8 0ED1     		bne	.L687
1787:.\main.c      ****                                         case '1':
1788:.\main.c      ****                                         lado1.grado[0][0]=3;                                       
 7968              		.loc 1 1788 0
 7969 25ba 414B     		ldr	r3, .L721+4
 7970 25bc 0322     		movs	r2, #3
 7971 25be 83F85920 		strb	r2, [r3, #89]
1789:.\main.c      ****                                         break;
 7972              		.loc 1 1789 0
 7973 25c2 0DE0     		b	.L417
 7974              	.L414:
1790:.\main.c      ****                                         case '2':
1791:.\main.c      ****                                         lado1.grado[1][0]=3;                                       
 7975              		.loc 1 1791 0
 7976 25c4 3E4B     		ldr	r3, .L721+4
 7977 25c6 0322     		movs	r2, #3
 7978 25c8 83F85A20 		strb	r2, [r3, #90]
1792:.\main.c      ****                                         break;
 7979              		.loc 1 1792 0
 7980 25cc 08E0     		b	.L417
 7981              	.L415:
1793:.\main.c      ****                                         case '3':
1794:.\main.c      ****                                         lado1.grado[2][0]=3;                                       
 7982              		.loc 1 1794 0
 7983 25ce 3C4B     		ldr	r3, .L721+4
 7984 25d0 0322     		movs	r2, #3
 7985 25d2 83F85B20 		strb	r2, [r3, #91]
1795:.\main.c      ****                                         break; 
 7986              		.loc 1 1795 0
 7987 25d6 03E0     		b	.L417
 7988              	.L687:
1796:.\main.c      ****                                         default:
1797:.\main.c      ****                                         producto3=0;
 7989              		.loc 1 1797 0
 7990 25d8 404B     		ldr	r3, .L721+32
 7991 25da 0022     		movs	r2, #0
 7992 25dc 1A70     		strb	r2, [r3]
1798:.\main.c      ****                                         break;                                        
 7993              		.loc 1 1798 0
 7994 25de 00BF     		nop
 7995              	.L417:
1799:.\main.c      ****                                     }                                      
1800:.\main.c      ****                                 break;
 7996              		.loc 1 1800 0
 7997 25e0 22E0     		b	.L397
 7998              	.L402:
1801:.\main.c      ****                                 case 4:// 4=supreme diesel, siempre para Autogas,
1802:.\main.c      ****                                     Productos[3]=Buffer_LCD1[1]+48;
 7999              		.loc 1 1802 0
 8000 25e2 394B     		ldr	r3, .L721+12
 8001 25e4 5B78     		ldrb	r3, [r3, #1]
 8002 25e6 DBB2     		uxtb	r3, r3
 8003 25e8 3033     		adds	r3, r3, #48
 8004 25ea DAB2     		uxtb	r2, r3
ARM GAS  C:\Users\RECEPC~1\AppData\Local\Temp\ccIpe7td.s 			page 176


 8005 25ec 384B     		ldr	r3, .L721+20
 8006 25ee DA70     		strb	r2, [r3, #3]
1803:.\main.c      ****                                     switch(Productos[3]){
 8007              		.loc 1 1803 0
 8008 25f0 374B     		ldr	r3, .L721+20
 8009 25f2 DB78     		ldrb	r3, [r3, #3]	@ zero_extendqisi2
 8010 25f4 322B     		cmp	r3, #50
 8011 25f6 08D0     		beq	.L419
 8012 25f8 332B     		cmp	r3, #51
 8013 25fa 0BD0     		beq	.L420
 8014 25fc 312B     		cmp	r3, #49
 8015 25fe 0ED1     		bne	.L688
1804:.\main.c      ****                                         case '1':
1805:.\main.c      ****                                         lado1.grado[0][0]=4;                                       
 8016              		.loc 1 1805 0
 8017 2600 2F4B     		ldr	r3, .L721+4
 8018 2602 0422     		movs	r2, #4
 8019 2604 83F85920 		strb	r2, [r3, #89]
1806:.\main.c      ****                                         break;
 8020              		.loc 1 1806 0
 8021 2608 0DE0     		b	.L422
 8022              	.L419:
1807:.\main.c      ****                                         case '2':
1808:.\main.c      ****                                         lado1.grado[1][0]=4;                                       
 8023              		.loc 1 1808 0
 8024 260a 2D4B     		ldr	r3, .L721+4
 8025 260c 0422     		movs	r2, #4
 8026 260e 83F85A20 		strb	r2, [r3, #90]
1809:.\main.c      ****                                         break;
 8027              		.loc 1 1809 0
 8028 2612 08E0     		b	.L422
 8029              	.L420:
1810:.\main.c      ****                                         case '3':
1811:.\main.c      ****                                         lado1.grado[2][0]=4;                                       
 8030              		.loc 1 1811 0
 8031 2614 2A4B     		ldr	r3, .L721+4
 8032 2616 0422     		movs	r2, #4
 8033 2618 83F85B20 		strb	r2, [r3, #91]
1812:.\main.c      ****                                         break;
 8034              		.loc 1 1812 0
 8035 261c 03E0     		b	.L422
 8036              	.L688:
1813:.\main.c      ****                                         default:
1814:.\main.c      ****                                         producto4=0;
 8037              		.loc 1 1814 0
 8038 261e 304B     		ldr	r3, .L721+36
 8039 2620 0022     		movs	r2, #0
 8040 2622 1A70     		strb	r2, [r3]
1815:.\main.c      ****                                         break;                                      
 8041              		.loc 1 1815 0
 8042 2624 00BF     		nop
 8043              	.L422:
1816:.\main.c      ****                                     }                                      
1817:.\main.c      ****                                 break;                                    
 8044              		.loc 1 1817 0
 8045 2626 00BF     		nop
 8046              	.L397:
ARM GAS  C:\Users\RECEPC~1\AppData\Local\Temp\ccIpe7td.s 			page 177


1818:.\main.c      ****                             }
1819:.\main.c      ****                             write_LCD(1,Productos[0], 7, 44, 1);
 8047              		.loc 1 1819 0
 8048 2628 294B     		ldr	r3, .L721+20
 8049 262a 1A78     		ldrb	r2, [r3]	@ zero_extendqisi2
 8050 262c 0123     		movs	r3, #1
 8051 262e 0093     		str	r3, [sp]
 8052 2630 0120     		movs	r0, #1
 8053 2632 1146     		mov	r1, r2
 8054 2634 0722     		movs	r2, #7
 8055 2636 2C23     		movs	r3, #44
 8056 2638 FFF7FEFF 		bl	write_LCD
1820:.\main.c      ****                             write_LCD(1,Productos[1], 14, 44, 1); 
 8057              		.loc 1 1820 0
 8058 263c 244B     		ldr	r3, .L721+20
 8059 263e 5A78     		ldrb	r2, [r3, #1]	@ zero_extendqisi2
 8060 2640 0123     		movs	r3, #1
 8061 2642 0093     		str	r3, [sp]
 8062 2644 0120     		movs	r0, #1
 8063 2646 1146     		mov	r1, r2
 8064 2648 0E22     		movs	r2, #14
 8065 264a 2C23     		movs	r3, #44
 8066 264c FFF7FEFF 		bl	write_LCD
1821:.\main.c      ****                             write_LCD(1,Productos[2], 19, 44, 1);
 8067              		.loc 1 1821 0
 8068 2650 1F4B     		ldr	r3, .L721+20
 8069 2652 9A78     		ldrb	r2, [r3, #2]	@ zero_extendqisi2
 8070 2654 0123     		movs	r3, #1
 8071 2656 0093     		str	r3, [sp]
 8072 2658 0120     		movs	r0, #1
 8073 265a 1146     		mov	r1, r2
 8074 265c 1322     		movs	r2, #19
 8075 265e 2C23     		movs	r3, #44
 8076 2660 FFF7FEFF 		bl	write_LCD
1822:.\main.c      ****                             write_LCD(1,Productos[3], 25, 44, 1); 
 8077              		.loc 1 1822 0
 8078 2664 1A4B     		ldr	r3, .L721+20
 8079 2666 DA78     		ldrb	r2, [r3, #3]	@ zero_extendqisi2
 8080 2668 0123     		movs	r3, #1
 8081 266a 0093     		str	r3, [sp]
 8082 266c 0120     		movs	r0, #1
 8083 266e 1146     		mov	r1, r2
 8084 2670 1922     		movs	r2, #25
 8085 2672 2C23     		movs	r3, #44
 8086 2674 FFF7FEFF 		bl	write_LCD
1823:.\main.c      **** 							lado1.estado=libre;                                 
 8087              		.loc 1 1823 0
 8088 2678 114B     		ldr	r3, .L721+4
 8089 267a 0122     		movs	r2, #1
 8090 267c 5A70     		strb	r2, [r3, #1]
1824:.\main.c      ****                             CyDelay(200);                             
 8091              		.loc 1 1824 0
 8092 267e C820     		movs	r0, #200
 8093 2680 FFF7FEFF 		bl	CyDelay
1825:.\main.c      ****                         break;          
 8094              		.loc 1 1825 0
 8095 2684 C6E0     		b	.L346
ARM GAS  C:\Users\RECEPC~1\AppData\Local\Temp\ccIpe7td.s 			page 178


 8096              	.L371:
1826:.\main.c      ****                         case 8:
1827:.\main.c      ****                             for(x=1;x<=4;x++){
 8097              		.loc 1 1827 0
 8098 2686 0123     		movs	r3, #1
 8099 2688 87F82F30 		strb	r3, [r7, #47]
 8100 268c 09E0     		b	.L423
 8101              	.L424:
1828:.\main.c      ****                               id_estacion[x]=0;
 8102              		.loc 1 1828 0 discriminator 3
 8103 268e 97F82F30 		ldrb	r3, [r7, #47]	@ zero_extendqisi2
 8104 2692 144A     		ldr	r2, .L721+40
 8105 2694 0021     		movs	r1, #0
 8106 2696 D154     		strb	r1, [r2, r3]
1827:.\main.c      ****                               id_estacion[x]=0;
 8107              		.loc 1 1827 0 discriminator 3
 8108 2698 97F82F30 		ldrb	r3, [r7, #47]	@ zero_extendqisi2
 8109 269c 0133     		adds	r3, r3, #1
 8110 269e 87F82F30 		strb	r3, [r7, #47]
 8111              	.L423:
1827:.\main.c      ****                               id_estacion[x]=0;
 8112              		.loc 1 1827 0 is_stmt 0 discriminator 1
 8113 26a2 97F82F30 		ldrb	r3, [r7, #47]	@ zero_extendqisi2
 8114 26a6 042B     		cmp	r3, #4
 8115 26a8 F1D9     		bls	.L424
1829:.\main.c      ****                             }
1830:.\main.c      ****                             id_estacion[0]=4;
 8116              		.loc 1 1830 0 is_stmt 1
 8117 26aa 0E4B     		ldr	r3, .L721+40
 8118 26ac 0422     		movs	r2, #4
 8119 26ae 1A70     		strb	r2, [r3]
1831:.\main.c      **** 							for(x=count_teclas1;x>=1;x--){
 8120              		.loc 1 1831 0
 8121 26b0 044B     		ldr	r3, .L721+8
 8122 26b2 1B78     		ldrb	r3, [r3]
 8123 26b4 87F82F30 		strb	r3, [r7, #47]
 8124 26b8 2CE0     		b	.L425
 8125              	.L722:
 8126 26ba 00BF     		.align	2
 8127              	.L721:
 8128 26bc 00000000 		.word	flujo_LCD1
 8129 26c0 00000000 		.word	lado1
 8130 26c4 00000000 		.word	count_teclas1
 8131 26c8 00000000 		.word	Buffer_LCD1
 8132 26cc 00000000 		.word	Producto
 8133 26d0 00000000 		.word	Productos
 8134 26d4 00000000 		.word	producto1
 8135 26d8 00000000 		.word	producto2
 8136 26dc 00000000 		.word	producto3
 8137 26e0 00000000 		.word	producto4
 8138 26e4 00000000 		.word	id_estacion
 8139              	.L426:
1832:.\main.c      **** 								id_estacion[x]=Buffer_LCD1[(count_teclas1-x)+1]+0X30;
 8140              		.loc 1 1832 0 discriminator 3
 8141 26e8 97F82F30 		ldrb	r3, [r7, #47]	@ zero_extendqisi2
 8142 26ec 864A     		ldr	r2, .L723
 8143 26ee 1278     		ldrb	r2, [r2]
ARM GAS  C:\Users\RECEPC~1\AppData\Local\Temp\ccIpe7td.s 			page 179


 8144 26f0 D2B2     		uxtb	r2, r2
 8145 26f2 1146     		mov	r1, r2
 8146 26f4 97F82F20 		ldrb	r2, [r7, #47]	@ zero_extendqisi2
 8147 26f8 8A1A     		subs	r2, r1, r2
 8148 26fa 0132     		adds	r2, r2, #1
 8149 26fc 8349     		ldr	r1, .L723+4
 8150 26fe 8A5C     		ldrb	r2, [r1, r2]
 8151 2700 D2B2     		uxtb	r2, r2
 8152 2702 3032     		adds	r2, r2, #48
 8153 2704 D1B2     		uxtb	r1, r2
 8154 2706 824A     		ldr	r2, .L723+8
 8155 2708 D154     		strb	r1, [r2, r3]
1831:.\main.c      **** 							for(x=count_teclas1;x>=1;x--){
 8156              		.loc 1 1831 0 discriminator 3
 8157 270a 97F82F30 		ldrb	r3, [r7, #47]	@ zero_extendqisi2
 8158 270e 013B     		subs	r3, r3, #1
 8159 2710 87F82F30 		strb	r3, [r7, #47]
 8160              	.L425:
1831:.\main.c      **** 							for(x=count_teclas1;x>=1;x--){
 8161              		.loc 1 1831 0 is_stmt 0 discriminator 1
 8162 2714 97F82F30 		ldrb	r3, [r7, #47]	@ zero_extendqisi2
 8163 2718 002B     		cmp	r3, #0
 8164 271a E5D1     		bne	.L426
1833:.\main.c      **** 							}                            
1834:.\main.c      ****                             if(id_estacion[1]>=0x30 && id_estacion[2]<0x30 && id_estacion[3]<0x30 &
 8165              		.loc 1 1834 0 is_stmt 1
 8166 271c 7C4B     		ldr	r3, .L723+8
 8167 271e 5B78     		ldrb	r3, [r3, #1]
 8168 2720 DBB2     		uxtb	r3, r3
 8169 2722 2F2B     		cmp	r3, #47
 8170 2724 17D9     		bls	.L427
 8171              		.loc 1 1834 0 is_stmt 0 discriminator 1
 8172 2726 7A4B     		ldr	r3, .L723+8
 8173 2728 9B78     		ldrb	r3, [r3, #2]
 8174 272a DBB2     		uxtb	r3, r3
 8175 272c 2F2B     		cmp	r3, #47
 8176 272e 12D8     		bhi	.L427
 8177              		.loc 1 1834 0 discriminator 2
 8178 2730 774B     		ldr	r3, .L723+8
 8179 2732 DB78     		ldrb	r3, [r3, #3]
 8180 2734 DBB2     		uxtb	r3, r3
 8181 2736 2F2B     		cmp	r3, #47
 8182 2738 0DD8     		bhi	.L427
 8183              		.loc 1 1834 0 discriminator 3
 8184 273a 754B     		ldr	r3, .L723+8
 8185 273c 1B79     		ldrb	r3, [r3, #4]
 8186 273e DBB2     		uxtb	r3, r3
 8187 2740 2F2B     		cmp	r3, #47
 8188 2742 08D8     		bhi	.L427
1835:.\main.c      ****                                 id_estacion[2]='0';
 8189              		.loc 1 1835 0 is_stmt 1
 8190 2744 724B     		ldr	r3, .L723+8
 8191 2746 3022     		movs	r2, #48
 8192 2748 9A70     		strb	r2, [r3, #2]
1836:.\main.c      ****                                 id_estacion[3]='0';
 8193              		.loc 1 1836 0
 8194 274a 714B     		ldr	r3, .L723+8
ARM GAS  C:\Users\RECEPC~1\AppData\Local\Temp\ccIpe7td.s 			page 180


 8195 274c 3022     		movs	r2, #48
 8196 274e DA70     		strb	r2, [r3, #3]
1837:.\main.c      ****                                 id_estacion[4]='0';                                
 8197              		.loc 1 1837 0
 8198 2750 6F4B     		ldr	r3, .L723+8
 8199 2752 3022     		movs	r2, #48
 8200 2754 1A71     		strb	r2, [r3, #4]
 8201              	.L427:
1838:.\main.c      ****                             }
1839:.\main.c      ****                             if(id_estacion[1]>=0x30 && id_estacion[2]>=0x30 && id_estacion[3]<0x30 
 8202              		.loc 1 1839 0
 8203 2756 6E4B     		ldr	r3, .L723+8
 8204 2758 5B78     		ldrb	r3, [r3, #1]
 8205 275a DBB2     		uxtb	r3, r3
 8206 275c 2F2B     		cmp	r3, #47
 8207 275e 14D9     		bls	.L428
 8208              		.loc 1 1839 0 is_stmt 0 discriminator 1
 8209 2760 6B4B     		ldr	r3, .L723+8
 8210 2762 9B78     		ldrb	r3, [r3, #2]
 8211 2764 DBB2     		uxtb	r3, r3
 8212 2766 2F2B     		cmp	r3, #47
 8213 2768 0FD9     		bls	.L428
 8214              		.loc 1 1839 0 discriminator 2
 8215 276a 694B     		ldr	r3, .L723+8
 8216 276c DB78     		ldrb	r3, [r3, #3]
 8217 276e DBB2     		uxtb	r3, r3
 8218 2770 2F2B     		cmp	r3, #47
 8219 2772 0AD8     		bhi	.L428
 8220              		.loc 1 1839 0 discriminator 3
 8221 2774 664B     		ldr	r3, .L723+8
 8222 2776 1B79     		ldrb	r3, [r3, #4]
 8223 2778 DBB2     		uxtb	r3, r3
 8224 277a 2F2B     		cmp	r3, #47
 8225 277c 05D8     		bhi	.L428
1840:.\main.c      ****                                 id_estacion[3]='0';
 8226              		.loc 1 1840 0 is_stmt 1
 8227 277e 644B     		ldr	r3, .L723+8
 8228 2780 3022     		movs	r2, #48
 8229 2782 DA70     		strb	r2, [r3, #3]
1841:.\main.c      ****                                 id_estacion[4]='0';                             
 8230              		.loc 1 1841 0
 8231 2784 624B     		ldr	r3, .L723+8
 8232 2786 3022     		movs	r2, #48
 8233 2788 1A71     		strb	r2, [r3, #4]
 8234              	.L428:
1842:.\main.c      ****                             }  
1843:.\main.c      ****                             if(id_estacion[1]>=0x30 && id_estacion[2]>=0x30 && id_estacion[3]>=0x30
 8235              		.loc 1 1843 0
 8236 278a 614B     		ldr	r3, .L723+8
 8237 278c 5B78     		ldrb	r3, [r3, #1]
 8238 278e DBB2     		uxtb	r3, r3
 8239 2790 2F2B     		cmp	r3, #47
 8240 2792 11D9     		bls	.L429
 8241              		.loc 1 1843 0 is_stmt 0 discriminator 1
 8242 2794 5E4B     		ldr	r3, .L723+8
 8243 2796 9B78     		ldrb	r3, [r3, #2]
 8244 2798 DBB2     		uxtb	r3, r3
ARM GAS  C:\Users\RECEPC~1\AppData\Local\Temp\ccIpe7td.s 			page 181


 8245 279a 2F2B     		cmp	r3, #47
 8246 279c 0CD9     		bls	.L429
 8247              		.loc 1 1843 0 discriminator 2
 8248 279e 5C4B     		ldr	r3, .L723+8
 8249 27a0 DB78     		ldrb	r3, [r3, #3]
 8250 27a2 DBB2     		uxtb	r3, r3
 8251 27a4 2F2B     		cmp	r3, #47
 8252 27a6 07D9     		bls	.L429
 8253              		.loc 1 1843 0 discriminator 3
 8254 27a8 594B     		ldr	r3, .L723+8
 8255 27aa 1B79     		ldrb	r3, [r3, #4]
 8256 27ac DBB2     		uxtb	r3, r3
 8257 27ae 2F2B     		cmp	r3, #47
 8258 27b0 02D8     		bhi	.L429
1844:.\main.c      ****                                 id_estacion[4]='0';                              
 8259              		.loc 1 1844 0 is_stmt 1
 8260 27b2 574B     		ldr	r3, .L723+8
 8261 27b4 3022     		movs	r2, #48
 8262 27b6 1A71     		strb	r2, [r3, #4]
 8263              	.L429:
1845:.\main.c      ****                             }
1846:.\main.c      ****                     		for(x=8;x<=12;x++){	
 8264              		.loc 1 1846 0
 8265 27b8 0823     		movs	r3, #8
 8266 27ba 87F82F30 		strb	r3, [r7, #47]
 8267 27be 11E0     		b	.L430
 8268              	.L431:
1847:.\main.c      ****                     			EEPROM_WriteByte(id_estacion[x-8], x);
 8269              		.loc 1 1847 0 discriminator 3
 8270 27c0 97F82F30 		ldrb	r3, [r7, #47]	@ zero_extendqisi2
 8271 27c4 083B     		subs	r3, r3, #8
 8272 27c6 524A     		ldr	r2, .L723+8
 8273 27c8 D35C     		ldrb	r3, [r2, r3]
 8274 27ca DAB2     		uxtb	r2, r3
 8275 27cc 97F82F30 		ldrb	r3, [r7, #47]	@ zero_extendqisi2
 8276 27d0 9BB2     		uxth	r3, r3
 8277 27d2 1046     		mov	r0, r2
 8278 27d4 1946     		mov	r1, r3
 8279 27d6 FFF7FEFF 		bl	EEPROM_WriteByte
1846:.\main.c      ****                     			EEPROM_WriteByte(id_estacion[x-8], x);
 8280              		.loc 1 1846 0 discriminator 3
 8281 27da 97F82F30 		ldrb	r3, [r7, #47]	@ zero_extendqisi2
 8282 27de 0133     		adds	r3, r3, #1
 8283 27e0 87F82F30 		strb	r3, [r7, #47]
 8284              	.L430:
1846:.\main.c      ****                     			EEPROM_WriteByte(id_estacion[x-8], x);
 8285              		.loc 1 1846 0 is_stmt 0 discriminator 1
 8286 27e4 97F82F30 		ldrb	r3, [r7, #47]	@ zero_extendqisi2
 8287 27e8 0C2B     		cmp	r3, #12
 8288 27ea E9D9     		bls	.L431
1848:.\main.c      ****                     		}   
1849:.\main.c      ****                         	flujo_LCD1 = 12;	//viejo: 0
 8289              		.loc 1 1849 0 is_stmt 1
 8290 27ec 494B     		ldr	r3, .L723+12
 8291 27ee 0C22     		movs	r2, #12
 8292 27f0 1A70     		strb	r2, [r3]
1850:.\main.c      ****                             id_teclado1 = 2;
ARM GAS  C:\Users\RECEPC~1\AppData\Local\Temp\ccIpe7td.s 			page 182


 8293              		.loc 1 1850 0
 8294 27f2 494B     		ldr	r3, .L723+16
 8295 27f4 0222     		movs	r2, #2
 8296 27f6 1A70     		strb	r2, [r3]
1851:.\main.c      ****                         	set_imagen(1,14); //viejo: 60
 8297              		.loc 1 1851 0
 8298 27f8 0120     		movs	r0, #1
 8299 27fa 0E21     		movs	r1, #14
 8300 27fc FFF7FEFF 		bl	set_imagen
1852:.\main.c      ****                             CyDelay(200);
 8301              		.loc 1 1852 0
 8302 2800 C820     		movs	r0, #200
 8303 2802 FFF7FEFF 		bl	CyDelay
1853:.\main.c      ****                             count_teclas1 = 0;
 8304              		.loc 1 1853 0
 8305 2806 404B     		ldr	r3, .L723
 8306 2808 0022     		movs	r2, #0
 8307 280a 1A70     		strb	r2, [r3]
1854:.\main.c      **** 							lado1.estado=libre;                                    
 8308              		.loc 1 1854 0
 8309 280c 434B     		ldr	r3, .L723+20
 8310 280e 0122     		movs	r2, #1
 8311 2810 5A70     		strb	r2, [r3, #1]
1855:.\main.c      ****                         break;
 8312              		.loc 1 1855 0
 8313 2812 00BF     		nop
 8314              	.L346:
1856:.\main.c      **** 					}					
1857:.\main.c      ****                 }
1858:.\main.c      ****             }                      
1859:.\main.c      ****             LCD_1_ClearRxBuffer();
 8315              		.loc 1 1859 0
 8316 2814 FFF7FEFF 		bl	LCD_1_ClearRxBuffer
 8317              	.L345:
1860:.\main.c      ****          }
1861:.\main.c      ****         }
1862:.\main.c      ****         
1863:.\main.c      ****         if(seleccion_pos == 2){
 8318              		.loc 1 1863 0
 8319 2818 414B     		ldr	r3, .L723+24
 8320 281a 1B78     		ldrb	r3, [r3]
 8321 281c DBB2     		uxtb	r3, r3
 8322 281e 022B     		cmp	r3, #2
 8323 2820 40F06285 		bne	.L432
1864:.\main.c      ****          if(LCD_1_GetRxBufferSize()==8){
 8324              		.loc 1 1864 0
 8325 2824 FFF7FEFF 		bl	LCD_1_GetRxBufferSize
 8326 2828 0346     		mov	r3, r0
 8327 282a 082B     		cmp	r3, #8
 8328 282c 40F05C85 		bne	.L432
1865:.\main.c      ****             if((LCD_1_rxBuffer[0]==0xAA) && (LCD_1_rxBuffer[6]==0xC3) && (LCD_1_rxBuffer[7]==0x3C))
 8329              		.loc 1 1865 0
 8330 2830 3C4B     		ldr	r3, .L723+28
 8331 2832 1B78     		ldrb	r3, [r3]
 8332 2834 DBB2     		uxtb	r3, r3
 8333 2836 AA2B     		cmp	r3, #170
 8334 2838 40F05285 		bne	.L433
ARM GAS  C:\Users\RECEPC~1\AppData\Local\Temp\ccIpe7td.s 			page 183


 8335              		.loc 1 1865 0 is_stmt 0 discriminator 1
 8336 283c 394B     		ldr	r3, .L723+28
 8337 283e 9B79     		ldrb	r3, [r3, #6]
 8338 2840 DBB2     		uxtb	r3, r3
 8339 2842 C32B     		cmp	r3, #195
 8340 2844 40F04C85 		bne	.L433
 8341              		.loc 1 1865 0 discriminator 2
 8342 2848 364B     		ldr	r3, .L723+28
 8343 284a DB79     		ldrb	r3, [r3, #7]
 8344 284c DBB2     		uxtb	r3, r3
 8345 284e 3C2B     		cmp	r3, #60
 8346 2850 40F04685 		bne	.L433
1866:.\main.c      **** 				count_protector=0;
 8347              		.loc 1 1866 0 is_stmt 1
 8348 2854 344B     		ldr	r3, .L723+32
 8349 2856 0022     		movs	r2, #0
 8350 2858 1A70     		strb	r2, [r3]
1867:.\main.c      ****                 if(count_teclas1<teclas1){									
 8351              		.loc 1 1867 0
 8352 285a 2B4B     		ldr	r3, .L723
 8353 285c 1B78     		ldrb	r3, [r3]
 8354 285e DAB2     		uxtb	r2, r3
 8355 2860 324B     		ldr	r3, .L723+36
 8356 2862 1B78     		ldrb	r3, [r3]
 8357 2864 DBB2     		uxtb	r3, r3
 8358 2866 9A42     		cmp	r2, r3
 8359 2868 80F0D880 		bcs	.L434
1868:.\main.c      ****                     if(LCD_1_rxBuffer[3]<=9){								//Numero de 1-9
 8360              		.loc 1 1868 0
 8361 286c 2D4B     		ldr	r3, .L723+28
 8362 286e DB78     		ldrb	r3, [r3, #3]
 8363 2870 DBB2     		uxtb	r3, r3
 8364 2872 092B     		cmp	r3, #9
 8365 2874 32D8     		bhi	.L435
1869:.\main.c      ****                         count_teclas1++;
 8366              		.loc 1 1869 0
 8367 2876 244B     		ldr	r3, .L723
 8368 2878 1B78     		ldrb	r3, [r3]
 8369 287a DBB2     		uxtb	r3, r3
 8370 287c 0133     		adds	r3, r3, #1
 8371 287e DAB2     		uxtb	r2, r3
 8372 2880 214B     		ldr	r3, .L723
 8373 2882 1A70     		strb	r2, [r3]
1870:.\main.c      ****                         Buffer_LCD1[count_teclas1]=LCD_1_rxBuffer[3];
 8374              		.loc 1 1870 0
 8375 2884 204B     		ldr	r3, .L723
 8376 2886 1B78     		ldrb	r3, [r3]
 8377 2888 DBB2     		uxtb	r3, r3
 8378 288a 1A46     		mov	r2, r3
 8379 288c 254B     		ldr	r3, .L723+28
 8380 288e DB78     		ldrb	r3, [r3, #3]
 8381 2890 D9B2     		uxtb	r1, r3
 8382 2892 1E4B     		ldr	r3, .L723+4
 8383 2894 9954     		strb	r1, [r3, r2]
1871:.\main.c      ****                         write_LCD(1,(LCD_1_rxBuffer[3]+0x30), posy1, ((count_teclas1*(sizeletra1+1)
 8384              		.loc 1 1871 0
 8385 2896 234B     		ldr	r3, .L723+28
ARM GAS  C:\Users\RECEPC~1\AppData\Local\Temp\ccIpe7td.s 			page 184


 8386 2898 DB78     		ldrb	r3, [r3, #3]
 8387 289a DBB2     		uxtb	r3, r3
 8388 289c 3033     		adds	r3, r3, #48
 8389 289e D9B2     		uxtb	r1, r3
 8390 28a0 234B     		ldr	r3, .L723+40
 8391 28a2 1B88     		ldrh	r3, [r3]	@ movhi
 8392 28a4 9DB2     		uxth	r5, r3
 8393 28a6 184B     		ldr	r3, .L723
 8394 28a8 1B78     		ldrb	r3, [r3]
 8395 28aa DBB2     		uxtb	r3, r3
 8396 28ac 9BB2     		uxth	r3, r3
 8397 28ae 214A     		ldr	r2, .L723+44
 8398 28b0 1288     		ldrh	r2, [r2]	@ movhi
 8399 28b2 92B2     		uxth	r2, r2
 8400 28b4 0132     		adds	r2, r2, #1
 8401 28b6 92B2     		uxth	r2, r2
 8402 28b8 02FB03F3 		mul	r3, r2, r3
 8403 28bc 9AB2     		uxth	r2, r3
 8404 28be 1E4B     		ldr	r3, .L723+48
 8405 28c0 1B88     		ldrh	r3, [r3]	@ movhi
 8406 28c2 9BB2     		uxth	r3, r3
 8407 28c4 1344     		add	r3, r3, r2
 8408 28c6 9CB2     		uxth	r4, r3
 8409 28c8 1A4B     		ldr	r3, .L723+44
 8410 28ca 1B88     		ldrh	r3, [r3]	@ movhi
 8411 28cc 9BB2     		uxth	r3, r3
 8412 28ce DBB2     		uxtb	r3, r3
 8413 28d0 0093     		str	r3, [sp]
 8414 28d2 0120     		movs	r0, #1
 8415 28d4 2A46     		mov	r2, r5
 8416 28d6 2346     		mov	r3, r4
 8417 28d8 FFF7FEFF 		bl	write_LCD
 8418              	.L435:
1872:.\main.c      ****                     }
1873:.\main.c      ****                     if(LCD_1_rxBuffer[3]==0x0A){            				//Comando de 0
 8419              		.loc 1 1873 0
 8420 28dc 114B     		ldr	r3, .L723+28
 8421 28de DB78     		ldrb	r3, [r3, #3]
 8422 28e0 DBB2     		uxtb	r3, r3
 8423 28e2 0A2B     		cmp	r3, #10
 8424 28e4 57D1     		bne	.L436
1874:.\main.c      **** 						if((id_teclado1==1)&&(count_teclas1==1)&&(Buffer_LCD1[1]==0)){
 8425              		.loc 1 1874 0
 8426 28e6 0C4B     		ldr	r3, .L723+16
 8427 28e8 1B78     		ldrb	r3, [r3]
 8428 28ea DBB2     		uxtb	r3, r3
 8429 28ec 012B     		cmp	r3, #1
 8430 28ee 25D1     		bne	.L437
 8431              		.loc 1 1874 0 is_stmt 0 discriminator 1
 8432 28f0 054B     		ldr	r3, .L723
 8433 28f2 1B78     		ldrb	r3, [r3]
 8434 28f4 DBB2     		uxtb	r3, r3
 8435 28f6 012B     		cmp	r3, #1
 8436 28f8 20D1     		bne	.L437
 8437              		.loc 1 1874 0 discriminator 2
 8438 28fa 044B     		ldr	r3, .L723+4
 8439 28fc 5B78     		ldrb	r3, [r3, #1]
ARM GAS  C:\Users\RECEPC~1\AppData\Local\Temp\ccIpe7td.s 			page 185


 8440 28fe DBB2     		uxtb	r3, r3
 8441 2900 002B     		cmp	r3, #0
 8442 2902 1BD1     		bne	.L437
 8443              		.loc 1 1874 0
 8444 2904 47E0     		b	.L436
 8445              	.L724:
 8446 2906 00BF     		.align	2
 8447              	.L723:
 8448 2908 00000000 		.word	count_teclas1
 8449 290c 00000000 		.word	Buffer_LCD1
 8450 2910 00000000 		.word	id_estacion
 8451 2914 00000000 		.word	flujo_LCD1
 8452 2918 00000000 		.word	id_teclado1
 8453 291c 00000000 		.word	lado1
 8454 2920 00000000 		.word	seleccion_pos
 8455 2924 00000000 		.word	LCD_1_rxBuffer
 8456 2928 00000000 		.word	count_protector
 8457 292c 00000000 		.word	teclas1
 8458 2930 00000000 		.word	posy1
 8459 2934 00000000 		.word	sizeletra1
 8460 2938 00000000 		.word	posx1
 8461              	.L437:
1875:.\main.c      **** 						}
1876:.\main.c      **** 						else{
1877:.\main.c      **** 	                        count_teclas1++;
 8462              		.loc 1 1877 0 is_stmt 1
 8463 293c AF4B     		ldr	r3, .L725
 8464 293e 1B78     		ldrb	r3, [r3]
 8465 2940 DBB2     		uxtb	r3, r3
 8466 2942 0133     		adds	r3, r3, #1
 8467 2944 DAB2     		uxtb	r2, r3
 8468 2946 AD4B     		ldr	r3, .L725
 8469 2948 1A70     		strb	r2, [r3]
1878:.\main.c      **** 	                        Buffer_LCD1[count_teclas1]=0;
 8470              		.loc 1 1878 0
 8471 294a AC4B     		ldr	r3, .L725
 8472 294c 1B78     		ldrb	r3, [r3]
 8473 294e DBB2     		uxtb	r3, r3
 8474 2950 1A46     		mov	r2, r3
 8475 2952 AB4B     		ldr	r3, .L725+4
 8476 2954 0021     		movs	r1, #0
 8477 2956 9954     		strb	r1, [r3, r2]
1879:.\main.c      **** 							write_LCD(1,0x30, posy1, ((count_teclas1*(sizeletra1+1))+posx1), sizeletra1);
 8478              		.loc 1 1879 0
 8479 2958 AA4B     		ldr	r3, .L725+8
 8480 295a 1B88     		ldrh	r3, [r3]	@ movhi
 8481 295c 9DB2     		uxth	r5, r3
 8482 295e A74B     		ldr	r3, .L725
 8483 2960 1B78     		ldrb	r3, [r3]
 8484 2962 DBB2     		uxtb	r3, r3
 8485 2964 9BB2     		uxth	r3, r3
 8486 2966 A84A     		ldr	r2, .L725+12
 8487 2968 1288     		ldrh	r2, [r2]	@ movhi
 8488 296a 92B2     		uxth	r2, r2
 8489 296c 0132     		adds	r2, r2, #1
 8490 296e 92B2     		uxth	r2, r2
 8491 2970 02FB03F3 		mul	r3, r2, r3
ARM GAS  C:\Users\RECEPC~1\AppData\Local\Temp\ccIpe7td.s 			page 186


 8492 2974 9AB2     		uxth	r2, r3
 8493 2976 A54B     		ldr	r3, .L725+16
 8494 2978 1B88     		ldrh	r3, [r3]	@ movhi
 8495 297a 9BB2     		uxth	r3, r3
 8496 297c 1344     		add	r3, r3, r2
 8497 297e 9CB2     		uxth	r4, r3
 8498 2980 A14B     		ldr	r3, .L725+12
 8499 2982 1B88     		ldrh	r3, [r3]	@ movhi
 8500 2984 9BB2     		uxth	r3, r3
 8501 2986 DBB2     		uxtb	r3, r3
 8502 2988 0093     		str	r3, [sp]
 8503 298a 0120     		movs	r0, #1
 8504 298c 3021     		movs	r1, #48
 8505 298e 2A46     		mov	r2, r5
 8506 2990 2346     		mov	r3, r4
 8507 2992 FFF7FEFF 		bl	write_LCD
 8508              	.L436:
1880:.\main.c      **** 						}
1881:.\main.c      ****                     }  
1882:.\main.c      ****                     if(LCD_1_rxBuffer[3]==0x51){            	 			//Comando de Coma
 8509              		.loc 1 1882 0
 8510 2996 9E4B     		ldr	r3, .L725+20
 8511 2998 DB78     		ldrb	r3, [r3, #3]
 8512 299a DBB2     		uxtb	r3, r3
 8513 299c 512B     		cmp	r3, #81
 8514 299e 3DD1     		bne	.L434
1883:.\main.c      ****                         if(count_teclas1>=1 && comas1==0){
 8515              		.loc 1 1883 0
 8516 29a0 964B     		ldr	r3, .L725
 8517 29a2 1B78     		ldrb	r3, [r3]
 8518 29a4 DBB2     		uxtb	r3, r3
 8519 29a6 002B     		cmp	r3, #0
 8520 29a8 38D0     		beq	.L434
 8521              		.loc 1 1883 0 is_stmt 0 discriminator 1
 8522 29aa 9A4B     		ldr	r3, .L725+24
 8523 29ac 1B78     		ldrb	r3, [r3]
 8524 29ae DBB2     		uxtb	r3, r3
 8525 29b0 002B     		cmp	r3, #0
 8526 29b2 33D1     		bne	.L434
1884:.\main.c      ****                             count_teclas1++;
 8527              		.loc 1 1884 0 is_stmt 1
 8528 29b4 914B     		ldr	r3, .L725
 8529 29b6 1B78     		ldrb	r3, [r3]
 8530 29b8 DBB2     		uxtb	r3, r3
 8531 29ba 0133     		adds	r3, r3, #1
 8532 29bc DAB2     		uxtb	r2, r3
 8533 29be 8F4B     		ldr	r3, .L725
 8534 29c0 1A70     		strb	r2, [r3]
1885:.\main.c      ****                             Buffer_LCD1[count_teclas1]=id_coma1;
 8535              		.loc 1 1885 0
 8536 29c2 8E4B     		ldr	r3, .L725
 8537 29c4 1B78     		ldrb	r3, [r3]
 8538 29c6 DBB2     		uxtb	r3, r3
 8539 29c8 1A46     		mov	r2, r3
 8540 29ca 934B     		ldr	r3, .L725+28
 8541 29cc 1B78     		ldrb	r3, [r3]
 8542 29ce D9B2     		uxtb	r1, r3
ARM GAS  C:\Users\RECEPC~1\AppData\Local\Temp\ccIpe7td.s 			page 187


 8543 29d0 8B4B     		ldr	r3, .L725+4
 8544 29d2 9954     		strb	r1, [r3, r2]
1886:.\main.c      **** 							write_LCD(1,id_coma1, posy1, ((count_teclas1*(sizeletra1+1))+posx1), sizeletra1);
 8545              		.loc 1 1886 0
 8546 29d4 904B     		ldr	r3, .L725+28
 8547 29d6 1B78     		ldrb	r3, [r3]
 8548 29d8 D9B2     		uxtb	r1, r3
 8549 29da 8A4B     		ldr	r3, .L725+8
 8550 29dc 1B88     		ldrh	r3, [r3]	@ movhi
 8551 29de 9DB2     		uxth	r5, r3
 8552 29e0 864B     		ldr	r3, .L725
 8553 29e2 1B78     		ldrb	r3, [r3]
 8554 29e4 DBB2     		uxtb	r3, r3
 8555 29e6 9BB2     		uxth	r3, r3
 8556 29e8 874A     		ldr	r2, .L725+12
 8557 29ea 1288     		ldrh	r2, [r2]	@ movhi
 8558 29ec 92B2     		uxth	r2, r2
 8559 29ee 0132     		adds	r2, r2, #1
 8560 29f0 92B2     		uxth	r2, r2
 8561 29f2 02FB03F3 		mul	r3, r2, r3
 8562 29f6 9AB2     		uxth	r2, r3
 8563 29f8 844B     		ldr	r3, .L725+16
 8564 29fa 1B88     		ldrh	r3, [r3]	@ movhi
 8565 29fc 9BB2     		uxth	r3, r3
 8566 29fe 1344     		add	r3, r3, r2
 8567 2a00 9CB2     		uxth	r4, r3
 8568 2a02 814B     		ldr	r3, .L725+12
 8569 2a04 1B88     		ldrh	r3, [r3]	@ movhi
 8570 2a06 9BB2     		uxth	r3, r3
 8571 2a08 DBB2     		uxtb	r3, r3
 8572 2a0a 0093     		str	r3, [sp]
 8573 2a0c 0120     		movs	r0, #1
 8574 2a0e 2A46     		mov	r2, r5
 8575 2a10 2346     		mov	r3, r4
 8576 2a12 FFF7FEFF 		bl	write_LCD
1887:.\main.c      ****                             comas1=1;
 8577              		.loc 1 1887 0
 8578 2a16 7F4B     		ldr	r3, .L725+24
 8579 2a18 0122     		movs	r2, #1
 8580 2a1a 1A70     		strb	r2, [r3]
 8581              	.L434:
1888:.\main.c      ****                         }
1889:.\main.c      ****                     }                    
1890:.\main.c      ****                 }                                
1891:.\main.c      ****                 if(LCD_1_rxBuffer[3]==0x0B){								//Cancel
 8582              		.loc 1 1891 0
 8583 2a1c 7C4B     		ldr	r3, .L725+20
 8584 2a1e DB78     		ldrb	r3, [r3, #3]
 8585 2a20 DBB2     		uxtb	r3, r3
 8586 2a22 0B2B     		cmp	r3, #11
 8587 2a24 40F0A080 		bne	.L438
1892:.\main.c      ****                     if(count_teclas1==0){
 8588              		.loc 1 1892 0
 8589 2a28 744B     		ldr	r3, .L725
 8590 2a2a 1B78     		ldrb	r3, [r3]
 8591 2a2c DBB2     		uxtb	r3, r3
 8592 2a2e 002B     		cmp	r3, #0
ARM GAS  C:\Users\RECEPC~1\AppData\Local\Temp\ccIpe7td.s 			page 188


 8593 2a30 5ED1     		bne	.L439
1893:.\main.c      **** 						switch(id_teclado1){
 8594              		.loc 1 1893 0
 8595 2a32 7A4B     		ldr	r3, .L725+32
 8596 2a34 1B78     		ldrb	r3, [r3]
 8597 2a36 DBB2     		uxtb	r3, r3
 8598 2a38 013B     		subs	r3, r3, #1
 8599 2a3a 072B     		cmp	r3, #7
 8600 2a3c 00F29480 		bhi	.L438
 8601 2a40 01A2     		adr	r2, .L442
 8602 2a42 52F823F0 		ldr	pc, [r2, r3, lsl #2]
 8603 2a46 00BF     		.p2align 2
 8604              	.L442:
 8605 2a48 692A0000 		.word	.L441+1
 8606 2a4c 792A0000 		.word	.L443+1
 8607 2a50 812A0000 		.word	.L444+1
 8608 2a54 972A0000 		.word	.L445+1
 8609 2a58 AD2A0000 		.word	.L446+1
 8610 2a5c C32A0000 		.word	.L447+1
 8611 2a60 692B0000 		.word	.L438+1
 8612 2a64 D92A0000 		.word	.L448+1
 8613              		.p2align 1
 8614              	.L441:
1894:.\main.c      **** 							case 1:
1895:.\main.c      **** 							set_imagen(1,5);
 8615              		.loc 1 1895 0
 8616 2a68 0120     		movs	r0, #1
 8617 2a6a 0521     		movs	r1, #5
 8618 2a6c FFF7FEFF 		bl	set_imagen
1896:.\main.c      **** 							flujo_LCD1=4;
 8619              		.loc 1 1896 0
 8620 2a70 6B4B     		ldr	r3, .L725+36
 8621 2a72 0422     		movs	r2, #4
 8622 2a74 1A70     		strb	r2, [r3]
1897:.\main.c      **** 							break;
 8623              		.loc 1 1897 0
 8624 2a76 3AE0     		b	.L440
 8625              	.L443:
1898:.\main.c      **** 							case 2:
1899:.\main.c      **** 	                        flujo_LCD1=0;	
 8626              		.loc 1 1899 0
 8627 2a78 694B     		ldr	r3, .L725+36
 8628 2a7a 0022     		movs	r2, #0
 8629 2a7c 1A70     		strb	r2, [r3]
1900:.\main.c      **** 							break;
 8630              		.loc 1 1900 0
 8631 2a7e 36E0     		b	.L440
 8632              	.L444:
1901:.\main.c      **** 							case 3:
1902:.\main.c      **** 							set_imagen(1,0);
 8633              		.loc 1 1902 0
 8634 2a80 0120     		movs	r0, #1
 8635 2a82 0021     		movs	r1, #0
 8636 2a84 FFF7FEFF 		bl	set_imagen
1903:.\main.c      **** 							flujo_LCD1=0;
 8637              		.loc 1 1903 0
 8638 2a88 654B     		ldr	r3, .L725+36
ARM GAS  C:\Users\RECEPC~1\AppData\Local\Temp\ccIpe7td.s 			page 189


 8639 2a8a 0022     		movs	r2, #0
 8640 2a8c 1A70     		strb	r2, [r3]
1904:.\main.c      **** 							lado2.estado=libre;
 8641              		.loc 1 1904 0
 8642 2a8e 654B     		ldr	r3, .L725+40
 8643 2a90 0122     		movs	r2, #1
 8644 2a92 5A70     		strb	r2, [r3, #1]
1905:.\main.c      **** 							break;
 8645              		.loc 1 1905 0
 8646 2a94 2BE0     		b	.L440
 8647              	.L445:
1906:.\main.c      **** 							case 4:
1907:.\main.c      **** 							set_imagen(1,0);
 8648              		.loc 1 1907 0
 8649 2a96 0120     		movs	r0, #1
 8650 2a98 0021     		movs	r1, #0
 8651 2a9a FFF7FEFF 		bl	set_imagen
1908:.\main.c      **** 							flujo_LCD1=0;
 8652              		.loc 1 1908 0
 8653 2a9e 604B     		ldr	r3, .L725+36
 8654 2aa0 0022     		movs	r2, #0
 8655 2aa2 1A70     		strb	r2, [r3]
1909:.\main.c      **** 							lado2.estado=libre;
 8656              		.loc 1 1909 0
 8657 2aa4 5F4B     		ldr	r3, .L725+40
 8658 2aa6 0122     		movs	r2, #1
 8659 2aa8 5A70     		strb	r2, [r3, #1]
1910:.\main.c      **** 							break;
 8660              		.loc 1 1910 0
 8661 2aaa 20E0     		b	.L440
 8662              	.L446:
1911:.\main.c      ****                             case 5:
1912:.\main.c      **** 							set_imagen(1,0);
 8663              		.loc 1 1912 0
 8664 2aac 0120     		movs	r0, #1
 8665 2aae 0021     		movs	r1, #0
 8666 2ab0 FFF7FEFF 		bl	set_imagen
1913:.\main.c      **** 							flujo_LCD1=0;
 8667              		.loc 1 1913 0
 8668 2ab4 5A4B     		ldr	r3, .L725+36
 8669 2ab6 0022     		movs	r2, #0
 8670 2ab8 1A70     		strb	r2, [r3]
1914:.\main.c      **** 							lado2.estado=libre;                            
 8671              		.loc 1 1914 0
 8672 2aba 5A4B     		ldr	r3, .L725+40
 8673 2abc 0122     		movs	r2, #1
 8674 2abe 5A70     		strb	r2, [r3, #1]
1915:.\main.c      ****                             break;
 8675              		.loc 1 1915 0
 8676 2ac0 15E0     		b	.L440
 8677              	.L447:
1916:.\main.c      ****                             case 6:
1917:.\main.c      **** 							set_imagen(1,0);
 8678              		.loc 1 1917 0
 8679 2ac2 0120     		movs	r0, #1
 8680 2ac4 0021     		movs	r1, #0
 8681 2ac6 FFF7FEFF 		bl	set_imagen
ARM GAS  C:\Users\RECEPC~1\AppData\Local\Temp\ccIpe7td.s 			page 190


1918:.\main.c      **** 							flujo_LCD1=0;
 8682              		.loc 1 1918 0
 8683 2aca 554B     		ldr	r3, .L725+36
 8684 2acc 0022     		movs	r2, #0
 8685 2ace 1A70     		strb	r2, [r3]
1919:.\main.c      **** 							lado2.estado=libre;                            
 8686              		.loc 1 1919 0
 8687 2ad0 544B     		ldr	r3, .L725+40
 8688 2ad2 0122     		movs	r2, #1
 8689 2ad4 5A70     		strb	r2, [r3, #1]
1920:.\main.c      ****                             break;  
 8690              		.loc 1 1920 0
 8691 2ad6 0AE0     		b	.L440
 8692              	.L448:
1921:.\main.c      ****                             case 8:
1922:.\main.c      **** 							set_imagen(1,0);
 8693              		.loc 1 1922 0
 8694 2ad8 0120     		movs	r0, #1
 8695 2ada 0021     		movs	r1, #0
 8696 2adc FFF7FEFF 		bl	set_imagen
1923:.\main.c      **** 							flujo_LCD1 = 0;
 8697              		.loc 1 1923 0
 8698 2ae0 4F4B     		ldr	r3, .L725+36
 8699 2ae2 0022     		movs	r2, #0
 8700 2ae4 1A70     		strb	r2, [r3]
1924:.\main.c      **** 							lado2.estado=libre;                            
 8701              		.loc 1 1924 0
 8702 2ae6 4F4B     		ldr	r3, .L725+40
 8703 2ae8 0122     		movs	r2, #1
 8704 2aea 5A70     		strb	r2, [r3, #1]
1925:.\main.c      ****                             break;                             
 8705              		.loc 1 1925 0
 8706 2aec 00BF     		nop
 8707              	.L440:
 8708 2aee 3BE0     		b	.L438
 8709              	.L439:
1926:.\main.c      **** 						}
1927:.\main.c      ****                     }
1928:.\main.c      ****                     else{
1929:.\main.c      **** 						write_LCD(1,0x20, posy1, ((count_teclas1*(sizeletra1+1))+posx1), sizeletra1);
 8710              		.loc 1 1929 0
 8711 2af0 444B     		ldr	r3, .L725+8
 8712 2af2 1B88     		ldrh	r3, [r3]	@ movhi
 8713 2af4 9DB2     		uxth	r5, r3
 8714 2af6 414B     		ldr	r3, .L725
 8715 2af8 1B78     		ldrb	r3, [r3]
 8716 2afa DBB2     		uxtb	r3, r3
 8717 2afc 9BB2     		uxth	r3, r3
 8718 2afe 424A     		ldr	r2, .L725+12
 8719 2b00 1288     		ldrh	r2, [r2]	@ movhi
 8720 2b02 92B2     		uxth	r2, r2
 8721 2b04 0132     		adds	r2, r2, #1
 8722 2b06 92B2     		uxth	r2, r2
 8723 2b08 02FB03F3 		mul	r3, r2, r3
 8724 2b0c 9AB2     		uxth	r2, r3
 8725 2b0e 3F4B     		ldr	r3, .L725+16
 8726 2b10 1B88     		ldrh	r3, [r3]	@ movhi
ARM GAS  C:\Users\RECEPC~1\AppData\Local\Temp\ccIpe7td.s 			page 191


 8727 2b12 9BB2     		uxth	r3, r3
 8728 2b14 1344     		add	r3, r3, r2
 8729 2b16 9CB2     		uxth	r4, r3
 8730 2b18 3B4B     		ldr	r3, .L725+12
 8731 2b1a 1B88     		ldrh	r3, [r3]	@ movhi
 8732 2b1c 9BB2     		uxth	r3, r3
 8733 2b1e DBB2     		uxtb	r3, r3
 8734 2b20 0093     		str	r3, [sp]
 8735 2b22 0120     		movs	r0, #1
 8736 2b24 2021     		movs	r1, #32
 8737 2b26 2A46     		mov	r2, r5
 8738 2b28 2346     		mov	r3, r4
 8739 2b2a FFF7FEFF 		bl	write_LCD
1930:.\main.c      ****                         if(Buffer_LCD1[count_teclas1]==id_coma1){
 8740              		.loc 1 1930 0
 8741 2b2e 334B     		ldr	r3, .L725
 8742 2b30 1B78     		ldrb	r3, [r3]
 8743 2b32 DBB2     		uxtb	r3, r3
 8744 2b34 1A46     		mov	r2, r3
 8745 2b36 324B     		ldr	r3, .L725+4
 8746 2b38 9B5C     		ldrb	r3, [r3, r2]
 8747 2b3a DAB2     		uxtb	r2, r3
 8748 2b3c 364B     		ldr	r3, .L725+28
 8749 2b3e 1B78     		ldrb	r3, [r3]
 8750 2b40 DBB2     		uxtb	r3, r3
 8751 2b42 9A42     		cmp	r2, r3
 8752 2b44 02D1     		bne	.L449
1931:.\main.c      ****                             comas1=0;
 8753              		.loc 1 1931 0
 8754 2b46 334B     		ldr	r3, .L725+24
 8755 2b48 0022     		movs	r2, #0
 8756 2b4a 1A70     		strb	r2, [r3]
 8757              	.L449:
1932:.\main.c      ****                         }
1933:.\main.c      **** 						Buffer_LCD1[count_teclas1]=0;
 8758              		.loc 1 1933 0
 8759 2b4c 2B4B     		ldr	r3, .L725
 8760 2b4e 1B78     		ldrb	r3, [r3]
 8761 2b50 DBB2     		uxtb	r3, r3
 8762 2b52 1A46     		mov	r2, r3
 8763 2b54 2A4B     		ldr	r3, .L725+4
 8764 2b56 0021     		movs	r1, #0
 8765 2b58 9954     		strb	r1, [r3, r2]
1934:.\main.c      ****                         count_teclas1--;
 8766              		.loc 1 1934 0
 8767 2b5a 284B     		ldr	r3, .L725
 8768 2b5c 1B78     		ldrb	r3, [r3]
 8769 2b5e DBB2     		uxtb	r3, r3
 8770 2b60 013B     		subs	r3, r3, #1
 8771 2b62 DAB2     		uxtb	r2, r3
 8772 2b64 254B     		ldr	r3, .L725
 8773 2b66 1A70     		strb	r2, [r3]
 8774              	.L438:
1935:.\main.c      ****                     }
1936:.\main.c      ****                 }
1937:.\main.c      ****                 if(LCD_1_rxBuffer[3]==0x0C){								//Enter
 8775              		.loc 1 1937 0
ARM GAS  C:\Users\RECEPC~1\AppData\Local\Temp\ccIpe7td.s 			page 192


 8776 2b68 294B     		ldr	r3, .L725+20
 8777 2b6a DB78     		ldrb	r3, [r3, #3]
 8778 2b6c DBB2     		uxtb	r3, r3
 8779 2b6e 0C2B     		cmp	r3, #12
 8780 2b70 40F0B683 		bne	.L433
1938:.\main.c      **** 					switch(id_teclado1){
 8781              		.loc 1 1938 0
 8782 2b74 294B     		ldr	r3, .L725+32
 8783 2b76 1B78     		ldrb	r3, [r3]
 8784 2b78 DBB2     		uxtb	r3, r3
 8785 2b7a 013B     		subs	r3, r3, #1
 8786 2b7c 072B     		cmp	r3, #7
 8787 2b7e 00F2AF83 		bhi	.L433
 8788 2b82 01A2     		adr	r2, .L451
 8789 2b84 52F823F0 		ldr	pc, [r2, r3, lsl #2]
 8790              		.p2align 2
 8791              	.L451:
 8792 2b88 A92B0000 		.word	.L450+1
 8793 2b8c 3D2D0000 		.word	.L452+1
 8794 2b90 B52D0000 		.word	.L453+1
 8795 2b94 2D2E0000 		.word	.L454+1
 8796 2b98 872E0000 		.word	.L455+1
 8797 2b9c 752F0000 		.word	.L456+1
 8798 2ba0 A72F0000 		.word	.L457+1
 8799 2ba4 4F310000 		.word	.L458+1
 8800              		.p2align 1
 8801              	.L450:
1939:.\main.c      **** 						case 1:
1940:.\main.c      **** 							for(x=0;x<=7;x++){
 8802              		.loc 1 1940 0
 8803 2ba8 0023     		movs	r3, #0
 8804 2baa 87F82F30 		strb	r3, [r7, #47]
 8805 2bae 0CE0     		b	.L459
 8806              	.L460:
1941:.\main.c      **** 								numero[x]=0;
 8807              		.loc 1 1941 0 discriminator 3
 8808 2bb0 97F82F30 		ldrb	r3, [r7, #47]	@ zero_extendqisi2
 8809 2bb4 07F13002 		add	r2, r7, #48
 8810 2bb8 1344     		add	r3, r3, r2
 8811 2bba 0022     		movs	r2, #0
 8812 2bbc 03F82C2C 		strb	r2, [r3, #-44]
1940:.\main.c      **** 								numero[x]=0;
 8813              		.loc 1 1940 0 discriminator 3
 8814 2bc0 97F82F30 		ldrb	r3, [r7, #47]	@ zero_extendqisi2
 8815 2bc4 0133     		adds	r3, r3, #1
 8816 2bc6 87F82F30 		strb	r3, [r7, #47]
 8817              	.L459:
1940:.\main.c      **** 								numero[x]=0;
 8818              		.loc 1 1940 0 is_stmt 0 discriminator 1
 8819 2bca 97F82F30 		ldrb	r3, [r7, #47]	@ zero_extendqisi2
 8820 2bce 072B     		cmp	r3, #7
 8821 2bd0 EED9     		bls	.L460
1942:.\main.c      **** 							}						
1943:.\main.c      **** 							if((count_teclas1>=1)&&(Buffer_LCD1[count_teclas1]!=',')){
 8822              		.loc 1 1943 0 is_stmt 1
 8823 2bd2 0A4B     		ldr	r3, .L725
 8824 2bd4 1B78     		ldrb	r3, [r3]
ARM GAS  C:\Users\RECEPC~1\AppData\Local\Temp\ccIpe7td.s 			page 193


 8825 2bd6 DBB2     		uxtb	r3, r3
 8826 2bd8 002B     		cmp	r3, #0
 8827 2bda 00F0AE80 		beq	.L461
 8828              		.loc 1 1943 0 is_stmt 0 discriminator 1
 8829 2bde 074B     		ldr	r3, .L725
 8830 2be0 1B78     		ldrb	r3, [r3]
 8831 2be2 DBB2     		uxtb	r3, r3
 8832 2be4 1A46     		mov	r2, r3
 8833 2be6 064B     		ldr	r3, .L725+4
 8834 2be8 9B5C     		ldrb	r3, [r3, r2]
 8835 2bea DBB2     		uxtb	r3, r3
 8836 2bec 2C2B     		cmp	r3, #44
 8837 2bee 00F0A480 		beq	.L461
1944:.\main.c      **** 								for(x=1;x<=count_teclas1;x++){
 8838              		.loc 1 1944 0 is_stmt 1
 8839 2bf2 0123     		movs	r3, #1
 8840 2bf4 87F82F30 		strb	r3, [r7, #47]
 8841 2bf8 3FE0     		b	.L462
 8842              	.L726:
 8843 2bfa 00BF     		.align	2
 8844              	.L725:
 8845 2bfc 00000000 		.word	count_teclas1
 8846 2c00 00000000 		.word	Buffer_LCD1
 8847 2c04 00000000 		.word	posy1
 8848 2c08 00000000 		.word	sizeletra1
 8849 2c0c 00000000 		.word	posx1
 8850 2c10 00000000 		.word	LCD_1_rxBuffer
 8851 2c14 00000000 		.word	comas1
 8852 2c18 00000000 		.word	id_coma1
 8853 2c1c 00000000 		.word	id_teclado1
 8854 2c20 00000000 		.word	flujo_LCD1
 8855 2c24 00000000 		.word	lado2
 8856              	.L465:
1945:.\main.c      **** 									if(Buffer_LCD1[x]!=','){
 8857              		.loc 1 1945 0
 8858 2c28 97F82F30 		ldrb	r3, [r7, #47]	@ zero_extendqisi2
 8859 2c2c BC4A     		ldr	r2, .L727
 8860 2c2e D35C     		ldrb	r3, [r2, r3]
 8861 2c30 DBB2     		uxtb	r3, r3
 8862 2c32 2C2B     		cmp	r3, #44
 8863 2c34 0FD0     		beq	.L463
1946:.\main.c      **** 										numero[x-1]=Buffer_LCD1[x]+48;
 8864              		.loc 1 1946 0
 8865 2c36 97F82F30 		ldrb	r3, [r7, #47]	@ zero_extendqisi2
 8866 2c3a 013B     		subs	r3, r3, #1
 8867 2c3c 97F82F20 		ldrb	r2, [r7, #47]	@ zero_extendqisi2
 8868 2c40 B749     		ldr	r1, .L727
 8869 2c42 8A5C     		ldrb	r2, [r1, r2]
 8870 2c44 D2B2     		uxtb	r2, r2
 8871 2c46 3032     		adds	r2, r2, #48
 8872 2c48 D2B2     		uxtb	r2, r2
 8873 2c4a 07F13001 		add	r1, r7, #48
 8874 2c4e 0B44     		add	r3, r3, r1
 8875 2c50 03F82C2C 		strb	r2, [r3, #-44]
 8876 2c54 0CE0     		b	.L464
 8877              	.L463:
1947:.\main.c      **** 									}
ARM GAS  C:\Users\RECEPC~1\AppData\Local\Temp\ccIpe7td.s 			page 194


1948:.\main.c      **** 									else{
1949:.\main.c      **** 										numero[x-1]=Buffer_LCD1[x];
 8878              		.loc 1 1949 0
 8879 2c56 97F82F30 		ldrb	r3, [r7, #47]	@ zero_extendqisi2
 8880 2c5a 013B     		subs	r3, r3, #1
 8881 2c5c 97F82F20 		ldrb	r2, [r7, #47]	@ zero_extendqisi2
 8882 2c60 AF49     		ldr	r1, .L727
 8883 2c62 8A5C     		ldrb	r2, [r1, r2]
 8884 2c64 D2B2     		uxtb	r2, r2
 8885 2c66 07F13001 		add	r1, r7, #48
 8886 2c6a 0B44     		add	r3, r3, r1
 8887 2c6c 03F82C2C 		strb	r2, [r3, #-44]
 8888              	.L464:
1944:.\main.c      **** 									if(Buffer_LCD1[x]!=','){
 8889              		.loc 1 1944 0 discriminator 2
 8890 2c70 97F82F30 		ldrb	r3, [r7, #47]	@ zero_extendqisi2
 8891 2c74 0133     		adds	r3, r3, #1
 8892 2c76 87F82F30 		strb	r3, [r7, #47]
 8893              	.L462:
1944:.\main.c      **** 									if(Buffer_LCD1[x]!=','){
 8894              		.loc 1 1944 0 is_stmt 0 discriminator 1
 8895 2c7a AA4B     		ldr	r3, .L727+4
 8896 2c7c 1B78     		ldrb	r3, [r3]
 8897 2c7e DBB2     		uxtb	r3, r3
 8898 2c80 97F82F20 		ldrb	r2, [r7, #47]	@ zero_extendqisi2
 8899 2c84 9A42     		cmp	r2, r3
 8900 2c86 CFD9     		bls	.L465
1950:.\main.c      **** 									}
1951:.\main.c      **** 								}
1952:.\main.c      **** 								num_decimal=atof(numero);
 8901              		.loc 1 1952 0 is_stmt 1
 8902 2c88 3B1D     		adds	r3, r7, #4
 8903 2c8a 1846     		mov	r0, r3
 8904 2c8c FFF7FEFF 		bl	atof
 8905 2c90 C7E90801 		strd	r0, [r7, #32]
1953:.\main.c      **** 								if(((rventa2.preset[0]==1)&&(num_decimal>=5))||((rventa2.preset[0]==2)&&(num_decimal<=5)&&(
 8906              		.loc 1 1953 0
 8907 2c94 A44B     		ldr	r3, .L727+8
 8908 2c96 DB7E     		ldrb	r3, [r3, #27]	@ zero_extendqisi2
 8909 2c98 012B     		cmp	r3, #1
 8910 2c9a 09D1     		bne	.L466
 8911              		.loc 1 1953 0 is_stmt 0 discriminator 1
 8912 2c9c D7E90801 		ldrd	r0, [r7, #32]
 8913 2ca0 4FF00002 		mov	r2, #0
 8914 2ca4 A14B     		ldr	r3, .L727+12
 8915 2ca6 FFF7FEFF 		bl	__aeabi_dcmpge
 8916 2caa 0346     		mov	r3, r0
 8917 2cac 002B     		cmp	r3, #0
 8918 2cae 1AD1     		bne	.L467
 8919              	.L466:
 8920              		.loc 1 1953 0 discriminator 3
 8921 2cb0 9D4B     		ldr	r3, .L727+8
 8922 2cb2 DB7E     		ldrb	r3, [r3, #27]	@ zero_extendqisi2
 8923 2cb4 022B     		cmp	r3, #2
 8924 2cb6 40D1     		bne	.L461
 8925              		.loc 1 1953 0 discriminator 4
 8926 2cb8 D7E90801 		ldrd	r0, [r7, #32]
ARM GAS  C:\Users\RECEPC~1\AppData\Local\Temp\ccIpe7td.s 			page 195


 8927 2cbc 4FF00002 		mov	r2, #0
 8928 2cc0 9A4B     		ldr	r3, .L727+12
 8929 2cc2 FFF7FEFF 		bl	__aeabi_dcmple
 8930 2cc6 0346     		mov	r3, r0
 8931 2cc8 002B     		cmp	r3, #0
 8932 2cca 00D1     		bne	.L684
1954:.\main.c      **** 									for(x=count_teclas1;x>=1;x--){
1955:.\main.c      **** 										rventa2.preset[x]=Buffer_LCD1[(count_teclas1-x)+1];
1956:.\main.c      **** 									}
1957:.\main.c      **** 									flujo_LCD1=5;								
1958:.\main.c      ****                          			lado2.estado=espera;
1959:.\main.c      **** 						            set_imagen(1,7);
1960:.\main.c      **** 								}
1961:.\main.c      **** 							}
1962:.\main.c      **** 						break;
 8933              		.loc 1 1962 0 is_stmt 1 discriminator 4
 8934 2ccc 08E3     		b	.L433
 8935              	.L684:
1953:.\main.c      **** 								if(((rventa2.preset[0]==1)&&(num_decimal>=5))||((rventa2.preset[0]==2)&&(num_decimal<=5)&&(
 8936              		.loc 1 1953 0 discriminator 5
 8937 2cce D7E90801 		ldrd	r0, [r7, #32]
 8938 2cd2 4FF00002 		mov	r2, #0
 8939 2cd6 4FF00003 		mov	r3, #0
 8940 2cda FFF7FEFF 		bl	__aeabi_dcmpgt
 8941 2cde 0346     		mov	r3, r0
 8942 2ce0 002B     		cmp	r3, #0
 8943 2ce2 00D1     		bne	.L467
 8944              		.loc 1 1962 0 discriminator 5
 8945 2ce4 FCE2     		b	.L433
 8946              	.L467:
1954:.\main.c      **** 									for(x=count_teclas1;x>=1;x--){
 8947              		.loc 1 1954 0
 8948 2ce6 8F4B     		ldr	r3, .L727+4
 8949 2ce8 1B78     		ldrb	r3, [r3]
 8950 2cea 87F82F30 		strb	r3, [r7, #47]
 8951 2cee 15E0     		b	.L470
 8952              	.L471:
1955:.\main.c      **** 									}
 8953              		.loc 1 1955 0 discriminator 3
 8954 2cf0 97F82F30 		ldrb	r3, [r7, #47]	@ zero_extendqisi2
 8955 2cf4 8B4A     		ldr	r2, .L727+4
 8956 2cf6 1278     		ldrb	r2, [r2]
 8957 2cf8 D2B2     		uxtb	r2, r2
 8958 2cfa 1146     		mov	r1, r2
 8959 2cfc 97F82F20 		ldrb	r2, [r7, #47]	@ zero_extendqisi2
 8960 2d00 8A1A     		subs	r2, r1, r2
 8961 2d02 0132     		adds	r2, r2, #1
 8962 2d04 8649     		ldr	r1, .L727
 8963 2d06 8A5C     		ldrb	r2, [r1, r2]
 8964 2d08 D1B2     		uxtb	r1, r2
 8965 2d0a 874A     		ldr	r2, .L727+8
 8966 2d0c 1344     		add	r3, r3, r2
 8967 2d0e 0A46     		mov	r2, r1
 8968 2d10 DA76     		strb	r2, [r3, #27]
1954:.\main.c      **** 									for(x=count_teclas1;x>=1;x--){
 8969              		.loc 1 1954 0 discriminator 3
 8970 2d12 97F82F30 		ldrb	r3, [r7, #47]	@ zero_extendqisi2
ARM GAS  C:\Users\RECEPC~1\AppData\Local\Temp\ccIpe7td.s 			page 196


 8971 2d16 013B     		subs	r3, r3, #1
 8972 2d18 87F82F30 		strb	r3, [r7, #47]
 8973              	.L470:
1954:.\main.c      **** 									for(x=count_teclas1;x>=1;x--){
 8974              		.loc 1 1954 0 is_stmt 0 discriminator 1
 8975 2d1c 97F82F30 		ldrb	r3, [r7, #47]	@ zero_extendqisi2
 8976 2d20 002B     		cmp	r3, #0
 8977 2d22 E5D1     		bne	.L471
1957:.\main.c      ****                          			lado2.estado=espera;
 8978              		.loc 1 1957 0 is_stmt 1
 8979 2d24 824B     		ldr	r3, .L727+16
 8980 2d26 0522     		movs	r2, #5
 8981 2d28 1A70     		strb	r2, [r3]
1958:.\main.c      **** 						            set_imagen(1,7);
 8982              		.loc 1 1958 0
 8983 2d2a 824B     		ldr	r3, .L727+20
 8984 2d2c 0222     		movs	r2, #2
 8985 2d2e 5A70     		strb	r2, [r3, #1]
1959:.\main.c      **** 								}
 8986              		.loc 1 1959 0
 8987 2d30 0120     		movs	r0, #1
 8988 2d32 0721     		movs	r1, #7
 8989 2d34 FFF7FEFF 		bl	set_imagen
 8990              		.loc 1 1962 0
 8991 2d38 D2E2     		b	.L433
 8992              	.L461:
 8993 2d3a D1E2     		b	.L433
 8994              	.L452:
1963:.\main.c      **** 						case 2:	
1964:.\main.c      ****                             set_imagen(1,5);
 8995              		.loc 1 1964 0
 8996 2d3c 0120     		movs	r0, #1
 8997 2d3e 0521     		movs	r1, #5
 8998 2d40 FFF7FEFF 		bl	set_imagen
1965:.\main.c      ****                             for(x=0;x<=10;x++){
 8999              		.loc 1 1965 0
 9000 2d44 0023     		movs	r3, #0
 9001 2d46 87F82F30 		strb	r3, [r7, #47]
 9002 2d4a 0BE0     		b	.L472
 9003              	.L473:
1966:.\main.c      ****                               rventa2.km[x]=0;
 9004              		.loc 1 1966 0 discriminator 3
 9005 2d4c 97F82F30 		ldrb	r3, [r7, #47]	@ zero_extendqisi2
 9006 2d50 754A     		ldr	r2, .L727+8
 9007 2d52 1344     		add	r3, r3, r2
 9008 2d54 0022     		movs	r2, #0
 9009 2d56 83F84320 		strb	r2, [r3, #67]
1965:.\main.c      ****                             for(x=0;x<=10;x++){
 9010              		.loc 1 1965 0 discriminator 3
 9011 2d5a 97F82F30 		ldrb	r3, [r7, #47]	@ zero_extendqisi2
 9012 2d5e 0133     		adds	r3, r3, #1
 9013 2d60 87F82F30 		strb	r3, [r7, #47]
 9014              	.L472:
1965:.\main.c      ****                             for(x=0;x<=10;x++){
 9015              		.loc 1 1965 0 is_stmt 0 discriminator 1
 9016 2d64 97F82F30 		ldrb	r3, [r7, #47]	@ zero_extendqisi2
 9017 2d68 0A2B     		cmp	r3, #10
ARM GAS  C:\Users\RECEPC~1\AppData\Local\Temp\ccIpe7td.s 			page 197


 9018 2d6a EFD9     		bls	.L473
1967:.\main.c      ****                             }
1968:.\main.c      **** 							for(x=count_teclas1;x>=1;x--){
 9019              		.loc 1 1968 0 is_stmt 1
 9020 2d6c 6D4B     		ldr	r3, .L727+4
 9021 2d6e 1B78     		ldrb	r3, [r3]
 9022 2d70 87F82F30 		strb	r3, [r7, #47]
 9023 2d74 16E0     		b	.L474
 9024              	.L475:
1969:.\main.c      **** 								rventa2.km[x]=Buffer_LCD1[(count_teclas1-x)+1];
 9025              		.loc 1 1969 0 discriminator 3
 9026 2d76 97F82F30 		ldrb	r3, [r7, #47]	@ zero_extendqisi2
 9027 2d7a 6A4A     		ldr	r2, .L727+4
 9028 2d7c 1278     		ldrb	r2, [r2]
 9029 2d7e D2B2     		uxtb	r2, r2
 9030 2d80 1146     		mov	r1, r2
 9031 2d82 97F82F20 		ldrb	r2, [r7, #47]	@ zero_extendqisi2
 9032 2d86 8A1A     		subs	r2, r1, r2
 9033 2d88 0132     		adds	r2, r2, #1
 9034 2d8a 6549     		ldr	r1, .L727
 9035 2d8c 8A5C     		ldrb	r2, [r1, r2]
 9036 2d8e D1B2     		uxtb	r1, r2
 9037 2d90 654A     		ldr	r2, .L727+8
 9038 2d92 1344     		add	r3, r3, r2
 9039 2d94 0A46     		mov	r2, r1
 9040 2d96 83F84320 		strb	r2, [r3, #67]
1968:.\main.c      **** 								rventa2.km[x]=Buffer_LCD1[(count_teclas1-x)+1];
 9041              		.loc 1 1968 0 discriminator 3
 9042 2d9a 97F82F30 		ldrb	r3, [r7, #47]	@ zero_extendqisi2
 9043 2d9e 013B     		subs	r3, r3, #1
 9044 2da0 87F82F30 		strb	r3, [r7, #47]
 9045              	.L474:
1968:.\main.c      **** 								rventa2.km[x]=Buffer_LCD1[(count_teclas1-x)+1];
 9046              		.loc 1 1968 0 is_stmt 0 discriminator 1
 9047 2da4 97F82F30 		ldrb	r3, [r7, #47]	@ zero_extendqisi2
 9048 2da8 002B     		cmp	r3, #0
 9049 2daa E4D1     		bne	.L475
1970:.\main.c      **** 							}
1971:.\main.c      **** 	                        flujo_LCD1=4;		                        
 9050              		.loc 1 1971 0 is_stmt 1
 9051 2dac 604B     		ldr	r3, .L727+16
 9052 2dae 0422     		movs	r2, #4
 9053 2db0 1A70     		strb	r2, [r3]
1972:.\main.c      **** 						break;
 9054              		.loc 1 1972 0
 9055 2db2 95E2     		b	.L433
 9056              	.L453:
1973:.\main.c      **** 						case 3:
1974:.\main.c      **** 							for(x=count_teclas1;x>=1;x--){
 9057              		.loc 1 1974 0
 9058 2db4 5B4B     		ldr	r3, .L727+4
 9059 2db6 1B78     		ldrb	r3, [r3]
 9060 2db8 87F82F30 		strb	r3, [r7, #47]
 9061 2dbc 18E0     		b	.L476
 9062              	.L477:
1975:.\main.c      **** 								rventa2.cedula[x]=Buffer_LCD1[(count_teclas1-x)+1]+48;
 9063              		.loc 1 1975 0 discriminator 3
ARM GAS  C:\Users\RECEPC~1\AppData\Local\Temp\ccIpe7td.s 			page 198


 9064 2dbe 97F82F30 		ldrb	r3, [r7, #47]	@ zero_extendqisi2
 9065 2dc2 584A     		ldr	r2, .L727+4
 9066 2dc4 1278     		ldrb	r2, [r2]
 9067 2dc6 D2B2     		uxtb	r2, r2
 9068 2dc8 1146     		mov	r1, r2
 9069 2dca 97F82F20 		ldrb	r2, [r7, #47]	@ zero_extendqisi2
 9070 2dce 8A1A     		subs	r2, r1, r2
 9071 2dd0 0132     		adds	r2, r2, #1
 9072 2dd2 5349     		ldr	r1, .L727
 9073 2dd4 8A5C     		ldrb	r2, [r1, r2]
 9074 2dd6 D2B2     		uxtb	r2, r2
 9075 2dd8 3032     		adds	r2, r2, #48
 9076 2dda D1B2     		uxtb	r1, r2
 9077 2ddc 524A     		ldr	r2, .L727+8
 9078 2dde 1344     		add	r3, r3, r2
 9079 2de0 0A46     		mov	r2, r1
 9080 2de2 83F85920 		strb	r2, [r3, #89]
1974:.\main.c      **** 								rventa2.cedula[x]=Buffer_LCD1[(count_teclas1-x)+1]+48;
 9081              		.loc 1 1974 0 discriminator 3
 9082 2de6 97F82F30 		ldrb	r3, [r7, #47]	@ zero_extendqisi2
 9083 2dea 013B     		subs	r3, r3, #1
 9084 2dec 87F82F30 		strb	r3, [r7, #47]
 9085              	.L476:
1974:.\main.c      **** 								rventa2.cedula[x]=Buffer_LCD1[(count_teclas1-x)+1]+48;
 9086              		.loc 1 1974 0 is_stmt 0 discriminator 1
 9087 2df0 97F82F30 		ldrb	r3, [r7, #47]	@ zero_extendqisi2
 9088 2df4 002B     		cmp	r3, #0
 9089 2df6 E2D1     		bne	.L477
1976:.\main.c      **** 							}
1977:.\main.c      ****                         	flujo_LCD1=2;	
 9090              		.loc 1 1977 0 is_stmt 1
 9091 2df8 4D4B     		ldr	r3, .L727+16
 9092 2dfa 0222     		movs	r2, #2
 9093 2dfc 1A70     		strb	r2, [r3]
1978:.\main.c      ****                         	set_imagen(1,5);
 9094              		.loc 1 1978 0
 9095 2dfe 0120     		movs	r0, #1
 9096 2e00 0521     		movs	r1, #5
 9097 2e02 FFF7FEFF 		bl	set_imagen
1979:.\main.c      **** 							count_teclas1=0;
 9098              		.loc 1 1979 0
 9099 2e06 474B     		ldr	r3, .L727+4
 9100 2e08 0022     		movs	r2, #0
 9101 2e0a 1A70     		strb	r2, [r3]
1980:.\main.c      **** 							id_teclado1=4;
 9102              		.loc 1 1980 0
 9103 2e0c 4A4B     		ldr	r3, .L727+24
 9104 2e0e 0422     		movs	r2, #4
 9105 2e10 1A70     		strb	r2, [r3]
1981:.\main.c      **** 							teclas1=10;
 9106              		.loc 1 1981 0
 9107 2e12 4A4B     		ldr	r3, .L727+28
 9108 2e14 0A22     		movs	r2, #10
 9109 2e16 1A70     		strb	r2, [r3]
1982:.\main.c      **** 							posx1=2;
 9110              		.loc 1 1982 0
 9111 2e18 494B     		ldr	r3, .L727+32
ARM GAS  C:\Users\RECEPC~1\AppData\Local\Temp\ccIpe7td.s 			page 199


 9112 2e1a 0222     		movs	r2, #2
 9113 2e1c 1A80     		strh	r2, [r3]	@ movhi
1983:.\main.c      **** 							posy1=3;
 9114              		.loc 1 1983 0
 9115 2e1e 494B     		ldr	r3, .L727+36
 9116 2e20 0322     		movs	r2, #3
 9117 2e22 1A80     		strh	r2, [r3]	@ movhi
1984:.\main.c      **** 							sizeletra1=1;								
 9118              		.loc 1 1984 0
 9119 2e24 484B     		ldr	r3, .L727+40
 9120 2e26 0122     		movs	r2, #1
 9121 2e28 1A80     		strh	r2, [r3]	@ movhi
1985:.\main.c      **** 						break;
 9122              		.loc 1 1985 0
 9123 2e2a 59E2     		b	.L433
 9124              	.L454:
1986:.\main.c      **** 						case 4:
1987:.\main.c      **** 							for(x=count_teclas1;x>=1;x--){
 9125              		.loc 1 1987 0
 9126 2e2c 3D4B     		ldr	r3, .L727+4
 9127 2e2e 1B78     		ldrb	r3, [r3]
 9128 2e30 87F82F30 		strb	r3, [r7, #47]
 9129 2e34 18E0     		b	.L478
 9130              	.L479:
1988:.\main.c      **** 								rventa2.password[x]=Buffer_LCD1[(count_teclas1-x)+1]+48;
 9131              		.loc 1 1988 0 discriminator 3
 9132 2e36 97F82F30 		ldrb	r3, [r7, #47]	@ zero_extendqisi2
 9133 2e3a 3A4A     		ldr	r2, .L727+4
 9134 2e3c 1278     		ldrb	r2, [r2]
 9135 2e3e D2B2     		uxtb	r2, r2
 9136 2e40 1146     		mov	r1, r2
 9137 2e42 97F82F20 		ldrb	r2, [r7, #47]	@ zero_extendqisi2
 9138 2e46 8A1A     		subs	r2, r1, r2
 9139 2e48 0132     		adds	r2, r2, #1
 9140 2e4a 3549     		ldr	r1, .L727
 9141 2e4c 8A5C     		ldrb	r2, [r1, r2]
 9142 2e4e D2B2     		uxtb	r2, r2
 9143 2e50 3032     		adds	r2, r2, #48
 9144 2e52 D1B2     		uxtb	r1, r2
 9145 2e54 344A     		ldr	r2, .L727+8
 9146 2e56 1344     		add	r3, r3, r2
 9147 2e58 0A46     		mov	r2, r1
 9148 2e5a 83F86420 		strb	r2, [r3, #100]
1987:.\main.c      **** 								rventa2.password[x]=Buffer_LCD1[(count_teclas1-x)+1]+48;
 9149              		.loc 1 1987 0 discriminator 3
 9150 2e5e 97F82F30 		ldrb	r3, [r7, #47]	@ zero_extendqisi2
 9151 2e62 013B     		subs	r3, r3, #1
 9152 2e64 87F82F30 		strb	r3, [r7, #47]
 9153              	.L478:
1987:.\main.c      **** 								rventa2.password[x]=Buffer_LCD1[(count_teclas1-x)+1]+48;
 9154              		.loc 1 1987 0 is_stmt 0 discriminator 1
 9155 2e68 97F82F30 		ldrb	r3, [r7, #47]	@ zero_extendqisi2
 9156 2e6c 002B     		cmp	r3, #0
 9157 2e6e E2D1     		bne	.L479
1989:.\main.c      **** 							}
1990:.\main.c      ****                         	flujo_LCD1=102;	
 9158              		.loc 1 1990 0 is_stmt 1
ARM GAS  C:\Users\RECEPC~1\AppData\Local\Temp\ccIpe7td.s 			page 200


 9159 2e70 2F4B     		ldr	r3, .L727+16
 9160 2e72 6622     		movs	r2, #102
 9161 2e74 1A70     		strb	r2, [r3]
1991:.\main.c      ****                         	set_imagen(1,57);
 9162              		.loc 1 1991 0
 9163 2e76 0120     		movs	r0, #1
 9164 2e78 3921     		movs	r1, #57
 9165 2e7a FFF7FEFF 		bl	set_imagen
1992:.\main.c      **** 							lado2.estado=16;
 9166              		.loc 1 1992 0
 9167 2e7e 2D4B     		ldr	r3, .L727+20
 9168 2e80 1022     		movs	r2, #16
 9169 2e82 5A70     		strb	r2, [r3, #1]
1993:.\main.c      **** 						break;	
 9170              		.loc 1 1993 0
 9171 2e84 2CE2     		b	.L433
 9172              	.L455:
1994:.\main.c      ****                         case 5:
1995:.\main.c      **** 							for(x=count_teclas1;x>=1;x--){
 9173              		.loc 1 1995 0
 9174 2e86 274B     		ldr	r3, .L727+4
 9175 2e88 1B78     		ldrb	r3, [r3]
 9176 2e8a 87F82F30 		strb	r3, [r7, #47]
 9177 2e8e 18E0     		b	.L480
 9178              	.L481:
1996:.\main.c      **** 								rventa2.password_local[x]=Buffer_LCD1[(count_teclas1-x)+1]+48;
 9179              		.loc 1 1996 0 discriminator 3
 9180 2e90 97F82F30 		ldrb	r3, [r7, #47]	@ zero_extendqisi2
 9181 2e94 234A     		ldr	r2, .L727+4
 9182 2e96 1278     		ldrb	r2, [r2]
 9183 2e98 D2B2     		uxtb	r2, r2
 9184 2e9a 1146     		mov	r1, r2
 9185 2e9c 97F82F20 		ldrb	r2, [r7, #47]	@ zero_extendqisi2
 9186 2ea0 8A1A     		subs	r2, r1, r2
 9187 2ea2 0132     		adds	r2, r2, #1
 9188 2ea4 1E49     		ldr	r1, .L727
 9189 2ea6 8A5C     		ldrb	r2, [r1, r2]
 9190 2ea8 D2B2     		uxtb	r2, r2
 9191 2eaa 3032     		adds	r2, r2, #48
 9192 2eac D1B2     		uxtb	r1, r2
 9193 2eae 1E4A     		ldr	r2, .L727+8
 9194 2eb0 1344     		add	r3, r3, r2
 9195 2eb2 0A46     		mov	r2, r1
 9196 2eb4 83F87120 		strb	r2, [r3, #113]
1995:.\main.c      **** 								rventa2.password_local[x]=Buffer_LCD1[(count_teclas1-x)+1]+48;
 9197              		.loc 1 1995 0 discriminator 3
 9198 2eb8 97F82F30 		ldrb	r3, [r7, #47]	@ zero_extendqisi2
 9199 2ebc 013B     		subs	r3, r3, #1
 9200 2ebe 87F82F30 		strb	r3, [r7, #47]
 9201              	.L480:
1995:.\main.c      **** 								rventa2.password_local[x]=Buffer_LCD1[(count_teclas1-x)+1]+48;
 9202              		.loc 1 1995 0 is_stmt 0 discriminator 1
 9203 2ec2 97F82F30 		ldrb	r3, [r7, #47]	@ zero_extendqisi2
 9204 2ec6 002B     		cmp	r3, #0
 9205 2ec8 E2D1     		bne	.L481
1997:.\main.c      **** 							}
1998:.\main.c      ****                             if(clave_local[0]==rventa2.password_local[4] && clave_local[1]==rventa2
ARM GAS  C:\Users\RECEPC~1\AppData\Local\Temp\ccIpe7td.s 			page 201


 9206              		.loc 1 1998 0 is_stmt 1
 9207 2eca 204B     		ldr	r3, .L727+44
 9208 2ecc 1A78     		ldrb	r2, [r3]	@ zero_extendqisi2
 9209 2ece 164B     		ldr	r3, .L727+8
 9210 2ed0 93F87530 		ldrb	r3, [r3, #117]	@ zero_extendqisi2
 9211 2ed4 9A42     		cmp	r2, r3
 9212 2ed6 3BD1     		bne	.L482
 9213              		.loc 1 1998 0 is_stmt 0 discriminator 1
 9214 2ed8 1C4B     		ldr	r3, .L727+44
 9215 2eda 5A78     		ldrb	r2, [r3, #1]	@ zero_extendqisi2
 9216 2edc 124B     		ldr	r3, .L727+8
 9217 2ede 93F87430 		ldrb	r3, [r3, #116]	@ zero_extendqisi2
 9218 2ee2 9A42     		cmp	r2, r3
 9219 2ee4 34D1     		bne	.L482
 9220              		.loc 1 1998 0 discriminator 2
 9221 2ee6 194B     		ldr	r3, .L727+44
 9222 2ee8 9A78     		ldrb	r2, [r3, #2]	@ zero_extendqisi2
 9223 2eea 0F4B     		ldr	r3, .L727+8
 9224 2eec 93F87330 		ldrb	r3, [r3, #115]	@ zero_extendqisi2
 9225 2ef0 9A42     		cmp	r2, r3
 9226 2ef2 2DD1     		bne	.L482
 9227              		.loc 1 1998 0 discriminator 3
 9228 2ef4 154B     		ldr	r3, .L727+44
 9229 2ef6 DA78     		ldrb	r2, [r3, #3]	@ zero_extendqisi2
 9230 2ef8 0B4B     		ldr	r3, .L727+8
 9231 2efa 93F87230 		ldrb	r3, [r3, #114]	@ zero_extendqisi2
 9232 2efe 9A42     		cmp	r2, r3
 9233 2f00 26D1     		bne	.L482
1999:.\main.c      ****                         	    set_imagen(1,38); 
 9234              		.loc 1 1999 0 is_stmt 1
 9235 2f02 0120     		movs	r0, #1
 9236 2f04 2621     		movs	r1, #38
 9237 2f06 FFF7FEFF 		bl	set_imagen
2000:.\main.c      ****                                 CyDelay(200);
 9238              		.loc 1 2000 0
 9239 2f0a C820     		movs	r0, #200
 9240 2f0c FFF7FEFF 		bl	CyDelay
2001:.\main.c      **** 							    set_imagen(1,70);  
 9241              		.loc 1 2001 0
 9242 2f10 0120     		movs	r0, #1
 9243 2f12 4621     		movs	r1, #70
 9244 2f14 FFF7FEFF 		bl	set_imagen
2002:.\main.c      ****                                 flujo_LCD1 = 16;
 9245              		.loc 1 2002 0
 9246 2f18 054B     		ldr	r3, .L727+16
 9247 2f1a 1022     		movs	r2, #16
 9248 2f1c 1A70     		strb	r2, [r3]
2003:.\main.c      ****                             }else{
2004:.\main.c      ****                         	    flujo_LCD1=0;	
2005:.\main.c      ****                         	    set_imagen(1,39); 
2006:.\main.c      **** 							    lado2.estado=libre;                                 
2007:.\main.c      ****                                 CyDelay(200);
2008:.\main.c      **** 							    set_imagen(1,0);                                 
2009:.\main.c      ****                             }
2010:.\main.c      ****                         break; 
 9249              		.loc 1 2010 0
 9250 2f1e DFE1     		b	.L433
ARM GAS  C:\Users\RECEPC~1\AppData\Local\Temp\ccIpe7td.s 			page 202


 9251              	.L728:
 9252              		.align	2
 9253              	.L727:
 9254 2f20 00000000 		.word	Buffer_LCD1
 9255 2f24 00000000 		.word	count_teclas1
 9256 2f28 00000000 		.word	rventa2
 9257 2f2c 00001440 		.word	1075052544
 9258 2f30 00000000 		.word	flujo_LCD1
 9259 2f34 00000000 		.word	lado2
 9260 2f38 00000000 		.word	id_teclado1
 9261 2f3c 00000000 		.word	teclas1
 9262 2f40 00000000 		.word	posx1
 9263 2f44 00000000 		.word	posy1
 9264 2f48 00000000 		.word	sizeletra1
 9265 2f4c 00000000 		.word	clave_local
 9266              	.L482:
2004:.\main.c      ****                         	    set_imagen(1,39); 
 9267              		.loc 1 2004 0
 9268 2f50 8C4B     		ldr	r3, .L729
 9269 2f52 0022     		movs	r2, #0
 9270 2f54 1A70     		strb	r2, [r3]
2005:.\main.c      **** 							    lado2.estado=libre;                                 
 9271              		.loc 1 2005 0
 9272 2f56 0120     		movs	r0, #1
 9273 2f58 2721     		movs	r1, #39
 9274 2f5a FFF7FEFF 		bl	set_imagen
2006:.\main.c      ****                                 CyDelay(200);
 9275              		.loc 1 2006 0
 9276 2f5e 8A4B     		ldr	r3, .L729+4
 9277 2f60 0122     		movs	r2, #1
 9278 2f62 5A70     		strb	r2, [r3, #1]
2007:.\main.c      **** 							    set_imagen(1,0);                                 
 9279              		.loc 1 2007 0
 9280 2f64 C820     		movs	r0, #200
 9281 2f66 FFF7FEFF 		bl	CyDelay
2008:.\main.c      ****                             }
 9282              		.loc 1 2008 0
 9283 2f6a 0120     		movs	r0, #1
 9284 2f6c 0021     		movs	r1, #0
 9285 2f6e FFF7FEFF 		bl	set_imagen
 9286              		.loc 1 2010 0
 9287 2f72 B5E1     		b	.L433
 9288              	.L456:
2011:.\main.c      ****                         case 6:                        
2012:.\main.c      **** 						    EEPROM_WriteByte(Buffer_LCD1[count_teclas1],30);
 9289              		.loc 1 2012 0
 9290 2f74 854B     		ldr	r3, .L729+8
 9291 2f76 1B78     		ldrb	r3, [r3]
 9292 2f78 DBB2     		uxtb	r3, r3
 9293 2f7a 1A46     		mov	r2, r3
 9294 2f7c 844B     		ldr	r3, .L729+12
 9295 2f7e 9B5C     		ldrb	r3, [r3, r2]
 9296 2f80 DBB2     		uxtb	r3, r3
 9297 2f82 1846     		mov	r0, r3
 9298 2f84 1E21     		movs	r1, #30
 9299 2f86 FFF7FEFF 		bl	EEPROM_WriteByte
2013:.\main.c      ****                         	flujo_LCD1 = 0;	
ARM GAS  C:\Users\RECEPC~1\AppData\Local\Temp\ccIpe7td.s 			page 203


 9300              		.loc 1 2013 0
 9301 2f8a 7E4B     		ldr	r3, .L729
 9302 2f8c 0022     		movs	r2, #0
 9303 2f8e 1A70     		strb	r2, [r3]
2014:.\main.c      ****                         	set_imagen(1,60);
 9304              		.loc 1 2014 0
 9305 2f90 0120     		movs	r0, #1
 9306 2f92 3C21     		movs	r1, #60
 9307 2f94 FFF7FEFF 		bl	set_imagen
2015:.\main.c      ****                             CyDelay(200);
 9308              		.loc 1 2015 0
 9309 2f98 C820     		movs	r0, #200
 9310 2f9a FFF7FEFF 		bl	CyDelay
2016:.\main.c      **** 							lado2.estado=libre;                                                     
 9311              		.loc 1 2016 0
 9312 2f9e 7A4B     		ldr	r3, .L729+4
 9313 2fa0 0122     		movs	r2, #1
 9314 2fa2 5A70     		strb	r2, [r3, #1]
2017:.\main.c      ****                         break;   
 9315              		.loc 1 2017 0
 9316 2fa4 9CE1     		b	.L433
 9317              	.L457:
2018:.\main.c      ****                         case 7:
2019:.\main.c      ****                             flujo_LCD1=18;
 9318              		.loc 1 2019 0
 9319 2fa6 774B     		ldr	r3, .L729
 9320 2fa8 1222     		movs	r2, #18
 9321 2faa 1A70     		strb	r2, [r3]
2020:.\main.c      ****                             set_imagen(1,88);
 9322              		.loc 1 2020 0
 9323 2fac 0120     		movs	r0, #1
 9324 2fae 5821     		movs	r1, #88
 9325 2fb0 FFF7FEFF 		bl	set_imagen
2021:.\main.c      ****                             switch(Producto){
 9326              		.loc 1 2021 0
 9327 2fb4 774B     		ldr	r3, .L729+16
 9328 2fb6 1B78     		ldrb	r3, [r3]	@ zero_extendqisi2
 9329 2fb8 013B     		subs	r3, r3, #1
 9330 2fba 032B     		cmp	r3, #3
 9331 2fbc 00F29880 		bhi	.L484
 9332 2fc0 01A2     		adr	r2, .L486
 9333 2fc2 52F823F0 		ldr	pc, [r2, r3, lsl #2]
 9334 2fc6 00BF     		.p2align 2
 9335              	.L486:
 9336 2fc8 D92F0000 		.word	.L485+1
 9337 2fcc 1F300000 		.word	.L487+1
 9338 2fd0 65300000 		.word	.L488+1
 9339 2fd4 AB300000 		.word	.L489+1
 9340              		.p2align 1
 9341              	.L485:
2022:.\main.c      ****                                 case 1:// 1=diesel, siempre para Autogas, 
2023:.\main.c      ****                                     Productos[0]=Buffer_LCD1[1]+48;//para la estacion seria el digi
 9342              		.loc 1 2023 0
 9343 2fd8 6D4B     		ldr	r3, .L729+12
 9344 2fda 5B78     		ldrb	r3, [r3, #1]
 9345 2fdc DBB2     		uxtb	r3, r3
 9346 2fde 3033     		adds	r3, r3, #48
ARM GAS  C:\Users\RECEPC~1\AppData\Local\Temp\ccIpe7td.s 			page 204


 9347 2fe0 DAB2     		uxtb	r2, r3
 9348 2fe2 6D4B     		ldr	r3, .L729+20
 9349 2fe4 1A70     		strb	r2, [r3]
2024:.\main.c      ****                                     switch(Productos[0]){
 9350              		.loc 1 2024 0
 9351 2fe6 6C4B     		ldr	r3, .L729+20
 9352 2fe8 1B78     		ldrb	r3, [r3]	@ zero_extendqisi2
 9353 2fea 322B     		cmp	r3, #50
 9354 2fec 08D0     		beq	.L491
 9355 2fee 332B     		cmp	r3, #51
 9356 2ff0 0BD0     		beq	.L492
 9357 2ff2 312B     		cmp	r3, #49
 9358 2ff4 0ED1     		bne	.L689
2025:.\main.c      ****                                         case '1':
2026:.\main.c      ****                                         lado2.grado[0][0]=1;                                       
 9359              		.loc 1 2026 0
 9360 2ff6 644B     		ldr	r3, .L729+4
 9361 2ff8 0122     		movs	r2, #1
 9362 2ffa 83F85920 		strb	r2, [r3, #89]
2027:.\main.c      ****                                         break;
 9363              		.loc 1 2027 0
 9364 2ffe 0DE0     		b	.L494
 9365              	.L491:
2028:.\main.c      ****                                         case '2':
2029:.\main.c      ****                                         lado2.grado[1][0]=1;                                       
 9366              		.loc 1 2029 0
 9367 3000 614B     		ldr	r3, .L729+4
 9368 3002 0122     		movs	r2, #1
 9369 3004 83F85A20 		strb	r2, [r3, #90]
2030:.\main.c      ****                                         break;
 9370              		.loc 1 2030 0
 9371 3008 08E0     		b	.L494
 9372              	.L492:
2031:.\main.c      ****                                         case '3':
2032:.\main.c      ****                                         lado2.grado[2][0]=1;                                       
 9373              		.loc 1 2032 0
 9374 300a 5F4B     		ldr	r3, .L729+4
 9375 300c 0122     		movs	r2, #1
 9376 300e 83F85B20 		strb	r2, [r3, #91]
2033:.\main.c      ****                                         break;                    
 9377              		.loc 1 2033 0
 9378 3012 03E0     		b	.L494
 9379              	.L689:
2034:.\main.c      ****                                         default:
2035:.\main.c      ****                                         producto1 = 0;
 9380              		.loc 1 2035 0
 9381 3014 614B     		ldr	r3, .L729+24
 9382 3016 0022     		movs	r2, #0
 9383 3018 1A70     		strb	r2, [r3]
2036:.\main.c      ****                                         break;
 9384              		.loc 1 2036 0
 9385 301a 00BF     		nop
 9386              	.L494:
2037:.\main.c      ****                                     }                                   
2038:.\main.c      ****                                 break;
 9387              		.loc 1 2038 0
 9388 301c 68E0     		b	.L484
ARM GAS  C:\Users\RECEPC~1\AppData\Local\Temp\ccIpe7td.s 			page 205


 9389              	.L487:
2039:.\main.c      ****                                 case 2:// 2=corriente, siempre para Autogas,
2040:.\main.c      ****                                     Productos[1]=Buffer_LCD1[1]+48;
 9390              		.loc 1 2040 0
 9391 301e 5C4B     		ldr	r3, .L729+12
 9392 3020 5B78     		ldrb	r3, [r3, #1]
 9393 3022 DBB2     		uxtb	r3, r3
 9394 3024 3033     		adds	r3, r3, #48
 9395 3026 DAB2     		uxtb	r2, r3
 9396 3028 5B4B     		ldr	r3, .L729+20
 9397 302a 5A70     		strb	r2, [r3, #1]
2041:.\main.c      ****                                     switch(Productos[1]){
 9398              		.loc 1 2041 0
 9399 302c 5A4B     		ldr	r3, .L729+20
 9400 302e 5B78     		ldrb	r3, [r3, #1]	@ zero_extendqisi2
 9401 3030 322B     		cmp	r3, #50
 9402 3032 08D0     		beq	.L496
 9403 3034 332B     		cmp	r3, #51
 9404 3036 0BD0     		beq	.L497
 9405 3038 312B     		cmp	r3, #49
 9406 303a 0ED1     		bne	.L690
2042:.\main.c      ****                                         case '1':
2043:.\main.c      ****                                         lado2.grado[0][0]=2;                                       
 9407              		.loc 1 2043 0
 9408 303c 524B     		ldr	r3, .L729+4
 9409 303e 0222     		movs	r2, #2
 9410 3040 83F85920 		strb	r2, [r3, #89]
2044:.\main.c      ****                                         break;
 9411              		.loc 1 2044 0
 9412 3044 0DE0     		b	.L499
 9413              	.L496:
2045:.\main.c      ****                                         case '2':
2046:.\main.c      ****                                         lado2.grado[1][0]=2;                                       
 9414              		.loc 1 2046 0
 9415 3046 504B     		ldr	r3, .L729+4
 9416 3048 0222     		movs	r2, #2
 9417 304a 83F85A20 		strb	r2, [r3, #90]
2047:.\main.c      ****                                         break;
 9418              		.loc 1 2047 0
 9419 304e 08E0     		b	.L499
 9420              	.L497:
2048:.\main.c      ****                                         case '3':
2049:.\main.c      ****                                         lado2.grado[2][0]=2;                                       
 9421              		.loc 1 2049 0
 9422 3050 4D4B     		ldr	r3, .L729+4
 9423 3052 0222     		movs	r2, #2
 9424 3054 83F85B20 		strb	r2, [r3, #91]
2050:.\main.c      ****                                         break; 
 9425              		.loc 1 2050 0
 9426 3058 03E0     		b	.L499
 9427              	.L690:
2051:.\main.c      ****                                         default:
2052:.\main.c      ****                                         producto2=0;
 9428              		.loc 1 2052 0
 9429 305a 514B     		ldr	r3, .L729+28
 9430 305c 0022     		movs	r2, #0
 9431 305e 1A70     		strb	r2, [r3]
ARM GAS  C:\Users\RECEPC~1\AppData\Local\Temp\ccIpe7td.s 			page 206


2053:.\main.c      ****                                         break;                                        
 9432              		.loc 1 2053 0
 9433 3060 00BF     		nop
 9434              	.L499:
2054:.\main.c      ****                                     }                                      
2055:.\main.c      ****                                 break;
 9435              		.loc 1 2055 0
 9436 3062 45E0     		b	.L484
 9437              	.L488:
2056:.\main.c      ****                                 case 3:// 3=extra, siempre para Autogas,
2057:.\main.c      ****                                     Productos[2]=Buffer_LCD1[1]+48;
 9438              		.loc 1 2057 0
 9439 3064 4A4B     		ldr	r3, .L729+12
 9440 3066 5B78     		ldrb	r3, [r3, #1]
 9441 3068 DBB2     		uxtb	r3, r3
 9442 306a 3033     		adds	r3, r3, #48
 9443 306c DAB2     		uxtb	r2, r3
 9444 306e 4A4B     		ldr	r3, .L729+20
 9445 3070 9A70     		strb	r2, [r3, #2]
2058:.\main.c      ****                                     switch(Productos[2]){
 9446              		.loc 1 2058 0
 9447 3072 494B     		ldr	r3, .L729+20
 9448 3074 9B78     		ldrb	r3, [r3, #2]	@ zero_extendqisi2
 9449 3076 322B     		cmp	r3, #50
 9450 3078 08D0     		beq	.L501
 9451 307a 332B     		cmp	r3, #51
 9452 307c 0BD0     		beq	.L502
 9453 307e 312B     		cmp	r3, #49
 9454 3080 0ED1     		bne	.L691
2059:.\main.c      ****                                         case '1':
2060:.\main.c      ****                                         lado2.grado[0][0]=3;                                       
 9455              		.loc 1 2060 0
 9456 3082 414B     		ldr	r3, .L729+4
 9457 3084 0322     		movs	r2, #3
 9458 3086 83F85920 		strb	r2, [r3, #89]
2061:.\main.c      ****                                         break;
 9459              		.loc 1 2061 0
 9460 308a 0DE0     		b	.L504
 9461              	.L501:
2062:.\main.c      ****                                         case '2':
2063:.\main.c      ****                                         lado2.grado[1][0]=3;                                       
 9462              		.loc 1 2063 0
 9463 308c 3E4B     		ldr	r3, .L729+4
 9464 308e 0322     		movs	r2, #3
 9465 3090 83F85A20 		strb	r2, [r3, #90]
2064:.\main.c      ****                                         break;
 9466              		.loc 1 2064 0
 9467 3094 08E0     		b	.L504
 9468              	.L502:
2065:.\main.c      ****                                         case '3':
2066:.\main.c      ****                                         lado2.grado[2][0]=3;                                       
 9469              		.loc 1 2066 0
 9470 3096 3C4B     		ldr	r3, .L729+4
 9471 3098 0322     		movs	r2, #3
 9472 309a 83F85B20 		strb	r2, [r3, #91]
2067:.\main.c      ****                                         break; 
 9473              		.loc 1 2067 0
ARM GAS  C:\Users\RECEPC~1\AppData\Local\Temp\ccIpe7td.s 			page 207


 9474 309e 03E0     		b	.L504
 9475              	.L691:
2068:.\main.c      ****                                         default:
2069:.\main.c      ****                                         producto3=0;
 9476              		.loc 1 2069 0
 9477 30a0 404B     		ldr	r3, .L729+32
 9478 30a2 0022     		movs	r2, #0
 9479 30a4 1A70     		strb	r2, [r3]
2070:.\main.c      ****                                         break;                                        
 9480              		.loc 1 2070 0
 9481 30a6 00BF     		nop
 9482              	.L504:
2071:.\main.c      ****                                     }                                      
2072:.\main.c      ****                                 break;
 9483              		.loc 1 2072 0
 9484 30a8 22E0     		b	.L484
 9485              	.L489:
2073:.\main.c      ****                                 case 4:// 4=supreme diesel, siempre para Autogas,
2074:.\main.c      ****                                     Productos[3]=Buffer_LCD1[1]+48;
 9486              		.loc 1 2074 0
 9487 30aa 394B     		ldr	r3, .L729+12
 9488 30ac 5B78     		ldrb	r3, [r3, #1]
 9489 30ae DBB2     		uxtb	r3, r3
 9490 30b0 3033     		adds	r3, r3, #48
 9491 30b2 DAB2     		uxtb	r2, r3
 9492 30b4 384B     		ldr	r3, .L729+20
 9493 30b6 DA70     		strb	r2, [r3, #3]
2075:.\main.c      ****                                     switch(Productos[3]){
 9494              		.loc 1 2075 0
 9495 30b8 374B     		ldr	r3, .L729+20
 9496 30ba DB78     		ldrb	r3, [r3, #3]	@ zero_extendqisi2
 9497 30bc 322B     		cmp	r3, #50
 9498 30be 08D0     		beq	.L506
 9499 30c0 332B     		cmp	r3, #51
 9500 30c2 0BD0     		beq	.L507
 9501 30c4 312B     		cmp	r3, #49
 9502 30c6 0ED1     		bne	.L692
2076:.\main.c      ****                                         case '1':
2077:.\main.c      ****                                         lado2.grado[0][0]=4;                                       
 9503              		.loc 1 2077 0
 9504 30c8 2F4B     		ldr	r3, .L729+4
 9505 30ca 0422     		movs	r2, #4
 9506 30cc 83F85920 		strb	r2, [r3, #89]
2078:.\main.c      ****                                         break;
 9507              		.loc 1 2078 0
 9508 30d0 0DE0     		b	.L509
 9509              	.L506:
2079:.\main.c      ****                                         case '2':
2080:.\main.c      ****                                         lado2.grado[1][0]=4;                                       
 9510              		.loc 1 2080 0
 9511 30d2 2D4B     		ldr	r3, .L729+4
 9512 30d4 0422     		movs	r2, #4
 9513 30d6 83F85A20 		strb	r2, [r3, #90]
2081:.\main.c      ****                                         break;
 9514              		.loc 1 2081 0
 9515 30da 08E0     		b	.L509
 9516              	.L507:
ARM GAS  C:\Users\RECEPC~1\AppData\Local\Temp\ccIpe7td.s 			page 208


2082:.\main.c      ****                                         case '3':
2083:.\main.c      ****                                         lado2.grado[2][0]=4;                                       
 9517              		.loc 1 2083 0
 9518 30dc 2A4B     		ldr	r3, .L729+4
 9519 30de 0422     		movs	r2, #4
 9520 30e0 83F85B20 		strb	r2, [r3, #91]
2084:.\main.c      ****                                         break;
 9521              		.loc 1 2084 0
 9522 30e4 03E0     		b	.L509
 9523              	.L692:
2085:.\main.c      ****                                         default:
2086:.\main.c      ****                                         producto4=0;
 9524              		.loc 1 2086 0
 9525 30e6 304B     		ldr	r3, .L729+36
 9526 30e8 0022     		movs	r2, #0
 9527 30ea 1A70     		strb	r2, [r3]
2087:.\main.c      ****                                         break;                                      
 9528              		.loc 1 2087 0
 9529 30ec 00BF     		nop
 9530              	.L509:
2088:.\main.c      ****                                     }                                      
2089:.\main.c      ****                                 break;                                    
 9531              		.loc 1 2089 0
 9532 30ee 00BF     		nop
 9533              	.L484:
2090:.\main.c      ****                             }
2091:.\main.c      ****                             write_LCD(1,Productos[0], 7, 44, 1);
 9534              		.loc 1 2091 0
 9535 30f0 294B     		ldr	r3, .L729+20
 9536 30f2 1A78     		ldrb	r2, [r3]	@ zero_extendqisi2
 9537 30f4 0123     		movs	r3, #1
 9538 30f6 0093     		str	r3, [sp]
 9539 30f8 0120     		movs	r0, #1
 9540 30fa 1146     		mov	r1, r2
 9541 30fc 0722     		movs	r2, #7
 9542 30fe 2C23     		movs	r3, #44
 9543 3100 FFF7FEFF 		bl	write_LCD
2092:.\main.c      ****                             write_LCD(1,Productos[1], 14, 44, 1); 
 9544              		.loc 1 2092 0
 9545 3104 244B     		ldr	r3, .L729+20
 9546 3106 5A78     		ldrb	r2, [r3, #1]	@ zero_extendqisi2
 9547 3108 0123     		movs	r3, #1
 9548 310a 0093     		str	r3, [sp]
 9549 310c 0120     		movs	r0, #1
 9550 310e 1146     		mov	r1, r2
 9551 3110 0E22     		movs	r2, #14
 9552 3112 2C23     		movs	r3, #44
 9553 3114 FFF7FEFF 		bl	write_LCD
2093:.\main.c      ****                             write_LCD(1,Productos[2], 19, 44, 1);
 9554              		.loc 1 2093 0
 9555 3118 1F4B     		ldr	r3, .L729+20
 9556 311a 9A78     		ldrb	r2, [r3, #2]	@ zero_extendqisi2
 9557 311c 0123     		movs	r3, #1
 9558 311e 0093     		str	r3, [sp]
 9559 3120 0120     		movs	r0, #1
 9560 3122 1146     		mov	r1, r2
 9561 3124 1322     		movs	r2, #19
ARM GAS  C:\Users\RECEPC~1\AppData\Local\Temp\ccIpe7td.s 			page 209


 9562 3126 2C23     		movs	r3, #44
 9563 3128 FFF7FEFF 		bl	write_LCD
2094:.\main.c      ****                             write_LCD(1,Productos[3], 25, 44, 1); 
 9564              		.loc 1 2094 0
 9565 312c 1A4B     		ldr	r3, .L729+20
 9566 312e DA78     		ldrb	r2, [r3, #3]	@ zero_extendqisi2
 9567 3130 0123     		movs	r3, #1
 9568 3132 0093     		str	r3, [sp]
 9569 3134 0120     		movs	r0, #1
 9570 3136 1146     		mov	r1, r2
 9571 3138 1922     		movs	r2, #25
 9572 313a 2C23     		movs	r3, #44
 9573 313c FFF7FEFF 		bl	write_LCD
2095:.\main.c      **** 							lado1.estado=libre;                                 
 9574              		.loc 1 2095 0
 9575 3140 1A4B     		ldr	r3, .L729+40
 9576 3142 0122     		movs	r2, #1
 9577 3144 5A70     		strb	r2, [r3, #1]
2096:.\main.c      ****                             CyDelay(200);                             
 9578              		.loc 1 2096 0
 9579 3146 C820     		movs	r0, #200
 9580 3148 FFF7FEFF 		bl	CyDelay
2097:.\main.c      ****                         break;          
 9581              		.loc 1 2097 0
 9582 314c C8E0     		b	.L433
 9583              	.L458:
2098:.\main.c      ****                         case 8:
2099:.\main.c      ****                             for(x=1;x<=4;x++){
 9584              		.loc 1 2099 0
 9585 314e 0123     		movs	r3, #1
 9586 3150 87F82F30 		strb	r3, [r7, #47]
 9587 3154 09E0     		b	.L510
 9588              	.L511:
2100:.\main.c      ****                               id_estacion[x]=0;
 9589              		.loc 1 2100 0 discriminator 3
 9590 3156 97F82F30 		ldrb	r3, [r7, #47]	@ zero_extendqisi2
 9591 315a 154A     		ldr	r2, .L729+44
 9592 315c 0021     		movs	r1, #0
 9593 315e D154     		strb	r1, [r2, r3]
2099:.\main.c      ****                               id_estacion[x]=0;
 9594              		.loc 1 2099 0 discriminator 3
 9595 3160 97F82F30 		ldrb	r3, [r7, #47]	@ zero_extendqisi2
 9596 3164 0133     		adds	r3, r3, #1
 9597 3166 87F82F30 		strb	r3, [r7, #47]
 9598              	.L510:
2099:.\main.c      ****                               id_estacion[x]=0;
 9599              		.loc 1 2099 0 is_stmt 0 discriminator 1
 9600 316a 97F82F30 		ldrb	r3, [r7, #47]	@ zero_extendqisi2
 9601 316e 042B     		cmp	r3, #4
 9602 3170 F1D9     		bls	.L511
2101:.\main.c      ****                             }
2102:.\main.c      ****                             id_estacion[0]=4;
 9603              		.loc 1 2102 0 is_stmt 1
 9604 3172 0F4B     		ldr	r3, .L729+44
 9605 3174 0422     		movs	r2, #4
 9606 3176 1A70     		strb	r2, [r3]
2103:.\main.c      **** 							for(x=count_teclas1;x>=1;x--){
ARM GAS  C:\Users\RECEPC~1\AppData\Local\Temp\ccIpe7td.s 			page 210


 9607              		.loc 1 2103 0
 9608 3178 044B     		ldr	r3, .L729+8
 9609 317a 1B78     		ldrb	r3, [r3]
 9610 317c 87F82F30 		strb	r3, [r7, #47]
 9611 3180 2EE0     		b	.L512
 9612              	.L730:
 9613 3182 00BF     		.align	2
 9614              	.L729:
 9615 3184 00000000 		.word	flujo_LCD1
 9616 3188 00000000 		.word	lado2
 9617 318c 00000000 		.word	count_teclas1
 9618 3190 00000000 		.word	Buffer_LCD1
 9619 3194 00000000 		.word	Producto
 9620 3198 00000000 		.word	Productos
 9621 319c 00000000 		.word	producto1
 9622 31a0 00000000 		.word	producto2
 9623 31a4 00000000 		.word	producto3
 9624 31a8 00000000 		.word	producto4
 9625 31ac 00000000 		.word	lado1
 9626 31b0 00000000 		.word	id_estacion
 9627              	.L513:
2104:.\main.c      **** 								id_estacion[x]=Buffer_LCD1[(count_teclas1-x)+1]+0X30;
 9628              		.loc 1 2104 0 discriminator 3
 9629 31b4 97F82F30 		ldrb	r3, [r7, #47]	@ zero_extendqisi2
 9630 31b8 884A     		ldr	r2, .L731
 9631 31ba 1278     		ldrb	r2, [r2]
 9632 31bc D2B2     		uxtb	r2, r2
 9633 31be 1146     		mov	r1, r2
 9634 31c0 97F82F20 		ldrb	r2, [r7, #47]	@ zero_extendqisi2
 9635 31c4 8A1A     		subs	r2, r1, r2
 9636 31c6 0132     		adds	r2, r2, #1
 9637 31c8 8549     		ldr	r1, .L731+4
 9638 31ca 8A5C     		ldrb	r2, [r1, r2]
 9639 31cc D2B2     		uxtb	r2, r2
 9640 31ce 3032     		adds	r2, r2, #48
 9641 31d0 D1B2     		uxtb	r1, r2
 9642 31d2 844A     		ldr	r2, .L731+8
 9643 31d4 D154     		strb	r1, [r2, r3]
2103:.\main.c      **** 							for(x=count_teclas1;x>=1;x--){
 9644              		.loc 1 2103 0 discriminator 3
 9645 31d6 97F82F30 		ldrb	r3, [r7, #47]	@ zero_extendqisi2
 9646 31da 013B     		subs	r3, r3, #1
 9647 31dc 87F82F30 		strb	r3, [r7, #47]
 9648              	.L512:
2103:.\main.c      **** 							for(x=count_teclas1;x>=1;x--){
 9649              		.loc 1 2103 0 is_stmt 0 discriminator 1
 9650 31e0 97F82F30 		ldrb	r3, [r7, #47]	@ zero_extendqisi2
 9651 31e4 002B     		cmp	r3, #0
 9652 31e6 E5D1     		bne	.L513
2105:.\main.c      **** 							}                            
2106:.\main.c      ****                             if(id_estacion[1]>=0x30 && id_estacion[2]<0x30 && id_estacion[3]<0x30 &
 9653              		.loc 1 2106 0 is_stmt 1
 9654 31e8 7E4B     		ldr	r3, .L731+8
 9655 31ea 5B78     		ldrb	r3, [r3, #1]
 9656 31ec DBB2     		uxtb	r3, r3
 9657 31ee 2F2B     		cmp	r3, #47
 9658 31f0 17D9     		bls	.L514
ARM GAS  C:\Users\RECEPC~1\AppData\Local\Temp\ccIpe7td.s 			page 211


 9659              		.loc 1 2106 0 is_stmt 0 discriminator 1
 9660 31f2 7C4B     		ldr	r3, .L731+8
 9661 31f4 9B78     		ldrb	r3, [r3, #2]
 9662 31f6 DBB2     		uxtb	r3, r3
 9663 31f8 2F2B     		cmp	r3, #47
 9664 31fa 12D8     		bhi	.L514
 9665              		.loc 1 2106 0 discriminator 2
 9666 31fc 794B     		ldr	r3, .L731+8
 9667 31fe DB78     		ldrb	r3, [r3, #3]
 9668 3200 DBB2     		uxtb	r3, r3
 9669 3202 2F2B     		cmp	r3, #47
 9670 3204 0DD8     		bhi	.L514
 9671              		.loc 1 2106 0 discriminator 3
 9672 3206 774B     		ldr	r3, .L731+8
 9673 3208 1B79     		ldrb	r3, [r3, #4]
 9674 320a DBB2     		uxtb	r3, r3
 9675 320c 2F2B     		cmp	r3, #47
 9676 320e 08D8     		bhi	.L514
2107:.\main.c      ****                                 id_estacion[2]='0';
 9677              		.loc 1 2107 0 is_stmt 1
 9678 3210 744B     		ldr	r3, .L731+8
 9679 3212 3022     		movs	r2, #48
 9680 3214 9A70     		strb	r2, [r3, #2]
2108:.\main.c      ****                                 id_estacion[3]='0';
 9681              		.loc 1 2108 0
 9682 3216 734B     		ldr	r3, .L731+8
 9683 3218 3022     		movs	r2, #48
 9684 321a DA70     		strb	r2, [r3, #3]
2109:.\main.c      ****                                 id_estacion[4]='0';                                
 9685              		.loc 1 2109 0
 9686 321c 714B     		ldr	r3, .L731+8
 9687 321e 3022     		movs	r2, #48
 9688 3220 1A71     		strb	r2, [r3, #4]
 9689              	.L514:
2110:.\main.c      ****                             }
2111:.\main.c      ****                             if(id_estacion[1]>=0x30 && id_estacion[2]>=0x30 && id_estacion[3]<0x30 
 9690              		.loc 1 2111 0
 9691 3222 704B     		ldr	r3, .L731+8
 9692 3224 5B78     		ldrb	r3, [r3, #1]
 9693 3226 DBB2     		uxtb	r3, r3
 9694 3228 2F2B     		cmp	r3, #47
 9695 322a 14D9     		bls	.L515
 9696              		.loc 1 2111 0 is_stmt 0 discriminator 1
 9697 322c 6D4B     		ldr	r3, .L731+8
 9698 322e 9B78     		ldrb	r3, [r3, #2]
 9699 3230 DBB2     		uxtb	r3, r3
 9700 3232 2F2B     		cmp	r3, #47
 9701 3234 0FD9     		bls	.L515
 9702              		.loc 1 2111 0 discriminator 2
 9703 3236 6B4B     		ldr	r3, .L731+8
 9704 3238 DB78     		ldrb	r3, [r3, #3]
 9705 323a DBB2     		uxtb	r3, r3
 9706 323c 2F2B     		cmp	r3, #47
 9707 323e 0AD8     		bhi	.L515
 9708              		.loc 1 2111 0 discriminator 3
 9709 3240 684B     		ldr	r3, .L731+8
 9710 3242 1B79     		ldrb	r3, [r3, #4]
ARM GAS  C:\Users\RECEPC~1\AppData\Local\Temp\ccIpe7td.s 			page 212


 9711 3244 DBB2     		uxtb	r3, r3
 9712 3246 2F2B     		cmp	r3, #47
 9713 3248 05D8     		bhi	.L515
2112:.\main.c      ****                                 id_estacion[3]='0';
 9714              		.loc 1 2112 0 is_stmt 1
 9715 324a 664B     		ldr	r3, .L731+8
 9716 324c 3022     		movs	r2, #48
 9717 324e DA70     		strb	r2, [r3, #3]
2113:.\main.c      ****                                 id_estacion[4]='0';                             
 9718              		.loc 1 2113 0
 9719 3250 644B     		ldr	r3, .L731+8
 9720 3252 3022     		movs	r2, #48
 9721 3254 1A71     		strb	r2, [r3, #4]
 9722              	.L515:
2114:.\main.c      ****                             }  
2115:.\main.c      ****                             if(id_estacion[1]>=0x30 && id_estacion[2]>=0x30 && id_estacion[3]>=0x30
 9723              		.loc 1 2115 0
 9724 3256 634B     		ldr	r3, .L731+8
 9725 3258 5B78     		ldrb	r3, [r3, #1]
 9726 325a DBB2     		uxtb	r3, r3
 9727 325c 2F2B     		cmp	r3, #47
 9728 325e 11D9     		bls	.L516
 9729              		.loc 1 2115 0 is_stmt 0 discriminator 1
 9730 3260 604B     		ldr	r3, .L731+8
 9731 3262 9B78     		ldrb	r3, [r3, #2]
 9732 3264 DBB2     		uxtb	r3, r3
 9733 3266 2F2B     		cmp	r3, #47
 9734 3268 0CD9     		bls	.L516
 9735              		.loc 1 2115 0 discriminator 2
 9736 326a 5E4B     		ldr	r3, .L731+8
 9737 326c DB78     		ldrb	r3, [r3, #3]
 9738 326e DBB2     		uxtb	r3, r3
 9739 3270 2F2B     		cmp	r3, #47
 9740 3272 07D9     		bls	.L516
 9741              		.loc 1 2115 0 discriminator 3
 9742 3274 5B4B     		ldr	r3, .L731+8
 9743 3276 1B79     		ldrb	r3, [r3, #4]
 9744 3278 DBB2     		uxtb	r3, r3
 9745 327a 2F2B     		cmp	r3, #47
 9746 327c 02D8     		bhi	.L516
2116:.\main.c      ****                                 id_estacion[4]='0';                              
 9747              		.loc 1 2116 0 is_stmt 1
 9748 327e 594B     		ldr	r3, .L731+8
 9749 3280 3022     		movs	r2, #48
 9750 3282 1A71     		strb	r2, [r3, #4]
 9751              	.L516:
2117:.\main.c      ****                             }
2118:.\main.c      ****                     		for(x=8;x<=12;x++){	
 9752              		.loc 1 2118 0
 9753 3284 0823     		movs	r3, #8
 9754 3286 87F82F30 		strb	r3, [r7, #47]
 9755 328a 11E0     		b	.L517
 9756              	.L518:
2119:.\main.c      ****                     			EEPROM_WriteByte(id_estacion[x-8], x);
 9757              		.loc 1 2119 0 discriminator 3
 9758 328c 97F82F30 		ldrb	r3, [r7, #47]	@ zero_extendqisi2
 9759 3290 083B     		subs	r3, r3, #8
ARM GAS  C:\Users\RECEPC~1\AppData\Local\Temp\ccIpe7td.s 			page 213


 9760 3292 544A     		ldr	r2, .L731+8
 9761 3294 D35C     		ldrb	r3, [r2, r3]
 9762 3296 DAB2     		uxtb	r2, r3
 9763 3298 97F82F30 		ldrb	r3, [r7, #47]	@ zero_extendqisi2
 9764 329c 9BB2     		uxth	r3, r3
 9765 329e 1046     		mov	r0, r2
 9766 32a0 1946     		mov	r1, r3
 9767 32a2 FFF7FEFF 		bl	EEPROM_WriteByte
2118:.\main.c      ****                     			EEPROM_WriteByte(id_estacion[x-8], x);
 9768              		.loc 1 2118 0 discriminator 3
 9769 32a6 97F82F30 		ldrb	r3, [r7, #47]	@ zero_extendqisi2
 9770 32aa 0133     		adds	r3, r3, #1
 9771 32ac 87F82F30 		strb	r3, [r7, #47]
 9772              	.L517:
2118:.\main.c      ****                     			EEPROM_WriteByte(id_estacion[x-8], x);
 9773              		.loc 1 2118 0 is_stmt 0 discriminator 1
 9774 32b0 97F82F30 		ldrb	r3, [r7, #47]	@ zero_extendqisi2
 9775 32b4 0C2B     		cmp	r3, #12
 9776 32b6 E9D9     		bls	.L518
2120:.\main.c      ****                     		}   
2121:.\main.c      ****                         	flujo_LCD1 = 12;	//viejo: 0
 9777              		.loc 1 2121 0 is_stmt 1
 9778 32b8 4B4B     		ldr	r3, .L731+12
 9779 32ba 0C22     		movs	r2, #12
 9780 32bc 1A70     		strb	r2, [r3]
2122:.\main.c      ****                             id_teclado1 = 2;
 9781              		.loc 1 2122 0
 9782 32be 4B4B     		ldr	r3, .L731+16
 9783 32c0 0222     		movs	r2, #2
 9784 32c2 1A70     		strb	r2, [r3]
2123:.\main.c      ****                         	set_imagen(1,14); //viejo: 60
 9785              		.loc 1 2123 0
 9786 32c4 0120     		movs	r0, #1
 9787 32c6 0E21     		movs	r1, #14
 9788 32c8 FFF7FEFF 		bl	set_imagen
2124:.\main.c      ****                             CyDelay(200);
 9789              		.loc 1 2124 0
 9790 32cc C820     		movs	r0, #200
 9791 32ce FFF7FEFF 		bl	CyDelay
2125:.\main.c      ****                             count_teclas1 = 0;
 9792              		.loc 1 2125 0
 9793 32d2 424B     		ldr	r3, .L731
 9794 32d4 0022     		movs	r2, #0
 9795 32d6 1A70     		strb	r2, [r3]
2126:.\main.c      **** 							lado2.estado=libre;                                    
 9796              		.loc 1 2126 0
 9797 32d8 454B     		ldr	r3, .L731+20
 9798 32da 0122     		movs	r2, #1
 9799 32dc 5A70     		strb	r2, [r3, #1]
2127:.\main.c      ****                         break;
 9800              		.loc 1 2127 0
 9801 32de 00BF     		nop
 9802              	.L433:
2128:.\main.c      **** 					}					
2129:.\main.c      ****                 }
2130:.\main.c      ****             }                      
2131:.\main.c      ****             LCD_1_ClearRxBuffer();
ARM GAS  C:\Users\RECEPC~1\AppData\Local\Temp\ccIpe7td.s 			page 214


 9803              		.loc 1 2131 0
 9804 32e0 FFF7FEFF 		bl	LCD_1_ClearRxBuffer
2132:.\main.c      ****          }
2133:.\main.c      ****         }
2134:.\main.c      ****         
2135:.\main.c      ****         break;	
 9805              		.loc 1 2135 0
 9806 32e4 01F09CBD 		b	.L131
 9807              	.L432:
 9808              		.loc 1 2135 0 is_stmt 0 discriminator 12
 9809 32e8 01F09ABD 		b	.L131
 9810              	.L145:
2136:.\main.c      ****             
2137:.\main.c      ****         case 13:  
2138:.\main.c      ****         if(seleccion_pos == 1){
 9811              		.loc 1 2138 0 is_stmt 1
 9812 32ec 414B     		ldr	r3, .L731+24
 9813 32ee 1B78     		ldrb	r3, [r3]
 9814 32f0 DBB2     		uxtb	r3, r3
 9815 32f2 012B     		cmp	r3, #1
 9816 32f4 40F0D182 		bne	.L519
2139:.\main.c      **** 			rf_mod[0]='M';
 9817              		.loc 1 2139 0
 9818 32f8 3F4B     		ldr	r3, .L731+28
 9819 32fa 4D22     		movs	r2, #77
 9820 32fc 1A70     		strb	r2, [r3]
2140:.\main.c      **** 			rf_mod[1]='U';
 9821              		.loc 1 2140 0
 9822 32fe 3E4B     		ldr	r3, .L731+28
 9823 3300 5522     		movs	r2, #85
 9824 3302 5A70     		strb	r2, [r3, #1]
2141:.\main.c      **** 			rf_mod[2]='X';
 9825              		.loc 1 2141 0
 9826 3304 3C4B     		ldr	r3, .L731+28
 9827 3306 5822     		movs	r2, #88
 9828 3308 9A70     		strb	r2, [r3, #2]
2142:.\main.c      **** 			rf_mod[3]='1';
 9829              		.loc 1 2142 0
 9830 330a 3B4B     		ldr	r3, .L731+28
 9831 330c 3122     		movs	r2, #49
 9832 330e DA70     		strb	r2, [r3, #3]
2143:.\main.c      **** 			rf_mod[4]=1 + 48;								//Cara
 9833              		.loc 1 2143 0
 9834 3310 394B     		ldr	r3, .L731+28
 9835 3312 3122     		movs	r2, #49
 9836 3314 1A71     		strb	r2, [r3, #4]
2144:.\main.c      **** 			rf_mod[5]=(lado1.grado[rventa1.producto-1][0] + 48);	//Id Producto	
 9837              		.loc 1 2144 0
 9838 3316 394B     		ldr	r3, .L731+32
 9839 3318 5B7E     		ldrb	r3, [r3, #25]	@ zero_extendqisi2
 9840 331a 013B     		subs	r3, r3, #1
 9841 331c 384A     		ldr	r2, .L731+36
 9842 331e 1344     		add	r3, r3, r2
 9843 3320 93F85930 		ldrb	r3, [r3, #89]
 9844 3324 DBB2     		uxtb	r3, r3
 9845 3326 3033     		adds	r3, r3, #48
 9846 3328 DAB2     		uxtb	r2, r3
ARM GAS  C:\Users\RECEPC~1\AppData\Local\Temp\ccIpe7td.s 			page 215


 9847 332a 334B     		ldr	r3, .L731+28
 9848 332c 5A71     		strb	r2, [r3, #5]
2145:.\main.c      **** 			rf_mod[6]=rventa1.volumen[5] + 48;						//Volumen
 9849              		.loc 1 2145 0
 9850 332e 334B     		ldr	r3, .L731+32
 9851 3330 5B7D     		ldrb	r3, [r3, #21]	@ zero_extendqisi2
 9852 3332 3033     		adds	r3, r3, #48
 9853 3334 DAB2     		uxtb	r2, r3
 9854 3336 304B     		ldr	r3, .L731+28
 9855 3338 9A71     		strb	r2, [r3, #6]
2146:.\main.c      **** 			rf_mod[7]=rventa1.volumen[4] + 48;
 9856              		.loc 1 2146 0
 9857 333a 304B     		ldr	r3, .L731+32
 9858 333c 1B7D     		ldrb	r3, [r3, #20]	@ zero_extendqisi2
 9859 333e 3033     		adds	r3, r3, #48
 9860 3340 DAB2     		uxtb	r2, r3
 9861 3342 2D4B     		ldr	r3, .L731+28
 9862 3344 DA71     		strb	r2, [r3, #7]
2147:.\main.c      **** 			rf_mod[8]=rventa1.volumen[3] + 48;
 9863              		.loc 1 2147 0
 9864 3346 2D4B     		ldr	r3, .L731+32
 9865 3348 DB7C     		ldrb	r3, [r3, #19]	@ zero_extendqisi2
 9866 334a 3033     		adds	r3, r3, #48
 9867 334c DAB2     		uxtb	r2, r3
 9868 334e 2A4B     		ldr	r3, .L731+28
 9869 3350 1A72     		strb	r2, [r3, #8]
2148:.\main.c      **** 			rf_mod[9]=',';
 9870              		.loc 1 2148 0
 9871 3352 294B     		ldr	r3, .L731+28
 9872 3354 2C22     		movs	r2, #44
 9873 3356 5A72     		strb	r2, [r3, #9]
2149:.\main.c      **** 			rf_mod[10]=rventa1.volumen[2] + 48;
 9874              		.loc 1 2149 0
 9875 3358 284B     		ldr	r3, .L731+32
 9876 335a 9B7C     		ldrb	r3, [r3, #18]	@ zero_extendqisi2
 9877 335c 3033     		adds	r3, r3, #48
 9878 335e DAB2     		uxtb	r2, r3
 9879 3360 254B     		ldr	r3, .L731+28
 9880 3362 9A72     		strb	r2, [r3, #10]
2150:.\main.c      **** 			rf_mod[11]=rventa1.volumen[1] + 48;
 9881              		.loc 1 2150 0
 9882 3364 254B     		ldr	r3, .L731+32
 9883 3366 5B7C     		ldrb	r3, [r3, #17]	@ zero_extendqisi2
 9884 3368 3033     		adds	r3, r3, #48
 9885 336a DAB2     		uxtb	r2, r3
 9886 336c 224B     		ldr	r3, .L731+28
 9887 336e DA72     		strb	r2, [r3, #11]
2151:.\main.c      **** 			rf_mod[12]=rventa1.volumen[0] + 48;
 9888              		.loc 1 2151 0
 9889 3370 224B     		ldr	r3, .L731+32
 9890 3372 1B7C     		ldrb	r3, [r3, #16]	@ zero_extendqisi2
 9891 3374 3033     		adds	r3, r3, #48
 9892 3376 DAB2     		uxtb	r2, r3
 9893 3378 1F4B     		ldr	r3, .L731+28
 9894 337a 1A73     		strb	r2, [r3, #12]
2152:.\main.c      **** 			if(version[1]==7){
 9895              		.loc 1 2152 0
ARM GAS  C:\Users\RECEPC~1\AppData\Local\Temp\ccIpe7td.s 			page 216


 9896 337c 214B     		ldr	r3, .L731+40
 9897 337e 5B78     		ldrb	r3, [r3, #1]
 9898 3380 DBB2     		uxtb	r3, r3
 9899 3382 072B     		cmp	r3, #7
 9900 3384 40D1     		bne	.L520
2153:.\main.c      **** 				rf_mod[13]=rventa1.dinero[7] + 48;	//Dinero 7 digitos
 9901              		.loc 1 2153 0
 9902 3386 1D4B     		ldr	r3, .L731+32
 9903 3388 9B7B     		ldrb	r3, [r3, #14]	@ zero_extendqisi2
 9904 338a 3033     		adds	r3, r3, #48
 9905 338c DAB2     		uxtb	r2, r3
 9906 338e 1A4B     		ldr	r3, .L731+28
 9907 3390 5A73     		strb	r2, [r3, #13]
2154:.\main.c      **** 				rf_mod[14]=rventa1.dinero[6] + 48;
 9908              		.loc 1 2154 0
 9909 3392 1A4B     		ldr	r3, .L731+32
 9910 3394 5B7B     		ldrb	r3, [r3, #13]	@ zero_extendqisi2
 9911 3396 3033     		adds	r3, r3, #48
 9912 3398 DAB2     		uxtb	r2, r3
 9913 339a 174B     		ldr	r3, .L731+28
 9914 339c 9A73     		strb	r2, [r3, #14]
2155:.\main.c      **** 				rf_mod[15]=rventa1.dinero[5] + 48;
 9915              		.loc 1 2155 0
 9916 339e 174B     		ldr	r3, .L731+32
 9917 33a0 1B7B     		ldrb	r3, [r3, #12]	@ zero_extendqisi2
 9918 33a2 3033     		adds	r3, r3, #48
 9919 33a4 DAB2     		uxtb	r2, r3
 9920 33a6 144B     		ldr	r3, .L731+28
 9921 33a8 DA73     		strb	r2, [r3, #15]
2156:.\main.c      **** 				rf_mod[16]=rventa1.dinero[4] + 48;
 9922              		.loc 1 2156 0
 9923 33aa 144B     		ldr	r3, .L731+32
 9924 33ac DB7A     		ldrb	r3, [r3, #11]	@ zero_extendqisi2
 9925 33ae 3033     		adds	r3, r3, #48
 9926 33b0 DAB2     		uxtb	r2, r3
 9927 33b2 114B     		ldr	r3, .L731+28
 9928 33b4 1A74     		strb	r2, [r3, #16]
2157:.\main.c      **** 				rf_mod[17]=rventa1.dinero[3] + 48;
 9929              		.loc 1 2157 0
 9930 33b6 114B     		ldr	r3, .L731+32
 9931 33b8 9B7A     		ldrb	r3, [r3, #10]	@ zero_extendqisi2
 9932 33ba 3033     		adds	r3, r3, #48
 9933 33bc DAB2     		uxtb	r2, r3
 9934 33be 0E4B     		ldr	r3, .L731+28
 9935 33c0 5A74     		strb	r2, [r3, #17]
2158:.\main.c      **** 				rf_mod[18]=rventa1.dinero[2] + 48;
 9936              		.loc 1 2158 0
 9937 33c2 0E4B     		ldr	r3, .L731+32
 9938 33c4 5B7A     		ldrb	r3, [r3, #9]	@ zero_extendqisi2
 9939 33c6 3033     		adds	r3, r3, #48
 9940 33c8 DAB2     		uxtb	r2, r3
 9941 33ca 0B4B     		ldr	r3, .L731+28
 9942 33cc 9A74     		strb	r2, [r3, #18]
2159:.\main.c      **** 				rf_mod[19]=rventa1.dinero[1] + 48;					
 9943              		.loc 1 2159 0
 9944 33ce 0B4B     		ldr	r3, .L731+32
 9945 33d0 1B7A     		ldrb	r3, [r3, #8]	@ zero_extendqisi2
ARM GAS  C:\Users\RECEPC~1\AppData\Local\Temp\ccIpe7td.s 			page 217


 9946 33d2 3033     		adds	r3, r3, #48
 9947 33d4 DAB2     		uxtb	r2, r3
 9948 33d6 084B     		ldr	r3, .L731+28
 9949 33d8 DA74     		strb	r2, [r3, #19]
 9950 33da 3FE0     		b	.L521
 9951              	.L732:
 9952              		.align	2
 9953              	.L731:
 9954 33dc 00000000 		.word	count_teclas1
 9955 33e0 00000000 		.word	Buffer_LCD1
 9956 33e4 00000000 		.word	id_estacion
 9957 33e8 00000000 		.word	flujo_LCD1
 9958 33ec 00000000 		.word	id_teclado1
 9959 33f0 00000000 		.word	lado2
 9960 33f4 00000000 		.word	seleccion_pos
 9961 33f8 00000000 		.word	rf_mod
 9962 33fc 00000000 		.word	rventa1
 9963 3400 00000000 		.word	lado1
 9964 3404 00000000 		.word	version
 9965              	.L520:
2160:.\main.c      **** 			}
2161:.\main.c      **** 			else{
2162:.\main.c      **** 				rf_mod[13]=rventa1.dinero[6] + 48;	//Dinero 6 digitos 
 9966              		.loc 1 2162 0
 9967 3408 664B     		ldr	r3, .L733
 9968 340a 5B7B     		ldrb	r3, [r3, #13]	@ zero_extendqisi2
 9969 340c 3033     		adds	r3, r3, #48
 9970 340e DAB2     		uxtb	r2, r3
 9971 3410 654B     		ldr	r3, .L733+4
 9972 3412 5A73     		strb	r2, [r3, #13]
2163:.\main.c      **** 				rf_mod[14]=rventa1.dinero[5] + 48;
 9973              		.loc 1 2163 0
 9974 3414 634B     		ldr	r3, .L733
 9975 3416 1B7B     		ldrb	r3, [r3, #12]	@ zero_extendqisi2
 9976 3418 3033     		adds	r3, r3, #48
 9977 341a DAB2     		uxtb	r2, r3
 9978 341c 624B     		ldr	r3, .L733+4
 9979 341e 9A73     		strb	r2, [r3, #14]
2164:.\main.c      **** 				rf_mod[15]=rventa1.dinero[4] + 48;
 9980              		.loc 1 2164 0
 9981 3420 604B     		ldr	r3, .L733
 9982 3422 DB7A     		ldrb	r3, [r3, #11]	@ zero_extendqisi2
 9983 3424 3033     		adds	r3, r3, #48
 9984 3426 DAB2     		uxtb	r2, r3
 9985 3428 5F4B     		ldr	r3, .L733+4
 9986 342a DA73     		strb	r2, [r3, #15]
2165:.\main.c      **** 				rf_mod[16]=rventa1.dinero[3] + 48;
 9987              		.loc 1 2165 0
 9988 342c 5D4B     		ldr	r3, .L733
 9989 342e 9B7A     		ldrb	r3, [r3, #10]	@ zero_extendqisi2
 9990 3430 3033     		adds	r3, r3, #48
 9991 3432 DAB2     		uxtb	r2, r3
 9992 3434 5C4B     		ldr	r3, .L733+4
 9993 3436 1A74     		strb	r2, [r3, #16]
2166:.\main.c      **** 				rf_mod[17]=rventa1.dinero[2] + 48;
 9994              		.loc 1 2166 0
 9995 3438 5A4B     		ldr	r3, .L733
ARM GAS  C:\Users\RECEPC~1\AppData\Local\Temp\ccIpe7td.s 			page 218


 9996 343a 5B7A     		ldrb	r3, [r3, #9]	@ zero_extendqisi2
 9997 343c 3033     		adds	r3, r3, #48
 9998 343e DAB2     		uxtb	r2, r3
 9999 3440 594B     		ldr	r3, .L733+4
 10000 3442 5A74     		strb	r2, [r3, #17]
2167:.\main.c      **** 				rf_mod[18]=rventa1.dinero[1] + 48;					
 10001              		.loc 1 2167 0
 10002 3444 574B     		ldr	r3, .L733
 10003 3446 1B7A     		ldrb	r3, [r3, #8]	@ zero_extendqisi2
 10004 3448 3033     		adds	r3, r3, #48
 10005 344a DAB2     		uxtb	r2, r3
 10006 344c 564B     		ldr	r3, .L733+4
 10007 344e 9A74     		strb	r2, [r3, #18]
2168:.\main.c      **** 				rf_mod[19]=rventa1.dinero[0] + 48;
 10008              		.loc 1 2168 0
 10009 3450 544B     		ldr	r3, .L733
 10010 3452 DB79     		ldrb	r3, [r3, #7]	@ zero_extendqisi2
 10011 3454 3033     		adds	r3, r3, #48
 10012 3456 DAB2     		uxtb	r2, r3
 10013 3458 534B     		ldr	r3, .L733+4
 10014 345a DA74     		strb	r2, [r3, #19]
 10015              	.L521:
2169:.\main.c      **** 			}
2170:.\main.c      ****             if(ppux10==0){
 10016              		.loc 1 2170 0
 10017 345c 534B     		ldr	r3, .L733+8
 10018 345e 1B78     		ldrb	r3, [r3]
 10019 3460 DBB2     		uxtb	r3, r3
 10020 3462 002B     		cmp	r3, #0
 10021 3464 1DD1     		bne	.L522
2171:.\main.c      ****     			rf_mod[20]=rventa1.ppu[4] + 48;			//PPU
 10022              		.loc 1 2171 0
 10023 3466 4F4B     		ldr	r3, .L733
 10024 3468 9B79     		ldrb	r3, [r3, #6]	@ zero_extendqisi2
 10025 346a 3033     		adds	r3, r3, #48
 10026 346c DAB2     		uxtb	r2, r3
 10027 346e 4E4B     		ldr	r3, .L733+4
 10028 3470 1A75     		strb	r2, [r3, #20]
2172:.\main.c      ****     			rf_mod[21]=rventa1.ppu[3] + 48;
 10029              		.loc 1 2172 0
 10030 3472 4C4B     		ldr	r3, .L733
 10031 3474 5B79     		ldrb	r3, [r3, #5]	@ zero_extendqisi2
 10032 3476 3033     		adds	r3, r3, #48
 10033 3478 DAB2     		uxtb	r2, r3
 10034 347a 4B4B     		ldr	r3, .L733+4
 10035 347c 5A75     		strb	r2, [r3, #21]
2173:.\main.c      ****     			rf_mod[22]=rventa1.ppu[2] + 48;
 10036              		.loc 1 2173 0
 10037 347e 494B     		ldr	r3, .L733
 10038 3480 1B79     		ldrb	r3, [r3, #4]	@ zero_extendqisi2
 10039 3482 3033     		adds	r3, r3, #48
 10040 3484 DAB2     		uxtb	r2, r3
 10041 3486 484B     		ldr	r3, .L733+4
 10042 3488 9A75     		strb	r2, [r3, #22]
2174:.\main.c      ****     			rf_mod[23]=rventa1.ppu[1] + 48;
 10043              		.loc 1 2174 0
 10044 348a 464B     		ldr	r3, .L733
ARM GAS  C:\Users\RECEPC~1\AppData\Local\Temp\ccIpe7td.s 			page 219


 10045 348c DB78     		ldrb	r3, [r3, #3]	@ zero_extendqisi2
 10046 348e 3033     		adds	r3, r3, #48
 10047 3490 DAB2     		uxtb	r2, r3
 10048 3492 454B     		ldr	r3, .L733+4
 10049 3494 DA75     		strb	r2, [r3, #23]
2175:.\main.c      ****     			rf_mod[24]=rventa1.ppu[0] + 48;
 10050              		.loc 1 2175 0
 10051 3496 434B     		ldr	r3, .L733
 10052 3498 9B78     		ldrb	r3, [r3, #2]	@ zero_extendqisi2
 10053 349a 3033     		adds	r3, r3, #48
 10054 349c DAB2     		uxtb	r2, r3
 10055 349e 424B     		ldr	r3, .L733+4
 10056 34a0 1A76     		strb	r2, [r3, #24]
 10057              	.L522:
2176:.\main.c      ****             }
2177:.\main.c      ****             if(ppux10==1){
 10058              		.loc 1 2177 0
 10059 34a2 424B     		ldr	r3, .L733+8
 10060 34a4 1B78     		ldrb	r3, [r3]
 10061 34a6 DBB2     		uxtb	r3, r3
 10062 34a8 012B     		cmp	r3, #1
 10063 34aa 1AD1     		bne	.L523
2178:.\main.c      ****     			rf_mod[20]=rventa1.ppu[3] + 48;			//PPU x10
 10064              		.loc 1 2178 0
 10065 34ac 3D4B     		ldr	r3, .L733
 10066 34ae 5B79     		ldrb	r3, [r3, #5]	@ zero_extendqisi2
 10067 34b0 3033     		adds	r3, r3, #48
 10068 34b2 DAB2     		uxtb	r2, r3
 10069 34b4 3C4B     		ldr	r3, .L733+4
 10070 34b6 1A75     		strb	r2, [r3, #20]
2179:.\main.c      ****     			rf_mod[21]=rventa1.ppu[2] + 48;
 10071              		.loc 1 2179 0
 10072 34b8 3A4B     		ldr	r3, .L733
 10073 34ba 1B79     		ldrb	r3, [r3, #4]	@ zero_extendqisi2
 10074 34bc 3033     		adds	r3, r3, #48
 10075 34be DAB2     		uxtb	r2, r3
 10076 34c0 394B     		ldr	r3, .L733+4
 10077 34c2 5A75     		strb	r2, [r3, #21]
2180:.\main.c      ****     			rf_mod[22]=rventa1.ppu[1] + 48;
 10078              		.loc 1 2180 0
 10079 34c4 374B     		ldr	r3, .L733
 10080 34c6 DB78     		ldrb	r3, [r3, #3]	@ zero_extendqisi2
 10081 34c8 3033     		adds	r3, r3, #48
 10082 34ca DAB2     		uxtb	r2, r3
 10083 34cc 364B     		ldr	r3, .L733+4
 10084 34ce 9A75     		strb	r2, [r3, #22]
2181:.\main.c      ****     			rf_mod[23]=rventa1.ppu[0] + 48;
 10085              		.loc 1 2181 0
 10086 34d0 344B     		ldr	r3, .L733
 10087 34d2 9B78     		ldrb	r3, [r3, #2]	@ zero_extendqisi2
 10088 34d4 3033     		adds	r3, r3, #48
 10089 34d6 DAB2     		uxtb	r2, r3
 10090 34d8 334B     		ldr	r3, .L733+4
 10091 34da DA75     		strb	r2, [r3, #23]
2182:.\main.c      ****     			rf_mod[24]=48;
 10092              		.loc 1 2182 0
 10093 34dc 324B     		ldr	r3, .L733+4
ARM GAS  C:\Users\RECEPC~1\AppData\Local\Temp\ccIpe7td.s 			page 220


 10094 34de 3022     		movs	r2, #48
 10095 34e0 1A76     		strb	r2, [r3, #24]
 10096              	.L523:
2183:.\main.c      ****             }
2184:.\main.c      **** 			rf_mod[25]=id_estacion[4];				//Id Estacion	
 10097              		.loc 1 2184 0
 10098 34e2 334B     		ldr	r3, .L733+12
 10099 34e4 1B79     		ldrb	r3, [r3, #4]
 10100 34e6 DAB2     		uxtb	r2, r3
 10101 34e8 2F4B     		ldr	r3, .L733+4
 10102 34ea 5A76     		strb	r2, [r3, #25]
2185:.\main.c      **** 			rf_mod[26]=id_estacion[3];
 10103              		.loc 1 2185 0
 10104 34ec 304B     		ldr	r3, .L733+12
 10105 34ee DB78     		ldrb	r3, [r3, #3]
 10106 34f0 DAB2     		uxtb	r2, r3
 10107 34f2 2D4B     		ldr	r3, .L733+4
 10108 34f4 9A76     		strb	r2, [r3, #26]
2186:.\main.c      **** 			rf_mod[27]=id_estacion[2];
 10109              		.loc 1 2186 0
 10110 34f6 2E4B     		ldr	r3, .L733+12
 10111 34f8 9B78     		ldrb	r3, [r3, #2]
 10112 34fa DAB2     		uxtb	r2, r3
 10113 34fc 2A4B     		ldr	r3, .L733+4
 10114 34fe DA76     		strb	r2, [r3, #27]
2187:.\main.c      **** 			rf_mod[28]=id_estacion[1];
 10115              		.loc 1 2187 0
 10116 3500 2B4B     		ldr	r3, .L733+12
 10117 3502 5B78     		ldrb	r3, [r3, #1]
 10118 3504 DAB2     		uxtb	r2, r3
 10119 3506 284B     		ldr	r3, .L733+4
 10120 3508 1A77     		strb	r2, [r3, #28]
2188:.\main.c      **** 			
2189:.\main.c      ****             if(tipo_venta == 1){
 10121              		.loc 1 2189 0
 10122 350a 2A4B     		ldr	r3, .L733+16
 10123 350c 1B78     		ldrb	r3, [r3]	@ zero_extendqisi2
 10124 350e 012B     		cmp	r3, #1
 10125 3510 43D1     		bne	.L524
2190:.\main.c      ****                 for(x=0;x<=15;x++){						//Serial				
 10126              		.loc 1 2190 0
 10127 3512 0023     		movs	r3, #0
 10128 3514 87F82F30 		strb	r3, [r7, #47]
 10129 3518 3AE0     		b	.L525
 10130              	.L528:
2191:.\main.c      **** 				    y=(rventa1.id[x/2]>>4)&0x0F;
 10131              		.loc 1 2191 0
 10132 351a 97F82F30 		ldrb	r3, [r7, #47]	@ zero_extendqisi2
 10133 351e 5B08     		lsrs	r3, r3, #1
 10134 3520 DBB2     		uxtb	r3, r3
 10135 3522 1A46     		mov	r2, r3
 10136 3524 1F4B     		ldr	r3, .L733
 10137 3526 1344     		add	r3, r3, r2
 10138 3528 93F82330 		ldrb	r3, [r3, #35]	@ zero_extendqisi2
 10139 352c 1B09     		lsrs	r3, r3, #4
 10140 352e 87F82E30 		strb	r3, [r7, #46]
2192:.\main.c      **** 				    if((x%2)==0){
ARM GAS  C:\Users\RECEPC~1\AppData\Local\Temp\ccIpe7td.s 			page 221


 10141              		.loc 1 2192 0
 10142 3532 97F82F30 		ldrb	r3, [r7, #47]
 10143 3536 03F00103 		and	r3, r3, #1
 10144 353a DBB2     		uxtb	r3, r3
 10145 353c 002B     		cmp	r3, #0
 10146 353e 0CD1     		bne	.L526
2193:.\main.c      **** 					    y=rventa1.id[x/2]&0x0F;
 10147              		.loc 1 2193 0
 10148 3540 97F82F30 		ldrb	r3, [r7, #47]	@ zero_extendqisi2
 10149 3544 5B08     		lsrs	r3, r3, #1
 10150 3546 DBB2     		uxtb	r3, r3
 10151 3548 1A46     		mov	r2, r3
 10152 354a 164B     		ldr	r3, .L733
 10153 354c 1344     		add	r3, r3, r2
 10154 354e 93F82330 		ldrb	r3, [r3, #35]	@ zero_extendqisi2
 10155 3552 03F00F03 		and	r3, r3, #15
 10156 3556 87F82E30 		strb	r3, [r7, #46]
 10157              	.L526:
2194:.\main.c      **** 				    }
2195:.\main.c      **** 				    rf_mod[x+29] = y+48;
 10158              		.loc 1 2195 0
 10159 355a 97F82F30 		ldrb	r3, [r7, #47]	@ zero_extendqisi2
 10160 355e 1D33     		adds	r3, r3, #29
 10161 3560 97F82E20 		ldrb	r2, [r7, #46]
 10162 3564 3032     		adds	r2, r2, #48
 10163 3566 D1B2     		uxtb	r1, r2
 10164 3568 0F4A     		ldr	r2, .L733+4
 10165 356a D154     		strb	r1, [r2, r3]
2196:.\main.c      **** 				    if(y>9){
 10166              		.loc 1 2196 0
 10167 356c 97F82E30 		ldrb	r3, [r7, #46]	@ zero_extendqisi2
 10168 3570 092B     		cmp	r3, #9
 10169 3572 08D9     		bls	.L527
2197:.\main.c      **** 					    rf_mod[x+29] = y+55;
 10170              		.loc 1 2197 0
 10171 3574 97F82F30 		ldrb	r3, [r7, #47]	@ zero_extendqisi2
 10172 3578 1D33     		adds	r3, r3, #29
 10173 357a 97F82E20 		ldrb	r2, [r7, #46]
 10174 357e 3732     		adds	r2, r2, #55
 10175 3580 D1B2     		uxtb	r1, r2
 10176 3582 094A     		ldr	r2, .L733+4
 10177 3584 D154     		strb	r1, [r2, r3]
 10178              	.L527:
2190:.\main.c      **** 				    y=(rventa1.id[x/2]>>4)&0x0F;
 10179              		.loc 1 2190 0 discriminator 2
 10180 3586 97F82F30 		ldrb	r3, [r7, #47]	@ zero_extendqisi2
 10181 358a 0133     		adds	r3, r3, #1
 10182 358c 87F82F30 		strb	r3, [r7, #47]
 10183              	.L525:
2190:.\main.c      **** 				    y=(rventa1.id[x/2]>>4)&0x0F;
 10184              		.loc 1 2190 0 is_stmt 0 discriminator 1
 10185 3590 97F82F30 		ldrb	r3, [r7, #47]	@ zero_extendqisi2
 10186 3594 0F2B     		cmp	r3, #15
 10187 3596 C0D9     		bls	.L528
 10188 3598 4DE0     		b	.L529
 10189              	.L524:
2198:.\main.c      **** 				    }
ARM GAS  C:\Users\RECEPC~1\AppData\Local\Temp\ccIpe7td.s 			page 222


2199:.\main.c      **** 			    }
2200:.\main.c      ****             }else{
2201:.\main.c      ****                 for(x=0;x<=15;x++){						//Serial				
 10190              		.loc 1 2201 0 is_stmt 1
 10191 359a 0023     		movs	r3, #0
 10192 359c 87F82F30 		strb	r3, [r7, #47]
 10193 35a0 45E0     		b	.L530
 10194              	.L734:
 10195 35a2 00BF     		.align	2
 10196              	.L733:
 10197 35a4 00000000 		.word	rventa1
 10198 35a8 00000000 		.word	rf_mod
 10199 35ac 00000000 		.word	ppux10
 10200 35b0 00000000 		.word	id_estacion
 10201 35b4 00000000 		.word	tipo_venta
 10202              	.L533:
2202:.\main.c      **** 				    y=(rventa1.id[x/2]>>4)&0x0F;
 10203              		.loc 1 2202 0
 10204 35b8 97F82F30 		ldrb	r3, [r7, #47]	@ zero_extendqisi2
 10205 35bc 5B08     		lsrs	r3, r3, #1
 10206 35be DBB2     		uxtb	r3, r3
 10207 35c0 1A46     		mov	r2, r3
 10208 35c2 7D4B     		ldr	r3, .L735
 10209 35c4 1344     		add	r3, r3, r2
 10210 35c6 93F82330 		ldrb	r3, [r3, #35]	@ zero_extendqisi2
 10211 35ca 1B09     		lsrs	r3, r3, #4
 10212 35cc 87F82E30 		strb	r3, [r7, #46]
2203:.\main.c      **** 				    if((x%2)==0){
 10213              		.loc 1 2203 0
 10214 35d0 97F82F30 		ldrb	r3, [r7, #47]
 10215 35d4 03F00103 		and	r3, r3, #1
 10216 35d8 DBB2     		uxtb	r3, r3
 10217 35da 002B     		cmp	r3, #0
 10218 35dc 0CD1     		bne	.L531
2204:.\main.c      **** 					    y=rventa1.id[x/2]&0x0F;
 10219              		.loc 1 2204 0
 10220 35de 97F82F30 		ldrb	r3, [r7, #47]	@ zero_extendqisi2
 10221 35e2 5B08     		lsrs	r3, r3, #1
 10222 35e4 DBB2     		uxtb	r3, r3
 10223 35e6 1A46     		mov	r2, r3
 10224 35e8 734B     		ldr	r3, .L735
 10225 35ea 1344     		add	r3, r3, r2
 10226 35ec 93F82330 		ldrb	r3, [r3, #35]	@ zero_extendqisi2
 10227 35f0 03F00F03 		and	r3, r3, #15
 10228 35f4 87F82E30 		strb	r3, [r7, #46]
 10229              	.L531:
2205:.\main.c      **** 				    }
2206:.\main.c      **** 				    rf_mod[x+29] = y+48;
 10230              		.loc 1 2206 0
 10231 35f8 97F82F30 		ldrb	r3, [r7, #47]	@ zero_extendqisi2
 10232 35fc 1D33     		adds	r3, r3, #29
 10233 35fe 97F82E20 		ldrb	r2, [r7, #46]
 10234 3602 3032     		adds	r2, r2, #48
 10235 3604 D1B2     		uxtb	r1, r2
 10236 3606 6D4A     		ldr	r2, .L735+4
 10237 3608 D154     		strb	r1, [r2, r3]
2207:.\main.c      **** 				    if(y>9){
ARM GAS  C:\Users\RECEPC~1\AppData\Local\Temp\ccIpe7td.s 			page 223


 10238              		.loc 1 2207 0
 10239 360a 97F82E30 		ldrb	r3, [r7, #46]	@ zero_extendqisi2
 10240 360e 092B     		cmp	r3, #9
 10241 3610 08D9     		bls	.L532
2208:.\main.c      **** 					    rf_mod[x+29] = y+55;
 10242              		.loc 1 2208 0
 10243 3612 97F82F30 		ldrb	r3, [r7, #47]	@ zero_extendqisi2
 10244 3616 1D33     		adds	r3, r3, #29
 10245 3618 97F82E20 		ldrb	r2, [r7, #46]
 10246 361c 3732     		adds	r2, r2, #55
 10247 361e D1B2     		uxtb	r1, r2
 10248 3620 664A     		ldr	r2, .L735+4
 10249 3622 D154     		strb	r1, [r2, r3]
 10250              	.L532:
2201:.\main.c      **** 				    y=(rventa1.id[x/2]>>4)&0x0F;
 10251              		.loc 1 2201 0 discriminator 2
 10252 3624 97F82F30 		ldrb	r3, [r7, #47]	@ zero_extendqisi2
 10253 3628 0133     		adds	r3, r3, #1
 10254 362a 87F82F30 		strb	r3, [r7, #47]
 10255              	.L530:
2201:.\main.c      **** 				    y=(rventa1.id[x/2]>>4)&0x0F;
 10256              		.loc 1 2201 0 is_stmt 0 discriminator 1
 10257 362e 97F82F30 		ldrb	r3, [r7, #47]	@ zero_extendqisi2
 10258 3632 0F2B     		cmp	r3, #15
 10259 3634 C0D9     		bls	.L533
 10260              	.L529:
2209:.\main.c      **** 				    }
2210:.\main.c      **** 			    }               
2211:.\main.c      ****             }
2212:.\main.c      **** 			num_decimal2++;
 10261              		.loc 1 2212 0 is_stmt 1
 10262 3636 624B     		ldr	r3, .L735+8
 10263 3638 1B88     		ldrh	r3, [r3]
 10264 363a 0133     		adds	r3, r3, #1
 10265 363c 9AB2     		uxth	r2, r3
 10266 363e 604B     		ldr	r3, .L735+8
 10267 3640 1A80     		strh	r2, [r3]	@ movhi
2213:.\main.c      **** 			id_venta[4]=(num_decimal2/1000)+48;
 10268              		.loc 1 2213 0
 10269 3642 5F4B     		ldr	r3, .L735+8
 10270 3644 1B88     		ldrh	r3, [r3]
 10271 3646 5F4A     		ldr	r2, .L735+12
 10272 3648 A2FB0323 		umull	r2, r3, r2, r3
 10273 364c 9B09     		lsrs	r3, r3, #6
 10274 364e 9BB2     		uxth	r3, r3
 10275 3650 DBB2     		uxtb	r3, r3
 10276 3652 3033     		adds	r3, r3, #48
 10277 3654 DAB2     		uxtb	r2, r3
 10278 3656 5C4B     		ldr	r3, .L735+16
 10279 3658 1A71     		strb	r2, [r3, #4]
2214:.\main.c      **** 			id_venta[3]=((num_decimal2%1000)/100)+48;
 10280              		.loc 1 2214 0
 10281 365a 594B     		ldr	r3, .L735+8
 10282 365c 1B88     		ldrh	r3, [r3]
 10283 365e 594A     		ldr	r2, .L735+12
 10284 3660 A2FB0312 		umull	r1, r2, r2, r3
 10285 3664 9209     		lsrs	r2, r2, #6
ARM GAS  C:\Users\RECEPC~1\AppData\Local\Temp\ccIpe7td.s 			page 224


 10286 3666 4FF47A71 		mov	r1, #1000
 10287 366a 01FB02F2 		mul	r2, r1, r2
 10288 366e 9B1A     		subs	r3, r3, r2
 10289 3670 9BB2     		uxth	r3, r3
 10290 3672 564A     		ldr	r2, .L735+20
 10291 3674 A2FB0323 		umull	r2, r3, r2, r3
 10292 3678 5B09     		lsrs	r3, r3, #5
 10293 367a 9BB2     		uxth	r3, r3
 10294 367c DBB2     		uxtb	r3, r3
 10295 367e 3033     		adds	r3, r3, #48
 10296 3680 DAB2     		uxtb	r2, r3
 10297 3682 514B     		ldr	r3, .L735+16
 10298 3684 DA70     		strb	r2, [r3, #3]
2215:.\main.c      **** 			id_venta[2]=(((num_decimal2%1000)%100)/10)+48;
 10299              		.loc 1 2215 0
 10300 3686 4E4B     		ldr	r3, .L735+8
 10301 3688 1B88     		ldrh	r3, [r3]
 10302 368a 4E4A     		ldr	r2, .L735+12
 10303 368c A2FB0312 		umull	r1, r2, r2, r3
 10304 3690 9209     		lsrs	r2, r2, #6
 10305 3692 4FF47A71 		mov	r1, #1000
 10306 3696 01FB02F2 		mul	r2, r1, r2
 10307 369a 9B1A     		subs	r3, r3, r2
 10308 369c 9BB2     		uxth	r3, r3
 10309 369e 4B4A     		ldr	r2, .L735+20
 10310 36a0 A2FB0312 		umull	r1, r2, r2, r3
 10311 36a4 5209     		lsrs	r2, r2, #5
 10312 36a6 6421     		movs	r1, #100
 10313 36a8 01FB02F2 		mul	r2, r1, r2
 10314 36ac 9B1A     		subs	r3, r3, r2
 10315 36ae 9BB2     		uxth	r3, r3
 10316 36b0 474A     		ldr	r2, .L735+24
 10317 36b2 A2FB0323 		umull	r2, r3, r2, r3
 10318 36b6 DB08     		lsrs	r3, r3, #3
 10319 36b8 9BB2     		uxth	r3, r3
 10320 36ba DBB2     		uxtb	r3, r3
 10321 36bc 3033     		adds	r3, r3, #48
 10322 36be DAB2     		uxtb	r2, r3
 10323 36c0 414B     		ldr	r3, .L735+16
 10324 36c2 9A70     		strb	r2, [r3, #2]
2216:.\main.c      **** 			id_venta[1]=(((num_decimal2%1000)%100)%10)+48; 
 10325              		.loc 1 2216 0
 10326 36c4 3E4B     		ldr	r3, .L735+8
 10327 36c6 1B88     		ldrh	r3, [r3]
 10328 36c8 3E4A     		ldr	r2, .L735+12
 10329 36ca A2FB0312 		umull	r1, r2, r2, r3
 10330 36ce 9209     		lsrs	r2, r2, #6
 10331 36d0 4FF47A71 		mov	r1, #1000
 10332 36d4 01FB02F2 		mul	r2, r1, r2
 10333 36d8 9B1A     		subs	r3, r3, r2
 10334 36da 9BB2     		uxth	r3, r3
 10335 36dc 3B4A     		ldr	r2, .L735+20
 10336 36de A2FB0312 		umull	r1, r2, r2, r3
 10337 36e2 5209     		lsrs	r2, r2, #5
 10338 36e4 6421     		movs	r1, #100
 10339 36e6 01FB02F2 		mul	r2, r1, r2
 10340 36ea 9B1A     		subs	r3, r3, r2
ARM GAS  C:\Users\RECEPC~1\AppData\Local\Temp\ccIpe7td.s 			page 225


 10341 36ec 9AB2     		uxth	r2, r3
 10342 36ee 384B     		ldr	r3, .L735+24
 10343 36f0 A3FB0213 		umull	r1, r3, r3, r2
 10344 36f4 D908     		lsrs	r1, r3, #3
 10345 36f6 0B46     		mov	r3, r1
 10346 36f8 9B00     		lsls	r3, r3, #2
 10347 36fa 0B44     		add	r3, r3, r1
 10348 36fc 5B00     		lsls	r3, r3, #1
 10349 36fe D31A     		subs	r3, r2, r3
 10350 3700 9BB2     		uxth	r3, r3
 10351 3702 DBB2     		uxtb	r3, r3
 10352 3704 3033     		adds	r3, r3, #48
 10353 3706 DAB2     		uxtb	r2, r3
 10354 3708 2F4B     		ldr	r3, .L735+16
 10355 370a 5A70     		strb	r2, [r3, #1]
2217:.\main.c      **** 			for(x=1;x<=7;x++){						//Id de Venta
 10356              		.loc 1 2217 0
 10357 370c 0123     		movs	r3, #1
 10358 370e 87F82F30 		strb	r3, [r7, #47]
 10359 3712 0EE0     		b	.L534
 10360              	.L535:
2218:.\main.c      **** 				rf_mod[44+x]=id_venta[x];
 10361              		.loc 1 2218 0 discriminator 3
 10362 3714 97F82F30 		ldrb	r3, [r7, #47]	@ zero_extendqisi2
 10363 3718 2C33     		adds	r3, r3, #44
 10364 371a 97F82F20 		ldrb	r2, [r7, #47]	@ zero_extendqisi2
 10365 371e 2A49     		ldr	r1, .L735+16
 10366 3720 8A5C     		ldrb	r2, [r1, r2]
 10367 3722 D1B2     		uxtb	r1, r2
 10368 3724 254A     		ldr	r2, .L735+4
 10369 3726 D154     		strb	r1, [r2, r3]
2217:.\main.c      **** 			for(x=1;x<=7;x++){						//Id de Venta
 10370              		.loc 1 2217 0 discriminator 3
 10371 3728 97F82F30 		ldrb	r3, [r7, #47]	@ zero_extendqisi2
 10372 372c 0133     		adds	r3, r3, #1
 10373 372e 87F82F30 		strb	r3, [r7, #47]
 10374              	.L534:
2217:.\main.c      **** 			for(x=1;x<=7;x++){						//Id de Venta
 10375              		.loc 1 2217 0 is_stmt 0 discriminator 1
 10376 3732 97F82F30 		ldrb	r3, [r7, #47]	@ zero_extendqisi2
 10377 3736 072B     		cmp	r3, #7
 10378 3738 ECD9     		bls	.L535
2219:.\main.c      **** 			}
2220:.\main.c      **** 			for(x=1;x<=4;x++){						//Guarda Id venta
 10379              		.loc 1 2220 0 is_stmt 1
 10380 373a 0123     		movs	r3, #1
 10381 373c 87F82F30 		strb	r3, [r7, #47]
 10382 3740 10E0     		b	.L536
 10383              	.L537:
2221:.\main.c      **** 				EEPROM_WriteByte(id_venta[x],x);
 10384              		.loc 1 2221 0 discriminator 3
 10385 3742 97F82F30 		ldrb	r3, [r7, #47]	@ zero_extendqisi2
 10386 3746 204A     		ldr	r2, .L735+16
 10387 3748 D35C     		ldrb	r3, [r2, r3]
 10388 374a DAB2     		uxtb	r2, r3
 10389 374c 97F82F30 		ldrb	r3, [r7, #47]	@ zero_extendqisi2
 10390 3750 9BB2     		uxth	r3, r3
ARM GAS  C:\Users\RECEPC~1\AppData\Local\Temp\ccIpe7td.s 			page 226


 10391 3752 1046     		mov	r0, r2
 10392 3754 1946     		mov	r1, r3
 10393 3756 FFF7FEFF 		bl	EEPROM_WriteByte
2220:.\main.c      **** 				EEPROM_WriteByte(id_venta[x],x);
 10394              		.loc 1 2220 0 discriminator 3
 10395 375a 97F82F30 		ldrb	r3, [r7, #47]	@ zero_extendqisi2
 10396 375e 0133     		adds	r3, r3, #1
 10397 3760 87F82F30 		strb	r3, [r7, #47]
 10398              	.L536:
2220:.\main.c      **** 				EEPROM_WriteByte(id_venta[x],x);
 10399              		.loc 1 2220 0 is_stmt 0 discriminator 1
 10400 3764 97F82F30 		ldrb	r3, [r7, #47]	@ zero_extendqisi2
 10401 3768 042B     		cmp	r3, #4
 10402 376a EAD9     		bls	.L537
2222:.\main.c      **** 			}
2223:.\main.c      **** 			for(x=0;x<=6;x++){						//Km
 10403              		.loc 1 2223 0 is_stmt 1
 10404 376c 0023     		movs	r3, #0
 10405 376e 87F82F30 		strb	r3, [r7, #47]
 10406 3772 12E0     		b	.L538
 10407              	.L539:
2224:.\main.c      **** 				rf_mod[52+x]=rventa1.km[x+1] + 48;
 10408              		.loc 1 2224 0 discriminator 3
 10409 3774 97F82F30 		ldrb	r3, [r7, #47]	@ zero_extendqisi2
 10410 3778 3433     		adds	r3, r3, #52
 10411 377a 97F82F20 		ldrb	r2, [r7, #47]	@ zero_extendqisi2
 10412 377e 0132     		adds	r2, r2, #1
 10413 3780 0D49     		ldr	r1, .L735
 10414 3782 0A44     		add	r2, r2, r1
 10415 3784 92F84320 		ldrb	r2, [r2, #67]	@ zero_extendqisi2
 10416 3788 3032     		adds	r2, r2, #48
 10417 378a D1B2     		uxtb	r1, r2
 10418 378c 0B4A     		ldr	r2, .L735+4
 10419 378e D154     		strb	r1, [r2, r3]
2223:.\main.c      **** 				rf_mod[52+x]=rventa1.km[x+1] + 48;
 10420              		.loc 1 2223 0 discriminator 3
 10421 3790 97F82F30 		ldrb	r3, [r7, #47]	@ zero_extendqisi2
 10422 3794 0133     		adds	r3, r3, #1
 10423 3796 87F82F30 		strb	r3, [r7, #47]
 10424              	.L538:
2223:.\main.c      **** 				rf_mod[52+x]=rventa1.km[x+1] + 48;
 10425              		.loc 1 2223 0 is_stmt 0 discriminator 1
 10426 379a 97F82F30 		ldrb	r3, [r7, #47]	@ zero_extendqisi2
 10427 379e 062B     		cmp	r3, #6
 10428 37a0 E8D9     		bls	.L539
2225:.\main.c      **** 			}				
2226:.\main.c      **** 			rf_mod[59]='*';
 10429              		.loc 1 2226 0 is_stmt 1
 10430 37a2 064B     		ldr	r3, .L735+4
 10431 37a4 2A22     		movs	r2, #42
 10432 37a6 83F83B20 		strb	r2, [r3, #59]
2227:.\main.c      **** 			PC_ClearRxBuffer();				
 10433              		.loc 1 2227 0
 10434 37aa FFF7FEFF 		bl	PC_ClearRxBuffer
2228:.\main.c      **** 		    for(x=0;x<=59;x++){
 10435              		.loc 1 2228 0
 10436 37ae 0023     		movs	r3, #0
ARM GAS  C:\Users\RECEPC~1\AppData\Local\Temp\ccIpe7td.s 			page 227


 10437 37b0 87F82F30 		strb	r3, [r7, #47]
 10438 37b4 1AE0     		b	.L540
 10439              	.L736:
 10440 37b6 00BF     		.align	2
 10441              	.L735:
 10442 37b8 00000000 		.word	rventa1
 10443 37bc 00000000 		.word	rf_mod
 10444 37c0 00000000 		.word	num_decimal2
 10445 37c4 D34D6210 		.word	274877907
 10446 37c8 00000000 		.word	id_venta
 10447 37cc 1F85EB51 		.word	1374389535
 10448 37d0 CDCCCCCC 		.word	-858993459
 10449              	.L541:
2229:.\main.c      **** 			   PC_PutChar(rf_mod[x]);
 10450              		.loc 1 2229 0 discriminator 3
 10451 37d4 97F82F30 		ldrb	r3, [r7, #47]	@ zero_extendqisi2
 10452 37d8 6C4A     		ldr	r2, .L737
 10453 37da D35C     		ldrb	r3, [r2, r3]	@ zero_extendqisi2
 10454 37dc 1846     		mov	r0, r3
 10455 37de FFF7FEFF 		bl	PC_PutChar
2228:.\main.c      **** 		    for(x=0;x<=59;x++){
 10456              		.loc 1 2228 0 discriminator 3
 10457 37e2 97F82F30 		ldrb	r3, [r7, #47]	@ zero_extendqisi2
 10458 37e6 0133     		adds	r3, r3, #1
 10459 37e8 87F82F30 		strb	r3, [r7, #47]
 10460              	.L540:
2228:.\main.c      **** 		    for(x=0;x<=59;x++){
 10461              		.loc 1 2228 0 is_stmt 0 discriminator 1
 10462 37ec 97F82F30 		ldrb	r3, [r7, #47]	@ zero_extendqisi2
 10463 37f0 3B2B     		cmp	r3, #59
 10464 37f2 EFD9     		bls	.L541
2230:.\main.c      **** 		    }            
2231:.\main.c      ****             PC_ClearRxBuffer();
 10465              		.loc 1 2231 0 is_stmt 1
 10466 37f4 FFF7FEFF 		bl	PC_ClearRxBuffer
2232:.\main.c      **** 			CyDelay(300);
 10467              		.loc 1 2232 0
 10468 37f8 4FF49670 		mov	r0, #300
 10469 37fc FFF7FEFF 		bl	CyDelay
2233:.\main.c      ****             PC_ClearTxBuffer();				
 10470              		.loc 1 2233 0
 10471 3800 FFF7FEFF 		bl	PC_ClearTxBuffer
2234:.\main.c      ****             estado_tanqueando=0;				
 10472              		.loc 1 2234 0
 10473 3804 624B     		ldr	r3, .L737+4
 10474 3806 0022     		movs	r2, #0
 10475 3808 1A70     		strb	r2, [r3]
2235:.\main.c      **** 			precio[0]=lado1.ppu[rventa1.producto-1][0];
 10476              		.loc 1 2235 0
 10477 380a 624B     		ldr	r3, .L737+8
 10478 380c 5B7E     		ldrb	r3, [r3, #25]	@ zero_extendqisi2
 10479 380e 5A1E     		subs	r2, r3, #1
 10480 3810 6149     		ldr	r1, .L737+12
 10481 3812 1346     		mov	r3, r2
 10482 3814 9B00     		lsls	r3, r3, #2
 10483 3816 1344     		add	r3, r3, r2
 10484 3818 0B44     		add	r3, r3, r1
ARM GAS  C:\Users\RECEPC~1\AppData\Local\Temp\ccIpe7td.s 			page 228


 10485 381a 4833     		adds	r3, r3, #72
 10486 381c 9B78     		ldrb	r3, [r3, #2]
 10487 381e DBB2     		uxtb	r3, r3
 10488 3820 3B73     		strb	r3, [r7, #12]
2236:.\main.c      **** 			precio[1]=lado1.ppu[rventa1.producto-1][1];
 10489              		.loc 1 2236 0
 10490 3822 5C4B     		ldr	r3, .L737+8
 10491 3824 5B7E     		ldrb	r3, [r3, #25]	@ zero_extendqisi2
 10492 3826 5A1E     		subs	r2, r3, #1
 10493 3828 5B49     		ldr	r1, .L737+12
 10494 382a 1346     		mov	r3, r2
 10495 382c 9B00     		lsls	r3, r3, #2
 10496 382e 1344     		add	r3, r3, r2
 10497 3830 0B44     		add	r3, r3, r1
 10498 3832 4933     		adds	r3, r3, #73
 10499 3834 9B78     		ldrb	r3, [r3, #2]
 10500 3836 DBB2     		uxtb	r3, r3
 10501 3838 7B73     		strb	r3, [r7, #13]
2237:.\main.c      **** 			precio[2]=lado1.ppu[rventa1.producto-1][2];
 10502              		.loc 1 2237 0
 10503 383a 564B     		ldr	r3, .L737+8
 10504 383c 5B7E     		ldrb	r3, [r3, #25]	@ zero_extendqisi2
 10505 383e 5A1E     		subs	r2, r3, #1
 10506 3840 5549     		ldr	r1, .L737+12
 10507 3842 1346     		mov	r3, r2
 10508 3844 9B00     		lsls	r3, r3, #2
 10509 3846 1344     		add	r3, r3, r2
 10510 3848 0B44     		add	r3, r3, r1
 10511 384a 4A33     		adds	r3, r3, #74
 10512 384c 9B78     		ldrb	r3, [r3, #2]
 10513 384e DBB2     		uxtb	r3, r3
 10514 3850 BB73     		strb	r3, [r7, #14]
2238:.\main.c      **** 			precio[3]=lado1.ppu[rventa1.producto-1][3];
 10515              		.loc 1 2238 0
 10516 3852 504B     		ldr	r3, .L737+8
 10517 3854 5B7E     		ldrb	r3, [r3, #25]	@ zero_extendqisi2
 10518 3856 5A1E     		subs	r2, r3, #1
 10519 3858 4F49     		ldr	r1, .L737+12
 10520 385a 1346     		mov	r3, r2
 10521 385c 9B00     		lsls	r3, r3, #2
 10522 385e 1344     		add	r3, r3, r2
 10523 3860 0B44     		add	r3, r3, r1
 10524 3862 4B33     		adds	r3, r3, #75
 10525 3864 9B78     		ldrb	r3, [r3, #2]
 10526 3866 DBB2     		uxtb	r3, r3
 10527 3868 FB73     		strb	r3, [r7, #15]
2239:.\main.c      **** 			precio[4]=lado1.ppu[rventa1.producto-1][4];
 10528              		.loc 1 2239 0
 10529 386a 4A4B     		ldr	r3, .L737+8
 10530 386c 5B7E     		ldrb	r3, [r3, #25]	@ zero_extendqisi2
 10531 386e 5A1E     		subs	r2, r3, #1
 10532 3870 4949     		ldr	r1, .L737+12
 10533 3872 1346     		mov	r3, r2
 10534 3874 9B00     		lsls	r3, r3, #2
 10535 3876 1344     		add	r3, r3, r2
 10536 3878 0B44     		add	r3, r3, r1
 10537 387a 4C33     		adds	r3, r3, #76
ARM GAS  C:\Users\RECEPC~1\AppData\Local\Temp\ccIpe7td.s 			page 229


 10538 387c 9B78     		ldrb	r3, [r3, #2]
 10539 387e DBB2     		uxtb	r3, r3
 10540 3880 3B74     		strb	r3, [r7, #16]
2240:.\main.c      **** 			cambiar_precio(lado1.dir,precio,rventa1.producto);
 10541              		.loc 1 2240 0
 10542 3882 454B     		ldr	r3, .L737+12
 10543 3884 1B78     		ldrb	r3, [r3]
 10544 3886 D9B2     		uxtb	r1, r3
 10545 3888 424B     		ldr	r3, .L737+8
 10546 388a 5B7E     		ldrb	r3, [r3, #25]	@ zero_extendqisi2
 10547 388c 07F10C02 		add	r2, r7, #12
 10548 3890 0846     		mov	r0, r1
 10549 3892 1146     		mov	r1, r2
 10550 3894 1A46     		mov	r2, r3
 10551 3896 FFF7FEFF 		bl	cambiar_precio
 10552              	.L519:
2241:.\main.c      ****         }
2242:.\main.c      ****         if(seleccion_pos == 2){
 10553              		.loc 1 2242 0
 10554 389a 404B     		ldr	r3, .L737+16
 10555 389c 1B78     		ldrb	r3, [r3]
 10556 389e DBB2     		uxtb	r3, r3
 10557 38a0 022B     		cmp	r3, #2
 10558 38a2 40F0BF82 		bne	.L542
2243:.\main.c      **** 			rf_mod[0]='M';
 10559              		.loc 1 2243 0
 10560 38a6 394B     		ldr	r3, .L737
 10561 38a8 4D22     		movs	r2, #77
 10562 38aa 1A70     		strb	r2, [r3]
2244:.\main.c      **** 			rf_mod[1]='U';
 10563              		.loc 1 2244 0
 10564 38ac 374B     		ldr	r3, .L737
 10565 38ae 5522     		movs	r2, #85
 10566 38b0 5A70     		strb	r2, [r3, #1]
2245:.\main.c      **** 			rf_mod[2]='X';
 10567              		.loc 1 2245 0
 10568 38b2 364B     		ldr	r3, .L737
 10569 38b4 5822     		movs	r2, #88
 10570 38b6 9A70     		strb	r2, [r3, #2]
2246:.\main.c      **** 			rf_mod[3]='1';
 10571              		.loc 1 2246 0
 10572 38b8 344B     		ldr	r3, .L737
 10573 38ba 3122     		movs	r2, #49
 10574 38bc DA70     		strb	r2, [r3, #3]
2247:.\main.c      **** 			rf_mod[4]=1 + 48;								//Cara
 10575              		.loc 1 2247 0
 10576 38be 334B     		ldr	r3, .L737
 10577 38c0 3122     		movs	r2, #49
 10578 38c2 1A71     		strb	r2, [r3, #4]
2248:.\main.c      **** 			rf_mod[5]=(lado2.grado[rventa2.producto-1][0] + 48);	//Id Producto	
 10579              		.loc 1 2248 0
 10580 38c4 364B     		ldr	r3, .L737+20
 10581 38c6 5B7E     		ldrb	r3, [r3, #25]	@ zero_extendqisi2
 10582 38c8 013B     		subs	r3, r3, #1
 10583 38ca 364A     		ldr	r2, .L737+24
 10584 38cc 1344     		add	r3, r3, r2
 10585 38ce 93F85930 		ldrb	r3, [r3, #89]
ARM GAS  C:\Users\RECEPC~1\AppData\Local\Temp\ccIpe7td.s 			page 230


 10586 38d2 DBB2     		uxtb	r3, r3
 10587 38d4 3033     		adds	r3, r3, #48
 10588 38d6 DAB2     		uxtb	r2, r3
 10589 38d8 2C4B     		ldr	r3, .L737
 10590 38da 5A71     		strb	r2, [r3, #5]
2249:.\main.c      **** 			rf_mod[6]=rventa2.volumen[5] + 48;						//Volumen
 10591              		.loc 1 2249 0
 10592 38dc 304B     		ldr	r3, .L737+20
 10593 38de 5B7D     		ldrb	r3, [r3, #21]	@ zero_extendqisi2
 10594 38e0 3033     		adds	r3, r3, #48
 10595 38e2 DAB2     		uxtb	r2, r3
 10596 38e4 294B     		ldr	r3, .L737
 10597 38e6 9A71     		strb	r2, [r3, #6]
2250:.\main.c      **** 			rf_mod[7]=rventa2.volumen[4] + 48;
 10598              		.loc 1 2250 0
 10599 38e8 2D4B     		ldr	r3, .L737+20
 10600 38ea 1B7D     		ldrb	r3, [r3, #20]	@ zero_extendqisi2
 10601 38ec 3033     		adds	r3, r3, #48
 10602 38ee DAB2     		uxtb	r2, r3
 10603 38f0 264B     		ldr	r3, .L737
 10604 38f2 DA71     		strb	r2, [r3, #7]
2251:.\main.c      **** 			rf_mod[8]=rventa2.volumen[3] + 48;
 10605              		.loc 1 2251 0
 10606 38f4 2A4B     		ldr	r3, .L737+20
 10607 38f6 DB7C     		ldrb	r3, [r3, #19]	@ zero_extendqisi2
 10608 38f8 3033     		adds	r3, r3, #48
 10609 38fa DAB2     		uxtb	r2, r3
 10610 38fc 234B     		ldr	r3, .L737
 10611 38fe 1A72     		strb	r2, [r3, #8]
2252:.\main.c      **** 			rf_mod[9]=',';
 10612              		.loc 1 2252 0
 10613 3900 224B     		ldr	r3, .L737
 10614 3902 2C22     		movs	r2, #44
 10615 3904 5A72     		strb	r2, [r3, #9]
2253:.\main.c      **** 			rf_mod[10]=rventa2.volumen[2] + 48;
 10616              		.loc 1 2253 0
 10617 3906 264B     		ldr	r3, .L737+20
 10618 3908 9B7C     		ldrb	r3, [r3, #18]	@ zero_extendqisi2
 10619 390a 3033     		adds	r3, r3, #48
 10620 390c DAB2     		uxtb	r2, r3
 10621 390e 1F4B     		ldr	r3, .L737
 10622 3910 9A72     		strb	r2, [r3, #10]
2254:.\main.c      **** 			rf_mod[11]=rventa2.volumen[1] + 48;
 10623              		.loc 1 2254 0
 10624 3912 234B     		ldr	r3, .L737+20
 10625 3914 5B7C     		ldrb	r3, [r3, #17]	@ zero_extendqisi2
 10626 3916 3033     		adds	r3, r3, #48
 10627 3918 DAB2     		uxtb	r2, r3
 10628 391a 1C4B     		ldr	r3, .L737
 10629 391c DA72     		strb	r2, [r3, #11]
2255:.\main.c      **** 			rf_mod[12]=rventa2.volumen[0] + 48;
 10630              		.loc 1 2255 0
 10631 391e 204B     		ldr	r3, .L737+20
 10632 3920 1B7C     		ldrb	r3, [r3, #16]	@ zero_extendqisi2
 10633 3922 3033     		adds	r3, r3, #48
 10634 3924 DAB2     		uxtb	r2, r3
 10635 3926 194B     		ldr	r3, .L737
ARM GAS  C:\Users\RECEPC~1\AppData\Local\Temp\ccIpe7td.s 			page 231


 10636 3928 1A73     		strb	r2, [r3, #12]
2256:.\main.c      **** 			if(version[1]==7){
 10637              		.loc 1 2256 0
 10638 392a 1F4B     		ldr	r3, .L737+28
 10639 392c 5B78     		ldrb	r3, [r3, #1]
 10640 392e DBB2     		uxtb	r3, r3
 10641 3930 072B     		cmp	r3, #7
 10642 3932 3BD1     		bne	.L543
2257:.\main.c      **** 				rf_mod[13]=rventa2.dinero[7] + 48;	//Dinero 7 digitos
 10643              		.loc 1 2257 0
 10644 3934 1A4B     		ldr	r3, .L737+20
 10645 3936 9B7B     		ldrb	r3, [r3, #14]	@ zero_extendqisi2
 10646 3938 3033     		adds	r3, r3, #48
 10647 393a DAB2     		uxtb	r2, r3
 10648 393c 134B     		ldr	r3, .L737
 10649 393e 5A73     		strb	r2, [r3, #13]
2258:.\main.c      **** 				rf_mod[14]=rventa2.dinero[6] + 48;
 10650              		.loc 1 2258 0
 10651 3940 174B     		ldr	r3, .L737+20
 10652 3942 5B7B     		ldrb	r3, [r3, #13]	@ zero_extendqisi2
 10653 3944 3033     		adds	r3, r3, #48
 10654 3946 DAB2     		uxtb	r2, r3
 10655 3948 104B     		ldr	r3, .L737
 10656 394a 9A73     		strb	r2, [r3, #14]
2259:.\main.c      **** 				rf_mod[15]=rventa2.dinero[5] + 48;
 10657              		.loc 1 2259 0
 10658 394c 144B     		ldr	r3, .L737+20
 10659 394e 1B7B     		ldrb	r3, [r3, #12]	@ zero_extendqisi2
 10660 3950 3033     		adds	r3, r3, #48
 10661 3952 DAB2     		uxtb	r2, r3
 10662 3954 0D4B     		ldr	r3, .L737
 10663 3956 DA73     		strb	r2, [r3, #15]
2260:.\main.c      **** 				rf_mod[16]=rventa2.dinero[4] + 48;
 10664              		.loc 1 2260 0
 10665 3958 114B     		ldr	r3, .L737+20
 10666 395a DB7A     		ldrb	r3, [r3, #11]	@ zero_extendqisi2
 10667 395c 3033     		adds	r3, r3, #48
 10668 395e DAB2     		uxtb	r2, r3
 10669 3960 0A4B     		ldr	r3, .L737
 10670 3962 1A74     		strb	r2, [r3, #16]
2261:.\main.c      **** 				rf_mod[17]=rventa2.dinero[3] + 48;
 10671              		.loc 1 2261 0
 10672 3964 0E4B     		ldr	r3, .L737+20
 10673 3966 9B7A     		ldrb	r3, [r3, #10]	@ zero_extendqisi2
 10674 3968 3033     		adds	r3, r3, #48
 10675 396a DAB2     		uxtb	r2, r3
 10676 396c 074B     		ldr	r3, .L737
 10677 396e 5A74     		strb	r2, [r3, #17]
2262:.\main.c      **** 				rf_mod[18]=rventa2.dinero[2] + 48;
 10678              		.loc 1 2262 0
 10679 3970 0B4B     		ldr	r3, .L737+20
 10680 3972 5B7A     		ldrb	r3, [r3, #9]	@ zero_extendqisi2
 10681 3974 3033     		adds	r3, r3, #48
 10682 3976 DAB2     		uxtb	r2, r3
 10683 3978 044B     		ldr	r3, .L737
 10684 397a 9A74     		strb	r2, [r3, #18]
2263:.\main.c      **** 				rf_mod[19]=rventa2.dinero[1] + 48;					
ARM GAS  C:\Users\RECEPC~1\AppData\Local\Temp\ccIpe7td.s 			page 232


 10685              		.loc 1 2263 0
 10686 397c 084B     		ldr	r3, .L737+20
 10687 397e 1B7A     		ldrb	r3, [r3, #8]	@ zero_extendqisi2
 10688 3980 3033     		adds	r3, r3, #48
 10689 3982 DAB2     		uxtb	r2, r3
 10690 3984 014B     		ldr	r3, .L737
 10691 3986 DA74     		strb	r2, [r3, #19]
 10692 3988 3AE0     		b	.L544
 10693              	.L738:
 10694 398a 00BF     		.align	2
 10695              	.L737:
 10696 398c 00000000 		.word	rf_mod
 10697 3990 00000000 		.word	estado_tanqueando
 10698 3994 00000000 		.word	rventa1
 10699 3998 00000000 		.word	lado1
 10700 399c 00000000 		.word	seleccion_pos
 10701 39a0 00000000 		.word	rventa2
 10702 39a4 00000000 		.word	lado2
 10703 39a8 00000000 		.word	version
 10704              	.L543:
2264:.\main.c      **** 			}
2265:.\main.c      **** 			else{
2266:.\main.c      **** 				rf_mod[13]=rventa2.dinero[6] + 48;	//Dinero 6 digitos 
 10705              		.loc 1 2266 0
 10706 39ac 664B     		ldr	r3, .L739
 10707 39ae 5B7B     		ldrb	r3, [r3, #13]	@ zero_extendqisi2
 10708 39b0 3033     		adds	r3, r3, #48
 10709 39b2 DAB2     		uxtb	r2, r3
 10710 39b4 654B     		ldr	r3, .L739+4
 10711 39b6 5A73     		strb	r2, [r3, #13]
2267:.\main.c      **** 				rf_mod[14]=rventa2.dinero[5] + 48;
 10712              		.loc 1 2267 0
 10713 39b8 634B     		ldr	r3, .L739
 10714 39ba 1B7B     		ldrb	r3, [r3, #12]	@ zero_extendqisi2
 10715 39bc 3033     		adds	r3, r3, #48
 10716 39be DAB2     		uxtb	r2, r3
 10717 39c0 624B     		ldr	r3, .L739+4
 10718 39c2 9A73     		strb	r2, [r3, #14]
2268:.\main.c      **** 				rf_mod[15]=rventa2.dinero[4] + 48;
 10719              		.loc 1 2268 0
 10720 39c4 604B     		ldr	r3, .L739
 10721 39c6 DB7A     		ldrb	r3, [r3, #11]	@ zero_extendqisi2
 10722 39c8 3033     		adds	r3, r3, #48
 10723 39ca DAB2     		uxtb	r2, r3
 10724 39cc 5F4B     		ldr	r3, .L739+4
 10725 39ce DA73     		strb	r2, [r3, #15]
2269:.\main.c      **** 				rf_mod[16]=rventa2.dinero[3] + 48;
 10726              		.loc 1 2269 0
 10727 39d0 5D4B     		ldr	r3, .L739
 10728 39d2 9B7A     		ldrb	r3, [r3, #10]	@ zero_extendqisi2
 10729 39d4 3033     		adds	r3, r3, #48
 10730 39d6 DAB2     		uxtb	r2, r3
 10731 39d8 5C4B     		ldr	r3, .L739+4
 10732 39da 1A74     		strb	r2, [r3, #16]
2270:.\main.c      **** 				rf_mod[17]=rventa2.dinero[2] + 48;
 10733              		.loc 1 2270 0
 10734 39dc 5A4B     		ldr	r3, .L739
ARM GAS  C:\Users\RECEPC~1\AppData\Local\Temp\ccIpe7td.s 			page 233


 10735 39de 5B7A     		ldrb	r3, [r3, #9]	@ zero_extendqisi2
 10736 39e0 3033     		adds	r3, r3, #48
 10737 39e2 DAB2     		uxtb	r2, r3
 10738 39e4 594B     		ldr	r3, .L739+4
 10739 39e6 5A74     		strb	r2, [r3, #17]
2271:.\main.c      **** 				rf_mod[18]=rventa2.dinero[1] + 48;					
 10740              		.loc 1 2271 0
 10741 39e8 574B     		ldr	r3, .L739
 10742 39ea 1B7A     		ldrb	r3, [r3, #8]	@ zero_extendqisi2
 10743 39ec 3033     		adds	r3, r3, #48
 10744 39ee DAB2     		uxtb	r2, r3
 10745 39f0 564B     		ldr	r3, .L739+4
 10746 39f2 9A74     		strb	r2, [r3, #18]
2272:.\main.c      **** 				rf_mod[19]=rventa2.dinero[0] + 48;
 10747              		.loc 1 2272 0
 10748 39f4 544B     		ldr	r3, .L739
 10749 39f6 DB79     		ldrb	r3, [r3, #7]	@ zero_extendqisi2
 10750 39f8 3033     		adds	r3, r3, #48
 10751 39fa DAB2     		uxtb	r2, r3
 10752 39fc 534B     		ldr	r3, .L739+4
 10753 39fe DA74     		strb	r2, [r3, #19]
 10754              	.L544:
2273:.\main.c      **** 			}
2274:.\main.c      ****             if(ppux10==0){
 10755              		.loc 1 2274 0
 10756 3a00 534B     		ldr	r3, .L739+8
 10757 3a02 1B78     		ldrb	r3, [r3]
 10758 3a04 DBB2     		uxtb	r3, r3
 10759 3a06 002B     		cmp	r3, #0
 10760 3a08 1DD1     		bne	.L545
2275:.\main.c      ****     			rf_mod[20]=rventa2.ppu[4] + 48;			//PPU
 10761              		.loc 1 2275 0
 10762 3a0a 4F4B     		ldr	r3, .L739
 10763 3a0c 9B79     		ldrb	r3, [r3, #6]	@ zero_extendqisi2
 10764 3a0e 3033     		adds	r3, r3, #48
 10765 3a10 DAB2     		uxtb	r2, r3
 10766 3a12 4E4B     		ldr	r3, .L739+4
 10767 3a14 1A75     		strb	r2, [r3, #20]
2276:.\main.c      ****     			rf_mod[21]=rventa2.ppu[3] + 48;
 10768              		.loc 1 2276 0
 10769 3a16 4C4B     		ldr	r3, .L739
 10770 3a18 5B79     		ldrb	r3, [r3, #5]	@ zero_extendqisi2
 10771 3a1a 3033     		adds	r3, r3, #48
 10772 3a1c DAB2     		uxtb	r2, r3
 10773 3a1e 4B4B     		ldr	r3, .L739+4
 10774 3a20 5A75     		strb	r2, [r3, #21]
2277:.\main.c      ****     			rf_mod[22]=rventa2.ppu[2] + 48;
 10775              		.loc 1 2277 0
 10776 3a22 494B     		ldr	r3, .L739
 10777 3a24 1B79     		ldrb	r3, [r3, #4]	@ zero_extendqisi2
 10778 3a26 3033     		adds	r3, r3, #48
 10779 3a28 DAB2     		uxtb	r2, r3
 10780 3a2a 484B     		ldr	r3, .L739+4
 10781 3a2c 9A75     		strb	r2, [r3, #22]
2278:.\main.c      ****     			rf_mod[23]=rventa2.ppu[1] + 48;
 10782              		.loc 1 2278 0
 10783 3a2e 464B     		ldr	r3, .L739
ARM GAS  C:\Users\RECEPC~1\AppData\Local\Temp\ccIpe7td.s 			page 234


 10784 3a30 DB78     		ldrb	r3, [r3, #3]	@ zero_extendqisi2
 10785 3a32 3033     		adds	r3, r3, #48
 10786 3a34 DAB2     		uxtb	r2, r3
 10787 3a36 454B     		ldr	r3, .L739+4
 10788 3a38 DA75     		strb	r2, [r3, #23]
2279:.\main.c      ****     			rf_mod[24]=rventa2.ppu[0] + 48;
 10789              		.loc 1 2279 0
 10790 3a3a 434B     		ldr	r3, .L739
 10791 3a3c 9B78     		ldrb	r3, [r3, #2]	@ zero_extendqisi2
 10792 3a3e 3033     		adds	r3, r3, #48
 10793 3a40 DAB2     		uxtb	r2, r3
 10794 3a42 424B     		ldr	r3, .L739+4
 10795 3a44 1A76     		strb	r2, [r3, #24]
 10796              	.L545:
2280:.\main.c      ****             }
2281:.\main.c      ****             if(ppux10==1){
 10797              		.loc 1 2281 0
 10798 3a46 424B     		ldr	r3, .L739+8
 10799 3a48 1B78     		ldrb	r3, [r3]
 10800 3a4a DBB2     		uxtb	r3, r3
 10801 3a4c 012B     		cmp	r3, #1
 10802 3a4e 1AD1     		bne	.L546
2282:.\main.c      ****     			rf_mod[20]=rventa2.ppu[3] + 48;			//PPU x10
 10803              		.loc 1 2282 0
 10804 3a50 3D4B     		ldr	r3, .L739
 10805 3a52 5B79     		ldrb	r3, [r3, #5]	@ zero_extendqisi2
 10806 3a54 3033     		adds	r3, r3, #48
 10807 3a56 DAB2     		uxtb	r2, r3
 10808 3a58 3C4B     		ldr	r3, .L739+4
 10809 3a5a 1A75     		strb	r2, [r3, #20]
2283:.\main.c      ****     			rf_mod[21]=rventa2.ppu[2] + 48;
 10810              		.loc 1 2283 0
 10811 3a5c 3A4B     		ldr	r3, .L739
 10812 3a5e 1B79     		ldrb	r3, [r3, #4]	@ zero_extendqisi2
 10813 3a60 3033     		adds	r3, r3, #48
 10814 3a62 DAB2     		uxtb	r2, r3
 10815 3a64 394B     		ldr	r3, .L739+4
 10816 3a66 5A75     		strb	r2, [r3, #21]
2284:.\main.c      ****     			rf_mod[22]=rventa2.ppu[1] + 48;
 10817              		.loc 1 2284 0
 10818 3a68 374B     		ldr	r3, .L739
 10819 3a6a DB78     		ldrb	r3, [r3, #3]	@ zero_extendqisi2
 10820 3a6c 3033     		adds	r3, r3, #48
 10821 3a6e DAB2     		uxtb	r2, r3
 10822 3a70 364B     		ldr	r3, .L739+4
 10823 3a72 9A75     		strb	r2, [r3, #22]
2285:.\main.c      ****     			rf_mod[23]=rventa2.ppu[0] + 48;
 10824              		.loc 1 2285 0
 10825 3a74 344B     		ldr	r3, .L739
 10826 3a76 9B78     		ldrb	r3, [r3, #2]	@ zero_extendqisi2
 10827 3a78 3033     		adds	r3, r3, #48
 10828 3a7a DAB2     		uxtb	r2, r3
 10829 3a7c 334B     		ldr	r3, .L739+4
 10830 3a7e DA75     		strb	r2, [r3, #23]
2286:.\main.c      ****     			rf_mod[24]=48;
 10831              		.loc 1 2286 0
 10832 3a80 324B     		ldr	r3, .L739+4
ARM GAS  C:\Users\RECEPC~1\AppData\Local\Temp\ccIpe7td.s 			page 235


 10833 3a82 3022     		movs	r2, #48
 10834 3a84 1A76     		strb	r2, [r3, #24]
 10835              	.L546:
2287:.\main.c      ****             }
2288:.\main.c      **** 			rf_mod[25]=id_estacion[4];				//Id Estacion	
 10836              		.loc 1 2288 0
 10837 3a86 334B     		ldr	r3, .L739+12
 10838 3a88 1B79     		ldrb	r3, [r3, #4]
 10839 3a8a DAB2     		uxtb	r2, r3
 10840 3a8c 2F4B     		ldr	r3, .L739+4
 10841 3a8e 5A76     		strb	r2, [r3, #25]
2289:.\main.c      **** 			rf_mod[26]=id_estacion[3];
 10842              		.loc 1 2289 0
 10843 3a90 304B     		ldr	r3, .L739+12
 10844 3a92 DB78     		ldrb	r3, [r3, #3]
 10845 3a94 DAB2     		uxtb	r2, r3
 10846 3a96 2D4B     		ldr	r3, .L739+4
 10847 3a98 9A76     		strb	r2, [r3, #26]
2290:.\main.c      **** 			rf_mod[27]=id_estacion[2];
 10848              		.loc 1 2290 0
 10849 3a9a 2E4B     		ldr	r3, .L739+12
 10850 3a9c 9B78     		ldrb	r3, [r3, #2]
 10851 3a9e DAB2     		uxtb	r2, r3
 10852 3aa0 2A4B     		ldr	r3, .L739+4
 10853 3aa2 DA76     		strb	r2, [r3, #27]
2291:.\main.c      **** 			rf_mod[28]=id_estacion[1];
 10854              		.loc 1 2291 0
 10855 3aa4 2B4B     		ldr	r3, .L739+12
 10856 3aa6 5B78     		ldrb	r3, [r3, #1]
 10857 3aa8 DAB2     		uxtb	r2, r3
 10858 3aaa 284B     		ldr	r3, .L739+4
 10859 3aac 1A77     		strb	r2, [r3, #28]
2292:.\main.c      **** 			
2293:.\main.c      ****             if(tipo_venta == 1){
 10860              		.loc 1 2293 0
 10861 3aae 2A4B     		ldr	r3, .L739+16
 10862 3ab0 1B78     		ldrb	r3, [r3]	@ zero_extendqisi2
 10863 3ab2 012B     		cmp	r3, #1
 10864 3ab4 43D1     		bne	.L547
2294:.\main.c      ****                 for(x=0;x<=15;x++){						//Serial				
 10865              		.loc 1 2294 0
 10866 3ab6 0023     		movs	r3, #0
 10867 3ab8 87F82F30 		strb	r3, [r7, #47]
 10868 3abc 3AE0     		b	.L548
 10869              	.L551:
2295:.\main.c      **** 				    y=(rventa2.id[x/2]>>4)&0x0F;
 10870              		.loc 1 2295 0
 10871 3abe 97F82F30 		ldrb	r3, [r7, #47]	@ zero_extendqisi2
 10872 3ac2 5B08     		lsrs	r3, r3, #1
 10873 3ac4 DBB2     		uxtb	r3, r3
 10874 3ac6 1A46     		mov	r2, r3
 10875 3ac8 1F4B     		ldr	r3, .L739
 10876 3aca 1344     		add	r3, r3, r2
 10877 3acc 93F82330 		ldrb	r3, [r3, #35]	@ zero_extendqisi2
 10878 3ad0 1B09     		lsrs	r3, r3, #4
 10879 3ad2 87F82E30 		strb	r3, [r7, #46]
2296:.\main.c      **** 				    if((x%2)==0){
ARM GAS  C:\Users\RECEPC~1\AppData\Local\Temp\ccIpe7td.s 			page 236


 10880              		.loc 1 2296 0
 10881 3ad6 97F82F30 		ldrb	r3, [r7, #47]
 10882 3ada 03F00103 		and	r3, r3, #1
 10883 3ade DBB2     		uxtb	r3, r3
 10884 3ae0 002B     		cmp	r3, #0
 10885 3ae2 0CD1     		bne	.L549
2297:.\main.c      **** 					    y=rventa2.id[x/2]&0x0F;
 10886              		.loc 1 2297 0
 10887 3ae4 97F82F30 		ldrb	r3, [r7, #47]	@ zero_extendqisi2
 10888 3ae8 5B08     		lsrs	r3, r3, #1
 10889 3aea DBB2     		uxtb	r3, r3
 10890 3aec 1A46     		mov	r2, r3
 10891 3aee 164B     		ldr	r3, .L739
 10892 3af0 1344     		add	r3, r3, r2
 10893 3af2 93F82330 		ldrb	r3, [r3, #35]	@ zero_extendqisi2
 10894 3af6 03F00F03 		and	r3, r3, #15
 10895 3afa 87F82E30 		strb	r3, [r7, #46]
 10896              	.L549:
2298:.\main.c      **** 				    }
2299:.\main.c      **** 				    rf_mod[x+29] = y+48;
 10897              		.loc 1 2299 0
 10898 3afe 97F82F30 		ldrb	r3, [r7, #47]	@ zero_extendqisi2
 10899 3b02 1D33     		adds	r3, r3, #29
 10900 3b04 97F82E20 		ldrb	r2, [r7, #46]
 10901 3b08 3032     		adds	r2, r2, #48
 10902 3b0a D1B2     		uxtb	r1, r2
 10903 3b0c 0F4A     		ldr	r2, .L739+4
 10904 3b0e D154     		strb	r1, [r2, r3]
2300:.\main.c      **** 				    if(y>9){
 10905              		.loc 1 2300 0
 10906 3b10 97F82E30 		ldrb	r3, [r7, #46]	@ zero_extendqisi2
 10907 3b14 092B     		cmp	r3, #9
 10908 3b16 08D9     		bls	.L550
2301:.\main.c      **** 					    rf_mod[x+29] = y+55;
 10909              		.loc 1 2301 0
 10910 3b18 97F82F30 		ldrb	r3, [r7, #47]	@ zero_extendqisi2
 10911 3b1c 1D33     		adds	r3, r3, #29
 10912 3b1e 97F82E20 		ldrb	r2, [r7, #46]
 10913 3b22 3732     		adds	r2, r2, #55
 10914 3b24 D1B2     		uxtb	r1, r2
 10915 3b26 094A     		ldr	r2, .L739+4
 10916 3b28 D154     		strb	r1, [r2, r3]
 10917              	.L550:
2294:.\main.c      **** 				    y=(rventa2.id[x/2]>>4)&0x0F;
 10918              		.loc 1 2294 0 discriminator 2
 10919 3b2a 97F82F30 		ldrb	r3, [r7, #47]	@ zero_extendqisi2
 10920 3b2e 0133     		adds	r3, r3, #1
 10921 3b30 87F82F30 		strb	r3, [r7, #47]
 10922              	.L548:
2294:.\main.c      **** 				    y=(rventa2.id[x/2]>>4)&0x0F;
 10923              		.loc 1 2294 0 is_stmt 0 discriminator 1
 10924 3b34 97F82F30 		ldrb	r3, [r7, #47]	@ zero_extendqisi2
 10925 3b38 0F2B     		cmp	r3, #15
 10926 3b3a C0D9     		bls	.L551
 10927 3b3c 4DE0     		b	.L552
 10928              	.L547:
2302:.\main.c      **** 				    }
ARM GAS  C:\Users\RECEPC~1\AppData\Local\Temp\ccIpe7td.s 			page 237


2303:.\main.c      **** 			    }
2304:.\main.c      ****             }else{
2305:.\main.c      ****                 for(x=0;x<=15;x++){						//Serial				
 10929              		.loc 1 2305 0 is_stmt 1
 10930 3b3e 0023     		movs	r3, #0
 10931 3b40 87F82F30 		strb	r3, [r7, #47]
 10932 3b44 45E0     		b	.L553
 10933              	.L740:
 10934 3b46 00BF     		.align	2
 10935              	.L739:
 10936 3b48 00000000 		.word	rventa2
 10937 3b4c 00000000 		.word	rf_mod
 10938 3b50 00000000 		.word	ppux10
 10939 3b54 00000000 		.word	id_estacion
 10940 3b58 00000000 		.word	tipo_venta
 10941              	.L556:
2306:.\main.c      **** 				    y=(rventa2.id[x/2]>>4)&0x0F;
 10942              		.loc 1 2306 0
 10943 3b5c 97F82F30 		ldrb	r3, [r7, #47]	@ zero_extendqisi2
 10944 3b60 5B08     		lsrs	r3, r3, #1
 10945 3b62 DBB2     		uxtb	r3, r3
 10946 3b64 1A46     		mov	r2, r3
 10947 3b66 B04B     		ldr	r3, .L741
 10948 3b68 1344     		add	r3, r3, r2
 10949 3b6a 93F82330 		ldrb	r3, [r3, #35]	@ zero_extendqisi2
 10950 3b6e 1B09     		lsrs	r3, r3, #4
 10951 3b70 87F82E30 		strb	r3, [r7, #46]
2307:.\main.c      **** 				    if((x%2)==0){
 10952              		.loc 1 2307 0
 10953 3b74 97F82F30 		ldrb	r3, [r7, #47]
 10954 3b78 03F00103 		and	r3, r3, #1
 10955 3b7c DBB2     		uxtb	r3, r3
 10956 3b7e 002B     		cmp	r3, #0
 10957 3b80 0CD1     		bne	.L554
2308:.\main.c      **** 					    y=rventa2.id[x/2]&0x0F;
 10958              		.loc 1 2308 0
 10959 3b82 97F82F30 		ldrb	r3, [r7, #47]	@ zero_extendqisi2
 10960 3b86 5B08     		lsrs	r3, r3, #1
 10961 3b88 DBB2     		uxtb	r3, r3
 10962 3b8a 1A46     		mov	r2, r3
 10963 3b8c A64B     		ldr	r3, .L741
 10964 3b8e 1344     		add	r3, r3, r2
 10965 3b90 93F82330 		ldrb	r3, [r3, #35]	@ zero_extendqisi2
 10966 3b94 03F00F03 		and	r3, r3, #15
 10967 3b98 87F82E30 		strb	r3, [r7, #46]
 10968              	.L554:
2309:.\main.c      **** 				    }
2310:.\main.c      **** 				    rf_mod[x+29] = y+48;
 10969              		.loc 1 2310 0
 10970 3b9c 97F82F30 		ldrb	r3, [r7, #47]	@ zero_extendqisi2
 10971 3ba0 1D33     		adds	r3, r3, #29
 10972 3ba2 97F82E20 		ldrb	r2, [r7, #46]
 10973 3ba6 3032     		adds	r2, r2, #48
 10974 3ba8 D1B2     		uxtb	r1, r2
 10975 3baa A04A     		ldr	r2, .L741+4
 10976 3bac D154     		strb	r1, [r2, r3]
2311:.\main.c      **** 				    if(y>9){
ARM GAS  C:\Users\RECEPC~1\AppData\Local\Temp\ccIpe7td.s 			page 238


 10977              		.loc 1 2311 0
 10978 3bae 97F82E30 		ldrb	r3, [r7, #46]	@ zero_extendqisi2
 10979 3bb2 092B     		cmp	r3, #9
 10980 3bb4 08D9     		bls	.L555
2312:.\main.c      **** 					    rf_mod[x+29] = y+55;
 10981              		.loc 1 2312 0
 10982 3bb6 97F82F30 		ldrb	r3, [r7, #47]	@ zero_extendqisi2
 10983 3bba 1D33     		adds	r3, r3, #29
 10984 3bbc 97F82E20 		ldrb	r2, [r7, #46]
 10985 3bc0 3732     		adds	r2, r2, #55
 10986 3bc2 D1B2     		uxtb	r1, r2
 10987 3bc4 994A     		ldr	r2, .L741+4
 10988 3bc6 D154     		strb	r1, [r2, r3]
 10989              	.L555:
2305:.\main.c      **** 				    y=(rventa2.id[x/2]>>4)&0x0F;
 10990              		.loc 1 2305 0 discriminator 2
 10991 3bc8 97F82F30 		ldrb	r3, [r7, #47]	@ zero_extendqisi2
 10992 3bcc 0133     		adds	r3, r3, #1
 10993 3bce 87F82F30 		strb	r3, [r7, #47]
 10994              	.L553:
2305:.\main.c      **** 				    y=(rventa2.id[x/2]>>4)&0x0F;
 10995              		.loc 1 2305 0 is_stmt 0 discriminator 1
 10996 3bd2 97F82F30 		ldrb	r3, [r7, #47]	@ zero_extendqisi2
 10997 3bd6 0F2B     		cmp	r3, #15
 10998 3bd8 C0D9     		bls	.L556
 10999              	.L552:
2313:.\main.c      **** 				    }
2314:.\main.c      **** 			    }               
2315:.\main.c      ****             }
2316:.\main.c      **** 			num_decimal2++;
 11000              		.loc 1 2316 0 is_stmt 1
 11001 3bda 954B     		ldr	r3, .L741+8
 11002 3bdc 1B88     		ldrh	r3, [r3]
 11003 3bde 0133     		adds	r3, r3, #1
 11004 3be0 9AB2     		uxth	r2, r3
 11005 3be2 934B     		ldr	r3, .L741+8
 11006 3be4 1A80     		strh	r2, [r3]	@ movhi
2317:.\main.c      **** 			id_venta[4]=(num_decimal2/1000)+48;
 11007              		.loc 1 2317 0
 11008 3be6 924B     		ldr	r3, .L741+8
 11009 3be8 1B88     		ldrh	r3, [r3]
 11010 3bea 924A     		ldr	r2, .L741+12
 11011 3bec A2FB0323 		umull	r2, r3, r2, r3
 11012 3bf0 9B09     		lsrs	r3, r3, #6
 11013 3bf2 9BB2     		uxth	r3, r3
 11014 3bf4 DBB2     		uxtb	r3, r3
 11015 3bf6 3033     		adds	r3, r3, #48
 11016 3bf8 DAB2     		uxtb	r2, r3
 11017 3bfa 8F4B     		ldr	r3, .L741+16
 11018 3bfc 1A71     		strb	r2, [r3, #4]
2318:.\main.c      **** 			id_venta[3]=((num_decimal2%1000)/100)+48;
 11019              		.loc 1 2318 0
 11020 3bfe 8C4B     		ldr	r3, .L741+8
 11021 3c00 1B88     		ldrh	r3, [r3]
 11022 3c02 8C4A     		ldr	r2, .L741+12
 11023 3c04 A2FB0312 		umull	r1, r2, r2, r3
 11024 3c08 9209     		lsrs	r2, r2, #6
ARM GAS  C:\Users\RECEPC~1\AppData\Local\Temp\ccIpe7td.s 			page 239


 11025 3c0a 4FF47A71 		mov	r1, #1000
 11026 3c0e 01FB02F2 		mul	r2, r1, r2
 11027 3c12 9B1A     		subs	r3, r3, r2
 11028 3c14 9BB2     		uxth	r3, r3
 11029 3c16 894A     		ldr	r2, .L741+20
 11030 3c18 A2FB0323 		umull	r2, r3, r2, r3
 11031 3c1c 5B09     		lsrs	r3, r3, #5
 11032 3c1e 9BB2     		uxth	r3, r3
 11033 3c20 DBB2     		uxtb	r3, r3
 11034 3c22 3033     		adds	r3, r3, #48
 11035 3c24 DAB2     		uxtb	r2, r3
 11036 3c26 844B     		ldr	r3, .L741+16
 11037 3c28 DA70     		strb	r2, [r3, #3]
2319:.\main.c      **** 			id_venta[2]=(((num_decimal2%1000)%100)/10)+48;
 11038              		.loc 1 2319 0
 11039 3c2a 814B     		ldr	r3, .L741+8
 11040 3c2c 1B88     		ldrh	r3, [r3]
 11041 3c2e 814A     		ldr	r2, .L741+12
 11042 3c30 A2FB0312 		umull	r1, r2, r2, r3
 11043 3c34 9209     		lsrs	r2, r2, #6
 11044 3c36 4FF47A71 		mov	r1, #1000
 11045 3c3a 01FB02F2 		mul	r2, r1, r2
 11046 3c3e 9B1A     		subs	r3, r3, r2
 11047 3c40 9BB2     		uxth	r3, r3
 11048 3c42 7E4A     		ldr	r2, .L741+20
 11049 3c44 A2FB0312 		umull	r1, r2, r2, r3
 11050 3c48 5209     		lsrs	r2, r2, #5
 11051 3c4a 6421     		movs	r1, #100
 11052 3c4c 01FB02F2 		mul	r2, r1, r2
 11053 3c50 9B1A     		subs	r3, r3, r2
 11054 3c52 9BB2     		uxth	r3, r3
 11055 3c54 7A4A     		ldr	r2, .L741+24
 11056 3c56 A2FB0323 		umull	r2, r3, r2, r3
 11057 3c5a DB08     		lsrs	r3, r3, #3
 11058 3c5c 9BB2     		uxth	r3, r3
 11059 3c5e DBB2     		uxtb	r3, r3
 11060 3c60 3033     		adds	r3, r3, #48
 11061 3c62 DAB2     		uxtb	r2, r3
 11062 3c64 744B     		ldr	r3, .L741+16
 11063 3c66 9A70     		strb	r2, [r3, #2]
2320:.\main.c      **** 			id_venta[1]=(((num_decimal2%1000)%100)%10)+48; 
 11064              		.loc 1 2320 0
 11065 3c68 714B     		ldr	r3, .L741+8
 11066 3c6a 1B88     		ldrh	r3, [r3]
 11067 3c6c 714A     		ldr	r2, .L741+12
 11068 3c6e A2FB0312 		umull	r1, r2, r2, r3
 11069 3c72 9209     		lsrs	r2, r2, #6
 11070 3c74 4FF47A71 		mov	r1, #1000
 11071 3c78 01FB02F2 		mul	r2, r1, r2
 11072 3c7c 9B1A     		subs	r3, r3, r2
 11073 3c7e 9BB2     		uxth	r3, r3
 11074 3c80 6E4A     		ldr	r2, .L741+20
 11075 3c82 A2FB0312 		umull	r1, r2, r2, r3
 11076 3c86 5209     		lsrs	r2, r2, #5
 11077 3c88 6421     		movs	r1, #100
 11078 3c8a 01FB02F2 		mul	r2, r1, r2
 11079 3c8e 9B1A     		subs	r3, r3, r2
ARM GAS  C:\Users\RECEPC~1\AppData\Local\Temp\ccIpe7td.s 			page 240


 11080 3c90 9AB2     		uxth	r2, r3
 11081 3c92 6B4B     		ldr	r3, .L741+24
 11082 3c94 A3FB0213 		umull	r1, r3, r3, r2
 11083 3c98 D908     		lsrs	r1, r3, #3
 11084 3c9a 0B46     		mov	r3, r1
 11085 3c9c 9B00     		lsls	r3, r3, #2
 11086 3c9e 0B44     		add	r3, r3, r1
 11087 3ca0 5B00     		lsls	r3, r3, #1
 11088 3ca2 D31A     		subs	r3, r2, r3
 11089 3ca4 9BB2     		uxth	r3, r3
 11090 3ca6 DBB2     		uxtb	r3, r3
 11091 3ca8 3033     		adds	r3, r3, #48
 11092 3caa DAB2     		uxtb	r2, r3
 11093 3cac 624B     		ldr	r3, .L741+16
 11094 3cae 5A70     		strb	r2, [r3, #1]
2321:.\main.c      **** 			for(x=1;x<=7;x++){						//Id de Venta
 11095              		.loc 1 2321 0
 11096 3cb0 0123     		movs	r3, #1
 11097 3cb2 87F82F30 		strb	r3, [r7, #47]
 11098 3cb6 0EE0     		b	.L557
 11099              	.L558:
2322:.\main.c      **** 				rf_mod[44+x]=id_venta[x];
 11100              		.loc 1 2322 0 discriminator 3
 11101 3cb8 97F82F30 		ldrb	r3, [r7, #47]	@ zero_extendqisi2
 11102 3cbc 2C33     		adds	r3, r3, #44
 11103 3cbe 97F82F20 		ldrb	r2, [r7, #47]	@ zero_extendqisi2
 11104 3cc2 5D49     		ldr	r1, .L741+16
 11105 3cc4 8A5C     		ldrb	r2, [r1, r2]
 11106 3cc6 D1B2     		uxtb	r1, r2
 11107 3cc8 584A     		ldr	r2, .L741+4
 11108 3cca D154     		strb	r1, [r2, r3]
2321:.\main.c      **** 			for(x=1;x<=7;x++){						//Id de Venta
 11109              		.loc 1 2321 0 discriminator 3
 11110 3ccc 97F82F30 		ldrb	r3, [r7, #47]	@ zero_extendqisi2
 11111 3cd0 0133     		adds	r3, r3, #1
 11112 3cd2 87F82F30 		strb	r3, [r7, #47]
 11113              	.L557:
2321:.\main.c      **** 			for(x=1;x<=7;x++){						//Id de Venta
 11114              		.loc 1 2321 0 is_stmt 0 discriminator 1
 11115 3cd6 97F82F30 		ldrb	r3, [r7, #47]	@ zero_extendqisi2
 11116 3cda 072B     		cmp	r3, #7
 11117 3cdc ECD9     		bls	.L558
2323:.\main.c      **** 			}
2324:.\main.c      **** 			for(x=1;x<=4;x++){						//Guarda Id venta
 11118              		.loc 1 2324 0 is_stmt 1
 11119 3cde 0123     		movs	r3, #1
 11120 3ce0 87F82F30 		strb	r3, [r7, #47]
 11121 3ce4 10E0     		b	.L559
 11122              	.L560:
2325:.\main.c      **** 				EEPROM_WriteByte(id_venta[x],x);
 11123              		.loc 1 2325 0 discriminator 3
 11124 3ce6 97F82F30 		ldrb	r3, [r7, #47]	@ zero_extendqisi2
 11125 3cea 534A     		ldr	r2, .L741+16
 11126 3cec D35C     		ldrb	r3, [r2, r3]
 11127 3cee DAB2     		uxtb	r2, r3
 11128 3cf0 97F82F30 		ldrb	r3, [r7, #47]	@ zero_extendqisi2
 11129 3cf4 9BB2     		uxth	r3, r3
ARM GAS  C:\Users\RECEPC~1\AppData\Local\Temp\ccIpe7td.s 			page 241


 11130 3cf6 1046     		mov	r0, r2
 11131 3cf8 1946     		mov	r1, r3
 11132 3cfa FFF7FEFF 		bl	EEPROM_WriteByte
2324:.\main.c      **** 				EEPROM_WriteByte(id_venta[x],x);
 11133              		.loc 1 2324 0 discriminator 3
 11134 3cfe 97F82F30 		ldrb	r3, [r7, #47]	@ zero_extendqisi2
 11135 3d02 0133     		adds	r3, r3, #1
 11136 3d04 87F82F30 		strb	r3, [r7, #47]
 11137              	.L559:
2324:.\main.c      **** 				EEPROM_WriteByte(id_venta[x],x);
 11138              		.loc 1 2324 0 is_stmt 0 discriminator 1
 11139 3d08 97F82F30 		ldrb	r3, [r7, #47]	@ zero_extendqisi2
 11140 3d0c 042B     		cmp	r3, #4
 11141 3d0e EAD9     		bls	.L560
2326:.\main.c      **** 			}
2327:.\main.c      **** 			for(x=0;x<=6;x++){						//Km
 11142              		.loc 1 2327 0 is_stmt 1
 11143 3d10 0023     		movs	r3, #0
 11144 3d12 87F82F30 		strb	r3, [r7, #47]
 11145 3d16 12E0     		b	.L561
 11146              	.L562:
2328:.\main.c      **** 				rf_mod[52+x]=rventa2.km[x+1] + 48;
 11147              		.loc 1 2328 0 discriminator 3
 11148 3d18 97F82F30 		ldrb	r3, [r7, #47]	@ zero_extendqisi2
 11149 3d1c 3433     		adds	r3, r3, #52
 11150 3d1e 97F82F20 		ldrb	r2, [r7, #47]	@ zero_extendqisi2
 11151 3d22 0132     		adds	r2, r2, #1
 11152 3d24 4049     		ldr	r1, .L741
 11153 3d26 0A44     		add	r2, r2, r1
 11154 3d28 92F84320 		ldrb	r2, [r2, #67]	@ zero_extendqisi2
 11155 3d2c 3032     		adds	r2, r2, #48
 11156 3d2e D1B2     		uxtb	r1, r2
 11157 3d30 3E4A     		ldr	r2, .L741+4
 11158 3d32 D154     		strb	r1, [r2, r3]
2327:.\main.c      **** 				rf_mod[52+x]=rventa2.km[x+1] + 48;
 11159              		.loc 1 2327 0 discriminator 3
 11160 3d34 97F82F30 		ldrb	r3, [r7, #47]	@ zero_extendqisi2
 11161 3d38 0133     		adds	r3, r3, #1
 11162 3d3a 87F82F30 		strb	r3, [r7, #47]
 11163              	.L561:
2327:.\main.c      **** 				rf_mod[52+x]=rventa2.km[x+1] + 48;
 11164              		.loc 1 2327 0 is_stmt 0 discriminator 1
 11165 3d3e 97F82F30 		ldrb	r3, [r7, #47]	@ zero_extendqisi2
 11166 3d42 062B     		cmp	r3, #6
 11167 3d44 E8D9     		bls	.L562
2329:.\main.c      **** 			}				
2330:.\main.c      **** 			rf_mod[59]='*';
 11168              		.loc 1 2330 0 is_stmt 1
 11169 3d46 394B     		ldr	r3, .L741+4
 11170 3d48 2A22     		movs	r2, #42
 11171 3d4a 83F83B20 		strb	r2, [r3, #59]
2331:.\main.c      **** 			PC_ClearRxBuffer();				
 11172              		.loc 1 2331 0
 11173 3d4e FFF7FEFF 		bl	PC_ClearRxBuffer
2332:.\main.c      **** 		    for(x=0;x<=59;x++){
 11174              		.loc 1 2332 0
 11175 3d52 0023     		movs	r3, #0
ARM GAS  C:\Users\RECEPC~1\AppData\Local\Temp\ccIpe7td.s 			page 242


 11176 3d54 87F82F30 		strb	r3, [r7, #47]
 11177 3d58 0BE0     		b	.L563
 11178              	.L564:
2333:.\main.c      **** 			   PC_PutChar(rf_mod[x]);
 11179              		.loc 1 2333 0 discriminator 3
 11180 3d5a 97F82F30 		ldrb	r3, [r7, #47]	@ zero_extendqisi2
 11181 3d5e 334A     		ldr	r2, .L741+4
 11182 3d60 D35C     		ldrb	r3, [r2, r3]	@ zero_extendqisi2
 11183 3d62 1846     		mov	r0, r3
 11184 3d64 FFF7FEFF 		bl	PC_PutChar
2332:.\main.c      **** 		    for(x=0;x<=59;x++){
 11185              		.loc 1 2332 0 discriminator 3
 11186 3d68 97F82F30 		ldrb	r3, [r7, #47]	@ zero_extendqisi2
 11187 3d6c 0133     		adds	r3, r3, #1
 11188 3d6e 87F82F30 		strb	r3, [r7, #47]
 11189              	.L563:
2332:.\main.c      **** 		    for(x=0;x<=59;x++){
 11190              		.loc 1 2332 0 is_stmt 0 discriminator 1
 11191 3d72 97F82F30 		ldrb	r3, [r7, #47]	@ zero_extendqisi2
 11192 3d76 3B2B     		cmp	r3, #59
 11193 3d78 EFD9     		bls	.L564
2334:.\main.c      **** 		    }            
2335:.\main.c      ****             PC_ClearRxBuffer();
 11194              		.loc 1 2335 0 is_stmt 1
 11195 3d7a FFF7FEFF 		bl	PC_ClearRxBuffer
2336:.\main.c      **** 			CyDelay(300);
 11196              		.loc 1 2336 0
 11197 3d7e 4FF49670 		mov	r0, #300
 11198 3d82 FFF7FEFF 		bl	CyDelay
2337:.\main.c      ****             PC_ClearTxBuffer();				
 11199              		.loc 1 2337 0
 11200 3d86 FFF7FEFF 		bl	PC_ClearTxBuffer
2338:.\main.c      ****             estado_tanqueando=0;				
 11201              		.loc 1 2338 0
 11202 3d8a 2E4B     		ldr	r3, .L741+28
 11203 3d8c 0022     		movs	r2, #0
 11204 3d8e 1A70     		strb	r2, [r3]
2339:.\main.c      **** 			precio[0]=lado1.ppu[rventa2.producto-1][0];
 11205              		.loc 1 2339 0
 11206 3d90 254B     		ldr	r3, .L741
 11207 3d92 5B7E     		ldrb	r3, [r3, #25]	@ zero_extendqisi2
 11208 3d94 5A1E     		subs	r2, r3, #1
 11209 3d96 2C49     		ldr	r1, .L741+32
 11210 3d98 1346     		mov	r3, r2
 11211 3d9a 9B00     		lsls	r3, r3, #2
 11212 3d9c 1344     		add	r3, r3, r2
 11213 3d9e 0B44     		add	r3, r3, r1
 11214 3da0 4833     		adds	r3, r3, #72
 11215 3da2 9B78     		ldrb	r3, [r3, #2]
 11216 3da4 DBB2     		uxtb	r3, r3
 11217 3da6 3B73     		strb	r3, [r7, #12]
2340:.\main.c      **** 			precio[1]=lado1.ppu[rventa2.producto-1][1];
 11218              		.loc 1 2340 0
 11219 3da8 1F4B     		ldr	r3, .L741
 11220 3daa 5B7E     		ldrb	r3, [r3, #25]	@ zero_extendqisi2
 11221 3dac 5A1E     		subs	r2, r3, #1
 11222 3dae 2649     		ldr	r1, .L741+32
ARM GAS  C:\Users\RECEPC~1\AppData\Local\Temp\ccIpe7td.s 			page 243


 11223 3db0 1346     		mov	r3, r2
 11224 3db2 9B00     		lsls	r3, r3, #2
 11225 3db4 1344     		add	r3, r3, r2
 11226 3db6 0B44     		add	r3, r3, r1
 11227 3db8 4933     		adds	r3, r3, #73
 11228 3dba 9B78     		ldrb	r3, [r3, #2]
 11229 3dbc DBB2     		uxtb	r3, r3
 11230 3dbe 7B73     		strb	r3, [r7, #13]
2341:.\main.c      **** 			precio[2]=lado1.ppu[rventa2.producto-1][2];
 11231              		.loc 1 2341 0
 11232 3dc0 194B     		ldr	r3, .L741
 11233 3dc2 5B7E     		ldrb	r3, [r3, #25]	@ zero_extendqisi2
 11234 3dc4 5A1E     		subs	r2, r3, #1
 11235 3dc6 2049     		ldr	r1, .L741+32
 11236 3dc8 1346     		mov	r3, r2
 11237 3dca 9B00     		lsls	r3, r3, #2
 11238 3dcc 1344     		add	r3, r3, r2
 11239 3dce 0B44     		add	r3, r3, r1
 11240 3dd0 4A33     		adds	r3, r3, #74
 11241 3dd2 9B78     		ldrb	r3, [r3, #2]
 11242 3dd4 DBB2     		uxtb	r3, r3
 11243 3dd6 BB73     		strb	r3, [r7, #14]
2342:.\main.c      **** 			precio[3]=lado1.ppu[rventa2.producto-1][3];
 11244              		.loc 1 2342 0
 11245 3dd8 134B     		ldr	r3, .L741
 11246 3dda 5B7E     		ldrb	r3, [r3, #25]	@ zero_extendqisi2
 11247 3ddc 5A1E     		subs	r2, r3, #1
 11248 3dde 1A49     		ldr	r1, .L741+32
 11249 3de0 1346     		mov	r3, r2
 11250 3de2 9B00     		lsls	r3, r3, #2
 11251 3de4 1344     		add	r3, r3, r2
 11252 3de6 0B44     		add	r3, r3, r1
 11253 3de8 4B33     		adds	r3, r3, #75
 11254 3dea 9B78     		ldrb	r3, [r3, #2]
 11255 3dec DBB2     		uxtb	r3, r3
 11256 3dee FB73     		strb	r3, [r7, #15]
2343:.\main.c      **** 			precio[4]=lado1.ppu[rventa2.producto-1][4];
 11257              		.loc 1 2343 0
 11258 3df0 0D4B     		ldr	r3, .L741
 11259 3df2 5B7E     		ldrb	r3, [r3, #25]	@ zero_extendqisi2
 11260 3df4 5A1E     		subs	r2, r3, #1
 11261 3df6 1449     		ldr	r1, .L741+32
 11262 3df8 1346     		mov	r3, r2
 11263 3dfa 9B00     		lsls	r3, r3, #2
 11264 3dfc 1344     		add	r3, r3, r2
 11265 3dfe 0B44     		add	r3, r3, r1
 11266 3e00 4C33     		adds	r3, r3, #76
 11267 3e02 9B78     		ldrb	r3, [r3, #2]
 11268 3e04 DBB2     		uxtb	r3, r3
 11269 3e06 3B74     		strb	r3, [r7, #16]
2344:.\main.c      **** 			cambiar_precio(lado2.dir,precio,rventa2.producto);
 11270              		.loc 1 2344 0
 11271 3e08 104B     		ldr	r3, .L741+36
 11272 3e0a 1B78     		ldrb	r3, [r3]
 11273 3e0c D9B2     		uxtb	r1, r3
 11274 3e0e 064B     		ldr	r3, .L741
 11275 3e10 5B7E     		ldrb	r3, [r3, #25]	@ zero_extendqisi2
ARM GAS  C:\Users\RECEPC~1\AppData\Local\Temp\ccIpe7td.s 			page 244


 11276 3e12 07F10C02 		add	r2, r7, #12
 11277 3e16 0846     		mov	r0, r1
 11278 3e18 1146     		mov	r1, r2
 11279 3e1a 1A46     		mov	r2, r3
 11280 3e1c FFF7FEFF 		bl	cambiar_precio
2345:.\main.c      ****         }
2346:.\main.c      ****   
2347:.\main.c      **** 		break;
 11281              		.loc 1 2347 0
 11282 3e20 00F0FEBF 		b	.L131
 11283              	.L542:
 11284              		.loc 1 2347 0 is_stmt 0 discriminator 13
 11285 3e24 00F0FCBF 		b	.L131
 11286              	.L742:
 11287              		.align	2
 11288              	.L741:
 11289 3e28 00000000 		.word	rventa2
 11290 3e2c 00000000 		.word	rf_mod
 11291 3e30 00000000 		.word	num_decimal2
 11292 3e34 D34D6210 		.word	274877907
 11293 3e38 00000000 		.word	id_venta
 11294 3e3c 1F85EB51 		.word	1374389535
 11295 3e40 CDCCCCCC 		.word	-858993459
 11296 3e44 00000000 		.word	estado_tanqueando
 11297 3e48 00000000 		.word	lado1
 11298 3e4c 00000000 		.word	lado2
 11299              	.L146:
2348:.\main.c      ****          
2349:.\main.c      ****         case 14:
2350:.\main.c      **** 	        if(LCD_1_GetRxBufferSize()==8){
 11300              		.loc 1 2350 0 is_stmt 1
 11301 3e50 FFF7FEFF 		bl	LCD_1_GetRxBufferSize
 11302 3e54 0346     		mov	r3, r0
 11303 3e56 082B     		cmp	r3, #8
 11304 3e58 40F00B81 		bne	.L565
2351:.\main.c      **** 	            if((LCD_1_rxBuffer[0]==0xAA) && (LCD_1_rxBuffer[6]==0xC3) && (LCD_1_rxBuffer[7]==0x3C)
 11305              		.loc 1 2351 0
 11306 3e5c A24B     		ldr	r3, .L743
 11307 3e5e 1B78     		ldrb	r3, [r3]
 11308 3e60 DBB2     		uxtb	r3, r3
 11309 3e62 AA2B     		cmp	r3, #170
 11310 3e64 40F0FE80 		bne	.L566
 11311              		.loc 1 2351 0 is_stmt 0 discriminator 1
 11312 3e68 9F4B     		ldr	r3, .L743
 11313 3e6a 9B79     		ldrb	r3, [r3, #6]
 11314 3e6c DBB2     		uxtb	r3, r3
 11315 3e6e C32B     		cmp	r3, #195
 11316 3e70 40F0F880 		bne	.L566
 11317              		.loc 1 2351 0 discriminator 2
 11318 3e74 9C4B     		ldr	r3, .L743
 11319 3e76 DB79     		ldrb	r3, [r3, #7]
 11320 3e78 DBB2     		uxtb	r3, r3
 11321 3e7a 3C2B     		cmp	r3, #60
 11322 3e7c 40F0F280 		bne	.L566
2352:.\main.c      **** 	                if(count_teclas1<teclas1){
 11323              		.loc 1 2352 0 is_stmt 1
 11324 3e80 9A4B     		ldr	r3, .L743+4
ARM GAS  C:\Users\RECEPC~1\AppData\Local\Temp\ccIpe7td.s 			page 245


 11325 3e82 1B78     		ldrb	r3, [r3]
 11326 3e84 DAB2     		uxtb	r2, r3
 11327 3e86 9A4B     		ldr	r3, .L743+8
 11328 3e88 1B78     		ldrb	r3, [r3]
 11329 3e8a DBB2     		uxtb	r3, r3
 11330 3e8c 9A42     		cmp	r2, r3
 11331 3e8e 6CD2     		bcs	.L567
2353:.\main.c      **** 	                    if(LCD_1_rxBuffer[3]<=9){
 11332              		.loc 1 2353 0
 11333 3e90 954B     		ldr	r3, .L743
 11334 3e92 DB78     		ldrb	r3, [r3, #3]
 11335 3e94 DBB2     		uxtb	r3, r3
 11336 3e96 092B     		cmp	r3, #9
 11337 3e98 33D8     		bhi	.L568
2354:.\main.c      **** 	                        rventa1.password[count_teclas1+1]=LCD_1_rxBuffer[3]+0x30;
 11338              		.loc 1 2354 0
 11339 3e9a 944B     		ldr	r3, .L743+4
 11340 3e9c 1B78     		ldrb	r3, [r3]
 11341 3e9e DBB2     		uxtb	r3, r3
 11342 3ea0 0133     		adds	r3, r3, #1
 11343 3ea2 914A     		ldr	r2, .L743
 11344 3ea4 D278     		ldrb	r2, [r2, #3]
 11345 3ea6 D2B2     		uxtb	r2, r2
 11346 3ea8 3032     		adds	r2, r2, #48
 11347 3eaa D1B2     		uxtb	r1, r2
 11348 3eac 914A     		ldr	r2, .L743+12
 11349 3eae 1344     		add	r3, r3, r2
 11350 3eb0 0A46     		mov	r2, r1
 11351 3eb2 83F86420 		strb	r2, [r3, #100]
2355:.\main.c      **** 	                        write_LCD(1,'*', posy1, ((count_teclas1*(sizeletra1+1))+posx1), sizeletra1
 11352              		.loc 1 2355 0
 11353 3eb6 904B     		ldr	r3, .L743+16
 11354 3eb8 1B88     		ldrh	r3, [r3]	@ movhi
 11355 3eba 9DB2     		uxth	r5, r3
 11356 3ebc 8B4B     		ldr	r3, .L743+4
 11357 3ebe 1B78     		ldrb	r3, [r3]
 11358 3ec0 DBB2     		uxtb	r3, r3
 11359 3ec2 9BB2     		uxth	r3, r3
 11360 3ec4 8D4A     		ldr	r2, .L743+20
 11361 3ec6 1288     		ldrh	r2, [r2]	@ movhi
 11362 3ec8 92B2     		uxth	r2, r2
 11363 3eca 0132     		adds	r2, r2, #1
 11364 3ecc 92B2     		uxth	r2, r2
 11365 3ece 02FB03F3 		mul	r3, r2, r3
 11366 3ed2 9AB2     		uxth	r2, r3
 11367 3ed4 8A4B     		ldr	r3, .L743+24
 11368 3ed6 1B88     		ldrh	r3, [r3]	@ movhi
 11369 3ed8 9BB2     		uxth	r3, r3
 11370 3eda 1344     		add	r3, r3, r2
 11371 3edc 9CB2     		uxth	r4, r3
 11372 3ede 874B     		ldr	r3, .L743+20
 11373 3ee0 1B88     		ldrh	r3, [r3]	@ movhi
 11374 3ee2 9BB2     		uxth	r3, r3
 11375 3ee4 DBB2     		uxtb	r3, r3
 11376 3ee6 0093     		str	r3, [sp]
 11377 3ee8 0120     		movs	r0, #1
 11378 3eea 2A21     		movs	r1, #42
ARM GAS  C:\Users\RECEPC~1\AppData\Local\Temp\ccIpe7td.s 			page 246


 11379 3eec 2A46     		mov	r2, r5
 11380 3eee 2346     		mov	r3, r4
 11381 3ef0 FFF7FEFF 		bl	write_LCD
2356:.\main.c      **** 	                        count_teclas1++;                        
 11382              		.loc 1 2356 0
 11383 3ef4 7D4B     		ldr	r3, .L743+4
 11384 3ef6 1B78     		ldrb	r3, [r3]
 11385 3ef8 DBB2     		uxtb	r3, r3
 11386 3efa 0133     		adds	r3, r3, #1
 11387 3efc DAB2     		uxtb	r2, r3
 11388 3efe 7B4B     		ldr	r3, .L743+4
 11389 3f00 1A70     		strb	r2, [r3]
 11390              	.L568:
2357:.\main.c      **** 	                    }
2358:.\main.c      **** 	                    if(LCD_1_rxBuffer[3]==0x0A){            //Comando de 0
 11391              		.loc 1 2358 0
 11392 3f02 794B     		ldr	r3, .L743
 11393 3f04 DB78     		ldrb	r3, [r3, #3]
 11394 3f06 DBB2     		uxtb	r3, r3
 11395 3f08 0A2B     		cmp	r3, #10
 11396 3f0a 2ED1     		bne	.L567
2359:.\main.c      **** 	                        rventa1.password[count_teclas1+1]=0x30;
 11397              		.loc 1 2359 0
 11398 3f0c 774B     		ldr	r3, .L743+4
 11399 3f0e 1B78     		ldrb	r3, [r3]
 11400 3f10 DBB2     		uxtb	r3, r3
 11401 3f12 0133     		adds	r3, r3, #1
 11402 3f14 774A     		ldr	r2, .L743+12
 11403 3f16 1344     		add	r3, r3, r2
 11404 3f18 3022     		movs	r2, #48
 11405 3f1a 83F86420 		strb	r2, [r3, #100]
2360:.\main.c      **** 	                        write_LCD(1,'*', posy1, ((count_teclas1*(sizeletra1+1))+posx1), sizeletra1
 11406              		.loc 1 2360 0
 11407 3f1e 764B     		ldr	r3, .L743+16
 11408 3f20 1B88     		ldrh	r3, [r3]	@ movhi
 11409 3f22 9DB2     		uxth	r5, r3
 11410 3f24 714B     		ldr	r3, .L743+4
 11411 3f26 1B78     		ldrb	r3, [r3]
 11412 3f28 DBB2     		uxtb	r3, r3
 11413 3f2a 9BB2     		uxth	r3, r3
 11414 3f2c 734A     		ldr	r2, .L743+20
 11415 3f2e 1288     		ldrh	r2, [r2]	@ movhi
 11416 3f30 92B2     		uxth	r2, r2
 11417 3f32 0132     		adds	r2, r2, #1
 11418 3f34 92B2     		uxth	r2, r2
 11419 3f36 02FB03F3 		mul	r3, r2, r3
 11420 3f3a 9AB2     		uxth	r2, r3
 11421 3f3c 704B     		ldr	r3, .L743+24
 11422 3f3e 1B88     		ldrh	r3, [r3]	@ movhi
 11423 3f40 9BB2     		uxth	r3, r3
 11424 3f42 1344     		add	r3, r3, r2
 11425 3f44 9CB2     		uxth	r4, r3
 11426 3f46 6D4B     		ldr	r3, .L743+20
 11427 3f48 1B88     		ldrh	r3, [r3]	@ movhi
 11428 3f4a 9BB2     		uxth	r3, r3
 11429 3f4c DBB2     		uxtb	r3, r3
 11430 3f4e 0093     		str	r3, [sp]
ARM GAS  C:\Users\RECEPC~1\AppData\Local\Temp\ccIpe7td.s 			page 247


 11431 3f50 0120     		movs	r0, #1
 11432 3f52 2A21     		movs	r1, #42
 11433 3f54 2A46     		mov	r2, r5
 11434 3f56 2346     		mov	r3, r4
 11435 3f58 FFF7FEFF 		bl	write_LCD
2361:.\main.c      **** 	                        count_teclas1++;                        
 11436              		.loc 1 2361 0
 11437 3f5c 634B     		ldr	r3, .L743+4
 11438 3f5e 1B78     		ldrb	r3, [r3]
 11439 3f60 DBB2     		uxtb	r3, r3
 11440 3f62 0133     		adds	r3, r3, #1
 11441 3f64 DAB2     		uxtb	r2, r3
 11442 3f66 614B     		ldr	r3, .L743+4
 11443 3f68 1A70     		strb	r2, [r3]
 11444              	.L567:
2362:.\main.c      **** 	                    }                    
2363:.\main.c      **** 	                }
2364:.\main.c      **** 	                if(LCD_1_rxBuffer[3]==0x0B){                //Cancelar      
 11445              		.loc 1 2364 0
 11446 3f6a 5F4B     		ldr	r3, .L743
 11447 3f6c DB78     		ldrb	r3, [r3, #3]
 11448 3f6e DBB2     		uxtb	r3, r3
 11449 3f70 0B2B     		cmp	r3, #11
 11450 3f72 2ED1     		bne	.L569
2365:.\main.c      **** 	                    if(teclas1==0){
 11451              		.loc 1 2365 0
 11452 3f74 5E4B     		ldr	r3, .L743+8
 11453 3f76 1B78     		ldrb	r3, [r3]
 11454 3f78 DBB2     		uxtb	r3, r3
 11455 3f7a 002B     		cmp	r3, #0
 11456 3f7c 03D1     		bne	.L570
2366:.\main.c      **** 	                        flujo_LCD1=0;
 11457              		.loc 1 2366 0
 11458 3f7e 614B     		ldr	r3, .L743+28
 11459 3f80 0022     		movs	r2, #0
 11460 3f82 1A70     		strb	r2, [r3]
 11461 3f84 25E0     		b	.L569
 11462              	.L570:
2367:.\main.c      **** 	                    }
2368:.\main.c      **** 	                    else{
2369:.\main.c      **** 	                        count_teclas1--;                                        
 11463              		.loc 1 2369 0
 11464 3f86 594B     		ldr	r3, .L743+4
 11465 3f88 1B78     		ldrb	r3, [r3]
 11466 3f8a DBB2     		uxtb	r3, r3
 11467 3f8c 013B     		subs	r3, r3, #1
 11468 3f8e DAB2     		uxtb	r2, r3
 11469 3f90 564B     		ldr	r3, .L743+4
 11470 3f92 1A70     		strb	r2, [r3]
2370:.\main.c      **** 	                        write_LCD(1,0x20, posy1, ((count_teclas1*(sizeletra1+1))+posx1), sizeletra
 11471              		.loc 1 2370 0
 11472 3f94 584B     		ldr	r3, .L743+16
 11473 3f96 1B88     		ldrh	r3, [r3]	@ movhi
 11474 3f98 9DB2     		uxth	r5, r3
 11475 3f9a 544B     		ldr	r3, .L743+4
 11476 3f9c 1B78     		ldrb	r3, [r3]
 11477 3f9e DBB2     		uxtb	r3, r3
ARM GAS  C:\Users\RECEPC~1\AppData\Local\Temp\ccIpe7td.s 			page 248


 11478 3fa0 9BB2     		uxth	r3, r3
 11479 3fa2 564A     		ldr	r2, .L743+20
 11480 3fa4 1288     		ldrh	r2, [r2]	@ movhi
 11481 3fa6 92B2     		uxth	r2, r2
 11482 3fa8 0132     		adds	r2, r2, #1
 11483 3faa 92B2     		uxth	r2, r2
 11484 3fac 02FB03F3 		mul	r3, r2, r3
 11485 3fb0 9AB2     		uxth	r2, r3
 11486 3fb2 534B     		ldr	r3, .L743+24
 11487 3fb4 1B88     		ldrh	r3, [r3]	@ movhi
 11488 3fb6 9BB2     		uxth	r3, r3
 11489 3fb8 1344     		add	r3, r3, r2
 11490 3fba 9CB2     		uxth	r4, r3
 11491 3fbc 4F4B     		ldr	r3, .L743+20
 11492 3fbe 1B88     		ldrh	r3, [r3]	@ movhi
 11493 3fc0 9BB2     		uxth	r3, r3
 11494 3fc2 DBB2     		uxtb	r3, r3
 11495 3fc4 0093     		str	r3, [sp]
 11496 3fc6 0120     		movs	r0, #1
 11497 3fc8 2021     		movs	r1, #32
 11498 3fca 2A46     		mov	r2, r5
 11499 3fcc 2346     		mov	r3, r4
 11500 3fce FFF7FEFF 		bl	write_LCD
 11501              	.L569:
2371:.\main.c      **** 	                    }
2372:.\main.c      **** 	                }
2373:.\main.c      **** 	                if(LCD_1_rxBuffer[3]==0x0C){                //Enter
 11502              		.loc 1 2373 0
 11503 3fd2 454B     		ldr	r3, .L743
 11504 3fd4 DB78     		ldrb	r3, [r3, #3]
 11505 3fd6 DBB2     		uxtb	r3, r3
 11506 3fd8 0C2B     		cmp	r3, #12
 11507 3fda 43D1     		bne	.L566
2374:.\main.c      **** 	                    if(count_teclas1>=1){
 11508              		.loc 1 2374 0
 11509 3fdc 434B     		ldr	r3, .L743+4
 11510 3fde 1B78     		ldrb	r3, [r3]
 11511 3fe0 DBB2     		uxtb	r3, r3
 11512 3fe2 002B     		cmp	r3, #0
 11513 3fe4 3ED0     		beq	.L566
2375:.\main.c      **** 	                        rventa1.password[0]=count_teclas1;
 11514              		.loc 1 2375 0
 11515 3fe6 414B     		ldr	r3, .L743+4
 11516 3fe8 1B78     		ldrb	r3, [r3]
 11517 3fea DAB2     		uxtb	r2, r3
 11518 3fec 414B     		ldr	r3, .L743+12
 11519 3fee 83F86420 		strb	r2, [r3, #100]
2376:.\main.c      **** 							y=0;
 11520              		.loc 1 2376 0
 11521 3ff2 0023     		movs	r3, #0
 11522 3ff4 87F82E30 		strb	r3, [r7, #46]
2377:.\main.c      **** 							if(rventa1.password[0]==4){
 11523              		.loc 1 2377 0
 11524 3ff8 3E4B     		ldr	r3, .L743+12
 11525 3ffa 93F86430 		ldrb	r3, [r3, #100]	@ zero_extendqisi2
 11526 3ffe 042B     		cmp	r3, #4
 11527 4000 2DD1     		bne	.L571
ARM GAS  C:\Users\RECEPC~1\AppData\Local\Temp\ccIpe7td.s 			page 249


2378:.\main.c      **** 								for(x=1;x<=4;x++){
 11528              		.loc 1 2378 0
 11529 4002 0123     		movs	r3, #1
 11530 4004 87F82F30 		strb	r3, [r7, #47]
 11531 4008 15E0     		b	.L572
 11532              	.L574:
2379:.\main.c      **** 									if(rventa1.password[x]==clave_config[x]){
 11533              		.loc 1 2379 0
 11534 400a 97F82F30 		ldrb	r3, [r7, #47]	@ zero_extendqisi2
 11535 400e 394A     		ldr	r2, .L743+12
 11536 4010 1344     		add	r3, r3, r2
 11537 4012 93F86420 		ldrb	r2, [r3, #100]	@ zero_extendqisi2
 11538 4016 97F82F30 		ldrb	r3, [r7, #47]	@ zero_extendqisi2
 11539 401a 3B49     		ldr	r1, .L743+32
 11540 401c CB5C     		ldrb	r3, [r1, r3]	@ zero_extendqisi2
 11541 401e 9A42     		cmp	r2, r3
 11542 4020 04D1     		bne	.L573
2380:.\main.c      **** 										y++;
 11543              		.loc 1 2380 0
 11544 4022 97F82E30 		ldrb	r3, [r7, #46]	@ zero_extendqisi2
 11545 4026 0133     		adds	r3, r3, #1
 11546 4028 87F82E30 		strb	r3, [r7, #46]
 11547              	.L573:
2378:.\main.c      **** 								for(x=1;x<=4;x++){
 11548              		.loc 1 2378 0 discriminator 2
 11549 402c 97F82F30 		ldrb	r3, [r7, #47]	@ zero_extendqisi2
 11550 4030 0133     		adds	r3, r3, #1
 11551 4032 87F82F30 		strb	r3, [r7, #47]
 11552              	.L572:
2378:.\main.c      **** 								for(x=1;x<=4;x++){
 11553              		.loc 1 2378 0 is_stmt 0 discriminator 1
 11554 4036 97F82F30 		ldrb	r3, [r7, #47]	@ zero_extendqisi2
 11555 403a 042B     		cmp	r3, #4
 11556 403c E5D9     		bls	.L574
2381:.\main.c      **** 									}
2382:.\main.c      **** 								}
2383:.\main.c      **** 								if(y==4){
 11557              		.loc 1 2383 0 is_stmt 1
 11558 403e 97F82E30 		ldrb	r3, [r7, #46]	@ zero_extendqisi2
 11559 4042 042B     		cmp	r3, #4
 11560 4044 07D1     		bne	.L575
2384:.\main.c      **** 			                        flujo_LCD1=15;
 11561              		.loc 1 2384 0
 11562 4046 2F4B     		ldr	r3, .L743+28
 11563 4048 0F22     		movs	r2, #15
 11564 404a 1A70     		strb	r2, [r3]
2385:.\main.c      **** 			                        set_imagen(1,93);								
 11565              		.loc 1 2385 0
 11566 404c 0120     		movs	r0, #1
 11567 404e 5D21     		movs	r1, #93
 11568 4050 FFF7FEFF 		bl	set_imagen
 11569 4054 06E0     		b	.L566
 11570              	.L575:
2386:.\main.c      **** 								}
2387:.\main.c      **** 								else{
2388:.\main.c      **** 			                        flujo_LCD1=0;							
 11571              		.loc 1 2388 0
ARM GAS  C:\Users\RECEPC~1\AppData\Local\Temp\ccIpe7td.s 			page 250


 11572 4056 2B4B     		ldr	r3, .L743+28
 11573 4058 0022     		movs	r2, #0
 11574 405a 1A70     		strb	r2, [r3]
 11575 405c 02E0     		b	.L566
 11576              	.L571:
2389:.\main.c      **** 								}
2390:.\main.c      **** 							}
2391:.\main.c      **** 							else{
2392:.\main.c      **** 		                        flujo_LCD1=0;						
 11577              		.loc 1 2392 0
 11578 405e 294B     		ldr	r3, .L743+28
 11579 4060 0022     		movs	r2, #0
 11580 4062 1A70     		strb	r2, [r3]
 11581              	.L566:
2393:.\main.c      **** 							}
2394:.\main.c      **** 	                    }
2395:.\main.c      **** 	                }
2396:.\main.c      **** 	            }
2397:.\main.c      **** 	            CyDelay(100);            //Caso 14 sin segunda posición
 11582              		.loc 1 2397 0
 11583 4064 6420     		movs	r0, #100
 11584 4066 FFF7FEFF 		bl	CyDelay
2398:.\main.c      **** 	            LCD_1_ClearRxBuffer();
 11585              		.loc 1 2398 0
 11586 406a FFF7FEFF 		bl	LCD_1_ClearRxBuffer
2399:.\main.c      **** 	        }         			
2400:.\main.c      **** 		break;
 11587              		.loc 1 2400 0
 11588 406e 00F0D7BE 		b	.L131
 11589              	.L565:
 11590              		.loc 1 2400 0 is_stmt 0 discriminator 14
 11591 4072 00F0D5BE 		b	.L131
 11592              	.L147:
2401:.\main.c      ****             
2402:.\main.c      ****         case 15:
2403:.\main.c      **** 	        if(LCD_1_GetRxBufferSize()==8){
 11593              		.loc 1 2403 0 is_stmt 1
 11594 4076 FFF7FEFF 		bl	LCD_1_GetRxBufferSize
 11595 407a 0346     		mov	r3, r0
 11596 407c 082B     		cmp	r3, #8
 11597 407e 40F09880 		bne	.L577
2404:.\main.c      **** 	            if((LCD_1_rxBuffer[0]==0xAA) && (LCD_1_rxBuffer[6]==0xC3) && (LCD_1_rxBuffer[7]==0x3C)
 11598              		.loc 1 2404 0
 11599 4082 194B     		ldr	r3, .L743
 11600 4084 1B78     		ldrb	r3, [r3]
 11601 4086 DBB2     		uxtb	r3, r3
 11602 4088 AA2B     		cmp	r3, #170
 11603 408a 40F09280 		bne	.L577
 11604              		.loc 1 2404 0 is_stmt 0 discriminator 1
 11605 408e 164B     		ldr	r3, .L743
 11606 4090 9B79     		ldrb	r3, [r3, #6]
 11607 4092 DBB2     		uxtb	r3, r3
 11608 4094 C32B     		cmp	r3, #195
 11609 4096 40F08C80 		bne	.L577
 11610              		.loc 1 2404 0 discriminator 2
 11611 409a 134B     		ldr	r3, .L743
 11612 409c DB79     		ldrb	r3, [r3, #7]
ARM GAS  C:\Users\RECEPC~1\AppData\Local\Temp\ccIpe7td.s 			page 251


 11613 409e DBB2     		uxtb	r3, r3
 11614 40a0 3C2B     		cmp	r3, #60
 11615 40a2 40F08680 		bne	.L577
2405:.\main.c      **** 	                switch(LCD_1_rxBuffer[3]){
 11616              		.loc 1 2405 0 is_stmt 1
 11617 40a6 104B     		ldr	r3, .L743
 11618 40a8 DB78     		ldrb	r3, [r3, #3]
 11619 40aa DBB2     		uxtb	r3, r3
 11620 40ac B92B     		cmp	r3, #185
 11621 40ae 05D0     		beq	.L578
 11622 40b0 BA2B     		cmp	r3, #186
 11623 40b2 59D0     		beq	.L579
 11624 40b4 7E2B     		cmp	r3, #126
 11625 40b6 74D0     		beq	.L580
2406:.\main.c      ****                         case 0xB9: //Reimpresion
2407:.\main.c      ****                         	rf_mod[0]='M';
2408:.\main.c      **** 			                rf_mod[1]='U';
2409:.\main.c      **** 			                rf_mod[2]='X';
2410:.\main.c      **** 			                rf_mod[3]='3';
2411:.\main.c      ****                             rf_mod[4]='*';
2412:.\main.c      **** 							PC_ClearRxBuffer();				
2413:.\main.c      **** 						    for(x=0;x<=4;x++){
2414:.\main.c      **** 							   PC_PutChar(rf_mod[x]);
2415:.\main.c      **** 						    }
2416:.\main.c      ****                             CyDelay(150);  
2417:.\main.c      **** 							set_imagen(1,0);
2418:.\main.c      **** 							flujo_LCD1=0;
2419:.\main.c      ****                             if(seleccion_pos == 1){
2420:.\main.c      **** 							    lado1.estado=libre;     //Fin de reimpresion  
2421:.\main.c      ****                             }
2422:.\main.c      ****                             if(seleccion_pos == 2){
2423:.\main.c      **** 							    lado2.estado=libre;     //Fin de reimpresion  
2424:.\main.c      ****                             }
2425:.\main.c      ****                         break;
2426:.\main.c      ****                             
2427:.\main.c      ****                         case 0xBA:                                       //Configuracion inicial   
2428:.\main.c      ****                             set_imagen(1,47);
2429:.\main.c      ****                             id_teclado1=5;
2430:.\main.c      **** 					        count_teclas1=0;							 //Inicia el contador de teclas	
2431:.\main.c      **** 					        id_coma1=',';	
2432:.\main.c      ****                             teclas1=4;              						//cantidad de teclas q puede digitar     
2433:.\main.c      **** 					        posx1=4;
2434:.\main.c      **** 					        posy1=3;
2435:.\main.c      **** 					        sizeletra1 = 1;	    
2436:.\main.c      ****                             flujo_LCD1 = 12;
2437:.\main.c      ****                         break;    
2438:.\main.c      ****                             
2439:.\main.c      **** 	                    case 0x7E:					//ir a menu
2440:.\main.c      **** 						  set_imagen(1,74);	
2441:.\main.c      **** 	                      flujo_LCD1=0;     
2442:.\main.c      **** 	                    break;		                            
2443:.\main.c      ****                     }
2444:.\main.c      ****                 }
2445:.\main.c      ****             }
2446:.\main.c      ****         break;
 11626              		.loc 1 2446 0
 11627 40b8 00F0B2BE 		b	.L131
ARM GAS  C:\Users\RECEPC~1\AppData\Local\Temp\ccIpe7td.s 			page 252


 11628              	.L578:
2407:.\main.c      **** 			                rf_mod[1]='U';
 11629              		.loc 1 2407 0
 11630 40bc 134B     		ldr	r3, .L743+36
 11631 40be 4D22     		movs	r2, #77
 11632 40c0 1A70     		strb	r2, [r3]
2408:.\main.c      **** 			                rf_mod[2]='X';
 11633              		.loc 1 2408 0
 11634 40c2 124B     		ldr	r3, .L743+36
 11635 40c4 5522     		movs	r2, #85
 11636 40c6 5A70     		strb	r2, [r3, #1]
2409:.\main.c      **** 			                rf_mod[3]='3';
 11637              		.loc 1 2409 0
 11638 40c8 104B     		ldr	r3, .L743+36
 11639 40ca 5822     		movs	r2, #88
 11640 40cc 9A70     		strb	r2, [r3, #2]
2410:.\main.c      ****                             rf_mod[4]='*';
 11641              		.loc 1 2410 0
 11642 40ce 0F4B     		ldr	r3, .L743+36
 11643 40d0 3322     		movs	r2, #51
 11644 40d2 DA70     		strb	r2, [r3, #3]
2411:.\main.c      **** 							PC_ClearRxBuffer();				
 11645              		.loc 1 2411 0
 11646 40d4 0D4B     		ldr	r3, .L743+36
 11647 40d6 2A22     		movs	r2, #42
 11648 40d8 1A71     		strb	r2, [r3, #4]
2412:.\main.c      **** 						    for(x=0;x<=4;x++){
 11649              		.loc 1 2412 0
 11650 40da FFF7FEFF 		bl	PC_ClearRxBuffer
2413:.\main.c      **** 							   PC_PutChar(rf_mod[x]);
 11651              		.loc 1 2413 0
 11652 40de 0023     		movs	r3, #0
 11653 40e0 87F82F30 		strb	r3, [r7, #47]
 11654 40e4 20E0     		b	.L581
 11655              	.L744:
 11656 40e6 00BF     		.align	2
 11657              	.L743:
 11658 40e8 00000000 		.word	LCD_1_rxBuffer
 11659 40ec 00000000 		.word	count_teclas1
 11660 40f0 00000000 		.word	teclas1
 11661 40f4 00000000 		.word	rventa1
 11662 40f8 00000000 		.word	posy1
 11663 40fc 00000000 		.word	sizeletra1
 11664 4100 00000000 		.word	posx1
 11665 4104 00000000 		.word	flujo_LCD1
 11666 4108 00000000 		.word	clave_config
 11667 410c 00000000 		.word	rf_mod
 11668              	.L582:
2414:.\main.c      **** 						    }
 11669              		.loc 1 2414 0 discriminator 3
 11670 4110 97F82F30 		ldrb	r3, [r7, #47]	@ zero_extendqisi2
 11671 4114 B64A     		ldr	r2, .L745
 11672 4116 D35C     		ldrb	r3, [r2, r3]	@ zero_extendqisi2
 11673 4118 1846     		mov	r0, r3
 11674 411a FFF7FEFF 		bl	PC_PutChar
2413:.\main.c      **** 							   PC_PutChar(rf_mod[x]);
 11675              		.loc 1 2413 0 discriminator 3
ARM GAS  C:\Users\RECEPC~1\AppData\Local\Temp\ccIpe7td.s 			page 253


 11676 411e 97F82F30 		ldrb	r3, [r7, #47]	@ zero_extendqisi2
 11677 4122 0133     		adds	r3, r3, #1
 11678 4124 87F82F30 		strb	r3, [r7, #47]
 11679              	.L581:
2413:.\main.c      **** 							   PC_PutChar(rf_mod[x]);
 11680              		.loc 1 2413 0 is_stmt 0 discriminator 1
 11681 4128 97F82F30 		ldrb	r3, [r7, #47]	@ zero_extendqisi2
 11682 412c 042B     		cmp	r3, #4
 11683 412e EFD9     		bls	.L582
2416:.\main.c      **** 							set_imagen(1,0);
 11684              		.loc 1 2416 0 is_stmt 1
 11685 4130 9620     		movs	r0, #150
 11686 4132 FFF7FEFF 		bl	CyDelay
2417:.\main.c      **** 							flujo_LCD1=0;
 11687              		.loc 1 2417 0
 11688 4136 0120     		movs	r0, #1
 11689 4138 0021     		movs	r1, #0
 11690 413a FFF7FEFF 		bl	set_imagen
2418:.\main.c      ****                             if(seleccion_pos == 1){
 11691              		.loc 1 2418 0
 11692 413e AD4B     		ldr	r3, .L745+4
 11693 4140 0022     		movs	r2, #0
 11694 4142 1A70     		strb	r2, [r3]
2419:.\main.c      **** 							    lado1.estado=libre;     //Fin de reimpresion  
 11695              		.loc 1 2419 0
 11696 4144 AC4B     		ldr	r3, .L745+8
 11697 4146 1B78     		ldrb	r3, [r3]
 11698 4148 DBB2     		uxtb	r3, r3
 11699 414a 012B     		cmp	r3, #1
 11700 414c 02D1     		bne	.L583
2420:.\main.c      ****                             }
 11701              		.loc 1 2420 0
 11702 414e AB4B     		ldr	r3, .L745+12
 11703 4150 0122     		movs	r2, #1
 11704 4152 5A70     		strb	r2, [r3, #1]
 11705              	.L583:
2422:.\main.c      **** 							    lado2.estado=libre;     //Fin de reimpresion  
 11706              		.loc 1 2422 0
 11707 4154 A84B     		ldr	r3, .L745+8
 11708 4156 1B78     		ldrb	r3, [r3]
 11709 4158 DBB2     		uxtb	r3, r3
 11710 415a 022B     		cmp	r3, #2
 11711 415c 03D1     		bne	.L584
2423:.\main.c      ****                             }
 11712              		.loc 1 2423 0
 11713 415e A84B     		ldr	r3, .L745+16
 11714 4160 0122     		movs	r2, #1
 11715 4162 5A70     		strb	r2, [r3, #1]
2425:.\main.c      ****                             
 11716              		.loc 1 2425 0
 11717 4164 25E0     		b	.L577
 11718              	.L584:
 11719 4166 24E0     		b	.L577
 11720              	.L579:
2428:.\main.c      ****                             id_teclado1=5;
 11721              		.loc 1 2428 0
 11722 4168 0120     		movs	r0, #1
ARM GAS  C:\Users\RECEPC~1\AppData\Local\Temp\ccIpe7td.s 			page 254


 11723 416a 2F21     		movs	r1, #47
 11724 416c FFF7FEFF 		bl	set_imagen
2429:.\main.c      **** 					        count_teclas1=0;							 //Inicia el contador de teclas	
 11725              		.loc 1 2429 0
 11726 4170 A44B     		ldr	r3, .L745+20
 11727 4172 0522     		movs	r2, #5
 11728 4174 1A70     		strb	r2, [r3]
2430:.\main.c      **** 					        id_coma1=',';	
 11729              		.loc 1 2430 0
 11730 4176 A44B     		ldr	r3, .L745+24
 11731 4178 0022     		movs	r2, #0
 11732 417a 1A70     		strb	r2, [r3]
2431:.\main.c      ****                             teclas1=4;              						//cantidad de teclas q puede digitar     
 11733              		.loc 1 2431 0
 11734 417c A34B     		ldr	r3, .L745+28
 11735 417e 2C22     		movs	r2, #44
 11736 4180 1A70     		strb	r2, [r3]
2432:.\main.c      **** 					        posx1=4;
 11737              		.loc 1 2432 0
 11738 4182 A34B     		ldr	r3, .L745+32
 11739 4184 0422     		movs	r2, #4
 11740 4186 1A70     		strb	r2, [r3]
2433:.\main.c      **** 					        posy1=3;
 11741              		.loc 1 2433 0
 11742 4188 A24B     		ldr	r3, .L745+36
 11743 418a 0422     		movs	r2, #4
 11744 418c 1A80     		strh	r2, [r3]	@ movhi
2434:.\main.c      **** 					        sizeletra1 = 1;	    
 11745              		.loc 1 2434 0
 11746 418e A24B     		ldr	r3, .L745+40
 11747 4190 0322     		movs	r2, #3
 11748 4192 1A80     		strh	r2, [r3]	@ movhi
2435:.\main.c      ****                             flujo_LCD1 = 12;
 11749              		.loc 1 2435 0
 11750 4194 A14B     		ldr	r3, .L745+44
 11751 4196 0122     		movs	r2, #1
 11752 4198 1A80     		strh	r2, [r3]	@ movhi
2436:.\main.c      ****                         break;    
 11753              		.loc 1 2436 0
 11754 419a 964B     		ldr	r3, .L745+4
 11755 419c 0C22     		movs	r2, #12
 11756 419e 1A70     		strb	r2, [r3]
2437:.\main.c      ****                             
 11757              		.loc 1 2437 0
 11758 41a0 07E0     		b	.L577
 11759              	.L580:
2440:.\main.c      **** 	                      flujo_LCD1=0;     
 11760              		.loc 1 2440 0
 11761 41a2 0120     		movs	r0, #1
 11762 41a4 4A21     		movs	r1, #74
 11763 41a6 FFF7FEFF 		bl	set_imagen
2441:.\main.c      **** 	                    break;		                            
 11764              		.loc 1 2441 0
 11765 41aa 924B     		ldr	r3, .L745+4
 11766 41ac 0022     		movs	r2, #0
 11767 41ae 1A70     		strb	r2, [r3]
2442:.\main.c      ****                     }
ARM GAS  C:\Users\RECEPC~1\AppData\Local\Temp\ccIpe7td.s 			page 255


 11768              		.loc 1 2442 0
 11769 41b0 00BF     		nop
 11770              	.L577:
 11771              		.loc 1 2446 0 discriminator 15
 11772 41b2 00F035BE 		b	.L131
 11773              	.L148:
2447:.\main.c      ****               
2448:.\main.c      ****         case 16:
2449:.\main.c      **** 	        if(LCD_1_GetRxBufferSize()==8){
 11774              		.loc 1 2449 0
 11775 41b6 FFF7FEFF 		bl	LCD_1_GetRxBufferSize
 11776 41ba 0346     		mov	r3, r0
 11777 41bc 082B     		cmp	r3, #8
 11778 41be 6FD1     		bne	.L585
2450:.\main.c      **** 	            if((LCD_1_rxBuffer[0]==0xAA) && (LCD_1_rxBuffer[6]==0xC3) && (LCD_1_rxBuffer[7]==0x3C)
 11779              		.loc 1 2450 0
 11780 41c0 974B     		ldr	r3, .L745+48
 11781 41c2 1B78     		ldrb	r3, [r3]
 11782 41c4 DBB2     		uxtb	r3, r3
 11783 41c6 AA2B     		cmp	r3, #170
 11784 41c8 63D1     		bne	.L586
 11785              		.loc 1 2450 0 is_stmt 0 discriminator 1
 11786 41ca 954B     		ldr	r3, .L745+48
 11787 41cc 9B79     		ldrb	r3, [r3, #6]
 11788 41ce DBB2     		uxtb	r3, r3
 11789 41d0 C32B     		cmp	r3, #195
 11790 41d2 5ED1     		bne	.L586
 11791              		.loc 1 2450 0 discriminator 2
 11792 41d4 924B     		ldr	r3, .L745+48
 11793 41d6 DB79     		ldrb	r3, [r3, #7]
 11794 41d8 DBB2     		uxtb	r3, r3
 11795 41da 3C2B     		cmp	r3, #60
 11796 41dc 59D1     		bne	.L586
2451:.\main.c      **** 	                switch(LCD_1_rxBuffer[3]){
 11797              		.loc 1 2451 0 is_stmt 1
 11798 41de 904B     		ldr	r3, .L745+48
 11799 41e0 DB78     		ldrb	r3, [r3, #3]
 11800 41e2 DBB2     		uxtb	r3, r3
 11801 41e4 802B     		cmp	r3, #128
 11802 41e6 13D0     		beq	.L587
 11803 41e8 802B     		cmp	r3, #128
 11804 41ea 04DC     		bgt	.L588
 11805 41ec 7E2B     		cmp	r3, #126
 11806 41ee 48D0     		beq	.L589
 11807 41f0 7F2B     		cmp	r3, #127
 11808 41f2 05D0     		beq	.L590
 11809 41f4 4DE0     		b	.L586
 11810              	.L588:
 11811 41f6 812B     		cmp	r3, #129
 11812 41f8 27D0     		beq	.L591
 11813 41fa C22B     		cmp	r3, #194
 11814 41fc 2DD0     		beq	.L592
 11815 41fe 48E0     		b	.L586
 11816              	.L590:
2452:.\main.c      ****                         case 0x7F:      //configurar productos                            
2453:.\main.c      ****                             set_imagen(1,88);                            
 11817              		.loc 1 2453 0
ARM GAS  C:\Users\RECEPC~1\AppData\Local\Temp\ccIpe7td.s 			page 256


 11818 4200 0120     		movs	r0, #1
 11819 4202 5821     		movs	r1, #88
 11820 4204 FFF7FEFF 		bl	set_imagen
2454:.\main.c      ****                             flujo_LCD1 = 18;
 11821              		.loc 1 2454 0
 11822 4208 7A4B     		ldr	r3, .L745+4
 11823 420a 1222     		movs	r2, #18
 11824 420c 1A70     		strb	r2, [r3]
2455:.\main.c      ****                         break;
 11825              		.loc 1 2455 0
 11826 420e 40E0     		b	.L586
 11827              	.L587:
2456:.\main.c      ****                         case 0x80:      //configurar version de digitos                            
2457:.\main.c      ****                             set_imagen(1,100);
 11828              		.loc 1 2457 0
 11829 4210 0120     		movs	r0, #1
 11830 4212 6421     		movs	r1, #100
 11831 4214 FFF7FEFF 		bl	set_imagen
2458:.\main.c      ****                             id_teclado1 = 6;
 11832              		.loc 1 2458 0
 11833 4218 7A4B     		ldr	r3, .L745+20
 11834 421a 0622     		movs	r2, #6
 11835 421c 1A70     		strb	r2, [r3]
2459:.\main.c      **** 					        count_teclas1 = 0;							    //Inicia el contador de teclas	
 11836              		.loc 1 2459 0
 11837 421e 7A4B     		ldr	r3, .L745+24
 11838 4220 0022     		movs	r2, #0
 11839 4222 1A70     		strb	r2, [r3]
2460:.\main.c      **** 					        id_coma1=',';	
 11840              		.loc 1 2460 0
 11841 4224 794B     		ldr	r3, .L745+28
 11842 4226 2C22     		movs	r2, #44
 11843 4228 1A70     		strb	r2, [r3]
2461:.\main.c      ****                             teclas1=1;              						//cantidad de teclas q puede digitar     
 11844              		.loc 1 2461 0
 11845 422a 794B     		ldr	r3, .L745+32
 11846 422c 0122     		movs	r2, #1
 11847 422e 1A70     		strb	r2, [r3]
2462:.\main.c      **** 					        posx1=4;
 11848              		.loc 1 2462 0
 11849 4230 784B     		ldr	r3, .L745+36
 11850 4232 0422     		movs	r2, #4
 11851 4234 1A80     		strh	r2, [r3]	@ movhi
2463:.\main.c      **** 					        posy1=3;
 11852              		.loc 1 2463 0
 11853 4236 784B     		ldr	r3, .L745+40
 11854 4238 0322     		movs	r2, #3
 11855 423a 1A80     		strh	r2, [r3]	@ movhi
2464:.\main.c      **** 					        sizeletra1=1;  
 11856              		.loc 1 2464 0
 11857 423c 774B     		ldr	r3, .L745+44
 11858 423e 0122     		movs	r2, #1
 11859 4240 1A80     		strh	r2, [r3]	@ movhi
2465:.\main.c      ****                             flujo_LCD1 = 12;
 11860              		.loc 1 2465 0
 11861 4242 6C4B     		ldr	r3, .L745+4
 11862 4244 0C22     		movs	r2, #12
ARM GAS  C:\Users\RECEPC~1\AppData\Local\Temp\ccIpe7td.s 			page 257


 11863 4246 1A70     		strb	r2, [r3]
2466:.\main.c      ****                         break;
 11864              		.loc 1 2466 0
 11865 4248 23E0     		b	.L586
 11866              	.L591:
2467:.\main.c      ****                         case 0x81:      //configurar ppux10,ppux1
2468:.\main.c      ****                             flujo_LCD1 = 17;
 11867              		.loc 1 2468 0
 11868 424a 6A4B     		ldr	r3, .L745+4
 11869 424c 1122     		movs	r2, #17
 11870 424e 1A70     		strb	r2, [r3]
2469:.\main.c      ****                             set_imagen(1,109);                        
 11871              		.loc 1 2469 0
 11872 4250 0120     		movs	r0, #1
 11873 4252 6D21     		movs	r1, #109
 11874 4254 FFF7FEFF 		bl	set_imagen
2470:.\main.c      ****                         break;
 11875              		.loc 1 2470 0
 11876 4258 1BE0     		b	.L586
 11877              	.L592:
2471:.\main.c      ****                         case 0xC2:      //id estacion   ahora datos ibutton                        
2472:.\main.c      ****                             set_imagen(1,110);                                
 11878              		.loc 1 2472 0
 11879 425a 0120     		movs	r0, #1
 11880 425c 6E21     		movs	r1, #110
 11881 425e FFF7FEFF 		bl	set_imagen
2473:.\main.c      **** 					        posx1=4;
 11882              		.loc 1 2473 0
 11883 4262 6C4B     		ldr	r3, .L745+36
 11884 4264 0422     		movs	r2, #4
 11885 4266 1A80     		strh	r2, [r3]	@ movhi
2474:.\main.c      **** 					        posy1=3;
 11886              		.loc 1 2474 0
 11887 4268 6B4B     		ldr	r3, .L745+40
 11888 426a 0322     		movs	r2, #3
 11889 426c 1A80     		strh	r2, [r3]	@ movhi
2475:.\main.c      **** 					        sizeletra1=1;            
 11890              		.loc 1 2475 0
 11891 426e 6B4B     		ldr	r3, .L745+44
 11892 4270 0122     		movs	r2, #1
 11893 4272 1A80     		strh	r2, [r3]	@ movhi
2476:.\main.c      ****                             flujo_LCD1 = 11;
 11894              		.loc 1 2476 0
 11895 4274 5F4B     		ldr	r3, .L745+4
 11896 4276 0B22     		movs	r2, #11
 11897 4278 1A70     		strb	r2, [r3]
2477:.\main.c      ****                             id_teclado1 = 10;
 11898              		.loc 1 2477 0
 11899 427a 624B     		ldr	r3, .L745+20
 11900 427c 0A22     		movs	r2, #10
 11901 427e 1A70     		strb	r2, [r3]
2478:.\main.c      ****                         break;                             
 11902              		.loc 1 2478 0
 11903 4280 07E0     		b	.L586
 11904              	.L589:
2479:.\main.c      **** 	                    case 0x7E:		//ir a menu
2480:.\main.c      **** 						  set_imagen(1,74);	
ARM GAS  C:\Users\RECEPC~1\AppData\Local\Temp\ccIpe7td.s 			page 258


 11905              		.loc 1 2480 0
 11906 4282 0120     		movs	r0, #1
 11907 4284 4A21     		movs	r1, #74
 11908 4286 FFF7FEFF 		bl	set_imagen
2481:.\main.c      **** 	                      flujo_LCD1=0;     
 11909              		.loc 1 2481 0
 11910 428a 5A4B     		ldr	r3, .L745+4
 11911 428c 0022     		movs	r2, #0
 11912 428e 1A70     		strb	r2, [r3]
2482:.\main.c      **** 	                    break;                                   
 11913              		.loc 1 2482 0
 11914 4290 00BF     		nop
 11915              	.L586:
2483:.\main.c      ****                     }
2484:.\main.c      ****                 }
2485:.\main.c      ****                 CyDelay(100);            
 11916              		.loc 1 2485 0
 11917 4292 6420     		movs	r0, #100
 11918 4294 FFF7FEFF 		bl	CyDelay
2486:.\main.c      **** 	            LCD_1_ClearRxBuffer();
 11919              		.loc 1 2486 0
 11920 4298 FFF7FEFF 		bl	LCD_1_ClearRxBuffer
2487:.\main.c      ****             }            
2488:.\main.c      ****         break;    
 11921              		.loc 1 2488 0
 11922 429c 00F0C0BD 		b	.L131
 11923              	.L585:
 11924              		.loc 1 2488 0 is_stmt 0 discriminator 17
 11925 42a0 00F0BEBD 		b	.L131
 11926              	.L149:
2489:.\main.c      ****             
2490:.\main.c      ****         case 17:
2491:.\main.c      **** 	        if(LCD_1_GetRxBufferSize()==8){
 11927              		.loc 1 2491 0 is_stmt 1
 11928 42a4 FFF7FEFF 		bl	LCD_1_GetRxBufferSize
 11929 42a8 0346     		mov	r3, r0
 11930 42aa 082B     		cmp	r3, #8
 11931 42ac 4BD1     		bne	.L593
2492:.\main.c      **** 	            if((LCD_1_rxBuffer[0]==0xAA) && (LCD_1_rxBuffer[6]==0xC3) && (LCD_1_rxBuffer[7]==0x3C)
 11932              		.loc 1 2492 0
 11933 42ae 5C4B     		ldr	r3, .L745+48
 11934 42b0 1B78     		ldrb	r3, [r3]
 11935 42b2 DBB2     		uxtb	r3, r3
 11936 42b4 AA2B     		cmp	r3, #170
 11937 42b6 3FD1     		bne	.L594
 11938              		.loc 1 2492 0 is_stmt 0 discriminator 1
 11939 42b8 594B     		ldr	r3, .L745+48
 11940 42ba 9B79     		ldrb	r3, [r3, #6]
 11941 42bc DBB2     		uxtb	r3, r3
 11942 42be C32B     		cmp	r3, #195
 11943 42c0 3AD1     		bne	.L594
 11944              		.loc 1 2492 0 discriminator 2
 11945 42c2 574B     		ldr	r3, .L745+48
 11946 42c4 DB79     		ldrb	r3, [r3, #7]
 11947 42c6 DBB2     		uxtb	r3, r3
 11948 42c8 3C2B     		cmp	r3, #60
 11949 42ca 35D1     		bne	.L594
ARM GAS  C:\Users\RECEPC~1\AppData\Local\Temp\ccIpe7td.s 			page 259


2493:.\main.c      **** 	                switch(LCD_1_rxBuffer[3]){
 11950              		.loc 1 2493 0 is_stmt 1
 11951 42cc 544B     		ldr	r3, .L745+48
 11952 42ce DB78     		ldrb	r3, [r3, #3]
 11953 42d0 DBB2     		uxtb	r3, r3
 11954 42d2 8F2B     		cmp	r3, #143
 11955 42d4 04D0     		beq	.L595
 11956 42d6 902B     		cmp	r3, #144
 11957 42d8 14D0     		beq	.L596
 11958 42da 7E2B     		cmp	r3, #126
 11959 42dc 24D0     		beq	.L597
 11960 42de 2BE0     		b	.L594
 11961              	.L595:
2494:.\main.c      ****                         case 0x8f:  //X1
2495:.\main.c      **** 						    EEPROM_WriteByte(0x00,23);
 11962              		.loc 1 2495 0
 11963 42e0 0020     		movs	r0, #0
 11964 42e2 1721     		movs	r1, #23
 11965 42e4 FFF7FEFF 		bl	EEPROM_WriteByte
2496:.\main.c      ****                         	flujo_LCD1 = 0;	
 11966              		.loc 1 2496 0
 11967 42e8 424B     		ldr	r3, .L745+4
 11968 42ea 0022     		movs	r2, #0
 11969 42ec 1A70     		strb	r2, [r3]
2497:.\main.c      ****                         	set_imagen(1,60);
 11970              		.loc 1 2497 0
 11971 42ee 0120     		movs	r0, #1
 11972 42f0 3C21     		movs	r1, #60
 11973 42f2 FFF7FEFF 		bl	set_imagen
2498:.\main.c      ****                             CyDelay(200);
 11974              		.loc 1 2498 0
 11975 42f6 C820     		movs	r0, #200
 11976 42f8 FFF7FEFF 		bl	CyDelay
2499:.\main.c      **** 							lado1.estado=libre;                          
 11977              		.loc 1 2499 0
 11978 42fc 3F4B     		ldr	r3, .L745+12
 11979 42fe 0122     		movs	r2, #1
 11980 4300 5A70     		strb	r2, [r3, #1]
2500:.\main.c      ****                         break;
 11981              		.loc 1 2500 0
 11982 4302 19E0     		b	.L594
 11983              	.L596:
2501:.\main.c      ****                         case 0x90:  //X10
2502:.\main.c      **** 						    EEPROM_WriteByte(0x01,23);
 11984              		.loc 1 2502 0
 11985 4304 0120     		movs	r0, #1
 11986 4306 1721     		movs	r1, #23
 11987 4308 FFF7FEFF 		bl	EEPROM_WriteByte
2503:.\main.c      ****                         	flujo_LCD1=0;	
 11988              		.loc 1 2503 0
 11989 430c 394B     		ldr	r3, .L745+4
 11990 430e 0022     		movs	r2, #0
 11991 4310 1A70     		strb	r2, [r3]
2504:.\main.c      ****                         	set_imagen(1,60);
 11992              		.loc 1 2504 0
 11993 4312 0120     		movs	r0, #1
 11994 4314 3C21     		movs	r1, #60
ARM GAS  C:\Users\RECEPC~1\AppData\Local\Temp\ccIpe7td.s 			page 260


 11995 4316 FFF7FEFF 		bl	set_imagen
2505:.\main.c      ****                             CyDelay(200);
 11996              		.loc 1 2505 0
 11997 431a C820     		movs	r0, #200
 11998 431c FFF7FEFF 		bl	CyDelay
2506:.\main.c      **** 							lado1.estado=libre;                           
 11999              		.loc 1 2506 0
 12000 4320 364B     		ldr	r3, .L745+12
 12001 4322 0122     		movs	r2, #1
 12002 4324 5A70     		strb	r2, [r3, #1]
2507:.\main.c      ****                         break;
 12003              		.loc 1 2507 0
 12004 4326 07E0     		b	.L594
 12005              	.L597:
2508:.\main.c      **** 	                    case 0x7E:	//ir a menu
2509:.\main.c      **** 						  set_imagen(1,74);	
 12006              		.loc 1 2509 0
 12007 4328 0120     		movs	r0, #1
 12008 432a 4A21     		movs	r1, #74
 12009 432c FFF7FEFF 		bl	set_imagen
2510:.\main.c      **** 	                      flujo_LCD1=0;     
 12010              		.loc 1 2510 0
 12011 4330 304B     		ldr	r3, .L745+4
 12012 4332 0022     		movs	r2, #0
 12013 4334 1A70     		strb	r2, [r3]
2511:.\main.c      **** 	                    break;                         
 12014              		.loc 1 2511 0
 12015 4336 00BF     		nop
 12016              	.L594:
2512:.\main.c      ****                     }
2513:.\main.c      ****                 }
2514:.\main.c      ****                 CyDelay(100);            
 12017              		.loc 1 2514 0
 12018 4338 6420     		movs	r0, #100
 12019 433a FFF7FEFF 		bl	CyDelay
2515:.\main.c      **** 	            LCD_1_ClearRxBuffer();
 12020              		.loc 1 2515 0
 12021 433e FFF7FEFF 		bl	LCD_1_ClearRxBuffer
2516:.\main.c      ****             }              
2517:.\main.c      ****         break;    
 12022              		.loc 1 2517 0
 12023 4342 00F06DBD 		b	.L131
 12024              	.L593:
 12025              		.loc 1 2517 0 is_stmt 0 discriminator 18
 12026 4346 00F06BBD 		b	.L131
 12027              	.L150:
2518:.\main.c      ****           
2519:.\main.c      ****         case 18:
2520:.\main.c      ****             if(seleccion_pos == 1){							   
 12028              		.loc 1 2520 0 is_stmt 1
 12029 434a 2B4B     		ldr	r3, .L745+8
 12030 434c 1B78     		ldrb	r3, [r3]
 12031 434e DBB2     		uxtb	r3, r3
 12032 4350 012B     		cmp	r3, #1
 12033 4352 40F03582 		bne	.L598
2521:.\main.c      ****     	        if(LCD_1_GetRxBufferSize()==8){
 12034              		.loc 1 2521 0
ARM GAS  C:\Users\RECEPC~1\AppData\Local\Temp\ccIpe7td.s 			page 261


 12035 4356 FFF7FEFF 		bl	LCD_1_GetRxBufferSize
 12036 435a 0346     		mov	r3, r0
 12037 435c 082B     		cmp	r3, #8
 12038 435e 40F02F82 		bne	.L598
2522:.\main.c      ****     	            if((LCD_1_rxBuffer[0]==0xAA) && (LCD_1_rxBuffer[6]==0xC3) && (LCD_1_rxBuffer[7]==0
 12039              		.loc 1 2522 0
 12040 4362 2F4B     		ldr	r3, .L745+48
 12041 4364 1B78     		ldrb	r3, [r3]
 12042 4366 DBB2     		uxtb	r3, r3
 12043 4368 AA2B     		cmp	r3, #170
 12044 436a 40F02482 		bne	.L599
 12045              		.loc 1 2522 0 is_stmt 0 discriminator 1
 12046 436e 2C4B     		ldr	r3, .L745+48
 12047 4370 9B79     		ldrb	r3, [r3, #6]
 12048 4372 DBB2     		uxtb	r3, r3
 12049 4374 C32B     		cmp	r3, #195
 12050 4376 40F01E82 		bne	.L599
 12051              		.loc 1 2522 0 discriminator 2
 12052 437a 294B     		ldr	r3, .L745+48
 12053 437c DB79     		ldrb	r3, [r3, #7]
 12054 437e DBB2     		uxtb	r3, r3
 12055 4380 3C2B     		cmp	r3, #60
 12056 4382 40F01882 		bne	.L599
2523:.\main.c      ****     	                switch(LCD_1_rxBuffer[3]){
 12057              		.loc 1 2523 0 is_stmt 1
 12058 4386 264B     		ldr	r3, .L745+48
 12059 4388 DB78     		ldrb	r3, [r3, #3]
 12060 438a DBB2     		uxtb	r3, r3
 12061 438c 7E3B     		subs	r3, r3, #126
 12062 438e 042B     		cmp	r3, #4
 12063 4390 00F21182 		bhi	.L599
 12064 4394 01A2     		adr	r2, .L601
 12065 4396 52F823F0 		ldr	pc, [r2, r3, lsl #2]
 12066 439a 00BF     		.p2align 2
 12067              	.L601:
 12068 439c E9440000 		.word	.L600+1
 12069 43a0 69440000 		.word	.L602+1
 12070 43a4 B1430000 		.word	.L603+1
 12071 43a8 29440000 		.word	.L604+1
 12072 43ac A9440000 		.word	.L605+1
 12073              		.p2align 1
 12074              	.L603:
2524:.\main.c      ****                             case 0x80:  //Producto 1
2525:.\main.c      ****                                 Producto=1;                                                    
 12075              		.loc 1 2525 0
 12076 43b0 1C4B     		ldr	r3, .L745+52
 12077 43b2 0122     		movs	r2, #1
 12078 43b4 1A70     		strb	r2, [r3]
2526:.\main.c      ****                                 set_imagen(1,6);  
 12079              		.loc 1 2526 0
 12080 43b6 0120     		movs	r0, #1
 12081 43b8 0621     		movs	r1, #6
 12082 43ba FFF7FEFF 		bl	set_imagen
2527:.\main.c      ****                                 id_teclado1=7;
 12083              		.loc 1 2527 0
 12084 43be 114B     		ldr	r3, .L745+20
 12085 43c0 0722     		movs	r2, #7
ARM GAS  C:\Users\RECEPC~1\AppData\Local\Temp\ccIpe7td.s 			page 262


 12086 43c2 1A70     		strb	r2, [r3]
2528:.\main.c      ****     					        count_teclas1=0;							    //Inicia el contador de teclas	
 12087              		.loc 1 2528 0
 12088 43c4 104B     		ldr	r3, .L745+24
 12089 43c6 0022     		movs	r2, #0
 12090 43c8 1A70     		strb	r2, [r3]
2529:.\main.c      ****     					        id_coma1=',';	
 12091              		.loc 1 2529 0
 12092 43ca 104B     		ldr	r3, .L745+28
 12093 43cc 2C22     		movs	r2, #44
 12094 43ce 1A70     		strb	r2, [r3]
2530:.\main.c      ****                                 teclas1=1;              						//cantidad de teclas q puede digitar 
 12095              		.loc 1 2530 0
 12096 43d0 0F4B     		ldr	r3, .L745+32
 12097 43d2 0122     		movs	r2, #1
 12098 43d4 1A70     		strb	r2, [r3]
2531:.\main.c      ****     					        posx1=4;
 12099              		.loc 1 2531 0
 12100 43d6 0F4B     		ldr	r3, .L745+36
 12101 43d8 0422     		movs	r2, #4
 12102 43da 1A80     		strh	r2, [r3]	@ movhi
2532:.\main.c      ****     					        posy1=3;
 12103              		.loc 1 2532 0
 12104 43dc 0E4B     		ldr	r3, .L745+40
 12105 43de 0322     		movs	r2, #3
 12106 43e0 1A80     		strh	r2, [r3]	@ movhi
2533:.\main.c      ****     					        sizeletra1=1;  
 12107              		.loc 1 2533 0
 12108 43e2 0E4B     		ldr	r3, .L745+44
 12109 43e4 0122     		movs	r2, #1
 12110 43e6 1A80     		strh	r2, [r3]	@ movhi
2534:.\main.c      ****                                 flujo_LCD1 = 12;
 12111              		.loc 1 2534 0
 12112 43e8 024B     		ldr	r3, .L745+4
 12113 43ea 0C22     		movs	r2, #12
 12114 43ec 1A70     		strb	r2, [r3]
2535:.\main.c      ****                             break;
 12115              		.loc 1 2535 0
 12116 43ee E2E1     		b	.L599
 12117              	.L746:
 12118              		.align	2
 12119              	.L745:
 12120 43f0 00000000 		.word	rf_mod
 12121 43f4 00000000 		.word	flujo_LCD1
 12122 43f8 00000000 		.word	seleccion_pos
 12123 43fc 00000000 		.word	lado1
 12124 4400 00000000 		.word	lado2
 12125 4404 00000000 		.word	id_teclado1
 12126 4408 00000000 		.word	count_teclas1
 12127 440c 00000000 		.word	id_coma1
 12128 4410 00000000 		.word	teclas1
 12129 4414 00000000 		.word	posx1
 12130 4418 00000000 		.word	posy1
 12131 441c 00000000 		.word	sizeletra1
 12132 4420 00000000 		.word	LCD_1_rxBuffer
 12133 4424 00000000 		.word	Producto
 12134              	.L604:
ARM GAS  C:\Users\RECEPC~1\AppData\Local\Temp\ccIpe7td.s 			page 263


2536:.\main.c      ****                             case 0x81:  //Producto 2
2537:.\main.c      ****                                 Producto=2;                                                    
 12135              		.loc 1 2537 0
 12136 4428 B44B     		ldr	r3, .L747
 12137 442a 0222     		movs	r2, #2
 12138 442c 1A70     		strb	r2, [r3]
2538:.\main.c      ****                                 set_imagen(1,6);  
 12139              		.loc 1 2538 0
 12140 442e 0120     		movs	r0, #1
 12141 4430 0621     		movs	r1, #6
 12142 4432 FFF7FEFF 		bl	set_imagen
2539:.\main.c      ****                                 id_teclado1=7;
 12143              		.loc 1 2539 0
 12144 4436 B24B     		ldr	r3, .L747+4
 12145 4438 0722     		movs	r2, #7
 12146 443a 1A70     		strb	r2, [r3]
2540:.\main.c      ****     					        count_teclas1=0;							    	
 12147              		.loc 1 2540 0
 12148 443c B14B     		ldr	r3, .L747+8
 12149 443e 0022     		movs	r2, #0
 12150 4440 1A70     		strb	r2, [r3]
2541:.\main.c      ****     					        id_coma1=',';	
 12151              		.loc 1 2541 0
 12152 4442 B14B     		ldr	r3, .L747+12
 12153 4444 2C22     		movs	r2, #44
 12154 4446 1A70     		strb	r2, [r3]
2542:.\main.c      ****                                 teclas1=1;              															
 12155              		.loc 1 2542 0
 12156 4448 B04B     		ldr	r3, .L747+16
 12157 444a 0122     		movs	r2, #1
 12158 444c 1A70     		strb	r2, [r3]
2543:.\main.c      ****     					        posx1=4;
 12159              		.loc 1 2543 0
 12160 444e B04B     		ldr	r3, .L747+20
 12161 4450 0422     		movs	r2, #4
 12162 4452 1A80     		strh	r2, [r3]	@ movhi
2544:.\main.c      ****     					        posy1=3;
 12163              		.loc 1 2544 0
 12164 4454 AF4B     		ldr	r3, .L747+24
 12165 4456 0322     		movs	r2, #3
 12166 4458 1A80     		strh	r2, [r3]	@ movhi
2545:.\main.c      ****     					        sizeletra1=1;  
 12167              		.loc 1 2545 0
 12168 445a AF4B     		ldr	r3, .L747+28
 12169 445c 0122     		movs	r2, #1
 12170 445e 1A80     		strh	r2, [r3]	@ movhi
2546:.\main.c      ****                                 flujo_LCD1 = 12;
 12171              		.loc 1 2546 0
 12172 4460 AE4B     		ldr	r3, .L747+32
 12173 4462 0C22     		movs	r2, #12
 12174 4464 1A70     		strb	r2, [r3]
2547:.\main.c      ****                             break;                            
 12175              		.loc 1 2547 0
 12176 4466 A6E1     		b	.L599
 12177              	.L602:
2548:.\main.c      ****                             case 0x7F:  //Producto 3
2549:.\main.c      ****                                 Producto=3;                                                    
ARM GAS  C:\Users\RECEPC~1\AppData\Local\Temp\ccIpe7td.s 			page 264


 12178              		.loc 1 2549 0
 12179 4468 A44B     		ldr	r3, .L747
 12180 446a 0322     		movs	r2, #3
 12181 446c 1A70     		strb	r2, [r3]
2550:.\main.c      ****                                 set_imagen(1,6);  
 12182              		.loc 1 2550 0
 12183 446e 0120     		movs	r0, #1
 12184 4470 0621     		movs	r1, #6
 12185 4472 FFF7FEFF 		bl	set_imagen
2551:.\main.c      ****                                 id_teclado1=7;
 12186              		.loc 1 2551 0
 12187 4476 A24B     		ldr	r3, .L747+4
 12188 4478 0722     		movs	r2, #7
 12189 447a 1A70     		strb	r2, [r3]
2552:.\main.c      ****     					        count_teclas1=0;							    
 12190              		.loc 1 2552 0
 12191 447c A14B     		ldr	r3, .L747+8
 12192 447e 0022     		movs	r2, #0
 12193 4480 1A70     		strb	r2, [r3]
2553:.\main.c      ****     					        id_coma1=',';	
 12194              		.loc 1 2553 0
 12195 4482 A14B     		ldr	r3, .L747+12
 12196 4484 2C22     		movs	r2, #44
 12197 4486 1A70     		strb	r2, [r3]
2554:.\main.c      ****                                 teclas1=1;              													
 12198              		.loc 1 2554 0
 12199 4488 A04B     		ldr	r3, .L747+16
 12200 448a 0122     		movs	r2, #1
 12201 448c 1A70     		strb	r2, [r3]
2555:.\main.c      ****     					        posx1=4;
 12202              		.loc 1 2555 0
 12203 448e A04B     		ldr	r3, .L747+20
 12204 4490 0422     		movs	r2, #4
 12205 4492 1A80     		strh	r2, [r3]	@ movhi
2556:.\main.c      ****     					        posy1=3;
 12206              		.loc 1 2556 0
 12207 4494 9F4B     		ldr	r3, .L747+24
 12208 4496 0322     		movs	r2, #3
 12209 4498 1A80     		strh	r2, [r3]	@ movhi
2557:.\main.c      ****     					        sizeletra1=1;                      
 12210              		.loc 1 2557 0
 12211 449a 9F4B     		ldr	r3, .L747+28
 12212 449c 0122     		movs	r2, #1
 12213 449e 1A80     		strh	r2, [r3]	@ movhi
2558:.\main.c      ****                                 flujo_LCD1 = 12;
 12214              		.loc 1 2558 0
 12215 44a0 9E4B     		ldr	r3, .L747+32
 12216 44a2 0C22     		movs	r2, #12
 12217 44a4 1A70     		strb	r2, [r3]
2559:.\main.c      ****                             break;                            
 12218              		.loc 1 2559 0
 12219 44a6 86E1     		b	.L599
 12220              	.L605:
2560:.\main.c      ****                             case 0x82:  //Producto 4
2561:.\main.c      ****                                 Producto=4;                                                   
 12221              		.loc 1 2561 0
 12222 44a8 944B     		ldr	r3, .L747
ARM GAS  C:\Users\RECEPC~1\AppData\Local\Temp\ccIpe7td.s 			page 265


 12223 44aa 0422     		movs	r2, #4
 12224 44ac 1A70     		strb	r2, [r3]
2562:.\main.c      ****                                 set_imagen(1,6);  
 12225              		.loc 1 2562 0
 12226 44ae 0120     		movs	r0, #1
 12227 44b0 0621     		movs	r1, #6
 12228 44b2 FFF7FEFF 		bl	set_imagen
2563:.\main.c      ****                                 id_teclado1=7;
 12229              		.loc 1 2563 0
 12230 44b6 924B     		ldr	r3, .L747+4
 12231 44b8 0722     		movs	r2, #7
 12232 44ba 1A70     		strb	r2, [r3]
2564:.\main.c      ****     					        count_teclas1=0;							    	
 12233              		.loc 1 2564 0
 12234 44bc 914B     		ldr	r3, .L747+8
 12235 44be 0022     		movs	r2, #0
 12236 44c0 1A70     		strb	r2, [r3]
2565:.\main.c      ****     					        id_coma1=',';	
 12237              		.loc 1 2565 0
 12238 44c2 914B     		ldr	r3, .L747+12
 12239 44c4 2C22     		movs	r2, #44
 12240 44c6 1A70     		strb	r2, [r3]
2566:.\main.c      ****                                 teclas1=1;              														
 12241              		.loc 1 2566 0
 12242 44c8 904B     		ldr	r3, .L747+16
 12243 44ca 0122     		movs	r2, #1
 12244 44cc 1A70     		strb	r2, [r3]
2567:.\main.c      ****     					        posx1=4;
 12245              		.loc 1 2567 0
 12246 44ce 904B     		ldr	r3, .L747+20
 12247 44d0 0422     		movs	r2, #4
 12248 44d2 1A80     		strh	r2, [r3]	@ movhi
2568:.\main.c      ****     					        posy1=3;
 12249              		.loc 1 2568 0
 12250 44d4 8F4B     		ldr	r3, .L747+24
 12251 44d6 0322     		movs	r2, #3
 12252 44d8 1A80     		strh	r2, [r3]	@ movhi
2569:.\main.c      ****     					        sizeletra1=1;        
 12253              		.loc 1 2569 0
 12254 44da 8F4B     		ldr	r3, .L747+28
 12255 44dc 0122     		movs	r2, #1
 12256 44de 1A80     		strh	r2, [r3]	@ movhi
2570:.\main.c      ****                                 flujo_LCD1 = 12;
 12257              		.loc 1 2570 0
 12258 44e0 8E4B     		ldr	r3, .L747+32
 12259 44e2 0C22     		movs	r2, #12
 12260 44e4 1A70     		strb	r2, [r3]
2571:.\main.c      ****                             break;                     
 12261              		.loc 1 2571 0
 12262 44e6 66E1     		b	.L599
 12263              	.L600:
2572:.\main.c      ****     	                    case 0x7E:	//Envía datos al Beagle de productos 
2573:.\main.c      ****                             	rf_mod[0]='M';
 12264              		.loc 1 2573 0
 12265 44e8 8D4B     		ldr	r3, .L747+36
 12266 44ea 4D22     		movs	r2, #77
 12267 44ec 1A70     		strb	r2, [r3]
ARM GAS  C:\Users\RECEPC~1\AppData\Local\Temp\ccIpe7td.s 			page 266


2574:.\main.c      ****     			                rf_mod[1]='U';
 12268              		.loc 1 2574 0
 12269 44ee 8C4B     		ldr	r3, .L747+36
 12270 44f0 5522     		movs	r2, #85
 12271 44f2 5A70     		strb	r2, [r3, #1]
2575:.\main.c      ****     			                rf_mod[2]='X';
 12272              		.loc 1 2575 0
 12273 44f4 8A4B     		ldr	r3, .L747+36
 12274 44f6 5822     		movs	r2, #88
 12275 44f8 9A70     		strb	r2, [r3, #2]
2576:.\main.c      ****     			                rf_mod[3]='4'; 
 12276              		.loc 1 2576 0
 12277 44fa 894B     		ldr	r3, .L747+36
 12278 44fc 3422     		movs	r2, #52
 12279 44fe DA70     		strb	r2, [r3, #3]
2577:.\main.c      ****                                 y=4;
 12280              		.loc 1 2577 0
 12281 4500 0423     		movs	r3, #4
 12282 4502 87F82E30 		strb	r3, [r7, #46]
2578:.\main.c      ****                                 for(x=0;x<=2;x++){
 12283              		.loc 1 2578 0
 12284 4506 0023     		movs	r3, #0
 12285 4508 87F82F30 		strb	r3, [r7, #47]
 12286 450c 3CE0     		b	.L606
 12287              	.L614:
2579:.\main.c      ****                                     switch(lado1.grado[x][0]){
 12288              		.loc 1 2579 0
 12289 450e 97F82F30 		ldrb	r3, [r7, #47]	@ zero_extendqisi2
 12290 4512 844A     		ldr	r2, .L747+40
 12291 4514 1344     		add	r3, r3, r2
 12292 4516 93F85930 		ldrb	r3, [r3, #89]
 12293 451a DBB2     		uxtb	r3, r3
 12294 451c 013B     		subs	r3, r3, #1
 12295 451e 032B     		cmp	r3, #3
 12296 4520 22D8     		bhi	.L607
 12297 4522 01A2     		adr	r2, .L609
 12298 4524 52F823F0 		ldr	pc, [r2, r3, lsl #2]
 12299              		.p2align 2
 12300              	.L609:
 12301 4528 39450000 		.word	.L608+1
 12302 452c 45450000 		.word	.L610+1
 12303 4530 51450000 		.word	.L611+1
 12304 4534 5D450000 		.word	.L612+1
 12305              		.p2align 1
 12306              	.L608:
2580:.\main.c      ****                                     	case 1:
2581:.\main.c      ****                                     		rf_mod[y]='1';//Diesel
 12307              		.loc 1 2581 0
 12308 4538 97F82E30 		ldrb	r3, [r7, #46]	@ zero_extendqisi2
 12309 453c 784A     		ldr	r2, .L747+36
 12310 453e 3121     		movs	r1, #49
 12311 4540 D154     		strb	r1, [r2, r3]
2582:.\main.c      ****                                     	break;
 12312              		.loc 1 2582 0
 12313 4542 17E0     		b	.L613
 12314              	.L610:
2583:.\main.c      ****                                     	case 2:
ARM GAS  C:\Users\RECEPC~1\AppData\Local\Temp\ccIpe7td.s 			page 267


2584:.\main.c      ****                                     		rf_mod[y]='2';//Corriente
 12315              		.loc 1 2584 0
 12316 4544 97F82E30 		ldrb	r3, [r7, #46]	@ zero_extendqisi2
 12317 4548 754A     		ldr	r2, .L747+36
 12318 454a 3221     		movs	r1, #50
 12319 454c D154     		strb	r1, [r2, r3]
2585:.\main.c      ****                                     	break;
 12320              		.loc 1 2585 0
 12321 454e 11E0     		b	.L613
 12322              	.L611:
2586:.\main.c      ****                                     	case 3:
2587:.\main.c      ****                                     		rf_mod[y]='3';//Extra
 12323              		.loc 1 2587 0
 12324 4550 97F82E30 		ldrb	r3, [r7, #46]	@ zero_extendqisi2
 12325 4554 724A     		ldr	r2, .L747+36
 12326 4556 3321     		movs	r1, #51
 12327 4558 D154     		strb	r1, [r2, r3]
2588:.\main.c      ****                                     	break;
 12328              		.loc 1 2588 0
 12329 455a 0BE0     		b	.L613
 12330              	.L612:
2589:.\main.c      ****                                     	case 4:
2590:.\main.c      ****                                     		rf_mod[y]='4';//Supremo diesel
 12331              		.loc 1 2590 0
 12332 455c 97F82E30 		ldrb	r3, [r7, #46]	@ zero_extendqisi2
 12333 4560 6F4A     		ldr	r2, .L747+36
 12334 4562 3421     		movs	r1, #52
 12335 4564 D154     		strb	r1, [r2, r3]
2591:.\main.c      ****                                     	break;
 12336              		.loc 1 2591 0
 12337 4566 05E0     		b	.L613
 12338              	.L607:
2592:.\main.c      ****                                         default:
2593:.\main.c      ****                                             rf_mod[y]='0';
 12339              		.loc 1 2593 0
 12340 4568 97F82E30 		ldrb	r3, [r7, #46]	@ zero_extendqisi2
 12341 456c 6C4A     		ldr	r2, .L747+36
 12342 456e 3021     		movs	r1, #48
 12343 4570 D154     		strb	r1, [r2, r3]
2594:.\main.c      ****                                         break;
 12344              		.loc 1 2594 0
 12345 4572 00BF     		nop
 12346              	.L613:
2595:.\main.c      ****                                     }                                                 
2596:.\main.c      ****                                     y++;                                
 12347              		.loc 1 2596 0 discriminator 2
 12348 4574 97F82E30 		ldrb	r3, [r7, #46]	@ zero_extendqisi2
 12349 4578 0133     		adds	r3, r3, #1
 12350 457a 87F82E30 		strb	r3, [r7, #46]
2578:.\main.c      ****                                     switch(lado1.grado[x][0]){
 12351              		.loc 1 2578 0 discriminator 2
 12352 457e 97F82F30 		ldrb	r3, [r7, #47]	@ zero_extendqisi2
 12353 4582 0133     		adds	r3, r3, #1
 12354 4584 87F82F30 		strb	r3, [r7, #47]
 12355              	.L606:
2578:.\main.c      ****                                     switch(lado1.grado[x][0]){
 12356              		.loc 1 2578 0 is_stmt 0 discriminator 1
ARM GAS  C:\Users\RECEPC~1\AppData\Local\Temp\ccIpe7td.s 			page 268


 12357 4588 97F82F30 		ldrb	r3, [r7, #47]	@ zero_extendqisi2
 12358 458c 022B     		cmp	r3, #2
 12359 458e BED9     		bls	.L614
2597:.\main.c      ****                                 }  
2598:.\main.c      ****                                 if(producto1==0){
 12360              		.loc 1 2598 0 is_stmt 1
 12361 4590 654B     		ldr	r3, .L747+44
 12362 4592 1B78     		ldrb	r3, [r3]	@ zero_extendqisi2
 12363 4594 002B     		cmp	r3, #0
 12364 4596 26D1     		bne	.L615
2599:.\main.c      ****                                     y=0;                                    
 12365              		.loc 1 2599 0
 12366 4598 0023     		movs	r3, #0
 12367 459a 87F82E30 		strb	r3, [r7, #46]
2600:.\main.c      ****                                     for(x=4;x<=6;x++){
 12368              		.loc 1 2600 0
 12369 459e 0423     		movs	r3, #4
 12370 45a0 87F82F30 		strb	r3, [r7, #47]
 12371 45a4 1BE0     		b	.L616
 12372              	.L618:
2601:.\main.c      ****                                         if(rf_mod[x]=='1'){
 12373              		.loc 1 2601 0
 12374 45a6 97F82F30 		ldrb	r3, [r7, #47]	@ zero_extendqisi2
 12375 45aa 5D4A     		ldr	r2, .L747+36
 12376 45ac D35C     		ldrb	r3, [r2, r3]	@ zero_extendqisi2
 12377 45ae 312B     		cmp	r3, #49
 12378 45b0 0BD1     		bne	.L617
2602:.\main.c      ****                                            rf_mod[x]='0';     
 12379              		.loc 1 2602 0
 12380 45b2 97F82F30 		ldrb	r3, [r7, #47]	@ zero_extendqisi2
 12381 45b6 5A4A     		ldr	r2, .L747+36
 12382 45b8 3021     		movs	r1, #48
 12383 45ba D154     		strb	r1, [r2, r3]
2603:.\main.c      ****                                             lado1.grado[y][0]=0;                                   
 12384              		.loc 1 2603 0
 12385 45bc 97F82E30 		ldrb	r3, [r7, #46]	@ zero_extendqisi2
 12386 45c0 584A     		ldr	r2, .L747+40
 12387 45c2 1344     		add	r3, r3, r2
 12388 45c4 0022     		movs	r2, #0
 12389 45c6 83F85920 		strb	r2, [r3, #89]
 12390              	.L617:
2604:.\main.c      ****                                         }
2605:.\main.c      ****                                         y++;
 12391              		.loc 1 2605 0 discriminator 2
 12392 45ca 97F82E30 		ldrb	r3, [r7, #46]	@ zero_extendqisi2
 12393 45ce 0133     		adds	r3, r3, #1
 12394 45d0 87F82E30 		strb	r3, [r7, #46]
2600:.\main.c      ****                                         if(rf_mod[x]=='1'){
 12395              		.loc 1 2600 0 discriminator 2
 12396 45d4 97F82F30 		ldrb	r3, [r7, #47]	@ zero_extendqisi2
 12397 45d8 0133     		adds	r3, r3, #1
 12398 45da 87F82F30 		strb	r3, [r7, #47]
 12399              	.L616:
2600:.\main.c      ****                                         if(rf_mod[x]=='1'){
 12400              		.loc 1 2600 0 is_stmt 0 discriminator 1
 12401 45de 97F82F30 		ldrb	r3, [r7, #47]	@ zero_extendqisi2
 12402 45e2 062B     		cmp	r3, #6
ARM GAS  C:\Users\RECEPC~1\AppData\Local\Temp\ccIpe7td.s 			page 269


 12403 45e4 DFD9     		bls	.L618
 12404              	.L615:
2606:.\main.c      ****                                     }
2607:.\main.c      ****                                 }        
2608:.\main.c      ****                                 if(producto2==0){
 12405              		.loc 1 2608 0 is_stmt 1
 12406 45e6 514B     		ldr	r3, .L747+48
 12407 45e8 1B78     		ldrb	r3, [r3]	@ zero_extendqisi2
 12408 45ea 002B     		cmp	r3, #0
 12409 45ec 26D1     		bne	.L619
2609:.\main.c      ****                                     y=0;                                    
 12410              		.loc 1 2609 0
 12411 45ee 0023     		movs	r3, #0
 12412 45f0 87F82E30 		strb	r3, [r7, #46]
2610:.\main.c      ****                                     for(x=4;x<=6;x++){
 12413              		.loc 1 2610 0
 12414 45f4 0423     		movs	r3, #4
 12415 45f6 87F82F30 		strb	r3, [r7, #47]
 12416 45fa 1BE0     		b	.L620
 12417              	.L622:
2611:.\main.c      ****                                         if(rf_mod[x]=='2'){
 12418              		.loc 1 2611 0
 12419 45fc 97F82F30 		ldrb	r3, [r7, #47]	@ zero_extendqisi2
 12420 4600 474A     		ldr	r2, .L747+36
 12421 4602 D35C     		ldrb	r3, [r2, r3]	@ zero_extendqisi2
 12422 4604 322B     		cmp	r3, #50
 12423 4606 0BD1     		bne	.L621
2612:.\main.c      ****                                            rf_mod[x]='0';     
 12424              		.loc 1 2612 0
 12425 4608 97F82F30 		ldrb	r3, [r7, #47]	@ zero_extendqisi2
 12426 460c 444A     		ldr	r2, .L747+36
 12427 460e 3021     		movs	r1, #48
 12428 4610 D154     		strb	r1, [r2, r3]
2613:.\main.c      ****                                             lado1.grado[y][0]=0;                                   
 12429              		.loc 1 2613 0
 12430 4612 97F82E30 		ldrb	r3, [r7, #46]	@ zero_extendqisi2
 12431 4616 434A     		ldr	r2, .L747+40
 12432 4618 1344     		add	r3, r3, r2
 12433 461a 0022     		movs	r2, #0
 12434 461c 83F85920 		strb	r2, [r3, #89]
 12435              	.L621:
2614:.\main.c      ****                                         }
2615:.\main.c      ****                                         y++;
 12436              		.loc 1 2615 0 discriminator 2
 12437 4620 97F82E30 		ldrb	r3, [r7, #46]	@ zero_extendqisi2
 12438 4624 0133     		adds	r3, r3, #1
 12439 4626 87F82E30 		strb	r3, [r7, #46]
2610:.\main.c      ****                                         if(rf_mod[x]=='2'){
 12440              		.loc 1 2610 0 discriminator 2
 12441 462a 97F82F30 		ldrb	r3, [r7, #47]	@ zero_extendqisi2
 12442 462e 0133     		adds	r3, r3, #1
 12443 4630 87F82F30 		strb	r3, [r7, #47]
 12444              	.L620:
2610:.\main.c      ****                                         if(rf_mod[x]=='2'){
 12445              		.loc 1 2610 0 is_stmt 0 discriminator 1
 12446 4634 97F82F30 		ldrb	r3, [r7, #47]	@ zero_extendqisi2
 12447 4638 062B     		cmp	r3, #6
ARM GAS  C:\Users\RECEPC~1\AppData\Local\Temp\ccIpe7td.s 			page 270


 12448 463a DFD9     		bls	.L622
 12449              	.L619:
2616:.\main.c      ****                                     }
2617:.\main.c      ****                                 }     
2618:.\main.c      ****                                 if(producto3==0){
 12450              		.loc 1 2618 0 is_stmt 1
 12451 463c 3C4B     		ldr	r3, .L747+52
 12452 463e 1B78     		ldrb	r3, [r3]	@ zero_extendqisi2
 12453 4640 002B     		cmp	r3, #0
 12454 4642 26D1     		bne	.L623
2619:.\main.c      ****                                     y=0;                                    
 12455              		.loc 1 2619 0
 12456 4644 0023     		movs	r3, #0
 12457 4646 87F82E30 		strb	r3, [r7, #46]
2620:.\main.c      ****                                     for(x=4;x<=6;x++){
 12458              		.loc 1 2620 0
 12459 464a 0423     		movs	r3, #4
 12460 464c 87F82F30 		strb	r3, [r7, #47]
 12461 4650 1BE0     		b	.L624
 12462              	.L626:
2621:.\main.c      ****                                         if(rf_mod[x]=='3'){
 12463              		.loc 1 2621 0
 12464 4652 97F82F30 		ldrb	r3, [r7, #47]	@ zero_extendqisi2
 12465 4656 324A     		ldr	r2, .L747+36
 12466 4658 D35C     		ldrb	r3, [r2, r3]	@ zero_extendqisi2
 12467 465a 332B     		cmp	r3, #51
 12468 465c 0BD1     		bne	.L625
2622:.\main.c      ****                                            rf_mod[x]='0';     
 12469              		.loc 1 2622 0
 12470 465e 97F82F30 		ldrb	r3, [r7, #47]	@ zero_extendqisi2
 12471 4662 2F4A     		ldr	r2, .L747+36
 12472 4664 3021     		movs	r1, #48
 12473 4666 D154     		strb	r1, [r2, r3]
2623:.\main.c      ****                                             lado1.grado[y][0]=0;                                   
 12474              		.loc 1 2623 0
 12475 4668 97F82E30 		ldrb	r3, [r7, #46]	@ zero_extendqisi2
 12476 466c 2D4A     		ldr	r2, .L747+40
 12477 466e 1344     		add	r3, r3, r2
 12478 4670 0022     		movs	r2, #0
 12479 4672 83F85920 		strb	r2, [r3, #89]
 12480              	.L625:
2624:.\main.c      ****                                         }
2625:.\main.c      ****                                         y++;
 12481              		.loc 1 2625 0 discriminator 2
 12482 4676 97F82E30 		ldrb	r3, [r7, #46]	@ zero_extendqisi2
 12483 467a 0133     		adds	r3, r3, #1
 12484 467c 87F82E30 		strb	r3, [r7, #46]
2620:.\main.c      ****                                         if(rf_mod[x]=='3'){
 12485              		.loc 1 2620 0 discriminator 2
 12486 4680 97F82F30 		ldrb	r3, [r7, #47]	@ zero_extendqisi2
 12487 4684 0133     		adds	r3, r3, #1
 12488 4686 87F82F30 		strb	r3, [r7, #47]
 12489              	.L624:
2620:.\main.c      ****                                         if(rf_mod[x]=='3'){
 12490              		.loc 1 2620 0 is_stmt 0 discriminator 1
 12491 468a 97F82F30 		ldrb	r3, [r7, #47]	@ zero_extendqisi2
 12492 468e 062B     		cmp	r3, #6
ARM GAS  C:\Users\RECEPC~1\AppData\Local\Temp\ccIpe7td.s 			page 271


 12493 4690 DFD9     		bls	.L626
 12494              	.L623:
2626:.\main.c      ****                                     }
2627:.\main.c      ****                                 }
2628:.\main.c      ****                                 if(producto4==0){
 12495              		.loc 1 2628 0 is_stmt 1
 12496 4692 284B     		ldr	r3, .L747+56
 12497 4694 1B78     		ldrb	r3, [r3]	@ zero_extendqisi2
 12498 4696 002B     		cmp	r3, #0
 12499 4698 26D1     		bne	.L627
2629:.\main.c      ****                                     y=0;                                    
 12500              		.loc 1 2629 0
 12501 469a 0023     		movs	r3, #0
 12502 469c 87F82E30 		strb	r3, [r7, #46]
2630:.\main.c      ****                                     for(x=4;x<=6;x++){
 12503              		.loc 1 2630 0
 12504 46a0 0423     		movs	r3, #4
 12505 46a2 87F82F30 		strb	r3, [r7, #47]
 12506 46a6 1BE0     		b	.L628
 12507              	.L630:
2631:.\main.c      ****                                         if(rf_mod[x]=='4'){
 12508              		.loc 1 2631 0
 12509 46a8 97F82F30 		ldrb	r3, [r7, #47]	@ zero_extendqisi2
 12510 46ac 1C4A     		ldr	r2, .L747+36
 12511 46ae D35C     		ldrb	r3, [r2, r3]	@ zero_extendqisi2
 12512 46b0 342B     		cmp	r3, #52
 12513 46b2 0BD1     		bne	.L629
2632:.\main.c      ****                                            rf_mod[x]='0';     
 12514              		.loc 1 2632 0
 12515 46b4 97F82F30 		ldrb	r3, [r7, #47]	@ zero_extendqisi2
 12516 46b8 194A     		ldr	r2, .L747+36
 12517 46ba 3021     		movs	r1, #48
 12518 46bc D154     		strb	r1, [r2, r3]
2633:.\main.c      ****                                             lado1.grado[y][0]=0;                                   
 12519              		.loc 1 2633 0
 12520 46be 97F82E30 		ldrb	r3, [r7, #46]	@ zero_extendqisi2
 12521 46c2 184A     		ldr	r2, .L747+40
 12522 46c4 1344     		add	r3, r3, r2
 12523 46c6 0022     		movs	r2, #0
 12524 46c8 83F85920 		strb	r2, [r3, #89]
 12525              	.L629:
2634:.\main.c      ****                                         }
2635:.\main.c      ****                                         y++;
 12526              		.loc 1 2635 0 discriminator 2
 12527 46cc 97F82E30 		ldrb	r3, [r7, #46]	@ zero_extendqisi2
 12528 46d0 0133     		adds	r3, r3, #1
 12529 46d2 87F82E30 		strb	r3, [r7, #46]
2630:.\main.c      ****                                         if(rf_mod[x]=='4'){
 12530              		.loc 1 2630 0 discriminator 2
 12531 46d6 97F82F30 		ldrb	r3, [r7, #47]	@ zero_extendqisi2
 12532 46da 0133     		adds	r3, r3, #1
 12533 46dc 87F82F30 		strb	r3, [r7, #47]
 12534              	.L628:
2630:.\main.c      ****                                         if(rf_mod[x]=='4'){
 12535              		.loc 1 2630 0 is_stmt 0 discriminator 1
 12536 46e0 97F82F30 		ldrb	r3, [r7, #47]	@ zero_extendqisi2
 12537 46e4 062B     		cmp	r3, #6
ARM GAS  C:\Users\RECEPC~1\AppData\Local\Temp\ccIpe7td.s 			page 272


 12538 46e6 DFD9     		bls	.L630
 12539              	.L627:
2636:.\main.c      ****                                     }
2637:.\main.c      ****                                 }                                                                  
2638:.\main.c      ****                                 rf_mod[7]='*';
 12540              		.loc 1 2638 0 is_stmt 1
 12541 46e8 0D4B     		ldr	r3, .L747+36
 12542 46ea 2A22     		movs	r2, #42
 12543 46ec DA71     		strb	r2, [r3, #7]
2639:.\main.c      ****     							PC_ClearRxBuffer();				
 12544              		.loc 1 2639 0
 12545 46ee FFF7FEFF 		bl	PC_ClearRxBuffer
2640:.\main.c      ****     						    for(x=0;x<=7;x++){
 12546              		.loc 1 2640 0
 12547 46f2 0023     		movs	r3, #0
 12548 46f4 87F82F30 		strb	r3, [r7, #47]
 12549 46f8 2AE0     		b	.L631
 12550              	.L748:
 12551 46fa 00BF     		.align	2
 12552              	.L747:
 12553 46fc 00000000 		.word	Producto
 12554 4700 00000000 		.word	id_teclado1
 12555 4704 00000000 		.word	count_teclas1
 12556 4708 00000000 		.word	id_coma1
 12557 470c 00000000 		.word	teclas1
 12558 4710 00000000 		.word	posx1
 12559 4714 00000000 		.word	posy1
 12560 4718 00000000 		.word	sizeletra1
 12561 471c 00000000 		.word	flujo_LCD1
 12562 4720 00000000 		.word	rf_mod
 12563 4724 00000000 		.word	lado1
 12564 4728 00000000 		.word	producto1
 12565 472c 00000000 		.word	producto2
 12566 4730 00000000 		.word	producto3
 12567 4734 00000000 		.word	producto4
 12568              	.L632:
2641:.\main.c      ****     							   PC_PutChar(rf_mod[x]);
 12569              		.loc 1 2641 0 discriminator 3
 12570 4738 97F82F30 		ldrb	r3, [r7, #47]	@ zero_extendqisi2
 12571 473c BE4A     		ldr	r2, .L749
 12572 473e D35C     		ldrb	r3, [r2, r3]	@ zero_extendqisi2
 12573 4740 1846     		mov	r0, r3
 12574 4742 FFF7FEFF 		bl	PC_PutChar
2640:.\main.c      ****     						    for(x=0;x<=7;x++){
 12575              		.loc 1 2640 0 discriminator 3
 12576 4746 97F82F30 		ldrb	r3, [r7, #47]	@ zero_extendqisi2
 12577 474a 0133     		adds	r3, r3, #1
 12578 474c 87F82F30 		strb	r3, [r7, #47]
 12579              	.L631:
2640:.\main.c      ****     						    for(x=0;x<=7;x++){
 12580              		.loc 1 2640 0 is_stmt 0 discriminator 1
 12581 4750 97F82F30 		ldrb	r3, [r7, #47]	@ zero_extendqisi2
 12582 4754 072B     		cmp	r3, #7
 12583 4756 EFD9     		bls	.L632
2642:.\main.c      ****     						    }                      
2643:.\main.c      ****                                 producto1=1;
 12584              		.loc 1 2643 0 is_stmt 1
ARM GAS  C:\Users\RECEPC~1\AppData\Local\Temp\ccIpe7td.s 			page 273


 12585 4758 B84B     		ldr	r3, .L749+4
 12586 475a 0122     		movs	r2, #1
 12587 475c 1A70     		strb	r2, [r3]
2644:.\main.c      ****                                 producto2=1;
 12588              		.loc 1 2644 0
 12589 475e B84B     		ldr	r3, .L749+8
 12590 4760 0122     		movs	r2, #1
 12591 4762 1A70     		strb	r2, [r3]
2645:.\main.c      ****                                 producto3=1;
 12592              		.loc 1 2645 0
 12593 4764 B74B     		ldr	r3, .L749+12
 12594 4766 0122     		movs	r2, #1
 12595 4768 1A70     		strb	r2, [r3]
2646:.\main.c      ****                                 producto4=1;                                
 12596              		.loc 1 2646 0
 12597 476a B74B     		ldr	r3, .L749+16
 12598 476c 0122     		movs	r2, #1
 12599 476e 1A70     		strb	r2, [r3]
2647:.\main.c      ****                                 EEPROM_WriteByte(lado1.grado[0][0],16);
 12600              		.loc 1 2647 0
 12601 4770 B64B     		ldr	r3, .L749+20
 12602 4772 93F85930 		ldrb	r3, [r3, #89]
 12603 4776 DBB2     		uxtb	r3, r3
 12604 4778 1846     		mov	r0, r3
 12605 477a 1021     		movs	r1, #16
 12606 477c FFF7FEFF 		bl	EEPROM_WriteByte
2648:.\main.c      ****                                 EEPROM_WriteByte(lado1.grado[1][0],17);
 12607              		.loc 1 2648 0
 12608 4780 B24B     		ldr	r3, .L749+20
 12609 4782 93F85A30 		ldrb	r3, [r3, #90]
 12610 4786 DBB2     		uxtb	r3, r3
 12611 4788 1846     		mov	r0, r3
 12612 478a 1121     		movs	r1, #17
 12613 478c FFF7FEFF 		bl	EEPROM_WriteByte
2649:.\main.c      ****                                 EEPROM_WriteByte(lado1.grado[2][0],18);
 12614              		.loc 1 2649 0
 12615 4790 AE4B     		ldr	r3, .L749+20
 12616 4792 93F85B30 		ldrb	r3, [r3, #91]
 12617 4796 DBB2     		uxtb	r3, r3
 12618 4798 1846     		mov	r0, r3
 12619 479a 1221     		movs	r1, #18
 12620 479c FFF7FEFF 		bl	EEPROM_WriteByte
2650:.\main.c      ****     						    set_imagen(1,74);	
 12621              		.loc 1 2650 0
 12622 47a0 0120     		movs	r0, #1
 12623 47a2 4A21     		movs	r1, #74
 12624 47a4 FFF7FEFF 		bl	set_imagen
2651:.\main.c      ****     	                        flujo_LCD1 = 0;    
 12625              		.loc 1 2651 0
 12626 47a8 A94B     		ldr	r3, .L749+24
 12627 47aa 0022     		movs	r2, #0
 12628 47ac 1A70     		strb	r2, [r3]
2652:.\main.c      ****     							lado1.estado=libre;  
 12629              		.loc 1 2652 0
 12630 47ae A74B     		ldr	r3, .L749+20
 12631 47b0 0122     		movs	r2, #1
 12632 47b2 5A70     		strb	r2, [r3, #1]
ARM GAS  C:\Users\RECEPC~1\AppData\Local\Temp\ccIpe7td.s 			page 274


2653:.\main.c      ****     	                    break;                         
 12633              		.loc 1 2653 0
 12634 47b4 00BF     		nop
 12635              	.L599:
2654:.\main.c      ****                         }
2655:.\main.c      ****                     }
2656:.\main.c      ****                     CyDelay(100);            
 12636              		.loc 1 2656 0
 12637 47b6 6420     		movs	r0, #100
 12638 47b8 FFF7FEFF 		bl	CyDelay
2657:.\main.c      ****     	            LCD_1_ClearRxBuffer();
 12639              		.loc 1 2657 0
 12640 47bc FFF7FEFF 		bl	LCD_1_ClearRxBuffer
 12641              	.L598:
2658:.\main.c      ****                 }   
2659:.\main.c      ****             }
2660:.\main.c      ****             if(seleccion_pos == 2){							   
 12642              		.loc 1 2660 0
 12643 47c0 A44B     		ldr	r3, .L749+28
 12644 47c2 1B78     		ldrb	r3, [r3]
 12645 47c4 DBB2     		uxtb	r3, r3
 12646 47c6 022B     		cmp	r3, #2
 12647 47c8 40F01E82 		bne	.L633
2661:.\main.c      ****     	        if(LCD_1_GetRxBufferSize()==8){
 12648              		.loc 1 2661 0
 12649 47cc FFF7FEFF 		bl	LCD_1_GetRxBufferSize
 12650 47d0 0346     		mov	r3, r0
 12651 47d2 082B     		cmp	r3, #8
 12652 47d4 40F01882 		bne	.L633
2662:.\main.c      ****     	            if((LCD_1_rxBuffer[0]==0xAA) && (LCD_1_rxBuffer[6]==0xC3) && (LCD_1_rxBuffer[7]==0
 12653              		.loc 1 2662 0
 12654 47d8 9F4B     		ldr	r3, .L749+32
 12655 47da 1B78     		ldrb	r3, [r3]
 12656 47dc DBB2     		uxtb	r3, r3
 12657 47de AA2B     		cmp	r3, #170
 12658 47e0 40F00C82 		bne	.L634
 12659              		.loc 1 2662 0 is_stmt 0 discriminator 1
 12660 47e4 9C4B     		ldr	r3, .L749+32
 12661 47e6 9B79     		ldrb	r3, [r3, #6]
 12662 47e8 DBB2     		uxtb	r3, r3
 12663 47ea C32B     		cmp	r3, #195
 12664 47ec 40F00682 		bne	.L634
 12665              		.loc 1 2662 0 discriminator 2
 12666 47f0 994B     		ldr	r3, .L749+32
 12667 47f2 DB79     		ldrb	r3, [r3, #7]
 12668 47f4 DBB2     		uxtb	r3, r3
 12669 47f6 3C2B     		cmp	r3, #60
 12670 47f8 40F00082 		bne	.L634
2663:.\main.c      ****     	                switch(LCD_1_rxBuffer[3]){
 12671              		.loc 1 2663 0 is_stmt 1
 12672 47fc 964B     		ldr	r3, .L749+32
 12673 47fe DB78     		ldrb	r3, [r3, #3]
 12674 4800 DBB2     		uxtb	r3, r3
 12675 4802 7E3B     		subs	r3, r3, #126
 12676 4804 042B     		cmp	r3, #4
 12677 4806 00F2F981 		bhi	.L634
 12678 480a 01A2     		adr	r2, .L636
ARM GAS  C:\Users\RECEPC~1\AppData\Local\Temp\ccIpe7td.s 			page 275


 12679 480c 52F823F0 		ldr	pc, [r2, r3, lsl #2]
 12680              		.p2align 2
 12681              	.L636:
 12682 4810 25490000 		.word	.L635+1
 12683 4814 A5480000 		.word	.L637+1
 12684 4818 25480000 		.word	.L638+1
 12685 481c 65480000 		.word	.L639+1
 12686 4820 E5480000 		.word	.L640+1
 12687              		.p2align 1
 12688              	.L638:
2664:.\main.c      ****                             case 0x80:  //Producto 1
2665:.\main.c      ****                                 Producto=1;                                                    
 12689              		.loc 1 2665 0
 12690 4824 8D4B     		ldr	r3, .L749+36
 12691 4826 0122     		movs	r2, #1
 12692 4828 1A70     		strb	r2, [r3]
2666:.\main.c      ****                                 set_imagen(1,6);  
 12693              		.loc 1 2666 0
 12694 482a 0120     		movs	r0, #1
 12695 482c 0621     		movs	r1, #6
 12696 482e FFF7FEFF 		bl	set_imagen
2667:.\main.c      ****                                 id_teclado1=7;
 12697              		.loc 1 2667 0
 12698 4832 8B4B     		ldr	r3, .L749+40
 12699 4834 0722     		movs	r2, #7
 12700 4836 1A70     		strb	r2, [r3]
2668:.\main.c      ****     					        count_teclas1=0;							    //Inicia el contador de teclas	
 12701              		.loc 1 2668 0
 12702 4838 8A4B     		ldr	r3, .L749+44
 12703 483a 0022     		movs	r2, #0
 12704 483c 1A70     		strb	r2, [r3]
2669:.\main.c      ****     					        id_coma1=',';	
 12705              		.loc 1 2669 0
 12706 483e 8A4B     		ldr	r3, .L749+48
 12707 4840 2C22     		movs	r2, #44
 12708 4842 1A70     		strb	r2, [r3]
2670:.\main.c      ****                                 teclas1=1;              						//cantidad de teclas q puede digitar 
 12709              		.loc 1 2670 0
 12710 4844 894B     		ldr	r3, .L749+52
 12711 4846 0122     		movs	r2, #1
 12712 4848 1A70     		strb	r2, [r3]
2671:.\main.c      ****     					        posx1=4;
 12713              		.loc 1 2671 0
 12714 484a 894B     		ldr	r3, .L749+56
 12715 484c 0422     		movs	r2, #4
 12716 484e 1A80     		strh	r2, [r3]	@ movhi
2672:.\main.c      ****     					        posy1=3;
 12717              		.loc 1 2672 0
 12718 4850 884B     		ldr	r3, .L749+60
 12719 4852 0322     		movs	r2, #3
 12720 4854 1A80     		strh	r2, [r3]	@ movhi
2673:.\main.c      ****     					        sizeletra1=1;  
 12721              		.loc 1 2673 0
 12722 4856 884B     		ldr	r3, .L749+64
 12723 4858 0122     		movs	r2, #1
 12724 485a 1A80     		strh	r2, [r3]	@ movhi
2674:.\main.c      ****                                 flujo_LCD1 = 12;
ARM GAS  C:\Users\RECEPC~1\AppData\Local\Temp\ccIpe7td.s 			page 276


 12725              		.loc 1 2674 0
 12726 485c 7C4B     		ldr	r3, .L749+24
 12727 485e 0C22     		movs	r2, #12
 12728 4860 1A70     		strb	r2, [r3]
2675:.\main.c      ****                             break;
 12729              		.loc 1 2675 0
 12730 4862 CBE1     		b	.L634
 12731              	.L639:
2676:.\main.c      ****                             case 0x81:  //Producto 2
2677:.\main.c      ****                                 Producto=2;                                                    
 12732              		.loc 1 2677 0
 12733 4864 7D4B     		ldr	r3, .L749+36
 12734 4866 0222     		movs	r2, #2
 12735 4868 1A70     		strb	r2, [r3]
2678:.\main.c      ****                                 set_imagen(1,6);  
 12736              		.loc 1 2678 0
 12737 486a 0120     		movs	r0, #1
 12738 486c 0621     		movs	r1, #6
 12739 486e FFF7FEFF 		bl	set_imagen
2679:.\main.c      ****                                 id_teclado1=7;
 12740              		.loc 1 2679 0
 12741 4872 7B4B     		ldr	r3, .L749+40
 12742 4874 0722     		movs	r2, #7
 12743 4876 1A70     		strb	r2, [r3]
2680:.\main.c      ****     					        count_teclas1=0;							    	
 12744              		.loc 1 2680 0
 12745 4878 7A4B     		ldr	r3, .L749+44
 12746 487a 0022     		movs	r2, #0
 12747 487c 1A70     		strb	r2, [r3]
2681:.\main.c      ****     					        id_coma1=',';	
 12748              		.loc 1 2681 0
 12749 487e 7A4B     		ldr	r3, .L749+48
 12750 4880 2C22     		movs	r2, #44
 12751 4882 1A70     		strb	r2, [r3]
2682:.\main.c      ****                                 teclas1=1;              															
 12752              		.loc 1 2682 0
 12753 4884 794B     		ldr	r3, .L749+52
 12754 4886 0122     		movs	r2, #1
 12755 4888 1A70     		strb	r2, [r3]
2683:.\main.c      ****     					        posx1=4;
 12756              		.loc 1 2683 0
 12757 488a 794B     		ldr	r3, .L749+56
 12758 488c 0422     		movs	r2, #4
 12759 488e 1A80     		strh	r2, [r3]	@ movhi
2684:.\main.c      ****     					        posy1=3;
 12760              		.loc 1 2684 0
 12761 4890 784B     		ldr	r3, .L749+60
 12762 4892 0322     		movs	r2, #3
 12763 4894 1A80     		strh	r2, [r3]	@ movhi
2685:.\main.c      ****     					        sizeletra1=1;  
 12764              		.loc 1 2685 0
 12765 4896 784B     		ldr	r3, .L749+64
 12766 4898 0122     		movs	r2, #1
 12767 489a 1A80     		strh	r2, [r3]	@ movhi
2686:.\main.c      ****                                 flujo_LCD1 = 12;
 12768              		.loc 1 2686 0
 12769 489c 6C4B     		ldr	r3, .L749+24
ARM GAS  C:\Users\RECEPC~1\AppData\Local\Temp\ccIpe7td.s 			page 277


 12770 489e 0C22     		movs	r2, #12
 12771 48a0 1A70     		strb	r2, [r3]
2687:.\main.c      ****                             break;                            
 12772              		.loc 1 2687 0
 12773 48a2 ABE1     		b	.L634
 12774              	.L637:
2688:.\main.c      ****                             case 0x7F:  //Producto 3
2689:.\main.c      ****                                 Producto=3;                                                    
 12775              		.loc 1 2689 0
 12776 48a4 6D4B     		ldr	r3, .L749+36
 12777 48a6 0322     		movs	r2, #3
 12778 48a8 1A70     		strb	r2, [r3]
2690:.\main.c      ****                                 set_imagen(1,6);  
 12779              		.loc 1 2690 0
 12780 48aa 0120     		movs	r0, #1
 12781 48ac 0621     		movs	r1, #6
 12782 48ae FFF7FEFF 		bl	set_imagen
2691:.\main.c      ****                                 id_teclado1=7;
 12783              		.loc 1 2691 0
 12784 48b2 6B4B     		ldr	r3, .L749+40
 12785 48b4 0722     		movs	r2, #7
 12786 48b6 1A70     		strb	r2, [r3]
2692:.\main.c      ****     					        count_teclas1=0;							    
 12787              		.loc 1 2692 0
 12788 48b8 6A4B     		ldr	r3, .L749+44
 12789 48ba 0022     		movs	r2, #0
 12790 48bc 1A70     		strb	r2, [r3]
2693:.\main.c      ****     					        id_coma1=',';	
 12791              		.loc 1 2693 0
 12792 48be 6A4B     		ldr	r3, .L749+48
 12793 48c0 2C22     		movs	r2, #44
 12794 48c2 1A70     		strb	r2, [r3]
2694:.\main.c      ****                                 teclas1=1;              													
 12795              		.loc 1 2694 0
 12796 48c4 694B     		ldr	r3, .L749+52
 12797 48c6 0122     		movs	r2, #1
 12798 48c8 1A70     		strb	r2, [r3]
2695:.\main.c      ****     					        posx1=4;
 12799              		.loc 1 2695 0
 12800 48ca 694B     		ldr	r3, .L749+56
 12801 48cc 0422     		movs	r2, #4
 12802 48ce 1A80     		strh	r2, [r3]	@ movhi
2696:.\main.c      ****     					        posy1=3;
 12803              		.loc 1 2696 0
 12804 48d0 684B     		ldr	r3, .L749+60
 12805 48d2 0322     		movs	r2, #3
 12806 48d4 1A80     		strh	r2, [r3]	@ movhi
2697:.\main.c      ****     					        sizeletra1=1;                      
 12807              		.loc 1 2697 0
 12808 48d6 684B     		ldr	r3, .L749+64
 12809 48d8 0122     		movs	r2, #1
 12810 48da 1A80     		strh	r2, [r3]	@ movhi
2698:.\main.c      ****                                 flujo_LCD1 = 12;
 12811              		.loc 1 2698 0
 12812 48dc 5C4B     		ldr	r3, .L749+24
 12813 48de 0C22     		movs	r2, #12
 12814 48e0 1A70     		strb	r2, [r3]
ARM GAS  C:\Users\RECEPC~1\AppData\Local\Temp\ccIpe7td.s 			page 278


2699:.\main.c      ****                             break;                            
 12815              		.loc 1 2699 0
 12816 48e2 8BE1     		b	.L634
 12817              	.L640:
2700:.\main.c      ****                             case 0x82:  //Producto 4
2701:.\main.c      ****                                 Producto=4;                                                   
 12818              		.loc 1 2701 0
 12819 48e4 5D4B     		ldr	r3, .L749+36
 12820 48e6 0422     		movs	r2, #4
 12821 48e8 1A70     		strb	r2, [r3]
2702:.\main.c      ****                                 set_imagen(1,6);  
 12822              		.loc 1 2702 0
 12823 48ea 0120     		movs	r0, #1
 12824 48ec 0621     		movs	r1, #6
 12825 48ee FFF7FEFF 		bl	set_imagen
2703:.\main.c      ****                                 id_teclado1=7;
 12826              		.loc 1 2703 0
 12827 48f2 5B4B     		ldr	r3, .L749+40
 12828 48f4 0722     		movs	r2, #7
 12829 48f6 1A70     		strb	r2, [r3]
2704:.\main.c      ****     					        count_teclas1=0;							    	
 12830              		.loc 1 2704 0
 12831 48f8 5A4B     		ldr	r3, .L749+44
 12832 48fa 0022     		movs	r2, #0
 12833 48fc 1A70     		strb	r2, [r3]
2705:.\main.c      ****     					        id_coma1=',';	
 12834              		.loc 1 2705 0
 12835 48fe 5A4B     		ldr	r3, .L749+48
 12836 4900 2C22     		movs	r2, #44
 12837 4902 1A70     		strb	r2, [r3]
2706:.\main.c      ****                                 teclas1=1;              														
 12838              		.loc 1 2706 0
 12839 4904 594B     		ldr	r3, .L749+52
 12840 4906 0122     		movs	r2, #1
 12841 4908 1A70     		strb	r2, [r3]
2707:.\main.c      ****     					        posx1=4;
 12842              		.loc 1 2707 0
 12843 490a 594B     		ldr	r3, .L749+56
 12844 490c 0422     		movs	r2, #4
 12845 490e 1A80     		strh	r2, [r3]	@ movhi
2708:.\main.c      ****     					        posy1=3;
 12846              		.loc 1 2708 0
 12847 4910 584B     		ldr	r3, .L749+60
 12848 4912 0322     		movs	r2, #3
 12849 4914 1A80     		strh	r2, [r3]	@ movhi
2709:.\main.c      ****     					        sizeletra1=1;        
 12850              		.loc 1 2709 0
 12851 4916 584B     		ldr	r3, .L749+64
 12852 4918 0122     		movs	r2, #1
 12853 491a 1A80     		strh	r2, [r3]	@ movhi
2710:.\main.c      ****                                 flujo_LCD1 = 12;
 12854              		.loc 1 2710 0
 12855 491c 4C4B     		ldr	r3, .L749+24
 12856 491e 0C22     		movs	r2, #12
 12857 4920 1A70     		strb	r2, [r3]
2711:.\main.c      ****                             break;                     
 12858              		.loc 1 2711 0
ARM GAS  C:\Users\RECEPC~1\AppData\Local\Temp\ccIpe7td.s 			page 279


 12859 4922 6BE1     		b	.L634
 12860              	.L635:
2712:.\main.c      ****     	                    case 0x7E:	//Envía datos al Beagle de productos 
2713:.\main.c      ****                             	rf_mod[0]='M';
 12861              		.loc 1 2713 0
 12862 4924 444B     		ldr	r3, .L749
 12863 4926 4D22     		movs	r2, #77
 12864 4928 1A70     		strb	r2, [r3]
2714:.\main.c      ****     			                rf_mod[1]='U';
 12865              		.loc 1 2714 0
 12866 492a 434B     		ldr	r3, .L749
 12867 492c 5522     		movs	r2, #85
 12868 492e 5A70     		strb	r2, [r3, #1]
2715:.\main.c      ****     			                rf_mod[2]='X';
 12869              		.loc 1 2715 0
 12870 4930 414B     		ldr	r3, .L749
 12871 4932 5822     		movs	r2, #88
 12872 4934 9A70     		strb	r2, [r3, #2]
2716:.\main.c      ****     			                rf_mod[3]='4'; 
 12873              		.loc 1 2716 0
 12874 4936 404B     		ldr	r3, .L749
 12875 4938 3422     		movs	r2, #52
 12876 493a DA70     		strb	r2, [r3, #3]
2717:.\main.c      ****                                 y=4;
 12877              		.loc 1 2717 0
 12878 493c 0423     		movs	r3, #4
 12879 493e 87F82E30 		strb	r3, [r7, #46]
2718:.\main.c      ****                                 for(x=0;x<=2;x++){
 12880              		.loc 1 2718 0
 12881 4942 0023     		movs	r3, #0
 12882 4944 87F82F30 		strb	r3, [r7, #47]
 12883 4948 3CE0     		b	.L641
 12884              	.L649:
2719:.\main.c      ****                                     switch(lado2.grado[x][0]){
 12885              		.loc 1 2719 0
 12886 494a 97F82F30 		ldrb	r3, [r7, #47]	@ zero_extendqisi2
 12887 494e 4B4A     		ldr	r2, .L749+68
 12888 4950 1344     		add	r3, r3, r2
 12889 4952 93F85930 		ldrb	r3, [r3, #89]
 12890 4956 DBB2     		uxtb	r3, r3
 12891 4958 013B     		subs	r3, r3, #1
 12892 495a 032B     		cmp	r3, #3
 12893 495c 22D8     		bhi	.L642
 12894 495e 01A2     		adr	r2, .L644
 12895 4960 52F823F0 		ldr	pc, [r2, r3, lsl #2]
 12896              		.p2align 2
 12897              	.L644:
 12898 4964 75490000 		.word	.L643+1
 12899 4968 81490000 		.word	.L645+1
 12900 496c 8D490000 		.word	.L646+1
 12901 4970 99490000 		.word	.L647+1
 12902              		.p2align 1
 12903              	.L643:
2720:.\main.c      ****                                     	case 1:
2721:.\main.c      ****                                     		rf_mod[y]='1';//Diesel
 12904              		.loc 1 2721 0
 12905 4974 97F82E30 		ldrb	r3, [r7, #46]	@ zero_extendqisi2
ARM GAS  C:\Users\RECEPC~1\AppData\Local\Temp\ccIpe7td.s 			page 280


 12906 4978 2F4A     		ldr	r2, .L749
 12907 497a 3121     		movs	r1, #49
 12908 497c D154     		strb	r1, [r2, r3]
2722:.\main.c      ****                                     	break;
 12909              		.loc 1 2722 0
 12910 497e 17E0     		b	.L648
 12911              	.L645:
2723:.\main.c      ****                                     	case 2:
2724:.\main.c      ****                                     		rf_mod[y]='2';//Corriente
 12912              		.loc 1 2724 0
 12913 4980 97F82E30 		ldrb	r3, [r7, #46]	@ zero_extendqisi2
 12914 4984 2C4A     		ldr	r2, .L749
 12915 4986 3221     		movs	r1, #50
 12916 4988 D154     		strb	r1, [r2, r3]
2725:.\main.c      ****                                     	break;
 12917              		.loc 1 2725 0
 12918 498a 11E0     		b	.L648
 12919              	.L646:
2726:.\main.c      ****                                     	case 3:
2727:.\main.c      ****                                     		rf_mod[y]='3';//Extra
 12920              		.loc 1 2727 0
 12921 498c 97F82E30 		ldrb	r3, [r7, #46]	@ zero_extendqisi2
 12922 4990 294A     		ldr	r2, .L749
 12923 4992 3321     		movs	r1, #51
 12924 4994 D154     		strb	r1, [r2, r3]
2728:.\main.c      ****                                     	break;
 12925              		.loc 1 2728 0
 12926 4996 0BE0     		b	.L648
 12927              	.L647:
2729:.\main.c      ****                                     	case 4:
2730:.\main.c      ****                                     		rf_mod[y]='4';//Supremo diesel
 12928              		.loc 1 2730 0
 12929 4998 97F82E30 		ldrb	r3, [r7, #46]	@ zero_extendqisi2
 12930 499c 264A     		ldr	r2, .L749
 12931 499e 3421     		movs	r1, #52
 12932 49a0 D154     		strb	r1, [r2, r3]
2731:.\main.c      ****                                     	break;
 12933              		.loc 1 2731 0
 12934 49a2 05E0     		b	.L648
 12935              	.L642:
2732:.\main.c      ****                                         default:
2733:.\main.c      ****                                             rf_mod[y]='0';
 12936              		.loc 1 2733 0
 12937 49a4 97F82E30 		ldrb	r3, [r7, #46]	@ zero_extendqisi2
 12938 49a8 234A     		ldr	r2, .L749
 12939 49aa 3021     		movs	r1, #48
 12940 49ac D154     		strb	r1, [r2, r3]
2734:.\main.c      ****                                         break;
 12941              		.loc 1 2734 0
 12942 49ae 00BF     		nop
 12943              	.L648:
2735:.\main.c      ****                                     }                                                 
2736:.\main.c      ****                                     y++;                                
 12944              		.loc 1 2736 0 discriminator 2
 12945 49b0 97F82E30 		ldrb	r3, [r7, #46]	@ zero_extendqisi2
 12946 49b4 0133     		adds	r3, r3, #1
 12947 49b6 87F82E30 		strb	r3, [r7, #46]
ARM GAS  C:\Users\RECEPC~1\AppData\Local\Temp\ccIpe7td.s 			page 281


2718:.\main.c      ****                                     switch(lado2.grado[x][0]){
 12948              		.loc 1 2718 0 discriminator 2
 12949 49ba 97F82F30 		ldrb	r3, [r7, #47]	@ zero_extendqisi2
 12950 49be 0133     		adds	r3, r3, #1
 12951 49c0 87F82F30 		strb	r3, [r7, #47]
 12952              	.L641:
2718:.\main.c      ****                                     switch(lado2.grado[x][0]){
 12953              		.loc 1 2718 0 is_stmt 0 discriminator 1
 12954 49c4 97F82F30 		ldrb	r3, [r7, #47]	@ zero_extendqisi2
 12955 49c8 022B     		cmp	r3, #2
 12956 49ca BED9     		bls	.L649
2737:.\main.c      ****                                 }  
2738:.\main.c      ****                                 if(producto1==0){
 12957              		.loc 1 2738 0 is_stmt 1
 12958 49cc 1B4B     		ldr	r3, .L749+4
 12959 49ce 1B78     		ldrb	r3, [r3]	@ zero_extendqisi2
 12960 49d0 002B     		cmp	r3, #0
 12961 49d2 26D1     		bne	.L650
2739:.\main.c      ****                                     y=0;                                    
 12962              		.loc 1 2739 0
 12963 49d4 0023     		movs	r3, #0
 12964 49d6 87F82E30 		strb	r3, [r7, #46]
2740:.\main.c      ****                                     for(x=4;x<=6;x++){
 12965              		.loc 1 2740 0
 12966 49da 0423     		movs	r3, #4
 12967 49dc 87F82F30 		strb	r3, [r7, #47]
 12968 49e0 1BE0     		b	.L651
 12969              	.L653:
2741:.\main.c      ****                                         if(rf_mod[x]=='1'){
 12970              		.loc 1 2741 0
 12971 49e2 97F82F30 		ldrb	r3, [r7, #47]	@ zero_extendqisi2
 12972 49e6 144A     		ldr	r2, .L749
 12973 49e8 D35C     		ldrb	r3, [r2, r3]	@ zero_extendqisi2
 12974 49ea 312B     		cmp	r3, #49
 12975 49ec 0BD1     		bne	.L652
2742:.\main.c      ****                                            rf_mod[x]='0';     
 12976              		.loc 1 2742 0
 12977 49ee 97F82F30 		ldrb	r3, [r7, #47]	@ zero_extendqisi2
 12978 49f2 114A     		ldr	r2, .L749
 12979 49f4 3021     		movs	r1, #48
 12980 49f6 D154     		strb	r1, [r2, r3]
2743:.\main.c      ****                                             lado2.grado[y][0]=0;                                   
 12981              		.loc 1 2743 0
 12982 49f8 97F82E30 		ldrb	r3, [r7, #46]	@ zero_extendqisi2
 12983 49fc 1F4A     		ldr	r2, .L749+68
 12984 49fe 1344     		add	r3, r3, r2
 12985 4a00 0022     		movs	r2, #0
 12986 4a02 83F85920 		strb	r2, [r3, #89]
 12987              	.L652:
2744:.\main.c      ****                                         }
2745:.\main.c      ****                                         y++;
 12988              		.loc 1 2745 0 discriminator 2
 12989 4a06 97F82E30 		ldrb	r3, [r7, #46]	@ zero_extendqisi2
 12990 4a0a 0133     		adds	r3, r3, #1
 12991 4a0c 87F82E30 		strb	r3, [r7, #46]
2740:.\main.c      ****                                         if(rf_mod[x]=='1'){
 12992              		.loc 1 2740 0 discriminator 2
ARM GAS  C:\Users\RECEPC~1\AppData\Local\Temp\ccIpe7td.s 			page 282


 12993 4a10 97F82F30 		ldrb	r3, [r7, #47]	@ zero_extendqisi2
 12994 4a14 0133     		adds	r3, r3, #1
 12995 4a16 87F82F30 		strb	r3, [r7, #47]
 12996              	.L651:
2740:.\main.c      ****                                         if(rf_mod[x]=='1'){
 12997              		.loc 1 2740 0 is_stmt 0 discriminator 1
 12998 4a1a 97F82F30 		ldrb	r3, [r7, #47]	@ zero_extendqisi2
 12999 4a1e 062B     		cmp	r3, #6
 13000 4a20 DFD9     		bls	.L653
 13001              	.L650:
2746:.\main.c      ****                                     }
2747:.\main.c      ****                                 }        
2748:.\main.c      ****                                 if(producto2==0){
 13002              		.loc 1 2748 0 is_stmt 1
 13003 4a22 074B     		ldr	r3, .L749+8
 13004 4a24 1B78     		ldrb	r3, [r3]	@ zero_extendqisi2
 13005 4a26 002B     		cmp	r3, #0
 13006 4a28 4AD1     		bne	.L654
2749:.\main.c      ****                                     y=0;                                    
 13007              		.loc 1 2749 0
 13008 4a2a 0023     		movs	r3, #0
 13009 4a2c 87F82E30 		strb	r3, [r7, #46]
2750:.\main.c      ****                                     for(x=4;x<=6;x++){
 13010              		.loc 1 2750 0
 13011 4a30 0423     		movs	r3, #4
 13012 4a32 87F82F30 		strb	r3, [r7, #47]
 13013 4a36 3FE0     		b	.L655
 13014              	.L750:
 13015              		.align	2
 13016              	.L749:
 13017 4a38 00000000 		.word	rf_mod
 13018 4a3c 00000000 		.word	producto1
 13019 4a40 00000000 		.word	producto2
 13020 4a44 00000000 		.word	producto3
 13021 4a48 00000000 		.word	producto4
 13022 4a4c 00000000 		.word	lado1
 13023 4a50 00000000 		.word	flujo_LCD1
 13024 4a54 00000000 		.word	seleccion_pos
 13025 4a58 00000000 		.word	LCD_1_rxBuffer
 13026 4a5c 00000000 		.word	Producto
 13027 4a60 00000000 		.word	id_teclado1
 13028 4a64 00000000 		.word	count_teclas1
 13029 4a68 00000000 		.word	id_coma1
 13030 4a6c 00000000 		.word	teclas1
 13031 4a70 00000000 		.word	posx1
 13032 4a74 00000000 		.word	posy1
 13033 4a78 00000000 		.word	sizeletra1
 13034 4a7c 00000000 		.word	lado2
 13035              	.L657:
2751:.\main.c      ****                                         if(rf_mod[x]=='2'){
 13036              		.loc 1 2751 0
 13037 4a80 97F82F30 		ldrb	r3, [r7, #47]	@ zero_extendqisi2
 13038 4a84 C54A     		ldr	r2, .L751
 13039 4a86 D35C     		ldrb	r3, [r2, r3]	@ zero_extendqisi2
 13040 4a88 322B     		cmp	r3, #50
 13041 4a8a 0BD1     		bne	.L656
2752:.\main.c      ****                                            rf_mod[x]='0';     
ARM GAS  C:\Users\RECEPC~1\AppData\Local\Temp\ccIpe7td.s 			page 283


 13042              		.loc 1 2752 0
 13043 4a8c 97F82F30 		ldrb	r3, [r7, #47]	@ zero_extendqisi2
 13044 4a90 C24A     		ldr	r2, .L751
 13045 4a92 3021     		movs	r1, #48
 13046 4a94 D154     		strb	r1, [r2, r3]
2753:.\main.c      ****                                             lado2.grado[y][0]=0;                                   
 13047              		.loc 1 2753 0
 13048 4a96 97F82E30 		ldrb	r3, [r7, #46]	@ zero_extendqisi2
 13049 4a9a C14A     		ldr	r2, .L751+4
 13050 4a9c 1344     		add	r3, r3, r2
 13051 4a9e 0022     		movs	r2, #0
 13052 4aa0 83F85920 		strb	r2, [r3, #89]
 13053              	.L656:
2754:.\main.c      ****                                         }
2755:.\main.c      ****                                         y++;
 13054              		.loc 1 2755 0 discriminator 2
 13055 4aa4 97F82E30 		ldrb	r3, [r7, #46]	@ zero_extendqisi2
 13056 4aa8 0133     		adds	r3, r3, #1
 13057 4aaa 87F82E30 		strb	r3, [r7, #46]
2750:.\main.c      ****                                         if(rf_mod[x]=='2'){
 13058              		.loc 1 2750 0 discriminator 2
 13059 4aae 97F82F30 		ldrb	r3, [r7, #47]	@ zero_extendqisi2
 13060 4ab2 0133     		adds	r3, r3, #1
 13061 4ab4 87F82F30 		strb	r3, [r7, #47]
 13062              	.L655:
2750:.\main.c      ****                                         if(rf_mod[x]=='2'){
 13063              		.loc 1 2750 0 is_stmt 0 discriminator 1
 13064 4ab8 97F82F30 		ldrb	r3, [r7, #47]	@ zero_extendqisi2
 13065 4abc 062B     		cmp	r3, #6
 13066 4abe DFD9     		bls	.L657
 13067              	.L654:
2756:.\main.c      ****                                     }
2757:.\main.c      ****                                 }     
2758:.\main.c      ****                                 if(producto3==0){
 13068              		.loc 1 2758 0 is_stmt 1
 13069 4ac0 B84B     		ldr	r3, .L751+8
 13070 4ac2 1B78     		ldrb	r3, [r3]	@ zero_extendqisi2
 13071 4ac4 002B     		cmp	r3, #0
 13072 4ac6 26D1     		bne	.L658
2759:.\main.c      ****                                     y=0;                                    
 13073              		.loc 1 2759 0
 13074 4ac8 0023     		movs	r3, #0
 13075 4aca 87F82E30 		strb	r3, [r7, #46]
2760:.\main.c      ****                                     for(x=4;x<=6;x++){
 13076              		.loc 1 2760 0
 13077 4ace 0423     		movs	r3, #4
 13078 4ad0 87F82F30 		strb	r3, [r7, #47]
 13079 4ad4 1BE0     		b	.L659
 13080              	.L661:
2761:.\main.c      ****                                         if(rf_mod[x]=='3'){
 13081              		.loc 1 2761 0
 13082 4ad6 97F82F30 		ldrb	r3, [r7, #47]	@ zero_extendqisi2
 13083 4ada B04A     		ldr	r2, .L751
 13084 4adc D35C     		ldrb	r3, [r2, r3]	@ zero_extendqisi2
 13085 4ade 332B     		cmp	r3, #51
 13086 4ae0 0BD1     		bne	.L660
2762:.\main.c      ****                                            rf_mod[x]='0';     
ARM GAS  C:\Users\RECEPC~1\AppData\Local\Temp\ccIpe7td.s 			page 284


 13087              		.loc 1 2762 0
 13088 4ae2 97F82F30 		ldrb	r3, [r7, #47]	@ zero_extendqisi2
 13089 4ae6 AD4A     		ldr	r2, .L751
 13090 4ae8 3021     		movs	r1, #48
 13091 4aea D154     		strb	r1, [r2, r3]
2763:.\main.c      ****                                             lado2.grado[y][0]=0;                                   
 13092              		.loc 1 2763 0
 13093 4aec 97F82E30 		ldrb	r3, [r7, #46]	@ zero_extendqisi2
 13094 4af0 AB4A     		ldr	r2, .L751+4
 13095 4af2 1344     		add	r3, r3, r2
 13096 4af4 0022     		movs	r2, #0
 13097 4af6 83F85920 		strb	r2, [r3, #89]
 13098              	.L660:
2764:.\main.c      ****                                         }
2765:.\main.c      ****                                         y++;
 13099              		.loc 1 2765 0 discriminator 2
 13100 4afa 97F82E30 		ldrb	r3, [r7, #46]	@ zero_extendqisi2
 13101 4afe 0133     		adds	r3, r3, #1
 13102 4b00 87F82E30 		strb	r3, [r7, #46]
2760:.\main.c      ****                                         if(rf_mod[x]=='3'){
 13103              		.loc 1 2760 0 discriminator 2
 13104 4b04 97F82F30 		ldrb	r3, [r7, #47]	@ zero_extendqisi2
 13105 4b08 0133     		adds	r3, r3, #1
 13106 4b0a 87F82F30 		strb	r3, [r7, #47]
 13107              	.L659:
2760:.\main.c      ****                                         if(rf_mod[x]=='3'){
 13108              		.loc 1 2760 0 is_stmt 0 discriminator 1
 13109 4b0e 97F82F30 		ldrb	r3, [r7, #47]	@ zero_extendqisi2
 13110 4b12 062B     		cmp	r3, #6
 13111 4b14 DFD9     		bls	.L661
 13112              	.L658:
2766:.\main.c      ****                                     }
2767:.\main.c      ****                                 }
2768:.\main.c      ****                                 if(producto4==0){
 13113              		.loc 1 2768 0 is_stmt 1
 13114 4b16 A44B     		ldr	r3, .L751+12
 13115 4b18 1B78     		ldrb	r3, [r3]	@ zero_extendqisi2
 13116 4b1a 002B     		cmp	r3, #0
 13117 4b1c 26D1     		bne	.L662
2769:.\main.c      ****                                     y=0;                                    
 13118              		.loc 1 2769 0
 13119 4b1e 0023     		movs	r3, #0
 13120 4b20 87F82E30 		strb	r3, [r7, #46]
2770:.\main.c      ****                                     for(x=4;x<=6;x++){
 13121              		.loc 1 2770 0
 13122 4b24 0423     		movs	r3, #4
 13123 4b26 87F82F30 		strb	r3, [r7, #47]
 13124 4b2a 1BE0     		b	.L663
 13125              	.L665:
2771:.\main.c      ****                                         if(rf_mod[x]=='4'){
 13126              		.loc 1 2771 0
 13127 4b2c 97F82F30 		ldrb	r3, [r7, #47]	@ zero_extendqisi2
 13128 4b30 9A4A     		ldr	r2, .L751
 13129 4b32 D35C     		ldrb	r3, [r2, r3]	@ zero_extendqisi2
 13130 4b34 342B     		cmp	r3, #52
 13131 4b36 0BD1     		bne	.L664
2772:.\main.c      ****                                            rf_mod[x]='0';     
ARM GAS  C:\Users\RECEPC~1\AppData\Local\Temp\ccIpe7td.s 			page 285


 13132              		.loc 1 2772 0
 13133 4b38 97F82F30 		ldrb	r3, [r7, #47]	@ zero_extendqisi2
 13134 4b3c 974A     		ldr	r2, .L751
 13135 4b3e 3021     		movs	r1, #48
 13136 4b40 D154     		strb	r1, [r2, r3]
2773:.\main.c      ****                                             lado2.grado[y][0]=0;                                   
 13137              		.loc 1 2773 0
 13138 4b42 97F82E30 		ldrb	r3, [r7, #46]	@ zero_extendqisi2
 13139 4b46 964A     		ldr	r2, .L751+4
 13140 4b48 1344     		add	r3, r3, r2
 13141 4b4a 0022     		movs	r2, #0
 13142 4b4c 83F85920 		strb	r2, [r3, #89]
 13143              	.L664:
2774:.\main.c      ****                                         }
2775:.\main.c      ****                                         y++;
 13144              		.loc 1 2775 0 discriminator 2
 13145 4b50 97F82E30 		ldrb	r3, [r7, #46]	@ zero_extendqisi2
 13146 4b54 0133     		adds	r3, r3, #1
 13147 4b56 87F82E30 		strb	r3, [r7, #46]
2770:.\main.c      ****                                         if(rf_mod[x]=='4'){
 13148              		.loc 1 2770 0 discriminator 2
 13149 4b5a 97F82F30 		ldrb	r3, [r7, #47]	@ zero_extendqisi2
 13150 4b5e 0133     		adds	r3, r3, #1
 13151 4b60 87F82F30 		strb	r3, [r7, #47]
 13152              	.L663:
2770:.\main.c      ****                                         if(rf_mod[x]=='4'){
 13153              		.loc 1 2770 0 is_stmt 0 discriminator 1
 13154 4b64 97F82F30 		ldrb	r3, [r7, #47]	@ zero_extendqisi2
 13155 4b68 062B     		cmp	r3, #6
 13156 4b6a DFD9     		bls	.L665
 13157              	.L662:
2776:.\main.c      ****                                     }
2777:.\main.c      ****                                 }                                                                  
2778:.\main.c      ****                                 rf_mod[7]='*';
 13158              		.loc 1 2778 0 is_stmt 1
 13159 4b6c 8B4B     		ldr	r3, .L751
 13160 4b6e 2A22     		movs	r2, #42
 13161 4b70 DA71     		strb	r2, [r3, #7]
2779:.\main.c      ****     							PC_ClearRxBuffer();				
 13162              		.loc 1 2779 0
 13163 4b72 FFF7FEFF 		bl	PC_ClearRxBuffer
2780:.\main.c      ****     						    for(x=0;x<=7;x++){
 13164              		.loc 1 2780 0
 13165 4b76 0023     		movs	r3, #0
 13166 4b78 87F82F30 		strb	r3, [r7, #47]
 13167 4b7c 0BE0     		b	.L666
 13168              	.L667:
2781:.\main.c      ****     							   PC_PutChar(rf_mod[x]);
 13169              		.loc 1 2781 0 discriminator 3
 13170 4b7e 97F82F30 		ldrb	r3, [r7, #47]	@ zero_extendqisi2
 13171 4b82 864A     		ldr	r2, .L751
 13172 4b84 D35C     		ldrb	r3, [r2, r3]	@ zero_extendqisi2
 13173 4b86 1846     		mov	r0, r3
 13174 4b88 FFF7FEFF 		bl	PC_PutChar
2780:.\main.c      ****     						    for(x=0;x<=7;x++){
 13175              		.loc 1 2780 0 discriminator 3
 13176 4b8c 97F82F30 		ldrb	r3, [r7, #47]	@ zero_extendqisi2
ARM GAS  C:\Users\RECEPC~1\AppData\Local\Temp\ccIpe7td.s 			page 286


 13177 4b90 0133     		adds	r3, r3, #1
 13178 4b92 87F82F30 		strb	r3, [r7, #47]
 13179              	.L666:
2780:.\main.c      ****     						    for(x=0;x<=7;x++){
 13180              		.loc 1 2780 0 is_stmt 0 discriminator 1
 13181 4b96 97F82F30 		ldrb	r3, [r7, #47]	@ zero_extendqisi2
 13182 4b9a 072B     		cmp	r3, #7
 13183 4b9c EFD9     		bls	.L667
2782:.\main.c      ****     						    }                      
2783:.\main.c      ****                                 producto1=1;
 13184              		.loc 1 2783 0 is_stmt 1
 13185 4b9e 834B     		ldr	r3, .L751+16
 13186 4ba0 0122     		movs	r2, #1
 13187 4ba2 1A70     		strb	r2, [r3]
2784:.\main.c      ****                                 producto2=1;
 13188              		.loc 1 2784 0
 13189 4ba4 824B     		ldr	r3, .L751+20
 13190 4ba6 0122     		movs	r2, #1
 13191 4ba8 1A70     		strb	r2, [r3]
2785:.\main.c      ****                                 producto3=1;
 13192              		.loc 1 2785 0
 13193 4baa 7E4B     		ldr	r3, .L751+8
 13194 4bac 0122     		movs	r2, #1
 13195 4bae 1A70     		strb	r2, [r3]
2786:.\main.c      ****                                 producto4=1;                                
 13196              		.loc 1 2786 0
 13197 4bb0 7D4B     		ldr	r3, .L751+12
 13198 4bb2 0122     		movs	r2, #1
 13199 4bb4 1A70     		strb	r2, [r3]
2787:.\main.c      ****                                 EEPROM_WriteByte(lado2.grado[0][0],16);
 13200              		.loc 1 2787 0
 13201 4bb6 7A4B     		ldr	r3, .L751+4
 13202 4bb8 93F85930 		ldrb	r3, [r3, #89]
 13203 4bbc DBB2     		uxtb	r3, r3
 13204 4bbe 1846     		mov	r0, r3
 13205 4bc0 1021     		movs	r1, #16
 13206 4bc2 FFF7FEFF 		bl	EEPROM_WriteByte
2788:.\main.c      ****                                 EEPROM_WriteByte(lado2.grado[1][0],17);
 13207              		.loc 1 2788 0
 13208 4bc6 764B     		ldr	r3, .L751+4
 13209 4bc8 93F85A30 		ldrb	r3, [r3, #90]
 13210 4bcc DBB2     		uxtb	r3, r3
 13211 4bce 1846     		mov	r0, r3
 13212 4bd0 1121     		movs	r1, #17
 13213 4bd2 FFF7FEFF 		bl	EEPROM_WriteByte
2789:.\main.c      ****                                 EEPROM_WriteByte(lado2.grado[2][0],18);  // eeprom de productos
 13214              		.loc 1 2789 0
 13215 4bd6 724B     		ldr	r3, .L751+4
 13216 4bd8 93F85B30 		ldrb	r3, [r3, #91]
 13217 4bdc DBB2     		uxtb	r3, r3
 13218 4bde 1846     		mov	r0, r3
 13219 4be0 1221     		movs	r1, #18
 13220 4be2 FFF7FEFF 		bl	EEPROM_WriteByte
2790:.\main.c      ****     						    set_imagen(1,74);	
 13221              		.loc 1 2790 0
 13222 4be6 0120     		movs	r0, #1
 13223 4be8 4A21     		movs	r1, #74
ARM GAS  C:\Users\RECEPC~1\AppData\Local\Temp\ccIpe7td.s 			page 287


 13224 4bea FFF7FEFF 		bl	set_imagen
2791:.\main.c      ****     	                        flujo_LCD1 = 0;    
 13225              		.loc 1 2791 0
 13226 4bee 714B     		ldr	r3, .L751+24
 13227 4bf0 0022     		movs	r2, #0
 13228 4bf2 1A70     		strb	r2, [r3]
2792:.\main.c      ****     							lado2.estado=libre;  
 13229              		.loc 1 2792 0
 13230 4bf4 6A4B     		ldr	r3, .L751+4
 13231 4bf6 0122     		movs	r2, #1
 13232 4bf8 5A70     		strb	r2, [r3, #1]
2793:.\main.c      ****     	                    break;                         
 13233              		.loc 1 2793 0
 13234 4bfa 00BF     		nop
 13235              	.L634:
2794:.\main.c      ****                         }
2795:.\main.c      ****                     }
2796:.\main.c      ****                     CyDelay(100);            
 13236              		.loc 1 2796 0
 13237 4bfc 6420     		movs	r0, #100
 13238 4bfe FFF7FEFF 		bl	CyDelay
2797:.\main.c      ****     	            LCD_1_ClearRxBuffer();
 13239              		.loc 1 2797 0
 13240 4c02 FFF7FEFF 		bl	LCD_1_ClearRxBuffer
2798:.\main.c      ****                 }   
2799:.\main.c      ****             }
2800:.\main.c      ****         break;
 13241              		.loc 1 2800 0
 13242 4c06 0BE1     		b	.L131
 13243              	.L633:
 13244              		.loc 1 2800 0 is_stmt 0 discriminator 19
 13245 4c08 0AE1     		b	.L131
 13246              	.L151:
2801:.\main.c      ****             
2802:.\main.c      ****         case 19:
2803:.\main.c      **** 			rf_mod[0]='M';
 13247              		.loc 1 2803 0 is_stmt 1
 13248 4c0a 644B     		ldr	r3, .L751
 13249 4c0c 4D22     		movs	r2, #77
 13250 4c0e 1A70     		strb	r2, [r3]
2804:.\main.c      **** 			rf_mod[1]='U';
 13251              		.loc 1 2804 0
 13252 4c10 624B     		ldr	r3, .L751
 13253 4c12 5522     		movs	r2, #85
 13254 4c14 5A70     		strb	r2, [r3, #1]
2805:.\main.c      **** 			rf_mod[2]='X';
 13255              		.loc 1 2805 0
 13256 4c16 614B     		ldr	r3, .L751
 13257 4c18 5822     		movs	r2, #88
 13258 4c1a 9A70     		strb	r2, [r3, #2]
2806:.\main.c      **** 			rf_mod[3]='5';  
 13259              		.loc 1 2806 0
 13260 4c1c 5F4B     		ldr	r3, .L751
 13261 4c1e 3522     		movs	r2, #53
 13262 4c20 DA70     		strb	r2, [r3, #3]
2807:.\main.c      ****             if(seleccion_pos == 1){
 13263              		.loc 1 2807 0
ARM GAS  C:\Users\RECEPC~1\AppData\Local\Temp\ccIpe7td.s 			page 288


 13264 4c22 654B     		ldr	r3, .L751+28
 13265 4c24 1B78     		ldrb	r3, [r3]
 13266 4c26 DBB2     		uxtb	r3, r3
 13267 4c28 012B     		cmp	r3, #1
 13268 4c2a 65D1     		bne	.L668
2808:.\main.c      **** 			    for(x=0;x<=15;x++){						//Serial				
 13269              		.loc 1 2808 0
 13270 4c2c 0023     		movs	r3, #0
 13271 4c2e 87F82F30 		strb	r3, [r7, #47]
 13272 4c32 3AE0     		b	.L669
 13273              	.L672:
2809:.\main.c      **** 				    y=(rventa1.id[x/2]>>4)&0x0F;
 13274              		.loc 1 2809 0
 13275 4c34 97F82F30 		ldrb	r3, [r7, #47]	@ zero_extendqisi2
 13276 4c38 5B08     		lsrs	r3, r3, #1
 13277 4c3a DBB2     		uxtb	r3, r3
 13278 4c3c 1A46     		mov	r2, r3
 13279 4c3e 5F4B     		ldr	r3, .L751+32
 13280 4c40 1344     		add	r3, r3, r2
 13281 4c42 93F82330 		ldrb	r3, [r3, #35]	@ zero_extendqisi2
 13282 4c46 1B09     		lsrs	r3, r3, #4
 13283 4c48 87F82E30 		strb	r3, [r7, #46]
2810:.\main.c      **** 				    if((x%2)==0){
 13284              		.loc 1 2810 0
 13285 4c4c 97F82F30 		ldrb	r3, [r7, #47]
 13286 4c50 03F00103 		and	r3, r3, #1
 13287 4c54 DBB2     		uxtb	r3, r3
 13288 4c56 002B     		cmp	r3, #0
 13289 4c58 0CD1     		bne	.L670
2811:.\main.c      **** 					    y=rventa1.id[x/2]&0x0F;
 13290              		.loc 1 2811 0
 13291 4c5a 97F82F30 		ldrb	r3, [r7, #47]	@ zero_extendqisi2
 13292 4c5e 5B08     		lsrs	r3, r3, #1
 13293 4c60 DBB2     		uxtb	r3, r3
 13294 4c62 1A46     		mov	r2, r3
 13295 4c64 554B     		ldr	r3, .L751+32
 13296 4c66 1344     		add	r3, r3, r2
 13297 4c68 93F82330 		ldrb	r3, [r3, #35]	@ zero_extendqisi2
 13298 4c6c 03F00F03 		and	r3, r3, #15
 13299 4c70 87F82E30 		strb	r3, [r7, #46]
 13300              	.L670:
2812:.\main.c      **** 				    }
2813:.\main.c      **** 				    rf_mod[x+4] = y+48;
 13301              		.loc 1 2813 0
 13302 4c74 97F82F30 		ldrb	r3, [r7, #47]	@ zero_extendqisi2
 13303 4c78 0433     		adds	r3, r3, #4
 13304 4c7a 97F82E20 		ldrb	r2, [r7, #46]
 13305 4c7e 3032     		adds	r2, r2, #48
 13306 4c80 D1B2     		uxtb	r1, r2
 13307 4c82 464A     		ldr	r2, .L751
 13308 4c84 D154     		strb	r1, [r2, r3]
2814:.\main.c      **** 				    if(y>9){
 13309              		.loc 1 2814 0
 13310 4c86 97F82E30 		ldrb	r3, [r7, #46]	@ zero_extendqisi2
 13311 4c8a 092B     		cmp	r3, #9
 13312 4c8c 08D9     		bls	.L671
2815:.\main.c      **** 					    rf_mod[x+4] = y+55;
ARM GAS  C:\Users\RECEPC~1\AppData\Local\Temp\ccIpe7td.s 			page 289


 13313              		.loc 1 2815 0
 13314 4c8e 97F82F30 		ldrb	r3, [r7, #47]	@ zero_extendqisi2
 13315 4c92 0433     		adds	r3, r3, #4
 13316 4c94 97F82E20 		ldrb	r2, [r7, #46]
 13317 4c98 3732     		adds	r2, r2, #55
 13318 4c9a D1B2     		uxtb	r1, r2
 13319 4c9c 3F4A     		ldr	r2, .L751
 13320 4c9e D154     		strb	r1, [r2, r3]
 13321              	.L671:
2808:.\main.c      **** 				    y=(rventa1.id[x/2]>>4)&0x0F;
 13322              		.loc 1 2808 0 discriminator 2
 13323 4ca0 97F82F30 		ldrb	r3, [r7, #47]	@ zero_extendqisi2
 13324 4ca4 0133     		adds	r3, r3, #1
 13325 4ca6 87F82F30 		strb	r3, [r7, #47]
 13326              	.L669:
2808:.\main.c      **** 				    y=(rventa1.id[x/2]>>4)&0x0F;
 13327              		.loc 1 2808 0 is_stmt 0 discriminator 1
 13328 4caa 97F82F30 		ldrb	r3, [r7, #47]	@ zero_extendqisi2
 13329 4cae 0F2B     		cmp	r3, #15
 13330 4cb0 C0D9     		bls	.L672
2816:.\main.c      **** 				    }
2817:.\main.c      **** 			    }            
2818:.\main.c      ****     			rf_mod[20]='*';					
 13331              		.loc 1 2818 0 is_stmt 1
 13332 4cb2 3A4B     		ldr	r3, .L751
 13333 4cb4 2A22     		movs	r2, #42
 13334 4cb6 1A75     		strb	r2, [r3, #20]
2819:.\main.c      ****     			PC_ClearRxBuffer();
 13335              		.loc 1 2819 0
 13336 4cb8 FFF7FEFF 		bl	PC_ClearRxBuffer
2820:.\main.c      ****                 for(x=0;x<=20;x++){
 13337              		.loc 1 2820 0
 13338 4cbc 0023     		movs	r3, #0
 13339 4cbe 87F82F30 		strb	r3, [r7, #47]
 13340 4cc2 0BE0     		b	.L673
 13341              	.L674:
2821:.\main.c      ****     			    PC_PutChar(rf_mod[x]);
 13342              		.loc 1 2821 0 discriminator 3
 13343 4cc4 97F82F30 		ldrb	r3, [r7, #47]	@ zero_extendqisi2
 13344 4cc8 344A     		ldr	r2, .L751
 13345 4cca D35C     		ldrb	r3, [r2, r3]	@ zero_extendqisi2
 13346 4ccc 1846     		mov	r0, r3
 13347 4cce FFF7FEFF 		bl	PC_PutChar
2820:.\main.c      ****                 for(x=0;x<=20;x++){
 13348              		.loc 1 2820 0 discriminator 3
 13349 4cd2 97F82F30 		ldrb	r3, [r7, #47]	@ zero_extendqisi2
 13350 4cd6 0133     		adds	r3, r3, #1
 13351 4cd8 87F82F30 		strb	r3, [r7, #47]
 13352              	.L673:
2820:.\main.c      ****                 for(x=0;x<=20;x++){
 13353              		.loc 1 2820 0 is_stmt 0 discriminator 1
 13354 4cdc 97F82F30 		ldrb	r3, [r7, #47]	@ zero_extendqisi2
 13355 4ce0 142B     		cmp	r3, #20
 13356 4ce2 EFD9     		bls	.L674
2822:.\main.c      ****     			}
2823:.\main.c      ****                 set_imagen(1,0);	
 13357              		.loc 1 2823 0 is_stmt 1
ARM GAS  C:\Users\RECEPC~1\AppData\Local\Temp\ccIpe7td.s 			page 290


 13358 4ce4 0120     		movs	r0, #1
 13359 4ce6 0021     		movs	r1, #0
 13360 4ce8 FFF7FEFF 		bl	set_imagen
2824:.\main.c      ****     	        flujo_LCD1 = 0;    
 13361              		.loc 1 2824 0
 13362 4cec 314B     		ldr	r3, .L751+24
 13363 4cee 0022     		movs	r2, #0
 13364 4cf0 1A70     		strb	r2, [r3]
2825:.\main.c      ****     			lado1.estado=libre;            
 13365              		.loc 1 2825 0
 13366 4cf2 334B     		ldr	r3, .L751+36
 13367 4cf4 0122     		movs	r2, #1
 13368 4cf6 5A70     		strb	r2, [r3, #1]
 13369              	.L668:
2826:.\main.c      ****             }
2827:.\main.c      ****             if(seleccion_pos == 2){
 13370              		.loc 1 2827 0
 13371 4cf8 2F4B     		ldr	r3, .L751+28
 13372 4cfa 1B78     		ldrb	r3, [r3]
 13373 4cfc DBB2     		uxtb	r3, r3
 13374 4cfe 022B     		cmp	r3, #2
 13375 4d00 7DD1     		bne	.L675
2828:.\main.c      **** 			    for(x=0;x<=15;x++){						//Serial				
 13376              		.loc 1 2828 0
 13377 4d02 0023     		movs	r3, #0
 13378 4d04 87F82F30 		strb	r3, [r7, #47]
 13379 4d08 3AE0     		b	.L676
 13380              	.L679:
2829:.\main.c      **** 				    y=(rventa2.id[x/2]>>4)&0x0F;
 13381              		.loc 1 2829 0
 13382 4d0a 97F82F30 		ldrb	r3, [r7, #47]	@ zero_extendqisi2
 13383 4d0e 5B08     		lsrs	r3, r3, #1
 13384 4d10 DBB2     		uxtb	r3, r3
 13385 4d12 1A46     		mov	r2, r3
 13386 4d14 2B4B     		ldr	r3, .L751+40
 13387 4d16 1344     		add	r3, r3, r2
 13388 4d18 93F82330 		ldrb	r3, [r3, #35]	@ zero_extendqisi2
 13389 4d1c 1B09     		lsrs	r3, r3, #4
 13390 4d1e 87F82E30 		strb	r3, [r7, #46]
2830:.\main.c      **** 				    if((x%2)==0){
 13391              		.loc 1 2830 0
 13392 4d22 97F82F30 		ldrb	r3, [r7, #47]
 13393 4d26 03F00103 		and	r3, r3, #1
 13394 4d2a DBB2     		uxtb	r3, r3
 13395 4d2c 002B     		cmp	r3, #0
 13396 4d2e 0CD1     		bne	.L677
2831:.\main.c      **** 					    y=rventa2.id[x/2]&0x0F;
 13397              		.loc 1 2831 0
 13398 4d30 97F82F30 		ldrb	r3, [r7, #47]	@ zero_extendqisi2
 13399 4d34 5B08     		lsrs	r3, r3, #1
 13400 4d36 DBB2     		uxtb	r3, r3
 13401 4d38 1A46     		mov	r2, r3
 13402 4d3a 224B     		ldr	r3, .L751+40
 13403 4d3c 1344     		add	r3, r3, r2
 13404 4d3e 93F82330 		ldrb	r3, [r3, #35]	@ zero_extendqisi2
 13405 4d42 03F00F03 		and	r3, r3, #15
 13406 4d46 87F82E30 		strb	r3, [r7, #46]
ARM GAS  C:\Users\RECEPC~1\AppData\Local\Temp\ccIpe7td.s 			page 291


 13407              	.L677:
2832:.\main.c      **** 				    }
2833:.\main.c      **** 				    rf_mod[x+4] = y+48;
 13408              		.loc 1 2833 0
 13409 4d4a 97F82F30 		ldrb	r3, [r7, #47]	@ zero_extendqisi2
 13410 4d4e 0433     		adds	r3, r3, #4
 13411 4d50 97F82E20 		ldrb	r2, [r7, #46]
 13412 4d54 3032     		adds	r2, r2, #48
 13413 4d56 D1B2     		uxtb	r1, r2
 13414 4d58 104A     		ldr	r2, .L751
 13415 4d5a D154     		strb	r1, [r2, r3]
2834:.\main.c      **** 				    if(y>9){
 13416              		.loc 1 2834 0
 13417 4d5c 97F82E30 		ldrb	r3, [r7, #46]	@ zero_extendqisi2
 13418 4d60 092B     		cmp	r3, #9
 13419 4d62 08D9     		bls	.L678
2835:.\main.c      **** 					    rf_mod[x+4] = y+55;
 13420              		.loc 1 2835 0
 13421 4d64 97F82F30 		ldrb	r3, [r7, #47]	@ zero_extendqisi2
 13422 4d68 0433     		adds	r3, r3, #4
 13423 4d6a 97F82E20 		ldrb	r2, [r7, #46]
 13424 4d6e 3732     		adds	r2, r2, #55
 13425 4d70 D1B2     		uxtb	r1, r2
 13426 4d72 0A4A     		ldr	r2, .L751
 13427 4d74 D154     		strb	r1, [r2, r3]
 13428              	.L678:
2828:.\main.c      **** 				    y=(rventa2.id[x/2]>>4)&0x0F;
 13429              		.loc 1 2828 0 discriminator 2
 13430 4d76 97F82F30 		ldrb	r3, [r7, #47]	@ zero_extendqisi2
 13431 4d7a 0133     		adds	r3, r3, #1
 13432 4d7c 87F82F30 		strb	r3, [r7, #47]
 13433              	.L676:
2828:.\main.c      **** 				    y=(rventa2.id[x/2]>>4)&0x0F;
 13434              		.loc 1 2828 0 is_stmt 0 discriminator 1
 13435 4d80 97F82F30 		ldrb	r3, [r7, #47]	@ zero_extendqisi2
 13436 4d84 0F2B     		cmp	r3, #15
 13437 4d86 C0D9     		bls	.L679
2836:.\main.c      **** 				    }
2837:.\main.c      **** 			    }            
2838:.\main.c      ****     			rf_mod[20]='*';					
 13438              		.loc 1 2838 0 is_stmt 1
 13439 4d88 044B     		ldr	r3, .L751
 13440 4d8a 2A22     		movs	r2, #42
 13441 4d8c 1A75     		strb	r2, [r3, #20]
2839:.\main.c      ****     			PC_ClearRxBuffer();
 13442              		.loc 1 2839 0
 13443 4d8e FFF7FEFF 		bl	PC_ClearRxBuffer
2840:.\main.c      ****                 for(x=0;x<=20;x++){
 13444              		.loc 1 2840 0
 13445 4d92 0023     		movs	r3, #0
 13446 4d94 87F82F30 		strb	r3, [r7, #47]
 13447 4d98 22E0     		b	.L680
 13448              	.L752:
 13449 4d9a 00BF     		.align	2
 13450              	.L751:
 13451 4d9c 00000000 		.word	rf_mod
 13452 4da0 00000000 		.word	lado2
ARM GAS  C:\Users\RECEPC~1\AppData\Local\Temp\ccIpe7td.s 			page 292


 13453 4da4 00000000 		.word	producto3
 13454 4da8 00000000 		.word	producto4
 13455 4dac 00000000 		.word	producto1
 13456 4db0 00000000 		.word	producto2
 13457 4db4 00000000 		.word	flujo_LCD1
 13458 4db8 00000000 		.word	seleccion_pos
 13459 4dbc 00000000 		.word	rventa1
 13460 4dc0 00000000 		.word	lado1
 13461 4dc4 00000000 		.word	rventa2
 13462              	.L681:
2841:.\main.c      ****     			    PC_PutChar(rf_mod[x]);
 13463              		.loc 1 2841 0 discriminator 3
 13464 4dc8 97F82F30 		ldrb	r3, [r7, #47]	@ zero_extendqisi2
 13465 4dcc 164A     		ldr	r2, .L753
 13466 4dce D35C     		ldrb	r3, [r2, r3]	@ zero_extendqisi2
 13467 4dd0 1846     		mov	r0, r3
 13468 4dd2 FFF7FEFF 		bl	PC_PutChar
2840:.\main.c      ****                 for(x=0;x<=20;x++){
 13469              		.loc 1 2840 0 discriminator 3
 13470 4dd6 97F82F30 		ldrb	r3, [r7, #47]	@ zero_extendqisi2
 13471 4dda 0133     		adds	r3, r3, #1
 13472 4ddc 87F82F30 		strb	r3, [r7, #47]
 13473              	.L680:
2840:.\main.c      ****                 for(x=0;x<=20;x++){
 13474              		.loc 1 2840 0 is_stmt 0 discriminator 1
 13475 4de0 97F82F30 		ldrb	r3, [r7, #47]	@ zero_extendqisi2
 13476 4de4 142B     		cmp	r3, #20
 13477 4de6 EFD9     		bls	.L681
2842:.\main.c      ****     			}
2843:.\main.c      ****                 set_imagen(1,0);	
 13478              		.loc 1 2843 0 is_stmt 1
 13479 4de8 0120     		movs	r0, #1
 13480 4dea 0021     		movs	r1, #0
 13481 4dec FFF7FEFF 		bl	set_imagen
2844:.\main.c      ****     	        flujo_LCD1 = 0;    
 13482              		.loc 1 2844 0
 13483 4df0 0E4B     		ldr	r3, .L753+4
 13484 4df2 0022     		movs	r2, #0
 13485 4df4 1A70     		strb	r2, [r3]
2845:.\main.c      ****     			lado2.estado=libre;            
 13486              		.loc 1 2845 0
 13487 4df6 0E4B     		ldr	r3, .L753+8
 13488 4df8 0122     		movs	r2, #1
 13489 4dfa 5A70     		strb	r2, [r3, #1]
2846:.\main.c      ****             }
2847:.\main.c      **** 		break;    
 13490              		.loc 1 2847 0
 13491 4dfc 10E0     		b	.L131
 13492              	.L675:
 13493              		.loc 1 2847 0 is_stmt 0 discriminator 20
 13494 4dfe 0FE0     		b	.L131
 13495              	.L153:
2848:.\main.c      ****         
2849:.\main.c      ****             
2850:.\main.c      ****         case 102:
2851:.\main.c      ****             
2852:.\main.c      ****             
ARM GAS  C:\Users\RECEPC~1\AppData\Local\Temp\ccIpe7td.s 			page 293


2853:.\main.c      ****         break;
2854:.\main.c      ****             
2855:.\main.c      ****         case 100:  
2856:.\main.c      ****          if(count_protector>=4){
 13496              		.loc 1 2856 0 is_stmt 1
 13497 4e00 0C4B     		ldr	r3, .L753+12
 13498 4e02 1B78     		ldrb	r3, [r3]
 13499 4e04 DBB2     		uxtb	r3, r3
 13500 4e06 032B     		cmp	r3, #3
 13501 4e08 09D9     		bls	.L682
2857:.\main.c      ****             flujo_LCD1=0;
 13502              		.loc 1 2857 0
 13503 4e0a 084B     		ldr	r3, .L753+4
 13504 4e0c 0022     		movs	r2, #0
 13505 4e0e 1A70     		strb	r2, [r3]
2858:.\main.c      ****             isr_3_Stop(); 
 13506              		.loc 1 2858 0
 13507 4e10 FFF7FEFF 		bl	isr_3_Stop
2859:.\main.c      ****             Timer_Animacion_Stop(); 
 13508              		.loc 1 2859 0
 13509 4e14 FFF7FEFF 		bl	Timer_Animacion_Stop
2860:.\main.c      ****             count_protector=0;
 13510              		.loc 1 2860 0
 13511 4e18 064B     		ldr	r3, .L753+12
 13512 4e1a 0022     		movs	r2, #0
 13513 4e1c 1A70     		strb	r2, [r3]
 13514              	.L682:
2861:.\main.c      ****          }            
2862:.\main.c      ****         break;
 13515              		.loc 1 2862 0 discriminator 22
 13516 4e1e 00BF     		nop
 13517              	.L131:
2863:.\main.c      ****             
2864:.\main.c      ****             
2865:.\main.c      ****             
2866:.\main.c      ****     }
2867:.\main.c      ****     }
 13518              		.loc 1 2867 0
 13519 4e20 3037     		adds	r7, r7, #48
 13520              		.cfi_def_cfa_offset 16
 13521 4e22 BD46     		mov	sp, r7
 13522              		.cfi_def_cfa_register 13
 13523              		@ sp needed
 13524 4e24 B0BD     		pop	{r4, r5, r7, pc}
 13525              	.L754:
 13526 4e26 00BF     		.align	2
 13527              	.L753:
 13528 4e28 00000000 		.word	rf_mod
 13529 4e2c 00000000 		.word	flujo_LCD1
 13530 4e30 00000000 		.word	lado2
 13531 4e34 00000000 		.word	count_protector
 13532              		.cfi_endproc
 13533              	.LFE70:
 13534              		.size	polling_LCD1, .-polling_LCD1
 13535              		.section	.text.polling_LCD2,"ax",%progbits
 13536              		.align	2
 13537              		.global	polling_LCD2
ARM GAS  C:\Users\RECEPC~1\AppData\Local\Temp\ccIpe7td.s 			page 294


 13538              		.thumb
 13539              		.thumb_func
 13540              		.type	polling_LCD2, %function
 13541              	polling_LCD2:
 13542              	.LFB71:
2868:.\main.c      **** 
2869:.\main.c      **** 
2870:.\main.c      **** 
2871:.\main.c      **** /*
2872:.\main.c      **** ***************************************************************************************************
2873:.\main.c      **** *                                         void polling_LCD2(void)
2874:.\main.c      **** *
2875:.\main.c      **** * Description : 
2876:.\main.c      **** *               
2877:.\main.c      **** *
2878:.\main.c      **** * Argument(s) : none
2879:.\main.c      **** *
2880:.\main.c      **** * Return(s)   : none
2881:.\main.c      **** *
2882:.\main.c      **** * Caller(s)   : 
2883:.\main.c      **** *
2884:.\main.c      **** * Note(s)     : none.
2885:.\main.c      **** ***************************************************************************************************
2886:.\main.c      **** */
2887:.\main.c      **** 
2888:.\main.c      **** void polling_LCD2(void){ 
 13543              		.loc 1 2888 0
 13544              		.cfi_startproc
 13545              		@ args = 0, pretend = 0, frame = 0
 13546              		@ frame_needed = 1, uses_anonymous_args = 0
 13547              		@ link register save eliminated.
 13548 0000 80B4     		push	{r7}
 13549              		.cfi_def_cfa_offset 4
 13550              		.cfi_offset 7, -4
 13551 0002 00AF     		add	r7, sp, #0
 13552              		.cfi_def_cfa_register 7
2889:.\main.c      ****     
2890:.\main.c      ****     
2891:.\main.c      **** }
 13553              		.loc 1 2891 0
 13554 0004 BD46     		mov	sp, r7
 13555              		.cfi_def_cfa_register 13
 13556              		@ sp needed
 13557 0006 5DF8047B 		ldr	r7, [sp], #4
 13558              		.cfi_restore 7
 13559              		.cfi_def_cfa_offset 0
 13560 000a 7047     		bx	lr
 13561              		.cfi_endproc
 13562              	.LFE71:
 13563              		.size	polling_LCD2, .-polling_LCD2
 13564              		.section	.text.polling_wd,"ax",%progbits
 13565              		.align	2
 13566              		.global	polling_wd
 13567              		.thumb
 13568              		.thumb_func
 13569              		.type	polling_wd, %function
 13570              	polling_wd:
ARM GAS  C:\Users\RECEPC~1\AppData\Local\Temp\ccIpe7td.s 			page 295


 13571              	.LFB72:
2892:.\main.c      **** 
2893:.\main.c      **** /*
2894:.\main.c      **** ***************************************************************************************************
2895:.\main.c      **** *                                        void polling_wd(void)
2896:.\main.c      **** *
2897:.\main.c      **** * Description : 
2898:.\main.c      **** *               
2899:.\main.c      **** *
2900:.\main.c      **** * Argument(s) : none
2901:.\main.c      **** *
2902:.\main.c      **** * Return(s)   : none
2903:.\main.c      **** *
2904:.\main.c      **** * Caller(s)   : 
2905:.\main.c      **** *
2906:.\main.c      **** * Note(s)     : none.
2907:.\main.c      **** ***************************************************************************************************
2908:.\main.c      **** */
2909:.\main.c      **** void polling_wd(void){
 13572              		.loc 1 2909 0
 13573              		.cfi_startproc
 13574              		@ args = 0, pretend = 0, frame = 0
 13575              		@ frame_needed = 1, uses_anonymous_args = 0
 13576              		@ link register save eliminated.
 13577 0000 80B4     		push	{r7}
 13578              		.cfi_def_cfa_offset 4
 13579              		.cfi_offset 7, -4
 13580 0002 00AF     		add	r7, sp, #0
 13581              		.cfi_def_cfa_register 7
2910:.\main.c      **** 
2911:.\main.c      **** }
 13582              		.loc 1 2911 0
 13583 0004 BD46     		mov	sp, r7
 13584              		.cfi_def_cfa_register 13
 13585              		@ sp needed
 13586 0006 5DF8047B 		ldr	r7, [sp], #4
 13587              		.cfi_restore 7
 13588              		.cfi_def_cfa_offset 0
 13589 000a 7047     		bx	lr
 13590              		.cfi_endproc
 13591              	.LFE72:
 13592              		.size	polling_wd, .-polling_wd
 13593              		.section	.text.animacion,"ax",%progbits
 13594              		.align	2
 13595              		.global	animacion
 13596              		.thumb
 13597              		.thumb_func
 13598              		.type	animacion, %function
 13599              	animacion:
 13600              	.LFB73:
2912:.\main.c      **** 
2913:.\main.c      **** /*
2914:.\main.c      **** ***************************************************************************************************
2915:.\main.c      **** *                                         CY_ISR(animacion)
2916:.\main.c      **** *
2917:.\main.c      **** * Description : 
2918:.\main.c      **** *               
ARM GAS  C:\Users\RECEPC~1\AppData\Local\Temp\ccIpe7td.s 			page 296


2919:.\main.c      **** *
2920:.\main.c      **** * Argument(s) : none
2921:.\main.c      **** *
2922:.\main.c      **** * Return(s)   : none
2923:.\main.c      **** *
2924:.\main.c      **** * Caller(s)   : 
2925:.\main.c      **** *
2926:.\main.c      **** * Note(s)     : none.
2927:.\main.c      **** ***************************************************************************************************
2928:.\main.c      **** */
2929:.\main.c      **** CY_ISR(animacion){
 13601              		.loc 1 2929 0
 13602              		.cfi_startproc
 13603              		@ args = 0, pretend = 0, frame = 0
 13604              		@ frame_needed = 1, uses_anonymous_args = 0
 13605 0000 80B5     		push	{r7, lr}
 13606              		.cfi_def_cfa_offset 8
 13607              		.cfi_offset 7, -8
 13608              		.cfi_offset 14, -4
 13609 0002 00AF     		add	r7, sp, #0
 13610              		.cfi_def_cfa_register 7
2930:.\main.c      ****     Timer_Animacion_ReadStatusRegister();
 13611              		.loc 1 2930 0
 13612 0004 FFF7FEFF 		bl	Timer_Animacion_ReadStatusRegister
2931:.\main.c      ****     if(flujo_LCD1==1){
 13613              		.loc 1 2931 0
 13614 0008 184B     		ldr	r3, .L762
 13615 000a 1B78     		ldrb	r3, [r3]
 13616 000c DBB2     		uxtb	r3, r3
 13617 000e 012B     		cmp	r3, #1
 13618 0010 24D1     		bne	.L758
2932:.\main.c      ****         if(count_protector<=6){
 13619              		.loc 1 2932 0
 13620 0012 174B     		ldr	r3, .L762+4
 13621 0014 1B78     		ldrb	r3, [r3]
 13622 0016 DBB2     		uxtb	r3, r3
 13623 0018 062B     		cmp	r3, #6
 13624 001a 11D8     		bhi	.L759
2933:.\main.c      ****             count_protector++;
 13625              		.loc 1 2933 0
 13626 001c 144B     		ldr	r3, .L762+4
 13627 001e 1B78     		ldrb	r3, [r3]
 13628 0020 DBB2     		uxtb	r3, r3
 13629 0022 0133     		adds	r3, r3, #1
 13630 0024 DAB2     		uxtb	r2, r3
 13631 0026 124B     		ldr	r3, .L762+4
 13632 0028 1A70     		strb	r2, [r3]
2934:.\main.c      ****             set_imagen(1,(iprotector5+count_protector));  
 13633              		.loc 1 2934 0
 13634 002a 114B     		ldr	r3, .L762+4
 13635 002c 1B78     		ldrb	r3, [r3]
 13636 002e DBB2     		uxtb	r3, r3
 13637 0030 9BB2     		uxth	r3, r3
 13638 0032 1433     		adds	r3, r3, #20
 13639 0034 9BB2     		uxth	r3, r3
 13640 0036 0120     		movs	r0, #1
 13641 0038 1946     		mov	r1, r3
ARM GAS  C:\Users\RECEPC~1\AppData\Local\Temp\ccIpe7td.s 			page 297


 13642 003a FFF7FEFF 		bl	set_imagen
 13643 003e 14E0     		b	.L757
 13644              	.L759:
2935:.\main.c      ****         }
2936:.\main.c      ****         else{
2937:.\main.c      ****            count_protector=0; 
 13645              		.loc 1 2937 0
 13646 0040 0B4B     		ldr	r3, .L762+4
 13647 0042 0022     		movs	r2, #0
 13648 0044 1A70     		strb	r2, [r3]
2938:.\main.c      ****            set_imagen(1,(iprotector5+count_protector));  
 13649              		.loc 1 2938 0
 13650 0046 0A4B     		ldr	r3, .L762+4
 13651 0048 1B78     		ldrb	r3, [r3]
 13652 004a DBB2     		uxtb	r3, r3
 13653 004c 9BB2     		uxth	r3, r3
 13654 004e 1433     		adds	r3, r3, #20
 13655 0050 9BB2     		uxth	r3, r3
 13656 0052 0120     		movs	r0, #1
 13657 0054 1946     		mov	r1, r3
 13658 0056 FFF7FEFF 		bl	set_imagen
 13659 005a 06E0     		b	.L757
 13660              	.L758:
2939:.\main.c      ****         }
2940:.\main.c      ****     }
2941:.\main.c      ****     else{
2942:.\main.c      ****         count_protector++;
 13661              		.loc 1 2942 0
 13662 005c 044B     		ldr	r3, .L762+4
 13663 005e 1B78     		ldrb	r3, [r3]
 13664 0060 DBB2     		uxtb	r3, r3
 13665 0062 0133     		adds	r3, r3, #1
 13666 0064 DAB2     		uxtb	r2, r3
 13667 0066 024B     		ldr	r3, .L762+4
 13668 0068 1A70     		strb	r2, [r3]
 13669              	.L757:
2943:.\main.c      ****     }
2944:.\main.c      **** }
 13670              		.loc 1 2944 0
 13671 006a 80BD     		pop	{r7, pc}
 13672              	.L763:
 13673              		.align	2
 13674              	.L762:
 13675 006c 00000000 		.word	flujo_LCD1
 13676 0070 00000000 		.word	count_protector
 13677              		.cfi_endproc
 13678              	.LFE73:
 13679              		.size	animacion, .-animacion
 13680              		.section	.text.animacion2,"ax",%progbits
 13681              		.align	2
 13682              		.global	animacion2
 13683              		.thumb
 13684              		.thumb_func
 13685              		.type	animacion2, %function
 13686              	animacion2:
 13687              	.LFB74:
2945:.\main.c      **** 
ARM GAS  C:\Users\RECEPC~1\AppData\Local\Temp\ccIpe7td.s 			page 298


2946:.\main.c      **** /*
2947:.\main.c      **** ***************************************************************************************************
2948:.\main.c      **** *                                         CY_ISR(animacion)
2949:.\main.c      **** *
2950:.\main.c      **** * Description : 
2951:.\main.c      **** *               
2952:.\main.c      **** *
2953:.\main.c      **** * Argument(s) : none
2954:.\main.c      **** *
2955:.\main.c      **** * Return(s)   : none
2956:.\main.c      **** *
2957:.\main.c      **** * Caller(s)   : 
2958:.\main.c      **** *
2959:.\main.c      **** * Note(s)     : none.
2960:.\main.c      **** ***************************************************************************************************
2961:.\main.c      **** */
2962:.\main.c      **** CY_ISR(animacion2){
 13688              		.loc 1 2962 0
 13689              		.cfi_startproc
 13690              		@ args = 0, pretend = 0, frame = 0
 13691              		@ frame_needed = 1, uses_anonymous_args = 0
 13692 0000 80B5     		push	{r7, lr}
 13693              		.cfi_def_cfa_offset 8
 13694              		.cfi_offset 7, -8
 13695              		.cfi_offset 14, -4
 13696 0002 00AF     		add	r7, sp, #0
 13697              		.cfi_def_cfa_register 7
2963:.\main.c      ****     Timer_Animacion2_ReadStatusRegister();
 13698              		.loc 1 2963 0
 13699 0004 FFF7FEFF 		bl	Timer_Animacion2_ReadStatusRegister
2964:.\main.c      ****     if(flujo_LCD2==1){
 13700              		.loc 1 2964 0
 13701 0008 184B     		ldr	r3, .L769
 13702 000a 1B78     		ldrb	r3, [r3]
 13703 000c DBB2     		uxtb	r3, r3
 13704 000e 012B     		cmp	r3, #1
 13705 0010 24D1     		bne	.L765
2965:.\main.c      ****         if(count_protector2<=6){
 13706              		.loc 1 2965 0
 13707 0012 174B     		ldr	r3, .L769+4
 13708 0014 1B78     		ldrb	r3, [r3]
 13709 0016 DBB2     		uxtb	r3, r3
 13710 0018 062B     		cmp	r3, #6
 13711 001a 11D8     		bhi	.L766
2966:.\main.c      ****             count_protector2++;
 13712              		.loc 1 2966 0
 13713 001c 144B     		ldr	r3, .L769+4
 13714 001e 1B78     		ldrb	r3, [r3]
 13715 0020 DBB2     		uxtb	r3, r3
 13716 0022 0133     		adds	r3, r3, #1
 13717 0024 DAB2     		uxtb	r2, r3
 13718 0026 124B     		ldr	r3, .L769+4
 13719 0028 1A70     		strb	r2, [r3]
2967:.\main.c      ****             set_imagen(2,(iprotector5+count_protector2));  
 13720              		.loc 1 2967 0
 13721 002a 114B     		ldr	r3, .L769+4
 13722 002c 1B78     		ldrb	r3, [r3]
ARM GAS  C:\Users\RECEPC~1\AppData\Local\Temp\ccIpe7td.s 			page 299


 13723 002e DBB2     		uxtb	r3, r3
 13724 0030 9BB2     		uxth	r3, r3
 13725 0032 1433     		adds	r3, r3, #20
 13726 0034 9BB2     		uxth	r3, r3
 13727 0036 0220     		movs	r0, #2
 13728 0038 1946     		mov	r1, r3
 13729 003a FFF7FEFF 		bl	set_imagen
 13730 003e 14E0     		b	.L764
 13731              	.L766:
2968:.\main.c      ****         }
2969:.\main.c      ****         else{
2970:.\main.c      ****            count_protector2=0; 
 13732              		.loc 1 2970 0
 13733 0040 0B4B     		ldr	r3, .L769+4
 13734 0042 0022     		movs	r2, #0
 13735 0044 1A70     		strb	r2, [r3]
2971:.\main.c      ****            set_imagen(2,(iprotector5+count_protector2));  
 13736              		.loc 1 2971 0
 13737 0046 0A4B     		ldr	r3, .L769+4
 13738 0048 1B78     		ldrb	r3, [r3]
 13739 004a DBB2     		uxtb	r3, r3
 13740 004c 9BB2     		uxth	r3, r3
 13741 004e 1433     		adds	r3, r3, #20
 13742 0050 9BB2     		uxth	r3, r3
 13743 0052 0220     		movs	r0, #2
 13744 0054 1946     		mov	r1, r3
 13745 0056 FFF7FEFF 		bl	set_imagen
 13746 005a 06E0     		b	.L764
 13747              	.L765:
2972:.\main.c      ****         }
2973:.\main.c      ****     }
2974:.\main.c      ****     else{
2975:.\main.c      ****         count_protector2++;
 13748              		.loc 1 2975 0
 13749 005c 044B     		ldr	r3, .L769+4
 13750 005e 1B78     		ldrb	r3, [r3]
 13751 0060 DBB2     		uxtb	r3, r3
 13752 0062 0133     		adds	r3, r3, #1
 13753 0064 DAB2     		uxtb	r2, r3
 13754 0066 024B     		ldr	r3, .L769+4
 13755 0068 1A70     		strb	r2, [r3]
 13756              	.L764:
2976:.\main.c      ****     }
2977:.\main.c      **** }
 13757              		.loc 1 2977 0
 13758 006a 80BD     		pop	{r7, pc}
 13759              	.L770:
 13760              		.align	2
 13761              	.L769:
 13762 006c 00000000 		.word	flujo_LCD2
 13763 0070 00000000 		.word	count_protector2
 13764              		.cfi_endproc
 13765              	.LFE74:
 13766              		.size	animacion2, .-animacion2
 13767              		.section	.text.modo_mux,"ax",%progbits
 13768              		.align	2
 13769              		.global	modo_mux
ARM GAS  C:\Users\RECEPC~1\AppData\Local\Temp\ccIpe7td.s 			page 300


 13770              		.thumb
 13771              		.thumb_func
 13772              		.type	modo_mux, %function
 13773              	modo_mux:
 13774              	.LFB75:
2978:.\main.c      **** 
2979:.\main.c      **** /*
2980:.\main.c      **** ***************************************************************************************************
2981:.\main.c      **** *                                        CY_ISR(modo_mux)
2982:.\main.c      **** *
2983:.\main.c      **** * Description : 
2984:.\main.c      **** *               
2985:.\main.c      **** *
2986:.\main.c      **** * Argument(s) : none
2987:.\main.c      **** *
2988:.\main.c      **** * Return(s)   : none
2989:.\main.c      **** *
2990:.\main.c      **** * Caller(s)   : 
2991:.\main.c      **** *
2992:.\main.c      **** * Note(s)     : none.
2993:.\main.c      **** ***************************************************************************************************
2994:.\main.c      **** */
2995:.\main.c      **** CY_ISR(modo_mux){
 13775              		.loc 1 2995 0
 13776              		.cfi_startproc
 13777              		@ args = 0, pretend = 0, frame = 0
 13778              		@ frame_needed = 1, uses_anonymous_args = 0
 13779 0000 80B5     		push	{r7, lr}
 13780              		.cfi_def_cfa_offset 8
 13781              		.cfi_offset 7, -8
 13782              		.cfi_offset 14, -4
 13783 0002 00AF     		add	r7, sp, #0
 13784              		.cfi_def_cfa_register 7
2996:.\main.c      **** 	Timer_Modo_ReadStatusRegister();
 13785              		.loc 1 2996 0
 13786 0004 FFF7FEFF 		bl	Timer_Modo_ReadStatusRegister
2997:.\main.c      **** 	state_rf++;
 13787              		.loc 1 2997 0
 13788 0008 0F4B     		ldr	r3, .L774
 13789 000a 1B78     		ldrb	r3, [r3]	@ zero_extendqisi2
 13790 000c 0133     		adds	r3, r3, #1
 13791 000e DAB2     		uxtb	r2, r3
 13792 0010 0D4B     		ldr	r3, .L774
 13793 0012 1A70     		strb	r2, [r3]
2998:.\main.c      **** 	if(state_rf==15){
 13794              		.loc 1 2998 0
 13795 0014 0C4B     		ldr	r3, .L774
 13796 0016 1B78     		ldrb	r3, [r3]	@ zero_extendqisi2
 13797 0018 0F2B     		cmp	r3, #15
 13798 001a 14D1     		bne	.L771
2999:.\main.c      **** 		if((rventa1.autorizado!=100)&&(rventa2.autorizado!=100)){
 13799              		.loc 1 2999 0
 13800 001c 0B4B     		ldr	r3, .L774+4
 13801 001e 93F87030 		ldrb	r3, [r3, #112]	@ zero_extendqisi2
 13802 0022 642B     		cmp	r3, #100
 13803 0024 0CD0     		beq	.L773
 13804              		.loc 1 2999 0 is_stmt 0 discriminator 1
ARM GAS  C:\Users\RECEPC~1\AppData\Local\Temp\ccIpe7td.s 			page 301


 13805 0026 0A4B     		ldr	r3, .L774+8
 13806 0028 93F87030 		ldrb	r3, [r3, #112]	@ zero_extendqisi2
 13807 002c 642B     		cmp	r3, #100
 13808 002e 07D0     		beq	.L773
3000:.\main.c      **** 			rventa1.autorizado=0;
 13809              		.loc 1 3000 0 is_stmt 1
 13810 0030 064B     		ldr	r3, .L774+4
 13811 0032 0022     		movs	r2, #0
 13812 0034 83F87020 		strb	r2, [r3, #112]
3001:.\main.c      **** 			rventa2.autorizado=0;
 13813              		.loc 1 3001 0
 13814 0038 054B     		ldr	r3, .L774+8
 13815 003a 0022     		movs	r2, #0
 13816 003c 83F87020 		strb	r2, [r3, #112]
 13817              	.L773:
3002:.\main.c      **** 		}	
3003:.\main.c      **** 		state_rf=0;
 13818              		.loc 1 3003 0
 13819 0040 014B     		ldr	r3, .L774
 13820 0042 0022     		movs	r2, #0
 13821 0044 1A70     		strb	r2, [r3]
 13822              	.L771:
3004:.\main.c      **** 	}
3005:.\main.c      **** }
 13823              		.loc 1 3005 0
 13824 0046 80BD     		pop	{r7, pc}
 13825              	.L775:
 13826              		.align	2
 13827              	.L774:
 13828 0048 00000000 		.word	state_rf
 13829 004c 00000000 		.word	rventa1
 13830 0050 00000000 		.word	rventa2
 13831              		.cfi_endproc
 13832              	.LFE75:
 13833              		.size	modo_mux, .-modo_mux
 13834              		.section	.text.insert_ppuInit,"ax",%progbits
 13835              		.align	2
 13836              		.global	insert_ppuInit
 13837              		.thumb
 13838              		.thumb_func
 13839              		.type	insert_ppuInit, %function
 13840              	insert_ppuInit:
 13841              	.LFB76:
3006:.\main.c      **** 
3007:.\main.c      **** /*
3008:.\main.c      **** ***************************************************************************************************
3009:.\main.c      **** *                                        insert_ppuInit(modo_init)
3010:.\main.c      **** *
3011:.\main.c      **** * Description : 
3012:.\main.c      **** *               
3013:.\main.c      **** *
3014:.\main.c      **** * Argument(s) : none
3015:.\main.c      **** *
3016:.\main.c      **** * Return(s)   : none
3017:.\main.c      **** *
3018:.\main.c      **** * Caller(s)   : 
3019:.\main.c      **** *
ARM GAS  C:\Users\RECEPC~1\AppData\Local\Temp\ccIpe7td.s 			page 302


3020:.\main.c      **** * Note(s)     : none.
3021:.\main.c      **** ***************************************************************************************************
3022:.\main.c      **** */
3023:.\main.c      **** void insert_ppuInit(void){
 13842              		.loc 1 3023 0
 13843              		.cfi_startproc
 13844              		@ args = 0, pretend = 0, frame = 8
 13845              		@ frame_needed = 1, uses_anonymous_args = 0
 13846 0000 80B5     		push	{r7, lr}
 13847              		.cfi_def_cfa_offset 8
 13848              		.cfi_offset 7, -8
 13849              		.cfi_offset 14, -4
 13850 0002 82B0     		sub	sp, sp, #8
 13851              		.cfi_def_cfa_offset 16
 13852 0004 00AF     		add	r7, sp, #0
 13853              		.cfi_def_cfa_register 7
3024:.\main.c      ****     
3025:.\main.c      ****     //uint8 precio_mod[5];    
3026:.\main.c      ****     int x;    
3027:.\main.c      ****     
3028:.\main.c      ****   uint8 precio_mod[5];    
3029:.\main.c      **** 	precio_mod[0]=0;	
 13854              		.loc 1 3029 0
 13855 0006 0023     		movs	r3, #0
 13856 0008 3B70     		strb	r3, [r7]
3030:.\main.c      **** 	precio_mod[1]=0;
 13857              		.loc 1 3030 0
 13858 000a 0023     		movs	r3, #0
 13859 000c 7B70     		strb	r3, [r7, #1]
3031:.\main.c      **** 	precio_mod[2]=0;
 13860              		.loc 1 3031 0
 13861 000e 0023     		movs	r3, #0
 13862 0010 BB70     		strb	r3, [r7, #2]
3032:.\main.c      **** 	precio_mod[3]=2;
 13863              		.loc 1 3032 0
 13864 0012 0223     		movs	r3, #2
 13865 0014 FB70     		strb	r3, [r7, #3]
3033:.\main.c      ****     precio_mod[4]=0;
 13866              		.loc 1 3033 0
 13867 0016 0023     		movs	r3, #0
 13868 0018 3B71     		strb	r3, [r7, #4]
3034:.\main.c      ****     cambiar_precio(lado1.dir,precio_mod,1);                   
 13869              		.loc 1 3034 0
 13870 001a 064B     		ldr	r3, .L777
 13871 001c 1B78     		ldrb	r3, [r3]
 13872 001e DAB2     		uxtb	r2, r3
 13873 0020 3B46     		mov	r3, r7
 13874 0022 1046     		mov	r0, r2
 13875 0024 1946     		mov	r1, r3
 13876 0026 0122     		movs	r2, #1
 13877 0028 FFF7FEFF 		bl	cambiar_precio
3035:.\main.c      **** }
 13878              		.loc 1 3035 0
 13879 002c 0837     		adds	r7, r7, #8
 13880              		.cfi_def_cfa_offset 8
 13881 002e BD46     		mov	sp, r7
 13882              		.cfi_def_cfa_register 13
ARM GAS  C:\Users\RECEPC~1\AppData\Local\Temp\ccIpe7td.s 			page 303


 13883              		@ sp needed
 13884 0030 80BD     		pop	{r7, pc}
 13885              	.L778:
 13886 0032 00BF     		.align	2
 13887              	.L777:
 13888 0034 00000000 		.word	lado1
 13889              		.cfi_endproc
 13890              	.LFE76:
 13891              		.size	insert_ppuInit, .-insert_ppuInit
 13892              		.section	.text.main,"ax",%progbits
 13893              		.align	2
 13894              		.global	main
 13895              		.thumb
 13896              		.thumb_func
 13897              		.type	main, %function
 13898              	main:
 13899              	.LFB77:
3036:.\main.c      **** 
3037:.\main.c      **** /*
3038:.\main.c      **** ***************************************************************************************************
3039:.\main.c      **** *                                         main( void )
3040:.\main.c      **** *
3041:.\main.c      **** * Description : 
3042:.\main.c      **** *               
3043:.\main.c      **** *
3044:.\main.c      **** * Argument(s) : none
3045:.\main.c      **** *
3046:.\main.c      **** * Return(s)   : none
3047:.\main.c      **** *
3048:.\main.c      **** * Caller(s)   : 
3049:.\main.c      **** *
3050:.\main.c      **** * Note(s)     : none.
3051:.\main.c      **** ***************************************************************************************************
3052:.\main.c      **** */
3053:.\main.c      **** int main(){ 
 13900              		.loc 1 3053 0
 13901              		.cfi_startproc
 13902              		@ args = 0, pretend = 0, frame = 0
 13903              		@ frame_needed = 1, uses_anonymous_args = 0
 13904 0000 80B5     		push	{r7, lr}
 13905              		.cfi_def_cfa_offset 8
 13906              		.cfi_offset 7, -8
 13907              		.cfi_offset 14, -4
 13908 0002 00AF     		add	r7, sp, #0
 13909              		.cfi_def_cfa_register 7
3054:.\main.c      ****     
3055:.\main.c      ****     init();
 13910              		.loc 1 3055 0
 13911 0004 FFF7FEFF 		bl	init
3056:.\main.c      ****     init_surt();    
 13912              		.loc 1 3056 0
 13913 0008 FFF7FEFF 		bl	init_surt
3057:.\main.c      ****     CyWdtStart(CYWDT_1024_TICKS,CYWDT_LPMODE_NOCHANGE);    
 13914              		.loc 1 3057 0
 13915 000c 0320     		movs	r0, #3
 13916 000e 0021     		movs	r1, #0
 13917 0010 FFF7FEFF 		bl	CyWdtStart
ARM GAS  C:\Users\RECEPC~1\AppData\Local\Temp\ccIpe7td.s 			page 304


 13918              	.L783:
3058:.\main.c      ****     //insert_ppuInit();// 
3059:.\main.c      ****     for(;;){
3060:.\main.c      ****          //sin el sistema Mux Advance              		
3061:.\main.c      ****     		CyWdtClear();        
 13919              		.loc 1 3061 0
 13920 0014 FFF7FEFF 		bl	CyWdtClear
3062:.\main.c      ****            	polling_LCD1();
 13921              		.loc 1 3062 0
 13922 0018 FFF7FEFF 		bl	polling_LCD1
3063:.\main.c      ****     		CyWdtClear();  
 13923              		.loc 1 3063 0
 13924 001c FFF7FEFF 		bl	CyWdtClear
3064:.\main.c      ****             if(seleccion_pos ==1 || seleccion_pos ==0){                
 13925              		.loc 1 3064 0
 13926 0020 094B     		ldr	r3, .L784
 13927 0022 1B78     		ldrb	r3, [r3]
 13928 0024 DBB2     		uxtb	r3, r3
 13929 0026 012B     		cmp	r3, #1
 13930 0028 04D0     		beq	.L780
 13931              		.loc 1 3064 0 is_stmt 0 discriminator 1
 13932 002a 074B     		ldr	r3, .L784
 13933 002c 1B78     		ldrb	r3, [r3]
 13934 002e DBB2     		uxtb	r3, r3
 13935 0030 002B     		cmp	r3, #0
 13936 0032 01D1     		bne	.L781
 13937              	.L780:
3065:.\main.c      ****                 polling_rf();
 13938              		.loc 1 3065 0 is_stmt 1
 13939 0034 FFF7FEFF 		bl	polling_rf
 13940              	.L781:
3066:.\main.c      ****             }
3067:.\main.c      ****             if(seleccion_pos ==2){                
 13941              		.loc 1 3067 0
 13942 0038 034B     		ldr	r3, .L784
 13943 003a 1B78     		ldrb	r3, [r3]
 13944 003c DBB2     		uxtb	r3, r3
 13945 003e 022B     		cmp	r3, #2
 13946 0040 01D1     		bne	.L782
3068:.\main.c      ****                 polling_rf2();
 13947              		.loc 1 3068 0
 13948 0042 FFF7FEFF 		bl	polling_rf2
 13949              	.L782:
3069:.\main.c      ****             }
3070:.\main.c      ****          
3071:.\main.c      ****     }
 13950              		.loc 1 3071 0
 13951 0046 E5E7     		b	.L783
 13952              	.L785:
 13953              		.align	2
 13954              	.L784:
 13955 0048 00000000 		.word	seleccion_pos
 13956              		.cfi_endproc
 13957              	.LFE77:
 13958              		.size	main, .-main
 13959              		.text
 13960              	.Letext0:
ARM GAS  C:\Users\RECEPC~1\AppData\Local\Temp\ccIpe7td.s 			page 305


 13961              		.file 2 "c:\\program files (x86)\\cypress\\psoc creator\\3.3\\psoc creator\\import\\gnu\\arm\\4.9.
 13962              		.file 3 "c:\\program files (x86)\\cypress\\psoc creator\\3.3\\psoc creator\\import\\gnu\\arm\\4.9.
 13963              		.file 4 "Generated_Source\\PSoC5/cytypes.h"
 13964              		.file 5 ".\\VariablesG.h"
 13965              		.file 6 "Generated_Source\\PSoC5/LCD_1.h"
 13966              		.file 7 "Generated_Source\\PSoC5/PC.h"
 13967              		.file 8 "Generated_Source\\PSoC5/core_cm3.h"
 13968              		.section	.debug_info,"",%progbits
 13969              	.Ldebug_info0:
 13970 0000 270D0000 		.4byte	0xd27
 13971 0004 0400     		.2byte	0x4
 13972 0006 00000000 		.4byte	.Ldebug_abbrev0
 13973 000a 04       		.byte	0x4
 13974 000b 01       		.uleb128 0x1
 13975 000c 5A030000 		.4byte	.LASF151
 13976 0010 01       		.byte	0x1
 13977 0011 A7060000 		.4byte	.LASF152
 13978 0015 5A000000 		.4byte	.LASF153
 13979 0019 00000000 		.4byte	.Ldebug_ranges0+0
 13980 001d 00000000 		.4byte	0
 13981 0021 00000000 		.4byte	.Ldebug_line0
 13982 0025 02       		.uleb128 0x2
 13983 0026 01       		.byte	0x1
 13984 0027 06       		.byte	0x6
 13985 0028 E6050000 		.4byte	.LASF0
 13986 002c 02       		.uleb128 0x2
 13987 002d 01       		.byte	0x1
 13988 002e 08       		.byte	0x8
 13989 002f 98050000 		.4byte	.LASF1
 13990 0033 02       		.uleb128 0x2
 13991 0034 02       		.byte	0x2
 13992 0035 05       		.byte	0x5
 13993 0036 84040000 		.4byte	.LASF2
 13994 003a 02       		.uleb128 0x2
 13995 003b 02       		.byte	0x2
 13996 003c 07       		.byte	0x7
 13997 003d FB050000 		.4byte	.LASF3
 13998 0041 03       		.uleb128 0x3
 13999 0042 CF000000 		.4byte	.LASF9
 14000 0046 02       		.byte	0x2
 14001 0047 3F       		.byte	0x3f
 14002 0048 4C000000 		.4byte	0x4c
 14003 004c 02       		.uleb128 0x2
 14004 004d 04       		.byte	0x4
 14005 004e 05       		.byte	0x5
 14006 004f 9A040000 		.4byte	.LASF4
 14007 0053 02       		.uleb128 0x2
 14008 0054 04       		.byte	0x4
 14009 0055 07       		.byte	0x7
 14010 0056 4D050000 		.4byte	.LASF5
 14011 005a 02       		.uleb128 0x2
 14012 005b 08       		.byte	0x8
 14013 005c 05       		.byte	0x5
 14014 005d 1C030000 		.4byte	.LASF6
 14015 0061 02       		.uleb128 0x2
 14016 0062 08       		.byte	0x8
 14017 0063 07       		.byte	0x7
ARM GAS  C:\Users\RECEPC~1\AppData\Local\Temp\ccIpe7td.s 			page 306


 14018 0064 AA010000 		.4byte	.LASF7
 14019 0068 04       		.uleb128 0x4
 14020 0069 04       		.byte	0x4
 14021 006a 05       		.byte	0x5
 14022 006b 696E7400 		.ascii	"int\000"
 14023 006f 02       		.uleb128 0x2
 14024 0070 04       		.byte	0x4
 14025 0071 07       		.byte	0x7
 14026 0072 BA000000 		.4byte	.LASF8
 14027 0076 03       		.uleb128 0x3
 14028 0077 66050000 		.4byte	.LASF10
 14029 007b 03       		.byte	0x3
 14030 007c 2C       		.byte	0x2c
 14031 007d 41000000 		.4byte	0x41
 14032 0081 03       		.uleb128 0x3
 14033 0082 22060000 		.4byte	.LASF11
 14034 0086 04       		.byte	0x4
 14035 0087 B4       		.byte	0xb4
 14036 0088 2C000000 		.4byte	0x2c
 14037 008c 03       		.uleb128 0x3
 14038 008d 9B020000 		.4byte	.LASF12
 14039 0091 04       		.byte	0x4
 14040 0092 B5       		.byte	0xb5
 14041 0093 3A000000 		.4byte	0x3a
 14042 0097 02       		.uleb128 0x2
 14043 0098 04       		.byte	0x4
 14044 0099 04       		.byte	0x4
 14045 009a 5D010000 		.4byte	.LASF13
 14046 009e 02       		.uleb128 0x2
 14047 009f 08       		.byte	0x8
 14048 00a0 04       		.byte	0x4
 14049 00a1 28060000 		.4byte	.LASF14
 14050 00a5 02       		.uleb128 0x2
 14051 00a6 01       		.byte	0x1
 14052 00a7 08       		.byte	0x8
 14053 00a8 7A020000 		.4byte	.LASF15
 14054 00ac 05       		.uleb128 0x5
 14055 00ad 81000000 		.4byte	0x81
 14056 00b1 05       		.uleb128 0x5
 14057 00b2 8C000000 		.4byte	0x8c
 14058 00b6 02       		.uleb128 0x2
 14059 00b7 04       		.byte	0x4
 14060 00b8 07       		.byte	0x7
 14061 00b9 44050000 		.4byte	.LASF16
 14062 00bd 06       		.uleb128 0x6
 14063 00be A5000000 		.4byte	0xa5
 14064 00c2 CD000000 		.4byte	0xcd
 14065 00c6 07       		.uleb128 0x7
 14066 00c7 B6000000 		.4byte	0xb6
 14067 00cb 07       		.byte	0x7
 14068 00cc 00       		.byte	0
 14069 00cd 06       		.uleb128 0x6
 14070 00ce 81000000 		.4byte	0x81
 14071 00d2 DD000000 		.4byte	0xdd
 14072 00d6 07       		.uleb128 0x7
 14073 00d7 B6000000 		.4byte	0xb6
 14074 00db 03       		.byte	0x3
ARM GAS  C:\Users\RECEPC~1\AppData\Local\Temp\ccIpe7td.s 			page 307


 14075 00dc 00       		.byte	0
 14076 00dd 02       		.uleb128 0x2
 14077 00de 08       		.byte	0x8
 14078 00df 04       		.byte	0x4
 14079 00e0 3E040000 		.4byte	.LASF17
 14080 00e4 08       		.uleb128 0x8
 14081 00e5 B0040000 		.4byte	.LASF22
 14082 00e9 5D       		.byte	0x5d
 14083 00ea 05       		.byte	0x5
 14084 00eb 5B       		.byte	0x5b
 14085 00ec 39010000 		.4byte	0x139
 14086 00f0 09       		.uleb128 0x9
 14087 00f1 64697200 		.ascii	"dir\000"
 14088 00f5 05       		.byte	0x5
 14089 00f6 5C       		.byte	0x5c
 14090 00f7 AC000000 		.4byte	0xac
 14091 00fb 00       		.byte	0
 14092 00fc 0A       		.uleb128 0xa
 14093 00fd 1D040000 		.4byte	.LASF18
 14094 0101 05       		.byte	0x5
 14095 0102 5D       		.byte	0x5d
 14096 0103 AC000000 		.4byte	0xac
 14097 0107 01       		.byte	0x1
 14098 0108 0A       		.uleb128 0xa
 14099 0109 D5020000 		.4byte	.LASF19
 14100 010d 05       		.byte	0x5
 14101 010e 5E       		.byte	0x5e
 14102 010f 4F010000 		.4byte	0x14f
 14103 0113 02       		.byte	0x2
 14104 0114 09       		.uleb128 0x9
 14105 0115 70707500 		.ascii	"ppu\000"
 14106 0119 05       		.byte	0x5
 14107 011a 5F       		.byte	0x5f
 14108 011b 6A010000 		.4byte	0x16a
 14109 011f 4A       		.byte	0x4a
 14110 0120 0A       		.uleb128 0xa
 14111 0121 64060000 		.4byte	.LASF20
 14112 0125 05       		.byte	0x5
 14113 0126 60       		.byte	0x60
 14114 0127 85010000 		.4byte	0x185
 14115 012b 59       		.byte	0x59
 14116 012c 0A       		.uleb128 0xa
 14117 012d 91020000 		.4byte	.LASF21
 14118 0131 05       		.byte	0x5
 14119 0132 61       		.byte	0x61
 14120 0133 AC000000 		.4byte	0xac
 14121 0137 5C       		.byte	0x5c
 14122 0138 00       		.byte	0
 14123 0139 06       		.uleb128 0x6
 14124 013a 81000000 		.4byte	0x81
 14125 013e 4F010000 		.4byte	0x14f
 14126 0142 07       		.uleb128 0x7
 14127 0143 B6000000 		.4byte	0xb6
 14128 0147 02       		.byte	0x2
 14129 0148 07       		.uleb128 0x7
 14130 0149 B6000000 		.4byte	0xb6
 14131 014d 17       		.byte	0x17
ARM GAS  C:\Users\RECEPC~1\AppData\Local\Temp\ccIpe7td.s 			page 308


 14132 014e 00       		.byte	0
 14133 014f 05       		.uleb128 0x5
 14134 0150 39010000 		.4byte	0x139
 14135 0154 06       		.uleb128 0x6
 14136 0155 81000000 		.4byte	0x81
 14137 0159 6A010000 		.4byte	0x16a
 14138 015d 07       		.uleb128 0x7
 14139 015e B6000000 		.4byte	0xb6
 14140 0162 02       		.byte	0x2
 14141 0163 07       		.uleb128 0x7
 14142 0164 B6000000 		.4byte	0xb6
 14143 0168 04       		.byte	0x4
 14144 0169 00       		.byte	0
 14145 016a 05       		.uleb128 0x5
 14146 016b 54010000 		.4byte	0x154
 14147 016f 06       		.uleb128 0x6
 14148 0170 81000000 		.4byte	0x81
 14149 0174 85010000 		.4byte	0x185
 14150 0178 07       		.uleb128 0x7
 14151 0179 B6000000 		.4byte	0xb6
 14152 017d 02       		.byte	0x2
 14153 017e 07       		.uleb128 0x7
 14154 017f B6000000 		.4byte	0xb6
 14155 0183 00       		.byte	0
 14156 0184 00       		.byte	0
 14157 0185 05       		.uleb128 0x5
 14158 0186 6F010000 		.4byte	0x16f
 14159 018a 08       		.uleb128 0x8
 14160 018b 03040000 		.4byte	.LASF23
 14161 018f 76       		.byte	0x76
 14162 0190 05       		.byte	0x5
 14163 0191 72       		.byte	0x72
 14164 0192 79020000 		.4byte	0x279
 14165 0196 0A       		.uleb128 0xa
 14166 0197 1D010000 		.4byte	.LASF24
 14167 019b 05       		.byte	0x5
 14168 019c 73       		.byte	0x73
 14169 019d 81000000 		.4byte	0x81
 14170 01a1 00       		.byte	0
 14171 01a2 0A       		.uleb128 0xa
 14172 01a3 64060000 		.4byte	.LASF20
 14173 01a7 05       		.byte	0x5
 14174 01a8 74       		.byte	0x74
 14175 01a9 81000000 		.4byte	0x81
 14176 01ad 01       		.byte	0x1
 14177 01ae 09       		.uleb128 0x9
 14178 01af 70707500 		.ascii	"ppu\000"
 14179 01b3 05       		.byte	0x5
 14180 01b4 75       		.byte	0x75
 14181 01b5 79020000 		.4byte	0x279
 14182 01b9 02       		.byte	0x2
 14183 01ba 0A       		.uleb128 0xa
 14184 01bb 0A040000 		.4byte	.LASF25
 14185 01bf 05       		.byte	0x5
 14186 01c0 76       		.byte	0x76
 14187 01c1 89020000 		.4byte	0x289
 14188 01c5 07       		.byte	0x7
ARM GAS  C:\Users\RECEPC~1\AppData\Local\Temp\ccIpe7td.s 			page 309


 14189 01c6 0A       		.uleb128 0xa
 14190 01c7 2A020000 		.4byte	.LASF26
 14191 01cb 05       		.byte	0x5
 14192 01cc 77       		.byte	0x77
 14193 01cd 89020000 		.4byte	0x289
 14194 01d1 10       		.byte	0x10
 14195 01d2 0A       		.uleb128 0xa
 14196 01d3 30030000 		.4byte	.LASF27
 14197 01d7 05       		.byte	0x5
 14198 01d8 78       		.byte	0x78
 14199 01d9 81000000 		.4byte	0x81
 14200 01dd 19       		.byte	0x19
 14201 01de 0A       		.uleb128 0xa
 14202 01df 49060000 		.4byte	.LASF28
 14203 01e3 05       		.byte	0x5
 14204 01e4 79       		.byte	0x79
 14205 01e5 81000000 		.4byte	0x81
 14206 01e9 1A       		.byte	0x1a
 14207 01ea 0A       		.uleb128 0xa
 14208 01eb 56010000 		.4byte	.LASF29
 14209 01ef 05       		.byte	0x5
 14210 01f0 7A       		.byte	0x7a
 14211 01f1 99020000 		.4byte	0x299
 14212 01f5 1B       		.byte	0x1b
 14213 01f6 09       		.uleb128 0x9
 14214 01f7 696400   		.ascii	"id\000"
 14215 01fa 05       		.byte	0x5
 14216 01fb 7B       		.byte	0x7b
 14217 01fc A9020000 		.4byte	0x2a9
 14218 0200 23       		.byte	0x23
 14219 0201 0A       		.uleb128 0xa
 14220 0202 C3020000 		.4byte	.LASF30
 14221 0206 05       		.byte	0x5
 14222 0207 7C       		.byte	0x7c
 14223 0208 A9020000 		.4byte	0x2a9
 14224 020c 33       		.byte	0x33
 14225 020d 09       		.uleb128 0x9
 14226 020e 6B6D00   		.ascii	"km\000"
 14227 0211 05       		.byte	0x5
 14228 0212 7D       		.byte	0x7d
 14229 0213 B9020000 		.4byte	0x2b9
 14230 0217 43       		.byte	0x43
 14231 0218 0A       		.uleb128 0xa
 14232 0219 F2010000 		.4byte	.LASF31
 14233 021d 05       		.byte	0x5
 14234 021e 7E       		.byte	0x7e
 14235 021f 89020000 		.4byte	0x289
 14236 0223 4E       		.byte	0x4e
 14237 0224 0A       		.uleb128 0xa
 14238 0225 A1010000 		.4byte	.LASF32
 14239 0229 05       		.byte	0x5
 14240 022a 7F       		.byte	0x7f
 14241 022b 81000000 		.4byte	0x81
 14242 022f 57       		.byte	0x57
 14243 0230 0A       		.uleb128 0xa
 14244 0231 B8020000 		.4byte	.LASF33
 14245 0235 05       		.byte	0x5
ARM GAS  C:\Users\RECEPC~1\AppData\Local\Temp\ccIpe7td.s 			page 310


 14246 0236 80       		.byte	0x80
 14247 0237 81000000 		.4byte	0x81
 14248 023b 58       		.byte	0x58
 14249 023c 0A       		.uleb128 0xa
 14250 023d 53030000 		.4byte	.LASF34
 14251 0241 05       		.byte	0x5
 14252 0242 81       		.byte	0x81
 14253 0243 B9020000 		.4byte	0x2b9
 14254 0247 59       		.byte	0x59
 14255 0248 0A       		.uleb128 0xa
 14256 0249 00000000 		.4byte	.LASF35
 14257 024d 05       		.byte	0x5
 14258 024e 82       		.byte	0x82
 14259 024f B9020000 		.4byte	0x2b9
 14260 0253 64       		.byte	0x64
 14261 0254 0A       		.uleb128 0xa
 14262 0255 C9020000 		.4byte	.LASF36
 14263 0259 05       		.byte	0x5
 14264 025a 83       		.byte	0x83
 14265 025b 81000000 		.4byte	0x81
 14266 025f 6F       		.byte	0x6f
 14267 0260 0A       		.uleb128 0xa
 14268 0261 8D050000 		.4byte	.LASF37
 14269 0265 05       		.byte	0x5
 14270 0266 84       		.byte	0x84
 14271 0267 81000000 		.4byte	0x81
 14272 026b 70       		.byte	0x70
 14273 026c 0A       		.uleb128 0xa
 14274 026d 4A040000 		.4byte	.LASF38
 14275 0271 05       		.byte	0x5
 14276 0272 85       		.byte	0x85
 14277 0273 79020000 		.4byte	0x279
 14278 0277 71       		.byte	0x71
 14279 0278 00       		.byte	0
 14280 0279 06       		.uleb128 0x6
 14281 027a 81000000 		.4byte	0x81
 14282 027e 89020000 		.4byte	0x289
 14283 0282 07       		.uleb128 0x7
 14284 0283 B6000000 		.4byte	0xb6
 14285 0287 04       		.byte	0x4
 14286 0288 00       		.byte	0
 14287 0289 06       		.uleb128 0x6
 14288 028a 81000000 		.4byte	0x81
 14289 028e 99020000 		.4byte	0x299
 14290 0292 07       		.uleb128 0x7
 14291 0293 B6000000 		.4byte	0xb6
 14292 0297 08       		.byte	0x8
 14293 0298 00       		.byte	0
 14294 0299 06       		.uleb128 0x6
 14295 029a 81000000 		.4byte	0x81
 14296 029e A9020000 		.4byte	0x2a9
 14297 02a2 07       		.uleb128 0x7
 14298 02a3 B6000000 		.4byte	0xb6
 14299 02a7 07       		.byte	0x7
 14300 02a8 00       		.byte	0
 14301 02a9 06       		.uleb128 0x6
 14302 02aa 81000000 		.4byte	0x81
ARM GAS  C:\Users\RECEPC~1\AppData\Local\Temp\ccIpe7td.s 			page 311


 14303 02ae B9020000 		.4byte	0x2b9
 14304 02b2 07       		.uleb128 0x7
 14305 02b3 B6000000 		.4byte	0xb6
 14306 02b7 0F       		.byte	0xf
 14307 02b8 00       		.byte	0
 14308 02b9 06       		.uleb128 0x6
 14309 02ba 81000000 		.4byte	0x81
 14310 02be C9020000 		.4byte	0x2c9
 14311 02c2 07       		.uleb128 0x7
 14312 02c3 B6000000 		.4byte	0xb6
 14313 02c7 0A       		.byte	0xa
 14314 02c8 00       		.byte	0
 14315 02c9 0B       		.uleb128 0xb
 14316 02ca 3F050000 		.4byte	.LASF44
 14317 02ce 01       		.byte	0x1
 14318 02cf 5A       		.byte	0x5a
 14319 02d0 00000000 		.4byte	.LFB63
 14320 02d4 D4010000 		.4byte	.LFE63-.LFB63
 14321 02d8 01       		.uleb128 0x1
 14322 02d9 9C       		.byte	0x9c
 14323 02da EB020000 		.4byte	0x2eb
 14324 02de 0C       		.uleb128 0xc
 14325 02df 7800     		.ascii	"x\000"
 14326 02e1 01       		.byte	0x1
 14327 02e2 5C       		.byte	0x5c
 14328 02e3 81000000 		.4byte	0x81
 14329 02e7 02       		.uleb128 0x2
 14330 02e8 91       		.byte	0x91
 14331 02e9 6F       		.sleb128 -17
 14332 02ea 00       		.byte	0
 14333 02eb 0D       		.uleb128 0xd
 14334 02ec 0C030000 		.4byte	.LASF154
 14335 02f0 01       		.byte	0x1
 14336 02f1 A4       		.byte	0xa4
 14337 02f2 81000000 		.4byte	0x81
 14338 02f6 00000000 		.4byte	.LFB64
 14339 02fa 84000000 		.4byte	.LFE64-.LFB64
 14340 02fe 01       		.uleb128 0x1
 14341 02ff 9C       		.byte	0x9c
 14342 0300 5A030000 		.4byte	0x35a
 14343 0304 0E       		.uleb128 0xe
 14344 0305 CF020000 		.4byte	.LASF39
 14345 0309 01       		.byte	0x1
 14346 030a A4       		.byte	0xa4
 14347 030b 5A030000 		.4byte	0x35a
 14348 030f 03       		.uleb128 0x3
 14349 0310 91       		.byte	0x91
 14350 0311 EC7D     		.sleb128 -276
 14351 0313 0E       		.uleb128 0xe
 14352 0314 F4030000 		.4byte	.LASF40
 14353 0318 01       		.byte	0x1
 14354 0319 A4       		.byte	0xa4
 14355 031a 8C000000 		.4byte	0x8c
 14356 031e 03       		.uleb128 0x3
 14357 031f 91       		.byte	0x91
 14358 0320 EA7D     		.sleb128 -278
 14359 0322 0F       		.uleb128 0xf
ARM GAS  C:\Users\RECEPC~1\AppData\Local\Temp\ccIpe7td.s 			page 312


 14360 0323 7E010000 		.4byte	.LASF41
 14361 0327 01       		.byte	0x1
 14362 0328 A5       		.byte	0xa5
 14363 0329 81000000 		.4byte	0x81
 14364 032d 02       		.uleb128 0x2
 14365 032e 91       		.byte	0x91
 14366 032f 77       		.sleb128 -9
 14367 0330 0F       		.uleb128 0xf
 14368 0331 87010000 		.4byte	.LASF42
 14369 0335 01       		.byte	0x1
 14370 0336 A5       		.byte	0xa5
 14371 0337 81000000 		.4byte	0x81
 14372 033b 02       		.uleb128 0x2
 14373 033c 91       		.byte	0x91
 14374 033d 73       		.sleb128 -13
 14375 033e 0C       		.uleb128 0xc
 14376 033f 6900     		.ascii	"i\000"
 14377 0341 01       		.byte	0x1
 14378 0342 A6       		.byte	0xa6
 14379 0343 8C000000 		.4byte	0x8c
 14380 0347 02       		.uleb128 0x2
 14381 0348 91       		.byte	0x91
 14382 0349 74       		.sleb128 -12
 14383 034a 0F       		.uleb128 0xf
 14384 034b 8B020000 		.4byte	.LASF43
 14385 034f 01       		.byte	0x1
 14386 0350 A7       		.byte	0xa7
 14387 0351 60030000 		.4byte	0x360
 14388 0355 03       		.uleb128 0x3
 14389 0356 91       		.byte	0x91
 14390 0357 F07D     		.sleb128 -272
 14391 0359 00       		.byte	0
 14392 035a 10       		.uleb128 0x10
 14393 035b 04       		.byte	0x4
 14394 035c 81000000 		.4byte	0x81
 14395 0360 06       		.uleb128 0x6
 14396 0361 81000000 		.4byte	0x81
 14397 0365 70030000 		.4byte	0x370
 14398 0369 07       		.uleb128 0x7
 14399 036a B6000000 		.4byte	0xb6
 14400 036e FF       		.byte	0xff
 14401 036f 00       		.byte	0
 14402 0370 0B       		.uleb128 0xb
 14403 0371 F2050000 		.4byte	.LASF45
 14404 0375 01       		.byte	0x1
 14405 0376 D0       		.byte	0xd0
 14406 0377 00000000 		.4byte	.LFB65
 14407 037b 80000000 		.4byte	.LFE65-.LFB65
 14408 037f 01       		.uleb128 0x1
 14409 0380 9C       		.byte	0x9c
 14410 0381 A2030000 		.4byte	0x3a2
 14411 0385 11       		.uleb128 0x11
 14412 0386 6C636400 		.ascii	"lcd\000"
 14413 038a 01       		.byte	0x1
 14414 038b D0       		.byte	0xd0
 14415 038c 81000000 		.4byte	0x81
 14416 0390 02       		.uleb128 0x2
ARM GAS  C:\Users\RECEPC~1\AppData\Local\Temp\ccIpe7td.s 			page 313


 14417 0391 91       		.byte	0x91
 14418 0392 77       		.sleb128 -9
 14419 0393 0E       		.uleb128 0xe
 14420 0394 37040000 		.4byte	.LASF46
 14421 0398 01       		.byte	0x1
 14422 0399 D0       		.byte	0xd0
 14423 039a 8C000000 		.4byte	0x8c
 14424 039e 02       		.uleb128 0x2
 14425 039f 91       		.byte	0x91
 14426 03a0 74       		.sleb128 -12
 14427 03a1 00       		.byte	0
 14428 03a2 0B       		.uleb128 0xb
 14429 03a3 B0000000 		.4byte	.LASF47
 14430 03a7 01       		.byte	0x1
 14431 03a8 F2       		.byte	0xf2
 14432 03a9 00000000 		.4byte	.LFB66
 14433 03ad 24030000 		.4byte	.LFE66-.LFB66
 14434 03b1 01       		.uleb128 0x1
 14435 03b2 9C       		.byte	0x9c
 14436 03b3 D3030000 		.4byte	0x3d3
 14437 03b7 0F       		.uleb128 0xf
 14438 03b8 1D040000 		.4byte	.LASF18
 14439 03bc 01       		.byte	0x1
 14440 03bd F3       		.byte	0xf3
 14441 03be 81000000 		.4byte	0x81
 14442 03c2 02       		.uleb128 0x2
 14443 03c3 91       		.byte	0x91
 14444 03c4 76       		.sleb128 -10
 14445 03c5 0C       		.uleb128 0xc
 14446 03c6 6F6B00   		.ascii	"ok\000"
 14447 03c9 01       		.byte	0x1
 14448 03ca F3       		.byte	0xf3
 14449 03cb 81000000 		.4byte	0x81
 14450 03cf 02       		.uleb128 0x2
 14451 03d0 91       		.byte	0x91
 14452 03d1 77       		.sleb128 -9
 14453 03d2 00       		.byte	0
 14454 03d3 12       		.uleb128 0x12
 14455 03d4 09000000 		.4byte	.LASF48
 14456 03d8 01       		.byte	0x1
 14457 03d9 8401     		.2byte	0x184
 14458 03db 00000000 		.4byte	.LFB67
 14459 03df 28050000 		.4byte	.LFE67-.LFB67
 14460 03e3 01       		.uleb128 0x1
 14461 03e4 9C       		.byte	0x9c
 14462 03e5 51040000 		.4byte	0x451
 14463 03e9 13       		.uleb128 0x13
 14464 03ea A2020000 		.4byte	.LASF49
 14465 03ee 01       		.byte	0x1
 14466 03ef 8501     		.2byte	0x185
 14467 03f1 8C000000 		.4byte	0x8c
 14468 03f5 02       		.uleb128 0x2
 14469 03f6 91       		.byte	0x91
 14470 03f7 70       		.sleb128 -16
 14471 03f8 13       		.uleb128 0x13
 14472 03f9 14000000 		.4byte	.LASF50
 14473 03fd 01       		.byte	0x1
ARM GAS  C:\Users\RECEPC~1\AppData\Local\Temp\ccIpe7td.s 			page 314


 14474 03fe 8501     		.2byte	0x185
 14475 0400 8C000000 		.4byte	0x8c
 14476 0404 02       		.uleb128 0x2
 14477 0405 91       		.byte	0x91
 14478 0406 6E       		.sleb128 -18
 14479 0407 13       		.uleb128 0x13
 14480 0408 F4030000 		.4byte	.LASF40
 14481 040c 01       		.byte	0x1
 14482 040d 8501     		.2byte	0x185
 14483 040f 8C000000 		.4byte	0x8c
 14484 0413 02       		.uleb128 0x2
 14485 0414 91       		.byte	0x91
 14486 0415 76       		.sleb128 -10
 14487 0416 14       		.uleb128 0x14
 14488 0417 7800     		.ascii	"x\000"
 14489 0419 01       		.byte	0x1
 14490 041a 8501     		.2byte	0x185
 14491 041c 8C000000 		.4byte	0x8c
 14492 0420 02       		.uleb128 0x2
 14493 0421 91       		.byte	0x91
 14494 0422 74       		.sleb128 -12
 14495 0423 13       		.uleb128 0x13
 14496 0424 E2010000 		.4byte	.LASF51
 14497 0428 01       		.byte	0x1
 14498 0429 8501     		.2byte	0x185
 14499 042b 8C000000 		.4byte	0x8c
 14500 042f 02       		.uleb128 0x2
 14501 0430 91       		.byte	0x91
 14502 0431 72       		.sleb128 -14
 14503 0432 13       		.uleb128 0x13
 14504 0433 DE000000 		.4byte	.LASF52
 14505 0437 01       		.byte	0x1
 14506 0438 8601     		.2byte	0x186
 14507 043a 79020000 		.4byte	0x279
 14508 043e 02       		.uleb128 0x2
 14509 043f 91       		.byte	0x91
 14510 0440 68       		.sleb128 -24
 14511 0441 13       		.uleb128 0x13
 14512 0442 56010000 		.4byte	.LASF29
 14513 0446 01       		.byte	0x1
 14514 0447 8601     		.2byte	0x186
 14515 0449 99020000 		.4byte	0x299
 14516 044d 02       		.uleb128 0x2
 14517 044e 91       		.byte	0x91
 14518 044f 60       		.sleb128 -32
 14519 0450 00       		.byte	0
 14520 0451 12       		.uleb128 0x12
 14521 0452 85060000 		.4byte	.LASF53
 14522 0456 01       		.byte	0x1
 14523 0457 5302     		.2byte	0x253
 14524 0459 00000000 		.4byte	.LFB68
 14525 045d 2C050000 		.4byte	.LFE68-.LFB68
 14526 0461 01       		.uleb128 0x1
 14527 0462 9C       		.byte	0x9c
 14528 0463 CF040000 		.4byte	0x4cf
 14529 0467 13       		.uleb128 0x13
 14530 0468 A2020000 		.4byte	.LASF49
ARM GAS  C:\Users\RECEPC~1\AppData\Local\Temp\ccIpe7td.s 			page 315


 14531 046c 01       		.byte	0x1
 14532 046d 5402     		.2byte	0x254
 14533 046f 8C000000 		.4byte	0x8c
 14534 0473 02       		.uleb128 0x2
 14535 0474 91       		.byte	0x91
 14536 0475 70       		.sleb128 -16
 14537 0476 13       		.uleb128 0x13
 14538 0477 14000000 		.4byte	.LASF50
 14539 047b 01       		.byte	0x1
 14540 047c 5402     		.2byte	0x254
 14541 047e 8C000000 		.4byte	0x8c
 14542 0482 02       		.uleb128 0x2
 14543 0483 91       		.byte	0x91
 14544 0484 6E       		.sleb128 -18
 14545 0485 13       		.uleb128 0x13
 14546 0486 F4030000 		.4byte	.LASF40
 14547 048a 01       		.byte	0x1
 14548 048b 5402     		.2byte	0x254
 14549 048d 8C000000 		.4byte	0x8c
 14550 0491 02       		.uleb128 0x2
 14551 0492 91       		.byte	0x91
 14552 0493 76       		.sleb128 -10
 14553 0494 14       		.uleb128 0x14
 14554 0495 7800     		.ascii	"x\000"
 14555 0497 01       		.byte	0x1
 14556 0498 5402     		.2byte	0x254
 14557 049a 8C000000 		.4byte	0x8c
 14558 049e 02       		.uleb128 0x2
 14559 049f 91       		.byte	0x91
 14560 04a0 74       		.sleb128 -12
 14561 04a1 13       		.uleb128 0x13
 14562 04a2 E2010000 		.4byte	.LASF51
 14563 04a6 01       		.byte	0x1
 14564 04a7 5402     		.2byte	0x254
 14565 04a9 8C000000 		.4byte	0x8c
 14566 04ad 02       		.uleb128 0x2
 14567 04ae 91       		.byte	0x91
 14568 04af 72       		.sleb128 -14
 14569 04b0 13       		.uleb128 0x13
 14570 04b1 DE000000 		.4byte	.LASF52
 14571 04b5 01       		.byte	0x1
 14572 04b6 5502     		.2byte	0x255
 14573 04b8 79020000 		.4byte	0x279
 14574 04bc 02       		.uleb128 0x2
 14575 04bd 91       		.byte	0x91
 14576 04be 68       		.sleb128 -24
 14577 04bf 13       		.uleb128 0x13
 14578 04c0 56010000 		.4byte	.LASF29
 14579 04c4 01       		.byte	0x1
 14580 04c5 5502     		.2byte	0x255
 14581 04c7 99020000 		.4byte	0x299
 14582 04cb 02       		.uleb128 0x2
 14583 04cc 91       		.byte	0x91
 14584 04cd 60       		.sleb128 -32
 14585 04ce 00       		.byte	0
 14586 04cf 15       		.uleb128 0x15
 14587 04d0 F8010000 		.4byte	.LASF57
ARM GAS  C:\Users\RECEPC~1\AppData\Local\Temp\ccIpe7td.s 			page 316


 14588 04d4 01       		.byte	0x1
 14589 04d5 2203     		.2byte	0x322
 14590 04d7 00000000 		.4byte	.LFB69
 14591 04db 0C000000 		.4byte	.LFE69-.LFB69
 14592 04df 01       		.uleb128 0x1
 14593 04e0 9C       		.byte	0x9c
 14594 04e1 12       		.uleb128 0x12
 14595 04e2 39030000 		.4byte	.LASF54
 14596 04e6 01       		.byte	0x1
 14597 04e7 3A03     		.2byte	0x33a
 14598 04e9 00000000 		.4byte	.LFB70
 14599 04ed 384E0000 		.4byte	.LFE70-.LFB70
 14600 04f1 01       		.uleb128 0x1
 14601 04f2 9C       		.byte	0x9c
 14602 04f3 69050000 		.4byte	0x569
 14603 04f7 14       		.uleb128 0x14
 14604 04f8 7800     		.ascii	"x\000"
 14605 04fa 01       		.byte	0x1
 14606 04fb 3B03     		.2byte	0x33b
 14607 04fd 81000000 		.4byte	0x81
 14608 0501 02       		.uleb128 0x2
 14609 0502 91       		.byte	0x91
 14610 0503 6F       		.sleb128 -17
 14611 0504 14       		.uleb128 0x14
 14612 0505 7900     		.ascii	"y\000"
 14613 0507 01       		.byte	0x1
 14614 0508 3B03     		.2byte	0x33b
 14615 050a 81000000 		.4byte	0x81
 14616 050e 02       		.uleb128 0x2
 14617 050f 91       		.byte	0x91
 14618 0510 6E       		.sleb128 -18
 14619 0511 14       		.uleb128 0x14
 14620 0512 61757800 		.ascii	"aux\000"
 14621 0516 01       		.byte	0x1
 14622 0517 3B03     		.2byte	0x33b
 14623 0519 69050000 		.4byte	0x569
 14624 051d 02       		.uleb128 0x2
 14625 051e 91       		.byte	0x91
 14626 051f 54       		.sleb128 -44
 14627 0520 13       		.uleb128 0x13
 14628 0521 DE000000 		.4byte	.LASF52
 14629 0525 01       		.byte	0x1
 14630 0526 3B03     		.2byte	0x33b
 14631 0528 79020000 		.4byte	0x279
 14632 052c 02       		.uleb128 0x2
 14633 052d 91       		.byte	0x91
 14634 052e 4C       		.sleb128 -52
 14635 052f 14       		.uleb128 0x14
 14636 0530 785F3100 		.ascii	"x_1\000"
 14637 0534 01       		.byte	0x1
 14638 0535 3B03     		.2byte	0x33b
 14639 0537 81000000 		.4byte	0x81
 14640 053b 02       		.uleb128 0x2
 14641 053c 91       		.byte	0x91
 14642 053d 6D       		.sleb128 -19
 14643 053e 16       		.uleb128 0x16
 14644 053f 52060000 		.4byte	.LASF64
ARM GAS  C:\Users\RECEPC~1\AppData\Local\Temp\ccIpe7td.s 			page 317


 14645 0543 01       		.byte	0x1
 14646 0544 3B03     		.2byte	0x33b
 14647 0546 81000000 		.4byte	0x81
 14648 054a 13       		.uleb128 0x13
 14649 054b 5F050000 		.4byte	.LASF55
 14650 054f 01       		.byte	0x1
 14651 0550 3C03     		.2byte	0x33c
 14652 0552 BD000000 		.4byte	0xbd
 14653 0556 02       		.uleb128 0x2
 14654 0557 91       		.byte	0x91
 14655 0558 44       		.sleb128 -60
 14656 0559 13       		.uleb128 0x13
 14657 055a 1C000000 		.4byte	.LASF56
 14658 055e 01       		.byte	0x1
 14659 055f 3D03     		.2byte	0x33d
 14660 0561 9E000000 		.4byte	0x9e
 14661 0565 02       		.uleb128 0x2
 14662 0566 91       		.byte	0x91
 14663 0567 60       		.sleb128 -32
 14664 0568 00       		.byte	0
 14665 0569 06       		.uleb128 0x6
 14666 056a 81000000 		.4byte	0x81
 14667 056e 79050000 		.4byte	0x579
 14668 0572 07       		.uleb128 0x7
 14669 0573 B6000000 		.4byte	0xb6
 14670 0577 09       		.byte	0x9
 14671 0578 00       		.byte	0
 14672 0579 15       		.uleb128 0x15
 14673 057a 46030000 		.4byte	.LASF58
 14674 057e 01       		.byte	0x1
 14675 057f 480B     		.2byte	0xb48
 14676 0581 00000000 		.4byte	.LFB71
 14677 0585 0C000000 		.4byte	.LFE71-.LFB71
 14678 0589 01       		.uleb128 0x1
 14679 058a 9C       		.byte	0x9c
 14680 058b 15       		.uleb128 0x15
 14681 058c 53020000 		.4byte	.LASF59
 14682 0590 01       		.byte	0x1
 14683 0591 5D0B     		.2byte	0xb5d
 14684 0593 00000000 		.4byte	.LFB72
 14685 0597 0C000000 		.4byte	.LFE72-.LFB72
 14686 059b 01       		.uleb128 0x1
 14687 059c 9C       		.byte	0x9c
 14688 059d 17       		.uleb128 0x17
 14689 059e EF040000 		.4byte	.LASF60
 14690 05a2 01       		.byte	0x1
 14691 05a3 710B     		.2byte	0xb71
 14692 05a5 00000000 		.4byte	.LFB73
 14693 05a9 74000000 		.4byte	.LFE73-.LFB73
 14694 05ad 01       		.uleb128 0x1
 14695 05ae 9C       		.byte	0x9c
 14696 05af 17       		.uleb128 0x17
 14697 05b0 20050000 		.4byte	.LASF61
 14698 05b4 01       		.byte	0x1
 14699 05b5 920B     		.2byte	0xb92
 14700 05b7 00000000 		.4byte	.LFB74
 14701 05bb 74000000 		.4byte	.LFE74-.LFB74
ARM GAS  C:\Users\RECEPC~1\AppData\Local\Temp\ccIpe7td.s 			page 318


 14702 05bf 01       		.uleb128 0x1
 14703 05c0 9C       		.byte	0x9c
 14704 05c1 17       		.uleb128 0x17
 14705 05c2 2E040000 		.4byte	.LASF62
 14706 05c6 01       		.byte	0x1
 14707 05c7 B30B     		.2byte	0xbb3
 14708 05c9 00000000 		.4byte	.LFB75
 14709 05cd 54000000 		.4byte	.LFE75-.LFB75
 14710 05d1 01       		.uleb128 0x1
 14711 05d2 9C       		.byte	0x9c
 14712 05d3 12       		.uleb128 0x12
 14713 05d4 11050000 		.4byte	.LASF63
 14714 05d8 01       		.byte	0x1
 14715 05d9 CF0B     		.2byte	0xbcf
 14716 05db 00000000 		.4byte	.LFB76
 14717 05df 38000000 		.4byte	.LFE76-.LFB76
 14718 05e3 01       		.uleb128 0x1
 14719 05e4 9C       		.byte	0x9c
 14720 05e5 03060000 		.4byte	0x603
 14721 05e9 18       		.uleb128 0x18
 14722 05ea 7800     		.ascii	"x\000"
 14723 05ec 01       		.byte	0x1
 14724 05ed D20B     		.2byte	0xbd2
 14725 05ef 68000000 		.4byte	0x68
 14726 05f3 13       		.uleb128 0x13
 14727 05f4 79040000 		.4byte	.LASF65
 14728 05f8 01       		.byte	0x1
 14729 05f9 D40B     		.2byte	0xbd4
 14730 05fb 79020000 		.4byte	0x279
 14731 05ff 02       		.uleb128 0x2
 14732 0600 91       		.byte	0x91
 14733 0601 70       		.sleb128 -16
 14734 0602 00       		.byte	0
 14735 0603 19       		.uleb128 0x19
 14736 0604 17060000 		.4byte	.LASF66
 14737 0608 01       		.byte	0x1
 14738 0609 ED0B     		.2byte	0xbed
 14739 060b 68000000 		.4byte	0x68
 14740 060f 00000000 		.4byte	.LFB77
 14741 0613 4C000000 		.4byte	.LFE77-.LFB77
 14742 0617 01       		.uleb128 0x1
 14743 0618 9C       		.byte	0x9c
 14744 0619 1A       		.uleb128 0x1a
 14745 061a 39000000 		.4byte	.LASF67
 14746 061e 06       		.byte	0x6
 14747 061f 3E01     		.2byte	0x13e
 14748 0621 25060000 		.4byte	0x625
 14749 0625 05       		.uleb128 0x5
 14750 0626 99020000 		.4byte	0x299
 14751 062a 06       		.uleb128 0x6
 14752 062b 81000000 		.4byte	0x81
 14753 062f 3B060000 		.4byte	0x63b
 14754 0633 1B       		.uleb128 0x1b
 14755 0634 B6000000 		.4byte	0xb6
 14756 0638 DB05     		.2byte	0x5db
 14757 063a 00       		.byte	0
 14758 063b 1A       		.uleb128 0x1a
ARM GAS  C:\Users\RECEPC~1\AppData\Local\Temp\ccIpe7td.s 			page 319


 14759 063c 8E040000 		.4byte	.LASF68
 14760 0640 07       		.byte	0x7
 14761 0641 3E01     		.2byte	0x13e
 14762 0643 47060000 		.4byte	0x647
 14763 0647 05       		.uleb128 0x5
 14764 0648 2A060000 		.4byte	0x62a
 14765 064c 1A       		.uleb128 0x1a
 14766 064d A3040000 		.4byte	.LASF69
 14767 0651 08       		.byte	0x8
 14768 0652 2A06     		.2byte	0x62a
 14769 0654 58060000 		.4byte	0x658
 14770 0658 05       		.uleb128 0x5
 14771 0659 76000000 		.4byte	0x76
 14772 065d 1C       		.uleb128 0x1c
 14773 065e EA020000 		.4byte	.LASF70
 14774 0662 05       		.byte	0x5
 14775 0663 42       		.byte	0x42
 14776 0664 AC000000 		.4byte	0xac
 14777 0668 05       		.uleb128 0x5
 14778 0669 03       		.byte	0x3
 14779 066a 00000000 		.4byte	count_teclas1
 14780 066e 1C       		.uleb128 0x1c
 14781 066f B9040000 		.4byte	.LASF71
 14782 0673 05       		.byte	0x5
 14783 0674 42       		.byte	0x42
 14784 0675 AC000000 		.4byte	0xac
 14785 0679 05       		.uleb128 0x5
 14786 067a 03       		.byte	0x3
 14787 067b 00000000 		.4byte	comas1
 14788 067f 1C       		.uleb128 0x1c
 14789 0680 C0040000 		.4byte	.LASF72
 14790 0684 05       		.byte	0x5
 14791 0685 42       		.byte	0x42
 14792 0686 AC000000 		.4byte	0xac
 14793 068a 05       		.uleb128 0x5
 14794 068b 03       		.byte	0x3
 14795 068c 00000000 		.4byte	comas2
 14796 0690 1C       		.uleb128 0x1c
 14797 0691 91000000 		.4byte	.LASF73
 14798 0695 05       		.byte	0x5
 14799 0696 42       		.byte	0x42
 14800 0697 AC000000 		.4byte	0xac
 14801 069b 05       		.uleb128 0x5
 14802 069c 03       		.byte	0x3
 14803 069d 00000000 		.4byte	id_coma1
 14804 06a1 1C       		.uleb128 0x1c
 14805 06a2 3B020000 		.4byte	.LASF74
 14806 06a6 05       		.byte	0x5
 14807 06a7 42       		.byte	0x42
 14808 06a8 AC000000 		.4byte	0xac
 14809 06ac 05       		.uleb128 0x5
 14810 06ad 03       		.byte	0x3
 14811 06ae 00000000 		.4byte	id_teclado1
 14812 06b2 1C       		.uleb128 0x1c
 14813 06b3 F8020000 		.4byte	.LASF75
 14814 06b7 05       		.byte	0x5
 14815 06b8 42       		.byte	0x42
ARM GAS  C:\Users\RECEPC~1\AppData\Local\Temp\ccIpe7td.s 			page 320


 14816 06b9 AC000000 		.4byte	0xac
 14817 06bd 05       		.uleb128 0x5
 14818 06be 03       		.byte	0x3
 14819 06bf 00000000 		.4byte	count_teclas2
 14820 06c3 1C       		.uleb128 0x1c
 14821 06c4 9A000000 		.4byte	.LASF76
 14822 06c8 05       		.byte	0x5
 14823 06c9 42       		.byte	0x42
 14824 06ca AC000000 		.4byte	0xac
 14825 06ce 05       		.uleb128 0x5
 14826 06cf 03       		.byte	0x3
 14827 06d0 00000000 		.4byte	id_coma2
 14828 06d4 1C       		.uleb128 0x1c
 14829 06d5 47020000 		.4byte	.LASF77
 14830 06d9 05       		.byte	0x5
 14831 06da 42       		.byte	0x42
 14832 06db AC000000 		.4byte	0xac
 14833 06df 05       		.uleb128 0x5
 14834 06e0 03       		.byte	0x3
 14835 06e1 00000000 		.4byte	id_teclado2
 14836 06e5 1C       		.uleb128 0x1c
 14837 06e6 06030000 		.4byte	.LASF78
 14838 06ea 05       		.byte	0x5
 14839 06eb 43       		.byte	0x43
 14840 06ec B1000000 		.4byte	0xb1
 14841 06f0 05       		.uleb128 0x5
 14842 06f1 03       		.byte	0x3
 14843 06f2 00000000 		.4byte	posx1
 14844 06f6 1C       		.uleb128 0x1c
 14845 06f7 E8030000 		.4byte	.LASF79
 14846 06fb 05       		.byte	0x5
 14847 06fc 43       		.byte	0x43
 14848 06fd B1000000 		.4byte	0xb1
 14849 0701 05       		.uleb128 0x5
 14850 0702 03       		.byte	0x3
 14851 0703 00000000 		.4byte	posy1
 14852 0707 1C       		.uleb128 0x1c
 14853 0708 91060000 		.4byte	.LASF80
 14854 070c 05       		.byte	0x5
 14855 070d 43       		.byte	0x43
 14856 070e B1000000 		.4byte	0xb1
 14857 0712 05       		.uleb128 0x5
 14858 0713 03       		.byte	0x3
 14859 0714 00000000 		.4byte	sizeletra1
 14860 0718 1C       		.uleb128 0x1c
 14861 0719 2A030000 		.4byte	.LASF81
 14862 071d 05       		.byte	0x5
 14863 071e 43       		.byte	0x43
 14864 071f B1000000 		.4byte	0xb1
 14865 0723 05       		.uleb128 0x5
 14866 0724 03       		.byte	0x3
 14867 0725 00000000 		.4byte	posx2
 14868 0729 1C       		.uleb128 0x1c
 14869 072a EE030000 		.4byte	.LASF82
 14870 072e 05       		.byte	0x5
 14871 072f 43       		.byte	0x43
 14872 0730 B1000000 		.4byte	0xb1
ARM GAS  C:\Users\RECEPC~1\AppData\Local\Temp\ccIpe7td.s 			page 321


 14873 0734 05       		.uleb128 0x5
 14874 0735 03       		.byte	0x3
 14875 0736 00000000 		.4byte	posy2
 14876 073a 1C       		.uleb128 0x1c
 14877 073b 9C060000 		.4byte	.LASF83
 14878 073f 05       		.byte	0x5
 14879 0740 43       		.byte	0x43
 14880 0741 B1000000 		.4byte	0xb1
 14881 0745 05       		.uleb128 0x5
 14882 0746 03       		.byte	0x3
 14883 0747 00000000 		.4byte	sizeletra2
 14884 074b 1C       		.uleb128 0x1c
 14885 074c FB000000 		.4byte	.LASF84
 14886 0750 05       		.byte	0x5
 14887 0751 44       		.byte	0x44
 14888 0752 AC000000 		.4byte	0xac
 14889 0756 05       		.uleb128 0x5
 14890 0757 03       		.byte	0x3
 14891 0758 00000000 		.4byte	teclas1
 14892 075c 1C       		.uleb128 0x1c
 14893 075d 03010000 		.4byte	.LASF85
 14894 0761 05       		.byte	0x5
 14895 0762 44       		.byte	0x44
 14896 0763 AC000000 		.4byte	0xac
 14897 0767 05       		.uleb128 0x5
 14898 0768 03       		.byte	0x3
 14899 0769 00000000 		.4byte	teclas2
 14900 076d 1C       		.uleb128 0x1c
 14901 076e 40010000 		.4byte	.LASF86
 14902 0772 05       		.byte	0x5
 14903 0773 45       		.byte	0x45
 14904 0774 AC000000 		.4byte	0xac
 14905 0778 05       		.uleb128 0x5
 14906 0779 03       		.byte	0x3
 14907 077a 00000000 		.4byte	flujo_LCD1
 14908 077e 1C       		.uleb128 0x1c
 14909 077f 4B010000 		.4byte	.LASF87
 14910 0783 05       		.byte	0x5
 14911 0784 45       		.byte	0x45
 14912 0785 AC000000 		.4byte	0xac
 14913 0789 05       		.uleb128 0x5
 14914 078a 03       		.byte	0x3
 14915 078b 00000000 		.4byte	flujo_LCD2
 14916 078f 1C       		.uleb128 0x1c
 14917 0790 05020000 		.4byte	.LASF88
 14918 0794 05       		.byte	0x5
 14919 0795 46       		.byte	0x46
 14920 0796 AC000000 		.4byte	0xac
 14921 079a 05       		.uleb128 0x5
 14922 079b 03       		.byte	0x3
 14923 079c 00000000 		.4byte	flujo_pos1
 14924 07a0 1C       		.uleb128 0x1c
 14925 07a1 10020000 		.4byte	.LASF89
 14926 07a5 05       		.byte	0x5
 14927 07a6 46       		.byte	0x46
 14928 07a7 AC000000 		.4byte	0xac
 14929 07ab 05       		.uleb128 0x5
ARM GAS  C:\Users\RECEPC~1\AppData\Local\Temp\ccIpe7td.s 			page 322


 14930 07ac 03       		.byte	0x3
 14931 07ad 00000000 		.4byte	flujo_pos2
 14932 07b1 1C       		.uleb128 0x1c
 14933 07b2 D4010000 		.4byte	.LASF90
 14934 07b6 05       		.byte	0x5
 14935 07b7 47       		.byte	0x47
 14936 07b8 AC000000 		.4byte	0xac
 14937 07bc 05       		.uleb128 0x5
 14938 07bd 03       		.byte	0x3
 14939 07be 00000000 		.4byte	seleccion_pos
 14940 07c2 1C       		.uleb128 0x1c
 14941 07c3 A6050000 		.4byte	.LASF91
 14942 07c7 05       		.byte	0x5
 14943 07c8 48       		.byte	0x48
 14944 07c9 AC000000 		.4byte	0xac
 14945 07cd 05       		.uleb128 0x5
 14946 07ce 03       		.byte	0x3
 14947 07cf 00000000 		.4byte	flujo_pos
 14948 07d3 1C       		.uleb128 0x1c
 14949 07d4 C7010000 		.4byte	.LASF92
 14950 07d8 05       		.byte	0x5
 14951 07d9 49       		.byte	0x49
 14952 07da AC000000 		.4byte	0xac
 14953 07de 05       		.uleb128 0x5
 14954 07df 03       		.byte	0x3
 14955 07e0 00000000 		.4byte	venta_activa
 14956 07e4 1C       		.uleb128 0x1c
 14957 07e5 93010000 		.4byte	.LASF93
 14958 07e9 05       		.byte	0x5
 14959 07ea 49       		.byte	0x49
 14960 07eb AC000000 		.4byte	0xac
 14961 07ef 05       		.uleb128 0x5
 14962 07f0 03       		.byte	0x3
 14963 07f1 00000000 		.4byte	venta_activa2
 14964 07f5 06       		.uleb128 0x6
 14965 07f6 81000000 		.4byte	0x81
 14966 07fa 05080000 		.4byte	0x805
 14967 07fe 07       		.uleb128 0x7
 14968 07ff B6000000 		.4byte	0xb6
 14969 0803 1D       		.byte	0x1d
 14970 0804 00       		.byte	0
 14971 0805 1C       		.uleb128 0x1c
 14972 0806 11040000 		.4byte	.LASF94
 14973 080a 05       		.byte	0x5
 14974 080b 4A       		.byte	0x4a
 14975 080c 16080000 		.4byte	0x816
 14976 0810 05       		.uleb128 0x5
 14977 0811 03       		.byte	0x3
 14978 0812 00000000 		.4byte	Buffer_LCD1
 14979 0816 05       		.uleb128 0x5
 14980 0817 F5070000 		.4byte	0x7f5
 14981 081b 1C       		.uleb128 0x1c
 14982 081c 6E020000 		.4byte	.LASF95
 14983 0820 05       		.byte	0x5
 14984 0821 4B       		.byte	0x4b
 14985 0822 2C080000 		.4byte	0x82c
 14986 0826 05       		.uleb128 0x5
ARM GAS  C:\Users\RECEPC~1\AppData\Local\Temp\ccIpe7td.s 			page 323


 14987 0827 03       		.byte	0x3
 14988 0828 00000000 		.4byte	Buffer_LCD2
 14989 082c 05       		.uleb128 0x5
 14990 082d F5070000 		.4byte	0x7f5
 14991 0831 1C       		.uleb128 0x1c
 14992 0832 63010000 		.4byte	.LASF96
 14993 0836 05       		.byte	0x5
 14994 0837 4C       		.byte	0x4c
 14995 0838 AC000000 		.4byte	0xac
 14996 083c 05       		.uleb128 0x5
 14997 083d 03       		.byte	0x3
 14998 083e 00000000 		.4byte	count_protector
 14999 0842 1C       		.uleb128 0x1c
 15000 0843 28000000 		.4byte	.LASF97
 15001 0847 05       		.byte	0x5
 15002 0848 4C       		.byte	0x4c
 15003 0849 AC000000 		.4byte	0xac
 15004 084d 05       		.uleb128 0x5
 15005 084e 03       		.byte	0x3
 15006 084f 00000000 		.4byte	count_protector2
 15007 0853 1C       		.uleb128 0x1c
 15008 0854 DD020000 		.4byte	.LASF98
 15009 0858 05       		.byte	0x5
 15010 0859 4D       		.byte	0x4d
 15011 085a 64080000 		.4byte	0x864
 15012 085e 05       		.uleb128 0x5
 15013 085f 03       		.byte	0x3
 15014 0860 00000000 		.4byte	password_lcd
 15015 0864 05       		.uleb128 0x5
 15016 0865 89020000 		.4byte	0x289
 15017 0869 1C       		.uleb128 0x1c
 15018 086a 57060000 		.4byte	.LASF99
 15019 086e 05       		.byte	0x5
 15020 086f 4E       		.byte	0x4e
 15021 0870 B1000000 		.4byte	0xb1
 15022 0874 05       		.uleb128 0x5
 15023 0875 03       		.byte	0x3
 15024 0876 00000000 		.4byte	imagen_grado
 15025 087a 06       		.uleb128 0x6
 15026 087b 8C000000 		.4byte	0x8c
 15027 087f 90080000 		.4byte	0x890
 15028 0883 07       		.uleb128 0x7
 15029 0884 B6000000 		.4byte	0xb6
 15030 0888 01       		.byte	0x1
 15031 0889 07       		.uleb128 0x7
 15032 088a B6000000 		.4byte	0xb6
 15033 088e 01       		.byte	0x1
 15034 088f 00       		.byte	0
 15035 0890 1C       		.uleb128 0x1c
 15036 0891 6E050000 		.4byte	.LASF100
 15037 0895 05       		.byte	0x5
 15038 0896 4F       		.byte	0x4f
 15039 0897 A1080000 		.4byte	0x8a1
 15040 089b 05       		.uleb128 0x5
 15041 089c 03       		.byte	0x3
 15042 089d 00000000 		.4byte	prox_caso
 15043 08a1 05       		.uleb128 0x5
ARM GAS  C:\Users\RECEPC~1\AppData\Local\Temp\ccIpe7td.s 			page 324


 15044 08a2 7A080000 		.4byte	0x87a
 15045 08a6 06       		.uleb128 0x6
 15046 08a7 81000000 		.4byte	0x81
 15047 08ab B6080000 		.4byte	0x8b6
 15048 08af 07       		.uleb128 0x7
 15049 08b0 B6000000 		.4byte	0xb6
 15050 08b4 02       		.byte	0x2
 15051 08b5 00       		.byte	0
 15052 08b6 1C       		.uleb128 0x1c
 15053 08b7 7F020000 		.4byte	.LASF101
 15054 08bb 05       		.byte	0x5
 15055 08bc 50       		.byte	0x50
 15056 08bd C7080000 		.4byte	0x8c7
 15057 08c1 05       		.uleb128 0x5
 15058 08c2 03       		.byte	0x3
 15059 08c3 00000000 		.4byte	bloqueo_LCD
 15060 08c7 05       		.uleb128 0x5
 15061 08c8 A6080000 		.4byte	0x8a6
 15062 08cc 1C       		.uleb128 0x1c
 15063 08cd 3D060000 		.4byte	.LASF102
 15064 08d1 05       		.byte	0x5
 15065 08d2 51       		.byte	0x51
 15066 08d3 DD080000 		.4byte	0x8dd
 15067 08d7 05       		.uleb128 0x5
 15068 08d8 03       		.byte	0x3
 15069 08d9 00000000 		.4byte	id_estacion
 15070 08dd 05       		.uleb128 0x5
 15071 08de 79020000 		.4byte	0x279
 15072 08e2 1C       		.uleb128 0x1c
 15073 08e3 5E020000 		.4byte	.LASF103
 15074 08e7 05       		.byte	0x5
 15075 08e8 52       		.byte	0x52
 15076 08e9 F3080000 		.4byte	0x8f3
 15077 08ed 05       		.uleb128 0x5
 15078 08ee 03       		.byte	0x3
 15079 08ef 00000000 		.4byte	id_venta
 15080 08f3 05       		.uleb128 0x5
 15081 08f4 99020000 		.4byte	0x299
 15082 08f8 06       		.uleb128 0x6
 15083 08f9 81000000 		.4byte	0x81
 15084 08fd 08090000 		.4byte	0x908
 15085 0901 07       		.uleb128 0x7
 15086 0902 B6000000 		.4byte	0xb6
 15087 0906 C7       		.byte	0xc7
 15088 0907 00       		.byte	0
 15089 0908 1C       		.uleb128 0x1c
 15090 0909 2F060000 		.4byte	.LASF104
 15091 090d 05       		.byte	0x5
 15092 090e 53       		.byte	0x53
 15093 090f 19090000 		.4byte	0x919
 15094 0913 05       		.uleb128 0x5
 15095 0914 03       		.byte	0x3
 15096 0915 00000000 		.4byte	trama_totales
 15097 0919 05       		.uleb128 0x5
 15098 091a F8080000 		.4byte	0x8f8
 15099 091e 1C       		.uleb128 0x1c
 15100 091f 59040000 		.4byte	.LASF105
ARM GAS  C:\Users\RECEPC~1\AppData\Local\Temp\ccIpe7td.s 			page 325


 15101 0923 05       		.byte	0x5
 15102 0924 57       		.byte	0x57
 15103 0925 AC000000 		.4byte	0xac
 15104 0929 05       		.uleb128 0x5
 15105 092a 03       		.byte	0x3
 15106 092b 00000000 		.4byte	ppux10
 15107 092f 06       		.uleb128 0x6
 15108 0930 81000000 		.4byte	0x81
 15109 0934 3F090000 		.4byte	0x93f
 15110 0938 07       		.uleb128 0x7
 15111 0939 B6000000 		.4byte	0xb6
 15112 093d 10       		.byte	0x10
 15113 093e 00       		.byte	0
 15114 093f 1C       		.uleb128 0x1c
 15115 0940 F9040000 		.4byte	.LASF106
 15116 0944 05       		.byte	0x5
 15117 0945 58       		.byte	0x58
 15118 0946 50090000 		.4byte	0x950
 15119 094a 05       		.uleb128 0x5
 15120 094b 03       		.byte	0x3
 15121 094c 00000000 		.4byte	nombre_pro1
 15122 0950 05       		.uleb128 0x5
 15123 0951 2F090000 		.4byte	0x92f
 15124 0955 1C       		.uleb128 0x1c
 15125 0956 DA050000 		.4byte	.LASF107
 15126 095a 05       		.byte	0x5
 15127 095b 58       		.byte	0x58
 15128 095c 66090000 		.4byte	0x966
 15129 0960 05       		.uleb128 0x5
 15130 0961 03       		.byte	0x3
 15131 0962 00000000 		.4byte	nombre_pro2
 15132 0966 05       		.uleb128 0x5
 15133 0967 2F090000 		.4byte	0x92f
 15134 096b 1C       		.uleb128 0x1c
 15135 096c 05050000 		.4byte	.LASF108
 15136 0970 05       		.byte	0x5
 15137 0971 58       		.byte	0x58
 15138 0972 7C090000 		.4byte	0x97c
 15139 0976 05       		.uleb128 0x5
 15140 0977 03       		.byte	0x3
 15141 0978 00000000 		.4byte	nombre_pro3
 15142 097c 05       		.uleb128 0x5
 15143 097d 2F090000 		.4byte	0x92f
 15144 0981 1C       		.uleb128 0x1c
 15145 0982 C7000000 		.4byte	.LASF109
 15146 0986 05       		.byte	0x5
 15147 0987 59       		.byte	0x59
 15148 0988 92090000 		.4byte	0x992
 15149 098c 05       		.uleb128 0x5
 15150 098d 03       		.byte	0x3
 15151 098e 00000000 		.4byte	version
 15152 0992 05       		.uleb128 0x5
 15153 0993 CD000000 		.4byte	0xcd
 15154 0997 1C       		.uleb128 0x1c
 15155 0998 C1010000 		.4byte	.LASF110
 15156 099c 05       		.byte	0x5
 15157 099d 63       		.byte	0x63
ARM GAS  C:\Users\RECEPC~1\AppData\Local\Temp\ccIpe7td.s 			page 326


 15158 099e E4000000 		.4byte	0xe4
 15159 09a2 05       		.uleb128 0x5
 15160 09a3 03       		.byte	0x3
 15161 09a4 00000000 		.4byte	lado1
 15162 09a8 1C       		.uleb128 0x1c
 15163 09a9 B0050000 		.4byte	.LASF111
 15164 09ad 05       		.byte	0x5
 15165 09ae 64       		.byte	0x64
 15166 09af E4000000 		.4byte	0xe4
 15167 09b3 05       		.uleb128 0x5
 15168 09b4 03       		.byte	0x3
 15169 09b5 00000000 		.4byte	lado2
 15170 09b9 06       		.uleb128 0x6
 15171 09ba 81000000 		.4byte	0x81
 15172 09be C9090000 		.4byte	0x9c9
 15173 09c2 07       		.uleb128 0x7
 15174 09c3 B6000000 		.4byte	0xb6
 15175 09c7 20       		.byte	0x20
 15176 09c8 00       		.byte	0
 15177 09c9 1C       		.uleb128 0x1c
 15178 09ca 60040000 		.4byte	.LASF112
 15179 09ce 05       		.byte	0x5
 15180 09cf 68       		.byte	0x68
 15181 09d0 DA090000 		.4byte	0x9da
 15182 09d4 05       		.uleb128 0x5
 15183 09d5 03       		.byte	0x3
 15184 09d6 00000000 		.4byte	nombre
 15185 09da 05       		.uleb128 0x5
 15186 09db B9090000 		.4byte	0x9b9
 15187 09df 06       		.uleb128 0x6
 15188 09e0 81000000 		.4byte	0x81
 15189 09e4 EF090000 		.4byte	0x9ef
 15190 09e8 07       		.uleb128 0x7
 15191 09e9 B6000000 		.4byte	0xb6
 15192 09ed 0E       		.byte	0xe
 15193 09ee 00       		.byte	0
 15194 09ef 1D       		.uleb128 0x1d
 15195 09f0 6E697400 		.ascii	"nit\000"
 15196 09f4 05       		.byte	0x5
 15197 09f5 69       		.byte	0x69
 15198 09f6 000A0000 		.4byte	0xa00
 15199 09fa 05       		.uleb128 0x5
 15200 09fb 03       		.byte	0x3
 15201 09fc 00000000 		.4byte	nit
 15202 0a00 05       		.uleb128 0x5
 15203 0a01 DF090000 		.4byte	0x9df
 15204 0a05 06       		.uleb128 0x6
 15205 0a06 81000000 		.4byte	0x81
 15206 0a0a 150A0000 		.4byte	0xa15
 15207 0a0e 07       		.uleb128 0x7
 15208 0a0f B6000000 		.4byte	0xb6
 15209 0a13 13       		.byte	0x13
 15210 0a14 00       		.byte	0
 15211 0a15 1C       		.uleb128 0x1c
 15212 0a16 32020000 		.4byte	.LASF113
 15213 0a1a 05       		.byte	0x5
 15214 0a1b 6A       		.byte	0x6a
ARM GAS  C:\Users\RECEPC~1\AppData\Local\Temp\ccIpe7td.s 			page 327


 15215 0a1c 260A0000 		.4byte	0xa26
 15216 0a20 05       		.uleb128 0x5
 15217 0a21 03       		.byte	0x3
 15218 0a22 00000000 		.4byte	telefono
 15219 0a26 05       		.uleb128 0x5
 15220 0a27 050A0000 		.4byte	0xa05
 15221 0a2b 1C       		.uleb128 0x1c
 15222 0a2c 36010000 		.4byte	.LASF114
 15223 0a30 05       		.byte	0x5
 15224 0a31 6B       		.byte	0x6b
 15225 0a32 3C0A0000 		.4byte	0xa3c
 15226 0a36 05       		.uleb128 0x5
 15227 0a37 03       		.byte	0x3
 15228 0a38 00000000 		.4byte	direccion
 15229 0a3c 05       		.uleb128 0x5
 15230 0a3d B9090000 		.4byte	0x9b9
 15231 0a41 06       		.uleb128 0x6
 15232 0a42 81000000 		.4byte	0x81
 15233 0a46 510A0000 		.4byte	0xa51
 15234 0a4a 07       		.uleb128 0x7
 15235 0a4b B6000000 		.4byte	0xb6
 15236 0a4f 1F       		.byte	0x1f
 15237 0a50 00       		.byte	0
 15238 0a51 1C       		.uleb128 0x1c
 15239 0a52 0B010000 		.4byte	.LASF115
 15240 0a56 05       		.byte	0x5
 15241 0a57 6C       		.byte	0x6c
 15242 0a58 620A0000 		.4byte	0xa62
 15243 0a5c 05       		.uleb128 0x5
 15244 0a5d 03       		.byte	0x3
 15245 0a5e 00000000 		.4byte	lema1
 15246 0a62 05       		.uleb128 0x5
 15247 0a63 410A0000 		.4byte	0xa41
 15248 0a67 1C       		.uleb128 0x1c
 15249 0a68 8D010000 		.4byte	.LASF116
 15250 0a6c 05       		.byte	0x5
 15251 0a6d 6D       		.byte	0x6d
 15252 0a6e 780A0000 		.4byte	0xa78
 15253 0a72 05       		.uleb128 0x5
 15254 0a73 03       		.byte	0x3
 15255 0a74 00000000 		.4byte	lema2
 15256 0a78 05       		.uleb128 0x5
 15257 0a79 410A0000 		.4byte	0xa41
 15258 0a7d 06       		.uleb128 0x6
 15259 0a7e 81000000 		.4byte	0x81
 15260 0a82 8D0A0000 		.4byte	0xa8d
 15261 0a86 07       		.uleb128 0x7
 15262 0a87 B6000000 		.4byte	0xb6
 15263 0a8b 01       		.byte	0x1
 15264 0a8c 00       		.byte	0
 15265 0a8d 1C       		.uleb128 0x1c
 15266 0a8e 71040000 		.4byte	.LASF117
 15267 0a92 05       		.byte	0x5
 15268 0a93 6E       		.byte	0x6e
 15269 0a94 9E0A0000 		.4byte	0xa9e
 15270 0a98 05       		.uleb128 0x5
 15271 0a99 03       		.byte	0x3
ARM GAS  C:\Users\RECEPC~1\AppData\Local\Temp\ccIpe7td.s 			page 328


 15272 0a9a 00000000 		.4byte	id_logo
 15273 0a9e 05       		.uleb128 0x5
 15274 0a9f 7D0A0000 		.4byte	0xa7d
 15275 0aa3 1D       		.uleb128 0x1d
 15276 0aa4 6B6D00   		.ascii	"km\000"
 15277 0aa7 05       		.byte	0x5
 15278 0aa8 6F       		.byte	0x6f
 15279 0aa9 B30A0000 		.4byte	0xab3
 15280 0aad 05       		.uleb128 0x5
 15281 0aae 03       		.byte	0x3
 15282 0aaf 00000000 		.4byte	km
 15283 0ab3 05       		.uleb128 0x5
 15284 0ab4 7D0A0000 		.4byte	0xa7d
 15285 0ab8 1C       		.uleb128 0x1c
 15286 0ab9 1C060000 		.4byte	.LASF118
 15287 0abd 05       		.byte	0x5
 15288 0abe 70       		.byte	0x70
 15289 0abf A6080000 		.4byte	0x8a6
 15290 0ac3 05       		.uleb128 0x5
 15291 0ac4 03       		.byte	0x3
 15292 0ac5 00000000 		.4byte	fecha
 15293 0ac9 1C       		.uleb128 0x1c
 15294 0aca F6000000 		.4byte	.LASF119
 15295 0ace 05       		.byte	0x5
 15296 0acf 71       		.byte	0x71
 15297 0ad0 7D0A0000 		.4byte	0xa7d
 15298 0ad4 05       		.uleb128 0x5
 15299 0ad5 03       		.byte	0x3
 15300 0ad6 00000000 		.4byte	hora
 15301 0ada 1C       		.uleb128 0x1c
 15302 0adb 26010000 		.4byte	.LASF120
 15303 0adf 05       		.byte	0x5
 15304 0ae0 87       		.byte	0x87
 15305 0ae1 8A010000 		.4byte	0x18a
 15306 0ae5 05       		.uleb128 0x5
 15307 0ae6 03       		.byte	0x3
 15308 0ae7 00000000 		.4byte	rventa1
 15309 0aeb 1C       		.uleb128 0x1c
 15310 0aec 2E010000 		.4byte	.LASF121
 15311 0af0 05       		.byte	0x5
 15312 0af1 88       		.byte	0x88
 15313 0af2 8A010000 		.4byte	0x18a
 15314 0af6 05       		.uleb128 0x5
 15315 0af7 03       		.byte	0x3
 15316 0af8 00000000 		.4byte	rventa2
 15317 0afc 1C       		.uleb128 0x1c
 15318 0afd E5000000 		.4byte	.LASF122
 15319 0b01 05       		.byte	0x5
 15320 0b02 8D       		.byte	0x8d
 15321 0b03 81000000 		.4byte	0x81
 15322 0b07 05       		.uleb128 0x5
 15323 0b08 03       		.byte	0x3
 15324 0b09 00000000 		.4byte	ok_RF
 15325 0b0d 1C       		.uleb128 0x1c
 15326 0b0e B6050000 		.4byte	.LASF123
 15327 0b12 05       		.byte	0x5
 15328 0b13 8E       		.byte	0x8e
ARM GAS  C:\Users\RECEPC~1\AppData\Local\Temp\ccIpe7td.s 			page 329


 15329 0b14 81000000 		.4byte	0x81
 15330 0b18 05       		.uleb128 0x5
 15331 0b19 03       		.byte	0x3
 15332 0b1a 00000000 		.4byte	ok_datosRF
 15333 0b1e 1C       		.uleb128 0x1c
 15334 0b1f 67020000 		.4byte	.LASF124
 15335 0b23 05       		.byte	0x5
 15336 0b24 8F       		.byte	0x8f
 15337 0b25 F8080000 		.4byte	0x8f8
 15338 0b29 05       		.uleb128 0x5
 15339 0b2a 03       		.byte	0x3
 15340 0b2b 00000000 		.4byte	rf_mod
 15341 0b2f 06       		.uleb128 0x6
 15342 0b30 81000000 		.4byte	0x81
 15343 0b34 3F0B0000 		.4byte	0xb3f
 15344 0b38 07       		.uleb128 0x7
 15345 0b39 B6000000 		.4byte	0xb6
 15346 0b3d 3F       		.byte	0x3f
 15347 0b3e 00       		.byte	0
 15348 0b3f 1C       		.uleb128 0x1c
 15349 0b40 73010000 		.4byte	.LASF125
 15350 0b44 05       		.byte	0x5
 15351 0b45 94       		.byte	0x94
 15352 0b46 2F0B0000 		.4byte	0xb2f
 15353 0b4a 05       		.uleb128 0x5
 15354 0b4b 03       		.byte	0x3
 15355 0b4c 00000000 		.4byte	buffer_i2c
 15356 0b50 1C       		.uleb128 0x1c
 15357 0b51 67040000 		.4byte	.LASF126
 15358 0b55 05       		.byte	0x5
 15359 0b56 99       		.byte	0x99
 15360 0b57 81000000 		.4byte	0x81
 15361 0b5b 05       		.uleb128 0x5
 15362 0b5c 03       		.byte	0x3
 15363 0b5d 00000000 		.4byte	crc_total
 15364 0b61 1C       		.uleb128 0x1c
 15365 0b62 AA020000 		.4byte	.LASF127
 15366 0b66 05       		.byte	0x5
 15367 0b67 9D       		.byte	0x9d
 15368 0b68 7D0A0000 		.4byte	0xa7d
 15369 0b6c 05       		.uleb128 0x5
 15370 0b6d 03       		.byte	0x3
 15371 0b6e 00000000 		.4byte	print1
 15372 0b72 1C       		.uleb128 0x1c
 15373 0b73 B1020000 		.4byte	.LASF128
 15374 0b77 05       		.byte	0x5
 15375 0b78 9E       		.byte	0x9e
 15376 0b79 7D0A0000 		.4byte	0xa7d
 15377 0b7d 05       		.uleb128 0x5
 15378 0b7e 03       		.byte	0x3
 15379 0b7f 00000000 		.4byte	print2
 15380 0b83 1C       		.uleb128 0x1c
 15381 0b84 B8020000 		.4byte	.LASF33
 15382 0b88 05       		.byte	0x5
 15383 0b89 A3       		.byte	0xa3
 15384 0b8a 81000000 		.4byte	0x81
 15385 0b8e 05       		.uleb128 0x5
ARM GAS  C:\Users\RECEPC~1\AppData\Local\Temp\ccIpe7td.s 			page 330


 15386 0b8f 03       		.byte	0x3
 15387 0b90 00000000 		.4byte	tipo_venta
 15388 0b94 06       		.uleb128 0x6
 15389 0b95 81000000 		.4byte	0x81
 15390 0b99 A40B0000 		.4byte	0xba4
 15391 0b9d 07       		.uleb128 0x7
 15392 0b9e B6000000 		.4byte	0xb6
 15393 0ba2 19       		.byte	0x19
 15394 0ba3 00       		.byte	0
 15395 0ba4 1C       		.uleb128 0x1c
 15396 0ba5 EB010000 		.4byte	.LASF129
 15397 0ba9 01       		.byte	0x1
 15398 0baa 35       		.byte	0x35
 15399 0bab 940B0000 		.4byte	0xb94
 15400 0baf 05       		.uleb128 0x5
 15401 0bb0 03       		.byte	0x3
 15402 0bb1 00000000 		.4byte	letras
 15403 0bb5 1C       		.uleb128 0x1c
 15404 0bb6 CD050000 		.4byte	.LASF130
 15405 0bba 01       		.byte	0x1
 15406 0bbb 36       		.byte	0x36
 15407 0bbc 79020000 		.4byte	0x279
 15408 0bc0 05       		.uleb128 0x5
 15409 0bc1 03       		.byte	0x3
 15410 0bc2 00000000 		.4byte	clave_config
 15411 0bc6 06       		.uleb128 0x6
 15412 0bc7 81000000 		.4byte	0x81
 15413 0bcb D60B0000 		.4byte	0xbd6
 15414 0bcf 07       		.uleb128 0x7
 15415 0bd0 B6000000 		.4byte	0xb6
 15416 0bd4 11       		.byte	0x11
 15417 0bd5 00       		.byte	0
 15418 0bd6 1C       		.uleb128 0x1c
 15419 0bd7 D9000000 		.4byte	.LASF131
 15420 0bdb 01       		.byte	0x1
 15421 0bdc 37       		.byte	0x37
 15422 0bdd C60B0000 		.4byte	0xbc6
 15423 0be1 05       		.uleb128 0x5
 15424 0be2 03       		.byte	0x3
 15425 0be3 00000000 		.4byte	test
 15426 0be7 1C       		.uleb128 0x1c
 15427 0be8 A3000000 		.4byte	.LASF132
 15428 0bec 01       		.byte	0x1
 15429 0bed 38       		.byte	0x38
 15430 0bee 8C000000 		.4byte	0x8c
 15431 0bf2 05       		.uleb128 0x5
 15432 0bf3 03       		.byte	0x3
 15433 0bf4 00000000 		.4byte	num_decimal2
 15434 0bf8 1C       		.uleb128 0x1c
 15435 0bf9 24020000 		.4byte	.LASF133
 15436 0bfd 01       		.byte	0x1
 15437 0bfe 3C       		.byte	0x3c
 15438 0bff 99020000 		.4byte	0x299
 15439 0c03 05       		.uleb128 0x5
 15440 0c04 03       		.byte	0x3
 15441 0c05 00000000 		.4byte	idaux
 15442 0c09 1C       		.uleb128 0x1c
ARM GAS  C:\Users\RECEPC~1\AppData\Local\Temp\ccIpe7td.s 			page 331


 15443 0c0a 1B020000 		.4byte	.LASF134
 15444 0c0e 01       		.byte	0x1
 15445 0c0f 3D       		.byte	0x3d
 15446 0c10 81000000 		.4byte	0x81
 15447 0c14 05       		.uleb128 0x5
 15448 0c15 03       		.byte	0x3
 15449 0c16 00000000 		.4byte	state_rf
 15450 0c1a 1C       		.uleb128 0x1c
 15451 0c1b 78050000 		.4byte	.LASF135
 15452 0c1f 01       		.byte	0x1
 15453 0c20 3E       		.byte	0x3e
 15454 0c21 8C000000 		.4byte	0x8c
 15455 0c25 05       		.uleb128 0x5
 15456 0c26 03       		.byte	0x3
 15457 0c27 00000000 		.4byte	timeout_autorizacion
 15458 0c2b 1C       		.uleb128 0x1c
 15459 0c2c 48000000 		.4byte	.LASF136
 15460 0c30 01       		.byte	0x1
 15461 0c31 3F       		.byte	0x3f
 15462 0c32 81000000 		.4byte	0x81
 15463 0c36 05       		.uleb128 0x5
 15464 0c37 03       		.byte	0x3
 15465 0c38 00000000 		.4byte	estado_tanqueando
 15466 0c3c 1C       		.uleb128 0x1c
 15467 0c3d 74060000 		.4byte	.LASF137
 15468 0c41 01       		.byte	0x1
 15469 0c42 40       		.byte	0x40
 15470 0c43 81000000 		.4byte	0x81
 15471 0c47 05       		.uleb128 0x5
 15472 0c48 03       		.byte	0x3
 15473 0c49 00000000 		.4byte	consulta_sistema
 15474 0c4d 1C       		.uleb128 0x1c
 15475 0c4e C1050000 		.4byte	.LASF138
 15476 0c52 01       		.byte	0x1
 15477 0c53 41       		.byte	0x41
 15478 0c54 CD000000 		.4byte	0xcd
 15479 0c58 05       		.uleb128 0x5
 15480 0c59 03       		.byte	0x3
 15481 0c5a 00000000 		.4byte	clave_local
 15482 0c5e 1C       		.uleb128 0x1c
 15483 0c5f 11010000 		.4byte	.LASF139
 15484 0c63 01       		.byte	0x1
 15485 0c64 42       		.byte	0x42
 15486 0c65 81000000 		.4byte	0x81
 15487 0c69 05       		.uleb128 0x5
 15488 0c6a 03       		.byte	0x3
 15489 0c6b 00000000 		.4byte	v_digitos_1
 15490 0c6f 1C       		.uleb128 0x1c
 15491 0c70 EB000000 		.4byte	.LASF140
 15492 0c74 01       		.byte	0x1
 15493 0c75 43       		.byte	0x43
 15494 0c76 81000000 		.4byte	0x81
 15495 0c7a 05       		.uleb128 0x5
 15496 0c7b 03       		.byte	0x3
 15497 0c7c 00000000 		.4byte	ppuinicial
 15498 0c80 1C       		.uleb128 0x1c
 15499 0c81 0E060000 		.4byte	.LASF141
ARM GAS  C:\Users\RECEPC~1\AppData\Local\Temp\ccIpe7td.s 			page 332


 15500 0c85 01       		.byte	0x1
 15501 0c86 44       		.byte	0x44
 15502 0c87 81000000 		.4byte	0x81
 15503 0c8b 05       		.uleb128 0x5
 15504 0c8c 03       		.byte	0x3
 15505 0c8d 00000000 		.4byte	Producto
 15506 0c91 1C       		.uleb128 0x1c
 15507 0c92 24040000 		.4byte	.LASF142
 15508 0c96 01       		.byte	0x1
 15509 0c97 45       		.byte	0x45
 15510 0c98 CD000000 		.4byte	0xcd
 15511 0c9c 05       		.uleb128 0x5
 15512 0c9d 03       		.byte	0x3
 15513 0c9e 00000000 		.4byte	Productos
 15514 0ca2 1C       		.uleb128 0x1c
 15515 0ca3 C7040000 		.4byte	.LASF143
 15516 0ca7 01       		.byte	0x1
 15517 0ca8 46       		.byte	0x46
 15518 0ca9 81000000 		.4byte	0x81
 15519 0cad 05       		.uleb128 0x5
 15520 0cae 03       		.byte	0x3
 15521 0caf 00000000 		.4byte	producto1
 15522 0cb3 1C       		.uleb128 0x1c
 15523 0cb4 D1040000 		.4byte	.LASF144
 15524 0cb8 01       		.byte	0x1
 15525 0cb9 46       		.byte	0x46
 15526 0cba 81000000 		.4byte	0x81
 15527 0cbe 05       		.uleb128 0x5
 15528 0cbf 03       		.byte	0x3
 15529 0cc0 00000000 		.4byte	producto2
 15530 0cc4 1C       		.uleb128 0x1c
 15531 0cc5 DB040000 		.4byte	.LASF145
 15532 0cc9 01       		.byte	0x1
 15533 0cca 46       		.byte	0x46
 15534 0ccb 81000000 		.4byte	0x81
 15535 0ccf 05       		.uleb128 0x5
 15536 0cd0 03       		.byte	0x3
 15537 0cd1 00000000 		.4byte	producto3
 15538 0cd5 1C       		.uleb128 0x1c
 15539 0cd6 E5040000 		.4byte	.LASF146
 15540 0cda 01       		.byte	0x1
 15541 0cdb 46       		.byte	0x46
 15542 0cdc 81000000 		.4byte	0x81
 15543 0ce0 05       		.uleb128 0x5
 15544 0ce1 03       		.byte	0x3
 15545 0ce2 00000000 		.4byte	producto4
 15546 0ce6 1C       		.uleb128 0x1c
 15547 0ce7 35050000 		.4byte	.LASF147
 15548 0ceb 01       		.byte	0x1
 15549 0cec 47       		.byte	0x47
 15550 0ced 81000000 		.4byte	0x81
 15551 0cf1 05       		.uleb128 0x5
 15552 0cf2 03       		.byte	0x3
 15553 0cf3 00000000 		.4byte	status1LP
 15554 0cf7 1C       		.uleb128 0x1c
 15555 0cf8 F9030000 		.4byte	.LASF148
 15556 0cfc 01       		.byte	0x1
ARM GAS  C:\Users\RECEPC~1\AppData\Local\Temp\ccIpe7td.s 			page 333


 15557 0cfd 47       		.byte	0x47
 15558 0cfe 81000000 		.4byte	0x81
 15559 0d02 05       		.uleb128 0x5
 15560 0d03 03       		.byte	0x3
 15561 0d04 00000000 		.4byte	status2LP
 15562 0d08 1C       		.uleb128 0x1c
 15563 0d09 6A060000 		.4byte	.LASF149
 15564 0d0d 01       		.byte	0x1
 15565 0d0e 47       		.byte	0x47
 15566 0d0f 81000000 		.4byte	0x81
 15567 0d13 05       		.uleb128 0x5
 15568 0d14 03       		.byte	0x3
 15569 0d15 00000000 		.4byte	status1st
 15570 0d19 1C       		.uleb128 0x1c
 15571 0d1a 2B050000 		.4byte	.LASF150
 15572 0d1e 01       		.byte	0x1
 15573 0d1f 47       		.byte	0x47
 15574 0d20 81000000 		.4byte	0x81
 15575 0d24 05       		.uleb128 0x5
 15576 0d25 03       		.byte	0x3
 15577 0d26 00000000 		.4byte	status2st
 15578 0d2a 00       		.byte	0
 15579              		.section	.debug_abbrev,"",%progbits
 15580              	.Ldebug_abbrev0:
 15581 0000 01       		.uleb128 0x1
 15582 0001 11       		.uleb128 0x11
 15583 0002 01       		.byte	0x1
 15584 0003 25       		.uleb128 0x25
 15585 0004 0E       		.uleb128 0xe
 15586 0005 13       		.uleb128 0x13
 15587 0006 0B       		.uleb128 0xb
 15588 0007 03       		.uleb128 0x3
 15589 0008 0E       		.uleb128 0xe
 15590 0009 1B       		.uleb128 0x1b
 15591 000a 0E       		.uleb128 0xe
 15592 000b 55       		.uleb128 0x55
 15593 000c 17       		.uleb128 0x17
 15594 000d 11       		.uleb128 0x11
 15595 000e 01       		.uleb128 0x1
 15596 000f 10       		.uleb128 0x10
 15597 0010 17       		.uleb128 0x17
 15598 0011 00       		.byte	0
 15599 0012 00       		.byte	0
 15600 0013 02       		.uleb128 0x2
 15601 0014 24       		.uleb128 0x24
 15602 0015 00       		.byte	0
 15603 0016 0B       		.uleb128 0xb
 15604 0017 0B       		.uleb128 0xb
 15605 0018 3E       		.uleb128 0x3e
 15606 0019 0B       		.uleb128 0xb
 15607 001a 03       		.uleb128 0x3
 15608 001b 0E       		.uleb128 0xe
 15609 001c 00       		.byte	0
 15610 001d 00       		.byte	0
 15611 001e 03       		.uleb128 0x3
 15612 001f 16       		.uleb128 0x16
 15613 0020 00       		.byte	0
ARM GAS  C:\Users\RECEPC~1\AppData\Local\Temp\ccIpe7td.s 			page 334


 15614 0021 03       		.uleb128 0x3
 15615 0022 0E       		.uleb128 0xe
 15616 0023 3A       		.uleb128 0x3a
 15617 0024 0B       		.uleb128 0xb
 15618 0025 3B       		.uleb128 0x3b
 15619 0026 0B       		.uleb128 0xb
 15620 0027 49       		.uleb128 0x49
 15621 0028 13       		.uleb128 0x13
 15622 0029 00       		.byte	0
 15623 002a 00       		.byte	0
 15624 002b 04       		.uleb128 0x4
 15625 002c 24       		.uleb128 0x24
 15626 002d 00       		.byte	0
 15627 002e 0B       		.uleb128 0xb
 15628 002f 0B       		.uleb128 0xb
 15629 0030 3E       		.uleb128 0x3e
 15630 0031 0B       		.uleb128 0xb
 15631 0032 03       		.uleb128 0x3
 15632 0033 08       		.uleb128 0x8
 15633 0034 00       		.byte	0
 15634 0035 00       		.byte	0
 15635 0036 05       		.uleb128 0x5
 15636 0037 35       		.uleb128 0x35
 15637 0038 00       		.byte	0
 15638 0039 49       		.uleb128 0x49
 15639 003a 13       		.uleb128 0x13
 15640 003b 00       		.byte	0
 15641 003c 00       		.byte	0
 15642 003d 06       		.uleb128 0x6
 15643 003e 01       		.uleb128 0x1
 15644 003f 01       		.byte	0x1
 15645 0040 49       		.uleb128 0x49
 15646 0041 13       		.uleb128 0x13
 15647 0042 01       		.uleb128 0x1
 15648 0043 13       		.uleb128 0x13
 15649 0044 00       		.byte	0
 15650 0045 00       		.byte	0
 15651 0046 07       		.uleb128 0x7
 15652 0047 21       		.uleb128 0x21
 15653 0048 00       		.byte	0
 15654 0049 49       		.uleb128 0x49
 15655 004a 13       		.uleb128 0x13
 15656 004b 2F       		.uleb128 0x2f
 15657 004c 0B       		.uleb128 0xb
 15658 004d 00       		.byte	0
 15659 004e 00       		.byte	0
 15660 004f 08       		.uleb128 0x8
 15661 0050 13       		.uleb128 0x13
 15662 0051 01       		.byte	0x1
 15663 0052 03       		.uleb128 0x3
 15664 0053 0E       		.uleb128 0xe
 15665 0054 0B       		.uleb128 0xb
 15666 0055 0B       		.uleb128 0xb
 15667 0056 3A       		.uleb128 0x3a
 15668 0057 0B       		.uleb128 0xb
 15669 0058 3B       		.uleb128 0x3b
 15670 0059 0B       		.uleb128 0xb
ARM GAS  C:\Users\RECEPC~1\AppData\Local\Temp\ccIpe7td.s 			page 335


 15671 005a 01       		.uleb128 0x1
 15672 005b 13       		.uleb128 0x13
 15673 005c 00       		.byte	0
 15674 005d 00       		.byte	0
 15675 005e 09       		.uleb128 0x9
 15676 005f 0D       		.uleb128 0xd
 15677 0060 00       		.byte	0
 15678 0061 03       		.uleb128 0x3
 15679 0062 08       		.uleb128 0x8
 15680 0063 3A       		.uleb128 0x3a
 15681 0064 0B       		.uleb128 0xb
 15682 0065 3B       		.uleb128 0x3b
 15683 0066 0B       		.uleb128 0xb
 15684 0067 49       		.uleb128 0x49
 15685 0068 13       		.uleb128 0x13
 15686 0069 38       		.uleb128 0x38
 15687 006a 0B       		.uleb128 0xb
 15688 006b 00       		.byte	0
 15689 006c 00       		.byte	0
 15690 006d 0A       		.uleb128 0xa
 15691 006e 0D       		.uleb128 0xd
 15692 006f 00       		.byte	0
 15693 0070 03       		.uleb128 0x3
 15694 0071 0E       		.uleb128 0xe
 15695 0072 3A       		.uleb128 0x3a
 15696 0073 0B       		.uleb128 0xb
 15697 0074 3B       		.uleb128 0x3b
 15698 0075 0B       		.uleb128 0xb
 15699 0076 49       		.uleb128 0x49
 15700 0077 13       		.uleb128 0x13
 15701 0078 38       		.uleb128 0x38
 15702 0079 0B       		.uleb128 0xb
 15703 007a 00       		.byte	0
 15704 007b 00       		.byte	0
 15705 007c 0B       		.uleb128 0xb
 15706 007d 2E       		.uleb128 0x2e
 15707 007e 01       		.byte	0x1
 15708 007f 3F       		.uleb128 0x3f
 15709 0080 19       		.uleb128 0x19
 15710 0081 03       		.uleb128 0x3
 15711 0082 0E       		.uleb128 0xe
 15712 0083 3A       		.uleb128 0x3a
 15713 0084 0B       		.uleb128 0xb
 15714 0085 3B       		.uleb128 0x3b
 15715 0086 0B       		.uleb128 0xb
 15716 0087 27       		.uleb128 0x27
 15717 0088 19       		.uleb128 0x19
 15718 0089 11       		.uleb128 0x11
 15719 008a 01       		.uleb128 0x1
 15720 008b 12       		.uleb128 0x12
 15721 008c 06       		.uleb128 0x6
 15722 008d 40       		.uleb128 0x40
 15723 008e 18       		.uleb128 0x18
 15724 008f 9642     		.uleb128 0x2116
 15725 0091 19       		.uleb128 0x19
 15726 0092 01       		.uleb128 0x1
 15727 0093 13       		.uleb128 0x13
ARM GAS  C:\Users\RECEPC~1\AppData\Local\Temp\ccIpe7td.s 			page 336


 15728 0094 00       		.byte	0
 15729 0095 00       		.byte	0
 15730 0096 0C       		.uleb128 0xc
 15731 0097 34       		.uleb128 0x34
 15732 0098 00       		.byte	0
 15733 0099 03       		.uleb128 0x3
 15734 009a 08       		.uleb128 0x8
 15735 009b 3A       		.uleb128 0x3a
 15736 009c 0B       		.uleb128 0xb
 15737 009d 3B       		.uleb128 0x3b
 15738 009e 0B       		.uleb128 0xb
 15739 009f 49       		.uleb128 0x49
 15740 00a0 13       		.uleb128 0x13
 15741 00a1 02       		.uleb128 0x2
 15742 00a2 18       		.uleb128 0x18
 15743 00a3 00       		.byte	0
 15744 00a4 00       		.byte	0
 15745 00a5 0D       		.uleb128 0xd
 15746 00a6 2E       		.uleb128 0x2e
 15747 00a7 01       		.byte	0x1
 15748 00a8 3F       		.uleb128 0x3f
 15749 00a9 19       		.uleb128 0x19
 15750 00aa 03       		.uleb128 0x3
 15751 00ab 0E       		.uleb128 0xe
 15752 00ac 3A       		.uleb128 0x3a
 15753 00ad 0B       		.uleb128 0xb
 15754 00ae 3B       		.uleb128 0x3b
 15755 00af 0B       		.uleb128 0xb
 15756 00b0 27       		.uleb128 0x27
 15757 00b1 19       		.uleb128 0x19
 15758 00b2 49       		.uleb128 0x49
 15759 00b3 13       		.uleb128 0x13
 15760 00b4 11       		.uleb128 0x11
 15761 00b5 01       		.uleb128 0x1
 15762 00b6 12       		.uleb128 0x12
 15763 00b7 06       		.uleb128 0x6
 15764 00b8 40       		.uleb128 0x40
 15765 00b9 18       		.uleb128 0x18
 15766 00ba 9642     		.uleb128 0x2116
 15767 00bc 19       		.uleb128 0x19
 15768 00bd 01       		.uleb128 0x1
 15769 00be 13       		.uleb128 0x13
 15770 00bf 00       		.byte	0
 15771 00c0 00       		.byte	0
 15772 00c1 0E       		.uleb128 0xe
 15773 00c2 05       		.uleb128 0x5
 15774 00c3 00       		.byte	0
 15775 00c4 03       		.uleb128 0x3
 15776 00c5 0E       		.uleb128 0xe
 15777 00c6 3A       		.uleb128 0x3a
 15778 00c7 0B       		.uleb128 0xb
 15779 00c8 3B       		.uleb128 0x3b
 15780 00c9 0B       		.uleb128 0xb
 15781 00ca 49       		.uleb128 0x49
 15782 00cb 13       		.uleb128 0x13
 15783 00cc 02       		.uleb128 0x2
 15784 00cd 18       		.uleb128 0x18
ARM GAS  C:\Users\RECEPC~1\AppData\Local\Temp\ccIpe7td.s 			page 337


 15785 00ce 00       		.byte	0
 15786 00cf 00       		.byte	0
 15787 00d0 0F       		.uleb128 0xf
 15788 00d1 34       		.uleb128 0x34
 15789 00d2 00       		.byte	0
 15790 00d3 03       		.uleb128 0x3
 15791 00d4 0E       		.uleb128 0xe
 15792 00d5 3A       		.uleb128 0x3a
 15793 00d6 0B       		.uleb128 0xb
 15794 00d7 3B       		.uleb128 0x3b
 15795 00d8 0B       		.uleb128 0xb
 15796 00d9 49       		.uleb128 0x49
 15797 00da 13       		.uleb128 0x13
 15798 00db 02       		.uleb128 0x2
 15799 00dc 18       		.uleb128 0x18
 15800 00dd 00       		.byte	0
 15801 00de 00       		.byte	0
 15802 00df 10       		.uleb128 0x10
 15803 00e0 0F       		.uleb128 0xf
 15804 00e1 00       		.byte	0
 15805 00e2 0B       		.uleb128 0xb
 15806 00e3 0B       		.uleb128 0xb
 15807 00e4 49       		.uleb128 0x49
 15808 00e5 13       		.uleb128 0x13
 15809 00e6 00       		.byte	0
 15810 00e7 00       		.byte	0
 15811 00e8 11       		.uleb128 0x11
 15812 00e9 05       		.uleb128 0x5
 15813 00ea 00       		.byte	0
 15814 00eb 03       		.uleb128 0x3
 15815 00ec 08       		.uleb128 0x8
 15816 00ed 3A       		.uleb128 0x3a
 15817 00ee 0B       		.uleb128 0xb
 15818 00ef 3B       		.uleb128 0x3b
 15819 00f0 0B       		.uleb128 0xb
 15820 00f1 49       		.uleb128 0x49
 15821 00f2 13       		.uleb128 0x13
 15822 00f3 02       		.uleb128 0x2
 15823 00f4 18       		.uleb128 0x18
 15824 00f5 00       		.byte	0
 15825 00f6 00       		.byte	0
 15826 00f7 12       		.uleb128 0x12
 15827 00f8 2E       		.uleb128 0x2e
 15828 00f9 01       		.byte	0x1
 15829 00fa 3F       		.uleb128 0x3f
 15830 00fb 19       		.uleb128 0x19
 15831 00fc 03       		.uleb128 0x3
 15832 00fd 0E       		.uleb128 0xe
 15833 00fe 3A       		.uleb128 0x3a
 15834 00ff 0B       		.uleb128 0xb
 15835 0100 3B       		.uleb128 0x3b
 15836 0101 05       		.uleb128 0x5
 15837 0102 27       		.uleb128 0x27
 15838 0103 19       		.uleb128 0x19
 15839 0104 11       		.uleb128 0x11
 15840 0105 01       		.uleb128 0x1
 15841 0106 12       		.uleb128 0x12
ARM GAS  C:\Users\RECEPC~1\AppData\Local\Temp\ccIpe7td.s 			page 338


 15842 0107 06       		.uleb128 0x6
 15843 0108 40       		.uleb128 0x40
 15844 0109 18       		.uleb128 0x18
 15845 010a 9642     		.uleb128 0x2116
 15846 010c 19       		.uleb128 0x19
 15847 010d 01       		.uleb128 0x1
 15848 010e 13       		.uleb128 0x13
 15849 010f 00       		.byte	0
 15850 0110 00       		.byte	0
 15851 0111 13       		.uleb128 0x13
 15852 0112 34       		.uleb128 0x34
 15853 0113 00       		.byte	0
 15854 0114 03       		.uleb128 0x3
 15855 0115 0E       		.uleb128 0xe
 15856 0116 3A       		.uleb128 0x3a
 15857 0117 0B       		.uleb128 0xb
 15858 0118 3B       		.uleb128 0x3b
 15859 0119 05       		.uleb128 0x5
 15860 011a 49       		.uleb128 0x49
 15861 011b 13       		.uleb128 0x13
 15862 011c 02       		.uleb128 0x2
 15863 011d 18       		.uleb128 0x18
 15864 011e 00       		.byte	0
 15865 011f 00       		.byte	0
 15866 0120 14       		.uleb128 0x14
 15867 0121 34       		.uleb128 0x34
 15868 0122 00       		.byte	0
 15869 0123 03       		.uleb128 0x3
 15870 0124 08       		.uleb128 0x8
 15871 0125 3A       		.uleb128 0x3a
 15872 0126 0B       		.uleb128 0xb
 15873 0127 3B       		.uleb128 0x3b
 15874 0128 05       		.uleb128 0x5
 15875 0129 49       		.uleb128 0x49
 15876 012a 13       		.uleb128 0x13
 15877 012b 02       		.uleb128 0x2
 15878 012c 18       		.uleb128 0x18
 15879 012d 00       		.byte	0
 15880 012e 00       		.byte	0
 15881 012f 15       		.uleb128 0x15
 15882 0130 2E       		.uleb128 0x2e
 15883 0131 00       		.byte	0
 15884 0132 3F       		.uleb128 0x3f
 15885 0133 19       		.uleb128 0x19
 15886 0134 03       		.uleb128 0x3
 15887 0135 0E       		.uleb128 0xe
 15888 0136 3A       		.uleb128 0x3a
 15889 0137 0B       		.uleb128 0xb
 15890 0138 3B       		.uleb128 0x3b
 15891 0139 05       		.uleb128 0x5
 15892 013a 27       		.uleb128 0x27
 15893 013b 19       		.uleb128 0x19
 15894 013c 11       		.uleb128 0x11
 15895 013d 01       		.uleb128 0x1
 15896 013e 12       		.uleb128 0x12
 15897 013f 06       		.uleb128 0x6
 15898 0140 40       		.uleb128 0x40
ARM GAS  C:\Users\RECEPC~1\AppData\Local\Temp\ccIpe7td.s 			page 339


 15899 0141 18       		.uleb128 0x18
 15900 0142 9742     		.uleb128 0x2117
 15901 0144 19       		.uleb128 0x19
 15902 0145 00       		.byte	0
 15903 0146 00       		.byte	0
 15904 0147 16       		.uleb128 0x16
 15905 0148 34       		.uleb128 0x34
 15906 0149 00       		.byte	0
 15907 014a 03       		.uleb128 0x3
 15908 014b 0E       		.uleb128 0xe
 15909 014c 3A       		.uleb128 0x3a
 15910 014d 0B       		.uleb128 0xb
 15911 014e 3B       		.uleb128 0x3b
 15912 014f 05       		.uleb128 0x5
 15913 0150 49       		.uleb128 0x49
 15914 0151 13       		.uleb128 0x13
 15915 0152 00       		.byte	0
 15916 0153 00       		.byte	0
 15917 0154 17       		.uleb128 0x17
 15918 0155 2E       		.uleb128 0x2e
 15919 0156 00       		.byte	0
 15920 0157 3F       		.uleb128 0x3f
 15921 0158 19       		.uleb128 0x19
 15922 0159 03       		.uleb128 0x3
 15923 015a 0E       		.uleb128 0xe
 15924 015b 3A       		.uleb128 0x3a
 15925 015c 0B       		.uleb128 0xb
 15926 015d 3B       		.uleb128 0x3b
 15927 015e 05       		.uleb128 0x5
 15928 015f 27       		.uleb128 0x27
 15929 0160 19       		.uleb128 0x19
 15930 0161 11       		.uleb128 0x11
 15931 0162 01       		.uleb128 0x1
 15932 0163 12       		.uleb128 0x12
 15933 0164 06       		.uleb128 0x6
 15934 0165 40       		.uleb128 0x40
 15935 0166 18       		.uleb128 0x18
 15936 0167 9642     		.uleb128 0x2116
 15937 0169 19       		.uleb128 0x19
 15938 016a 00       		.byte	0
 15939 016b 00       		.byte	0
 15940 016c 18       		.uleb128 0x18
 15941 016d 34       		.uleb128 0x34
 15942 016e 00       		.byte	0
 15943 016f 03       		.uleb128 0x3
 15944 0170 08       		.uleb128 0x8
 15945 0171 3A       		.uleb128 0x3a
 15946 0172 0B       		.uleb128 0xb
 15947 0173 3B       		.uleb128 0x3b
 15948 0174 05       		.uleb128 0x5
 15949 0175 49       		.uleb128 0x49
 15950 0176 13       		.uleb128 0x13
 15951 0177 00       		.byte	0
 15952 0178 00       		.byte	0
 15953 0179 19       		.uleb128 0x19
 15954 017a 2E       		.uleb128 0x2e
 15955 017b 00       		.byte	0
ARM GAS  C:\Users\RECEPC~1\AppData\Local\Temp\ccIpe7td.s 			page 340


 15956 017c 3F       		.uleb128 0x3f
 15957 017d 19       		.uleb128 0x19
 15958 017e 03       		.uleb128 0x3
 15959 017f 0E       		.uleb128 0xe
 15960 0180 3A       		.uleb128 0x3a
 15961 0181 0B       		.uleb128 0xb
 15962 0182 3B       		.uleb128 0x3b
 15963 0183 05       		.uleb128 0x5
 15964 0184 49       		.uleb128 0x49
 15965 0185 13       		.uleb128 0x13
 15966 0186 11       		.uleb128 0x11
 15967 0187 01       		.uleb128 0x1
 15968 0188 12       		.uleb128 0x12
 15969 0189 06       		.uleb128 0x6
 15970 018a 40       		.uleb128 0x40
 15971 018b 18       		.uleb128 0x18
 15972 018c 9642     		.uleb128 0x2116
 15973 018e 19       		.uleb128 0x19
 15974 018f 00       		.byte	0
 15975 0190 00       		.byte	0
 15976 0191 1A       		.uleb128 0x1a
 15977 0192 34       		.uleb128 0x34
 15978 0193 00       		.byte	0
 15979 0194 03       		.uleb128 0x3
 15980 0195 0E       		.uleb128 0xe
 15981 0196 3A       		.uleb128 0x3a
 15982 0197 0B       		.uleb128 0xb
 15983 0198 3B       		.uleb128 0x3b
 15984 0199 05       		.uleb128 0x5
 15985 019a 49       		.uleb128 0x49
 15986 019b 13       		.uleb128 0x13
 15987 019c 3F       		.uleb128 0x3f
 15988 019d 19       		.uleb128 0x19
 15989 019e 3C       		.uleb128 0x3c
 15990 019f 19       		.uleb128 0x19
 15991 01a0 00       		.byte	0
 15992 01a1 00       		.byte	0
 15993 01a2 1B       		.uleb128 0x1b
 15994 01a3 21       		.uleb128 0x21
 15995 01a4 00       		.byte	0
 15996 01a5 49       		.uleb128 0x49
 15997 01a6 13       		.uleb128 0x13
 15998 01a7 2F       		.uleb128 0x2f
 15999 01a8 05       		.uleb128 0x5
 16000 01a9 00       		.byte	0
 16001 01aa 00       		.byte	0
 16002 01ab 1C       		.uleb128 0x1c
 16003 01ac 34       		.uleb128 0x34
 16004 01ad 00       		.byte	0
 16005 01ae 03       		.uleb128 0x3
 16006 01af 0E       		.uleb128 0xe
 16007 01b0 3A       		.uleb128 0x3a
 16008 01b1 0B       		.uleb128 0xb
 16009 01b2 3B       		.uleb128 0x3b
 16010 01b3 0B       		.uleb128 0xb
 16011 01b4 49       		.uleb128 0x49
 16012 01b5 13       		.uleb128 0x13
ARM GAS  C:\Users\RECEPC~1\AppData\Local\Temp\ccIpe7td.s 			page 341


 16013 01b6 3F       		.uleb128 0x3f
 16014 01b7 19       		.uleb128 0x19
 16015 01b8 02       		.uleb128 0x2
 16016 01b9 18       		.uleb128 0x18
 16017 01ba 00       		.byte	0
 16018 01bb 00       		.byte	0
 16019 01bc 1D       		.uleb128 0x1d
 16020 01bd 34       		.uleb128 0x34
 16021 01be 00       		.byte	0
 16022 01bf 03       		.uleb128 0x3
 16023 01c0 08       		.uleb128 0x8
 16024 01c1 3A       		.uleb128 0x3a
 16025 01c2 0B       		.uleb128 0xb
 16026 01c3 3B       		.uleb128 0x3b
 16027 01c4 0B       		.uleb128 0xb
 16028 01c5 49       		.uleb128 0x49
 16029 01c6 13       		.uleb128 0x13
 16030 01c7 3F       		.uleb128 0x3f
 16031 01c8 19       		.uleb128 0x19
 16032 01c9 02       		.uleb128 0x2
 16033 01ca 18       		.uleb128 0x18
 16034 01cb 00       		.byte	0
 16035 01cc 00       		.byte	0
 16036 01cd 00       		.byte	0
 16037              		.section	.debug_aranges,"",%progbits
 16038 0000 8C000000 		.4byte	0x8c
 16039 0004 0200     		.2byte	0x2
 16040 0006 00000000 		.4byte	.Ldebug_info0
 16041 000a 04       		.byte	0x4
 16042 000b 00       		.byte	0
 16043 000c 0000     		.2byte	0
 16044 000e 0000     		.2byte	0
 16045 0010 00000000 		.4byte	.LFB63
 16046 0014 D4010000 		.4byte	.LFE63-.LFB63
 16047 0018 00000000 		.4byte	.LFB64
 16048 001c 84000000 		.4byte	.LFE64-.LFB64
 16049 0020 00000000 		.4byte	.LFB65
 16050 0024 80000000 		.4byte	.LFE65-.LFB65
 16051 0028 00000000 		.4byte	.LFB66
 16052 002c 24030000 		.4byte	.LFE66-.LFB66
 16053 0030 00000000 		.4byte	.LFB67
 16054 0034 28050000 		.4byte	.LFE67-.LFB67
 16055 0038 00000000 		.4byte	.LFB68
 16056 003c 2C050000 		.4byte	.LFE68-.LFB68
 16057 0040 00000000 		.4byte	.LFB69
 16058 0044 0C000000 		.4byte	.LFE69-.LFB69
 16059 0048 00000000 		.4byte	.LFB70
 16060 004c 384E0000 		.4byte	.LFE70-.LFB70
 16061 0050 00000000 		.4byte	.LFB71
 16062 0054 0C000000 		.4byte	.LFE71-.LFB71
 16063 0058 00000000 		.4byte	.LFB72
 16064 005c 0C000000 		.4byte	.LFE72-.LFB72
 16065 0060 00000000 		.4byte	.LFB73
 16066 0064 74000000 		.4byte	.LFE73-.LFB73
 16067 0068 00000000 		.4byte	.LFB74
 16068 006c 74000000 		.4byte	.LFE74-.LFB74
 16069 0070 00000000 		.4byte	.LFB75
ARM GAS  C:\Users\RECEPC~1\AppData\Local\Temp\ccIpe7td.s 			page 342


 16070 0074 54000000 		.4byte	.LFE75-.LFB75
 16071 0078 00000000 		.4byte	.LFB76
 16072 007c 38000000 		.4byte	.LFE76-.LFB76
 16073 0080 00000000 		.4byte	.LFB77
 16074 0084 4C000000 		.4byte	.LFE77-.LFB77
 16075 0088 00000000 		.4byte	0
 16076 008c 00000000 		.4byte	0
 16077              		.section	.debug_ranges,"",%progbits
 16078              	.Ldebug_ranges0:
 16079 0000 00000000 		.4byte	.LFB63
 16080 0004 D4010000 		.4byte	.LFE63
 16081 0008 00000000 		.4byte	.LFB64
 16082 000c 84000000 		.4byte	.LFE64
 16083 0010 00000000 		.4byte	.LFB65
 16084 0014 80000000 		.4byte	.LFE65
 16085 0018 00000000 		.4byte	.LFB66
 16086 001c 24030000 		.4byte	.LFE66
 16087 0020 00000000 		.4byte	.LFB67
 16088 0024 28050000 		.4byte	.LFE67
 16089 0028 00000000 		.4byte	.LFB68
 16090 002c 2C050000 		.4byte	.LFE68
 16091 0030 00000000 		.4byte	.LFB69
 16092 0034 0C000000 		.4byte	.LFE69
 16093 0038 00000000 		.4byte	.LFB70
 16094 003c 384E0000 		.4byte	.LFE70
 16095 0040 00000000 		.4byte	.LFB71
 16096 0044 0C000000 		.4byte	.LFE71
 16097 0048 00000000 		.4byte	.LFB72
 16098 004c 0C000000 		.4byte	.LFE72
 16099 0050 00000000 		.4byte	.LFB73
 16100 0054 74000000 		.4byte	.LFE73
 16101 0058 00000000 		.4byte	.LFB74
 16102 005c 74000000 		.4byte	.LFE74
 16103 0060 00000000 		.4byte	.LFB75
 16104 0064 54000000 		.4byte	.LFE75
 16105 0068 00000000 		.4byte	.LFB76
 16106 006c 38000000 		.4byte	.LFE76
 16107 0070 00000000 		.4byte	.LFB77
 16108 0074 4C000000 		.4byte	.LFE77
 16109 0078 00000000 		.4byte	0
 16110 007c 00000000 		.4byte	0
 16111              		.section	.debug_line,"",%progbits
 16112              	.Ldebug_line0:
 16113 0000 62130000 		.section	.debug_str,"MS",%progbits,1
 16113      02006E01 
 16113      00000201 
 16113      FB0E0D00 
 16113      01010101 
 16114              	.LASF35:
 16115 0000 70617373 		.ascii	"password\000"
 16115      776F7264 
 16115      00
 16116              	.LASF48:
 16117 0009 706F6C6C 		.ascii	"polling_rf\000"
 16117      696E675F 
 16117      726600
 16118              	.LASF50:
ARM GAS  C:\Users\RECEPC~1\AppData\Local\Temp\ccIpe7td.s 			page 343


 16119 0014 73746174 		.ascii	"status2\000"
 16119      75733200 
 16120              	.LASF56:
 16121 001c 6E756D5F 		.ascii	"num_decimal\000"
 16121      64656369 
 16121      6D616C00 
 16122              	.LASF97:
 16123 0028 636F756E 		.ascii	"count_protector2\000"
 16123      745F7072 
 16123      6F746563 
 16123      746F7232 
 16123      00
 16124              	.LASF67:
 16125 0039 4C43445F 		.ascii	"LCD_1_rxBuffer\000"
 16125      315F7278 
 16125      42756666 
 16125      657200
 16126              	.LASF136:
 16127 0048 65737461 		.ascii	"estado_tanqueando\000"
 16127      646F5F74 
 16127      616E7175 
 16127      65616E64 
 16127      6F00
 16128              	.LASF153:
 16129 005a 433A5C55 		.ascii	"C:\\Users\\Recepcion\\Documents\\Prueba_GRPFleet\\B"
 16129      73657273 
 16129      5C526563 
 16129      65706369 
 16129      6F6E5C44 
 16130 0088 42422E63 		.ascii	"BB.cydsn\000"
 16130      7964736E 
 16130      00
 16131              	.LASF73:
 16132 0091 69645F63 		.ascii	"id_coma1\000"
 16132      6F6D6131 
 16132      00
 16133              	.LASF76:
 16134 009a 69645F63 		.ascii	"id_coma2\000"
 16134      6F6D6132 
 16134      00
 16135              	.LASF132:
 16136 00a3 6E756D5F 		.ascii	"num_decimal2\000"
 16136      64656369 
 16136      6D616C32 
 16136      00
 16137              	.LASF47:
 16138 00b0 696E6974 		.ascii	"init_surt\000"
 16138      5F737572 
 16138      7400
 16139              	.LASF8:
 16140 00ba 756E7369 		.ascii	"unsigned int\000"
 16140      676E6564 
 16140      20696E74 
 16140      00
 16141              	.LASF109:
 16142 00c7 76657273 		.ascii	"version\000"
 16142      696F6E00 
ARM GAS  C:\Users\RECEPC~1\AppData\Local\Temp\ccIpe7td.s 			page 344


 16143              	.LASF9:
 16144 00cf 5F5F696E 		.ascii	"__int32_t\000"
 16144      7433325F 
 16144      7400
 16145              	.LASF131:
 16146 00d9 74657374 		.ascii	"test\000"
 16146      00
 16147              	.LASF52:
 16148 00de 70726563 		.ascii	"precio\000"
 16148      696F00
 16149              	.LASF122:
 16150 00e5 6F6B5F52 		.ascii	"ok_RF\000"
 16150      4600
 16151              	.LASF140:
 16152 00eb 70707569 		.ascii	"ppuinicial\000"
 16152      6E696369 
 16152      616C00
 16153              	.LASF119:
 16154 00f6 686F7261 		.ascii	"hora\000"
 16154      00
 16155              	.LASF84:
 16156 00fb 7465636C 		.ascii	"teclas1\000"
 16156      61733100 
 16157              	.LASF85:
 16158 0103 7465636C 		.ascii	"teclas2\000"
 16158      61733200 
 16159              	.LASF115:
 16160 010b 6C656D61 		.ascii	"lema1\000"
 16160      3100
 16161              	.LASF139:
 16162 0111 765F6469 		.ascii	"v_digitos_1\000"
 16162      6769746F 
 16162      735F3100 
 16163              	.LASF24:
 16164 011d 706F7369 		.ascii	"posicion\000"
 16164      63696F6E 
 16164      00
 16165              	.LASF120:
 16166 0126 7276656E 		.ascii	"rventa1\000"
 16166      74613100 
 16167              	.LASF121:
 16168 012e 7276656E 		.ascii	"rventa2\000"
 16168      74613200 
 16169              	.LASF114:
 16170 0136 64697265 		.ascii	"direccion\000"
 16170      6363696F 
 16170      6E00
 16171              	.LASF86:
 16172 0140 666C756A 		.ascii	"flujo_LCD1\000"
 16172      6F5F4C43 
 16172      443100
 16173              	.LASF87:
 16174 014b 666C756A 		.ascii	"flujo_LCD2\000"
 16174      6F5F4C43 
 16174      443200
 16175              	.LASF29:
 16176 0156 70726573 		.ascii	"preset\000"
ARM GAS  C:\Users\RECEPC~1\AppData\Local\Temp\ccIpe7td.s 			page 345


 16176      657400
 16177              	.LASF13:
 16178 015d 666C6F61 		.ascii	"float\000"
 16178      7400
 16179              	.LASF96:
 16180 0163 636F756E 		.ascii	"count_protector\000"
 16180      745F7072 
 16180      6F746563 
 16180      746F7200 
 16181              	.LASF125:
 16182 0173 62756666 		.ascii	"buffer_i2c\000"
 16182      65725F69 
 16182      326300
 16183              	.LASF41:
 16184 017e 63686563 		.ascii	"checksum\000"
 16184      6B73756D 
 16184      00
 16185              	.LASF42:
 16186 0187 696E6465 		.ascii	"index\000"
 16186      7800
 16187              	.LASF116:
 16188 018d 6C656D61 		.ascii	"lema2\000"
 16188      3200
 16189              	.LASF93:
 16190 0193 76656E74 		.ascii	"venta_activa2\000"
 16190      615F6163 
 16190      74697661 
 16190      3200
 16191              	.LASF32:
 16192 01a1 696D7072 		.ascii	"imprimir\000"
 16192      696D6972 
 16192      00
 16193              	.LASF7:
 16194 01aa 6C6F6E67 		.ascii	"long long unsigned int\000"
 16194      206C6F6E 
 16194      6720756E 
 16194      7369676E 
 16194      65642069 
 16195              	.LASF110:
 16196 01c1 6C61646F 		.ascii	"lado1\000"
 16196      3100
 16197              	.LASF92:
 16198 01c7 76656E74 		.ascii	"venta_activa\000"
 16198      615F6163 
 16198      74697661 
 16198      00
 16199              	.LASF90:
 16200 01d4 73656C65 		.ascii	"seleccion_pos\000"
 16200      6363696F 
 16200      6E5F706F 
 16200      7300
 16201              	.LASF51:
 16202 01e2 745F7072 		.ascii	"t_preset\000"
 16202      65736574 
 16202      00
 16203              	.LASF129:
 16204 01eb 6C657472 		.ascii	"letras\000"
ARM GAS  C:\Users\RECEPC~1\AppData\Local\Temp\ccIpe7td.s 			page 346


 16204      617300
 16205              	.LASF31:
 16206 01f2 706C6163 		.ascii	"placa\000"
 16206      6100
 16207              	.LASF57:
 16208 01f8 706F6C6C 		.ascii	"polling_surt\000"
 16208      696E675F 
 16208      73757274 
 16208      00
 16209              	.LASF88:
 16210 0205 666C756A 		.ascii	"flujo_pos1\000"
 16210      6F5F706F 
 16210      733100
 16211              	.LASF89:
 16212 0210 666C756A 		.ascii	"flujo_pos2\000"
 16212      6F5F706F 
 16212      733200
 16213              	.LASF134:
 16214 021b 73746174 		.ascii	"state_rf\000"
 16214      655F7266 
 16214      00
 16215              	.LASF133:
 16216 0224 69646175 		.ascii	"idaux\000"
 16216      7800
 16217              	.LASF26:
 16218 022a 766F6C75 		.ascii	"volumen\000"
 16218      6D656E00 
 16219              	.LASF113:
 16220 0232 74656C65 		.ascii	"telefono\000"
 16220      666F6E6F 
 16220      00
 16221              	.LASF74:
 16222 023b 69645F74 		.ascii	"id_teclado1\000"
 16222      65636C61 
 16222      646F3100 
 16223              	.LASF77:
 16224 0247 69645F74 		.ascii	"id_teclado2\000"
 16224      65636C61 
 16224      646F3200 
 16225              	.LASF59:
 16226 0253 706F6C6C 		.ascii	"polling_wd\000"
 16226      696E675F 
 16226      776400
 16227              	.LASF103:
 16228 025e 69645F76 		.ascii	"id_venta\000"
 16228      656E7461 
 16228      00
 16229              	.LASF124:
 16230 0267 72665F6D 		.ascii	"rf_mod\000"
 16230      6F6400
 16231              	.LASF95:
 16232 026e 42756666 		.ascii	"Buffer_LCD2\000"
 16232      65725F4C 
 16232      43443200 
 16233              	.LASF15:
 16234 027a 63686172 		.ascii	"char\000"
 16234      00
ARM GAS  C:\Users\RECEPC~1\AppData\Local\Temp\ccIpe7td.s 			page 347


 16235              	.LASF101:
 16236 027f 626C6F71 		.ascii	"bloqueo_LCD\000"
 16236      75656F5F 
 16236      4C434400 
 16237              	.LASF43:
 16238 028b 7461626C 		.ascii	"table\000"
 16238      6500
 16239              	.LASF21:
 16240 0291 6D616E67 		.ascii	"mangueras\000"
 16240      75657261 
 16240      7300
 16241              	.LASF12:
 16242 029b 75696E74 		.ascii	"uint16\000"
 16242      313600
 16243              	.LASF49:
 16244 02a2 73746174 		.ascii	"status1\000"
 16244      75733100 
 16245              	.LASF127:
 16246 02aa 7072696E 		.ascii	"print1\000"
 16246      743100
 16247              	.LASF128:
 16248 02b1 7072696E 		.ascii	"print2\000"
 16248      743200
 16249              	.LASF33:
 16250 02b8 7469706F 		.ascii	"tipo_venta\000"
 16250      5F76656E 
 16250      746100
 16251              	.LASF30:
 16252 02c3 69645F65 		.ascii	"id_ef\000"
 16252      6600
 16253              	.LASF36:
 16254 02c9 7475726E 		.ascii	"turno\000"
 16254      6F00
 16255              	.LASF39:
 16256 02cf 6461746F 		.ascii	"datos\000"
 16256      7300
 16257              	.LASF19:
 16258 02d5 746F7461 		.ascii	"totales\000"
 16258      6C657300 
 16259              	.LASF98:
 16260 02dd 70617373 		.ascii	"password_lcd\000"
 16260      776F7264 
 16260      5F6C6364 
 16260      00
 16261              	.LASF70:
 16262 02ea 636F756E 		.ascii	"count_teclas1\000"
 16262      745F7465 
 16262      636C6173 
 16262      3100
 16263              	.LASF75:
 16264 02f8 636F756E 		.ascii	"count_teclas2\000"
 16264      745F7465 
 16264      636C6173 
 16264      3200
 16265              	.LASF78:
 16266 0306 706F7378 		.ascii	"posx1\000"
 16266      3100
ARM GAS  C:\Users\RECEPC~1\AppData\Local\Temp\ccIpe7td.s 			page 348


 16267              	.LASF154:
 16268 030c 76657269 		.ascii	"verificar_check\000"
 16268      66696361 
 16268      725F6368 
 16268      65636B00 
 16269              	.LASF6:
 16270 031c 6C6F6E67 		.ascii	"long long int\000"
 16270      206C6F6E 
 16270      6720696E 
 16270      7400
 16271              	.LASF81:
 16272 032a 706F7378 		.ascii	"posx2\000"
 16272      3200
 16273              	.LASF27:
 16274 0330 70726F64 		.ascii	"producto\000"
 16274      7563746F 
 16274      00
 16275              	.LASF54:
 16276 0339 706F6C6C 		.ascii	"polling_LCD1\000"
 16276      696E675F 
 16276      4C434431 
 16276      00
 16277              	.LASF58:
 16278 0346 706F6C6C 		.ascii	"polling_LCD2\000"
 16278      696E675F 
 16278      4C434432 
 16278      00
 16279              	.LASF34:
 16280 0353 63656475 		.ascii	"cedula\000"
 16280      6C6100
 16281              	.LASF151:
 16282 035a 474E5520 		.ascii	"GNU C 4.9.3 20150303 (release) [ARM/embedded-4_9-br"
 16282      4320342E 
 16282      392E3320 
 16282      32303135 
 16282      30333033 
 16283 038d 616E6368 		.ascii	"anch revision 221220] -mcpu=cortex-m3 -mthumb -g -O"
 16283      20726576 
 16283      6973696F 
 16283      6E203232 
 16283      31323230 
 16284 03c0 30202D66 		.ascii	"0 -ffunction-sections -ffat-lto-objects\000"
 16284      66756E63 
 16284      74696F6E 
 16284      2D736563 
 16284      74696F6E 
 16285              	.LASF79:
 16286 03e8 706F7379 		.ascii	"posy1\000"
 16286      3100
 16287              	.LASF82:
 16288 03ee 706F7379 		.ascii	"posy2\000"
 16288      3200
 16289              	.LASF40:
 16290 03f4 73697A65 		.ascii	"size\000"
 16290      00
 16291              	.LASF148:
 16292 03f9 73746174 		.ascii	"status2LP\000"
ARM GAS  C:\Users\RECEPC~1\AppData\Local\Temp\ccIpe7td.s 			page 349


 16292      7573324C 
 16292      5000
 16293              	.LASF23:
 16294 0403 72656369 		.ascii	"recibo\000"
 16294      626F00
 16295              	.LASF25:
 16296 040a 64696E65 		.ascii	"dinero\000"
 16296      726F00
 16297              	.LASF94:
 16298 0411 42756666 		.ascii	"Buffer_LCD1\000"
 16298      65725F4C 
 16298      43443100 
 16299              	.LASF18:
 16300 041d 65737461 		.ascii	"estado\000"
 16300      646F00
 16301              	.LASF142:
 16302 0424 50726F64 		.ascii	"Productos\000"
 16302      7563746F 
 16302      7300
 16303              	.LASF62:
 16304 042e 6D6F646F 		.ascii	"modo_mux\000"
 16304      5F6D7578 
 16304      00
 16305              	.LASF46:
 16306 0437 696D6167 		.ascii	"imagen\000"
 16306      656E00
 16307              	.LASF17:
 16308 043e 6C6F6E67 		.ascii	"long double\000"
 16308      20646F75 
 16308      626C6500 
 16309              	.LASF38:
 16310 044a 70617373 		.ascii	"password_local\000"
 16310      776F7264 
 16310      5F6C6F63 
 16310      616C00
 16311              	.LASF105:
 16312 0459 70707578 		.ascii	"ppux10\000"
 16312      313000
 16313              	.LASF112:
 16314 0460 6E6F6D62 		.ascii	"nombre\000"
 16314      726500
 16315              	.LASF126:
 16316 0467 6372635F 		.ascii	"crc_total\000"
 16316      746F7461 
 16316      6C00
 16317              	.LASF117:
 16318 0471 69645F6C 		.ascii	"id_logo\000"
 16318      6F676F00 
 16319              	.LASF65:
 16320 0479 70726563 		.ascii	"precio_mod\000"
 16320      696F5F6D 
 16320      6F6400
 16321              	.LASF2:
 16322 0484 73686F72 		.ascii	"short int\000"
 16322      7420696E 
 16322      7400
 16323              	.LASF68:
ARM GAS  C:\Users\RECEPC~1\AppData\Local\Temp\ccIpe7td.s 			page 350


 16324 048e 50435F72 		.ascii	"PC_rxBuffer\000"
 16324      78427566 
 16324      66657200 
 16325              	.LASF4:
 16326 049a 6C6F6E67 		.ascii	"long int\000"
 16326      20696E74 
 16326      00
 16327              	.LASF69:
 16328 04a3 49544D5F 		.ascii	"ITM_RxBuffer\000"
 16328      52784275 
 16328      66666572 
 16328      00
 16329              	.LASF22:
 16330 04b0 73757274 		.ascii	"surtidor\000"
 16330      69646F72 
 16330      00
 16331              	.LASF71:
 16332 04b9 636F6D61 		.ascii	"comas1\000"
 16332      733100
 16333              	.LASF72:
 16334 04c0 636F6D61 		.ascii	"comas2\000"
 16334      733200
 16335              	.LASF143:
 16336 04c7 70726F64 		.ascii	"producto1\000"
 16336      7563746F 
 16336      3100
 16337              	.LASF144:
 16338 04d1 70726F64 		.ascii	"producto2\000"
 16338      7563746F 
 16338      3200
 16339              	.LASF145:
 16340 04db 70726F64 		.ascii	"producto3\000"
 16340      7563746F 
 16340      3300
 16341              	.LASF146:
 16342 04e5 70726F64 		.ascii	"producto4\000"
 16342      7563746F 
 16342      3400
 16343              	.LASF60:
 16344 04ef 616E696D 		.ascii	"animacion\000"
 16344      6163696F 
 16344      6E00
 16345              	.LASF106:
 16346 04f9 6E6F6D62 		.ascii	"nombre_pro1\000"
 16346      72655F70 
 16346      726F3100 
 16347              	.LASF108:
 16348 0505 6E6F6D62 		.ascii	"nombre_pro3\000"
 16348      72655F70 
 16348      726F3300 
 16349              	.LASF63:
 16350 0511 696E7365 		.ascii	"insert_ppuInit\000"
 16350      72745F70 
 16350      7075496E 
 16350      697400
 16351              	.LASF61:
 16352 0520 616E696D 		.ascii	"animacion2\000"
ARM GAS  C:\Users\RECEPC~1\AppData\Local\Temp\ccIpe7td.s 			page 351


 16352      6163696F 
 16352      6E3200
 16353              	.LASF150:
 16354 052b 73746174 		.ascii	"status2st\000"
 16354      75733273 
 16354      7400
 16355              	.LASF147:
 16356 0535 73746174 		.ascii	"status1LP\000"
 16356      7573314C 
 16356      5000
 16357              	.LASF44:
 16358 053f 696E6974 		.ascii	"init\000"
 16358      00
 16359              	.LASF16:
 16360 0544 73697A65 		.ascii	"sizetype\000"
 16360      74797065 
 16360      00
 16361              	.LASF5:
 16362 054d 6C6F6E67 		.ascii	"long unsigned int\000"
 16362      20756E73 
 16362      69676E65 
 16362      6420696E 
 16362      7400
 16363              	.LASF55:
 16364 055f 6E756D65 		.ascii	"numero\000"
 16364      726F00
 16365              	.LASF10:
 16366 0566 696E7433 		.ascii	"int32_t\000"
 16366      325F7400 
 16367              	.LASF100:
 16368 056e 70726F78 		.ascii	"prox_caso\000"
 16368      5F636173 
 16368      6F00
 16369              	.LASF135:
 16370 0578 74696D65 		.ascii	"timeout_autorizacion\000"
 16370      6F75745F 
 16370      6175746F 
 16370      72697A61 
 16370      63696F6E 
 16371              	.LASF37:
 16372 058d 6175746F 		.ascii	"autorizado\000"
 16372      72697A61 
 16372      646F00
 16373              	.LASF1:
 16374 0598 756E7369 		.ascii	"unsigned char\000"
 16374      676E6564 
 16374      20636861 
 16374      7200
 16375              	.LASF91:
 16376 05a6 666C756A 		.ascii	"flujo_pos\000"
 16376      6F5F706F 
 16376      7300
 16377              	.LASF111:
 16378 05b0 6C61646F 		.ascii	"lado2\000"
 16378      3200
 16379              	.LASF123:
 16380 05b6 6F6B5F64 		.ascii	"ok_datosRF\000"
ARM GAS  C:\Users\RECEPC~1\AppData\Local\Temp\ccIpe7td.s 			page 352


 16380      61746F73 
 16380      524600
 16381              	.LASF138:
 16382 05c1 636C6176 		.ascii	"clave_local\000"
 16382      655F6C6F 
 16382      63616C00 
 16383              	.LASF130:
 16384 05cd 636C6176 		.ascii	"clave_config\000"
 16384      655F636F 
 16384      6E666967 
 16384      00
 16385              	.LASF107:
 16386 05da 6E6F6D62 		.ascii	"nombre_pro2\000"
 16386      72655F70 
 16386      726F3200 
 16387              	.LASF0:
 16388 05e6 7369676E 		.ascii	"signed char\000"
 16388      65642063 
 16388      68617200 
 16389              	.LASF45:
 16390 05f2 6572726F 		.ascii	"error_op\000"
 16390      725F6F70 
 16390      00
 16391              	.LASF3:
 16392 05fb 73686F72 		.ascii	"short unsigned int\000"
 16392      7420756E 
 16392      7369676E 
 16392      65642069 
 16392      6E7400
 16393              	.LASF141:
 16394 060e 50726F64 		.ascii	"Producto\000"
 16394      7563746F 
 16394      00
 16395              	.LASF66:
 16396 0617 6D61696E 		.ascii	"main\000"
 16396      00
 16397              	.LASF118:
 16398 061c 66656368 		.ascii	"fecha\000"
 16398      6100
 16399              	.LASF11:
 16400 0622 75696E74 		.ascii	"uint8\000"
 16400      3800
 16401              	.LASF14:
 16402 0628 646F7562 		.ascii	"double\000"
 16402      6C6500
 16403              	.LASF104:
 16404 062f 7472616D 		.ascii	"trama_totales\000"
 16404      615F746F 
 16404      74616C65 
 16404      7300
 16405              	.LASF102:
 16406 063d 69645F65 		.ascii	"id_estacion\000"
 16406      73746163 
 16406      696F6E00 
 16407              	.LASF28:
 16408 0649 6D616E67 		.ascii	"manguera\000"
 16408      75657261 
ARM GAS  C:\Users\RECEPC~1\AppData\Local\Temp\ccIpe7td.s 			page 353


 16408      00
 16409              	.LASF64:
 16410 0652 78617578 		.ascii	"xaux\000"
 16410      00
 16411              	.LASF99:
 16412 0657 696D6167 		.ascii	"imagen_grado\000"
 16412      656E5F67 
 16412      7261646F 
 16412      00
 16413              	.LASF20:
 16414 0664 67726164 		.ascii	"grado\000"
 16414      6F00
 16415              	.LASF149:
 16416 066a 73746174 		.ascii	"status1st\000"
 16416      75733173 
 16416      7400
 16417              	.LASF137:
 16418 0674 636F6E73 		.ascii	"consulta_sistema\000"
 16418      756C7461 
 16418      5F736973 
 16418      74656D61 
 16418      00
 16419              	.LASF53:
 16420 0685 706F6C6C 		.ascii	"polling_rf2\000"
 16420      696E675F 
 16420      72663200 
 16421              	.LASF80:
 16422 0691 73697A65 		.ascii	"sizeletra1\000"
 16422      6C657472 
 16422      613100
 16423              	.LASF83:
 16424 069c 73697A65 		.ascii	"sizeletra2\000"
 16424      6C657472 
 16424      613200
 16425              	.LASF152:
 16426 06a7 2E5C6D61 		.ascii	".\\main.c\000"
 16426      696E2E63 
 16426      00
 16427              		.ident	"GCC: (GNU Tools for ARM Embedded Processors) 4.9.3 20150303 (release) [ARM/embedded-4_9-br
