ARM GAS  C:\Users\RECEPC~1\AppData\Local\Temp\ccVIJn7M.s 			page 1


   1              		.syntax unified
   2              		.cpu cortex-m3
   3              		.fpu softvfp
   4              		.eabi_attribute 20, 1
   5              		.eabi_attribute 21, 1
   6              		.eabi_attribute 23, 3
   7              		.eabi_attribute 24, 1
   8              		.eabi_attribute 25, 1
   9              		.eabi_attribute 26, 1
  10              		.eabi_attribute 30, 6
  11              		.eabi_attribute 34, 1
  12              		.eabi_attribute 18, 4
  13              		.thumb
  14              		.file	"main.c"
  15              		.text
  16              	.Ltext0:
  17              		.cfi_sections	.debug_frame
  18              		.comm	count_teclas1,1,1
  19              		.comm	comas1,1,1
  20              		.comm	comas2,1,1
  21              		.comm	id_coma1,1,1
  22              		.comm	id_teclado1,1,1
  23              		.comm	count_teclas2,1,1
  24              		.comm	id_coma2,1,1
  25              		.comm	id_teclado2,1,1
  26              		.comm	posx1,2,2
  27              		.comm	posy1,2,2
  28              		.comm	sizeletra1,2,2
  29              		.comm	posx2,2,2
  30              		.comm	posy2,2,2
  31              		.comm	sizeletra2,2,2
  32              		.comm	teclas1,1,1
  33              		.comm	teclas2,1,1
  34              		.comm	flujo_LCD1,1,1
  35              		.comm	flujo_LCD2,1,1
  36              		.comm	flujo_pos1,1,1
  37              		.comm	flujo_pos2,1,1
  38              		.comm	seleccion_pos,1,1
  39              		.comm	flujo_pos,1,1
  40              		.comm	venta_activa,1,1
  41              		.comm	venta_activa2,1,1
  42              		.comm	Buffer_LCD1,30,4
  43              		.comm	Buffer_LCD2,30,4
  44              		.comm	count_protector,1,1
  45              		.comm	count_protector2,1,1
  46              		.comm	password_lcd,9,4
  47              		.comm	imagen_grado,2,2
  48              		.comm	prox_caso,8,4
  49              		.comm	bloqueo_LCD,3,4
  50              		.comm	id_estacion,5,4
  51              		.comm	id_venta,8,4
  52              		.comm	trama_totales,200,4
  53              		.comm	ppux10,1,1
  54              		.comm	nombre_pro1,17,4
  55              		.comm	nombre_pro2,17,4
  56              		.comm	nombre_pro3,17,4
  57              		.comm	version,4,4
ARM GAS  C:\Users\RECEPC~1\AppData\Local\Temp\ccVIJn7M.s 			page 2


  58              		.comm	kmscreen,1,1
  59              		.comm	pantallas,1,1
  60              		.comm	efectivo,1,1
  61              		.comm	lado1,93,4
  62              		.comm	lado2,93,4
  63              		.comm	nombre,33,4
  64              		.comm	nit,15,4
  65              		.comm	telefono,20,4
  66              		.comm	direccion,33,4
  67              		.comm	lema1,32,4
  68              		.comm	lema2,32,4
  69              		.comm	id_logo,2,4
  70              		.comm	km,2,4
  71              		.comm	fecha,3,4
  72              		.comm	hora,2,4
  73              		.comm	rventa1,118,4
  74              		.comm	rventa2,118,4
  75              		.comm	ok_RF,1,1
  76              		.comm	ok_datosRF,1,1
  77              		.comm	rf_mod,200,4
  78              		.comm	buffer_i2c,64,4
  79              		.comm	crc_total,1,1
  80              		.comm	print1,2,4
  81              		.comm	print2,2,4
  82              		.comm	tipo_venta,1,1
  83              		.global	letras
  84              		.data
  85              		.align	2
  86              		.type	letras, %object
  87              		.size	letras, 26
  88              	letras:
  89 0000 25       		.byte	37
  90 0001 42       		.byte	66
  91 0002 31       		.byte	49
  92 0003 27       		.byte	39
  93 0004 1D       		.byte	29
  94 0005 28       		.byte	40
  95 0006 29       		.byte	41
  96 0007 2A       		.byte	42
  97 0008 22       		.byte	34
  98 0009 2B       		.byte	43
  99 000a 2C       		.byte	44
 100 000b 2D       		.byte	45
 101 000c 35       		.byte	53
 102 000d 34       		.byte	52
 103 000e 23       		.byte	35
 104 000f 24       		.byte	36
 105 0010 1B       		.byte	27
 106 0011 1E       		.byte	30
 107 0012 26       		.byte	38
 108 0013 1F       		.byte	31
 109 0014 21       		.byte	33
 110 0015 32       		.byte	50
 111 0016 1C       		.byte	28
 112 0017 30       		.byte	48
 113 0018 20       		.byte	32
 114 0019 2F       		.byte	47
ARM GAS  C:\Users\RECEPC~1\AppData\Local\Temp\ccVIJn7M.s 			page 3


 115              		.global	clave_config
 116 001a 0000     		.align	2
 117              		.type	clave_config, %object
 118              		.size	clave_config, 5
 119              	clave_config:
 120 001c 30323431 		.ascii	"02412"
 120      32
 121              		.global	test
 122 0021 000000   		.align	2
 123              		.type	test, %object
 124              		.size	test, 18
 125              	test:
 126 0024 54657374 		.ascii	"Test de Impresora\000"
 126      20646520 
 126      496D7072 
 126      65736F72 
 126      6100
 127              		.comm	num_decimal2,2,2
 128              		.comm	idaux,8,4
 129              		.comm	state_rf,1,1
 130              		.comm	timeout_autorizacion,2,2
 131              		.comm	estado_tanqueando,1,1
 132              		.global	consulta_sistema
 133              		.type	consulta_sistema, %object
 134              		.size	consulta_sistema, 1
 135              	consulta_sistema:
 136 0036 01       		.byte	1
 137              		.global	clave_local
 138 0037 00       		.align	2
 139              		.type	clave_local, %object
 140              		.size	clave_local, 4
 141              	clave_local:
 142 0038 39       		.byte	57
 143 0039 36       		.byte	54
 144 003a 33       		.byte	51
 145 003b 31       		.byte	49
 146              		.comm	v_digitos_1,1,1
 147              		.global	ppuinicial
 148              		.bss
 149              		.type	ppuinicial, %object
 150              		.size	ppuinicial, 1
 151              	ppuinicial:
 152 0000 00       		.space	1
 153              		.comm	Producto,1,1
 154              		.comm	Productos,4,4
 155              		.global	producto1
 156              		.data
 157              		.type	producto1, %object
 158              		.size	producto1, 1
 159              	producto1:
 160 003c 01       		.byte	1
 161              		.global	producto2
 162              		.type	producto2, %object
 163              		.size	producto2, 1
 164              	producto2:
 165 003d 01       		.byte	1
 166              		.global	producto3
ARM GAS  C:\Users\RECEPC~1\AppData\Local\Temp\ccVIJn7M.s 			page 4


 167              		.type	producto3, %object
 168              		.size	producto3, 1
 169              	producto3:
 170 003e 01       		.byte	1
 171              		.global	producto4
 172              		.type	producto4, %object
 173              		.size	producto4, 1
 174              	producto4:
 175 003f 01       		.byte	1
 176              		.comm	status1LP,1,1
 177              		.comm	status2LP,1,1
 178              		.comm	status1st,1,1
 179              		.comm	status2st,1,1
 180              		.section	.text.init,"ax",%progbits
 181              		.align	2
 182              		.global	init
 183              		.thumb
 184              		.thumb_func
 185              		.type	init, %function
 186              	init:
 187              	.LFB63:
 188              		.file 1 ".\\main.c"
   1:.\main.c      **** /*
   2:.\main.c      **** ***************************************************************************************************
   3:.\main.c      **** *                                           GRP550M CODE2
   4:.\main.c      **** *
   5:.\main.c      **** *                             (c) Copyright 2013; Sistemas Insepet LTDA
   6:.\main.c      **** *
   7:.\main.c      **** *               All rights reserved.  Protected by international copyright laws.
   8:.\main.c      **** *               Knowledge of the source code may NOT be used to develop a similar product.
   9:.\main.c      **** *               Please help us continue to provide the Embedded community with the finest
  10:.\main.c      **** *               software available.  Your honesty is greatly appreciated.
  11:.\main.c      **** ***************************************************************************************************
  12:.\main.c      **** */
  13:.\main.c      **** 
  14:.\main.c      **** /*
  15:.\main.c      **** ***************************************************************************************************
  16:.\main.c      **** *
  17:.\main.c      **** *                                               GRP550M CODE
  18:.\main.c      **** *
  19:.\main.c      **** *                                             CYPRESS PSoC5LP
  20:.\main.c      **** *                                                with the
  21:.\main.c      **** *                                            CY8C5969AXI-LP035
  22:.\main.c      **** *
  23:.\main.c      **** * Filename      : main.c
  24:.\main.c      **** * Version       : V2.00
  25:.\main.c      **** * Programmer(s) : 
  26:.\main.c      ****                   
  27:.\main.c      **** ***************************************************************************************************
  28:.\main.c      **** */
  29:.\main.c      **** 
  30:.\main.c      **** /*
  31:.\main.c      **** ***************************************************************************************************
  32:.\main.c      **** *                                             INCLUDE FILES
  33:.\main.c      **** ***************************************************************************************************
  34:.\main.c      **** */
  35:.\main.c      **** 
ARM GAS  C:\Users\RECEPC~1\AppData\Local\Temp\ccVIJn7M.s 			page 5


  36:.\main.c      **** #include <device.h>
  37:.\main.c      **** #include <math.h>
  38:.\main.c      **** #include <stdio.h>
  39:.\main.c      **** #include <stdlib.h>
  40:.\main.c      **** #include <string.h>
  41:.\main.c      **** #include "Protocolo.h"
  42:.\main.c      **** #include "VariablesG.h"
  43:.\main.c      **** #include "Print.h"
  44:.\main.c      **** #include "LCD.h"
  45:.\main.c      **** #include "ibutton.h"
  46:.\main.c      **** #include "i2c.h"
  47:.\main.c      **** 
  48:.\main.c      **** /*
  49:.\main.c      **** ***************************************************************************************************
  50:.\main.c      **** *                                             DECLARACION DE FUNCIONES
  51:.\main.c      **** ***************************************************************************************************
  52:.\main.c      **** */
  53:.\main.c      **** uint8 letras[26]={0x25,0x42,0x31,0x27,0x1D,0x28,0x29,0x2A,0x22,0x2B,0x2C,0x2D,0x35,0x34,0x23,0x24,0
  54:.\main.c      **** uint8 clave_config[5]="02412";
  55:.\main.c      **** uint8 test[18]="Test de Impresora";
  56:.\main.c      **** uint16 num_decimal2;
  57:.\main.c      **** CY_ISR(animacion);
  58:.\main.c      **** CY_ISR(animacion2);
  59:.\main.c      **** CY_ISR(modo_mux);
  60:.\main.c      **** uint8  idaux[8];
  61:.\main.c      **** uint8  state_rf;
  62:.\main.c      **** uint16 timeout_autorizacion;
  63:.\main.c      **** uint8  estado_tanqueando; 
  64:.\main.c      **** uint8  consulta_sistema=1;
  65:.\main.c      **** uint8  clave_local[4]={'9','6','3','1'};
  66:.\main.c      **** uint8  v_digitos_1;
  67:.\main.c      **** uint8  ppuinicial=0;
  68:.\main.c      **** uint8  Producto;
  69:.\main.c      **** uint8  Productos[4];// el buffer es para guardar los tipos de combustible
  70:.\main.c      **** uint8  producto1=1,producto2=1,producto3=1,producto4=1;
  71:.\main.c      **** uint8 status1LP,status2LP,status1st,status2st; 
  72:.\main.c      **** 
  73:.\main.c      **** 
  74:.\main.c      **** /*
  75:.\main.c      **** ***************************************************************************************************
  76:.\main.c      **** *                                         init( void )
  77:.\main.c      **** *
  78:.\main.c      **** * Description : 
  79:.\main.c      **** *               
  80:.\main.c      **** *
  81:.\main.c      **** * Argument(s) : none
  82:.\main.c      **** *
  83:.\main.c      **** * Return(s)   : none
  84:.\main.c      **** *
  85:.\main.c      **** * Caller(s)   : 
  86:.\main.c      **** *
  87:.\main.c      **** * Note(s)     : none.
  88:.\main.c      **** ***************************************************************************************************
  89:.\main.c      **** */ 
  90:.\main.c      **** void init(void){
 189              		.loc 1 90 0
 190              		.cfi_startproc
ARM GAS  C:\Users\RECEPC~1\AppData\Local\Temp\ccVIJn7M.s 			page 6


 191              		@ args = 0, pretend = 0, frame = 8
 192              		@ frame_needed = 1, uses_anonymous_args = 0
 193 0000 90B5     		push	{r4, r7, lr}
 194              		.cfi_def_cfa_offset 12
 195              		.cfi_offset 4, -12
 196              		.cfi_offset 7, -8
 197              		.cfi_offset 14, -4
 198 0002 83B0     		sub	sp, sp, #12
 199              		.cfi_def_cfa_offset 24
 200 0004 00AF     		add	r7, sp, #0
 201              		.cfi_def_cfa_register 7
  91:.\main.c      ****     timeout_autorizacion=0;
 202              		.loc 1 91 0
 203 0006 734B     		ldr	r3, .L6
 204 0008 0022     		movs	r2, #0
 205 000a 1A80     		strh	r2, [r3]	@ movhi
  92:.\main.c      **** 	uint8 x;
  93:.\main.c      ****     CyGlobalIntEnable;
 206              		.loc 1 93 0
 207              	@ 93 ".\main.c" 1
 208 000c 62B6     		CPSIE   i
 209              	@ 0 "" 2
  94:.\main.c      **** 	PC_Start();
 210              		.loc 1 94 0
 211              		.thumb
 212 000e FFF7FEFF 		bl	PC_Start
  95:.\main.c      ****     I2C_1_Start();
 213              		.loc 1 95 0
 214 0012 FFF7FEFF 		bl	I2C_1_Start
  96:.\main.c      ****     Surtidor_Start();
 215              		.loc 1 96 0
 216 0016 FFF7FEFF 		bl	Surtidor_Start
  97:.\main.c      ****     LCD_1_Start();
 217              		.loc 1 97 0
 218 001a FFF7FEFF 		bl	LCD_1_Start
  98:.\main.c      ****     LCD_2_Start();   	
 219              		.loc 1 98 0
 220 001e FFF7FEFF 		bl	LCD_2_Start
  99:.\main.c      **** 	EEPROM_Start();
 221              		.loc 1 99 0
 222 0022 FFF7FEFF 		bl	EEPROM_Start
 100:.\main.c      **** 
 101:.\main.c      **** 	/***********Iniciacion de variables***************/
 102:.\main.c      **** 	lado1.grado[0][0]=0;
 223              		.loc 1 102 0
 224 0026 6C4B     		ldr	r3, .L6+4
 225 0028 0022     		movs	r2, #0
 226 002a 83F85920 		strb	r2, [r3, #89]
 103:.\main.c      **** 	lado1.grado[1][0]=0;
 227              		.loc 1 103 0
 228 002e 6A4B     		ldr	r3, .L6+4
 229 0030 0022     		movs	r2, #0
 230 0032 83F85A20 		strb	r2, [r3, #90]
 104:.\main.c      **** 	lado1.grado[2][0]=0;
 231              		.loc 1 104 0
 232 0036 684B     		ldr	r3, .L6+4
 233 0038 0022     		movs	r2, #0
ARM GAS  C:\Users\RECEPC~1\AppData\Local\Temp\ccVIJn7M.s 			page 7


 234 003a 83F85B20 		strb	r2, [r3, #91]
 105:.\main.c      **** 	lado2.grado[0][0]=0;
 235              		.loc 1 105 0
 236 003e 674B     		ldr	r3, .L6+8
 237 0040 0022     		movs	r2, #0
 238 0042 83F85920 		strb	r2, [r3, #89]
 106:.\main.c      **** 	lado2.grado[1][0]=0;
 239              		.loc 1 106 0
 240 0046 654B     		ldr	r3, .L6+8
 241 0048 0022     		movs	r2, #0
 242 004a 83F85A20 		strb	r2, [r3, #90]
 107:.\main.c      **** 	lado2.grado[2][0]=0;
 243              		.loc 1 107 0
 244 004e 634B     		ldr	r3, .L6+8
 245 0050 0022     		movs	r2, #0
 246 0052 83F85B20 		strb	r2, [r3, #91]
 108:.\main.c      ****     for(x=0; x<=15; x++){
 247              		.loc 1 108 0
 248 0056 0023     		movs	r3, #0
 249 0058 FB71     		strb	r3, [r7, #7]
 250 005a 08E0     		b	.L2
 251              	.L3:
 109:.\main.c      ****         rventa1.id_ef[x]= 1;
 252              		.loc 1 109 0 discriminator 3
 253 005c FB79     		ldrb	r3, [r7, #7]	@ zero_extendqisi2
 254 005e 604A     		ldr	r2, .L6+12
 255 0060 1344     		add	r3, r3, r2
 256 0062 0122     		movs	r2, #1
 257 0064 83F83320 		strb	r2, [r3, #51]
 108:.\main.c      ****     for(x=0; x<=15; x++){
 258              		.loc 1 108 0 discriminator 3
 259 0068 FB79     		ldrb	r3, [r7, #7]	@ zero_extendqisi2
 260 006a 0133     		adds	r3, r3, #1
 261 006c FB71     		strb	r3, [r7, #7]
 262              	.L2:
 108:.\main.c      ****     for(x=0; x<=15; x++){
 263              		.loc 1 108 0 is_stmt 0 discriminator 1
 264 006e FB79     		ldrb	r3, [r7, #7]	@ zero_extendqisi2
 265 0070 0F2B     		cmp	r3, #15
 266 0072 F3D9     		bls	.L3
 110:.\main.c      ****     }
 111:.\main.c      **** 
 112:.\main.c      ****     CyDelay(5);
 267              		.loc 1 112 0 is_stmt 1
 268 0074 0520     		movs	r0, #5
 269 0076 FFF7FEFF 		bl	CyDelay
 113:.\main.c      **** 	/******************Lectura de EEPROM*************/
 114:.\main.c      **** 	
 115:.\main.c      **** 	for(x=13;x<=14;x++){									//Logo
 270              		.loc 1 115 0
 271 007a 0D23     		movs	r3, #13
 272 007c FB71     		strb	r3, [r7, #7]
 273 007e 0EE0     		b	.L4
 274              	.L5:
 116:.\main.c      **** 		id_logo[x-13]=EEPROM_ReadByte(x);
 275              		.loc 1 116 0 discriminator 3
 276 0080 FB79     		ldrb	r3, [r7, #7]	@ zero_extendqisi2
ARM GAS  C:\Users\RECEPC~1\AppData\Local\Temp\ccVIJn7M.s 			page 8


 277 0082 A3F10D04 		sub	r4, r3, #13
 278 0086 FB79     		ldrb	r3, [r7, #7]	@ zero_extendqisi2
 279 0088 9BB2     		uxth	r3, r3
 280 008a 1846     		mov	r0, r3
 281 008c FFF7FEFF 		bl	EEPROM_ReadByte
 282 0090 0346     		mov	r3, r0
 283 0092 1A46     		mov	r2, r3
 284 0094 534B     		ldr	r3, .L6+16
 285 0096 1A55     		strb	r2, [r3, r4]
 115:.\main.c      **** 		id_logo[x-13]=EEPROM_ReadByte(x);
 286              		.loc 1 115 0 discriminator 3
 287 0098 FB79     		ldrb	r3, [r7, #7]	@ zero_extendqisi2
 288 009a 0133     		adds	r3, r3, #1
 289 009c FB71     		strb	r3, [r7, #7]
 290              	.L4:
 115:.\main.c      **** 		id_logo[x-13]=EEPROM_ReadByte(x);
 291              		.loc 1 115 0 is_stmt 0 discriminator 1
 292 009e FB79     		ldrb	r3, [r7, #7]	@ zero_extendqisi2
 293 00a0 0E2B     		cmp	r3, #14
 294 00a2 EDD9     		bls	.L5
 117:.\main.c      **** 	}
 118:.\main.c      **** 	lado1.mangueras=EEPROM_ReadByte(15);					//Numero de grados y codigo de cada uno 1
 295              		.loc 1 118 0 is_stmt 1
 296 00a4 0F20     		movs	r0, #15
 297 00a6 FFF7FEFF 		bl	EEPROM_ReadByte
 298 00aa 0346     		mov	r3, r0
 299 00ac 1A46     		mov	r2, r3
 300 00ae 4A4B     		ldr	r3, .L6+4
 301 00b0 83F85C20 		strb	r2, [r3, #92]
 119:.\main.c      **** 	lado1.grado[0][0]=EEPROM_ReadByte(16);
 302              		.loc 1 119 0
 303 00b4 1020     		movs	r0, #16
 304 00b6 FFF7FEFF 		bl	EEPROM_ReadByte
 305 00ba 0346     		mov	r3, r0
 306 00bc 1A46     		mov	r2, r3
 307 00be 464B     		ldr	r3, .L6+4
 308 00c0 83F85920 		strb	r2, [r3, #89]
 120:.\main.c      **** 	lado1.grado[1][0]=EEPROM_ReadByte(17);
 309              		.loc 1 120 0
 310 00c4 1120     		movs	r0, #17
 311 00c6 FFF7FEFF 		bl	EEPROM_ReadByte
 312 00ca 0346     		mov	r3, r0
 313 00cc 1A46     		mov	r2, r3
 314 00ce 424B     		ldr	r3, .L6+4
 315 00d0 83F85A20 		strb	r2, [r3, #90]
 121:.\main.c      **** 	lado1.grado[2][0]=EEPROM_ReadByte(18);
 316              		.loc 1 121 0
 317 00d4 1220     		movs	r0, #18
 318 00d6 FFF7FEFF 		bl	EEPROM_ReadByte
 319 00da 0346     		mov	r3, r0
 320 00dc 1A46     		mov	r2, r3
 321 00de 3E4B     		ldr	r3, .L6+4
 322 00e0 83F85B20 		strb	r2, [r3, #91]
 122:.\main.c      **** 	
 123:.\main.c      **** 	lado2.mangueras=EEPROM_ReadByte(19);					//Numero de grados y codigo de cada uno 1
 323              		.loc 1 123 0
 324 00e4 1320     		movs	r0, #19
ARM GAS  C:\Users\RECEPC~1\AppData\Local\Temp\ccVIJn7M.s 			page 9


 325 00e6 FFF7FEFF 		bl	EEPROM_ReadByte
 326 00ea 0346     		mov	r3, r0
 327 00ec 1A46     		mov	r2, r3
 328 00ee 3B4B     		ldr	r3, .L6+8
 329 00f0 83F85C20 		strb	r2, [r3, #92]
 124:.\main.c      **** 	lado2.grado[0][0]=EEPROM_ReadByte(20);
 330              		.loc 1 124 0
 331 00f4 1420     		movs	r0, #20
 332 00f6 FFF7FEFF 		bl	EEPROM_ReadByte
 333 00fa 0346     		mov	r3, r0
 334 00fc 1A46     		mov	r2, r3
 335 00fe 374B     		ldr	r3, .L6+8
 336 0100 83F85920 		strb	r2, [r3, #89]
 125:.\main.c      **** 	lado2.grado[1][0]=EEPROM_ReadByte(21);
 337              		.loc 1 125 0
 338 0104 1520     		movs	r0, #21
 339 0106 FFF7FEFF 		bl	EEPROM_ReadByte
 340 010a 0346     		mov	r3, r0
 341 010c 1A46     		mov	r2, r3
 342 010e 334B     		ldr	r3, .L6+8
 343 0110 83F85A20 		strb	r2, [r3, #90]
 126:.\main.c      **** 	lado2.grado[2][0]=EEPROM_ReadByte(22);	
 344              		.loc 1 126 0
 345 0114 1620     		movs	r0, #22
 346 0116 FFF7FEFF 		bl	EEPROM_ReadByte
 347 011a 0346     		mov	r3, r0
 348 011c 1A46     		mov	r2, r3
 349 011e 2F4B     		ldr	r3, .L6+8
 350 0120 83F85B20 		strb	r2, [r3, #91]
 127:.\main.c      **** 	
 128:.\main.c      **** 	ppux10=EEPROM_ReadByte(23);								//PPU X10
 351              		.loc 1 128 0
 352 0124 1720     		movs	r0, #23
 353 0126 FFF7FEFF 		bl	EEPROM_ReadByte
 354 012a 0346     		mov	r3, r0
 355 012c 1A46     		mov	r2, r3
 356 012e 2E4B     		ldr	r3, .L6+20
 357 0130 1A70     		strb	r2, [r3]
 129:.\main.c      **** 
 130:.\main.c      **** 	version[1]=EEPROM_ReadByte(30);							//Version de digitos y decimales
 358              		.loc 1 130 0
 359 0132 1E20     		movs	r0, #30
 360 0134 FFF7FEFF 		bl	EEPROM_ReadByte
 361 0138 0346     		mov	r3, r0
 362 013a 1A46     		mov	r2, r3
 363 013c 2B4B     		ldr	r3, .L6+24
 364 013e 5A70     		strb	r2, [r3, #1]
 131:.\main.c      **** 	version[2]=EEPROM_ReadByte(31);
 365              		.loc 1 131 0
 366 0140 1F20     		movs	r0, #31
 367 0142 FFF7FEFF 		bl	EEPROM_ReadByte
 368 0146 0346     		mov	r3, r0
 369 0148 1A46     		mov	r2, r3
 370 014a 284B     		ldr	r3, .L6+24
 371 014c 9A70     		strb	r2, [r3, #2]
 132:.\main.c      **** 	version[3]=EEPROM_ReadByte(32);
 372              		.loc 1 132 0
ARM GAS  C:\Users\RECEPC~1\AppData\Local\Temp\ccVIJn7M.s 			page 10


 373 014e 2020     		movs	r0, #32
 374 0150 FFF7FEFF 		bl	EEPROM_ReadByte
 375 0154 0346     		mov	r3, r0
 376 0156 1A46     		mov	r2, r3
 377 0158 244B     		ldr	r3, .L6+24
 378 015a DA70     		strb	r2, [r3, #3]
 133:.\main.c      **** 		 
 134:.\main.c      **** 	lado1.dir=EEPROM_ReadByte(26);							//Lado A
 379              		.loc 1 134 0
 380 015c 1A20     		movs	r0, #26
 381 015e FFF7FEFF 		bl	EEPROM_ReadByte
 382 0162 0346     		mov	r3, r0
 383 0164 1A46     		mov	r2, r3
 384 0166 1C4B     		ldr	r3, .L6+4
 385 0168 1A70     		strb	r2, [r3]
 135:.\main.c      **** 	lado2.dir=EEPROM_ReadByte(28);							//Lado B
 386              		.loc 1 135 0
 387 016a 1C20     		movs	r0, #28
 388 016c FFF7FEFF 		bl	EEPROM_ReadByte
 389 0170 0346     		mov	r3, r0
 390 0172 1A46     		mov	r2, r3
 391 0174 194B     		ldr	r3, .L6+8
 392 0176 1A70     		strb	r2, [r3]
 136:.\main.c      **** 
 137:.\main.c      ****     pantallas =EEPROM_ReadByte(33);
 393              		.loc 1 137 0
 394 0178 2120     		movs	r0, #33
 395 017a FFF7FEFF 		bl	EEPROM_ReadByte
 396 017e 0346     		mov	r3, r0
 397 0180 1A46     		mov	r2, r3
 398 0182 1B4B     		ldr	r3, .L6+28
 399 0184 1A70     		strb	r2, [r3]
 138:.\main.c      ****     kmscreen  =EEPROM_ReadByte(34);
 400              		.loc 1 138 0
 401 0186 2220     		movs	r0, #34
 402 0188 FFF7FEFF 		bl	EEPROM_ReadByte
 403 018c 0346     		mov	r3, r0
 404 018e 1A46     		mov	r2, r3
 405 0190 184B     		ldr	r3, .L6+32
 406 0192 1A70     		strb	r2, [r3]
 139:.\main.c      ****     efectivo  =EEPROM_ReadByte(35);
 407              		.loc 1 139 0
 408 0194 2320     		movs	r0, #35
 409 0196 FFF7FEFF 		bl	EEPROM_ReadByte
 410 019a 0346     		mov	r3, r0
 411 019c 1A46     		mov	r2, r3
 412 019e 164B     		ldr	r3, .L6+36
 413 01a0 1A70     		strb	r2, [r3]
 140:.\main.c      ****     
 141:.\main.c      ****     lado1.estado=libre;
 414              		.loc 1 141 0
 415 01a2 0D4B     		ldr	r3, .L6+4
 416 01a4 0122     		movs	r2, #1
 417 01a6 5A70     		strb	r2, [r3, #1]
 142:.\main.c      ****     lado2.estado=libre;
 418              		.loc 1 142 0
 419 01a8 0C4B     		ldr	r3, .L6+8
ARM GAS  C:\Users\RECEPC~1\AppData\Local\Temp\ccVIJn7M.s 			page 11


 420 01aa 0122     		movs	r2, #1
 421 01ac 5A70     		strb	r2, [r3, #1]
 143:.\main.c      ****     estado_tanqueando=0;
 422              		.loc 1 143 0
 423 01ae 134B     		ldr	r3, .L6+40
 424 01b0 0022     		movs	r2, #0
 425 01b2 1A70     		strb	r2, [r3]
 144:.\main.c      **** 	version[2]=0;
 426              		.loc 1 144 0
 427 01b4 0D4B     		ldr	r3, .L6+24
 428 01b6 0022     		movs	r2, #0
 429 01b8 9A70     		strb	r2, [r3, #2]
 145:.\main.c      **** 	version[3]=3;
 430              		.loc 1 145 0
 431 01ba 0C4B     		ldr	r3, .L6+24
 432 01bc 0322     		movs	r2, #3
 433 01be DA70     		strb	r2, [r3, #3]
 146:.\main.c      ****     flujo_LCD1=0;
 434              		.loc 1 146 0
 435 01c0 0F4B     		ldr	r3, .L6+44
 436 01c2 0022     		movs	r2, #0
 437 01c4 1A70     		strb	r2, [r3]
 147:.\main.c      ****     CyDelay(5);	
 438              		.loc 1 147 0
 439 01c6 0520     		movs	r0, #5
 440 01c8 FFF7FEFF 		bl	CyDelay
 148:.\main.c      ****     
 149:.\main.c      **** }
 441              		.loc 1 149 0
 442 01cc 0C37     		adds	r7, r7, #12
 443              		.cfi_def_cfa_offset 12
 444 01ce BD46     		mov	sp, r7
 445              		.cfi_def_cfa_register 13
 446              		@ sp needed
 447 01d0 90BD     		pop	{r4, r7, pc}
 448              	.L7:
 449 01d2 00BF     		.align	2
 450              	.L6:
 451 01d4 00000000 		.word	timeout_autorizacion
 452 01d8 00000000 		.word	lado1
 453 01dc 00000000 		.word	lado2
 454 01e0 00000000 		.word	rventa1
 455 01e4 00000000 		.word	id_logo
 456 01e8 00000000 		.word	ppux10
 457 01ec 00000000 		.word	version
 458 01f0 00000000 		.word	pantallas
 459 01f4 00000000 		.word	kmscreen
 460 01f8 00000000 		.word	efectivo
 461 01fc 00000000 		.word	estado_tanqueando
 462 0200 00000000 		.word	flujo_LCD1
 463              		.cfi_endproc
 464              	.LFE63:
 465              		.size	init, .-init
 466              		.section	.rodata
 467              		.align	2
 468              	.LC0:
 469 0000 00       		.byte	0
ARM GAS  C:\Users\RECEPC~1\AppData\Local\Temp\ccVIJn7M.s 			page 12


 470 0001 5E       		.byte	94
 471 0002 BC       		.byte	-68
 472 0003 E2       		.byte	-30
 473 0004 61       		.byte	97
 474 0005 3F       		.byte	63
 475 0006 DD       		.byte	-35
 476 0007 83       		.byte	-125
 477 0008 C2       		.byte	-62
 478 0009 9C       		.byte	-100
 479 000a 7E       		.byte	126
 480 000b 20       		.byte	32
 481 000c A3       		.byte	-93
 482 000d FD       		.byte	-3
 483 000e 1F       		.byte	31
 484 000f 41       		.byte	65
 485 0010 9D       		.byte	-99
 486 0011 C3       		.byte	-61
 487 0012 21       		.byte	33
 488 0013 7F       		.byte	127
 489 0014 FC       		.byte	-4
 490 0015 A2       		.byte	-94
 491 0016 40       		.byte	64
 492 0017 1E       		.byte	30
 493 0018 5F       		.byte	95
 494 0019 01       		.byte	1
 495 001a E3       		.byte	-29
 496 001b BD       		.byte	-67
 497 001c 3E       		.byte	62
 498 001d 60       		.byte	96
 499 001e 82       		.byte	-126
 500 001f DC       		.byte	-36
 501 0020 23       		.byte	35
 502 0021 7D       		.byte	125
 503 0022 9F       		.byte	-97
 504 0023 C1       		.byte	-63
 505 0024 42       		.byte	66
 506 0025 1C       		.byte	28
 507 0026 FE       		.byte	-2
 508 0027 A0       		.byte	-96
 509 0028 E1       		.byte	-31
 510 0029 BF       		.byte	-65
 511 002a 5D       		.byte	93
 512 002b 03       		.byte	3
 513 002c 80       		.byte	-128
 514 002d DE       		.byte	-34
 515 002e 3C       		.byte	60
 516 002f 62       		.byte	98
 517 0030 BE       		.byte	-66
 518 0031 E0       		.byte	-32
 519 0032 02       		.byte	2
 520 0033 5C       		.byte	92
 521 0034 DF       		.byte	-33
 522 0035 81       		.byte	-127
 523 0036 63       		.byte	99
 524 0037 3D       		.byte	61
 525 0038 7C       		.byte	124
 526 0039 22       		.byte	34
ARM GAS  C:\Users\RECEPC~1\AppData\Local\Temp\ccVIJn7M.s 			page 13


 527 003a C0       		.byte	-64
 528 003b 9E       		.byte	-98
 529 003c 1D       		.byte	29
 530 003d 43       		.byte	67
 531 003e A1       		.byte	-95
 532 003f FF       		.byte	-1
 533 0040 46       		.byte	70
 534 0041 18       		.byte	24
 535 0042 FA       		.byte	-6
 536 0043 A4       		.byte	-92
 537 0044 27       		.byte	39
 538 0045 79       		.byte	121
 539 0046 9B       		.byte	-101
 540 0047 C5       		.byte	-59
 541 0048 84       		.byte	-124
 542 0049 DA       		.byte	-38
 543 004a 38       		.byte	56
 544 004b 66       		.byte	102
 545 004c E5       		.byte	-27
 546 004d BB       		.byte	-69
 547 004e 59       		.byte	89
 548 004f 07       		.byte	7
 549 0050 DB       		.byte	-37
 550 0051 85       		.byte	-123
 551 0052 67       		.byte	103
 552 0053 39       		.byte	57
 553 0054 BA       		.byte	-70
 554 0055 E4       		.byte	-28
 555 0056 06       		.byte	6
 556 0057 58       		.byte	88
 557 0058 19       		.byte	25
 558 0059 47       		.byte	71
 559 005a A5       		.byte	-91
 560 005b FB       		.byte	-5
 561 005c 78       		.byte	120
 562 005d 26       		.byte	38
 563 005e C4       		.byte	-60
 564 005f 9A       		.byte	-102
 565 0060 65       		.byte	101
 566 0061 3B       		.byte	59
 567 0062 D9       		.byte	-39
 568 0063 87       		.byte	-121
 569 0064 04       		.byte	4
 570 0065 5A       		.byte	90
 571 0066 B8       		.byte	-72
 572 0067 E6       		.byte	-26
 573 0068 A7       		.byte	-89
 574 0069 F9       		.byte	-7
 575 006a 1B       		.byte	27
 576 006b 45       		.byte	69
 577 006c C6       		.byte	-58
 578 006d 98       		.byte	-104
 579 006e 7A       		.byte	122
 580 006f 24       		.byte	36
 581 0070 F8       		.byte	-8
 582 0071 A6       		.byte	-90
 583 0072 44       		.byte	68
ARM GAS  C:\Users\RECEPC~1\AppData\Local\Temp\ccVIJn7M.s 			page 14


 584 0073 1A       		.byte	26
 585 0074 99       		.byte	-103
 586 0075 C7       		.byte	-57
 587 0076 25       		.byte	37
 588 0077 7B       		.byte	123
 589 0078 3A       		.byte	58
 590 0079 64       		.byte	100
 591 007a 86       		.byte	-122
 592 007b D8       		.byte	-40
 593 007c 5B       		.byte	91
 594 007d 05       		.byte	5
 595 007e E7       		.byte	-25
 596 007f B9       		.byte	-71
 597 0080 8C       		.byte	-116
 598 0081 D2       		.byte	-46
 599 0082 30       		.byte	48
 600 0083 6E       		.byte	110
 601 0084 ED       		.byte	-19
 602 0085 B3       		.byte	-77
 603 0086 51       		.byte	81
 604 0087 0F       		.byte	15
 605 0088 4E       		.byte	78
 606 0089 10       		.byte	16
 607 008a F2       		.byte	-14
 608 008b AC       		.byte	-84
 609 008c 2F       		.byte	47
 610 008d 71       		.byte	113
 611 008e 93       		.byte	-109
 612 008f CD       		.byte	-51
 613 0090 11       		.byte	17
 614 0091 4F       		.byte	79
 615 0092 AD       		.byte	-83
 616 0093 F3       		.byte	-13
 617 0094 70       		.byte	112
 618 0095 2E       		.byte	46
 619 0096 CC       		.byte	-52
 620 0097 92       		.byte	-110
 621 0098 D3       		.byte	-45
 622 0099 8D       		.byte	-115
 623 009a 6F       		.byte	111
 624 009b 31       		.byte	49
 625 009c B2       		.byte	-78
 626 009d EC       		.byte	-20
 627 009e 0E       		.byte	14
 628 009f 50       		.byte	80
 629 00a0 AF       		.byte	-81
 630 00a1 F1       		.byte	-15
 631 00a2 13       		.byte	19
 632 00a3 4D       		.byte	77
 633 00a4 CE       		.byte	-50
 634 00a5 90       		.byte	-112
 635 00a6 72       		.byte	114
 636 00a7 2C       		.byte	44
 637 00a8 6D       		.byte	109
 638 00a9 33       		.byte	51
 639 00aa D1       		.byte	-47
 640 00ab 8F       		.byte	-113
ARM GAS  C:\Users\RECEPC~1\AppData\Local\Temp\ccVIJn7M.s 			page 15


 641 00ac 0C       		.byte	12
 642 00ad 52       		.byte	82
 643 00ae B0       		.byte	-80
 644 00af EE       		.byte	-18
 645 00b0 32       		.byte	50
 646 00b1 6C       		.byte	108
 647 00b2 8E       		.byte	-114
 648 00b3 D0       		.byte	-48
 649 00b4 53       		.byte	83
 650 00b5 0D       		.byte	13
 651 00b6 EF       		.byte	-17
 652 00b7 B1       		.byte	-79
 653 00b8 F0       		.byte	-16
 654 00b9 AE       		.byte	-82
 655 00ba 4C       		.byte	76
 656 00bb 12       		.byte	18
 657 00bc 91       		.byte	-111
 658 00bd CF       		.byte	-49
 659 00be 2D       		.byte	45
 660 00bf 73       		.byte	115
 661 00c0 CA       		.byte	-54
 662 00c1 94       		.byte	-108
 663 00c2 76       		.byte	118
 664 00c3 28       		.byte	40
 665 00c4 AB       		.byte	-85
 666 00c5 F5       		.byte	-11
 667 00c6 17       		.byte	23
 668 00c7 49       		.byte	73
 669 00c8 08       		.byte	8
 670 00c9 56       		.byte	86
 671 00ca B4       		.byte	-76
 672 00cb EA       		.byte	-22
 673 00cc 69       		.byte	105
 674 00cd 37       		.byte	55
 675 00ce D5       		.byte	-43
 676 00cf 8B       		.byte	-117
 677 00d0 57       		.byte	87
 678 00d1 09       		.byte	9
 679 00d2 EB       		.byte	-21
 680 00d3 B5       		.byte	-75
 681 00d4 36       		.byte	54
 682 00d5 68       		.byte	104
 683 00d6 8A       		.byte	-118
 684 00d7 D4       		.byte	-44
 685 00d8 95       		.byte	-107
 686 00d9 CB       		.byte	-53
 687 00da 29       		.byte	41
 688 00db 77       		.byte	119
 689 00dc F4       		.byte	-12
 690 00dd AA       		.byte	-86
 691 00de 48       		.byte	72
 692 00df 16       		.byte	22
 693 00e0 E9       		.byte	-23
 694 00e1 B7       		.byte	-73
 695 00e2 55       		.byte	85
 696 00e3 0B       		.byte	11
 697 00e4 88       		.byte	-120
ARM GAS  C:\Users\RECEPC~1\AppData\Local\Temp\ccVIJn7M.s 			page 16


 698 00e5 D6       		.byte	-42
 699 00e6 34       		.byte	52
 700 00e7 6A       		.byte	106
 701 00e8 2B       		.byte	43
 702 00e9 75       		.byte	117
 703 00ea 97       		.byte	-105
 704 00eb C9       		.byte	-55
 705 00ec 4A       		.byte	74
 706 00ed 14       		.byte	20
 707 00ee F6       		.byte	-10
 708 00ef A8       		.byte	-88
 709 00f0 74       		.byte	116
 710 00f1 2A       		.byte	42
 711 00f2 C8       		.byte	-56
 712 00f3 96       		.byte	-106
 713 00f4 15       		.byte	21
 714 00f5 4B       		.byte	75
 715 00f6 A9       		.byte	-87
 716 00f7 F7       		.byte	-9
 717 00f8 B6       		.byte	-74
 718 00f9 E8       		.byte	-24
 719 00fa 0A       		.byte	10
 720 00fb 54       		.byte	84
 721 00fc D7       		.byte	-41
 722 00fd 89       		.byte	-119
 723 00fe 6B       		.byte	107
 724 00ff 35       		.byte	53
 725              		.section	.text.verificar_check,"ax",%progbits
 726              		.align	2
 727              		.global	verificar_check
 728              		.thumb
 729              		.thumb_func
 730              		.type	verificar_check, %function
 731              	verificar_check:
 732              	.LFB64:
 150:.\main.c      **** 
 151:.\main.c      **** 
 152:.\main.c      **** /*
 153:.\main.c      **** ***************************************************************************************************
 154:.\main.c      **** *                             uint8 verificar_check(uint8 *datos, uint16 size)
 155:.\main.c      **** *
 156:.\main.c      **** * Description : calcula el checksum
 157:.\main.c      **** *               
 158:.\main.c      **** 
 159:.\main.c      **** ***************************************************************************************************
 160:.\main.c      **** */
 161:.\main.c      **** uint8 verificar_check(uint8 *datos, uint16 size){
 733              		.loc 1 161 0
 734              		.cfi_startproc
 735              		@ args = 0, pretend = 0, frame = 272
 736              		@ frame_needed = 1, uses_anonymous_args = 0
 737 0000 80B5     		push	{r7, lr}
 738              		.cfi_def_cfa_offset 8
 739              		.cfi_offset 7, -8
 740              		.cfi_offset 14, -4
 741 0002 C4B0     		sub	sp, sp, #272
 742              		.cfi_def_cfa_offset 280
ARM GAS  C:\Users\RECEPC~1\AppData\Local\Temp\ccVIJn7M.s 			page 17


 743 0004 00AF     		add	r7, sp, #0
 744              		.cfi_def_cfa_register 7
 745 0006 3B1D     		adds	r3, r7, #4
 746 0008 1860     		str	r0, [r3]
 747 000a 0A46     		mov	r2, r1
 748 000c BB1C     		adds	r3, r7, #2
 749 000e 1A80     		strh	r2, [r3]	@ movhi
 162:.\main.c      **** 	uint8 checksum,index;
 163:.\main.c      **** 	uint16 i;
 164:.\main.c      ****     uint8 table[256] = { 
 750              		.loc 1 164 0
 751 0010 07F10803 		add	r3, r7, #8
 752 0014 1A4A     		ldr	r2, .L12
 753 0016 1946     		mov	r1, r3
 754 0018 4FF48073 		mov	r3, #256
 755 001c 0846     		mov	r0, r1
 756 001e 1146     		mov	r1, r2
 757 0020 1A46     		mov	r2, r3
 758 0022 FFF7FEFF 		bl	memcpy
 165:.\main.c      ****     0, 94,188,226, 97, 63,221,131,194,156,126, 32,163,253, 31, 65,
 166:.\main.c      ****     157,195, 33,127,252,162, 64, 30, 95,  1,227,189, 62, 96,130,220,
 167:.\main.c      ****     35,125,159,193, 66, 28,254,160,225,191, 93,  3,128,222, 60, 98,
 168:.\main.c      ****     190,224,  2, 92,223,129, 99, 61,124, 34,192,158, 29, 67,161,255,
 169:.\main.c      ****     70, 24,250,164, 39,121,155,197,132,218, 56,102,229,187, 89,  7,
 170:.\main.c      ****     219,133,103, 57,186,228,  6, 88, 25, 71,165,251,120, 38,196,154,
 171:.\main.c      ****     101, 59,217,135,  4, 90,184,230,167,249, 27, 69,198,152,122, 36,
 172:.\main.c      ****     248,166, 68, 26,153,199, 37,123, 58,100,134,216, 91,  5,231,185,
 173:.\main.c      ****     140,210, 48,110,237,179, 81, 15, 78, 16,242,172, 47,113,147,205,
 174:.\main.c      ****     17, 79,173,243,112, 46,204,146,211,141,111, 49,178,236, 14, 80,
 175:.\main.c      ****     175,241, 19, 77,206,144,114, 44,109, 51,209,143, 12, 82,176,238,
 176:.\main.c      ****     50,108,142,208, 83, 13,239,177,240,174, 76, 18,145,207, 45,115,
 177:.\main.c      ****     202,148,118, 40,171,245, 23, 73,  8, 86,180,234,105, 55,213,139,
 178:.\main.c      ****     87,  9,235,181, 54,104,138,212,149,203, 41,119,244,170, 72, 22,
 179:.\main.c      ****     233,183, 85, 11,136,214, 52,106, 43,117,151,201, 74, 20,246,168,
 180:.\main.c      ****     116, 42,200,150, 21, 75,169,247,182,232, 10, 84,215,137,107, 53};	
 181:.\main.c      **** 	checksum=0;
 759              		.loc 1 181 0
 760 0026 0023     		movs	r3, #0
 761 0028 87F80F31 		strb	r3, [r7, #271]
 182:.\main.c      **** 	for(i=0;i<(size-1);i++){
 762              		.loc 1 182 0
 763 002c 0023     		movs	r3, #0
 764 002e A7F80C31 		strh	r3, [r7, #268]	@ movhi
 765 0032 16E0     		b	.L9
 766              	.L10:
 183:.\main.c      **** 		index = (uint8)(checksum ^ datos[i]);
 767              		.loc 1 183 0 discriminator 3
 768 0034 B7F80C31 		ldrh	r3, [r7, #268]
 769 0038 3A1D     		adds	r2, r7, #4
 770 003a 1268     		ldr	r2, [r2]
 771 003c 1344     		add	r3, r3, r2
 772 003e 1A78     		ldrb	r2, [r3]	@ zero_extendqisi2
 773 0040 97F80F31 		ldrb	r3, [r7, #271]
 774 0044 5340     		eors	r3, r3, r2
 775 0046 87F80B31 		strb	r3, [r7, #267]
 184:.\main.c      **** 		checksum = table[index];				
 776              		.loc 1 184 0 discriminator 3
ARM GAS  C:\Users\RECEPC~1\AppData\Local\Temp\ccVIJn7M.s 			page 18


 777 004a 97F80B31 		ldrb	r3, [r7, #267]	@ zero_extendqisi2
 778 004e 07F10802 		add	r2, r7, #8
 779 0052 D35C     		ldrb	r3, [r2, r3]
 780 0054 87F80F31 		strb	r3, [r7, #271]
 182:.\main.c      **** 	for(i=0;i<(size-1);i++){
 781              		.loc 1 182 0 discriminator 3
 782 0058 B7F80C31 		ldrh	r3, [r7, #268]
 783 005c 0133     		adds	r3, r3, #1
 784 005e A7F80C31 		strh	r3, [r7, #268]	@ movhi
 785              	.L9:
 182:.\main.c      **** 	for(i=0;i<(size-1);i++){
 786              		.loc 1 182 0 is_stmt 0 discriminator 1
 787 0062 B7F80C21 		ldrh	r2, [r7, #268]
 788 0066 BB1C     		adds	r3, r7, #2
 789 0068 1B88     		ldrh	r3, [r3]
 790 006a 013B     		subs	r3, r3, #1
 791 006c 9A42     		cmp	r2, r3
 792 006e E1DB     		blt	.L10
 185:.\main.c      **** 	}
 186:.\main.c      **** 	return checksum;
 793              		.loc 1 186 0 is_stmt 1
 794 0070 97F80F31 		ldrb	r3, [r7, #271]	@ zero_extendqisi2
 187:.\main.c      **** }
 795              		.loc 1 187 0
 796 0074 1846     		mov	r0, r3
 797 0076 07F58877 		add	r7, r7, #272
 798              		.cfi_def_cfa_offset 8
 799 007a BD46     		mov	sp, r7
 800              		.cfi_def_cfa_register 13
 801              		@ sp needed
 802 007c 80BD     		pop	{r7, pc}
 803              	.L13:
 804 007e 00BF     		.align	2
 805              	.L12:
 806 0080 00000000 		.word	.LC0
 807              		.cfi_endproc
 808              	.LFE64:
 809              		.size	verificar_check, .-verificar_check
 810              		.section	.text.error_op,"ax",%progbits
 811              		.align	2
 812              		.global	error_op
 813              		.thumb
 814              		.thumb_func
 815              		.type	error_op, %function
 816              	error_op:
 817              	.LFB65:
 188:.\main.c      **** 
 189:.\main.c      **** /*
 190:.\main.c      **** ***************************************************************************************************
 191:.\main.c      **** *                                         void error_op()
 192:.\main.c      **** *
 193:.\main.c      **** * Description : Muestra en la pantalla el mensaje de operación incorrecta y regresa al inicio del 
 194:.\main.c      **** *               
 195:.\main.c      **** *
 196:.\main.c      **** * Argument(s) : uint8 lcd, para elegir cual pantalla entra en esta función
 197:.\main.c      **** *
 198:.\main.c      **** * Return(s)   : none
ARM GAS  C:\Users\RECEPC~1\AppData\Local\Temp\ccVIJn7M.s 			page 19


 199:.\main.c      **** *
 200:.\main.c      **** * Caller(s)   : Desde cualquier momento de la operacion donde ocurra un error por parte del usuario
 201:.\main.c      **** *
 202:.\main.c      **** * Note(s)     : none.
 203:.\main.c      **** ***************************************************************************************************
 204:.\main.c      **** */
 205:.\main.c      **** void error_op(uint8 lcd, uint16 imagen){
 818              		.loc 1 205 0
 819              		.cfi_startproc
 820              		@ args = 0, pretend = 0, frame = 8
 821              		@ frame_needed = 1, uses_anonymous_args = 0
 822 0000 80B5     		push	{r7, lr}
 823              		.cfi_def_cfa_offset 8
 824              		.cfi_offset 7, -8
 825              		.cfi_offset 14, -4
 826 0002 82B0     		sub	sp, sp, #8
 827              		.cfi_def_cfa_offset 16
 828 0004 00AF     		add	r7, sp, #0
 829              		.cfi_def_cfa_register 7
 830 0006 0346     		mov	r3, r0
 831 0008 0A46     		mov	r2, r1
 832 000a FB71     		strb	r3, [r7, #7]
 833 000c 1346     		mov	r3, r2	@ movhi
 834 000e BB80     		strh	r3, [r7, #4]	@ movhi
 206:.\main.c      **** 	if(lcd==1){
 835              		.loc 1 206 0
 836 0010 FB79     		ldrb	r3, [r7, #7]	@ zero_extendqisi2
 837 0012 012B     		cmp	r3, #1
 838 0014 13D1     		bne	.L15
 207:.\main.c      **** 	   set_imagen(1,imagen);
 839              		.loc 1 207 0
 840 0016 BB88     		ldrh	r3, [r7, #4]
 841 0018 0120     		movs	r0, #1
 842 001a 1946     		mov	r1, r3
 843 001c FFF7FEFF 		bl	set_imagen
 208:.\main.c      **** 	   flujo_LCD1=100;
 844              		.loc 1 208 0
 845 0020 104B     		ldr	r3, .L17
 846 0022 6422     		movs	r2, #100
 847 0024 1A70     		strb	r2, [r3]
 209:.\main.c      **** 	   count_protector=1;
 848              		.loc 1 209 0
 849 0026 104B     		ldr	r3, .L17+4
 850 0028 0122     		movs	r2, #1
 851 002a 1A70     		strb	r2, [r3]
 210:.\main.c      ****        lado1.estado=libre;       
 852              		.loc 1 210 0
 853 002c 0F4B     		ldr	r3, .L17+8
 854 002e 0122     		movs	r2, #1
 855 0030 5A70     		strb	r2, [r3, #1]
 211:.\main.c      **** 	   isr_3_StartEx(animacion);  
 856              		.loc 1 211 0
 857 0032 0F48     		ldr	r0, .L17+12
 858 0034 FFF7FEFF 		bl	isr_3_StartEx
 212:.\main.c      **** 	   Timer_Animacion_Start();
 859              		.loc 1 212 0
 860 0038 FFF7FEFF 		bl	Timer_Animacion_Start
ARM GAS  C:\Users\RECEPC~1\AppData\Local\Temp\ccVIJn7M.s 			page 20


 861 003c 0FE0     		b	.L14
 862              	.L15:
 213:.\main.c      **** 	}
 214:.\main.c      **** 	else{
 215:.\main.c      **** 	    set_imagen(2,imagen);
 863              		.loc 1 215 0
 864 003e BB88     		ldrh	r3, [r7, #4]
 865 0040 0220     		movs	r0, #2
 866 0042 1946     		mov	r1, r3
 867 0044 FFF7FEFF 		bl	set_imagen
 216:.\main.c      **** 	    flujo_LCD2=100;
 868              		.loc 1 216 0
 869 0048 0A4B     		ldr	r3, .L17+16
 870 004a 6422     		movs	r2, #100
 871 004c 1A70     		strb	r2, [r3]
 217:.\main.c      **** 		count_protector2=1;
 872              		.loc 1 217 0
 873 004e 0A4B     		ldr	r3, .L17+20
 874 0050 0122     		movs	r2, #1
 875 0052 1A70     		strb	r2, [r3]
 218:.\main.c      **** 	    isr_4_StartEx(animacion2);  
 876              		.loc 1 218 0
 877 0054 0948     		ldr	r0, .L17+24
 878 0056 FFF7FEFF 		bl	isr_4_StartEx
 219:.\main.c      **** 	    Timer_Animacion2_Start();	
 879              		.loc 1 219 0
 880 005a FFF7FEFF 		bl	Timer_Animacion2_Start
 881              	.L14:
 220:.\main.c      **** 	}
 221:.\main.c      **** }
 882              		.loc 1 221 0
 883 005e 0837     		adds	r7, r7, #8
 884              		.cfi_def_cfa_offset 8
 885 0060 BD46     		mov	sp, r7
 886              		.cfi_def_cfa_register 13
 887              		@ sp needed
 888 0062 80BD     		pop	{r7, pc}
 889              	.L18:
 890              		.align	2
 891              	.L17:
 892 0064 00000000 		.word	flujo_LCD1
 893 0068 00000000 		.word	count_protector
 894 006c 00000000 		.word	lado1
 895 0070 00000000 		.word	animacion
 896 0074 00000000 		.word	flujo_LCD2
 897 0078 00000000 		.word	count_protector2
 898 007c 00000000 		.word	animacion2
 899              		.cfi_endproc
 900              	.LFE65:
 901              		.size	error_op, .-error_op
 902              		.section	.text.init_surt,"ax",%progbits
 903              		.align	2
 904              		.global	init_surt
 905              		.thumb
 906              		.thumb_func
 907              		.type	init_surt, %function
 908              	init_surt:
ARM GAS  C:\Users\RECEPC~1\AppData\Local\Temp\ccVIJn7M.s 			page 21


 909              	.LFB66:
 222:.\main.c      **** 
 223:.\main.c      **** /*
 224:.\main.c      **** ***************************************************************************************************
 225:.\main.c      **** *                                         init_surt( void )
 226:.\main.c      **** *
 227:.\main.c      **** * Description : Busca las posiciones del surtidor y las graba en lado.lado1.dir y lado.lado2.dir
 228:.\main.c      **** *               
 229:.\main.c      **** *
 230:.\main.c      **** * Argument(s) : none
 231:.\main.c      **** *
 232:.\main.c      **** * Return(s)   : none
 233:.\main.c      **** *
 234:.\main.c      **** * Caller(s)   : main()
 235:.\main.c      **** *
 236:.\main.c      **** * Note(s)     : Falta generar codigo para los casos 1 y 2
 237:.\main.c      **** ***************************************************************************************************
 238:.\main.c      **** */
 239:.\main.c      **** void init_surt(void){
 910              		.loc 1 239 0
 911              		.cfi_startproc
 912              		@ args = 0, pretend = 0, frame = 8
 913              		@ frame_needed = 1, uses_anonymous_args = 0
 914 0000 80B5     		push	{r7, lr}
 915              		.cfi_def_cfa_offset 8
 916              		.cfi_offset 7, -8
 917              		.cfi_offset 14, -4
 918 0002 82B0     		sub	sp, sp, #8
 919              		.cfi_def_cfa_offset 16
 920 0004 00AF     		add	r7, sp, #0
 921              		.cfi_def_cfa_register 7
 240:.\main.c      **** 	uint8 estado, ok=0;
 922              		.loc 1 240 0
 923 0006 0023     		movs	r3, #0
 924 0008 FB71     		strb	r3, [r7, #7]
 241:.\main.c      **** 	while(ok<=1){
 925              		.loc 1 241 0
 926 000a 80E1     		b	.L20
 927              	.L49:
 242:.\main.c      **** 		ok=0;
 928              		.loc 1 242 0
 929 000c 0023     		movs	r3, #0
 930 000e FB71     		strb	r3, [r7, #7]
 243:.\main.c      **** 		if((lado1.dir==0xFF)||(lado2.dir==0xFF)){
 931              		.loc 1 243 0
 932 0010 C24B     		ldr	r3, .L50
 933 0012 1B78     		ldrb	r3, [r3]
 934 0014 DBB2     		uxtb	r3, r3
 935 0016 FF2B     		cmp	r3, #255
 936 0018 04D0     		beq	.L21
 937              		.loc 1 243 0 is_stmt 0 discriminator 1
 938 001a C14B     		ldr	r3, .L50+4
 939 001c 1B78     		ldrb	r3, [r3]
 940 001e DBB2     		uxtb	r3, r3
 941 0020 FF2B     		cmp	r3, #255
 942 0022 58D1     		bne	.L22
 943              	.L21:
ARM GAS  C:\Users\RECEPC~1\AppData\Local\Temp\ccVIJn7M.s 			page 22


 244:.\main.c      **** 			while(ver_pos()==0){};
 944              		.loc 1 244 0 is_stmt 1
 945 0024 00BF     		nop
 946              	.L23:
 947              		.loc 1 244 0 is_stmt 0 discriminator 1
 948 0026 FFF7FEFF 		bl	ver_pos
 949 002a 0346     		mov	r3, r0
 950 002c 002B     		cmp	r3, #0
 951 002e FAD0     		beq	.L23
 245:.\main.c      **** 		    while(totales(lado1.dir, lado1.mangueras)==0);			
 952              		.loc 1 245 0 is_stmt 1
 953 0030 00BF     		nop
 954              	.L24:
 955              		.loc 1 245 0 is_stmt 0 discriminator 1
 956 0032 BA4B     		ldr	r3, .L50
 957 0034 1B78     		ldrb	r3, [r3]
 958 0036 DAB2     		uxtb	r2, r3
 959 0038 B84B     		ldr	r3, .L50
 960 003a 93F85C30 		ldrb	r3, [r3, #92]
 961 003e DBB2     		uxtb	r3, r3
 962 0040 1046     		mov	r0, r2
 963 0042 1946     		mov	r1, r3
 964 0044 FFF7FEFF 		bl	totales
 965 0048 0346     		mov	r3, r0
 966 004a 002B     		cmp	r3, #0
 967 004c F1D0     		beq	.L24
 246:.\main.c      **** 			CyDelay(50);	
 968              		.loc 1 246 0 is_stmt 1
 969 004e 3220     		movs	r0, #50
 970 0050 FFF7FEFF 		bl	CyDelay
 247:.\main.c      **** 			while(totales(lado2.dir, lado2.mangueras)==0);
 971              		.loc 1 247 0
 972 0054 00BF     		nop
 973              	.L25:
 974              		.loc 1 247 0 is_stmt 0 discriminator 1
 975 0056 B24B     		ldr	r3, .L50+4
 976 0058 1B78     		ldrb	r3, [r3]
 977 005a DAB2     		uxtb	r2, r3
 978 005c B04B     		ldr	r3, .L50+4
 979 005e 93F85C30 		ldrb	r3, [r3, #92]
 980 0062 DBB2     		uxtb	r3, r3
 981 0064 1046     		mov	r0, r2
 982 0066 1946     		mov	r1, r3
 983 0068 FFF7FEFF 		bl	totales
 984 006c 0346     		mov	r3, r0
 985 006e 002B     		cmp	r3, #0
 986 0070 F1D0     		beq	.L25
 248:.\main.c      **** 			CyDelay(50);	
 987              		.loc 1 248 0 is_stmt 1
 988 0072 3220     		movs	r0, #50
 989 0074 FFF7FEFF 		bl	CyDelay
 249:.\main.c      **** 			if(EEPROM_WriteByte(lado1.dir, 26)==CYRET_SUCCESS){
 990              		.loc 1 249 0
 991 0078 A84B     		ldr	r3, .L50
 992 007a 1B78     		ldrb	r3, [r3]
 993 007c DBB2     		uxtb	r3, r3
 994 007e 1846     		mov	r0, r3
ARM GAS  C:\Users\RECEPC~1\AppData\Local\Temp\ccVIJn7M.s 			page 23


 995 0080 1A21     		movs	r1, #26
 996 0082 FFF7FEFF 		bl	EEPROM_WriteByte
 997 0086 0346     		mov	r3, r0
 998 0088 002B     		cmp	r3, #0
 999 008a 04D1     		bne	.L26
 250:.\main.c      **** 				set_imagen(1,60);								
 1000              		.loc 1 250 0
 1001 008c 0120     		movs	r0, #1
 1002 008e 3C21     		movs	r1, #60
 1003 0090 FFF7FEFF 		bl	set_imagen
 1004 0094 03E0     		b	.L27
 1005              	.L26:
 251:.\main.c      **** 			}
 252:.\main.c      **** 			else{
 253:.\main.c      **** 				set_imagen(1,85);
 1006              		.loc 1 253 0
 1007 0096 0120     		movs	r0, #1
 1008 0098 5521     		movs	r1, #85
 1009 009a FFF7FEFF 		bl	set_imagen
 1010              	.L27:
 254:.\main.c      **** 			}
 255:.\main.c      **** 			if(EEPROM_WriteByte(lado2.dir, 28)==CYRET_SUCCESS){
 1011              		.loc 1 255 0
 1012 009e A04B     		ldr	r3, .L50+4
 1013 00a0 1B78     		ldrb	r3, [r3]
 1014 00a2 DBB2     		uxtb	r3, r3
 1015 00a4 1846     		mov	r0, r3
 1016 00a6 1C21     		movs	r1, #28
 1017 00a8 FFF7FEFF 		bl	EEPROM_WriteByte
 1018 00ac 0346     		mov	r3, r0
 1019 00ae 002B     		cmp	r3, #0
 1020 00b0 04D1     		bne	.L28
 256:.\main.c      **** 				set_imagen(2,60);								
 1021              		.loc 1 256 0
 1022 00b2 0220     		movs	r0, #2
 1023 00b4 3C21     		movs	r1, #60
 1024 00b6 FFF7FEFF 		bl	set_imagen
 1025 00ba 03E0     		b	.L29
 1026              	.L28:
 257:.\main.c      **** 			}
 258:.\main.c      **** 			else{
 259:.\main.c      **** 				set_imagen(2,85);
 1027              		.loc 1 259 0
 1028 00bc 0220     		movs	r0, #2
 1029 00be 5521     		movs	r1, #85
 1030 00c0 FFF7FEFF 		bl	set_imagen
 1031              	.L29:
 260:.\main.c      **** 			}
 261:.\main.c      **** 			flujo_LCD2=0;
 1032              		.loc 1 261 0
 1033 00c4 974B     		ldr	r3, .L50+8
 1034 00c6 0022     		movs	r2, #0
 1035 00c8 1A70     		strb	r2, [r3]
 262:.\main.c      **** 			flujo_LCD1=0;			
 1036              		.loc 1 262 0
 1037 00ca 974B     		ldr	r3, .L50+12
 1038 00cc 0022     		movs	r2, #0
ARM GAS  C:\Users\RECEPC~1\AppData\Local\Temp\ccVIJn7M.s 			page 24


 1039 00ce 1A70     		strb	r2, [r3]
 263:.\main.c      **** 			ok=2;	
 1040              		.loc 1 263 0
 1041 00d0 0223     		movs	r3, #2
 1042 00d2 FB71     		strb	r3, [r7, #7]
 1043 00d4 1BE1     		b	.L20
 1044              	.L22:
 264:.\main.c      **** 		}
 265:.\main.c      **** 		else{
 266:.\main.c      **** 			estado=get_estado(lado1.dir);										
 1045              		.loc 1 266 0
 1046 00d6 914B     		ldr	r3, .L50
 1047 00d8 1B78     		ldrb	r3, [r3]
 1048 00da DBB2     		uxtb	r3, r3
 1049 00dc 1846     		mov	r0, r3
 1050 00de FFF7FEFF 		bl	get_estado
 1051 00e2 0346     		mov	r3, r0
 1052 00e4 BB71     		strb	r3, [r7, #6]
 267:.\main.c      **** 			switch(estado){
 1053              		.loc 1 267 0
 1054 00e6 BB79     		ldrb	r3, [r7, #6]	@ zero_extendqisi2
 1055 00e8 0C2B     		cmp	r3, #12
 1056 00ea 7ED8     		bhi	.L30
 1057 00ec 01A2     		adr	r2, .L32
 1058 00ee 52F823F0 		ldr	pc, [r2, r3, lsl #2]
 1059 00f2 00BF     		.p2align 2
 1060              	.L32:
 1061 00f4 29010000 		.word	.L31+1
 1062 00f8 EB010000 		.word	.L30+1
 1063 00fc EB010000 		.word	.L30+1
 1064 0100 EB010000 		.word	.L30+1
 1065 0104 EB010000 		.word	.L30+1
 1066 0108 EB010000 		.word	.L30+1
 1067 010c 31010000 		.word	.L33+1
 1068 0110 6D010000 		.word	.L34+1
 1069 0114 97010000 		.word	.L35+1
 1070 0118 AB010000 		.word	.L36+1
 1071 011c C7010000 		.word	.L37+1
 1072 0120 B9010000 		.word	.L38+1
 1073 0124 D5010000 		.word	.L39+1
 1074              		.p2align 1
 1075              	.L31:
 268:.\main.c      **** 		         case 0:                     
 269:.\main.c      **** 					lado1.dir=0xFF;
 1076              		.loc 1 269 0
 1077 0128 7C4B     		ldr	r3, .L50
 1078 012a FF22     		movs	r2, #255
 1079 012c 1A70     		strb	r2, [r3]
 270:.\main.c      **** 				 break;	
 1080              		.loc 1 270 0
 1081 012e 5CE0     		b	.L30
 1082              	.L33:
 271:.\main.c      **** 			
 272:.\main.c      **** 				case 0x06:
 273:.\main.c      **** 					venta(lado1.dir);
 1083              		.loc 1 273 0
 1084 0130 7A4B     		ldr	r3, .L50
ARM GAS  C:\Users\RECEPC~1\AppData\Local\Temp\ccVIJn7M.s 			page 25


 1085 0132 1B78     		ldrb	r3, [r3]
 1086 0134 DBB2     		uxtb	r3, r3
 1087 0136 1846     		mov	r0, r3
 1088 0138 FFF7FEFF 		bl	venta
 274:.\main.c      **** 					CyDelay(50);	
 1089              		.loc 1 274 0
 1090 013c 3220     		movs	r0, #50
 1091 013e FFF7FEFF 		bl	CyDelay
 275:.\main.c      **** 					totales(lado1.dir, lado1.mangueras);
 1092              		.loc 1 275 0
 1093 0142 764B     		ldr	r3, .L50
 1094 0144 1B78     		ldrb	r3, [r3]
 1095 0146 DAB2     		uxtb	r2, r3
 1096 0148 744B     		ldr	r3, .L50
 1097 014a 93F85C30 		ldrb	r3, [r3, #92]
 1098 014e DBB2     		uxtb	r3, r3
 1099 0150 1046     		mov	r0, r2
 1100 0152 1946     		mov	r1, r3
 1101 0154 FFF7FEFF 		bl	totales
 276:.\main.c      **** 					CyDelay(50);	
 1102              		.loc 1 276 0
 1103 0158 3220     		movs	r0, #50
 1104 015a FFF7FEFF 		bl	CyDelay
 277:.\main.c      **** 					flujo_LCD1=0;					
 1105              		.loc 1 277 0
 1106 015e 724B     		ldr	r3, .L50+12
 1107 0160 0022     		movs	r2, #0
 1108 0162 1A70     		strb	r2, [r3]
 278:.\main.c      **** 					ok++;
 1109              		.loc 1 278 0
 1110 0164 FB79     		ldrb	r3, [r7, #7]	@ zero_extendqisi2
 1111 0166 0133     		adds	r3, r3, #1
 1112 0168 FB71     		strb	r3, [r7, #7]
 279:.\main.c      **** 				break;
 1113              		.loc 1 279 0
 1114 016a 3EE0     		b	.L30
 1115              	.L34:
 280:.\main.c      **** 					
 281:.\main.c      **** 				case 0x07:	
 282:.\main.c      **** 					totales(lado1.dir, lado1.mangueras);
 1116              		.loc 1 282 0
 1117 016c 6B4B     		ldr	r3, .L50
 1118 016e 1B78     		ldrb	r3, [r3]
 1119 0170 DAB2     		uxtb	r2, r3
 1120 0172 6A4B     		ldr	r3, .L50
 1121 0174 93F85C30 		ldrb	r3, [r3, #92]
 1122 0178 DBB2     		uxtb	r3, r3
 1123 017a 1046     		mov	r0, r2
 1124 017c 1946     		mov	r1, r3
 1125 017e FFF7FEFF 		bl	totales
 283:.\main.c      **** 					CyDelay(50);	
 1126              		.loc 1 283 0
 1127 0182 3220     		movs	r0, #50
 1128 0184 FFF7FEFF 		bl	CyDelay
 284:.\main.c      **** 					flujo_LCD1=0;					
 1129              		.loc 1 284 0
 1130 0188 674B     		ldr	r3, .L50+12
ARM GAS  C:\Users\RECEPC~1\AppData\Local\Temp\ccVIJn7M.s 			page 26


 1131 018a 0022     		movs	r2, #0
 1132 018c 1A70     		strb	r2, [r3]
 285:.\main.c      **** 					ok++;
 1133              		.loc 1 285 0
 1134 018e FB79     		ldrb	r3, [r7, #7]	@ zero_extendqisi2
 1135 0190 0133     		adds	r3, r3, #1
 1136 0192 FB71     		strb	r3, [r7, #7]
 286:.\main.c      **** 				break;
 1137              		.loc 1 286 0
 1138 0194 29E0     		b	.L30
 1139              	.L35:
 287:.\main.c      **** 				
 288:.\main.c      **** 				case 0x08:
 289:.\main.c      **** 			     	flujo_LCD1=8;
 1140              		.loc 1 289 0
 1141 0196 644B     		ldr	r3, .L50+12
 1142 0198 0822     		movs	r2, #8
 1143 019a 1A70     		strb	r2, [r3]
 290:.\main.c      ****                     seleccion_pos = 1;
 1144              		.loc 1 290 0
 1145 019c 634B     		ldr	r3, .L50+16
 1146 019e 0122     		movs	r2, #1
 1147 01a0 1A70     		strb	r2, [r3]
 291:.\main.c      **** 					ok++;
 1148              		.loc 1 291 0
 1149 01a2 FB79     		ldrb	r3, [r7, #7]	@ zero_extendqisi2
 1150 01a4 0133     		adds	r3, r3, #1
 1151 01a6 FB71     		strb	r3, [r7, #7]
 292:.\main.c      **** 				break;
 1152              		.loc 1 292 0
 1153 01a8 1FE0     		b	.L30
 1154              	.L36:
 293:.\main.c      **** 					
 294:.\main.c      **** 				case 0x09:
 295:.\main.c      **** 			     	flujo_LCD1=11;
 1155              		.loc 1 295 0
 1156 01aa 5F4B     		ldr	r3, .L50+12
 1157 01ac 0B22     		movs	r2, #11
 1158 01ae 1A70     		strb	r2, [r3]
 296:.\main.c      **** 					ok++;
 1159              		.loc 1 296 0
 1160 01b0 FB79     		ldrb	r3, [r7, #7]	@ zero_extendqisi2
 1161 01b2 0133     		adds	r3, r3, #1
 1162 01b4 FB71     		strb	r3, [r7, #7]
 297:.\main.c      **** 				break;
 1163              		.loc 1 297 0
 1164 01b6 18E0     		b	.L30
 1165              	.L38:
 298:.\main.c      **** 				
 299:.\main.c      **** 		         case 0x0B:                     //Termino venta
 300:.\main.c      **** 					flujo_LCD1=12;
 1166              		.loc 1 300 0
 1167 01b8 5B4B     		ldr	r3, .L50+12
 1168 01ba 0C22     		movs	r2, #12
 1169 01bc 1A70     		strb	r2, [r3]
 301:.\main.c      **** 					ok++;
 1170              		.loc 1 301 0
ARM GAS  C:\Users\RECEPC~1\AppData\Local\Temp\ccVIJn7M.s 			page 27


 1171 01be FB79     		ldrb	r3, [r7, #7]	@ zero_extendqisi2
 1172 01c0 0133     		adds	r3, r3, #1
 1173 01c2 FB71     		strb	r3, [r7, #7]
 302:.\main.c      **** 				 break;	
 1174              		.loc 1 302 0
 1175 01c4 11E0     		b	.L30
 1176              	.L37:
 303:.\main.c      **** 					
 304:.\main.c      **** 		         case 0x0A:						//Termino venta
 305:.\main.c      **** 					flujo_LCD1=12;
 1177              		.loc 1 305 0
 1178 01c6 584B     		ldr	r3, .L50+12
 1179 01c8 0C22     		movs	r2, #12
 1180 01ca 1A70     		strb	r2, [r3]
 306:.\main.c      **** 					ok++;
 1181              		.loc 1 306 0
 1182 01cc FB79     		ldrb	r3, [r7, #7]	@ zero_extendqisi2
 1183 01ce 0133     		adds	r3, r3, #1
 1184 01d0 FB71     		strb	r3, [r7, #7]
 307:.\main.c      **** 				 break;
 1185              		.loc 1 307 0
 1186 01d2 0AE0     		b	.L30
 1187              	.L39:
 308:.\main.c      **** 					
 309:.\main.c      **** 		         case 0x0C:						//Bloqueado por surtiendo al iniciar
 310:.\main.c      **** 			     	flujo_LCD1=11;
 1188              		.loc 1 310 0
 1189 01d4 544B     		ldr	r3, .L50+12
 1190 01d6 0B22     		movs	r2, #11
 1191 01d8 1A70     		strb	r2, [r3]
 311:.\main.c      **** 				 	set_imagen(1,8);
 1192              		.loc 1 311 0
 1193 01da 0120     		movs	r0, #1
 1194 01dc 0821     		movs	r1, #8
 1195 01de FFF7FEFF 		bl	set_imagen
 312:.\main.c      **** 					ok++;
 1196              		.loc 1 312 0
 1197 01e2 FB79     		ldrb	r3, [r7, #7]	@ zero_extendqisi2
 1198 01e4 0133     		adds	r3, r3, #1
 1199 01e6 FB71     		strb	r3, [r7, #7]
 313:.\main.c      **** 				 break;					
 1200              		.loc 1 313 0
 1201 01e8 00BF     		nop
 1202              	.L30:
 314:.\main.c      **** 					
 315:.\main.c      **** 			}
 316:.\main.c      **** 			estado=get_estado(lado2.dir);										
 1203              		.loc 1 316 0
 1204 01ea 4D4B     		ldr	r3, .L50+4
 1205 01ec 1B78     		ldrb	r3, [r3]
 1206 01ee DBB2     		uxtb	r3, r3
 1207 01f0 1846     		mov	r0, r3
 1208 01f2 FFF7FEFF 		bl	get_estado
 1209 01f6 0346     		mov	r3, r0
 1210 01f8 BB71     		strb	r3, [r7, #6]
 317:.\main.c      **** 			switch(estado){
 1211              		.loc 1 317 0
ARM GAS  C:\Users\RECEPC~1\AppData\Local\Temp\ccVIJn7M.s 			page 28


 1212 01fa BB79     		ldrb	r3, [r7, #6]	@ zero_extendqisi2
 1213 01fc 0C2B     		cmp	r3, #12
 1214 01fe 00F28680 		bhi	.L20
 1215 0202 01A2     		adr	r2, .L41
 1216 0204 52F823F0 		ldr	pc, [r2, r3, lsl #2]
 1217              		.p2align 2
 1218              	.L41:
 1219 0208 3D020000 		.word	.L40+1
 1220 020c 0F030000 		.word	.L20+1
 1221 0210 0F030000 		.word	.L20+1
 1222 0214 0F030000 		.word	.L20+1
 1223 0218 0F030000 		.word	.L20+1
 1224 021c 0F030000 		.word	.L20+1
 1225 0220 45020000 		.word	.L42+1
 1226 0224 81020000 		.word	.L43+1
 1227 0228 AB020000 		.word	.L44+1
 1228 022c C7020000 		.word	.L45+1
 1229 0230 EB020000 		.word	.L46+1
 1230 0234 DD020000 		.word	.L47+1
 1231 0238 F9020000 		.word	.L48+1
 1232              		.p2align 1
 1233              	.L40:
 318:.\main.c      **** 		         case 0:                     
 319:.\main.c      **** 					lado2.dir=0xFF;
 1234              		.loc 1 319 0
 1235 023c 384B     		ldr	r3, .L50+4
 1236 023e FF22     		movs	r2, #255
 1237 0240 1A70     		strb	r2, [r3]
 320:.\main.c      **** 				 break;	
 1238              		.loc 1 320 0
 1239 0242 64E0     		b	.L20
 1240              	.L42:
 321:.\main.c      **** 			
 322:.\main.c      **** 				case 0x06:
 323:.\main.c      **** 					venta(lado2.dir);
 1241              		.loc 1 323 0
 1242 0244 364B     		ldr	r3, .L50+4
 1243 0246 1B78     		ldrb	r3, [r3]
 1244 0248 DBB2     		uxtb	r3, r3
 1245 024a 1846     		mov	r0, r3
 1246 024c FFF7FEFF 		bl	venta
 324:.\main.c      **** 					CyDelay(50);		
 1247              		.loc 1 324 0
 1248 0250 3220     		movs	r0, #50
 1249 0252 FFF7FEFF 		bl	CyDelay
 325:.\main.c      **** 					totales(lado2.dir, lado2.mangueras);
 1250              		.loc 1 325 0
 1251 0256 324B     		ldr	r3, .L50+4
 1252 0258 1B78     		ldrb	r3, [r3]
 1253 025a DAB2     		uxtb	r2, r3
 1254 025c 304B     		ldr	r3, .L50+4
 1255 025e 93F85C30 		ldrb	r3, [r3, #92]
 1256 0262 DBB2     		uxtb	r3, r3
 1257 0264 1046     		mov	r0, r2
 1258 0266 1946     		mov	r1, r3
 1259 0268 FFF7FEFF 		bl	totales
 326:.\main.c      **** 					CyDelay(50);	
ARM GAS  C:\Users\RECEPC~1\AppData\Local\Temp\ccVIJn7M.s 			page 29


 1260              		.loc 1 326 0
 1261 026c 3220     		movs	r0, #50
 1262 026e FFF7FEFF 		bl	CyDelay
 327:.\main.c      **** 					flujo_LCD2=0;				
 1263              		.loc 1 327 0
 1264 0272 2C4B     		ldr	r3, .L50+8
 1265 0274 0022     		movs	r2, #0
 1266 0276 1A70     		strb	r2, [r3]
 328:.\main.c      **** 					ok++;
 1267              		.loc 1 328 0
 1268 0278 FB79     		ldrb	r3, [r7, #7]	@ zero_extendqisi2
 1269 027a 0133     		adds	r3, r3, #1
 1270 027c FB71     		strb	r3, [r7, #7]
 329:.\main.c      **** 				break;
 1271              		.loc 1 329 0
 1272 027e 46E0     		b	.L20
 1273              	.L43:
 330:.\main.c      **** 					
 331:.\main.c      **** 				case 0x07:	
 332:.\main.c      **** 					totales(lado2.dir, lado2.mangueras);
 1274              		.loc 1 332 0
 1275 0280 274B     		ldr	r3, .L50+4
 1276 0282 1B78     		ldrb	r3, [r3]
 1277 0284 DAB2     		uxtb	r2, r3
 1278 0286 264B     		ldr	r3, .L50+4
 1279 0288 93F85C30 		ldrb	r3, [r3, #92]
 1280 028c DBB2     		uxtb	r3, r3
 1281 028e 1046     		mov	r0, r2
 1282 0290 1946     		mov	r1, r3
 1283 0292 FFF7FEFF 		bl	totales
 333:.\main.c      **** 					CyDelay(50);	
 1284              		.loc 1 333 0
 1285 0296 3220     		movs	r0, #50
 1286 0298 FFF7FEFF 		bl	CyDelay
 334:.\main.c      **** 					flujo_LCD2=0;					
 1287              		.loc 1 334 0
 1288 029c 214B     		ldr	r3, .L50+8
 1289 029e 0022     		movs	r2, #0
 1290 02a0 1A70     		strb	r2, [r3]
 335:.\main.c      **** 					ok++;
 1291              		.loc 1 335 0
 1292 02a2 FB79     		ldrb	r3, [r7, #7]	@ zero_extendqisi2
 1293 02a4 0133     		adds	r3, r3, #1
 1294 02a6 FB71     		strb	r3, [r7, #7]
 336:.\main.c      **** 				break;
 1295              		.loc 1 336 0
 1296 02a8 31E0     		b	.L20
 1297              	.L44:
 337:.\main.c      **** 				
 338:.\main.c      **** 				case 0x08:
 339:.\main.c      **** 			     	flujo_LCD2=8;
 1298              		.loc 1 339 0
 1299 02aa 1E4B     		ldr	r3, .L50+8
 1300 02ac 0822     		movs	r2, #8
 1301 02ae 1A70     		strb	r2, [r3]
 340:.\main.c      ****                     seleccion_pos =2;
 1302              		.loc 1 340 0
ARM GAS  C:\Users\RECEPC~1\AppData\Local\Temp\ccVIJn7M.s 			page 30


 1303 02b0 1E4B     		ldr	r3, .L50+16
 1304 02b2 0222     		movs	r2, #2
 1305 02b4 1A70     		strb	r2, [r3]
 341:.\main.c      **** 				 	set_imagen(2,8);
 1306              		.loc 1 341 0
 1307 02b6 0220     		movs	r0, #2
 1308 02b8 0821     		movs	r1, #8
 1309 02ba FFF7FEFF 		bl	set_imagen
 342:.\main.c      **** 					ok++;
 1310              		.loc 1 342 0
 1311 02be FB79     		ldrb	r3, [r7, #7]	@ zero_extendqisi2
 1312 02c0 0133     		adds	r3, r3, #1
 1313 02c2 FB71     		strb	r3, [r7, #7]
 343:.\main.c      **** 				break;
 1314              		.loc 1 343 0
 1315 02c4 23E0     		b	.L20
 1316              	.L45:
 344:.\main.c      **** 					
 345:.\main.c      **** 				case 0x09:
 346:.\main.c      **** 			     	flujo_LCD2=11;
 1317              		.loc 1 346 0
 1318 02c6 174B     		ldr	r3, .L50+8
 1319 02c8 0B22     		movs	r2, #11
 1320 02ca 1A70     		strb	r2, [r3]
 347:.\main.c      **** 				 	set_imagen(2,8);
 1321              		.loc 1 347 0
 1322 02cc 0220     		movs	r0, #2
 1323 02ce 0821     		movs	r1, #8
 1324 02d0 FFF7FEFF 		bl	set_imagen
 348:.\main.c      **** 					ok++;
 1325              		.loc 1 348 0
 1326 02d4 FB79     		ldrb	r3, [r7, #7]	@ zero_extendqisi2
 1327 02d6 0133     		adds	r3, r3, #1
 1328 02d8 FB71     		strb	r3, [r7, #7]
 349:.\main.c      **** 				break;
 1329              		.loc 1 349 0
 1330 02da 18E0     		b	.L20
 1331              	.L47:
 350:.\main.c      **** 				
 351:.\main.c      **** 		         case 0x0B:                     //Termino venta
 352:.\main.c      **** 					flujo_LCD2=12;
 1332              		.loc 1 352 0
 1333 02dc 114B     		ldr	r3, .L50+8
 1334 02de 0C22     		movs	r2, #12
 1335 02e0 1A70     		strb	r2, [r3]
 353:.\main.c      **** 					ok++;
 1336              		.loc 1 353 0
 1337 02e2 FB79     		ldrb	r3, [r7, #7]	@ zero_extendqisi2
 1338 02e4 0133     		adds	r3, r3, #1
 1339 02e6 FB71     		strb	r3, [r7, #7]
 354:.\main.c      **** 				 break;	
 1340              		.loc 1 354 0
 1341 02e8 11E0     		b	.L20
 1342              	.L46:
 355:.\main.c      **** 					
 356:.\main.c      **** 		         case 0x0A:						//Termino venta
 357:.\main.c      **** 					flujo_LCD2=12;
ARM GAS  C:\Users\RECEPC~1\AppData\Local\Temp\ccVIJn7M.s 			page 31


 1343              		.loc 1 357 0
 1344 02ea 0E4B     		ldr	r3, .L50+8
 1345 02ec 0C22     		movs	r2, #12
 1346 02ee 1A70     		strb	r2, [r3]
 358:.\main.c      **** 					ok++;
 1347              		.loc 1 358 0
 1348 02f0 FB79     		ldrb	r3, [r7, #7]	@ zero_extendqisi2
 1349 02f2 0133     		adds	r3, r3, #1
 1350 02f4 FB71     		strb	r3, [r7, #7]
 359:.\main.c      **** 				 break;
 1351              		.loc 1 359 0
 1352 02f6 0AE0     		b	.L20
 1353              	.L48:
 360:.\main.c      **** 					
 361:.\main.c      **** 		         case 0x0C:						//Bloqueado por surtiendo al iniciar
 362:.\main.c      **** 			     	flujo_LCD2=11;
 1354              		.loc 1 362 0
 1355 02f8 0A4B     		ldr	r3, .L50+8
 1356 02fa 0B22     		movs	r2, #11
 1357 02fc 1A70     		strb	r2, [r3]
 363:.\main.c      **** 				 	set_imagen(2,8);
 1358              		.loc 1 363 0
 1359 02fe 0220     		movs	r0, #2
 1360 0300 0821     		movs	r1, #8
 1361 0302 FFF7FEFF 		bl	set_imagen
 364:.\main.c      **** 					ok++;
 1362              		.loc 1 364 0
 1363 0306 FB79     		ldrb	r3, [r7, #7]	@ zero_extendqisi2
 1364 0308 0133     		adds	r3, r3, #1
 1365 030a FB71     		strb	r3, [r7, #7]
 365:.\main.c      **** 				 break;										
 1366              		.loc 1 365 0
 1367 030c 00BF     		nop
 1368              	.L20:
 241:.\main.c      **** 		ok=0;
 1369              		.loc 1 241 0
 1370 030e FB79     		ldrb	r3, [r7, #7]	@ zero_extendqisi2
 1371 0310 012B     		cmp	r3, #1
 1372 0312 7FF67BAE 		bls	.L49
 366:.\main.c      **** 			}			
 367:.\main.c      **** 		}
 368:.\main.c      **** 	}
 369:.\main.c      **** }
 1373              		.loc 1 369 0
 1374 0316 0837     		adds	r7, r7, #8
 1375              		.cfi_def_cfa_offset 8
 1376 0318 BD46     		mov	sp, r7
 1377              		.cfi_def_cfa_register 13
 1378              		@ sp needed
 1379 031a 80BD     		pop	{r7, pc}
 1380              	.L51:
 1381              		.align	2
 1382              	.L50:
 1383 031c 00000000 		.word	lado1
 1384 0320 00000000 		.word	lado2
 1385 0324 00000000 		.word	flujo_LCD2
 1386 0328 00000000 		.word	flujo_LCD1
ARM GAS  C:\Users\RECEPC~1\AppData\Local\Temp\ccVIJn7M.s 			page 32


 1387 032c 00000000 		.word	seleccion_pos
 1388              		.cfi_endproc
 1389              	.LFE66:
 1390              		.size	init_surt, .-init_surt
 1391              		.section	.text.polling_rf,"ax",%progbits
 1392              		.align	2
 1393              		.global	polling_rf
 1394              		.thumb
 1395              		.thumb_func
 1396              		.type	polling_rf, %function
 1397              	polling_rf:
 1398              	.LFB67:
 370:.\main.c      **** 
 371:.\main.c      **** /*
 372:.\main.c      **** ***************************************************************************************************
 373:.\main.c      **** *                                         uint8 polling_rf(void)
 374:.\main.c      **** *
 375:.\main.c      **** * Description : 
 376:.\main.c      **** *               
 377:.\main.c      **** *
 378:.\main.c      **** * Argument(s) : none
 379:.\main.c      **** *
 380:.\main.c      **** * Return(s)   : none
 381:.\main.c      **** *
 382:.\main.c      **** * Caller(s)   : 
 383:.\main.c      **** *
 384:.\main.c      **** * Note(s)     : none.
 385:.\main.c      **** ***************************************************************************************************
 386:.\main.c      **** */
 387:.\main.c      **** void polling_rf(void){
 1399              		.loc 1 387 0
 1400              		.cfi_startproc
 1401              		@ args = 0, pretend = 0, frame = 24
 1402              		@ frame_needed = 1, uses_anonymous_args = 0
 1403 0000 80B5     		push	{r7, lr}
 1404              		.cfi_def_cfa_offset 8
 1405              		.cfi_offset 7, -8
 1406              		.cfi_offset 14, -4
 1407 0002 86B0     		sub	sp, sp, #24
 1408              		.cfi_def_cfa_offset 32
 1409 0004 00AF     		add	r7, sp, #0
 1410              		.cfi_def_cfa_register 7
 388:.\main.c      **** 	uint16 status1, status2,size,x,t_preset;
 389:.\main.c      **** 	uint8  precio[5],preset[8];
 390:.\main.c      ****     
 391:.\main.c      **** 	if(PC_GetRxBufferSize()>=6){
 1411              		.loc 1 391 0
 1412 0006 FFF7FEFF 		bl	PC_GetRxBufferSize
 1413 000a 0346     		mov	r3, r0
 1414 000c 052B     		cmp	r3, #5
 1415 000e 40F28C85 		bls	.L52
 392:.\main.c      **** 		status1=PC_GetRxBufferSize();
 1416              		.loc 1 392 0
 1417 0012 FFF7FEFF 		bl	PC_GetRxBufferSize
 1418 0016 0346     		mov	r3, r0
 1419 0018 3B82     		strh	r3, [r7, #16]	@ movhi
 393:.\main.c      **** 		CyDelay(10);
ARM GAS  C:\Users\RECEPC~1\AppData\Local\Temp\ccVIJn7M.s 			page 33


 1420              		.loc 1 393 0
 1421 001a 0A20     		movs	r0, #10
 1422 001c FFF7FEFF 		bl	CyDelay
 394:.\main.c      **** 		status2=PC_GetRxBufferSize();
 1423              		.loc 1 394 0
 1424 0020 FFF7FEFF 		bl	PC_GetRxBufferSize
 1425 0024 0346     		mov	r3, r0
 1426 0026 FB81     		strh	r3, [r7, #14]	@ movhi
 395:.\main.c      **** 		if(status1==status2){		
 1427              		.loc 1 395 0
 1428 0028 3A8A     		ldrh	r2, [r7, #16]
 1429 002a FB89     		ldrh	r3, [r7, #14]
 1430 002c 9A42     		cmp	r2, r3
 1431 002e 40F07C85 		bne	.L52
 396:.\main.c      **** 			if((PC_rxBuffer[0]=='B')&&(PC_rxBuffer[1]=='B')&&(PC_rxBuffer[2]=='B')){
 1432              		.loc 1 396 0
 1433 0032 AB4B     		ldr	r3, .L106
 1434 0034 1B78     		ldrb	r3, [r3]
 1435 0036 DBB2     		uxtb	r3, r3
 1436 0038 422B     		cmp	r3, #66
 1437 003a 40F06E85 		bne	.L54
 1438              		.loc 1 396 0 is_stmt 0 discriminator 1
 1439 003e A84B     		ldr	r3, .L106
 1440 0040 5B78     		ldrb	r3, [r3, #1]
 1441 0042 DBB2     		uxtb	r3, r3
 1442 0044 422B     		cmp	r3, #66
 1443 0046 40F06885 		bne	.L54
 1444              		.loc 1 396 0 discriminator 2
 1445 004a A54B     		ldr	r3, .L106
 1446 004c 9B78     		ldrb	r3, [r3, #2]
 1447 004e DBB2     		uxtb	r3, r3
 1448 0050 422B     		cmp	r3, #66
 1449 0052 40F06285 		bne	.L54
 397:.\main.c      **** 				ok_datosRF=0;   
 1450              		.loc 1 397 0 is_stmt 1
 1451 0056 A34B     		ldr	r3, .L106+4
 1452 0058 0022     		movs	r2, #0
 1453 005a 1A70     		strb	r2, [r3]
 398:.\main.c      **** 				switch(PC_rxBuffer[3]){
 1454              		.loc 1 398 0
 1455 005c A04B     		ldr	r3, .L106
 1456 005e DB78     		ldrb	r3, [r3, #3]
 1457 0060 DBB2     		uxtb	r3, r3
 1458 0062 303B     		subs	r3, r3, #48
 1459 0064 152B     		cmp	r3, #21
 1460 0066 00F24485 		bhi	.L55
 1461 006a 01A2     		adr	r2, .L57
 1462 006c 52F823F0 		ldr	pc, [r2, r3, lsl #2]
 1463              		.p2align 2
 1464              	.L57:
 1465 0070 C9000000 		.word	.L56+1
 1466 0074 45080000 		.word	.L58+1
 1467 0078 F30A0000 		.word	.L55+1
 1468 007c 11090000 		.word	.L59+1
 1469 0080 F30A0000 		.word	.L55+1
 1470 0084 F30A0000 		.word	.L55+1
 1471 0088 F30A0000 		.word	.L55+1
ARM GAS  C:\Users\RECEPC~1\AppData\Local\Temp\ccVIJn7M.s 			page 34


 1472 008c F30A0000 		.word	.L55+1
 1473 0090 F30A0000 		.word	.L55+1
 1474 0094 F30A0000 		.word	.L55+1
 1475 0098 F30A0000 		.word	.L55+1
 1476 009c F30A0000 		.word	.L55+1
 1477 00a0 F30A0000 		.word	.L55+1
 1478 00a4 F30A0000 		.word	.L55+1
 1479 00a8 F30A0000 		.word	.L55+1
 1480 00ac F30A0000 		.word	.L55+1
 1481 00b0 F30A0000 		.word	.L55+1
 1482 00b4 F30A0000 		.word	.L55+1
 1483 00b8 F30A0000 		.word	.L55+1
 1484 00bc F30A0000 		.word	.L55+1
 1485 00c0 F30A0000 		.word	.L55+1
 1486 00c4 B7080000 		.word	.L60+1
 1487              		.p2align 1
 1488              	.L56:
 399:.\main.c      **** 					case cautorizar:
 400:.\main.c      ****                     if(PC_rxBuffer[4]=='1'){
 1489              		.loc 1 400 0
 1490 00c8 854B     		ldr	r3, .L106
 1491 00ca 1B79     		ldrb	r3, [r3, #4]
 1492 00cc DBB2     		uxtb	r3, r3
 1493 00ce 312B     		cmp	r3, #49
 1494 00d0 40F0DA81 		bne	.L61
 401:.\main.c      ****                     PC_rxBuffer[3] = 0;
 1495              		.loc 1 401 0
 1496 00d4 824B     		ldr	r3, .L106
 1497 00d6 0022     		movs	r2, #0
 1498 00d8 DA70     		strb	r2, [r3, #3]
 402:.\main.c      **** 						if(PC_rxBuffer[5]=='N'){			//No autorizo el servidor		
 1499              		.loc 1 402 0
 1500 00da 814B     		ldr	r3, .L106
 1501 00dc 5B79     		ldrb	r3, [r3, #5]
 1502 00de DBB2     		uxtb	r3, r3
 1503 00e0 4E2B     		cmp	r3, #78
 1504 00e2 0BD1     		bne	.L62
 403:.\main.c      **** 							error_op((PC_rxBuffer[4] & 0x0F),28);
 1505              		.loc 1 403 0
 1506 00e4 7E4B     		ldr	r3, .L106
 1507 00e6 1B79     		ldrb	r3, [r3, #4]
 1508 00e8 DBB2     		uxtb	r3, r3
 1509 00ea 03F00F03 		and	r3, r3, #15
 1510 00ee DBB2     		uxtb	r3, r3
 1511 00f0 1846     		mov	r0, r3
 1512 00f2 1C21     		movs	r1, #28
 1513 00f4 FFF7FEFF 		bl	error_op
 404:.\main.c      **** 							break;
 1514              		.loc 1 404 0
 1515 00f8 00F0FBBC 		b	.L55
 1516              	.L62:
 405:.\main.c      **** 						}
 406:.\main.c      **** 						if(PC_rxBuffer[10]=='F'){		//Cambia precio
 1517              		.loc 1 406 0
 1518 00fc 784B     		ldr	r3, .L106
 1519 00fe 9B7A     		ldrb	r3, [r3, #10]
 1520 0100 DBB2     		uxtb	r3, r3
ARM GAS  C:\Users\RECEPC~1\AppData\Local\Temp\ccVIJn7M.s 			page 35


 1521 0102 462B     		cmp	r3, #70
 1522 0104 7ED1     		bne	.L63
 407:.\main.c      ****                             precio[0]=lado1.ppu[rventa1.manguera-1][0]&0x0f;	
 1523              		.loc 1 407 0
 1524 0106 784B     		ldr	r3, .L106+8
 1525 0108 9B7E     		ldrb	r3, [r3, #26]	@ zero_extendqisi2
 1526 010a 5A1E     		subs	r2, r3, #1
 1527 010c 7749     		ldr	r1, .L106+12
 1528 010e 1346     		mov	r3, r2
 1529 0110 9B00     		lsls	r3, r3, #2
 1530 0112 1344     		add	r3, r3, r2
 1531 0114 0B44     		add	r3, r3, r1
 1532 0116 4833     		adds	r3, r3, #72
 1533 0118 9B78     		ldrb	r3, [r3, #2]
 1534 011a DBB2     		uxtb	r3, r3
 1535 011c 03F00F03 		and	r3, r3, #15
 1536 0120 DBB2     		uxtb	r3, r3
 1537 0122 3B72     		strb	r3, [r7, #8]
 408:.\main.c      ****     						precio[1]=lado1.ppu[rventa1.manguera-1][1]&0x0f;
 1538              		.loc 1 408 0
 1539 0124 704B     		ldr	r3, .L106+8
 1540 0126 9B7E     		ldrb	r3, [r3, #26]	@ zero_extendqisi2
 1541 0128 5A1E     		subs	r2, r3, #1
 1542 012a 7049     		ldr	r1, .L106+12
 1543 012c 1346     		mov	r3, r2
 1544 012e 9B00     		lsls	r3, r3, #2
 1545 0130 1344     		add	r3, r3, r2
 1546 0132 0B44     		add	r3, r3, r1
 1547 0134 4933     		adds	r3, r3, #73
 1548 0136 9B78     		ldrb	r3, [r3, #2]
 1549 0138 DBB2     		uxtb	r3, r3
 1550 013a 03F00F03 		and	r3, r3, #15
 1551 013e DBB2     		uxtb	r3, r3
 1552 0140 7B72     		strb	r3, [r7, #9]
 409:.\main.c      ****     						precio[2]=lado1.ppu[rventa1.manguera-1][2]&0x0f;
 1553              		.loc 1 409 0
 1554 0142 694B     		ldr	r3, .L106+8
 1555 0144 9B7E     		ldrb	r3, [r3, #26]	@ zero_extendqisi2
 1556 0146 5A1E     		subs	r2, r3, #1
 1557 0148 6849     		ldr	r1, .L106+12
 1558 014a 1346     		mov	r3, r2
 1559 014c 9B00     		lsls	r3, r3, #2
 1560 014e 1344     		add	r3, r3, r2
 1561 0150 0B44     		add	r3, r3, r1
 1562 0152 4A33     		adds	r3, r3, #74
 1563 0154 9B78     		ldrb	r3, [r3, #2]
 1564 0156 DBB2     		uxtb	r3, r3
 1565 0158 03F00F03 		and	r3, r3, #15
 1566 015c DBB2     		uxtb	r3, r3
 1567 015e BB72     		strb	r3, [r7, #10]
 410:.\main.c      ****     						precio[3]=lado1.ppu[rventa1.manguera-1][3]&0x0f;
 1568              		.loc 1 410 0
 1569 0160 614B     		ldr	r3, .L106+8
 1570 0162 9B7E     		ldrb	r3, [r3, #26]	@ zero_extendqisi2
 1571 0164 5A1E     		subs	r2, r3, #1
 1572 0166 6149     		ldr	r1, .L106+12
 1573 0168 1346     		mov	r3, r2
ARM GAS  C:\Users\RECEPC~1\AppData\Local\Temp\ccVIJn7M.s 			page 36


 1574 016a 9B00     		lsls	r3, r3, #2
 1575 016c 1344     		add	r3, r3, r2
 1576 016e 0B44     		add	r3, r3, r1
 1577 0170 4B33     		adds	r3, r3, #75
 1578 0172 9B78     		ldrb	r3, [r3, #2]
 1579 0174 DBB2     		uxtb	r3, r3
 1580 0176 03F00F03 		and	r3, r3, #15
 1581 017a DBB2     		uxtb	r3, r3
 1582 017c FB72     		strb	r3, [r7, #11]
 411:.\main.c      ****     						precio[4]=lado1.ppu[rventa1.manguera-1][4]&0x0f;
 1583              		.loc 1 411 0
 1584 017e 5A4B     		ldr	r3, .L106+8
 1585 0180 9B7E     		ldrb	r3, [r3, #26]	@ zero_extendqisi2
 1586 0182 5A1E     		subs	r2, r3, #1
 1587 0184 5949     		ldr	r1, .L106+12
 1588 0186 1346     		mov	r3, r2
 1589 0188 9B00     		lsls	r3, r3, #2
 1590 018a 1344     		add	r3, r3, r2
 1591 018c 0B44     		add	r3, r3, r1
 1592 018e 4C33     		adds	r3, r3, #76
 1593 0190 9B78     		ldrb	r3, [r3, #2]
 1594 0192 DBB2     		uxtb	r3, r3
 1595 0194 03F00F03 		and	r3, r3, #15
 1596 0198 DBB2     		uxtb	r3, r3
 1597 019a 3B73     		strb	r3, [r7, #12]
 412:.\main.c      ****                         	if(cambiar_precio((lado1.dir & 0x0F),precio,rventa1.manguera)==0){
 1598              		.loc 1 412 0
 1599 019c 534B     		ldr	r3, .L106+12
 1600 019e 1B78     		ldrb	r3, [r3]
 1601 01a0 DBB2     		uxtb	r3, r3
 1602 01a2 03F00F03 		and	r3, r3, #15
 1603 01a6 D9B2     		uxtb	r1, r3
 1604 01a8 4F4B     		ldr	r3, .L106+8
 1605 01aa 9B7E     		ldrb	r3, [r3, #26]	@ zero_extendqisi2
 1606 01ac 07F10802 		add	r2, r7, #8
 1607 01b0 0846     		mov	r0, r1
 1608 01b2 1146     		mov	r1, r2
 1609 01b4 1A46     		mov	r2, r3
 1610 01b6 FFF7FEFF 		bl	cambiar_precio
 1611 01ba 0346     		mov	r3, r0
 1612 01bc 002B     		cmp	r3, #0
 1613 01be 40F09B80 		bne	.L64
 413:.\main.c      **** 								rf_mod[0]='M';
 1614              		.loc 1 413 0
 1615 01c2 4B4B     		ldr	r3, .L106+16
 1616 01c4 4D22     		movs	r2, #77
 1617 01c6 1A70     		strb	r2, [r3]
 414:.\main.c      **** 								rf_mod[1]='U';
 1618              		.loc 1 414 0
 1619 01c8 494B     		ldr	r3, .L106+16
 1620 01ca 5522     		movs	r2, #85
 1621 01cc 5A70     		strb	r2, [r3, #1]
 415:.\main.c      **** 								rf_mod[2]='X';
 1622              		.loc 1 415 0
 1623 01ce 484B     		ldr	r3, .L106+16
 1624 01d0 5822     		movs	r2, #88
 1625 01d2 9A70     		strb	r2, [r3, #2]
ARM GAS  C:\Users\RECEPC~1\AppData\Local\Temp\ccVIJn7M.s 			page 37


 416:.\main.c      **** 								rf_mod[3]=creset;
 1626              		.loc 1 416 0
 1627 01d4 464B     		ldr	r3, .L106+16
 1628 01d6 4522     		movs	r2, #69
 1629 01d8 DA70     		strb	r2, [r3, #3]
 417:.\main.c      **** 								rf_mod[4]=cautorizar;
 1630              		.loc 1 417 0
 1631 01da 454B     		ldr	r3, .L106+16
 1632 01dc 3022     		movs	r2, #48
 1633 01de 1A71     		strb	r2, [r3, #4]
 418:.\main.c      **** 								rf_mod[5]=PC_rxBuffer[4];
 1634              		.loc 1 418 0
 1635 01e0 3F4B     		ldr	r3, .L106
 1636 01e2 1B79     		ldrb	r3, [r3, #4]
 1637 01e4 DAB2     		uxtb	r2, r3
 1638 01e6 424B     		ldr	r3, .L106+16
 1639 01e8 5A71     		strb	r2, [r3, #5]
 419:.\main.c      **** 								rf_mod[6]='1';
 1640              		.loc 1 419 0
 1641 01ea 414B     		ldr	r3, .L106+16
 1642 01ec 3122     		movs	r2, #49
 1643 01ee 9A71     		strb	r2, [r3, #6]
 420:.\main.c      **** 								rf_mod[7]='*';
 1644              		.loc 1 420 0
 1645 01f0 3F4B     		ldr	r3, .L106+16
 1646 01f2 2A22     		movs	r2, #42
 1647 01f4 DA71     		strb	r2, [r3, #7]
 421:.\main.c      **** 								size=8;
 1648              		.loc 1 421 0
 1649 01f6 0823     		movs	r3, #8
 1650 01f8 FB82     		strh	r3, [r7, #22]	@ movhi
 422:.\main.c      **** 								ok_datosRF=1;
 1651              		.loc 1 422 0
 1652 01fa 3A4B     		ldr	r3, .L106+4
 1653 01fc 0122     		movs	r2, #1
 1654 01fe 1A70     		strb	r2, [r3]
 423:.\main.c      **** 								break;
 1655              		.loc 1 423 0
 1656 0200 00F077BC 		b	.L55
 1657              	.L63:
 424:.\main.c      **** 							}                                                      
 425:.\main.c      ****   						}
 426:.\main.c      ****                         else{
 427:.\main.c      **** 							totales(lado1.dir, lado1.mangueras);
 1658              		.loc 1 427 0
 1659 0204 394B     		ldr	r3, .L106+12
 1660 0206 1B78     		ldrb	r3, [r3]
 1661 0208 DAB2     		uxtb	r2, r3
 1662 020a 384B     		ldr	r3, .L106+12
 1663 020c 93F85C30 		ldrb	r3, [r3, #92]
 1664 0210 DBB2     		uxtb	r3, r3
 1665 0212 1046     		mov	r0, r2
 1666 0214 1946     		mov	r1, r3
 1667 0216 FFF7FEFF 		bl	totales
 428:.\main.c      ****                             if(ppux10==1){
 1668              		.loc 1 428 0
 1669 021a 364B     		ldr	r3, .L106+20
ARM GAS  C:\Users\RECEPC~1\AppData\Local\Temp\ccVIJn7M.s 			page 38


 1670 021c 1B78     		ldrb	r3, [r3]
 1671 021e DBB2     		uxtb	r3, r3
 1672 0220 012B     		cmp	r3, #1
 1673 0222 11D1     		bne	.L65
 429:.\main.c      ****     							precio[4]=PC_rxBuffer[9];	
 1674              		.loc 1 429 0
 1675 0224 2E4B     		ldr	r3, .L106
 1676 0226 5B7A     		ldrb	r3, [r3, #9]
 1677 0228 DBB2     		uxtb	r3, r3
 1678 022a 3B73     		strb	r3, [r7, #12]
 430:.\main.c      ****     							precio[3]=PC_rxBuffer[8];
 1679              		.loc 1 430 0
 1680 022c 2C4B     		ldr	r3, .L106
 1681 022e 1B7A     		ldrb	r3, [r3, #8]
 1682 0230 DBB2     		uxtb	r3, r3
 1683 0232 FB72     		strb	r3, [r7, #11]
 431:.\main.c      ****     							precio[2]=PC_rxBuffer[7];
 1684              		.loc 1 431 0
 1685 0234 2A4B     		ldr	r3, .L106
 1686 0236 DB79     		ldrb	r3, [r3, #7]
 1687 0238 DBB2     		uxtb	r3, r3
 1688 023a BB72     		strb	r3, [r7, #10]
 432:.\main.c      ****     							precio[1]=PC_rxBuffer[6];
 1689              		.loc 1 432 0
 1690 023c 284B     		ldr	r3, .L106
 1691 023e 9B79     		ldrb	r3, [r3, #6]
 1692 0240 DBB2     		uxtb	r3, r3
 1693 0242 7B72     		strb	r3, [r7, #9]
 433:.\main.c      ****     							precio[0]=0;			
 1694              		.loc 1 433 0
 1695 0244 0023     		movs	r3, #0
 1696 0246 3B72     		strb	r3, [r7, #8]
 1697              	.L65:
 434:.\main.c      ****                             }
 435:.\main.c      ****                             if(ppux10==0){
 1698              		.loc 1 435 0
 1699 0248 2A4B     		ldr	r3, .L106+20
 1700 024a 1B78     		ldrb	r3, [r3]
 1701 024c DBB2     		uxtb	r3, r3
 1702 024e 002B     		cmp	r3, #0
 1703 0250 13D1     		bne	.L66
 436:.\main.c      ****     							precio[4]=PC_rxBuffer[10];	
 1704              		.loc 1 436 0
 1705 0252 234B     		ldr	r3, .L106
 1706 0254 9B7A     		ldrb	r3, [r3, #10]
 1707 0256 DBB2     		uxtb	r3, r3
 1708 0258 3B73     		strb	r3, [r7, #12]
 437:.\main.c      ****     							precio[3]=PC_rxBuffer[9];
 1709              		.loc 1 437 0
 1710 025a 214B     		ldr	r3, .L106
 1711 025c 5B7A     		ldrb	r3, [r3, #9]
 1712 025e DBB2     		uxtb	r3, r3
 1713 0260 FB72     		strb	r3, [r7, #11]
 438:.\main.c      ****     							precio[2]=PC_rxBuffer[8];
 1714              		.loc 1 438 0
 1715 0262 1F4B     		ldr	r3, .L106
 1716 0264 1B7A     		ldrb	r3, [r3, #8]
ARM GAS  C:\Users\RECEPC~1\AppData\Local\Temp\ccVIJn7M.s 			page 39


 1717 0266 DBB2     		uxtb	r3, r3
 1718 0268 BB72     		strb	r3, [r7, #10]
 439:.\main.c      ****     							precio[1]=PC_rxBuffer[7];
 1719              		.loc 1 439 0
 1720 026a 1D4B     		ldr	r3, .L106
 1721 026c DB79     		ldrb	r3, [r3, #7]
 1722 026e DBB2     		uxtb	r3, r3
 1723 0270 7B72     		strb	r3, [r7, #9]
 440:.\main.c      ****     							precio[0]=PC_rxBuffer[6];                            
 1724              		.loc 1 440 0
 1725 0272 1B4B     		ldr	r3, .L106
 1726 0274 9B79     		ldrb	r3, [r3, #6]
 1727 0276 DBB2     		uxtb	r3, r3
 1728 0278 3B72     		strb	r3, [r7, #8]
 1729              	.L66:
 441:.\main.c      ****                             }
 442:.\main.c      **** 							if(cambiar_precio((lado1.dir & 0x0F),precio,rventa1.manguera)==0){
 1730              		.loc 1 442 0
 1731 027a 1C4B     		ldr	r3, .L106+12
 1732 027c 1B78     		ldrb	r3, [r3]
 1733 027e DBB2     		uxtb	r3, r3
 1734 0280 03F00F03 		and	r3, r3, #15
 1735 0284 D9B2     		uxtb	r1, r3
 1736 0286 184B     		ldr	r3, .L106+8
 1737 0288 9B7E     		ldrb	r3, [r3, #26]	@ zero_extendqisi2
 1738 028a 07F10802 		add	r2, r7, #8
 1739 028e 0846     		mov	r0, r1
 1740 0290 1146     		mov	r1, r2
 1741 0292 1A46     		mov	r2, r3
 1742 0294 FFF7FEFF 		bl	cambiar_precio
 1743 0298 0346     		mov	r3, r0
 1744 029a 002B     		cmp	r3, #0
 1745 029c 2CD1     		bne	.L64
 443:.\main.c      **** 								rf_mod[0]='M';
 1746              		.loc 1 443 0
 1747 029e 144B     		ldr	r3, .L106+16
 1748 02a0 4D22     		movs	r2, #77
 1749 02a2 1A70     		strb	r2, [r3]
 444:.\main.c      **** 								rf_mod[1]='U';
 1750              		.loc 1 444 0
 1751 02a4 124B     		ldr	r3, .L106+16
 1752 02a6 5522     		movs	r2, #85
 1753 02a8 5A70     		strb	r2, [r3, #1]
 445:.\main.c      **** 								rf_mod[2]='X';
 1754              		.loc 1 445 0
 1755 02aa 114B     		ldr	r3, .L106+16
 1756 02ac 5822     		movs	r2, #88
 1757 02ae 9A70     		strb	r2, [r3, #2]
 446:.\main.c      **** 								rf_mod[3]=creset;
 1758              		.loc 1 446 0
 1759 02b0 0F4B     		ldr	r3, .L106+16
 1760 02b2 4522     		movs	r2, #69
 1761 02b4 DA70     		strb	r2, [r3, #3]
 447:.\main.c      **** 								rf_mod[4]=cautorizar;
 1762              		.loc 1 447 0
 1763 02b6 0E4B     		ldr	r3, .L106+16
 1764 02b8 3022     		movs	r2, #48
ARM GAS  C:\Users\RECEPC~1\AppData\Local\Temp\ccVIJn7M.s 			page 40


 1765 02ba 1A71     		strb	r2, [r3, #4]
 448:.\main.c      **** 								rf_mod[5]=PC_rxBuffer[4];
 1766              		.loc 1 448 0
 1767 02bc 084B     		ldr	r3, .L106
 1768 02be 1B79     		ldrb	r3, [r3, #4]
 1769 02c0 DAB2     		uxtb	r2, r3
 1770 02c2 0B4B     		ldr	r3, .L106+16
 1771 02c4 5A71     		strb	r2, [r3, #5]
 449:.\main.c      **** 								rf_mod[6]='1';
 1772              		.loc 1 449 0
 1773 02c6 0A4B     		ldr	r3, .L106+16
 1774 02c8 3122     		movs	r2, #49
 1775 02ca 9A71     		strb	r2, [r3, #6]
 450:.\main.c      **** 								rf_mod[7]='*';
 1776              		.loc 1 450 0
 1777 02cc 084B     		ldr	r3, .L106+16
 1778 02ce 2A22     		movs	r2, #42
 1779 02d0 DA71     		strb	r2, [r3, #7]
 451:.\main.c      **** 								size=8;
 1780              		.loc 1 451 0
 1781 02d2 0823     		movs	r3, #8
 1782 02d4 FB82     		strh	r3, [r7, #22]	@ movhi
 452:.\main.c      **** 								ok_datosRF=1;
 1783              		.loc 1 452 0
 1784 02d6 034B     		ldr	r3, .L106+4
 1785 02d8 0122     		movs	r2, #1
 1786 02da 1A70     		strb	r2, [r3]
 453:.\main.c      **** 								break;
 1787              		.loc 1 453 0
 1788 02dc 00F009BC 		b	.L55
 1789              	.L107:
 1790              		.align	2
 1791              	.L106:
 1792 02e0 00000000 		.word	PC_rxBuffer
 1793 02e4 00000000 		.word	ok_datosRF
 1794 02e8 00000000 		.word	rventa1
 1795 02ec 00000000 		.word	lado1
 1796 02f0 00000000 		.word	rf_mod
 1797 02f4 00000000 		.word	ppux10
 1798              	.L64:
 454:.\main.c      **** 							}
 455:.\main.c      ****                         }
 456:.\main.c      **** 						preset[1]=PC_rxBuffer[17];				//Preset
 1799              		.loc 1 456 0
 1800 02f8 AF4B     		ldr	r3, .L108
 1801 02fa 5B7C     		ldrb	r3, [r3, #17]
 1802 02fc DBB2     		uxtb	r3, r3
 1803 02fe 7B70     		strb	r3, [r7, #1]
 457:.\main.c      **** 						if(PC_rxBuffer[17]!=','){
 1804              		.loc 1 457 0
 1805 0300 AD4B     		ldr	r3, .L108
 1806 0302 5B7C     		ldrb	r3, [r3, #17]
 1807 0304 DBB2     		uxtb	r3, r3
 1808 0306 2C2B     		cmp	r3, #44
 1809 0308 06D0     		beq	.L67
 458:.\main.c      **** 							preset[1]=PC_rxBuffer[17] & 0x0F;
 1810              		.loc 1 458 0
ARM GAS  C:\Users\RECEPC~1\AppData\Local\Temp\ccVIJn7M.s 			page 41


 1811 030a AB4B     		ldr	r3, .L108
 1812 030c 5B7C     		ldrb	r3, [r3, #17]
 1813 030e DBB2     		uxtb	r3, r3
 1814 0310 03F00F03 		and	r3, r3, #15
 1815 0314 DBB2     		uxtb	r3, r3
 1816 0316 7B70     		strb	r3, [r7, #1]
 1817              	.L67:
 459:.\main.c      **** 						}
 460:.\main.c      **** 						preset[2]=PC_rxBuffer[16];
 1818              		.loc 1 460 0
 1819 0318 A74B     		ldr	r3, .L108
 1820 031a 1B7C     		ldrb	r3, [r3, #16]
 1821 031c DBB2     		uxtb	r3, r3
 1822 031e BB70     		strb	r3, [r7, #2]
 461:.\main.c      **** 						if(PC_rxBuffer[16]!=','){
 1823              		.loc 1 461 0
 1824 0320 A54B     		ldr	r3, .L108
 1825 0322 1B7C     		ldrb	r3, [r3, #16]
 1826 0324 DBB2     		uxtb	r3, r3
 1827 0326 2C2B     		cmp	r3, #44
 1828 0328 06D0     		beq	.L68
 462:.\main.c      **** 							preset[2]=PC_rxBuffer[16] & 0x0F;
 1829              		.loc 1 462 0
 1830 032a A34B     		ldr	r3, .L108
 1831 032c 1B7C     		ldrb	r3, [r3, #16]
 1832 032e DBB2     		uxtb	r3, r3
 1833 0330 03F00F03 		and	r3, r3, #15
 1834 0334 DBB2     		uxtb	r3, r3
 1835 0336 BB70     		strb	r3, [r7, #2]
 1836              	.L68:
 463:.\main.c      **** 						}
 464:.\main.c      **** 						preset[3]=PC_rxBuffer[15];
 1837              		.loc 1 464 0
 1838 0338 9F4B     		ldr	r3, .L108
 1839 033a DB7B     		ldrb	r3, [r3, #15]
 1840 033c DBB2     		uxtb	r3, r3
 1841 033e FB70     		strb	r3, [r7, #3]
 465:.\main.c      **** 						if(PC_rxBuffer[15]!=','){
 1842              		.loc 1 465 0
 1843 0340 9D4B     		ldr	r3, .L108
 1844 0342 DB7B     		ldrb	r3, [r3, #15]
 1845 0344 DBB2     		uxtb	r3, r3
 1846 0346 2C2B     		cmp	r3, #44
 1847 0348 06D0     		beq	.L69
 466:.\main.c      **** 							preset[3]=PC_rxBuffer[15] & 0x0F;
 1848              		.loc 1 466 0
 1849 034a 9B4B     		ldr	r3, .L108
 1850 034c DB7B     		ldrb	r3, [r3, #15]
 1851 034e DBB2     		uxtb	r3, r3
 1852 0350 03F00F03 		and	r3, r3, #15
 1853 0354 DBB2     		uxtb	r3, r3
 1854 0356 FB70     		strb	r3, [r7, #3]
 1855              	.L69:
 467:.\main.c      **** 						}
 468:.\main.c      **** 						preset[4]=PC_rxBuffer[14];
 1856              		.loc 1 468 0
 1857 0358 974B     		ldr	r3, .L108
ARM GAS  C:\Users\RECEPC~1\AppData\Local\Temp\ccVIJn7M.s 			page 42


 1858 035a 9B7B     		ldrb	r3, [r3, #14]
 1859 035c DBB2     		uxtb	r3, r3
 1860 035e 3B71     		strb	r3, [r7, #4]
 469:.\main.c      **** 						if(PC_rxBuffer[14]!=','){
 1861              		.loc 1 469 0
 1862 0360 954B     		ldr	r3, .L108
 1863 0362 9B7B     		ldrb	r3, [r3, #14]
 1864 0364 DBB2     		uxtb	r3, r3
 1865 0366 2C2B     		cmp	r3, #44
 1866 0368 06D0     		beq	.L70
 470:.\main.c      **** 							preset[4]=PC_rxBuffer[14] & 0x0F;
 1867              		.loc 1 470 0
 1868 036a 934B     		ldr	r3, .L108
 1869 036c 9B7B     		ldrb	r3, [r3, #14]
 1870 036e DBB2     		uxtb	r3, r3
 1871 0370 03F00F03 		and	r3, r3, #15
 1872 0374 DBB2     		uxtb	r3, r3
 1873 0376 3B71     		strb	r3, [r7, #4]
 1874              	.L70:
 471:.\main.c      **** 						}
 472:.\main.c      **** 						preset[5]=PC_rxBuffer[13];
 1875              		.loc 1 472 0
 1876 0378 8F4B     		ldr	r3, .L108
 1877 037a 5B7B     		ldrb	r3, [r3, #13]
 1878 037c DBB2     		uxtb	r3, r3
 1879 037e 7B71     		strb	r3, [r7, #5]
 473:.\main.c      **** 						if(PC_rxBuffer[13]!=','){
 1880              		.loc 1 473 0
 1881 0380 8D4B     		ldr	r3, .L108
 1882 0382 5B7B     		ldrb	r3, [r3, #13]
 1883 0384 DBB2     		uxtb	r3, r3
 1884 0386 2C2B     		cmp	r3, #44
 1885 0388 06D0     		beq	.L71
 474:.\main.c      **** 							preset[5]=PC_rxBuffer[13] & 0x0F;
 1886              		.loc 1 474 0
 1887 038a 8B4B     		ldr	r3, .L108
 1888 038c 5B7B     		ldrb	r3, [r3, #13]
 1889 038e DBB2     		uxtb	r3, r3
 1890 0390 03F00F03 		and	r3, r3, #15
 1891 0394 DBB2     		uxtb	r3, r3
 1892 0396 7B71     		strb	r3, [r7, #5]
 1893              	.L71:
 475:.\main.c      **** 						}
 476:.\main.c      **** 						preset[6]=PC_rxBuffer[12];
 1894              		.loc 1 476 0
 1895 0398 874B     		ldr	r3, .L108
 1896 039a 1B7B     		ldrb	r3, [r3, #12]
 1897 039c DBB2     		uxtb	r3, r3
 1898 039e BB71     		strb	r3, [r7, #6]
 477:.\main.c      **** 						if(PC_rxBuffer[12]!=','){
 1899              		.loc 1 477 0
 1900 03a0 854B     		ldr	r3, .L108
 1901 03a2 1B7B     		ldrb	r3, [r3, #12]
 1902 03a4 DBB2     		uxtb	r3, r3
 1903 03a6 2C2B     		cmp	r3, #44
 1904 03a8 06D0     		beq	.L72
 478:.\main.c      **** 							preset[6]=PC_rxBuffer[12] & 0x0F;
ARM GAS  C:\Users\RECEPC~1\AppData\Local\Temp\ccVIJn7M.s 			page 43


 1905              		.loc 1 478 0
 1906 03aa 834B     		ldr	r3, .L108
 1907 03ac 1B7B     		ldrb	r3, [r3, #12]
 1908 03ae DBB2     		uxtb	r3, r3
 1909 03b0 03F00F03 		and	r3, r3, #15
 1910 03b4 DBB2     		uxtb	r3, r3
 1911 03b6 BB71     		strb	r3, [r7, #6]
 1912              	.L72:
 479:.\main.c      **** 						}
 480:.\main.c      **** 						preset[7]=PC_rxBuffer[11];
 1913              		.loc 1 480 0
 1914 03b8 7F4B     		ldr	r3, .L108
 1915 03ba DB7A     		ldrb	r3, [r3, #11]
 1916 03bc DBB2     		uxtb	r3, r3
 1917 03be FB71     		strb	r3, [r7, #7]
 481:.\main.c      **** 						if(PC_rxBuffer[11]!=','){
 1918              		.loc 1 481 0
 1919 03c0 7D4B     		ldr	r3, .L108
 1920 03c2 DB7A     		ldrb	r3, [r3, #11]
 1921 03c4 DBB2     		uxtb	r3, r3
 1922 03c6 2C2B     		cmp	r3, #44
 1923 03c8 06D0     		beq	.L73
 482:.\main.c      **** 							preset[7]=PC_rxBuffer[11] & 0x0F;
 1924              		.loc 1 482 0
 1925 03ca 7B4B     		ldr	r3, .L108
 1926 03cc DB7A     		ldrb	r3, [r3, #11]
 1927 03ce DBB2     		uxtb	r3, r3
 1928 03d0 03F00F03 		and	r3, r3, #15
 1929 03d4 DBB2     		uxtb	r3, r3
 1930 03d6 FB71     		strb	r3, [r7, #7]
 1931              	.L73:
 483:.\main.c      **** 						}
 484:.\main.c      **** 						t_preset=PC_rxBuffer[18];
 1932              		.loc 1 484 0
 1933 03d8 774B     		ldr	r3, .L108
 1934 03da 9B7C     		ldrb	r3, [r3, #18]
 1935 03dc DBB2     		uxtb	r3, r3
 1936 03de 7B82     		strh	r3, [r7, #18]	@ movhi
 485:.\main.c      **** 						if(t_preset=='1'){
 1937              		.loc 1 485 0
 1938 03e0 7B8A     		ldrh	r3, [r7, #18]
 1939 03e2 312B     		cmp	r3, #49
 1940 03e4 02D1     		bne	.L74
 486:.\main.c      **** 							t_preset=2;
 1941              		.loc 1 486 0
 1942 03e6 0223     		movs	r3, #2
 1943 03e8 7B82     		strh	r3, [r7, #18]	@ movhi
 1944 03ea 01E0     		b	.L75
 1945              	.L74:
 487:.\main.c      **** 						}
 488:.\main.c      **** 						else{
 489:.\main.c      **** 							t_preset=1;
 1946              		.loc 1 489 0
 1947 03ec 0123     		movs	r3, #1
 1948 03ee 7B82     		strh	r3, [r7, #18]	@ movhi
 1949              	.L75:
 490:.\main.c      **** 						}
ARM GAS  C:\Users\RECEPC~1\AppData\Local\Temp\ccVIJn7M.s 			page 44


 491:.\main.c      **** 						if(programar((lado1.dir & 0x0F),rventa1.manguera,preset,t_preset)==1){		//Programar
 1950              		.loc 1 491 0
 1951 03f0 724B     		ldr	r3, .L108+4
 1952 03f2 1B78     		ldrb	r3, [r3]
 1953 03f4 DBB2     		uxtb	r3, r3
 1954 03f6 03F00F03 		and	r3, r3, #15
 1955 03fa D8B2     		uxtb	r0, r3
 1956 03fc 704B     		ldr	r3, .L108+8
 1957 03fe 997E     		ldrb	r1, [r3, #26]	@ zero_extendqisi2
 1958 0400 7B8A     		ldrh	r3, [r7, #18]	@ movhi
 1959 0402 DBB2     		uxtb	r3, r3
 1960 0404 3A46     		mov	r2, r7
 1961 0406 FFF7FEFF 		bl	programar
 1962 040a 0346     		mov	r3, r0
 1963 040c 012B     		cmp	r3, #1
 1964 040e 1BD1     		bne	.L76
 492:.\main.c      ****                             if(ppuinicial==0){                          
 493:.\main.c      **** //                                for(x=0;x<=4;x++){
 494:.\main.c      **** //                            	    precio[x]=lado1.ppu[0][x];	    
 495:.\main.c      **** //                                }
 496:.\main.c      **** //                                cambiar_precio(lado1.dir,precio,1);    
 497:.\main.c      **** //                                for(x=0;x<=4;x++){
 498:.\main.c      **** //                            	    precio[x]=lado1.ppu[1][x];	    
 499:.\main.c      **** //                                }    
 500:.\main.c      **** //                                cambiar_precio(lado1.dir,precio,2);
 501:.\main.c      **** //                                for(x=0;x<=4;x++){
 502:.\main.c      **** //                            	    precio[x]=lado1.ppu[2][x];	    
 503:.\main.c      **** //                                }
 504:.\main.c      **** //                                cambiar_precio(lado1.dir,precio,3);       
 505:.\main.c      ****                             }
 506:.\main.c      ****                             CyDelay(10);
 1965              		.loc 1 506 0
 1966 0410 0A20     		movs	r0, #10
 1967 0412 FFF7FEFF 		bl	CyDelay
 507:.\main.c      **** 							Surtidor_PutChar(0x10|(lado1.dir & 0x0F));							
 1968              		.loc 1 507 0
 1969 0416 694B     		ldr	r3, .L108+4
 1970 0418 1B78     		ldrb	r3, [r3]
 1971 041a DBB2     		uxtb	r3, r3
 1972 041c DBB2     		uxtb	r3, r3
 1973 041e 03F00F03 		and	r3, r3, #15
 1974 0422 DBB2     		uxtb	r3, r3
 1975 0424 43F01003 		orr	r3, r3, #16
 1976 0428 DBB2     		uxtb	r3, r3
 1977 042a DBB2     		uxtb	r3, r3
 1978 042c 1846     		mov	r0, r3
 1979 042e FFF7FEFF 		bl	Surtidor_PutChar
 508:.\main.c      **** 							lado1.estado=tanqueo;
 1980              		.loc 1 508 0
 1981 0432 624B     		ldr	r3, .L108+4
 1982 0434 0622     		movs	r2, #6
 1983 0436 5A70     		strb	r2, [r3, #1]
 509:.\main.c      **** 							flujo_LCD1=8;
 1984              		.loc 1 509 0
 1985 0438 624B     		ldr	r3, .L108+12
 1986 043a 0822     		movs	r2, #8
 1987 043c 1A70     		strb	r2, [r3]
ARM GAS  C:\Users\RECEPC~1\AppData\Local\Temp\ccVIJn7M.s 			page 45


 510:.\main.c      **** 							set_imagen(1,8);
 1988              		.loc 1 510 0
 1989 043e 0120     		movs	r0, #1
 1990 0440 0821     		movs	r1, #8
 1991 0442 FFF7FEFF 		bl	set_imagen
 1992 0446 FCE1     		b	.L78
 1993              	.L76:
 511:.\main.c      **** 						}
 512:.\main.c      **** 						else{
 513:.\main.c      **** 							rf_mod[0]='M';
 1994              		.loc 1 513 0
 1995 0448 5F4B     		ldr	r3, .L108+16
 1996 044a 4D22     		movs	r2, #77
 1997 044c 1A70     		strb	r2, [r3]
 514:.\main.c      **** 							rf_mod[1]='U';
 1998              		.loc 1 514 0
 1999 044e 5E4B     		ldr	r3, .L108+16
 2000 0450 5522     		movs	r2, #85
 2001 0452 5A70     		strb	r2, [r3, #1]
 515:.\main.c      **** 							rf_mod[2]='X';
 2002              		.loc 1 515 0
 2003 0454 5C4B     		ldr	r3, .L108+16
 2004 0456 5822     		movs	r2, #88
 2005 0458 9A70     		strb	r2, [r3, #2]
 516:.\main.c      **** 							rf_mod[3]=creset;
 2006              		.loc 1 516 0
 2007 045a 5B4B     		ldr	r3, .L108+16
 2008 045c 4522     		movs	r2, #69
 2009 045e DA70     		strb	r2, [r3, #3]
 517:.\main.c      **** 							rf_mod[4]=cautorizar;
 2010              		.loc 1 517 0
 2011 0460 594B     		ldr	r3, .L108+16
 2012 0462 3022     		movs	r2, #48
 2013 0464 1A71     		strb	r2, [r3, #4]
 518:.\main.c      **** 							rf_mod[5]=PC_rxBuffer[4];
 2014              		.loc 1 518 0
 2015 0466 544B     		ldr	r3, .L108
 2016 0468 1B79     		ldrb	r3, [r3, #4]
 2017 046a DAB2     		uxtb	r2, r3
 2018 046c 564B     		ldr	r3, .L108+16
 2019 046e 5A71     		strb	r2, [r3, #5]
 519:.\main.c      **** 							rf_mod[6]='2';
 2020              		.loc 1 519 0
 2021 0470 554B     		ldr	r3, .L108+16
 2022 0472 3222     		movs	r2, #50
 2023 0474 9A71     		strb	r2, [r3, #6]
 520:.\main.c      **** 							rf_mod[7]='*';
 2024              		.loc 1 520 0
 2025 0476 544B     		ldr	r3, .L108+16
 2026 0478 2A22     		movs	r2, #42
 2027 047a DA71     		strb	r2, [r3, #7]
 521:.\main.c      **** 							size=8;
 2028              		.loc 1 521 0
 2029 047c 0823     		movs	r3, #8
 2030 047e FB82     		strh	r3, [r7, #22]	@ movhi
 522:.\main.c      **** 							ok_datosRF=1;							
 2031              		.loc 1 522 0
ARM GAS  C:\Users\RECEPC~1\AppData\Local\Temp\ccVIJn7M.s 			page 46


 2032 0480 524B     		ldr	r3, .L108+20
 2033 0482 0122     		movs	r2, #1
 2034 0484 1A70     		strb	r2, [r3]
 523:.\main.c      **** 						}
 524:.\main.c      ****                     }else{                        
 525:.\main.c      ****                         PC_rxBuffer[3] = 0;
 526:.\main.c      ****     						if(PC_rxBuffer[5]=='N'){			//No autorizo el servidor		
 527:.\main.c      ****     							error_op((PC_rxBuffer[4] & 0x0F),28);
 528:.\main.c      ****     							break;
 529:.\main.c      ****     						}
 530:.\main.c      ****     						if(PC_rxBuffer[10]=='F'){		//Cambia precio
 531:.\main.c      ****                                 precio[0]=lado2.ppu[rventa2.manguera-1][0]&0x0f;	
 532:.\main.c      ****         						precio[1]=lado2.ppu[rventa2.manguera-1][1]&0x0f;
 533:.\main.c      ****         						precio[2]=lado2.ppu[rventa2.manguera-1][2]&0x0f;
 534:.\main.c      ****         						precio[3]=lado2.ppu[rventa2.manguera-1][3]&0x0f;
 535:.\main.c      ****         						precio[4]=lado2.ppu[rventa2.manguera-1][4]&0x0f;
 536:.\main.c      ****                             	if(cambiar_precio((lado2.dir & 0x0F),precio,rventa2.manguera)==0){
 537:.\main.c      ****     								rf_mod[0]='M';
 538:.\main.c      ****     								rf_mod[1]='U';
 539:.\main.c      ****     								rf_mod[2]='X';
 540:.\main.c      ****     								rf_mod[3]=creset;
 541:.\main.c      ****     								rf_mod[4]=cautorizar;
 542:.\main.c      ****     								rf_mod[5]=PC_rxBuffer[4];
 543:.\main.c      ****     								rf_mod[6]='1';
 544:.\main.c      ****     								rf_mod[7]='*';
 545:.\main.c      ****     								size=8;
 546:.\main.c      ****     								ok_datosRF=1;
 547:.\main.c      ****     								break;
 548:.\main.c      ****     							}                                                      
 549:.\main.c      ****       						}
 550:.\main.c      ****                             else{
 551:.\main.c      ****     							totales(lado2.dir, lado2.mangueras);
 552:.\main.c      ****                                 if(ppux10==1){
 553:.\main.c      ****         							precio[4]=PC_rxBuffer[9];	
 554:.\main.c      ****         							precio[3]=PC_rxBuffer[8];
 555:.\main.c      ****         							precio[2]=PC_rxBuffer[7];
 556:.\main.c      ****         							precio[1]=PC_rxBuffer[6];
 557:.\main.c      ****         							precio[0]=0;			
 558:.\main.c      ****                                 }
 559:.\main.c      ****                                 if(ppux10==0){
 560:.\main.c      ****         							precio[4]=PC_rxBuffer[10];	
 561:.\main.c      ****         							precio[3]=PC_rxBuffer[9];
 562:.\main.c      ****         							precio[2]=PC_rxBuffer[8];
 563:.\main.c      ****         							precio[1]=PC_rxBuffer[7];
 564:.\main.c      ****         							precio[0]=PC_rxBuffer[6];                            
 565:.\main.c      ****                                 }
 566:.\main.c      ****     							if(cambiar_precio((lado2.dir & 0x0F),precio,rventa2.manguera)==0){
 567:.\main.c      ****     								rf_mod[0]='M';
 568:.\main.c      ****     								rf_mod[1]='U';
 569:.\main.c      ****     								rf_mod[2]='X';
 570:.\main.c      ****     								rf_mod[3]=creset;
 571:.\main.c      ****     								rf_mod[4]=cautorizar;
 572:.\main.c      ****     								rf_mod[5]=PC_rxBuffer[4];
 573:.\main.c      ****     								rf_mod[6]='1';
 574:.\main.c      ****     								rf_mod[7]='*';
 575:.\main.c      ****     								size=8;
 576:.\main.c      ****     								ok_datosRF=1;
ARM GAS  C:\Users\RECEPC~1\AppData\Local\Temp\ccVIJn7M.s 			page 47


 577:.\main.c      ****     								break;
 578:.\main.c      ****     							}
 579:.\main.c      ****                             }
 580:.\main.c      ****     						preset[1]=PC_rxBuffer[17];				//Preset
 581:.\main.c      ****     						if(PC_rxBuffer[17]!=','){
 582:.\main.c      ****     							preset[1]=PC_rxBuffer[17] & 0x0F;
 583:.\main.c      ****     						}
 584:.\main.c      ****     						preset[2]=PC_rxBuffer[16];
 585:.\main.c      ****     						if(PC_rxBuffer[16]!=','){
 586:.\main.c      ****     							preset[2]=PC_rxBuffer[16] & 0x0F;
 587:.\main.c      ****     						}
 588:.\main.c      ****     						preset[3]=PC_rxBuffer[15];
 589:.\main.c      ****     						if(PC_rxBuffer[15]!=','){
 590:.\main.c      ****     							preset[3]=PC_rxBuffer[15] & 0x0F;
 591:.\main.c      ****     						}
 592:.\main.c      ****     						preset[4]=PC_rxBuffer[14];
 593:.\main.c      ****     						if(PC_rxBuffer[14]!=','){
 594:.\main.c      ****     							preset[4]=PC_rxBuffer[14] & 0x0F;
 595:.\main.c      ****     						}
 596:.\main.c      ****     						preset[5]=PC_rxBuffer[13];
 597:.\main.c      ****     						if(PC_rxBuffer[13]!=','){
 598:.\main.c      ****     							preset[5]=PC_rxBuffer[13] & 0x0F;
 599:.\main.c      ****     						}
 600:.\main.c      ****     						preset[6]=PC_rxBuffer[12];
 601:.\main.c      ****     						if(PC_rxBuffer[12]!=','){
 602:.\main.c      ****     							preset[6]=PC_rxBuffer[12] & 0x0F;
 603:.\main.c      ****     						}
 604:.\main.c      ****     						preset[7]=PC_rxBuffer[11];
 605:.\main.c      ****     						if(PC_rxBuffer[11]!=','){
 606:.\main.c      ****     							preset[7]=PC_rxBuffer[11] & 0x0F;
 607:.\main.c      ****     						}
 608:.\main.c      ****     						t_preset=PC_rxBuffer[18];
 609:.\main.c      ****     						if(t_preset=='1'){
 610:.\main.c      ****     							t_preset=2;
 611:.\main.c      ****     						}
 612:.\main.c      ****     						else{
 613:.\main.c      ****     							t_preset=1;
 614:.\main.c      ****     						}
 615:.\main.c      ****     						if(programar((lado2.dir & 0x0F),rventa2.manguera,preset,t_preset)==1){		//Programar
 616:.\main.c      ****                                 if(ppuinicial==0){                          
 617:.\main.c      ****     //                                for(x=0;x<=4;x++){
 618:.\main.c      ****     //                            	    precio[x]=lado1.ppu[0][x];	    
 619:.\main.c      ****     //                                }
 620:.\main.c      ****     //                                cambiar_precio(lado1.dir,precio,1);    
 621:.\main.c      ****     //                                for(x=0;x<=4;x++){
 622:.\main.c      ****     //                            	    precio[x]=lado1.ppu[1][x];	    
 623:.\main.c      ****     //                                }    
 624:.\main.c      ****     //                                cambiar_precio(lado1.dir,precio,2);
 625:.\main.c      ****     //                                for(x=0;x<=4;x++){
 626:.\main.c      ****     //                            	    precio[x]=lado1.ppu[2][x];	    
 627:.\main.c      ****     //                                }
 628:.\main.c      ****     //                                cambiar_precio(lado1.dir,precio,3);       
 629:.\main.c      ****                                 }
 630:.\main.c      ****                                 CyDelay(10);
 631:.\main.c      ****     							Surtidor_PutChar(0x10|(lado2.dir & 0x0F));							
 632:.\main.c      ****     							lado2.estado=tanqueo;
 633:.\main.c      ****     							flujo_LCD1=8;
ARM GAS  C:\Users\RECEPC~1\AppData\Local\Temp\ccVIJn7M.s 			page 48


 634:.\main.c      ****     							set_imagen(1,8);
 635:.\main.c      ****     						}
 636:.\main.c      ****     						else{
 637:.\main.c      ****     							rf_mod[0]='M';
 638:.\main.c      ****     							rf_mod[1]='U';
 639:.\main.c      ****     							rf_mod[2]='X';
 640:.\main.c      ****     							rf_mod[3]=creset;
 641:.\main.c      ****     							rf_mod[4]=cautorizar;
 642:.\main.c      ****     							rf_mod[5]=PC_rxBuffer[4];
 643:.\main.c      ****     							rf_mod[6]='2';
 644:.\main.c      ****     							rf_mod[7]='*';
 645:.\main.c      ****     							size=8;
 646:.\main.c      ****     							ok_datosRF=1;							
 647:.\main.c      ****     						}                    
 648:.\main.c      ****                     }
 649:.\main.c      **** 					break;
 2035              		.loc 1 649 0
 2036 0486 34E3     		b	.L55
 2037              	.L61:
 525:.\main.c      ****     						if(PC_rxBuffer[5]=='N'){			//No autorizo el servidor		
 2038              		.loc 1 525 0
 2039 0488 4B4B     		ldr	r3, .L108
 2040 048a 0022     		movs	r2, #0
 2041 048c DA70     		strb	r2, [r3, #3]
 526:.\main.c      ****     							error_op((PC_rxBuffer[4] & 0x0F),28);
 2042              		.loc 1 526 0
 2043 048e 4A4B     		ldr	r3, .L108
 2044 0490 5B79     		ldrb	r3, [r3, #5]
 2045 0492 DBB2     		uxtb	r3, r3
 2046 0494 4E2B     		cmp	r3, #78
 2047 0496 0AD1     		bne	.L79
 527:.\main.c      ****     							break;
 2048              		.loc 1 527 0
 2049 0498 474B     		ldr	r3, .L108
 2050 049a 1B79     		ldrb	r3, [r3, #4]
 2051 049c DBB2     		uxtb	r3, r3
 2052 049e 03F00F03 		and	r3, r3, #15
 2053 04a2 DBB2     		uxtb	r3, r3
 2054 04a4 1846     		mov	r0, r3
 2055 04a6 1C21     		movs	r1, #28
 2056 04a8 FFF7FEFF 		bl	error_op
 528:.\main.c      ****     						}
 2057              		.loc 1 528 0
 2058 04ac 21E3     		b	.L55
 2059              	.L79:
 530:.\main.c      ****                                 precio[0]=lado2.ppu[rventa2.manguera-1][0]&0x0f;	
 2060              		.loc 1 530 0
 2061 04ae 424B     		ldr	r3, .L108
 2062 04b0 9B7A     		ldrb	r3, [r3, #10]
 2063 04b2 DBB2     		uxtb	r3, r3
 2064 04b4 462B     		cmp	r3, #70
 2065 04b6 40F08F80 		bne	.L80
 531:.\main.c      ****         						precio[1]=lado2.ppu[rventa2.manguera-1][1]&0x0f;
 2066              		.loc 1 531 0
 2067 04ba 454B     		ldr	r3, .L108+24
 2068 04bc 9B7E     		ldrb	r3, [r3, #26]	@ zero_extendqisi2
 2069 04be 5A1E     		subs	r2, r3, #1
ARM GAS  C:\Users\RECEPC~1\AppData\Local\Temp\ccVIJn7M.s 			page 49


 2070 04c0 4449     		ldr	r1, .L108+28
 2071 04c2 1346     		mov	r3, r2
 2072 04c4 9B00     		lsls	r3, r3, #2
 2073 04c6 1344     		add	r3, r3, r2
 2074 04c8 0B44     		add	r3, r3, r1
 2075 04ca 4833     		adds	r3, r3, #72
 2076 04cc 9B78     		ldrb	r3, [r3, #2]
 2077 04ce DBB2     		uxtb	r3, r3
 2078 04d0 03F00F03 		and	r3, r3, #15
 2079 04d4 DBB2     		uxtb	r3, r3
 2080 04d6 3B72     		strb	r3, [r7, #8]
 532:.\main.c      ****         						precio[2]=lado2.ppu[rventa2.manguera-1][2]&0x0f;
 2081              		.loc 1 532 0
 2082 04d8 3D4B     		ldr	r3, .L108+24
 2083 04da 9B7E     		ldrb	r3, [r3, #26]	@ zero_extendqisi2
 2084 04dc 5A1E     		subs	r2, r3, #1
 2085 04de 3D49     		ldr	r1, .L108+28
 2086 04e0 1346     		mov	r3, r2
 2087 04e2 9B00     		lsls	r3, r3, #2
 2088 04e4 1344     		add	r3, r3, r2
 2089 04e6 0B44     		add	r3, r3, r1
 2090 04e8 4933     		adds	r3, r3, #73
 2091 04ea 9B78     		ldrb	r3, [r3, #2]
 2092 04ec DBB2     		uxtb	r3, r3
 2093 04ee 03F00F03 		and	r3, r3, #15
 2094 04f2 DBB2     		uxtb	r3, r3
 2095 04f4 7B72     		strb	r3, [r7, #9]
 533:.\main.c      ****         						precio[3]=lado2.ppu[rventa2.manguera-1][3]&0x0f;
 2096              		.loc 1 533 0
 2097 04f6 364B     		ldr	r3, .L108+24
 2098 04f8 9B7E     		ldrb	r3, [r3, #26]	@ zero_extendqisi2
 2099 04fa 5A1E     		subs	r2, r3, #1
 2100 04fc 3549     		ldr	r1, .L108+28
 2101 04fe 1346     		mov	r3, r2
 2102 0500 9B00     		lsls	r3, r3, #2
 2103 0502 1344     		add	r3, r3, r2
 2104 0504 0B44     		add	r3, r3, r1
 2105 0506 4A33     		adds	r3, r3, #74
 2106 0508 9B78     		ldrb	r3, [r3, #2]
 2107 050a DBB2     		uxtb	r3, r3
 2108 050c 03F00F03 		and	r3, r3, #15
 2109 0510 DBB2     		uxtb	r3, r3
 2110 0512 BB72     		strb	r3, [r7, #10]
 534:.\main.c      ****         						precio[4]=lado2.ppu[rventa2.manguera-1][4]&0x0f;
 2111              		.loc 1 534 0
 2112 0514 2E4B     		ldr	r3, .L108+24
 2113 0516 9B7E     		ldrb	r3, [r3, #26]	@ zero_extendqisi2
 2114 0518 5A1E     		subs	r2, r3, #1
 2115 051a 2E49     		ldr	r1, .L108+28
 2116 051c 1346     		mov	r3, r2
 2117 051e 9B00     		lsls	r3, r3, #2
 2118 0520 1344     		add	r3, r3, r2
 2119 0522 0B44     		add	r3, r3, r1
 2120 0524 4B33     		adds	r3, r3, #75
 2121 0526 9B78     		ldrb	r3, [r3, #2]
 2122 0528 DBB2     		uxtb	r3, r3
 2123 052a 03F00F03 		and	r3, r3, #15
ARM GAS  C:\Users\RECEPC~1\AppData\Local\Temp\ccVIJn7M.s 			page 50


 2124 052e DBB2     		uxtb	r3, r3
 2125 0530 FB72     		strb	r3, [r7, #11]
 535:.\main.c      ****                             	if(cambiar_precio((lado2.dir & 0x0F),precio,rventa2.manguera)==0){
 2126              		.loc 1 535 0
 2127 0532 274B     		ldr	r3, .L108+24
 2128 0534 9B7E     		ldrb	r3, [r3, #26]	@ zero_extendqisi2
 2129 0536 5A1E     		subs	r2, r3, #1
 2130 0538 2649     		ldr	r1, .L108+28
 2131 053a 1346     		mov	r3, r2
 2132 053c 9B00     		lsls	r3, r3, #2
 2133 053e 1344     		add	r3, r3, r2
 2134 0540 0B44     		add	r3, r3, r1
 2135 0542 4C33     		adds	r3, r3, #76
 2136 0544 9B78     		ldrb	r3, [r3, #2]
 2137 0546 DBB2     		uxtb	r3, r3
 2138 0548 03F00F03 		and	r3, r3, #15
 2139 054c DBB2     		uxtb	r3, r3
 2140 054e 3B73     		strb	r3, [r7, #12]
 536:.\main.c      ****     								rf_mod[0]='M';
 2141              		.loc 1 536 0
 2142 0550 204B     		ldr	r3, .L108+28
 2143 0552 1B78     		ldrb	r3, [r3]
 2144 0554 DBB2     		uxtb	r3, r3
 2145 0556 03F00F03 		and	r3, r3, #15
 2146 055a D9B2     		uxtb	r1, r3
 2147 055c 1C4B     		ldr	r3, .L108+24
 2148 055e 9B7E     		ldrb	r3, [r3, #26]	@ zero_extendqisi2
 2149 0560 07F10802 		add	r2, r7, #8
 2150 0564 0846     		mov	r0, r1
 2151 0566 1146     		mov	r1, r2
 2152 0568 1A46     		mov	r2, r3
 2153 056a FFF7FEFF 		bl	cambiar_precio
 2154 056e 0346     		mov	r3, r0
 2155 0570 002B     		cmp	r3, #0
 2156 0572 40F09E80 		bne	.L81
 537:.\main.c      ****     								rf_mod[1]='U';
 2157              		.loc 1 537 0
 2158 0576 144B     		ldr	r3, .L108+16
 2159 0578 4D22     		movs	r2, #77
 2160 057a 1A70     		strb	r2, [r3]
 538:.\main.c      ****     								rf_mod[2]='X';
 2161              		.loc 1 538 0
 2162 057c 124B     		ldr	r3, .L108+16
 2163 057e 5522     		movs	r2, #85
 2164 0580 5A70     		strb	r2, [r3, #1]
 539:.\main.c      ****     								rf_mod[3]=creset;
 2165              		.loc 1 539 0
 2166 0582 114B     		ldr	r3, .L108+16
 2167 0584 5822     		movs	r2, #88
 2168 0586 9A70     		strb	r2, [r3, #2]
 540:.\main.c      ****     								rf_mod[4]=cautorizar;
 2169              		.loc 1 540 0
 2170 0588 0F4B     		ldr	r3, .L108+16
 2171 058a 4522     		movs	r2, #69
 2172 058c DA70     		strb	r2, [r3, #3]
 541:.\main.c      ****     								rf_mod[5]=PC_rxBuffer[4];
 2173              		.loc 1 541 0
ARM GAS  C:\Users\RECEPC~1\AppData\Local\Temp\ccVIJn7M.s 			page 51


 2174 058e 0E4B     		ldr	r3, .L108+16
 2175 0590 3022     		movs	r2, #48
 2176 0592 1A71     		strb	r2, [r3, #4]
 542:.\main.c      ****     								rf_mod[6]='1';
 2177              		.loc 1 542 0
 2178 0594 084B     		ldr	r3, .L108
 2179 0596 1B79     		ldrb	r3, [r3, #4]
 2180 0598 DAB2     		uxtb	r2, r3
 2181 059a 0B4B     		ldr	r3, .L108+16
 2182 059c 5A71     		strb	r2, [r3, #5]
 543:.\main.c      ****     								rf_mod[7]='*';
 2183              		.loc 1 543 0
 2184 059e 0A4B     		ldr	r3, .L108+16
 2185 05a0 3122     		movs	r2, #49
 2186 05a2 9A71     		strb	r2, [r3, #6]
 544:.\main.c      ****     								size=8;
 2187              		.loc 1 544 0
 2188 05a4 084B     		ldr	r3, .L108+16
 2189 05a6 2A22     		movs	r2, #42
 2190 05a8 DA71     		strb	r2, [r3, #7]
 545:.\main.c      ****     								ok_datosRF=1;
 2191              		.loc 1 545 0
 2192 05aa 0823     		movs	r3, #8
 2193 05ac FB82     		strh	r3, [r7, #22]	@ movhi
 546:.\main.c      ****     								break;
 2194              		.loc 1 546 0
 2195 05ae 074B     		ldr	r3, .L108+20
 2196 05b0 0122     		movs	r2, #1
 2197 05b2 1A70     		strb	r2, [r3]
 547:.\main.c      ****     							}                                                      
 2198              		.loc 1 547 0
 2199 05b4 9DE2     		b	.L55
 2200              	.L109:
 2201 05b6 00BF     		.align	2
 2202              	.L108:
 2203 05b8 00000000 		.word	PC_rxBuffer
 2204 05bc 00000000 		.word	lado1
 2205 05c0 00000000 		.word	rventa1
 2206 05c4 00000000 		.word	flujo_LCD1
 2207 05c8 00000000 		.word	rf_mod
 2208 05cc 00000000 		.word	ok_datosRF
 2209 05d0 00000000 		.word	rventa2
 2210 05d4 00000000 		.word	lado2
 2211              	.L80:
 551:.\main.c      ****                                 if(ppux10==1){
 2212              		.loc 1 551 0
 2213 05d8 AE4B     		ldr	r3, .L110
 2214 05da 1B78     		ldrb	r3, [r3]
 2215 05dc DAB2     		uxtb	r2, r3
 2216 05de AD4B     		ldr	r3, .L110
 2217 05e0 93F85C30 		ldrb	r3, [r3, #92]
 2218 05e4 DBB2     		uxtb	r3, r3
 2219 05e6 1046     		mov	r0, r2
 2220 05e8 1946     		mov	r1, r3
 2221 05ea FFF7FEFF 		bl	totales
 552:.\main.c      ****         							precio[4]=PC_rxBuffer[9];	
 2222              		.loc 1 552 0
ARM GAS  C:\Users\RECEPC~1\AppData\Local\Temp\ccVIJn7M.s 			page 52


 2223 05ee AA4B     		ldr	r3, .L110+4
 2224 05f0 1B78     		ldrb	r3, [r3]
 2225 05f2 DBB2     		uxtb	r3, r3
 2226 05f4 012B     		cmp	r3, #1
 2227 05f6 11D1     		bne	.L82
 553:.\main.c      ****         							precio[3]=PC_rxBuffer[8];
 2228              		.loc 1 553 0
 2229 05f8 A84B     		ldr	r3, .L110+8
 2230 05fa 5B7A     		ldrb	r3, [r3, #9]
 2231 05fc DBB2     		uxtb	r3, r3
 2232 05fe 3B73     		strb	r3, [r7, #12]
 554:.\main.c      ****         							precio[2]=PC_rxBuffer[7];
 2233              		.loc 1 554 0
 2234 0600 A64B     		ldr	r3, .L110+8
 2235 0602 1B7A     		ldrb	r3, [r3, #8]
 2236 0604 DBB2     		uxtb	r3, r3
 2237 0606 FB72     		strb	r3, [r7, #11]
 555:.\main.c      ****         							precio[1]=PC_rxBuffer[6];
 2238              		.loc 1 555 0
 2239 0608 A44B     		ldr	r3, .L110+8
 2240 060a DB79     		ldrb	r3, [r3, #7]
 2241 060c DBB2     		uxtb	r3, r3
 2242 060e BB72     		strb	r3, [r7, #10]
 556:.\main.c      ****         							precio[0]=0;			
 2243              		.loc 1 556 0
 2244 0610 A24B     		ldr	r3, .L110+8
 2245 0612 9B79     		ldrb	r3, [r3, #6]
 2246 0614 DBB2     		uxtb	r3, r3
 2247 0616 7B72     		strb	r3, [r7, #9]
 557:.\main.c      ****                                 }
 2248              		.loc 1 557 0
 2249 0618 0023     		movs	r3, #0
 2250 061a 3B72     		strb	r3, [r7, #8]
 2251              	.L82:
 559:.\main.c      ****         							precio[4]=PC_rxBuffer[10];	
 2252              		.loc 1 559 0
 2253 061c 9E4B     		ldr	r3, .L110+4
 2254 061e 1B78     		ldrb	r3, [r3]
 2255 0620 DBB2     		uxtb	r3, r3
 2256 0622 002B     		cmp	r3, #0
 2257 0624 13D1     		bne	.L83
 560:.\main.c      ****         							precio[3]=PC_rxBuffer[9];
 2258              		.loc 1 560 0
 2259 0626 9D4B     		ldr	r3, .L110+8
 2260 0628 9B7A     		ldrb	r3, [r3, #10]
 2261 062a DBB2     		uxtb	r3, r3
 2262 062c 3B73     		strb	r3, [r7, #12]
 561:.\main.c      ****         							precio[2]=PC_rxBuffer[8];
 2263              		.loc 1 561 0
 2264 062e 9B4B     		ldr	r3, .L110+8
 2265 0630 5B7A     		ldrb	r3, [r3, #9]
 2266 0632 DBB2     		uxtb	r3, r3
 2267 0634 FB72     		strb	r3, [r7, #11]
 562:.\main.c      ****         							precio[1]=PC_rxBuffer[7];
 2268              		.loc 1 562 0
 2269 0636 994B     		ldr	r3, .L110+8
 2270 0638 1B7A     		ldrb	r3, [r3, #8]
ARM GAS  C:\Users\RECEPC~1\AppData\Local\Temp\ccVIJn7M.s 			page 53


 2271 063a DBB2     		uxtb	r3, r3
 2272 063c BB72     		strb	r3, [r7, #10]
 563:.\main.c      ****         							precio[0]=PC_rxBuffer[6];                            
 2273              		.loc 1 563 0
 2274 063e 974B     		ldr	r3, .L110+8
 2275 0640 DB79     		ldrb	r3, [r3, #7]
 2276 0642 DBB2     		uxtb	r3, r3
 2277 0644 7B72     		strb	r3, [r7, #9]
 564:.\main.c      ****                                 }
 2278              		.loc 1 564 0
 2279 0646 954B     		ldr	r3, .L110+8
 2280 0648 9B79     		ldrb	r3, [r3, #6]
 2281 064a DBB2     		uxtb	r3, r3
 2282 064c 3B72     		strb	r3, [r7, #8]
 2283              	.L83:
 566:.\main.c      ****     								rf_mod[0]='M';
 2284              		.loc 1 566 0
 2285 064e 914B     		ldr	r3, .L110
 2286 0650 1B78     		ldrb	r3, [r3]
 2287 0652 DBB2     		uxtb	r3, r3
 2288 0654 03F00F03 		and	r3, r3, #15
 2289 0658 D9B2     		uxtb	r1, r3
 2290 065a 914B     		ldr	r3, .L110+12
 2291 065c 9B7E     		ldrb	r3, [r3, #26]	@ zero_extendqisi2
 2292 065e 07F10802 		add	r2, r7, #8
 2293 0662 0846     		mov	r0, r1
 2294 0664 1146     		mov	r1, r2
 2295 0666 1A46     		mov	r2, r3
 2296 0668 FFF7FEFF 		bl	cambiar_precio
 2297 066c 0346     		mov	r3, r0
 2298 066e 002B     		cmp	r3, #0
 2299 0670 1FD1     		bne	.L81
 567:.\main.c      ****     								rf_mod[1]='U';
 2300              		.loc 1 567 0
 2301 0672 8C4B     		ldr	r3, .L110+16
 2302 0674 4D22     		movs	r2, #77
 2303 0676 1A70     		strb	r2, [r3]
 568:.\main.c      ****     								rf_mod[2]='X';
 2304              		.loc 1 568 0
 2305 0678 8A4B     		ldr	r3, .L110+16
 2306 067a 5522     		movs	r2, #85
 2307 067c 5A70     		strb	r2, [r3, #1]
 569:.\main.c      ****     								rf_mod[3]=creset;
 2308              		.loc 1 569 0
 2309 067e 894B     		ldr	r3, .L110+16
 2310 0680 5822     		movs	r2, #88
 2311 0682 9A70     		strb	r2, [r3, #2]
 570:.\main.c      ****     								rf_mod[4]=cautorizar;
 2312              		.loc 1 570 0
 2313 0684 874B     		ldr	r3, .L110+16
 2314 0686 4522     		movs	r2, #69
 2315 0688 DA70     		strb	r2, [r3, #3]
 571:.\main.c      ****     								rf_mod[5]=PC_rxBuffer[4];
 2316              		.loc 1 571 0
 2317 068a 864B     		ldr	r3, .L110+16
 2318 068c 3022     		movs	r2, #48
 2319 068e 1A71     		strb	r2, [r3, #4]
ARM GAS  C:\Users\RECEPC~1\AppData\Local\Temp\ccVIJn7M.s 			page 54


 572:.\main.c      ****     								rf_mod[6]='1';
 2320              		.loc 1 572 0
 2321 0690 824B     		ldr	r3, .L110+8
 2322 0692 1B79     		ldrb	r3, [r3, #4]
 2323 0694 DAB2     		uxtb	r2, r3
 2324 0696 834B     		ldr	r3, .L110+16
 2325 0698 5A71     		strb	r2, [r3, #5]
 573:.\main.c      ****     								rf_mod[7]='*';
 2326              		.loc 1 573 0
 2327 069a 824B     		ldr	r3, .L110+16
 2328 069c 3122     		movs	r2, #49
 2329 069e 9A71     		strb	r2, [r3, #6]
 574:.\main.c      ****     								size=8;
 2330              		.loc 1 574 0
 2331 06a0 804B     		ldr	r3, .L110+16
 2332 06a2 2A22     		movs	r2, #42
 2333 06a4 DA71     		strb	r2, [r3, #7]
 575:.\main.c      ****     								ok_datosRF=1;
 2334              		.loc 1 575 0
 2335 06a6 0823     		movs	r3, #8
 2336 06a8 FB82     		strh	r3, [r7, #22]	@ movhi
 576:.\main.c      ****     								break;
 2337              		.loc 1 576 0
 2338 06aa 7F4B     		ldr	r3, .L110+20
 2339 06ac 0122     		movs	r2, #1
 2340 06ae 1A70     		strb	r2, [r3]
 577:.\main.c      ****     							}
 2341              		.loc 1 577 0
 2342 06b0 1FE2     		b	.L55
 2343              	.L81:
 580:.\main.c      ****     						if(PC_rxBuffer[17]!=','){
 2344              		.loc 1 580 0
 2345 06b2 7A4B     		ldr	r3, .L110+8
 2346 06b4 5B7C     		ldrb	r3, [r3, #17]
 2347 06b6 DBB2     		uxtb	r3, r3
 2348 06b8 7B70     		strb	r3, [r7, #1]
 581:.\main.c      ****     							preset[1]=PC_rxBuffer[17] & 0x0F;
 2349              		.loc 1 581 0
 2350 06ba 784B     		ldr	r3, .L110+8
 2351 06bc 5B7C     		ldrb	r3, [r3, #17]
 2352 06be DBB2     		uxtb	r3, r3
 2353 06c0 2C2B     		cmp	r3, #44
 2354 06c2 06D0     		beq	.L84
 582:.\main.c      ****     						}
 2355              		.loc 1 582 0
 2356 06c4 754B     		ldr	r3, .L110+8
 2357 06c6 5B7C     		ldrb	r3, [r3, #17]
 2358 06c8 DBB2     		uxtb	r3, r3
 2359 06ca 03F00F03 		and	r3, r3, #15
 2360 06ce DBB2     		uxtb	r3, r3
 2361 06d0 7B70     		strb	r3, [r7, #1]
 2362              	.L84:
 584:.\main.c      ****     						if(PC_rxBuffer[16]!=','){
 2363              		.loc 1 584 0
 2364 06d2 724B     		ldr	r3, .L110+8
 2365 06d4 1B7C     		ldrb	r3, [r3, #16]
 2366 06d6 DBB2     		uxtb	r3, r3
ARM GAS  C:\Users\RECEPC~1\AppData\Local\Temp\ccVIJn7M.s 			page 55


 2367 06d8 BB70     		strb	r3, [r7, #2]
 585:.\main.c      ****     							preset[2]=PC_rxBuffer[16] & 0x0F;
 2368              		.loc 1 585 0
 2369 06da 704B     		ldr	r3, .L110+8
 2370 06dc 1B7C     		ldrb	r3, [r3, #16]
 2371 06de DBB2     		uxtb	r3, r3
 2372 06e0 2C2B     		cmp	r3, #44
 2373 06e2 06D0     		beq	.L85
 586:.\main.c      ****     						}
 2374              		.loc 1 586 0
 2375 06e4 6D4B     		ldr	r3, .L110+8
 2376 06e6 1B7C     		ldrb	r3, [r3, #16]
 2377 06e8 DBB2     		uxtb	r3, r3
 2378 06ea 03F00F03 		and	r3, r3, #15
 2379 06ee DBB2     		uxtb	r3, r3
 2380 06f0 BB70     		strb	r3, [r7, #2]
 2381              	.L85:
 588:.\main.c      ****     						if(PC_rxBuffer[15]!=','){
 2382              		.loc 1 588 0
 2383 06f2 6A4B     		ldr	r3, .L110+8
 2384 06f4 DB7B     		ldrb	r3, [r3, #15]
 2385 06f6 DBB2     		uxtb	r3, r3
 2386 06f8 FB70     		strb	r3, [r7, #3]
 589:.\main.c      ****     							preset[3]=PC_rxBuffer[15] & 0x0F;
 2387              		.loc 1 589 0
 2388 06fa 684B     		ldr	r3, .L110+8
 2389 06fc DB7B     		ldrb	r3, [r3, #15]
 2390 06fe DBB2     		uxtb	r3, r3
 2391 0700 2C2B     		cmp	r3, #44
 2392 0702 06D0     		beq	.L86
 590:.\main.c      ****     						}
 2393              		.loc 1 590 0
 2394 0704 654B     		ldr	r3, .L110+8
 2395 0706 DB7B     		ldrb	r3, [r3, #15]
 2396 0708 DBB2     		uxtb	r3, r3
 2397 070a 03F00F03 		and	r3, r3, #15
 2398 070e DBB2     		uxtb	r3, r3
 2399 0710 FB70     		strb	r3, [r7, #3]
 2400              	.L86:
 592:.\main.c      ****     						if(PC_rxBuffer[14]!=','){
 2401              		.loc 1 592 0
 2402 0712 624B     		ldr	r3, .L110+8
 2403 0714 9B7B     		ldrb	r3, [r3, #14]
 2404 0716 DBB2     		uxtb	r3, r3
 2405 0718 3B71     		strb	r3, [r7, #4]
 593:.\main.c      ****     							preset[4]=PC_rxBuffer[14] & 0x0F;
 2406              		.loc 1 593 0
 2407 071a 604B     		ldr	r3, .L110+8
 2408 071c 9B7B     		ldrb	r3, [r3, #14]
 2409 071e DBB2     		uxtb	r3, r3
 2410 0720 2C2B     		cmp	r3, #44
 2411 0722 06D0     		beq	.L87
 594:.\main.c      ****     						}
 2412              		.loc 1 594 0
 2413 0724 5D4B     		ldr	r3, .L110+8
 2414 0726 9B7B     		ldrb	r3, [r3, #14]
 2415 0728 DBB2     		uxtb	r3, r3
ARM GAS  C:\Users\RECEPC~1\AppData\Local\Temp\ccVIJn7M.s 			page 56


 2416 072a 03F00F03 		and	r3, r3, #15
 2417 072e DBB2     		uxtb	r3, r3
 2418 0730 3B71     		strb	r3, [r7, #4]
 2419              	.L87:
 596:.\main.c      ****     						if(PC_rxBuffer[13]!=','){
 2420              		.loc 1 596 0
 2421 0732 5A4B     		ldr	r3, .L110+8
 2422 0734 5B7B     		ldrb	r3, [r3, #13]
 2423 0736 DBB2     		uxtb	r3, r3
 2424 0738 7B71     		strb	r3, [r7, #5]
 597:.\main.c      ****     							preset[5]=PC_rxBuffer[13] & 0x0F;
 2425              		.loc 1 597 0
 2426 073a 584B     		ldr	r3, .L110+8
 2427 073c 5B7B     		ldrb	r3, [r3, #13]
 2428 073e DBB2     		uxtb	r3, r3
 2429 0740 2C2B     		cmp	r3, #44
 2430 0742 06D0     		beq	.L88
 598:.\main.c      ****     						}
 2431              		.loc 1 598 0
 2432 0744 554B     		ldr	r3, .L110+8
 2433 0746 5B7B     		ldrb	r3, [r3, #13]
 2434 0748 DBB2     		uxtb	r3, r3
 2435 074a 03F00F03 		and	r3, r3, #15
 2436 074e DBB2     		uxtb	r3, r3
 2437 0750 7B71     		strb	r3, [r7, #5]
 2438              	.L88:
 600:.\main.c      ****     						if(PC_rxBuffer[12]!=','){
 2439              		.loc 1 600 0
 2440 0752 524B     		ldr	r3, .L110+8
 2441 0754 1B7B     		ldrb	r3, [r3, #12]
 2442 0756 DBB2     		uxtb	r3, r3
 2443 0758 BB71     		strb	r3, [r7, #6]
 601:.\main.c      ****     							preset[6]=PC_rxBuffer[12] & 0x0F;
 2444              		.loc 1 601 0
 2445 075a 504B     		ldr	r3, .L110+8
 2446 075c 1B7B     		ldrb	r3, [r3, #12]
 2447 075e DBB2     		uxtb	r3, r3
 2448 0760 2C2B     		cmp	r3, #44
 2449 0762 06D0     		beq	.L89
 602:.\main.c      ****     						}
 2450              		.loc 1 602 0
 2451 0764 4D4B     		ldr	r3, .L110+8
 2452 0766 1B7B     		ldrb	r3, [r3, #12]
 2453 0768 DBB2     		uxtb	r3, r3
 2454 076a 03F00F03 		and	r3, r3, #15
 2455 076e DBB2     		uxtb	r3, r3
 2456 0770 BB71     		strb	r3, [r7, #6]
 2457              	.L89:
 604:.\main.c      ****     						if(PC_rxBuffer[11]!=','){
 2458              		.loc 1 604 0
 2459 0772 4A4B     		ldr	r3, .L110+8
 2460 0774 DB7A     		ldrb	r3, [r3, #11]
 2461 0776 DBB2     		uxtb	r3, r3
 2462 0778 FB71     		strb	r3, [r7, #7]
 605:.\main.c      ****     							preset[7]=PC_rxBuffer[11] & 0x0F;
 2463              		.loc 1 605 0
 2464 077a 484B     		ldr	r3, .L110+8
ARM GAS  C:\Users\RECEPC~1\AppData\Local\Temp\ccVIJn7M.s 			page 57


 2465 077c DB7A     		ldrb	r3, [r3, #11]
 2466 077e DBB2     		uxtb	r3, r3
 2467 0780 2C2B     		cmp	r3, #44
 2468 0782 06D0     		beq	.L90
 606:.\main.c      ****     						}
 2469              		.loc 1 606 0
 2470 0784 454B     		ldr	r3, .L110+8
 2471 0786 DB7A     		ldrb	r3, [r3, #11]
 2472 0788 DBB2     		uxtb	r3, r3
 2473 078a 03F00F03 		and	r3, r3, #15
 2474 078e DBB2     		uxtb	r3, r3
 2475 0790 FB71     		strb	r3, [r7, #7]
 2476              	.L90:
 608:.\main.c      ****     						if(t_preset=='1'){
 2477              		.loc 1 608 0
 2478 0792 424B     		ldr	r3, .L110+8
 2479 0794 9B7C     		ldrb	r3, [r3, #18]
 2480 0796 DBB2     		uxtb	r3, r3
 2481 0798 7B82     		strh	r3, [r7, #18]	@ movhi
 609:.\main.c      ****     							t_preset=2;
 2482              		.loc 1 609 0
 2483 079a 7B8A     		ldrh	r3, [r7, #18]
 2484 079c 312B     		cmp	r3, #49
 2485 079e 02D1     		bne	.L91
 610:.\main.c      ****     						}
 2486              		.loc 1 610 0
 2487 07a0 0223     		movs	r3, #2
 2488 07a2 7B82     		strh	r3, [r7, #18]	@ movhi
 2489 07a4 01E0     		b	.L92
 2490              	.L91:
 613:.\main.c      ****     						}
 2491              		.loc 1 613 0
 2492 07a6 0123     		movs	r3, #1
 2493 07a8 7B82     		strh	r3, [r7, #18]	@ movhi
 2494              	.L92:
 615:.\main.c      ****                                 if(ppuinicial==0){                          
 2495              		.loc 1 615 0
 2496 07aa 3A4B     		ldr	r3, .L110
 2497 07ac 1B78     		ldrb	r3, [r3]
 2498 07ae DBB2     		uxtb	r3, r3
 2499 07b0 03F00F03 		and	r3, r3, #15
 2500 07b4 D8B2     		uxtb	r0, r3
 2501 07b6 3A4B     		ldr	r3, .L110+12
 2502 07b8 997E     		ldrb	r1, [r3, #26]	@ zero_extendqisi2
 2503 07ba 7B8A     		ldrh	r3, [r7, #18]	@ movhi
 2504 07bc DBB2     		uxtb	r3, r3
 2505 07be 3A46     		mov	r2, r7
 2506 07c0 FFF7FEFF 		bl	programar
 2507 07c4 0346     		mov	r3, r0
 2508 07c6 012B     		cmp	r3, #1
 2509 07c8 1BD1     		bne	.L93
 630:.\main.c      ****     							Surtidor_PutChar(0x10|(lado2.dir & 0x0F));							
 2510              		.loc 1 630 0
 2511 07ca 0A20     		movs	r0, #10
 2512 07cc FFF7FEFF 		bl	CyDelay
 631:.\main.c      ****     							lado2.estado=tanqueo;
 2513              		.loc 1 631 0
ARM GAS  C:\Users\RECEPC~1\AppData\Local\Temp\ccVIJn7M.s 			page 58


 2514 07d0 304B     		ldr	r3, .L110
 2515 07d2 1B78     		ldrb	r3, [r3]
 2516 07d4 DBB2     		uxtb	r3, r3
 2517 07d6 DBB2     		uxtb	r3, r3
 2518 07d8 03F00F03 		and	r3, r3, #15
 2519 07dc DBB2     		uxtb	r3, r3
 2520 07de 43F01003 		orr	r3, r3, #16
 2521 07e2 DBB2     		uxtb	r3, r3
 2522 07e4 DBB2     		uxtb	r3, r3
 2523 07e6 1846     		mov	r0, r3
 2524 07e8 FFF7FEFF 		bl	Surtidor_PutChar
 632:.\main.c      ****     							flujo_LCD1=8;
 2525              		.loc 1 632 0
 2526 07ec 294B     		ldr	r3, .L110
 2527 07ee 0622     		movs	r2, #6
 2528 07f0 5A70     		strb	r2, [r3, #1]
 633:.\main.c      ****     							set_imagen(1,8);
 2529              		.loc 1 633 0
 2530 07f2 2E4B     		ldr	r3, .L110+24
 2531 07f4 0822     		movs	r2, #8
 2532 07f6 1A70     		strb	r2, [r3]
 634:.\main.c      ****     						}
 2533              		.loc 1 634 0
 2534 07f8 0120     		movs	r0, #1
 2535 07fa 0821     		movs	r1, #8
 2536 07fc FFF7FEFF 		bl	set_imagen
 2537 0800 1FE0     		b	.L78
 2538              	.L93:
 637:.\main.c      ****     							rf_mod[1]='U';
 2539              		.loc 1 637 0
 2540 0802 284B     		ldr	r3, .L110+16
 2541 0804 4D22     		movs	r2, #77
 2542 0806 1A70     		strb	r2, [r3]
 638:.\main.c      ****     							rf_mod[2]='X';
 2543              		.loc 1 638 0
 2544 0808 264B     		ldr	r3, .L110+16
 2545 080a 5522     		movs	r2, #85
 2546 080c 5A70     		strb	r2, [r3, #1]
 639:.\main.c      ****     							rf_mod[3]=creset;
 2547              		.loc 1 639 0
 2548 080e 254B     		ldr	r3, .L110+16
 2549 0810 5822     		movs	r2, #88
 2550 0812 9A70     		strb	r2, [r3, #2]
 640:.\main.c      ****     							rf_mod[4]=cautorizar;
 2551              		.loc 1 640 0
 2552 0814 234B     		ldr	r3, .L110+16
 2553 0816 4522     		movs	r2, #69
 2554 0818 DA70     		strb	r2, [r3, #3]
 641:.\main.c      ****     							rf_mod[5]=PC_rxBuffer[4];
 2555              		.loc 1 641 0
 2556 081a 224B     		ldr	r3, .L110+16
 2557 081c 3022     		movs	r2, #48
 2558 081e 1A71     		strb	r2, [r3, #4]
 642:.\main.c      ****     							rf_mod[6]='2';
 2559              		.loc 1 642 0
 2560 0820 1E4B     		ldr	r3, .L110+8
 2561 0822 1B79     		ldrb	r3, [r3, #4]
ARM GAS  C:\Users\RECEPC~1\AppData\Local\Temp\ccVIJn7M.s 			page 59


 2562 0824 DAB2     		uxtb	r2, r3
 2563 0826 1F4B     		ldr	r3, .L110+16
 2564 0828 5A71     		strb	r2, [r3, #5]
 643:.\main.c      ****     							rf_mod[7]='*';
 2565              		.loc 1 643 0
 2566 082a 1E4B     		ldr	r3, .L110+16
 2567 082c 3222     		movs	r2, #50
 2568 082e 9A71     		strb	r2, [r3, #6]
 644:.\main.c      ****     							size=8;
 2569              		.loc 1 644 0
 2570 0830 1C4B     		ldr	r3, .L110+16
 2571 0832 2A22     		movs	r2, #42
 2572 0834 DA71     		strb	r2, [r3, #7]
 645:.\main.c      ****     							ok_datosRF=1;							
 2573              		.loc 1 645 0
 2574 0836 0823     		movs	r3, #8
 2575 0838 FB82     		strh	r3, [r7, #22]	@ movhi
 646:.\main.c      ****     						}                    
 2576              		.loc 1 646 0
 2577 083a 1B4B     		ldr	r3, .L110+20
 2578 083c 0122     		movs	r2, #1
 2579 083e 1A70     		strb	r2, [r3]
 2580              		.loc 1 649 0
 2581 0840 57E1     		b	.L55
 2582              	.L78:
 2583              		.loc 1 649 0 is_stmt 0 discriminator 1
 2584 0842 56E1     		b	.L55
 2585              	.L58:
 650:.\main.c      **** 					
 651:.\main.c      **** 					case cimprimir:
 652:.\main.c      **** 						set_imagen(1,55);					
 2586              		.loc 1 652 0 is_stmt 1
 2587 0844 0120     		movs	r0, #1
 2588 0846 3721     		movs	r1, #55
 2589 0848 FFF7FEFF 		bl	set_imagen
 653:.\main.c      **** 						if(lado1.dir==(lado1.dir & 0x0F)){
 2590              		.loc 1 653 0
 2591 084c 184B     		ldr	r3, .L110+28
 2592 084e 1B78     		ldrb	r3, [r3]
 2593 0850 DBB2     		uxtb	r3, r3
 2594 0852 1A46     		mov	r2, r3
 2595 0854 164B     		ldr	r3, .L110+28
 2596 0856 1B78     		ldrb	r3, [r3]
 2597 0858 DBB2     		uxtb	r3, r3
 2598 085a 03F00F03 		and	r3, r3, #15
 2599 085e 9A42     		cmp	r2, r3
 2600 0860 06D1     		bne	.L94
 654:.\main.c      **** 							lado1.estado=libre;
 2601              		.loc 1 654 0
 2602 0862 134B     		ldr	r3, .L110+28
 2603 0864 0122     		movs	r2, #1
 2604 0866 5A70     		strb	r2, [r3, #1]
 655:.\main.c      **** 							flujo_LCD1=0;
 2605              		.loc 1 655 0
 2606 0868 104B     		ldr	r3, .L110+24
 2607 086a 0022     		movs	r2, #0
 2608 086c 1A70     		strb	r2, [r3]
ARM GAS  C:\Users\RECEPC~1\AppData\Local\Temp\ccVIJn7M.s 			page 60


 2609 086e 21E0     		b	.L95
 2610              	.L94:
 656:.\main.c      **** 						}
 657:.\main.c      **** 						else if(lado2.dir==(PC_rxBuffer[4] & 0x0F)){
 2611              		.loc 1 657 0
 2612 0870 084B     		ldr	r3, .L110
 2613 0872 1B78     		ldrb	r3, [r3]
 2614 0874 DBB2     		uxtb	r3, r3
 2615 0876 1A46     		mov	r2, r3
 2616 0878 084B     		ldr	r3, .L110+8
 2617 087a 1B79     		ldrb	r3, [r3, #4]
 2618 087c DBB2     		uxtb	r3, r3
 2619 087e 03F00F03 		and	r3, r3, #15
 2620 0882 9A42     		cmp	r2, r3
 2621 0884 16D1     		bne	.L95
 658:.\main.c      **** 							lado2.estado=libre;
 2622              		.loc 1 658 0
 2623 0886 034B     		ldr	r3, .L110
 2624 0888 0122     		movs	r2, #1
 2625 088a 5A70     		strb	r2, [r3, #1]
 659:.\main.c      **** 							flujo_LCD1=0;
 2626              		.loc 1 659 0
 2627 088c 074B     		ldr	r3, .L110+24
 2628 088e 0022     		movs	r2, #0
 2629 0890 1A70     		strb	r2, [r3]
 660:.\main.c      **** 						}						
 661:.\main.c      **** 					break;
 2630              		.loc 1 661 0
 2631 0892 2EE1     		b	.L55
 2632              	.L111:
 2633              		.align	2
 2634              	.L110:
 2635 0894 00000000 		.word	lado2
 2636 0898 00000000 		.word	ppux10
 2637 089c 00000000 		.word	PC_rxBuffer
 2638 08a0 00000000 		.word	rventa2
 2639 08a4 00000000 		.word	rf_mod
 2640 08a8 00000000 		.word	ok_datosRF
 2641 08ac 00000000 		.word	flujo_LCD1
 2642 08b0 00000000 		.word	lado1
 2643              	.L95:
 2644 08b4 1DE1     		b	.L55
 2645              	.L60:
 662:.\main.c      **** 					
 663:.\main.c      **** 					case creset:                                   
 664:.\main.c      ****     						switch(PC_rxBuffer[5]){
 2646              		.loc 1 664 0
 2647 08b6 9E4B     		ldr	r3, .L112
 2648 08b8 5B79     		ldrb	r3, [r3, #5]
 2649 08ba DBB2     		uxtb	r3, r3
 2650 08bc 313B     		subs	r3, r3, #49
 2651 08be 032B     		cmp	r3, #3
 2652 08c0 00F21681 		bhi	.L104
 2653 08c4 01A2     		adr	r2, .L98
 2654 08c6 52F823F0 		ldr	pc, [r2, r3, lsl #2]
 2655 08ca 00BF     		.p2align 2
 2656              	.L98:
ARM GAS  C:\Users\RECEPC~1\AppData\Local\Temp\ccVIJn7M.s 			page 61


 2657 08cc DD080000 		.word	.L97+1
 2658 08d0 ED080000 		.word	.L99+1
 2659 08d4 FD080000 		.word	.L100+1
 2660 08d8 0D090000 		.word	.L105+1
 2661              		.p2align 1
 2662              	.L97:
 665:.\main.c      ****     							case '1':														
 666:.\main.c      ****     								lado1.estado=libre;
 2663              		.loc 1 666 0
 2664 08dc 954B     		ldr	r3, .L112+4
 2665 08de 0122     		movs	r2, #1
 2666 08e0 5A70     		strb	r2, [r3, #1]
 667:.\main.c      ****     								error_op(1,28);					 //Error de id					
 2667              		.loc 1 667 0
 2668 08e2 0120     		movs	r0, #1
 2669 08e4 1C21     		movs	r1, #28
 2670 08e6 FFF7FEFF 		bl	error_op
 668:.\main.c      ****     							break;
 2671              		.loc 1 668 0
 2672 08ea 10E0     		b	.L96
 2673              	.L99:
 669:.\main.c      ****     								
 670:.\main.c      ****     							case '2':
 671:.\main.c      ****     								lado1.estado=libre;
 2674              		.loc 1 671 0
 2675 08ec 914B     		ldr	r3, .L112+4
 2676 08ee 0122     		movs	r2, #1
 2677 08f0 5A70     		strb	r2, [r3, #1]
 672:.\main.c      ****     								error_op(1,12);					//Gracias por su compra
 2678              		.loc 1 672 0
 2679 08f2 0120     		movs	r0, #1
 2680 08f4 0C21     		movs	r1, #12
 2681 08f6 FFF7FEFF 		bl	error_op
 673:.\main.c      ****     							break;
 2682              		.loc 1 673 0
 2683 08fa 08E0     		b	.L96
 2684              	.L100:
 674:.\main.c      ****     								
 675:.\main.c      ****     							case '3':
 676:.\main.c      ****     								lado1.estado=libre;
 2685              		.loc 1 676 0
 2686 08fc 8D4B     		ldr	r3, .L112+4
 2687 08fe 0122     		movs	r2, #1
 2688 0900 5A70     		strb	r2, [r3, #1]
 677:.\main.c      ****     								error_op(1,12);					//Error de Operacion //85
 2689              		.loc 1 677 0
 2690 0902 0120     		movs	r0, #1
 2691 0904 0C21     		movs	r1, #12
 2692 0906 FFF7FEFF 		bl	error_op
 678:.\main.c      ****     							break;
 2693              		.loc 1 678 0
 2694 090a 00E0     		b	.L96
 2695              	.L105:
 679:.\main.c      ****     								
 680:.\main.c      ****     							case '4':
 681:.\main.c      **** //    								lado1.estado=libre;//
 682:.\main.c      **** //    								error_op(1,12);		//			//Fin Corte
ARM GAS  C:\Users\RECEPC~1\AppData\Local\Temp\ccVIJn7M.s 			page 62


 683:.\main.c      ****     							break;								
 2696              		.loc 1 683 0
 2697 090c 00BF     		nop
 2698              	.L96:
 684:.\main.c      ****     								
 685:.\main.c      ****     						}                        
 686:.\main.c      **** 					break;
 2699              		.loc 1 686 0 discriminator 2
 2700 090e EFE0     		b	.L104
 2701              	.L59:
 687:.\main.c      ****                     case cconfigurar:
 688:.\main.c      ****                         lado1.mangueras   = PC_rxBuffer[4]-48; //Numero de mangueras
 2702              		.loc 1 688 0
 2703 0910 874B     		ldr	r3, .L112
 2704 0912 1B79     		ldrb	r3, [r3, #4]
 2705 0914 DBB2     		uxtb	r3, r3
 2706 0916 303B     		subs	r3, r3, #48
 2707 0918 DAB2     		uxtb	r2, r3
 2708 091a 864B     		ldr	r3, .L112+4
 2709 091c 83F85C20 		strb	r2, [r3, #92]
 689:.\main.c      ****                         lado1.grado[0][0] = PC_rxBuffer[5]-48;
 2710              		.loc 1 689 0
 2711 0920 834B     		ldr	r3, .L112
 2712 0922 5B79     		ldrb	r3, [r3, #5]
 2713 0924 DBB2     		uxtb	r3, r3
 2714 0926 303B     		subs	r3, r3, #48
 2715 0928 DAB2     		uxtb	r2, r3
 2716 092a 824B     		ldr	r3, .L112+4
 2717 092c 83F85920 		strb	r2, [r3, #89]
 690:.\main.c      ****                         lado1.grado[1][0] = PC_rxBuffer[6]-48; //Grados
 2718              		.loc 1 690 0
 2719 0930 7F4B     		ldr	r3, .L112
 2720 0932 9B79     		ldrb	r3, [r3, #6]
 2721 0934 DBB2     		uxtb	r3, r3
 2722 0936 303B     		subs	r3, r3, #48
 2723 0938 DAB2     		uxtb	r2, r3
 2724 093a 7E4B     		ldr	r3, .L112+4
 2725 093c 83F85A20 		strb	r2, [r3, #90]
 691:.\main.c      ****                         lado1.grado[2][0] = PC_rxBuffer[7]-48;
 2726              		.loc 1 691 0
 2727 0940 7B4B     		ldr	r3, .L112
 2728 0942 DB79     		ldrb	r3, [r3, #7]
 2729 0944 DBB2     		uxtb	r3, r3
 2730 0946 303B     		subs	r3, r3, #48
 2731 0948 DAB2     		uxtb	r2, r3
 2732 094a 7A4B     		ldr	r3, .L112+4
 2733 094c 83F85B20 		strb	r2, [r3, #91]
 692:.\main.c      ****                         lado2.mangueras   = PC_rxBuffer[8]-48;
 2734              		.loc 1 692 0
 2735 0950 774B     		ldr	r3, .L112
 2736 0952 1B7A     		ldrb	r3, [r3, #8]
 2737 0954 DBB2     		uxtb	r3, r3
 2738 0956 303B     		subs	r3, r3, #48
 2739 0958 DAB2     		uxtb	r2, r3
 2740 095a 774B     		ldr	r3, .L112+8
 2741 095c 83F85C20 		strb	r2, [r3, #92]
 693:.\main.c      ****                         lado2.grado[0][0] = PC_rxBuffer[9]-48;
ARM GAS  C:\Users\RECEPC~1\AppData\Local\Temp\ccVIJn7M.s 			page 63


 2742              		.loc 1 693 0
 2743 0960 734B     		ldr	r3, .L112
 2744 0962 5B7A     		ldrb	r3, [r3, #9]
 2745 0964 DBB2     		uxtb	r3, r3
 2746 0966 303B     		subs	r3, r3, #48
 2747 0968 DAB2     		uxtb	r2, r3
 2748 096a 734B     		ldr	r3, .L112+8
 2749 096c 83F85920 		strb	r2, [r3, #89]
 694:.\main.c      ****                         lado2.grado[1][0] = PC_rxBuffer[10]-48;
 2750              		.loc 1 694 0
 2751 0970 6F4B     		ldr	r3, .L112
 2752 0972 9B7A     		ldrb	r3, [r3, #10]
 2753 0974 DBB2     		uxtb	r3, r3
 2754 0976 303B     		subs	r3, r3, #48
 2755 0978 DAB2     		uxtb	r2, r3
 2756 097a 6F4B     		ldr	r3, .L112+8
 2757 097c 83F85A20 		strb	r2, [r3, #90]
 695:.\main.c      ****                         lado2.grado[2][0] = PC_rxBuffer[11]-48;
 2758              		.loc 1 695 0
 2759 0980 6B4B     		ldr	r3, .L112
 2760 0982 DB7A     		ldrb	r3, [r3, #11]
 2761 0984 DBB2     		uxtb	r3, r3
 2762 0986 303B     		subs	r3, r3, #48
 2763 0988 DAB2     		uxtb	r2, r3
 2764 098a 6B4B     		ldr	r3, .L112+8
 2765 098c 83F85B20 		strb	r2, [r3, #91]
 696:.\main.c      ****                         version[1]    = PC_rxBuffer[12]-48;	//Version surtidor
 2766              		.loc 1 696 0
 2767 0990 674B     		ldr	r3, .L112
 2768 0992 1B7B     		ldrb	r3, [r3, #12]
 2769 0994 DBB2     		uxtb	r3, r3
 2770 0996 303B     		subs	r3, r3, #48
 2771 0998 DAB2     		uxtb	r2, r3
 2772 099a 684B     		ldr	r3, .L112+12
 2773 099c 5A70     		strb	r2, [r3, #1]
 697:.\main.c      ****                     	version[2]    = PC_rxBuffer[13]-48; //Decimales dinero
 2774              		.loc 1 697 0
 2775 099e 644B     		ldr	r3, .L112
 2776 09a0 5B7B     		ldrb	r3, [r3, #13]
 2777 09a2 DBB2     		uxtb	r3, r3
 2778 09a4 303B     		subs	r3, r3, #48
 2779 09a6 DAB2     		uxtb	r2, r3
 2780 09a8 644B     		ldr	r3, .L112+12
 2781 09aa 9A70     		strb	r2, [r3, #2]
 698:.\main.c      ****                     	version[3]    = PC_rxBuffer[14]-48; //Decimales volumen
 2782              		.loc 1 698 0
 2783 09ac 604B     		ldr	r3, .L112
 2784 09ae 9B7B     		ldrb	r3, [r3, #14]
 2785 09b0 DBB2     		uxtb	r3, r3
 2786 09b2 303B     		subs	r3, r3, #48
 2787 09b4 DAB2     		uxtb	r2, r3
 2788 09b6 614B     		ldr	r3, .L112+12
 2789 09b8 DA70     		strb	r2, [r3, #3]
 699:.\main.c      ****                         ppux10        = PC_rxBuffer[15]-48; //ppux10  
 2790              		.loc 1 699 0
 2791 09ba 5D4B     		ldr	r3, .L112
 2792 09bc DB7B     		ldrb	r3, [r3, #15]
ARM GAS  C:\Users\RECEPC~1\AppData\Local\Temp\ccVIJn7M.s 			page 64


 2793 09be DBB2     		uxtb	r3, r3
 2794 09c0 303B     		subs	r3, r3, #48
 2795 09c2 DAB2     		uxtb	r2, r3
 2796 09c4 5E4B     		ldr	r3, .L112+16
 2797 09c6 1A70     		strb	r2, [r3]
 700:.\main.c      ****                         pantallas     = PC_rxBuffer[16]-48; //pantallas por pos  
 2798              		.loc 1 700 0
 2799 09c8 594B     		ldr	r3, .L112
 2800 09ca 1B7C     		ldrb	r3, [r3, #16]
 2801 09cc DBB2     		uxtb	r3, r3
 2802 09ce 303B     		subs	r3, r3, #48
 2803 09d0 DAB2     		uxtb	r2, r3
 2804 09d2 5C4B     		ldr	r3, .L112+20
 2805 09d4 1A70     		strb	r2, [r3]
 701:.\main.c      ****                         kmscreen      = PC_rxBuffer[17]-48; //solicita pantalla de kilometraje   
 2806              		.loc 1 701 0
 2807 09d6 564B     		ldr	r3, .L112
 2808 09d8 5B7C     		ldrb	r3, [r3, #17]
 2809 09da DBB2     		uxtb	r3, r3
 2810 09dc 303B     		subs	r3, r3, #48
 2811 09de DAB2     		uxtb	r2, r3
 2812 09e0 594B     		ldr	r3, .L112+24
 2813 09e2 1A70     		strb	r2, [r3]
 702:.\main.c      ****                         efectivo      = PC_rxBuffer[18]-48; //solicita pantalla de kilometraje   
 2814              		.loc 1 702 0
 2815 09e4 524B     		ldr	r3, .L112
 2816 09e6 9B7C     		ldrb	r3, [r3, #18]
 2817 09e8 DBB2     		uxtb	r3, r3
 2818 09ea 303B     		subs	r3, r3, #48
 2819 09ec DAB2     		uxtb	r2, r3
 2820 09ee 574B     		ldr	r3, .L112+28
 2821 09f0 1A70     		strb	r2, [r3]
 703:.\main.c      ****                         
 704:.\main.c      ****                         EEPROM_WriteByte(lado1.mangueras,15);  //Almacena configuraciones en MUX
 2822              		.loc 1 704 0
 2823 09f2 504B     		ldr	r3, .L112+4
 2824 09f4 93F85C30 		ldrb	r3, [r3, #92]
 2825 09f8 DBB2     		uxtb	r3, r3
 2826 09fa 1846     		mov	r0, r3
 2827 09fc 0F21     		movs	r1, #15
 2828 09fe FFF7FEFF 		bl	EEPROM_WriteByte
 705:.\main.c      ****                         EEPROM_WriteByte(lado1.grado[0][0],16);
 2829              		.loc 1 705 0
 2830 0a02 4C4B     		ldr	r3, .L112+4
 2831 0a04 93F85930 		ldrb	r3, [r3, #89]
 2832 0a08 DBB2     		uxtb	r3, r3
 2833 0a0a 1846     		mov	r0, r3
 2834 0a0c 1021     		movs	r1, #16
 2835 0a0e FFF7FEFF 		bl	EEPROM_WriteByte
 706:.\main.c      ****                         EEPROM_WriteByte(lado1.grado[1][0],17);
 2836              		.loc 1 706 0
 2837 0a12 484B     		ldr	r3, .L112+4
 2838 0a14 93F85A30 		ldrb	r3, [r3, #90]
 2839 0a18 DBB2     		uxtb	r3, r3
 2840 0a1a 1846     		mov	r0, r3
 2841 0a1c 1121     		movs	r1, #17
 2842 0a1e FFF7FEFF 		bl	EEPROM_WriteByte
ARM GAS  C:\Users\RECEPC~1\AppData\Local\Temp\ccVIJn7M.s 			page 65


 707:.\main.c      ****                         EEPROM_WriteByte(lado1.grado[2][0],18);
 2843              		.loc 1 707 0
 2844 0a22 444B     		ldr	r3, .L112+4
 2845 0a24 93F85B30 		ldrb	r3, [r3, #91]
 2846 0a28 DBB2     		uxtb	r3, r3
 2847 0a2a 1846     		mov	r0, r3
 2848 0a2c 1221     		movs	r1, #18
 2849 0a2e FFF7FEFF 		bl	EEPROM_WriteByte
 708:.\main.c      ****                         EEPROM_WriteByte(lado2.mangueras,19);
 2850              		.loc 1 708 0
 2851 0a32 414B     		ldr	r3, .L112+8
 2852 0a34 93F85C30 		ldrb	r3, [r3, #92]
 2853 0a38 DBB2     		uxtb	r3, r3
 2854 0a3a 1846     		mov	r0, r3
 2855 0a3c 1321     		movs	r1, #19
 2856 0a3e FFF7FEFF 		bl	EEPROM_WriteByte
 709:.\main.c      ****                         EEPROM_WriteByte(lado2.grado[0][0],20);
 2857              		.loc 1 709 0
 2858 0a42 3D4B     		ldr	r3, .L112+8
 2859 0a44 93F85930 		ldrb	r3, [r3, #89]
 2860 0a48 DBB2     		uxtb	r3, r3
 2861 0a4a 1846     		mov	r0, r3
 2862 0a4c 1421     		movs	r1, #20
 2863 0a4e FFF7FEFF 		bl	EEPROM_WriteByte
 710:.\main.c      ****                         EEPROM_WriteByte(lado2.grado[1][0],21);
 2864              		.loc 1 710 0
 2865 0a52 394B     		ldr	r3, .L112+8
 2866 0a54 93F85A30 		ldrb	r3, [r3, #90]
 2867 0a58 DBB2     		uxtb	r3, r3
 2868 0a5a 1846     		mov	r0, r3
 2869 0a5c 1521     		movs	r1, #21
 2870 0a5e FFF7FEFF 		bl	EEPROM_WriteByte
 711:.\main.c      ****                         EEPROM_WriteByte(lado2.grado[2][0],22);
 2871              		.loc 1 711 0
 2872 0a62 354B     		ldr	r3, .L112+8
 2873 0a64 93F85B30 		ldrb	r3, [r3, #91]
 2874 0a68 DBB2     		uxtb	r3, r3
 2875 0a6a 1846     		mov	r0, r3
 2876 0a6c 1621     		movs	r1, #22
 2877 0a6e FFF7FEFF 		bl	EEPROM_WriteByte
 712:.\main.c      ****                         EEPROM_WriteByte(ppux10,23);
 2878              		.loc 1 712 0
 2879 0a72 334B     		ldr	r3, .L112+16
 2880 0a74 1B78     		ldrb	r3, [r3]
 2881 0a76 DBB2     		uxtb	r3, r3
 2882 0a78 1846     		mov	r0, r3
 2883 0a7a 1721     		movs	r1, #23
 2884 0a7c FFF7FEFF 		bl	EEPROM_WriteByte
 713:.\main.c      ****                         EEPROM_WriteByte(version[1],30);
 2885              		.loc 1 713 0
 2886 0a80 2E4B     		ldr	r3, .L112+12
 2887 0a82 5B78     		ldrb	r3, [r3, #1]
 2888 0a84 DBB2     		uxtb	r3, r3
 2889 0a86 1846     		mov	r0, r3
 2890 0a88 1E21     		movs	r1, #30
 2891 0a8a FFF7FEFF 		bl	EEPROM_WriteByte
 714:.\main.c      ****                         EEPROM_WriteByte(version[2],31);
ARM GAS  C:\Users\RECEPC~1\AppData\Local\Temp\ccVIJn7M.s 			page 66


 2892              		.loc 1 714 0
 2893 0a8e 2B4B     		ldr	r3, .L112+12
 2894 0a90 9B78     		ldrb	r3, [r3, #2]
 2895 0a92 DBB2     		uxtb	r3, r3
 2896 0a94 1846     		mov	r0, r3
 2897 0a96 1F21     		movs	r1, #31
 2898 0a98 FFF7FEFF 		bl	EEPROM_WriteByte
 715:.\main.c      ****                         EEPROM_WriteByte(version[3],32);
 2899              		.loc 1 715 0
 2900 0a9c 274B     		ldr	r3, .L112+12
 2901 0a9e DB78     		ldrb	r3, [r3, #3]
 2902 0aa0 DBB2     		uxtb	r3, r3
 2903 0aa2 1846     		mov	r0, r3
 2904 0aa4 2021     		movs	r1, #32
 2905 0aa6 FFF7FEFF 		bl	EEPROM_WriteByte
 716:.\main.c      ****                         EEPROM_WriteByte(pantallas,33);
 2906              		.loc 1 716 0
 2907 0aaa 264B     		ldr	r3, .L112+20
 2908 0aac 1B78     		ldrb	r3, [r3]
 2909 0aae DBB2     		uxtb	r3, r3
 2910 0ab0 1846     		mov	r0, r3
 2911 0ab2 2121     		movs	r1, #33
 2912 0ab4 FFF7FEFF 		bl	EEPROM_WriteByte
 717:.\main.c      ****                         EEPROM_WriteByte(kmscreen,34);
 2913              		.loc 1 717 0
 2914 0ab8 234B     		ldr	r3, .L112+24
 2915 0aba 1B78     		ldrb	r3, [r3]
 2916 0abc DBB2     		uxtb	r3, r3
 2917 0abe 1846     		mov	r0, r3
 2918 0ac0 2221     		movs	r1, #34
 2919 0ac2 FFF7FEFF 		bl	EEPROM_WriteByte
 718:.\main.c      ****                         EEPROM_WriteByte(efectivo,35);
 2920              		.loc 1 718 0
 2921 0ac6 214B     		ldr	r3, .L112+28
 2922 0ac8 1B78     		ldrb	r3, [r3]
 2923 0aca DBB2     		uxtb	r3, r3
 2924 0acc 1846     		mov	r0, r3
 2925 0ace 2321     		movs	r1, #35
 2926 0ad0 FFF7FEFF 		bl	EEPROM_WriteByte
 719:.\main.c      ****                         set_imagen(1,60); 
 2927              		.loc 1 719 0
 2928 0ad4 0120     		movs	r0, #1
 2929 0ad6 3C21     		movs	r1, #60
 2930 0ad8 FFF7FEFF 		bl	set_imagen
 720:.\main.c      ****                         CyDelay(500);
 2931              		.loc 1 720 0
 2932 0adc 4FF4FA70 		mov	r0, #500
 2933 0ae0 FFF7FEFF 		bl	CyDelay
 721:.\main.c      ****                         init();
 2934              		.loc 1 721 0
 2935 0ae4 FFF7FEFF 		bl	init
 722:.\main.c      ****                         flujo_LCD1 = 0;                        
 2936              		.loc 1 722 0
 2937 0ae8 194B     		ldr	r3, .L112+32
 2938 0aea 0022     		movs	r2, #0
 2939 0aec 1A70     		strb	r2, [r3]
 723:.\main.c      ****                     break;
ARM GAS  C:\Users\RECEPC~1\AppData\Local\Temp\ccVIJn7M.s 			page 67


 2940              		.loc 1 723 0
 2941 0aee 00E0     		b	.L55
 2942              	.L104:
 686:.\main.c      ****                     case cconfigurar:
 2943              		.loc 1 686 0
 2944 0af0 00BF     		nop
 2945              	.L55:
 724:.\main.c      **** 				}
 725:.\main.c      **** 				if(ok_datosRF==1){
 2946              		.loc 1 725 0
 2947 0af2 184B     		ldr	r3, .L112+36
 2948 0af4 1B78     		ldrb	r3, [r3]	@ zero_extendqisi2
 2949 0af6 012B     		cmp	r3, #1
 2950 0af8 0FD1     		bne	.L54
 726:.\main.c      **** 				    for(x=0;x<size;x++){
 2951              		.loc 1 726 0
 2952 0afa 0023     		movs	r3, #0
 2953 0afc BB82     		strh	r3, [r7, #20]	@ movhi
 2954 0afe 08E0     		b	.L102
 2955              	.L103:
 727:.\main.c      **** 					   PC_PutChar(rf_mod[x]);
 2956              		.loc 1 727 0 discriminator 3
 2957 0b00 BB8A     		ldrh	r3, [r7, #20]
 2958 0b02 154A     		ldr	r2, .L112+40
 2959 0b04 D35C     		ldrb	r3, [r2, r3]	@ zero_extendqisi2
 2960 0b06 1846     		mov	r0, r3
 2961 0b08 FFF7FEFF 		bl	PC_PutChar
 726:.\main.c      **** 				    for(x=0;x<size;x++){
 2962              		.loc 1 726 0 discriminator 3
 2963 0b0c BB8A     		ldrh	r3, [r7, #20]
 2964 0b0e 0133     		adds	r3, r3, #1
 2965 0b10 BB82     		strh	r3, [r7, #20]	@ movhi
 2966              	.L102:
 726:.\main.c      **** 				    for(x=0;x<size;x++){
 2967              		.loc 1 726 0 is_stmt 0 discriminator 1
 2968 0b12 BA8A     		ldrh	r2, [r7, #20]
 2969 0b14 FB8A     		ldrh	r3, [r7, #22]
 2970 0b16 9A42     		cmp	r2, r3
 2971 0b18 F2D3     		bcc	.L103
 2972              	.L54:
 728:.\main.c      **** 				    }	               
 729:.\main.c      **** 				}
 730:.\main.c      **** 			}
 731:.\main.c      **** 			PC_ClearRxBuffer();
 2973              		.loc 1 731 0 is_stmt 1
 2974 0b1a FFF7FEFF 		bl	PC_ClearRxBuffer
 732:.\main.c      ****             Surtidor_ClearRxBuffer();
 2975              		.loc 1 732 0
 2976 0b1e FFF7FEFF 		bl	Surtidor_ClearRxBuffer
 733:.\main.c      **** 			status1=0;
 2977              		.loc 1 733 0
 2978 0b22 0023     		movs	r3, #0
 2979 0b24 3B82     		strh	r3, [r7, #16]	@ movhi
 734:.\main.c      **** 			status2=0;			
 2980              		.loc 1 734 0
 2981 0b26 0023     		movs	r3, #0
 2982 0b28 FB81     		strh	r3, [r7, #14]	@ movhi
ARM GAS  C:\Users\RECEPC~1\AppData\Local\Temp\ccVIJn7M.s 			page 68


 2983              	.L52:
 735:.\main.c      **** 		}		
 736:.\main.c      **** 	}	
 737:.\main.c      **** }
 2984              		.loc 1 737 0
 2985 0b2a 1837     		adds	r7, r7, #24
 2986              		.cfi_def_cfa_offset 8
 2987 0b2c BD46     		mov	sp, r7
 2988              		.cfi_def_cfa_register 13
 2989              		@ sp needed
 2990 0b2e 80BD     		pop	{r7, pc}
 2991              	.L113:
 2992              		.align	2
 2993              	.L112:
 2994 0b30 00000000 		.word	PC_rxBuffer
 2995 0b34 00000000 		.word	lado1
 2996 0b38 00000000 		.word	lado2
 2997 0b3c 00000000 		.word	version
 2998 0b40 00000000 		.word	ppux10
 2999 0b44 00000000 		.word	pantallas
 3000 0b48 00000000 		.word	kmscreen
 3001 0b4c 00000000 		.word	efectivo
 3002 0b50 00000000 		.word	flujo_LCD1
 3003 0b54 00000000 		.word	ok_datosRF
 3004 0b58 00000000 		.word	rf_mod
 3005              		.cfi_endproc
 3006              	.LFE67:
 3007              		.size	polling_rf, .-polling_rf
 3008              		.section	.text.polling_surt,"ax",%progbits
 3009              		.align	2
 3010              		.global	polling_surt
 3011              		.thumb
 3012              		.thumb_func
 3013              		.type	polling_surt, %function
 3014              	polling_surt:
 3015              	.LFB68:
 738:.\main.c      **** 
 739:.\main.c      **** 
 740:.\main.c      **** /*
 741:.\main.c      **** ***************************************************************************************************
 742:.\main.c      **** *                                         uint8 polling_surt(void)
 743:.\main.c      **** *
 744:.\main.c      **** * Description : 
 745:.\main.c      **** *               
 746:.\main.c      **** *
 747:.\main.c      **** * Argument(s) : none
 748:.\main.c      **** *
 749:.\main.c      **** * Return(s)   : none
 750:.\main.c      **** *
 751:.\main.c      **** * Caller(s)   : 
 752:.\main.c      **** *
 753:.\main.c      **** * Note(s)     : none.
 754:.\main.c      **** ***************************************************************************************************
 755:.\main.c      **** */
 756:.\main.c      **** 
 757:.\main.c      **** void polling_surt(void){
 3016              		.loc 1 757 0
ARM GAS  C:\Users\RECEPC~1\AppData\Local\Temp\ccVIJn7M.s 			page 69


 3017              		.cfi_startproc
 3018              		@ args = 0, pretend = 0, frame = 0
 3019              		@ frame_needed = 1, uses_anonymous_args = 0
 3020              		@ link register save eliminated.
 3021 0000 80B4     		push	{r7}
 3022              		.cfi_def_cfa_offset 4
 3023              		.cfi_offset 7, -4
 3024 0002 00AF     		add	r7, sp, #0
 3025              		.cfi_def_cfa_register 7
 758:.\main.c      **** 	         
 759:.\main.c      ****             
 760:.\main.c      **** }
 3026              		.loc 1 760 0
 3027 0004 BD46     		mov	sp, r7
 3028              		.cfi_def_cfa_register 13
 3029              		@ sp needed
 3030 0006 5DF8047B 		ldr	r7, [sp], #4
 3031              		.cfi_restore 7
 3032              		.cfi_def_cfa_offset 0
 3033 000a 7047     		bx	lr
 3034              		.cfi_endproc
 3035              	.LFE68:
 3036              		.size	polling_surt, .-polling_surt
 3037              		.global	__aeabi_dcmpge
 3038              		.global	__aeabi_dcmple
 3039              		.global	__aeabi_dcmpgt
 3040              		.section	.text.polling_LCD1,"ax",%progbits
 3041              		.align	2
 3042              		.global	polling_LCD1
 3043              		.thumb
 3044              		.thumb_func
 3045              		.type	polling_LCD1, %function
 3046              	polling_LCD1:
 3047              	.LFB69:
 761:.\main.c      **** 
 762:.\main.c      **** 
 763:.\main.c      **** 
 764:.\main.c      **** /*
 765:.\main.c      **** ***************************************************************************************************
 766:.\main.c      **** *                                         void polling_LCD1(void)
 767:.\main.c      **** *
 768:.\main.c      **** * Description : 
 769:.\main.c      **** *               
 770:.\main.c      **** *
 771:.\main.c      **** * Argument(s) : none
 772:.\main.c      **** *
 773:.\main.c      **** * Return(s)   : none
 774:.\main.c      **** *
 775:.\main.c      **** * Caller(s)   : 
 776:.\main.c      **** *
 777:.\main.c      **** * Note(s)     : none.
 778:.\main.c      **** ***************************************************************************************************
 779:.\main.c      **** */
 780:.\main.c      **** 
 781:.\main.c      **** void polling_LCD1(void){
 3048              		.loc 1 781 0
 3049              		.cfi_startproc
ARM GAS  C:\Users\RECEPC~1\AppData\Local\Temp\ccVIJn7M.s 			page 70


 3050              		@ args = 0, pretend = 0, frame = 48
 3051              		@ frame_needed = 1, uses_anonymous_args = 0
 3052 0000 B0B5     		push	{r4, r5, r7, lr}
 3053              		.cfi_def_cfa_offset 16
 3054              		.cfi_offset 4, -16
 3055              		.cfi_offset 5, -12
 3056              		.cfi_offset 7, -8
 3057              		.cfi_offset 14, -4
 3058 0002 8EB0     		sub	sp, sp, #56
 3059              		.cfi_def_cfa_offset 72
 3060 0004 02AF     		add	r7, sp, #8
 3061              		.cfi_def_cfa 7, 64
 782:.\main.c      ****     uint8 x,y,aux[10],precio[5],x_1;
 783:.\main.c      **** 	char numero[8];
 784:.\main.c      **** 	double num_decimal;   
 785:.\main.c      ****     switch(flujo_LCD1){
 3062              		.loc 1 785 0
 3063 0006 CD4B     		ldr	r3, .L647
 3064 0008 1B78     		ldrb	r3, [r3]
 3065 000a DBB2     		uxtb	r3, r3
 3066 000c 662B     		cmp	r3, #102
 3067 000e 04F29B84 		bhi	.L115
 3068 0012 01A2     		adr	r2, .L118
 3069 0014 52F823F0 		ldr	pc, [r2, r3, lsl #2]
 3070              		.p2align 2
 3071              	.L118:
 3072 0018 B5010000 		.word	.L117+1
 3073 001c 09030000 		.word	.L119+1
 3074 0020 0B040000 		.word	.L120+1
 3075 0024 07090000 		.word	.L121+1
 3076 0028 D9090000 		.word	.L122+1
 3077 002c A50D0000 		.word	.L123+1
 3078 0030 490F0000 		.word	.L124+1
 3079 0034 49490000 		.word	.L115+1
 3080 0038 2D100000 		.word	.L125+1
 3081 003c BD120000 		.word	.L126+1
 3082 0040 49490000 		.word	.L115+1
 3083 0044 E31B0000 		.word	.L127+1
 3084 0048 C71E0000 		.word	.L128+1
 3085 004c 65350000 		.word	.L129+1
 3086 0050 C9400000 		.word	.L130+1
 3087 0054 EB420000 		.word	.L131+1
 3088 0058 25440000 		.word	.L132+1
 3089 005c BF460000 		.word	.L133+1
 3090 0060 49490000 		.word	.L115+1
 3091 0064 61470000 		.word	.L134+1
 3092 0068 71030000 		.word	.L135+1
 3093 006c CF010000 		.word	.L136+1
 3094 0070 49490000 		.word	.L115+1
 3095 0074 49490000 		.word	.L115+1
 3096 0078 49490000 		.word	.L115+1
 3097 007c 49490000 		.word	.L115+1
 3098 0080 49490000 		.word	.L115+1
 3099 0084 49490000 		.word	.L115+1
 3100 0088 49490000 		.word	.L115+1
 3101 008c 49490000 		.word	.L115+1
 3102 0090 49490000 		.word	.L115+1
ARM GAS  C:\Users\RECEPC~1\AppData\Local\Temp\ccVIJn7M.s 			page 71


 3103 0094 49490000 		.word	.L115+1
 3104 0098 49490000 		.word	.L115+1
 3105 009c 49490000 		.word	.L115+1
 3106 00a0 49490000 		.word	.L115+1
 3107 00a4 49490000 		.word	.L115+1
 3108 00a8 49490000 		.word	.L115+1
 3109 00ac 49490000 		.word	.L115+1
 3110 00b0 49490000 		.word	.L115+1
 3111 00b4 49490000 		.word	.L115+1
 3112 00b8 49490000 		.word	.L115+1
 3113 00bc 49490000 		.word	.L115+1
 3114 00c0 49490000 		.word	.L115+1
 3115 00c4 49490000 		.word	.L115+1
 3116 00c8 49490000 		.word	.L115+1
 3117 00cc 49490000 		.word	.L115+1
 3118 00d0 49490000 		.word	.L115+1
 3119 00d4 49490000 		.word	.L115+1
 3120 00d8 49490000 		.word	.L115+1
 3121 00dc 49490000 		.word	.L115+1
 3122 00e0 49490000 		.word	.L115+1
 3123 00e4 49490000 		.word	.L115+1
 3124 00e8 49490000 		.word	.L115+1
 3125 00ec 49490000 		.word	.L115+1
 3126 00f0 49490000 		.word	.L115+1
 3127 00f4 49490000 		.word	.L115+1
 3128 00f8 49490000 		.word	.L115+1
 3129 00fc 49490000 		.word	.L115+1
 3130 0100 49490000 		.word	.L115+1
 3131 0104 49490000 		.word	.L115+1
 3132 0108 49490000 		.word	.L115+1
 3133 010c 49490000 		.word	.L115+1
 3134 0110 49490000 		.word	.L115+1
 3135 0114 49490000 		.word	.L115+1
 3136 0118 49490000 		.word	.L115+1
 3137 011c 49490000 		.word	.L115+1
 3138 0120 49490000 		.word	.L115+1
 3139 0124 49490000 		.word	.L115+1
 3140 0128 49490000 		.word	.L115+1
 3141 012c 49490000 		.word	.L115+1
 3142 0130 49490000 		.word	.L115+1
 3143 0134 49490000 		.word	.L115+1
 3144 0138 49490000 		.word	.L115+1
 3145 013c 49490000 		.word	.L115+1
 3146 0140 49490000 		.word	.L115+1
 3147 0144 49490000 		.word	.L115+1
 3148 0148 49490000 		.word	.L115+1
 3149 014c 49490000 		.word	.L115+1
 3150 0150 49490000 		.word	.L115+1
 3151 0154 49490000 		.word	.L115+1
 3152 0158 49490000 		.word	.L115+1
 3153 015c 49490000 		.word	.L115+1
 3154 0160 49490000 		.word	.L115+1
 3155 0164 49490000 		.word	.L115+1
 3156 0168 49490000 		.word	.L115+1
 3157 016c 49490000 		.word	.L115+1
 3158 0170 49490000 		.word	.L115+1
 3159 0174 49490000 		.word	.L115+1
ARM GAS  C:\Users\RECEPC~1\AppData\Local\Temp\ccVIJn7M.s 			page 72


 3160 0178 49490000 		.word	.L115+1
 3161 017c 49490000 		.word	.L115+1
 3162 0180 49490000 		.word	.L115+1
 3163 0184 49490000 		.word	.L115+1
 3164 0188 49490000 		.word	.L115+1
 3165 018c 49490000 		.word	.L115+1
 3166 0190 49490000 		.word	.L115+1
 3167 0194 49490000 		.word	.L115+1
 3168 0198 49490000 		.word	.L115+1
 3169 019c 49490000 		.word	.L115+1
 3170 01a0 49490000 		.word	.L115+1
 3171 01a4 49490000 		.word	.L115+1
 3172 01a8 29490000 		.word	.L137+1
 3173 01ac 49490000 		.word	.L115+1
 3174 01b0 49490000 		.word	.L115+1
 3175              		.p2align 1
 3176              	.L117:
 786:.\main.c      ****         case 0:
 787:.\main.c      ****          isr_3_StartEx(animacion); 
 3177              		.loc 1 787 0
 3178 01b4 6248     		ldr	r0, .L647+4
 3179 01b6 FFF7FEFF 		bl	isr_3_StartEx
 788:.\main.c      ****          Timer_Animacion_Start();
 3180              		.loc 1 788 0
 3181 01ba FFF7FEFF 		bl	Timer_Animacion_Start
 789:.\main.c      ****          count_protector=0;
 3182              		.loc 1 789 0
 3183 01be 614B     		ldr	r3, .L647+8
 3184 01c0 0022     		movs	r2, #0
 3185 01c2 1A70     		strb	r2, [r3]
 790:.\main.c      ****          flujo_LCD1=21;	       
 3186              		.loc 1 790 0
 3187 01c4 5D4B     		ldr	r3, .L647
 3188 01c6 1522     		movs	r2, #21
 3189 01c8 1A70     		strb	r2, [r3]
 791:.\main.c      ****         break;
 3190              		.loc 1 791 0
 3191 01ca 04F0BDBB 		b	.L115
 3192              	.L136:
 792:.\main.c      ****         
 793:.\main.c      ****         case 21:
 794:.\main.c      **** //            set_imagen(1,27);                 //Pasa a pantalla de tipo de venta viejo:5
 795:.\main.c      **** //            tipo_venta = 0;
 796:.\main.c      **** //            id_teclado1 = 8;
 797:.\main.c      **** //            flujo_LCD1 = 11;             
 798:.\main.c      ****                 if(touch_present(1)==1){
 3193              		.loc 1 798 0
 3194 01ce 0120     		movs	r0, #1
 3195 01d0 FFF7FEFF 		bl	touch_present
 3196 01d4 0346     		mov	r3, r0
 3197 01d6 012B     		cmp	r3, #1
 3198 01d8 70D1     		bne	.L139
 799:.\main.c      ****                     if(touch_write(1,0x33)){
 3199              		.loc 1 799 0
 3200 01da 0120     		movs	r0, #1
 3201 01dc 3321     		movs	r1, #51
 3202 01de FFF7FEFF 		bl	touch_write
ARM GAS  C:\Users\RECEPC~1\AppData\Local\Temp\ccVIJn7M.s 			page 73


 3203 01e2 0346     		mov	r3, r0
 3204 01e4 002B     		cmp	r3, #0
 3205 01e6 69D0     		beq	.L139
 800:.\main.c      ****     	                for(x=0;x<=7;x++){
 3206              		.loc 1 800 0
 3207 01e8 0023     		movs	r3, #0
 3208 01ea 87F82F30 		strb	r3, [r7, #47]
 3209 01ee 1CE0     		b	.L140
 3210              	.L141:
 801:.\main.c      ****     	                    rventa1.id[x]=touch_read_byte(1);
 3211              		.loc 1 801 0 discriminator 3
 3212 01f0 97F82F40 		ldrb	r4, [r7, #47]	@ zero_extendqisi2
 3213 01f4 0120     		movs	r0, #1
 3214 01f6 FFF7FEFF 		bl	touch_read_byte
 3215 01fa 0346     		mov	r3, r0
 3216 01fc 1A46     		mov	r2, r3
 3217 01fe 524B     		ldr	r3, .L647+12
 3218 0200 2344     		add	r3, r3, r4
 3219 0202 83F82320 		strb	r2, [r3, #35]
 802:.\main.c      ****                             rventa2.id[x]=rventa1.id[x];
 3220              		.loc 1 802 0 discriminator 3
 3221 0206 97F82F30 		ldrb	r3, [r7, #47]	@ zero_extendqisi2
 3222 020a 97F82F20 		ldrb	r2, [r7, #47]	@ zero_extendqisi2
 3223 020e 4E49     		ldr	r1, .L647+12
 3224 0210 0A44     		add	r2, r2, r1
 3225 0212 92F82310 		ldrb	r1, [r2, #35]	@ zero_extendqisi2
 3226 0216 4D4A     		ldr	r2, .L647+16
 3227 0218 1344     		add	r3, r3, r2
 3228 021a 0A46     		mov	r2, r1
 3229 021c 83F82320 		strb	r2, [r3, #35]
 800:.\main.c      ****     	                for(x=0;x<=7;x++){
 3230              		.loc 1 800 0 discriminator 3
 3231 0220 97F82F30 		ldrb	r3, [r7, #47]	@ zero_extendqisi2
 3232 0224 0133     		adds	r3, r3, #1
 3233 0226 87F82F30 		strb	r3, [r7, #47]
 3234              	.L140:
 800:.\main.c      ****     	                for(x=0;x<=7;x++){
 3235              		.loc 1 800 0 is_stmt 0 discriminator 1
 3236 022a 97F82F30 		ldrb	r3, [r7, #47]	@ zero_extendqisi2
 3237 022e 072B     		cmp	r3, #7
 3238 0230 DED9     		bls	.L141
 803:.\main.c      ****     	                }
 804:.\main.c      ****     				    crc_total=0;
 3239              		.loc 1 804 0 is_stmt 1
 3240 0232 474B     		ldr	r3, .L647+20
 3241 0234 0022     		movs	r2, #0
 3242 0236 1A70     		strb	r2, [r3]
 805:.\main.c      ****     				    for(x=0;x<7;x++){
 3243              		.loc 1 805 0
 3244 0238 0023     		movs	r3, #0
 3245 023a 87F82F30 		strb	r3, [r7, #47]
 3246 023e 14E0     		b	.L142
 3247              	.L143:
 806:.\main.c      ****     				 	    crc_total=crc_check(crc_total,rventa1.id[x]);
 3248              		.loc 1 806 0 discriminator 3
 3249 0240 434B     		ldr	r3, .L647+20
 3250 0242 1978     		ldrb	r1, [r3]	@ zero_extendqisi2
ARM GAS  C:\Users\RECEPC~1\AppData\Local\Temp\ccVIJn7M.s 			page 74


 3251 0244 97F82F30 		ldrb	r3, [r7, #47]	@ zero_extendqisi2
 3252 0248 3F4A     		ldr	r2, .L647+12
 3253 024a 1344     		add	r3, r3, r2
 3254 024c 93F82330 		ldrb	r3, [r3, #35]	@ zero_extendqisi2
 3255 0250 0846     		mov	r0, r1
 3256 0252 1946     		mov	r1, r3
 3257 0254 FFF7FEFF 		bl	crc_check
 3258 0258 0346     		mov	r3, r0
 3259 025a 1A46     		mov	r2, r3
 3260 025c 3C4B     		ldr	r3, .L647+20
 3261 025e 1A70     		strb	r2, [r3]
 805:.\main.c      ****     				    for(x=0;x<7;x++){
 3262              		.loc 1 805 0 discriminator 3
 3263 0260 97F82F30 		ldrb	r3, [r7, #47]	@ zero_extendqisi2
 3264 0264 0133     		adds	r3, r3, #1
 3265 0266 87F82F30 		strb	r3, [r7, #47]
 3266              	.L142:
 805:.\main.c      ****     				    for(x=0;x<7;x++){
 3267              		.loc 1 805 0 is_stmt 0 discriminator 1
 3268 026a 97F82F30 		ldrb	r3, [r7, #47]	@ zero_extendqisi2
 3269 026e 062B     		cmp	r3, #6
 3270 0270 E6D9     		bls	.L143
 807:.\main.c      ****     				    }					
 808:.\main.c      ****     				    if(crc_total==rventa1.id[7]){
 3271              		.loc 1 808 0 is_stmt 1
 3272 0272 354B     		ldr	r3, .L647+12
 3273 0274 93F82A20 		ldrb	r2, [r3, #42]	@ zero_extendqisi2
 3274 0278 354B     		ldr	r3, .L647+20
 3275 027a 1B78     		ldrb	r3, [r3]	@ zero_extendqisi2
 3276 027c 9A42     		cmp	r2, r3
 3277 027e 1DD1     		bne	.L139
 809:.\main.c      ****     		                set_imagen(1,19);
 3278              		.loc 1 809 0
 3279 0280 0120     		movs	r0, #1
 3280 0282 1321     		movs	r1, #19
 3281 0284 FFF7FEFF 		bl	set_imagen
 810:.\main.c      ****     		                CyDelay(500);					 				 
 3282              		.loc 1 810 0
 3283 0288 4FF4FA70 		mov	r0, #500
 3284 028c FFF7FEFF 		bl	CyDelay
 811:.\main.c      ****     					    count_teclas1=0;							//Inicia el contador de teclas						    
 3285              		.loc 1 811 0
 3286 0290 304B     		ldr	r3, .L647+24
 3287 0292 0022     		movs	r2, #0
 3288 0294 1A70     		strb	r2, [r3]
 812:.\main.c      ****     					    teclas1=10;
 3289              		.loc 1 812 0
 3290 0296 304B     		ldr	r3, .L647+28
 3291 0298 0A22     		movs	r2, #10
 3292 029a 1A70     		strb	r2, [r3]
 813:.\main.c      ****     					    posx1=2;
 3293              		.loc 1 813 0
 3294 029c 2F4B     		ldr	r3, .L647+32
 3295 029e 0222     		movs	r2, #2
 3296 02a0 1A80     		strh	r2, [r3]	@ movhi
 814:.\main.c      ****     					    posy1=3;
 3297              		.loc 1 814 0
ARM GAS  C:\Users\RECEPC~1\AppData\Local\Temp\ccVIJn7M.s 			page 75


 3298 02a2 2F4B     		ldr	r3, .L647+36
 3299 02a4 0322     		movs	r2, #3
 3300 02a6 1A80     		strh	r2, [r3]	@ movhi
 815:.\main.c      ****     					    sizeletra1=1;	 
 3301              		.loc 1 815 0
 3302 02a8 2E4B     		ldr	r3, .L647+40
 3303 02aa 0122     		movs	r2, #1
 3304 02ac 1A80     		strh	r2, [r3]	@ movhi
 816:.\main.c      ****                             flujo_LCD1 = 20;
 3305              		.loc 1 816 0
 3306 02ae 234B     		ldr	r3, .L647
 3307 02b0 1422     		movs	r2, #20
 3308 02b2 1A70     		strb	r2, [r3]
 817:.\main.c      ****                             set_imagen(1,46);
 3309              		.loc 1 817 0
 3310 02b4 0120     		movs	r0, #1
 3311 02b6 2E21     		movs	r1, #46
 3312 02b8 FFF7FEFF 		bl	set_imagen
 3313              	.L139:
 818:.\main.c      ****     					    	
 819:.\main.c      ****     				    }
 820:.\main.c      ****                     }
 821:.\main.c      ****                 }  
 822:.\main.c      ****                    
 823:.\main.c      ****             
 824:.\main.c      ****             if(LCD_1_GetRxBufferSize()==8){
 3314              		.loc 1 824 0
 3315 02bc FFF7FEFF 		bl	LCD_1_GetRxBufferSize
 3316 02c0 0346     		mov	r3, r0
 3317 02c2 082B     		cmp	r3, #8
 3318 02c4 1ED1     		bne	.L144
 825:.\main.c      ****                 if((LCD_1_rxBuffer[0]==0xAA) && (LCD_1_rxBuffer[6]==0xC3) && (LCD_1_rxBuffer[7]==0x
 3319              		.loc 1 825 0
 3320 02c6 284B     		ldr	r3, .L647+44
 3321 02c8 1B78     		ldrb	r3, [r3]
 3322 02ca DBB2     		uxtb	r3, r3
 3323 02cc AA2B     		cmp	r3, #170
 3324 02ce 12D1     		bne	.L145
 3325              		.loc 1 825 0 is_stmt 0 discriminator 1
 3326 02d0 254B     		ldr	r3, .L647+44
 3327 02d2 9B79     		ldrb	r3, [r3, #6]
 3328 02d4 DBB2     		uxtb	r3, r3
 3329 02d6 C32B     		cmp	r3, #195
 3330 02d8 0DD1     		bne	.L145
 3331              		.loc 1 825 0 discriminator 2
 3332 02da 234B     		ldr	r3, .L647+44
 3333 02dc DB79     		ldrb	r3, [r3, #7]
 3334 02de DBB2     		uxtb	r3, r3
 3335 02e0 3C2B     		cmp	r3, #60
 3336 02e2 08D1     		bne	.L145
 826:.\main.c      ****                     switch(LCD_1_rxBuffer[3]){
 3337              		.loc 1 826 0 is_stmt 1
 3338 02e4 204B     		ldr	r3, .L647+44
 3339 02e6 DB78     		ldrb	r3, [r3, #3]
 3340 02e8 DBB2     		uxtb	r3, r3
 3341 02ea 3B2B     		cmp	r3, #59
 3342 02ec 03D1     		bne	.L145
ARM GAS  C:\Users\RECEPC~1\AppData\Local\Temp\ccVIJn7M.s 			page 76


 827:.\main.c      ****                         case 0x3B:
 828:.\main.c      ****                             flujo_LCD1=0; 
 3343              		.loc 1 828 0
 3344 02ee 134B     		ldr	r3, .L647
 3345 02f0 0022     		movs	r2, #0
 3346 02f2 1A70     		strb	r2, [r3]
 829:.\main.c      ****                         break; 
 3347              		.loc 1 829 0
 3348 02f4 00BF     		nop
 3349              	.L145:
 830:.\main.c      ****                     }
 831:.\main.c      ****                 }
 832:.\main.c      ****                 CyDelay(100);            
 3350              		.loc 1 832 0
 3351 02f6 6420     		movs	r0, #100
 3352 02f8 FFF7FEFF 		bl	CyDelay
 833:.\main.c      ****                 LCD_1_ClearRxBuffer();            
 3353              		.loc 1 833 0
 3354 02fc FFF7FEFF 		bl	LCD_1_ClearRxBuffer
 834:.\main.c      ****         }
 835:.\main.c      ****         break;
 3355              		.loc 1 835 0
 3356 0300 04F022BB 		b	.L115
 3357              	.L144:
 3358 0304 04F020BB 		b	.L115
 3359              	.L119:
 836:.\main.c      ****         
 837:.\main.c      ****         case 1:
 838:.\main.c      ****          if(LCD_1_GetRxBufferSize()==8){ 
 3360              		.loc 1 838 0
 3361 0308 FFF7FEFF 		bl	LCD_1_GetRxBufferSize
 3362 030c 0346     		mov	r3, r0
 3363 030e 082B     		cmp	r3, #8
 3364 0310 11D1     		bne	.L147
 839:.\main.c      ****              isr_3_Stop(); 
 3365              		.loc 1 839 0
 3366 0312 FFF7FEFF 		bl	isr_3_Stop
 840:.\main.c      ****              Timer_Animacion_Stop();
 3367              		.loc 1 840 0
 3368 0316 FFF7FEFF 		bl	Timer_Animacion_Stop
 841:.\main.c      ****              set_imagen(1,46);				//Muestra imagen de inicio GRP700
 3369              		.loc 1 841 0
 3370 031a 0120     		movs	r0, #1
 3371 031c 2E21     		movs	r1, #46
 3372 031e FFF7FEFF 		bl	set_imagen
 842:.\main.c      **** 	         flujo_LCD1 = 20;	         
 3373              		.loc 1 842 0
 3374 0322 064B     		ldr	r3, .L647
 3375 0324 1422     		movs	r2, #20
 3376 0326 1A70     		strb	r2, [r3]
 843:.\main.c      ****              LCD_1_ClearRxBuffer();	
 3377              		.loc 1 843 0
 3378 0328 FFF7FEFF 		bl	LCD_1_ClearRxBuffer
 844:.\main.c      ****              seleccion_pos = 0;
 3379              		.loc 1 844 0
 3380 032c 0F4B     		ldr	r3, .L647+48
 3381 032e 0022     		movs	r2, #0
ARM GAS  C:\Users\RECEPC~1\AppData\Local\Temp\ccVIJn7M.s 			page 77


 3382 0330 1A70     		strb	r2, [r3]
 845:.\main.c      ****          }
 846:.\main.c      ****         break;
 3383              		.loc 1 846 0
 3384 0332 04F009BB 		b	.L115
 3385              	.L147:
 3386              		.loc 1 846 0 is_stmt 0 discriminator 2
 3387 0336 04F007BB 		b	.L115
 3388              	.L648:
 3389 033a 00BF     		.align	2
 3390              	.L647:
 3391 033c 00000000 		.word	flujo_LCD1
 3392 0340 00000000 		.word	animacion
 3393 0344 00000000 		.word	count_protector
 3394 0348 00000000 		.word	rventa1
 3395 034c 00000000 		.word	rventa2
 3396 0350 00000000 		.word	crc_total
 3397 0354 00000000 		.word	count_teclas1
 3398 0358 00000000 		.word	teclas1
 3399 035c 00000000 		.word	posx1
 3400 0360 00000000 		.word	posy1
 3401 0364 00000000 		.word	sizeletra1
 3402 0368 00000000 		.word	LCD_1_rxBuffer
 3403 036c 00000000 		.word	seleccion_pos
 3404              	.L135:
 847:.\main.c      ****         
 848:.\main.c      ****         case 20:        
 849:.\main.c      **** 	    if(LCD_1_GetRxBufferSize()==8){
 3405              		.loc 1 849 0 is_stmt 1
 3406 0370 FFF7FEFF 		bl	LCD_1_GetRxBufferSize
 3407 0374 0346     		mov	r3, r0
 3408 0376 082B     		cmp	r3, #8
 3409 0378 45D1     		bne	.L148
 850:.\main.c      ****             if((LCD_1_rxBuffer[0]==0xAA) && (LCD_1_rxBuffer[6]==0xC3) && (LCD_1_rxBuffer[7]==0x3C))
 3410              		.loc 1 850 0
 3411 037a BC4B     		ldr	r3, .L649
 3412 037c 1B78     		ldrb	r3, [r3]
 3413 037e DBB2     		uxtb	r3, r3
 3414 0380 AA2B     		cmp	r3, #170
 3415 0382 39D1     		bne	.L149
 3416              		.loc 1 850 0 is_stmt 0 discriminator 1
 3417 0384 B94B     		ldr	r3, .L649
 3418 0386 9B79     		ldrb	r3, [r3, #6]
 3419 0388 DBB2     		uxtb	r3, r3
 3420 038a C32B     		cmp	r3, #195
 3421 038c 34D1     		bne	.L149
 3422              		.loc 1 850 0 discriminator 2
 3423 038e B74B     		ldr	r3, .L649
 3424 0390 DB79     		ldrb	r3, [r3, #7]
 3425 0392 DBB2     		uxtb	r3, r3
 3426 0394 3C2B     		cmp	r3, #60
 3427 0396 2FD1     		bne	.L149
 851:.\main.c      ****                 switch(LCD_1_rxBuffer[3]){
 3428              		.loc 1 851 0 is_stmt 1
 3429 0398 B44B     		ldr	r3, .L649
 3430 039a DB78     		ldrb	r3, [r3, #3]
 3431 039c DBB2     		uxtb	r3, r3
ARM GAS  C:\Users\RECEPC~1\AppData\Local\Temp\ccVIJn7M.s 			page 78


 3432 039e 572B     		cmp	r3, #87
 3433 03a0 11D0     		beq	.L150
 3434 03a2 942B     		cmp	r3, #148
 3435 03a4 1DD0     		beq	.L151
 3436 03a6 562B     		cmp	r3, #86
 3437 03a8 26D1     		bne	.L149
 852:.\main.c      **** 			        case 0x56:						        //POS A                                                         
 853:.\main.c      ****                         set_imagen(1,36);           //Inicio opciones GRP 700 POS A
 3438              		.loc 1 853 0
 3439 03aa 0120     		movs	r0, #1
 3440 03ac 2421     		movs	r1, #36
 3441 03ae FFF7FEFF 		bl	set_imagen
 854:.\main.c      ****                         seleccion_pos = 1;
 3442              		.loc 1 854 0
 3443 03b2 AF4B     		ldr	r3, .L649+4
 3444 03b4 0122     		movs	r2, #1
 3445 03b6 1A70     		strb	r2, [r3]
 855:.\main.c      ****                         flujo_LCD1    = 12;  
 3446              		.loc 1 855 0
 3447 03b8 AE4B     		ldr	r3, .L649+8
 3448 03ba 0C22     		movs	r2, #12
 3449 03bc 1A70     		strb	r2, [r3]
 856:.\main.c      ****                         id_teclado1   = 8;
 3450              		.loc 1 856 0
 3451 03be AE4B     		ldr	r3, .L649+12
 3452 03c0 0822     		movs	r2, #8
 3453 03c2 1A70     		strb	r2, [r3]
 857:.\main.c      **** 				    break;
 3454              		.loc 1 857 0
 3455 03c4 18E0     		b	.L149
 3456              	.L150:
 858:.\main.c      ****                         		       
 859:.\main.c      **** 				    case 0x57:  				            //POS B                                                        
 860:.\main.c      ****                         set_imagen(1,36);           //Inicio opciones GRP 700
 3457              		.loc 1 860 0
 3458 03c6 0120     		movs	r0, #1
 3459 03c8 2421     		movs	r1, #36
 3460 03ca FFF7FEFF 		bl	set_imagen
 861:.\main.c      **** 				        seleccion_pos = 2;
 3461              		.loc 1 861 0
 3462 03ce A84B     		ldr	r3, .L649+4
 3463 03d0 0222     		movs	r2, #2
 3464 03d2 1A70     		strb	r2, [r3]
 862:.\main.c      ****                         flujo_LCD1    = 12;  
 3465              		.loc 1 862 0
 3466 03d4 A74B     		ldr	r3, .L649+8
 3467 03d6 0C22     		movs	r2, #12
 3468 03d8 1A70     		strb	r2, [r3]
 863:.\main.c      ****                         id_teclado1   = 8;
 3469              		.loc 1 863 0
 3470 03da A74B     		ldr	r3, .L649+12
 3471 03dc 0822     		movs	r2, #8
 3472 03de 1A70     		strb	r2, [r3]
 864:.\main.c      **** 				    break;
 3473              		.loc 1 864 0
 3474 03e0 0AE0     		b	.L149
 3475              	.L151:
ARM GAS  C:\Users\RECEPC~1\AppData\Local\Temp\ccVIJn7M.s 			page 79


 865:.\main.c      ****                     
 866:.\main.c      ****                     case 0x94:  				            //POS B                                            
 867:.\main.c      ****                         set_imagen(1,114);
 3476              		.loc 1 867 0
 3477 03e2 0120     		movs	r0, #1
 3478 03e4 7221     		movs	r1, #114
 3479 03e6 FFF7FEFF 		bl	set_imagen
 868:.\main.c      ****                         seleccion_pos = 1;
 3480              		.loc 1 868 0
 3481 03ea A14B     		ldr	r3, .L649+4
 3482 03ec 0122     		movs	r2, #1
 3483 03ee 1A70     		strb	r2, [r3]
 869:.\main.c      ****                         flujo_LCD1 = 15;
 3484              		.loc 1 869 0
 3485 03f0 A04B     		ldr	r3, .L649+8
 3486 03f2 0F22     		movs	r2, #15
 3487 03f4 1A70     		strb	r2, [r3]
 870:.\main.c      **** 				    break;
 3488              		.loc 1 870 0
 3489 03f6 00BF     		nop
 3490              	.L149:
 871:.\main.c      ****                                                
 872:.\main.c      **** 			    }                                                            
 873:.\main.c      **** 		    }
 874:.\main.c      ****             CyDelay(100);
 3491              		.loc 1 874 0
 3492 03f8 6420     		movs	r0, #100
 3493 03fa FFF7FEFF 		bl	CyDelay
 875:.\main.c      **** 		    LCD_1_ClearRxBuffer();
 3494              		.loc 1 875 0
 3495 03fe FFF7FEFF 		bl	LCD_1_ClearRxBuffer
 876:.\main.c      **** 	    }                                        
 877:.\main.c      ****         break;
 3496              		.loc 1 877 0
 3497 0402 04F0A1BA 		b	.L115
 3498              	.L148:
 3499              		.loc 1 877 0 is_stmt 0 discriminator 3
 3500 0406 04F09FBA 		b	.L115
 3501              	.L120:
 878:.\main.c      ****         
 879:.\main.c      ****         case 2:
 880:.\main.c      **** 	        if(LCD_1_GetRxBufferSize()==8){
 3502              		.loc 1 880 0 is_stmt 1
 3503 040a FFF7FEFF 		bl	LCD_1_GetRxBufferSize
 3504 040e 0346     		mov	r3, r0
 3505 0410 082B     		cmp	r3, #8
 3506 0412 40F07682 		bne	.L153
 881:.\main.c      **** 	            if((LCD_1_rxBuffer[0]==0xAA) && (LCD_1_rxBuffer[6]==0xC3) && (LCD_1_rxBuffer[7]==0x3C)
 3507              		.loc 1 881 0
 3508 0416 954B     		ldr	r3, .L649
 3509 0418 1B78     		ldrb	r3, [r3]
 3510 041a DBB2     		uxtb	r3, r3
 3511 041c AA2B     		cmp	r3, #170
 3512 041e 40F06982 		bne	.L154
 3513              		.loc 1 881 0 is_stmt 0 discriminator 1
 3514 0422 924B     		ldr	r3, .L649
 3515 0424 9B79     		ldrb	r3, [r3, #6]
ARM GAS  C:\Users\RECEPC~1\AppData\Local\Temp\ccVIJn7M.s 			page 80


 3516 0426 DBB2     		uxtb	r3, r3
 3517 0428 C32B     		cmp	r3, #195
 3518 042a 40F06382 		bne	.L154
 3519              		.loc 1 881 0 discriminator 2
 3520 042e 8F4B     		ldr	r3, .L649
 3521 0430 DB79     		ldrb	r3, [r3, #7]
 3522 0432 DBB2     		uxtb	r3, r3
 3523 0434 3C2B     		cmp	r3, #60
 3524 0436 40F05D82 		bne	.L154
 882:.\main.c      ****                     switch(LCD_1_rxBuffer[3]){
 3525              		.loc 1 882 0 is_stmt 1
 3526 043a 8C4B     		ldr	r3, .L649
 3527 043c DB78     		ldrb	r3, [r3, #3]
 3528 043e DBB2     		uxtb	r3, r3
 3529 0440 592B     		cmp	r3, #89
 3530 0442 1AD0     		beq	.L155
 3531 0444 592B     		cmp	r3, #89
 3532 0446 02DC     		bgt	.L156
 3533 0448 452B     		cmp	r3, #69
 3534 044a 0ED0     		beq	.L157
 3535 044c 52E2     		b	.L154
 3536              	.L156:
 3537 044e 5C2B     		cmp	r3, #92
 3538 0450 03D0     		beq	.L158
 3539 0452 7E2B     		cmp	r3, #126
 3540 0454 00F04682 		beq	.L159
 3541 0458 4CE2     		b	.L154
 3542              	.L158:
 883:.\main.c      **** 	                    case 0x5C:                                  //Venta							
 884:.\main.c      **** 							set_imagen(1,73);
 3543              		.loc 1 884 0
 3544 045a 0120     		movs	r0, #1
 3545 045c 4921     		movs	r1, #73
 3546 045e FFF7FEFF 		bl	set_imagen
 885:.\main.c      ****                             flujo_LCD1 = 3;
 3547              		.loc 1 885 0
 3548 0462 844B     		ldr	r3, .L649+8
 3549 0464 0322     		movs	r2, #3
 3550 0466 1A70     		strb	r2, [r3]
 886:.\main.c      **** 	                    break;                
 3551              		.loc 1 886 0
 3552 0468 44E2     		b	.L154
 3553              	.L157:
 887:.\main.c      **** 	                    
 888:.\main.c      **** 	                    case 0x45:								    //Otras opciones
 889:.\main.c      ****                             set_imagen(1,114);
 3554              		.loc 1 889 0
 3555 046a 0120     		movs	r0, #1
 3556 046c 7221     		movs	r1, #114
 3557 046e FFF7FEFF 		bl	set_imagen
 890:.\main.c      ****                             flujo_LCD1 = 15;
 3558              		.loc 1 890 0
 3559 0472 804B     		ldr	r3, .L649+8
 3560 0474 0F22     		movs	r2, #15
 3561 0476 1A70     		strb	r2, [r3]
 891:.\main.c      **** 	                    break; 
 3562              		.loc 1 891 0
ARM GAS  C:\Users\RECEPC~1\AppData\Local\Temp\ccVIJn7M.s 			page 81


 3563 0478 3CE2     		b	.L154
 3564              	.L155:
 892:.\main.c      **** 
 893:.\main.c      **** 	                    case 0x59:									//Corte
 894:.\main.c      **** 							set_imagen(1,57);
 3565              		.loc 1 894 0
 3566 047a 0120     		movs	r0, #1
 3567 047c 3921     		movs	r1, #57
 3568 047e FFF7FEFF 		bl	set_imagen
 895:.\main.c      **** 							rf_mod[0]='M';
 3569              		.loc 1 895 0
 3570 0482 7E4B     		ldr	r3, .L649+16
 3571 0484 4D22     		movs	r2, #77
 3572 0486 1A70     		strb	r2, [r3]
 896:.\main.c      **** 							rf_mod[1]='U';
 3573              		.loc 1 896 0
 3574 0488 7C4B     		ldr	r3, .L649+16
 3575 048a 5522     		movs	r2, #85
 3576 048c 5A70     		strb	r2, [r3, #1]
 897:.\main.c      **** 							rf_mod[2]='X';
 3577              		.loc 1 897 0
 3578 048e 7B4B     		ldr	r3, .L649+16
 3579 0490 5822     		movs	r2, #88
 3580 0492 9A70     		strb	r2, [r3, #2]
 898:.\main.c      **** 							rf_mod[3]='2';
 3581              		.loc 1 898 0
 3582 0494 794B     		ldr	r3, .L649+16
 3583 0496 3222     		movs	r2, #50
 3584 0498 DA70     		strb	r2, [r3, #3]
 899:.\main.c      ****                             if(seleccion_pos == 1){
 3585              		.loc 1 899 0
 3586 049a 754B     		ldr	r3, .L649+4
 3587 049c 1B78     		ldrb	r3, [r3]
 3588 049e DBB2     		uxtb	r3, r3
 3589 04a0 012B     		cmp	r3, #1
 3590 04a2 40F01181 		bne	.L160
 900:.\main.c      ****                                 totales(lado1.dir, lado1.mangueras);
 3591              		.loc 1 900 0
 3592 04a6 764B     		ldr	r3, .L649+20
 3593 04a8 1B78     		ldrb	r3, [r3]
 3594 04aa DAB2     		uxtb	r2, r3
 3595 04ac 744B     		ldr	r3, .L649+20
 3596 04ae 93F85C30 		ldrb	r3, [r3, #92]
 3597 04b2 DBB2     		uxtb	r3, r3
 3598 04b4 1046     		mov	r0, r2
 3599 04b6 1946     		mov	r1, r3
 3600 04b8 FFF7FEFF 		bl	totales
 901:.\main.c      ****                                 CyDelay(50);  
 3601              		.loc 1 901 0
 3602 04bc 3220     		movs	r0, #50
 3603 04be FFF7FEFF 		bl	CyDelay
 902:.\main.c      ****                                 x_1=4;
 3604              		.loc 1 902 0
 3605 04c2 0423     		movs	r3, #4
 3606 04c4 87F82D30 		strb	r3, [r7, #45]
 903:.\main.c      ****                                 for(x=0;x<=11;x++){     //volumen_pro1 
 3607              		.loc 1 903 0
ARM GAS  C:\Users\RECEPC~1\AppData\Local\Temp\ccVIJn7M.s 			page 82


 3608 04c8 0023     		movs	r3, #0
 3609 04ca 87F82F30 		strb	r3, [r7, #47]
 3610 04ce 18E0     		b	.L161
 3611              	.L162:
 904:.\main.c      ****                                     rf_mod[x_1]=(lado1.totales[0][x]&0X0F)+48;
 3612              		.loc 1 904 0 discriminator 3
 3613 04d0 97F82D30 		ldrb	r3, [r7, #45]	@ zero_extendqisi2
 3614 04d4 97F82F20 		ldrb	r2, [r7, #47]	@ zero_extendqisi2
 3615 04d8 6949     		ldr	r1, .L649+20
 3616 04da 0A44     		add	r2, r2, r1
 3617 04dc 9278     		ldrb	r2, [r2, #2]
 3618 04de D2B2     		uxtb	r2, r2
 3619 04e0 02F00F02 		and	r2, r2, #15
 3620 04e4 D2B2     		uxtb	r2, r2
 3621 04e6 3032     		adds	r2, r2, #48
 3622 04e8 D1B2     		uxtb	r1, r2
 3623 04ea 644A     		ldr	r2, .L649+16
 3624 04ec D154     		strb	r1, [r2, r3]
 905:.\main.c      ****                                     x_1++;
 3625              		.loc 1 905 0 discriminator 3
 3626 04ee 97F82D30 		ldrb	r3, [r7, #45]	@ zero_extendqisi2
 3627 04f2 0133     		adds	r3, r3, #1
 3628 04f4 87F82D30 		strb	r3, [r7, #45]
 903:.\main.c      ****                                 for(x=0;x<=11;x++){     //volumen_pro1 
 3629              		.loc 1 903 0 discriminator 3
 3630 04f8 97F82F30 		ldrb	r3, [r7, #47]	@ zero_extendqisi2
 3631 04fc 0133     		adds	r3, r3, #1
 3632 04fe 87F82F30 		strb	r3, [r7, #47]
 3633              	.L161:
 903:.\main.c      ****                                 for(x=0;x<=11;x++){     //volumen_pro1 
 3634              		.loc 1 903 0 is_stmt 0 discriminator 1
 3635 0502 97F82F30 		ldrb	r3, [r7, #47]	@ zero_extendqisi2
 3636 0506 0B2B     		cmp	r3, #11
 3637 0508 E2D9     		bls	.L162
 906:.\main.c      ****                                 }
 907:.\main.c      ****                                 for(x=12;x<=23;x++){    //dinero_pro1
 3638              		.loc 1 907 0 is_stmt 1
 3639 050a 0C23     		movs	r3, #12
 3640 050c 87F82F30 		strb	r3, [r7, #47]
 3641 0510 18E0     		b	.L163
 3642              	.L164:
 908:.\main.c      ****                                     rf_mod[x_1]=(lado1.totales[0][x]&0X0F)+48;
 3643              		.loc 1 908 0 discriminator 3
 3644 0512 97F82D30 		ldrb	r3, [r7, #45]	@ zero_extendqisi2
 3645 0516 97F82F20 		ldrb	r2, [r7, #47]	@ zero_extendqisi2
 3646 051a 5949     		ldr	r1, .L649+20
 3647 051c 0A44     		add	r2, r2, r1
 3648 051e 9278     		ldrb	r2, [r2, #2]
 3649 0520 D2B2     		uxtb	r2, r2
 3650 0522 02F00F02 		and	r2, r2, #15
 3651 0526 D2B2     		uxtb	r2, r2
 3652 0528 3032     		adds	r2, r2, #48
 3653 052a D1B2     		uxtb	r1, r2
 3654 052c 534A     		ldr	r2, .L649+16
 3655 052e D154     		strb	r1, [r2, r3]
 909:.\main.c      ****                                     x_1++;
 3656              		.loc 1 909 0 discriminator 3
ARM GAS  C:\Users\RECEPC~1\AppData\Local\Temp\ccVIJn7M.s 			page 83


 3657 0530 97F82D30 		ldrb	r3, [r7, #45]	@ zero_extendqisi2
 3658 0534 0133     		adds	r3, r3, #1
 3659 0536 87F82D30 		strb	r3, [r7, #45]
 907:.\main.c      ****                                     rf_mod[x_1]=(lado1.totales[0][x]&0X0F)+48;
 3660              		.loc 1 907 0 discriminator 3
 3661 053a 97F82F30 		ldrb	r3, [r7, #47]	@ zero_extendqisi2
 3662 053e 0133     		adds	r3, r3, #1
 3663 0540 87F82F30 		strb	r3, [r7, #47]
 3664              	.L163:
 907:.\main.c      ****                                     rf_mod[x_1]=(lado1.totales[0][x]&0X0F)+48;
 3665              		.loc 1 907 0 is_stmt 0 discriminator 1
 3666 0544 97F82F30 		ldrb	r3, [r7, #47]	@ zero_extendqisi2
 3667 0548 172B     		cmp	r3, #23
 3668 054a E2D9     		bls	.L164
 910:.\main.c      ****                                 }           
 911:.\main.c      ****                                 for(x=0;x<=11;x++){     //volumen_pro2     
 3669              		.loc 1 911 0 is_stmt 1
 3670 054c 0023     		movs	r3, #0
 3671 054e 87F82F30 		strb	r3, [r7, #47]
 3672 0552 18E0     		b	.L165
 3673              	.L166:
 912:.\main.c      ****                                     rf_mod[x_1]=(lado1.totales[1][x]&0X0F)+48;
 3674              		.loc 1 912 0 discriminator 3
 3675 0554 97F82D30 		ldrb	r3, [r7, #45]	@ zero_extendqisi2
 3676 0558 97F82F20 		ldrb	r2, [r7, #47]	@ zero_extendqisi2
 3677 055c 4849     		ldr	r1, .L649+20
 3678 055e 0A44     		add	r2, r2, r1
 3679 0560 927E     		ldrb	r2, [r2, #26]
 3680 0562 D2B2     		uxtb	r2, r2
 3681 0564 02F00F02 		and	r2, r2, #15
 3682 0568 D2B2     		uxtb	r2, r2
 3683 056a 3032     		adds	r2, r2, #48
 3684 056c D1B2     		uxtb	r1, r2
 3685 056e 434A     		ldr	r2, .L649+16
 3686 0570 D154     		strb	r1, [r2, r3]
 913:.\main.c      ****                                     x_1++;
 3687              		.loc 1 913 0 discriminator 3
 3688 0572 97F82D30 		ldrb	r3, [r7, #45]	@ zero_extendqisi2
 3689 0576 0133     		adds	r3, r3, #1
 3690 0578 87F82D30 		strb	r3, [r7, #45]
 911:.\main.c      ****                                     rf_mod[x_1]=(lado1.totales[1][x]&0X0F)+48;
 3691              		.loc 1 911 0 discriminator 3
 3692 057c 97F82F30 		ldrb	r3, [r7, #47]	@ zero_extendqisi2
 3693 0580 0133     		adds	r3, r3, #1
 3694 0582 87F82F30 		strb	r3, [r7, #47]
 3695              	.L165:
 911:.\main.c      ****                                     rf_mod[x_1]=(lado1.totales[1][x]&0X0F)+48;
 3696              		.loc 1 911 0 is_stmt 0 discriminator 1
 3697 0586 97F82F30 		ldrb	r3, [r7, #47]	@ zero_extendqisi2
 3698 058a 0B2B     		cmp	r3, #11
 3699 058c E2D9     		bls	.L166
 914:.\main.c      ****                                 }
 915:.\main.c      ****                                 for(x=12;x<=23;x++){    //dinero_pro2    
 3700              		.loc 1 915 0 is_stmt 1
 3701 058e 0C23     		movs	r3, #12
 3702 0590 87F82F30 		strb	r3, [r7, #47]
 3703 0594 18E0     		b	.L167
ARM GAS  C:\Users\RECEPC~1\AppData\Local\Temp\ccVIJn7M.s 			page 84


 3704              	.L168:
 916:.\main.c      ****                                     rf_mod[x_1]=(lado1.totales[1][x]&0X0F)+48;
 3705              		.loc 1 916 0 discriminator 3
 3706 0596 97F82D30 		ldrb	r3, [r7, #45]	@ zero_extendqisi2
 3707 059a 97F82F20 		ldrb	r2, [r7, #47]	@ zero_extendqisi2
 3708 059e 3849     		ldr	r1, .L649+20
 3709 05a0 0A44     		add	r2, r2, r1
 3710 05a2 927E     		ldrb	r2, [r2, #26]
 3711 05a4 D2B2     		uxtb	r2, r2
 3712 05a6 02F00F02 		and	r2, r2, #15
 3713 05aa D2B2     		uxtb	r2, r2
 3714 05ac 3032     		adds	r2, r2, #48
 3715 05ae D1B2     		uxtb	r1, r2
 3716 05b0 324A     		ldr	r2, .L649+16
 3717 05b2 D154     		strb	r1, [r2, r3]
 917:.\main.c      ****                                     x_1++;
 3718              		.loc 1 917 0 discriminator 3
 3719 05b4 97F82D30 		ldrb	r3, [r7, #45]	@ zero_extendqisi2
 3720 05b8 0133     		adds	r3, r3, #1
 3721 05ba 87F82D30 		strb	r3, [r7, #45]
 915:.\main.c      ****                                     rf_mod[x_1]=(lado1.totales[1][x]&0X0F)+48;
 3722              		.loc 1 915 0 discriminator 3
 3723 05be 97F82F30 		ldrb	r3, [r7, #47]	@ zero_extendqisi2
 3724 05c2 0133     		adds	r3, r3, #1
 3725 05c4 87F82F30 		strb	r3, [r7, #47]
 3726              	.L167:
 915:.\main.c      ****                                     rf_mod[x_1]=(lado1.totales[1][x]&0X0F)+48;
 3727              		.loc 1 915 0 is_stmt 0 discriminator 1
 3728 05c8 97F82F30 		ldrb	r3, [r7, #47]	@ zero_extendqisi2
 3729 05cc 172B     		cmp	r3, #23
 3730 05ce E2D9     		bls	.L168
 918:.\main.c      ****                                 }           
 919:.\main.c      ****                                 for(x=0;x<=11;x++){     //volumen_pro3   
 3731              		.loc 1 919 0 is_stmt 1
 3732 05d0 0023     		movs	r3, #0
 3733 05d2 87F82F30 		strb	r3, [r7, #47]
 3734 05d6 19E0     		b	.L169
 3735              	.L170:
 920:.\main.c      ****                                     rf_mod[x_1]=(lado1.totales[2][x]&0X0F)+48;
 3736              		.loc 1 920 0 discriminator 3
 3737 05d8 97F82D30 		ldrb	r3, [r7, #45]	@ zero_extendqisi2
 3738 05dc 97F82F20 		ldrb	r2, [r7, #47]	@ zero_extendqisi2
 3739 05e0 2749     		ldr	r1, .L649+20
 3740 05e2 0A44     		add	r2, r2, r1
 3741 05e4 92F83220 		ldrb	r2, [r2, #50]
 3742 05e8 D2B2     		uxtb	r2, r2
 3743 05ea 02F00F02 		and	r2, r2, #15
 3744 05ee D2B2     		uxtb	r2, r2
 3745 05f0 3032     		adds	r2, r2, #48
 3746 05f2 D1B2     		uxtb	r1, r2
 3747 05f4 214A     		ldr	r2, .L649+16
 3748 05f6 D154     		strb	r1, [r2, r3]
 921:.\main.c      ****                                     x_1++;
 3749              		.loc 1 921 0 discriminator 3
 3750 05f8 97F82D30 		ldrb	r3, [r7, #45]	@ zero_extendqisi2
 3751 05fc 0133     		adds	r3, r3, #1
 3752 05fe 87F82D30 		strb	r3, [r7, #45]
ARM GAS  C:\Users\RECEPC~1\AppData\Local\Temp\ccVIJn7M.s 			page 85


 919:.\main.c      ****                                     rf_mod[x_1]=(lado1.totales[2][x]&0X0F)+48;
 3753              		.loc 1 919 0 discriminator 3
 3754 0602 97F82F30 		ldrb	r3, [r7, #47]	@ zero_extendqisi2
 3755 0606 0133     		adds	r3, r3, #1
 3756 0608 87F82F30 		strb	r3, [r7, #47]
 3757              	.L169:
 919:.\main.c      ****                                     rf_mod[x_1]=(lado1.totales[2][x]&0X0F)+48;
 3758              		.loc 1 919 0 is_stmt 0 discriminator 1
 3759 060c 97F82F30 		ldrb	r3, [r7, #47]	@ zero_extendqisi2
 3760 0610 0B2B     		cmp	r3, #11
 3761 0612 E1D9     		bls	.L170
 922:.\main.c      ****                                 }
 923:.\main.c      ****                                 for(x=12;x<=23;x++){    //dinero_pro3    
 3762              		.loc 1 923 0 is_stmt 1
 3763 0614 0C23     		movs	r3, #12
 3764 0616 87F82F30 		strb	r3, [r7, #47]
 3765 061a 19E0     		b	.L171
 3766              	.L172:
 924:.\main.c      ****                                     rf_mod[x_1]=(lado1.totales[2][x]&0X0F)+48;
 3767              		.loc 1 924 0 discriminator 3
 3768 061c 97F82D30 		ldrb	r3, [r7, #45]	@ zero_extendqisi2
 3769 0620 97F82F20 		ldrb	r2, [r7, #47]	@ zero_extendqisi2
 3770 0624 1649     		ldr	r1, .L649+20
 3771 0626 0A44     		add	r2, r2, r1
 3772 0628 92F83220 		ldrb	r2, [r2, #50]
 3773 062c D2B2     		uxtb	r2, r2
 3774 062e 02F00F02 		and	r2, r2, #15
 3775 0632 D2B2     		uxtb	r2, r2
 3776 0634 3032     		adds	r2, r2, #48
 3777 0636 D1B2     		uxtb	r1, r2
 3778 0638 104A     		ldr	r2, .L649+16
 3779 063a D154     		strb	r1, [r2, r3]
 925:.\main.c      ****                                     x_1++;
 3780              		.loc 1 925 0 discriminator 3
 3781 063c 97F82D30 		ldrb	r3, [r7, #45]	@ zero_extendqisi2
 3782 0640 0133     		adds	r3, r3, #1
 3783 0642 87F82D30 		strb	r3, [r7, #45]
 923:.\main.c      ****                                     rf_mod[x_1]=(lado1.totales[2][x]&0X0F)+48;
 3784              		.loc 1 923 0 discriminator 3
 3785 0646 97F82F30 		ldrb	r3, [r7, #47]	@ zero_extendqisi2
 3786 064a 0133     		adds	r3, r3, #1
 3787 064c 87F82F30 		strb	r3, [r7, #47]
 3788              	.L171:
 923:.\main.c      ****                                     rf_mod[x_1]=(lado1.totales[2][x]&0X0F)+48;
 3789              		.loc 1 923 0 is_stmt 0 discriminator 1
 3790 0650 97F82F30 		ldrb	r3, [r7, #47]	@ zero_extendqisi2
 3791 0654 172B     		cmp	r3, #23
 3792 0656 E1D9     		bls	.L172
 926:.\main.c      ****                                 }
 927:.\main.c      ****                                 rf_mod[75]='*';                            
 3793              		.loc 1 927 0 is_stmt 1
 3794 0658 084B     		ldr	r3, .L649+16
 3795 065a 2A22     		movs	r2, #42
 3796 065c 83F84B20 		strb	r2, [r3, #75]
 928:.\main.c      ****                                 PC_ClearRxBuffer();
 3797              		.loc 1 928 0
 3798 0660 FFF7FEFF 		bl	PC_ClearRxBuffer
ARM GAS  C:\Users\RECEPC~1\AppData\Local\Temp\ccVIJn7M.s 			page 86


 929:.\main.c      ****     						    for(x=0;x<=75;x++){
 3799              		.loc 1 929 0
 3800 0664 0023     		movs	r3, #0
 3801 0666 87F82F30 		strb	r3, [r7, #47]
 3802 066a 17E0     		b	.L173
 3803              	.L650:
 3804              		.align	2
 3805              	.L649:
 3806 066c 00000000 		.word	LCD_1_rxBuffer
 3807 0670 00000000 		.word	seleccion_pos
 3808 0674 00000000 		.word	flujo_LCD1
 3809 0678 00000000 		.word	id_teclado1
 3810 067c 00000000 		.word	rf_mod
 3811 0680 00000000 		.word	lado1
 3812              	.L174:
 930:.\main.c      ****     							   PC_PutChar(rf_mod[x]);
 3813              		.loc 1 930 0 discriminator 3
 3814 0684 97F82F30 		ldrb	r3, [r7, #47]	@ zero_extendqisi2
 3815 0688 CB4A     		ldr	r2, .L651
 3816 068a D35C     		ldrb	r3, [r2, r3]	@ zero_extendqisi2
 3817 068c 1846     		mov	r0, r3
 3818 068e FFF7FEFF 		bl	PC_PutChar
 929:.\main.c      ****     						    for(x=0;x<=75;x++){
 3819              		.loc 1 929 0 discriminator 3
 3820 0692 97F82F30 		ldrb	r3, [r7, #47]	@ zero_extendqisi2
 3821 0696 0133     		adds	r3, r3, #1
 3822 0698 87F82F30 		strb	r3, [r7, #47]
 3823              	.L173:
 929:.\main.c      ****     						    for(x=0;x<=75;x++){
 3824              		.loc 1 929 0 is_stmt 0 discriminator 1
 3825 069c 97F82F30 		ldrb	r3, [r7, #47]	@ zero_extendqisi2
 3826 06a0 4B2B     		cmp	r3, #75
 3827 06a2 EFD9     		bls	.L174
 931:.\main.c      ****     						    }                                 
 932:.\main.c      ****     							CyDelay(250);                
 3828              		.loc 1 932 0 is_stmt 1
 3829 06a4 FA20     		movs	r0, #250
 3830 06a6 FFF7FEFF 		bl	CyDelay
 933:.\main.c      ****     							if(PC_GetRxBufferSize()>=2){
 3831              		.loc 1 933 0
 3832 06aa FFF7FEFF 		bl	PC_GetRxBufferSize
 3833 06ae 0346     		mov	r3, r0
 3834 06b0 012B     		cmp	r3, #1
 3835 06b2 09D9     		bls	.L160
 934:.\main.c      ****  							        set_imagen(1,74);
 3836              		.loc 1 934 0
 3837 06b4 0120     		movs	r0, #1
 3838 06b6 4A21     		movs	r1, #74
 3839 06b8 FFF7FEFF 		bl	set_imagen
 935:.\main.c      **** 							        flujo_LCD1=0;
 3840              		.loc 1 935 0
 3841 06bc BF4B     		ldr	r3, .L651+4
 3842 06be 0022     		movs	r2, #0
 3843 06c0 1A70     		strb	r2, [r3]
 936:.\main.c      **** 							        lado1.estado=libre;     //Fin de reimpresion                                        
 3844              		.loc 1 936 0
 3845 06c2 BF4B     		ldr	r3, .L651+8
ARM GAS  C:\Users\RECEPC~1\AppData\Local\Temp\ccVIJn7M.s 			page 87


 3846 06c4 0122     		movs	r2, #1
 3847 06c6 5A70     		strb	r2, [r3, #1]
 3848              	.L160:
 937:.\main.c      **** 							    }
 938:.\main.c      ****                             }
 939:.\main.c      ****                 			if(seleccion_pos == 2){
 3849              		.loc 1 939 0
 3850 06c8 BE4B     		ldr	r3, .L651+12
 3851 06ca 1B78     		ldrb	r3, [r3]
 3852 06cc DBB2     		uxtb	r3, r3
 3853 06ce 022B     		cmp	r3, #2
 3854 06d0 40F00581 		bne	.L175
 940:.\main.c      ****                                 totales(lado2.dir, lado2.mangueras);
 3855              		.loc 1 940 0
 3856 06d4 BC4B     		ldr	r3, .L651+16
 3857 06d6 1B78     		ldrb	r3, [r3]
 3858 06d8 DAB2     		uxtb	r2, r3
 3859 06da BB4B     		ldr	r3, .L651+16
 3860 06dc 93F85C30 		ldrb	r3, [r3, #92]
 3861 06e0 DBB2     		uxtb	r3, r3
 3862 06e2 1046     		mov	r0, r2
 3863 06e4 1946     		mov	r1, r3
 3864 06e6 FFF7FEFF 		bl	totales
 941:.\main.c      ****                                 CyDelay(50);  
 3865              		.loc 1 941 0
 3866 06ea 3220     		movs	r0, #50
 3867 06ec FFF7FEFF 		bl	CyDelay
 942:.\main.c      ****                                 x_1=4;
 3868              		.loc 1 942 0
 3869 06f0 0423     		movs	r3, #4
 3870 06f2 87F82D30 		strb	r3, [r7, #45]
 943:.\main.c      ****                                 for(x=0;x<=11;x++){     //volumen_pro1 
 3871              		.loc 1 943 0
 3872 06f6 0023     		movs	r3, #0
 3873 06f8 87F82F30 		strb	r3, [r7, #47]
 3874 06fc 18E0     		b	.L176
 3875              	.L177:
 944:.\main.c      ****                                     rf_mod[x_1]=(lado2.totales[0][x]&0X0F)+48;
 3876              		.loc 1 944 0 discriminator 3
 3877 06fe 97F82D30 		ldrb	r3, [r7, #45]	@ zero_extendqisi2
 3878 0702 97F82F20 		ldrb	r2, [r7, #47]	@ zero_extendqisi2
 3879 0706 B049     		ldr	r1, .L651+16
 3880 0708 0A44     		add	r2, r2, r1
 3881 070a 9278     		ldrb	r2, [r2, #2]
 3882 070c D2B2     		uxtb	r2, r2
 3883 070e 02F00F02 		and	r2, r2, #15
 3884 0712 D2B2     		uxtb	r2, r2
 3885 0714 3032     		adds	r2, r2, #48
 3886 0716 D1B2     		uxtb	r1, r2
 3887 0718 A74A     		ldr	r2, .L651
 3888 071a D154     		strb	r1, [r2, r3]
 945:.\main.c      ****                                     x_1++;
 3889              		.loc 1 945 0 discriminator 3
 3890 071c 97F82D30 		ldrb	r3, [r7, #45]	@ zero_extendqisi2
 3891 0720 0133     		adds	r3, r3, #1
 3892 0722 87F82D30 		strb	r3, [r7, #45]
 943:.\main.c      ****                                 for(x=0;x<=11;x++){     //volumen_pro1 
ARM GAS  C:\Users\RECEPC~1\AppData\Local\Temp\ccVIJn7M.s 			page 88


 3893              		.loc 1 943 0 discriminator 3
 3894 0726 97F82F30 		ldrb	r3, [r7, #47]	@ zero_extendqisi2
 3895 072a 0133     		adds	r3, r3, #1
 3896 072c 87F82F30 		strb	r3, [r7, #47]
 3897              	.L176:
 943:.\main.c      ****                                 for(x=0;x<=11;x++){     //volumen_pro1 
 3898              		.loc 1 943 0 is_stmt 0 discriminator 1
 3899 0730 97F82F30 		ldrb	r3, [r7, #47]	@ zero_extendqisi2
 3900 0734 0B2B     		cmp	r3, #11
 3901 0736 E2D9     		bls	.L177
 946:.\main.c      ****                                 }
 947:.\main.c      ****                                 for(x=12;x<=23;x++){    //dinero_pro1
 3902              		.loc 1 947 0 is_stmt 1
 3903 0738 0C23     		movs	r3, #12
 3904 073a 87F82F30 		strb	r3, [r7, #47]
 3905 073e 18E0     		b	.L178
 3906              	.L179:
 948:.\main.c      ****                                     rf_mod[x_1]=(lado2.totales[0][x]&0X0F)+48;
 3907              		.loc 1 948 0 discriminator 3
 3908 0740 97F82D30 		ldrb	r3, [r7, #45]	@ zero_extendqisi2
 3909 0744 97F82F20 		ldrb	r2, [r7, #47]	@ zero_extendqisi2
 3910 0748 9F49     		ldr	r1, .L651+16
 3911 074a 0A44     		add	r2, r2, r1
 3912 074c 9278     		ldrb	r2, [r2, #2]
 3913 074e D2B2     		uxtb	r2, r2
 3914 0750 02F00F02 		and	r2, r2, #15
 3915 0754 D2B2     		uxtb	r2, r2
 3916 0756 3032     		adds	r2, r2, #48
 3917 0758 D1B2     		uxtb	r1, r2
 3918 075a 974A     		ldr	r2, .L651
 3919 075c D154     		strb	r1, [r2, r3]
 949:.\main.c      ****                                     x_1++;
 3920              		.loc 1 949 0 discriminator 3
 3921 075e 97F82D30 		ldrb	r3, [r7, #45]	@ zero_extendqisi2
 3922 0762 0133     		adds	r3, r3, #1
 3923 0764 87F82D30 		strb	r3, [r7, #45]
 947:.\main.c      ****                                     rf_mod[x_1]=(lado2.totales[0][x]&0X0F)+48;
 3924              		.loc 1 947 0 discriminator 3
 3925 0768 97F82F30 		ldrb	r3, [r7, #47]	@ zero_extendqisi2
 3926 076c 0133     		adds	r3, r3, #1
 3927 076e 87F82F30 		strb	r3, [r7, #47]
 3928              	.L178:
 947:.\main.c      ****                                     rf_mod[x_1]=(lado2.totales[0][x]&0X0F)+48;
 3929              		.loc 1 947 0 is_stmt 0 discriminator 1
 3930 0772 97F82F30 		ldrb	r3, [r7, #47]	@ zero_extendqisi2
 3931 0776 172B     		cmp	r3, #23
 3932 0778 E2D9     		bls	.L179
 950:.\main.c      ****                                 }           
 951:.\main.c      ****                                 for(x=0;x<=11;x++){     //volumen_pro2     
 3933              		.loc 1 951 0 is_stmt 1
 3934 077a 0023     		movs	r3, #0
 3935 077c 87F82F30 		strb	r3, [r7, #47]
 3936 0780 18E0     		b	.L180
 3937              	.L181:
 952:.\main.c      ****                                     rf_mod[x_1]=(lado2.totales[1][x]&0X0F)+48;
 3938              		.loc 1 952 0 discriminator 3
 3939 0782 97F82D30 		ldrb	r3, [r7, #45]	@ zero_extendqisi2
ARM GAS  C:\Users\RECEPC~1\AppData\Local\Temp\ccVIJn7M.s 			page 89


 3940 0786 97F82F20 		ldrb	r2, [r7, #47]	@ zero_extendqisi2
 3941 078a 8F49     		ldr	r1, .L651+16
 3942 078c 0A44     		add	r2, r2, r1
 3943 078e 927E     		ldrb	r2, [r2, #26]
 3944 0790 D2B2     		uxtb	r2, r2
 3945 0792 02F00F02 		and	r2, r2, #15
 3946 0796 D2B2     		uxtb	r2, r2
 3947 0798 3032     		adds	r2, r2, #48
 3948 079a D1B2     		uxtb	r1, r2
 3949 079c 864A     		ldr	r2, .L651
 3950 079e D154     		strb	r1, [r2, r3]
 953:.\main.c      ****                                     x_1++;
 3951              		.loc 1 953 0 discriminator 3
 3952 07a0 97F82D30 		ldrb	r3, [r7, #45]	@ zero_extendqisi2
 3953 07a4 0133     		adds	r3, r3, #1
 3954 07a6 87F82D30 		strb	r3, [r7, #45]
 951:.\main.c      ****                                     rf_mod[x_1]=(lado2.totales[1][x]&0X0F)+48;
 3955              		.loc 1 951 0 discriminator 3
 3956 07aa 97F82F30 		ldrb	r3, [r7, #47]	@ zero_extendqisi2
 3957 07ae 0133     		adds	r3, r3, #1
 3958 07b0 87F82F30 		strb	r3, [r7, #47]
 3959              	.L180:
 951:.\main.c      ****                                     rf_mod[x_1]=(lado2.totales[1][x]&0X0F)+48;
 3960              		.loc 1 951 0 is_stmt 0 discriminator 1
 3961 07b4 97F82F30 		ldrb	r3, [r7, #47]	@ zero_extendqisi2
 3962 07b8 0B2B     		cmp	r3, #11
 3963 07ba E2D9     		bls	.L181
 954:.\main.c      ****                                 }
 955:.\main.c      ****                                 for(x=12;x<=23;x++){    //dinero_pro2    
 3964              		.loc 1 955 0 is_stmt 1
 3965 07bc 0C23     		movs	r3, #12
 3966 07be 87F82F30 		strb	r3, [r7, #47]
 3967 07c2 18E0     		b	.L182
 3968              	.L183:
 956:.\main.c      ****                                     rf_mod[x_1]=(lado2.totales[1][x]&0X0F)+48;
 3969              		.loc 1 956 0 discriminator 3
 3970 07c4 97F82D30 		ldrb	r3, [r7, #45]	@ zero_extendqisi2
 3971 07c8 97F82F20 		ldrb	r2, [r7, #47]	@ zero_extendqisi2
 3972 07cc 7E49     		ldr	r1, .L651+16
 3973 07ce 0A44     		add	r2, r2, r1
 3974 07d0 927E     		ldrb	r2, [r2, #26]
 3975 07d2 D2B2     		uxtb	r2, r2
 3976 07d4 02F00F02 		and	r2, r2, #15
 3977 07d8 D2B2     		uxtb	r2, r2
 3978 07da 3032     		adds	r2, r2, #48
 3979 07dc D1B2     		uxtb	r1, r2
 3980 07de 764A     		ldr	r2, .L651
 3981 07e0 D154     		strb	r1, [r2, r3]
 957:.\main.c      ****                                     x_1++;
 3982              		.loc 1 957 0 discriminator 3
 3983 07e2 97F82D30 		ldrb	r3, [r7, #45]	@ zero_extendqisi2
 3984 07e6 0133     		adds	r3, r3, #1
 3985 07e8 87F82D30 		strb	r3, [r7, #45]
 955:.\main.c      ****                                     rf_mod[x_1]=(lado2.totales[1][x]&0X0F)+48;
 3986              		.loc 1 955 0 discriminator 3
 3987 07ec 97F82F30 		ldrb	r3, [r7, #47]	@ zero_extendqisi2
 3988 07f0 0133     		adds	r3, r3, #1
ARM GAS  C:\Users\RECEPC~1\AppData\Local\Temp\ccVIJn7M.s 			page 90


 3989 07f2 87F82F30 		strb	r3, [r7, #47]
 3990              	.L182:
 955:.\main.c      ****                                     rf_mod[x_1]=(lado2.totales[1][x]&0X0F)+48;
 3991              		.loc 1 955 0 is_stmt 0 discriminator 1
 3992 07f6 97F82F30 		ldrb	r3, [r7, #47]	@ zero_extendqisi2
 3993 07fa 172B     		cmp	r3, #23
 3994 07fc E2D9     		bls	.L183
 958:.\main.c      ****                                 }           
 959:.\main.c      ****                                 for(x=0;x<=11;x++){     //volumen_pro3   
 3995              		.loc 1 959 0 is_stmt 1
 3996 07fe 0023     		movs	r3, #0
 3997 0800 87F82F30 		strb	r3, [r7, #47]
 3998 0804 19E0     		b	.L184
 3999              	.L185:
 960:.\main.c      ****                                     rf_mod[x_1]=(lado2.totales[2][x]&0X0F)+48;
 4000              		.loc 1 960 0 discriminator 3
 4001 0806 97F82D30 		ldrb	r3, [r7, #45]	@ zero_extendqisi2
 4002 080a 97F82F20 		ldrb	r2, [r7, #47]	@ zero_extendqisi2
 4003 080e 6E49     		ldr	r1, .L651+16
 4004 0810 0A44     		add	r2, r2, r1
 4005 0812 92F83220 		ldrb	r2, [r2, #50]
 4006 0816 D2B2     		uxtb	r2, r2
 4007 0818 02F00F02 		and	r2, r2, #15
 4008 081c D2B2     		uxtb	r2, r2
 4009 081e 3032     		adds	r2, r2, #48
 4010 0820 D1B2     		uxtb	r1, r2
 4011 0822 654A     		ldr	r2, .L651
 4012 0824 D154     		strb	r1, [r2, r3]
 961:.\main.c      ****                                     x_1++;
 4013              		.loc 1 961 0 discriminator 3
 4014 0826 97F82D30 		ldrb	r3, [r7, #45]	@ zero_extendqisi2
 4015 082a 0133     		adds	r3, r3, #1
 4016 082c 87F82D30 		strb	r3, [r7, #45]
 959:.\main.c      ****                                     rf_mod[x_1]=(lado2.totales[2][x]&0X0F)+48;
 4017              		.loc 1 959 0 discriminator 3
 4018 0830 97F82F30 		ldrb	r3, [r7, #47]	@ zero_extendqisi2
 4019 0834 0133     		adds	r3, r3, #1
 4020 0836 87F82F30 		strb	r3, [r7, #47]
 4021              	.L184:
 959:.\main.c      ****                                     rf_mod[x_1]=(lado2.totales[2][x]&0X0F)+48;
 4022              		.loc 1 959 0 is_stmt 0 discriminator 1
 4023 083a 97F82F30 		ldrb	r3, [r7, #47]	@ zero_extendqisi2
 4024 083e 0B2B     		cmp	r3, #11
 4025 0840 E1D9     		bls	.L185
 962:.\main.c      ****                                 }
 963:.\main.c      ****                                 for(x=12;x<=23;x++){    //dinero_pro3    
 4026              		.loc 1 963 0 is_stmt 1
 4027 0842 0C23     		movs	r3, #12
 4028 0844 87F82F30 		strb	r3, [r7, #47]
 4029 0848 19E0     		b	.L186
 4030              	.L187:
 964:.\main.c      ****                                     rf_mod[x_1]=(lado2.totales[2][x]&0X0F)+48;
 4031              		.loc 1 964 0 discriminator 3
 4032 084a 97F82D30 		ldrb	r3, [r7, #45]	@ zero_extendqisi2
 4033 084e 97F82F20 		ldrb	r2, [r7, #47]	@ zero_extendqisi2
 4034 0852 5D49     		ldr	r1, .L651+16
 4035 0854 0A44     		add	r2, r2, r1
ARM GAS  C:\Users\RECEPC~1\AppData\Local\Temp\ccVIJn7M.s 			page 91


 4036 0856 92F83220 		ldrb	r2, [r2, #50]
 4037 085a D2B2     		uxtb	r2, r2
 4038 085c 02F00F02 		and	r2, r2, #15
 4039 0860 D2B2     		uxtb	r2, r2
 4040 0862 3032     		adds	r2, r2, #48
 4041 0864 D1B2     		uxtb	r1, r2
 4042 0866 544A     		ldr	r2, .L651
 4043 0868 D154     		strb	r1, [r2, r3]
 965:.\main.c      ****                                     x_1++;
 4044              		.loc 1 965 0 discriminator 3
 4045 086a 97F82D30 		ldrb	r3, [r7, #45]	@ zero_extendqisi2
 4046 086e 0133     		adds	r3, r3, #1
 4047 0870 87F82D30 		strb	r3, [r7, #45]
 963:.\main.c      ****                                     rf_mod[x_1]=(lado2.totales[2][x]&0X0F)+48;
 4048              		.loc 1 963 0 discriminator 3
 4049 0874 97F82F30 		ldrb	r3, [r7, #47]	@ zero_extendqisi2
 4050 0878 0133     		adds	r3, r3, #1
 4051 087a 87F82F30 		strb	r3, [r7, #47]
 4052              	.L186:
 963:.\main.c      ****                                     rf_mod[x_1]=(lado2.totales[2][x]&0X0F)+48;
 4053              		.loc 1 963 0 is_stmt 0 discriminator 1
 4054 087e 97F82F30 		ldrb	r3, [r7, #47]	@ zero_extendqisi2
 4055 0882 172B     		cmp	r3, #23
 4056 0884 E1D9     		bls	.L187
 966:.\main.c      ****                                 }
 967:.\main.c      ****                                 rf_mod[75]='*';                            
 4057              		.loc 1 967 0 is_stmt 1
 4058 0886 4C4B     		ldr	r3, .L651
 4059 0888 2A22     		movs	r2, #42
 4060 088a 83F84B20 		strb	r2, [r3, #75]
 968:.\main.c      ****                                 PC_ClearRxBuffer();
 4061              		.loc 1 968 0
 4062 088e FFF7FEFF 		bl	PC_ClearRxBuffer
 969:.\main.c      ****     						    for(x=0;x<=75;x++){
 4063              		.loc 1 969 0
 4064 0892 0023     		movs	r3, #0
 4065 0894 87F82F30 		strb	r3, [r7, #47]
 4066 0898 0BE0     		b	.L188
 4067              	.L189:
 970:.\main.c      ****     							   PC_PutChar(rf_mod[x]);
 4068              		.loc 1 970 0 discriminator 3
 4069 089a 97F82F30 		ldrb	r3, [r7, #47]	@ zero_extendqisi2
 4070 089e 464A     		ldr	r2, .L651
 4071 08a0 D35C     		ldrb	r3, [r2, r3]	@ zero_extendqisi2
 4072 08a2 1846     		mov	r0, r3
 4073 08a4 FFF7FEFF 		bl	PC_PutChar
 969:.\main.c      ****     						    for(x=0;x<=75;x++){
 4074              		.loc 1 969 0 discriminator 3
 4075 08a8 97F82F30 		ldrb	r3, [r7, #47]	@ zero_extendqisi2
 4076 08ac 0133     		adds	r3, r3, #1
 4077 08ae 87F82F30 		strb	r3, [r7, #47]
 4078              	.L188:
 969:.\main.c      ****     						    for(x=0;x<=75;x++){
 4079              		.loc 1 969 0 is_stmt 0 discriminator 1
 4080 08b2 97F82F30 		ldrb	r3, [r7, #47]	@ zero_extendqisi2
 4081 08b6 4B2B     		cmp	r3, #75
 4082 08b8 EFD9     		bls	.L189
ARM GAS  C:\Users\RECEPC~1\AppData\Local\Temp\ccVIJn7M.s 			page 92


 971:.\main.c      ****     						    }                                 
 972:.\main.c      ****     							CyDelay(250);                
 4083              		.loc 1 972 0 is_stmt 1
 4084 08ba FA20     		movs	r0, #250
 4085 08bc FFF7FEFF 		bl	CyDelay
 973:.\main.c      ****     							if(PC_GetRxBufferSize()>=2){
 4086              		.loc 1 973 0
 4087 08c0 FFF7FEFF 		bl	PC_GetRxBufferSize
 4088 08c4 0346     		mov	r3, r0
 4089 08c6 012B     		cmp	r3, #1
 4090 08c8 09D9     		bls	.L175
 974:.\main.c      ****  							        set_imagen(1,74);
 4091              		.loc 1 974 0
 4092 08ca 0120     		movs	r0, #1
 4093 08cc 4A21     		movs	r1, #74
 4094 08ce FFF7FEFF 		bl	set_imagen
 975:.\main.c      **** 							        flujo_LCD1=0;
 4095              		.loc 1 975 0
 4096 08d2 3A4B     		ldr	r3, .L651+4
 4097 08d4 0022     		movs	r2, #0
 4098 08d6 1A70     		strb	r2, [r3]
 976:.\main.c      **** 							        lado2.estado=libre;     //Fin de reimpresion                                        
 4099              		.loc 1 976 0
 4100 08d8 3B4B     		ldr	r3, .L651+16
 4101 08da 0122     		movs	r2, #1
 4102 08dc 5A70     		strb	r2, [r3, #1]
 4103              	.L175:
 977:.\main.c      **** 							    }
 978:.\main.c      ****                             }                			                                
 979:.\main.c      **** 							PC_ClearRxBuffer();                                                                         
 4104              		.loc 1 979 0
 4105 08de FFF7FEFF 		bl	PC_ClearRxBuffer
 980:.\main.c      **** 	                    break;					
 4106              		.loc 1 980 0
 4107 08e2 07E0     		b	.L154
 4108              	.L159:
 981:.\main.c      **** 						
 982:.\main.c      **** 	                    case 0x7E:									//ir a menu
 983:.\main.c      **** 						  set_imagen(1,74);	
 4109              		.loc 1 983 0
 4110 08e4 0120     		movs	r0, #1
 4111 08e6 4A21     		movs	r1, #74
 4112 08e8 FFF7FEFF 		bl	set_imagen
 984:.\main.c      **** 	                      flujo_LCD1=0;     
 4113              		.loc 1 984 0
 4114 08ec 334B     		ldr	r3, .L651+4
 4115 08ee 0022     		movs	r2, #0
 4116 08f0 1A70     		strb	r2, [r3]
 985:.\main.c      **** 	                    break;					
 4117              		.loc 1 985 0
 4118 08f2 00BF     		nop
 4119              	.L154:
 986:.\main.c      **** 	                }
 987:.\main.c      **** 	            }
 988:.\main.c      **** 	            CyDelay(100);
 4120              		.loc 1 988 0
 4121 08f4 6420     		movs	r0, #100
ARM GAS  C:\Users\RECEPC~1\AppData\Local\Temp\ccVIJn7M.s 			page 93


 4122 08f6 FFF7FEFF 		bl	CyDelay
 989:.\main.c      **** 	            LCD_1_ClearRxBuffer();
 4123              		.loc 1 989 0
 4124 08fa FFF7FEFF 		bl	LCD_1_ClearRxBuffer
 990:.\main.c      **** 	        }				
 991:.\main.c      **** 		break;
 4125              		.loc 1 991 0
 4126 08fe 04F023B8 		b	.L115
 4127              	.L153:
 4128              		.loc 1 991 0 is_stmt 0 discriminator 4
 4129 0902 04F021B8 		b	.L115
 4130              	.L121:
 992:.\main.c      ****             
 993:.\main.c      ****          case 3:     
 994:.\main.c      ****          if(LCD_1_GetRxBufferSize()==8){
 4131              		.loc 1 994 0 is_stmt 1
 4132 0906 FFF7FEFF 		bl	LCD_1_GetRxBufferSize
 4133 090a 0346     		mov	r3, r0
 4134 090c 082B     		cmp	r3, #8
 4135 090e 50D1     		bne	.L190
 995:.\main.c      ****             if((LCD_1_rxBuffer[0]==0xAA) && (LCD_1_rxBuffer[6]==0xC3) && (LCD_1_rxBuffer[7]==0x3C))
 4136              		.loc 1 995 0
 4137 0910 2E4B     		ldr	r3, .L651+20
 4138 0912 1B78     		ldrb	r3, [r3]
 4139 0914 DBB2     		uxtb	r3, r3
 4140 0916 AA2B     		cmp	r3, #170
 4141 0918 44D1     		bne	.L191
 4142              		.loc 1 995 0 is_stmt 0 discriminator 1
 4143 091a 2C4B     		ldr	r3, .L651+20
 4144 091c 9B79     		ldrb	r3, [r3, #6]
 4145 091e DBB2     		uxtb	r3, r3
 4146 0920 C32B     		cmp	r3, #195
 4147 0922 3FD1     		bne	.L191
 4148              		.loc 1 995 0 discriminator 2
 4149 0924 294B     		ldr	r3, .L651+20
 4150 0926 DB79     		ldrb	r3, [r3, #7]
 4151 0928 DBB2     		uxtb	r3, r3
 4152 092a 3C2B     		cmp	r3, #60
 4153 092c 3AD1     		bne	.L191
 996:.\main.c      ****                 switch(LCD_1_rxBuffer[3]){
 4154              		.loc 1 996 0 is_stmt 1
 4155 092e 274B     		ldr	r3, .L651+20
 4156 0930 DB78     		ldrb	r3, [r3, #3]
 4157 0932 DBB2     		uxtb	r3, r3
 4158 0934 5F2B     		cmp	r3, #95
 4159 0936 09D0     		beq	.L192
 4160 0938 5F2B     		cmp	r3, #95
 4161 093a 02DC     		bgt	.L193
 4162 093c 5E2B     		cmp	r3, #94
 4163 093e 13D0     		beq	.L194
 4164 0940 30E0     		b	.L191
 4165              	.L193:
 4166 0942 7E2B     		cmp	r3, #126
 4167 0944 1ED0     		beq	.L195
 4168 0946 942B     		cmp	r3, #148
 4169 0948 24D0     		beq	.L196
 4170 094a 2BE0     		b	.L191
ARM GAS  C:\Users\RECEPC~1\AppData\Local\Temp\ccVIJn7M.s 			page 94


 4171              	.L192:
 997:.\main.c      ****                     case 0x5F:							//Sin ID	                                                     
 998:.\main.c      ****                       set_imagen(1,18);                 //Pasa a pantalla de tipo de venta viejo:5
 4172              		.loc 1 998 0
 4173 094c 0120     		movs	r0, #1
 4174 094e 1221     		movs	r1, #18
 4175 0950 FFF7FEFF 		bl	set_imagen
 999:.\main.c      ****                       tipo_venta = 0;
 4176              		.loc 1 999 0
 4177 0954 1E4B     		ldr	r3, .L651+24
 4178 0956 0022     		movs	r2, #0
 4179 0958 1A70     		strb	r2, [r3]
1000:.\main.c      ****                       id_teclado1 = 8;
 4180              		.loc 1 1000 0
 4181 095a 1E4B     		ldr	r3, .L651+28
 4182 095c 0822     		movs	r2, #8
 4183 095e 1A70     		strb	r2, [r3]
1001:.\main.c      ****                       flujo_LCD1 = 11;                 // viejo: 4
 4184              		.loc 1 1001 0
 4185 0960 164B     		ldr	r3, .L651+4
 4186 0962 0B22     		movs	r2, #11
 4187 0964 1A70     		strb	r2, [r3]
1002:.\main.c      ****                     break;
 4188              		.loc 1 1002 0
 4189 0966 1DE0     		b	.L191
 4190              	.L194:
1003:.\main.c      ****                     
1004:.\main.c      ****                     case 0x5E:  						//Con ID                                         
1005:.\main.c      ****                       set_imagen(1,18);
 4191              		.loc 1 1005 0
 4192 0968 0120     		movs	r0, #1
 4193 096a 1221     		movs	r1, #18
 4194 096c FFF7FEFF 		bl	set_imagen
1006:.\main.c      ****                       tipo_venta = 1;
 4195              		.loc 1 1006 0
 4196 0970 174B     		ldr	r3, .L651+24
 4197 0972 0122     		movs	r2, #1
 4198 0974 1A70     		strb	r2, [r3]
1007:.\main.c      ****                       flujo_LCD1 = 11;
 4199              		.loc 1 1007 0
 4200 0976 114B     		ldr	r3, .L651+4
 4201 0978 0B22     		movs	r2, #11
 4202 097a 1A70     		strb	r2, [r3]
1008:.\main.c      ****                       id_teclado1 = 0;
 4203              		.loc 1 1008 0
 4204 097c 154B     		ldr	r3, .L651+28
 4205 097e 0022     		movs	r2, #0
 4206 0980 1A70     		strb	r2, [r3]
1009:.\main.c      ****                     break;	
 4207              		.loc 1 1009 0
 4208 0982 0FE0     		b	.L191
 4209              	.L195:
1010:.\main.c      **** 
1011:.\main.c      ****                     case 0x7E:						    //ir a menu
1012:.\main.c      **** 					  set_imagen(1,74);	
 4210              		.loc 1 1012 0
 4211 0984 0120     		movs	r0, #1
ARM GAS  C:\Users\RECEPC~1\AppData\Local\Temp\ccVIJn7M.s 			page 95


 4212 0986 4A21     		movs	r1, #74
 4213 0988 FFF7FEFF 		bl	set_imagen
1013:.\main.c      ****                       flujo_LCD1 = 0;     
 4214              		.loc 1 1013 0
 4215 098c 0B4B     		ldr	r3, .L651+4
 4216 098e 0022     		movs	r2, #0
 4217 0990 1A70     		strb	r2, [r3]
1014:.\main.c      ****                     break;	
 4218              		.loc 1 1014 0
 4219 0992 07E0     		b	.L191
 4220              	.L196:
1015:.\main.c      ****                     
1016:.\main.c      ****                     case 0x94:
1017:.\main.c      ****                         set_imagen(1,99); //Regreso a pantalla de opcion de venta
 4221              		.loc 1 1017 0
 4222 0994 0120     		movs	r0, #1
 4223 0996 6321     		movs	r1, #99
 4224 0998 FFF7FEFF 		bl	set_imagen
1018:.\main.c      ****                         flujo_LCD1 = 1;
 4225              		.loc 1 1018 0
 4226 099c 074B     		ldr	r3, .L651+4
 4227 099e 0122     		movs	r2, #1
 4228 09a0 1A70     		strb	r2, [r3]
1019:.\main.c      ****                     break;
 4229              		.loc 1 1019 0
 4230 09a2 00BF     		nop
 4231              	.L191:
1020:.\main.c      ****                 }
1021:.\main.c      ****             }
1022:.\main.c      ****             CyDelay(100);
 4232              		.loc 1 1022 0
 4233 09a4 6420     		movs	r0, #100
 4234 09a6 FFF7FEFF 		bl	CyDelay
1023:.\main.c      ****             LCD_1_ClearRxBuffer();
 4235              		.loc 1 1023 0
 4236 09aa FFF7FEFF 		bl	LCD_1_ClearRxBuffer
1024:.\main.c      ****         }        
1025:.\main.c      ****         break;    
 4237              		.loc 1 1025 0
 4238 09ae 03F0CBBF 		b	.L115
 4239              	.L190:
 4240              		.loc 1 1025 0 is_stmt 0 discriminator 5
 4241 09b2 03F0C9BF 		b	.L115
 4242              	.L652:
 4243 09b6 00BF     		.align	2
 4244              	.L651:
 4245 09b8 00000000 		.word	rf_mod
 4246 09bc 00000000 		.word	flujo_LCD1
 4247 09c0 00000000 		.word	lado1
 4248 09c4 00000000 		.word	seleccion_pos
 4249 09c8 00000000 		.word	lado2
 4250 09cc 00000000 		.word	LCD_1_rxBuffer
 4251 09d0 00000000 		.word	tipo_venta
 4252 09d4 00000000 		.word	id_teclado1
 4253              	.L122:
1026:.\main.c      ****             
1027:.\main.c      ****         case 4:
ARM GAS  C:\Users\RECEPC~1\AppData\Local\Temp\ccVIJn7M.s 			page 96


1028:.\main.c      ****          if(LCD_1_GetRxBufferSize()==8){
 4254              		.loc 1 1028 0 is_stmt 1
 4255 09d8 FFF7FEFF 		bl	LCD_1_GetRxBufferSize
 4256 09dc 0346     		mov	r3, r0
 4257 09de 082B     		cmp	r3, #8
 4258 09e0 40F0DE81 		bne	.L197
1029:.\main.c      ****             if((LCD_1_rxBuffer[0]==0xAA) && (LCD_1_rxBuffer[6]==0xC3) && (LCD_1_rxBuffer[7]==0x3C))
 4259              		.loc 1 1029 0
 4260 09e4 BD4B     		ldr	r3, .L653
 4261 09e6 1B78     		ldrb	r3, [r3]
 4262 09e8 DBB2     		uxtb	r3, r3
 4263 09ea AA2B     		cmp	r3, #170
 4264 09ec 40F0D181 		bne	.L198
 4265              		.loc 1 1029 0 is_stmt 0 discriminator 1
 4266 09f0 BA4B     		ldr	r3, .L653
 4267 09f2 9B79     		ldrb	r3, [r3, #6]
 4268 09f4 DBB2     		uxtb	r3, r3
 4269 09f6 C32B     		cmp	r3, #195
 4270 09f8 40F0CB81 		bne	.L198
 4271              		.loc 1 1029 0 discriminator 2
 4272 09fc B74B     		ldr	r3, .L653
 4273 09fe DB79     		ldrb	r3, [r3, #7]
 4274 0a00 DBB2     		uxtb	r3, r3
 4275 0a02 3C2B     		cmp	r3, #60
 4276 0a04 40F0C581 		bne	.L198
1030:.\main.c      ****                 switch(LCD_1_rxBuffer[3]){
 4277              		.loc 1 1030 0 is_stmt 1
 4278 0a08 B44B     		ldr	r3, .L653
 4279 0a0a DB78     		ldrb	r3, [r3, #3]
 4280 0a0c DBB2     		uxtb	r3, r3
 4281 0a0e 3B2B     		cmp	r3, #59
 4282 0a10 00F0B381 		beq	.L199
 4283 0a14 3B2B     		cmp	r3, #59
 4284 0a16 05DC     		bgt	.L200
 4285 0a18 0F2B     		cmp	r3, #15
 4286 0a1a 0AD0     		beq	.L201
 4287 0a1c 102B     		cmp	r3, #16
 4288 0a1e 00F09280 		beq	.L202
 4289 0a22 B6E1     		b	.L198
 4290              	.L200:
 4291 0a24 432B     		cmp	r3, #67
 4292 0a26 00F01881 		beq	.L203
 4293 0a2a 7E2B     		cmp	r3, #126
 4294 0a2c 00F0A981 		beq	.L204
 4295 0a30 AFE1     		b	.L198
 4296              	.L201:
1031:.\main.c      ****                     case 0x0F:                               	//$
1032:.\main.c      ****                     if(seleccion_pos == 1){
 4297              		.loc 1 1032 0
 4298 0a32 AB4B     		ldr	r3, .L653+4
 4299 0a34 1B78     		ldrb	r3, [r3]
 4300 0a36 DBB2     		uxtb	r3, r3
 4301 0a38 012B     		cmp	r3, #1
 4302 0a3a 3ED1     		bne	.L205
1033:.\main.c      **** 					  for(x=0;x<=7;x++){
 4303              		.loc 1 1033 0
 4304 0a3c 0023     		movs	r3, #0
ARM GAS  C:\Users\RECEPC~1\AppData\Local\Temp\ccVIJn7M.s 			page 97


 4305 0a3e 87F82F30 		strb	r3, [r7, #47]
 4306 0a42 0AE0     		b	.L206
 4307              	.L207:
1034:.\main.c      **** 					 	rventa1.preset[x]=0;
 4308              		.loc 1 1034 0 discriminator 3
 4309 0a44 97F82F30 		ldrb	r3, [r7, #47]	@ zero_extendqisi2
 4310 0a48 A64A     		ldr	r2, .L653+8
 4311 0a4a 1344     		add	r3, r3, r2
 4312 0a4c 0022     		movs	r2, #0
 4313 0a4e DA76     		strb	r2, [r3, #27]
1033:.\main.c      **** 					  for(x=0;x<=7;x++){
 4314              		.loc 1 1033 0 discriminator 3
 4315 0a50 97F82F30 		ldrb	r3, [r7, #47]	@ zero_extendqisi2
 4316 0a54 0133     		adds	r3, r3, #1
 4317 0a56 87F82F30 		strb	r3, [r7, #47]
 4318              	.L206:
1033:.\main.c      **** 					  for(x=0;x<=7;x++){
 4319              		.loc 1 1033 0 is_stmt 0 discriminator 1
 4320 0a5a 97F82F30 		ldrb	r3, [r7, #47]	@ zero_extendqisi2
 4321 0a5e 072B     		cmp	r3, #7
 4322 0a60 F0D9     		bls	.L207
1035:.\main.c      **** 					  }					                      
1036:.\main.c      **** 					  count_teclas1=0;							//Inicia el contador de teclas	
 4323              		.loc 1 1036 0 is_stmt 1
 4324 0a62 A14B     		ldr	r3, .L653+12
 4325 0a64 0022     		movs	r2, #0
 4326 0a66 1A70     		strb	r2, [r3]
1037:.\main.c      **** 					  id_teclado1=1;
 4327              		.loc 1 1037 0
 4328 0a68 A04B     		ldr	r3, .L653+16
 4329 0a6a 0122     		movs	r2, #1
 4330 0a6c 1A70     		strb	r2, [r3]
1038:.\main.c      **** 					  id_coma1=',';	
 4331              		.loc 1 1038 0
 4332 0a6e A04B     		ldr	r3, .L653+20
 4333 0a70 2C22     		movs	r2, #44
 4334 0a72 1A70     		strb	r2, [r3]
1039:.\main.c      ****                       teclas1=version[1]; 						//cantidad de teclas q puede digitar
 4335              		.loc 1 1039 0
 4336 0a74 9F4B     		ldr	r3, .L653+24
 4337 0a76 5B78     		ldrb	r3, [r3, #1]
 4338 0a78 DAB2     		uxtb	r2, r3
 4339 0a7a 9F4B     		ldr	r3, .L653+28
 4340 0a7c 1A70     		strb	r2, [r3]
1040:.\main.c      **** 					  rventa1.preset[0]=1;
 4341              		.loc 1 1040 0
 4342 0a7e 994B     		ldr	r3, .L653+8
 4343 0a80 0122     		movs	r2, #1
 4344 0a82 DA76     		strb	r2, [r3, #27]
1041:.\main.c      ****                       comas1=0;									
 4345              		.loc 1 1041 0
 4346 0a84 9D4B     		ldr	r3, .L653+32
 4347 0a86 0022     		movs	r2, #0
 4348 0a88 1A70     		strb	r2, [r3]
1042:.\main.c      ****                       set_imagen(1,6); 
 4349              		.loc 1 1042 0
 4350 0a8a 0120     		movs	r0, #1
ARM GAS  C:\Users\RECEPC~1\AppData\Local\Temp\ccVIJn7M.s 			page 98


 4351 0a8c 0621     		movs	r1, #6
 4352 0a8e FFF7FEFF 		bl	set_imagen
1043:.\main.c      **** 					  posx1=4;
 4353              		.loc 1 1043 0
 4354 0a92 9B4B     		ldr	r3, .L653+36
 4355 0a94 0422     		movs	r2, #4
 4356 0a96 1A80     		strh	r2, [r3]	@ movhi
1044:.\main.c      **** 					  posy1=3;
 4357              		.loc 1 1044 0
 4358 0a98 9A4B     		ldr	r3, .L653+40
 4359 0a9a 0322     		movs	r2, #3
 4360 0a9c 1A80     		strh	r2, [r3]	@ movhi
1045:.\main.c      **** 					  sizeletra1=1;	
 4361              		.loc 1 1045 0
 4362 0a9e 9A4B     		ldr	r3, .L653+44
 4363 0aa0 0122     		movs	r2, #1
 4364 0aa2 1A80     		strh	r2, [r3]	@ movhi
1046:.\main.c      **** 					  write_LCD(1,'$', 3, 4, 1);
 4365              		.loc 1 1046 0
 4366 0aa4 0123     		movs	r3, #1
 4367 0aa6 0093     		str	r3, [sp]
 4368 0aa8 0120     		movs	r0, #1
 4369 0aaa 2421     		movs	r1, #36
 4370 0aac 0322     		movs	r2, #3
 4371 0aae 0423     		movs	r3, #4
 4372 0ab0 FFF7FEFF 		bl	write_LCD
1047:.\main.c      ****                       flujo_LCD1 = 12; 
 4373              		.loc 1 1047 0
 4374 0ab4 954B     		ldr	r3, .L653+48
 4375 0ab6 0C22     		movs	r2, #12
 4376 0ab8 1A70     		strb	r2, [r3]
 4377              	.L205:
1048:.\main.c      ****                     }
1049:.\main.c      ****                     if(seleccion_pos == 2){
 4378              		.loc 1 1049 0
 4379 0aba 894B     		ldr	r3, .L653+4
 4380 0abc 1B78     		ldrb	r3, [r3]
 4381 0abe DBB2     		uxtb	r3, r3
 4382 0ac0 022B     		cmp	r3, #2
 4383 0ac2 3FD1     		bne	.L208
1050:.\main.c      **** 					  for(x=0;x<=7;x++){
 4384              		.loc 1 1050 0
 4385 0ac4 0023     		movs	r3, #0
 4386 0ac6 87F82F30 		strb	r3, [r7, #47]
 4387 0aca 0AE0     		b	.L209
 4388              	.L210:
1051:.\main.c      **** 					 	rventa2.preset[x]=0;
 4389              		.loc 1 1051 0 discriminator 3
 4390 0acc 97F82F30 		ldrb	r3, [r7, #47]	@ zero_extendqisi2
 4391 0ad0 8F4A     		ldr	r2, .L653+52
 4392 0ad2 1344     		add	r3, r3, r2
 4393 0ad4 0022     		movs	r2, #0
 4394 0ad6 DA76     		strb	r2, [r3, #27]
1050:.\main.c      **** 					  for(x=0;x<=7;x++){
 4395              		.loc 1 1050 0 discriminator 3
 4396 0ad8 97F82F30 		ldrb	r3, [r7, #47]	@ zero_extendqisi2
 4397 0adc 0133     		adds	r3, r3, #1
ARM GAS  C:\Users\RECEPC~1\AppData\Local\Temp\ccVIJn7M.s 			page 99


 4398 0ade 87F82F30 		strb	r3, [r7, #47]
 4399              	.L209:
1050:.\main.c      **** 					  for(x=0;x<=7;x++){
 4400              		.loc 1 1050 0 is_stmt 0 discriminator 1
 4401 0ae2 97F82F30 		ldrb	r3, [r7, #47]	@ zero_extendqisi2
 4402 0ae6 072B     		cmp	r3, #7
 4403 0ae8 F0D9     		bls	.L210
1052:.\main.c      **** 					  }					                      
1053:.\main.c      **** 					  count_teclas1=0;							//Inicia el contador de teclas	
 4404              		.loc 1 1053 0 is_stmt 1
 4405 0aea 7F4B     		ldr	r3, .L653+12
 4406 0aec 0022     		movs	r2, #0
 4407 0aee 1A70     		strb	r2, [r3]
1054:.\main.c      **** 					  id_teclado1=1;
 4408              		.loc 1 1054 0
 4409 0af0 7E4B     		ldr	r3, .L653+16
 4410 0af2 0122     		movs	r2, #1
 4411 0af4 1A70     		strb	r2, [r3]
1055:.\main.c      **** 					  id_coma1=',';	
 4412              		.loc 1 1055 0
 4413 0af6 7E4B     		ldr	r3, .L653+20
 4414 0af8 2C22     		movs	r2, #44
 4415 0afa 1A70     		strb	r2, [r3]
1056:.\main.c      ****                       teclas1=version[1]; 						//cantidad de teclas q puede digitar
 4416              		.loc 1 1056 0
 4417 0afc 7D4B     		ldr	r3, .L653+24
 4418 0afe 5B78     		ldrb	r3, [r3, #1]
 4419 0b00 DAB2     		uxtb	r2, r3
 4420 0b02 7D4B     		ldr	r3, .L653+28
 4421 0b04 1A70     		strb	r2, [r3]
1057:.\main.c      **** 					  rventa2.preset[0]=1;
 4422              		.loc 1 1057 0
 4423 0b06 824B     		ldr	r3, .L653+52
 4424 0b08 0122     		movs	r2, #1
 4425 0b0a DA76     		strb	r2, [r3, #27]
1058:.\main.c      ****                       comas1=0;									
 4426              		.loc 1 1058 0
 4427 0b0c 7B4B     		ldr	r3, .L653+32
 4428 0b0e 0022     		movs	r2, #0
 4429 0b10 1A70     		strb	r2, [r3]
1059:.\main.c      ****                       set_imagen(1,6); 
 4430              		.loc 1 1059 0
 4431 0b12 0120     		movs	r0, #1
 4432 0b14 0621     		movs	r1, #6
 4433 0b16 FFF7FEFF 		bl	set_imagen
1060:.\main.c      **** 					  posx1=4;
 4434              		.loc 1 1060 0
 4435 0b1a 794B     		ldr	r3, .L653+36
 4436 0b1c 0422     		movs	r2, #4
 4437 0b1e 1A80     		strh	r2, [r3]	@ movhi
1061:.\main.c      **** 					  posy1=3;
 4438              		.loc 1 1061 0
 4439 0b20 784B     		ldr	r3, .L653+40
 4440 0b22 0322     		movs	r2, #3
 4441 0b24 1A80     		strh	r2, [r3]	@ movhi
1062:.\main.c      **** 					  sizeletra1=1;	
 4442              		.loc 1 1062 0
ARM GAS  C:\Users\RECEPC~1\AppData\Local\Temp\ccVIJn7M.s 			page 100


 4443 0b26 784B     		ldr	r3, .L653+44
 4444 0b28 0122     		movs	r2, #1
 4445 0b2a 1A80     		strh	r2, [r3]	@ movhi
1063:.\main.c      **** 					  write_LCD(1,'$', 3, 4, 1);
 4446              		.loc 1 1063 0
 4447 0b2c 0123     		movs	r3, #1
 4448 0b2e 0093     		str	r3, [sp]
 4449 0b30 0120     		movs	r0, #1
 4450 0b32 2421     		movs	r1, #36
 4451 0b34 0322     		movs	r2, #3
 4452 0b36 0423     		movs	r3, #4
 4453 0b38 FFF7FEFF 		bl	write_LCD
1064:.\main.c      ****                       flujo_LCD1 = 12; 
 4454              		.loc 1 1064 0
 4455 0b3c 734B     		ldr	r3, .L653+48
 4456 0b3e 0C22     		movs	r2, #12
 4457 0b40 1A70     		strb	r2, [r3]
1065:.\main.c      ****                     }
1066:.\main.c      ****                     break;
 4458              		.loc 1 1066 0
 4459 0b42 26E1     		b	.L198
 4460              	.L208:
 4461 0b44 25E1     		b	.L198
 4462              	.L202:
1067:.\main.c      ****                     
1068:.\main.c      ****                     case 0x10: 									//L 
1069:.\main.c      ****                     if(seleccion_pos == 1){
 4463              		.loc 1 1069 0
 4464 0b46 664B     		ldr	r3, .L653+4
 4465 0b48 1B78     		ldrb	r3, [r3]
 4466 0b4a DBB2     		uxtb	r3, r3
 4467 0b4c 012B     		cmp	r3, #1
 4468 0b4e 3ED1     		bne	.L211
1070:.\main.c      **** 					  for(x=0;x<=7;x++){
 4469              		.loc 1 1070 0
 4470 0b50 0023     		movs	r3, #0
 4471 0b52 87F82F30 		strb	r3, [r7, #47]
 4472 0b56 0AE0     		b	.L212
 4473              	.L213:
1071:.\main.c      **** 					 	rventa1.preset[x]=0;
 4474              		.loc 1 1071 0 discriminator 3
 4475 0b58 97F82F30 		ldrb	r3, [r7, #47]	@ zero_extendqisi2
 4476 0b5c 614A     		ldr	r2, .L653+8
 4477 0b5e 1344     		add	r3, r3, r2
 4478 0b60 0022     		movs	r2, #0
 4479 0b62 DA76     		strb	r2, [r3, #27]
1070:.\main.c      **** 					  for(x=0;x<=7;x++){
 4480              		.loc 1 1070 0 discriminator 3
 4481 0b64 97F82F30 		ldrb	r3, [r7, #47]	@ zero_extendqisi2
 4482 0b68 0133     		adds	r3, r3, #1
 4483 0b6a 87F82F30 		strb	r3, [r7, #47]
 4484              	.L212:
1070:.\main.c      **** 					  for(x=0;x<=7;x++){
 4485              		.loc 1 1070 0 is_stmt 0 discriminator 1
 4486 0b6e 97F82F30 		ldrb	r3, [r7, #47]	@ zero_extendqisi2
 4487 0b72 072B     		cmp	r3, #7
 4488 0b74 F0D9     		bls	.L213
ARM GAS  C:\Users\RECEPC~1\AppData\Local\Temp\ccVIJn7M.s 			page 101


1072:.\main.c      **** 					  }						                      
1073:.\main.c      **** 					  count_teclas1=0;							//Inicia el contador de teclas	
 4489              		.loc 1 1073 0 is_stmt 1
 4490 0b76 5C4B     		ldr	r3, .L653+12
 4491 0b78 0022     		movs	r2, #0
 4492 0b7a 1A70     		strb	r2, [r3]
1074:.\main.c      **** 					  id_teclado1=1;
 4493              		.loc 1 1074 0
 4494 0b7c 5B4B     		ldr	r3, .L653+16
 4495 0b7e 0122     		movs	r2, #1
 4496 0b80 1A70     		strb	r2, [r3]
1075:.\main.c      **** 					  id_coma1=',';	
 4497              		.loc 1 1075 0
 4498 0b82 5B4B     		ldr	r3, .L653+20
 4499 0b84 2C22     		movs	r2, #44
 4500 0b86 1A70     		strb	r2, [r3]
1076:.\main.c      ****                       teclas1=version[1]; 
 4501              		.loc 1 1076 0
 4502 0b88 5A4B     		ldr	r3, .L653+24
 4503 0b8a 5B78     		ldrb	r3, [r3, #1]
 4504 0b8c DAB2     		uxtb	r2, r3
 4505 0b8e 5A4B     		ldr	r3, .L653+28
 4506 0b90 1A70     		strb	r2, [r3]
1077:.\main.c      **** 					  rventa1.preset[0]=2;
 4507              		.loc 1 1077 0
 4508 0b92 544B     		ldr	r3, .L653+8
 4509 0b94 0222     		movs	r2, #2
 4510 0b96 DA76     		strb	r2, [r3, #27]
1078:.\main.c      ****                       comas1=0;									
 4511              		.loc 1 1078 0
 4512 0b98 584B     		ldr	r3, .L653+32
 4513 0b9a 0022     		movs	r2, #0
 4514 0b9c 1A70     		strb	r2, [r3]
1079:.\main.c      ****                       set_imagen(1,13); 
 4515              		.loc 1 1079 0
 4516 0b9e 0120     		movs	r0, #1
 4517 0ba0 0D21     		movs	r1, #13
 4518 0ba2 FFF7FEFF 		bl	set_imagen
1080:.\main.c      **** 					  posx1=4;
 4519              		.loc 1 1080 0
 4520 0ba6 564B     		ldr	r3, .L653+36
 4521 0ba8 0422     		movs	r2, #4
 4522 0baa 1A80     		strh	r2, [r3]	@ movhi
1081:.\main.c      **** 					  posy1=3;
 4523              		.loc 1 1081 0
 4524 0bac 554B     		ldr	r3, .L653+40
 4525 0bae 0322     		movs	r2, #3
 4526 0bb0 1A80     		strh	r2, [r3]	@ movhi
1082:.\main.c      **** 					  sizeletra1=1;					
 4527              		.loc 1 1082 0
 4528 0bb2 554B     		ldr	r3, .L653+44
 4529 0bb4 0122     		movs	r2, #1
 4530 0bb6 1A80     		strh	r2, [r3]	@ movhi
1083:.\main.c      **** 					  write_LCD(1,'L', 3, 4, 1);
 4531              		.loc 1 1083 0
 4532 0bb8 0123     		movs	r3, #1
 4533 0bba 0093     		str	r3, [sp]
ARM GAS  C:\Users\RECEPC~1\AppData\Local\Temp\ccVIJn7M.s 			page 102


 4534 0bbc 0120     		movs	r0, #1
 4535 0bbe 4C21     		movs	r1, #76
 4536 0bc0 0322     		movs	r2, #3
 4537 0bc2 0423     		movs	r3, #4
 4538 0bc4 FFF7FEFF 		bl	write_LCD
1084:.\main.c      ****                       flujo_LCD1=12; 
 4539              		.loc 1 1084 0
 4540 0bc8 504B     		ldr	r3, .L653+48
 4541 0bca 0C22     		movs	r2, #12
 4542 0bcc 1A70     		strb	r2, [r3]
 4543              	.L211:
1085:.\main.c      ****                     }
1086:.\main.c      ****                     if(seleccion_pos == 2){
 4544              		.loc 1 1086 0
 4545 0bce 444B     		ldr	r3, .L653+4
 4546 0bd0 1B78     		ldrb	r3, [r3]
 4547 0bd2 DBB2     		uxtb	r3, r3
 4548 0bd4 022B     		cmp	r3, #2
 4549 0bd6 3FD1     		bne	.L214
1087:.\main.c      **** 					  for(x=0;x<=7;x++){
 4550              		.loc 1 1087 0
 4551 0bd8 0023     		movs	r3, #0
 4552 0bda 87F82F30 		strb	r3, [r7, #47]
 4553 0bde 0AE0     		b	.L215
 4554              	.L216:
1088:.\main.c      **** 					 	rventa1.preset[x]=0;
 4555              		.loc 1 1088 0 discriminator 3
 4556 0be0 97F82F30 		ldrb	r3, [r7, #47]	@ zero_extendqisi2
 4557 0be4 3F4A     		ldr	r2, .L653+8
 4558 0be6 1344     		add	r3, r3, r2
 4559 0be8 0022     		movs	r2, #0
 4560 0bea DA76     		strb	r2, [r3, #27]
1087:.\main.c      **** 					  for(x=0;x<=7;x++){
 4561              		.loc 1 1087 0 discriminator 3
 4562 0bec 97F82F30 		ldrb	r3, [r7, #47]	@ zero_extendqisi2
 4563 0bf0 0133     		adds	r3, r3, #1
 4564 0bf2 87F82F30 		strb	r3, [r7, #47]
 4565              	.L215:
1087:.\main.c      **** 					  for(x=0;x<=7;x++){
 4566              		.loc 1 1087 0 is_stmt 0 discriminator 1
 4567 0bf6 97F82F30 		ldrb	r3, [r7, #47]	@ zero_extendqisi2
 4568 0bfa 072B     		cmp	r3, #7
 4569 0bfc F0D9     		bls	.L216
1089:.\main.c      **** 					  }						                      
1090:.\main.c      **** 					  count_teclas1=0;							//Inicia el contador de teclas	
 4570              		.loc 1 1090 0 is_stmt 1
 4571 0bfe 3A4B     		ldr	r3, .L653+12
 4572 0c00 0022     		movs	r2, #0
 4573 0c02 1A70     		strb	r2, [r3]
1091:.\main.c      **** 					  id_teclado1=1;
 4574              		.loc 1 1091 0
 4575 0c04 394B     		ldr	r3, .L653+16
 4576 0c06 0122     		movs	r2, #1
 4577 0c08 1A70     		strb	r2, [r3]
1092:.\main.c      **** 					  id_coma1=',';	
 4578              		.loc 1 1092 0
 4579 0c0a 394B     		ldr	r3, .L653+20
ARM GAS  C:\Users\RECEPC~1\AppData\Local\Temp\ccVIJn7M.s 			page 103


 4580 0c0c 2C22     		movs	r2, #44
 4581 0c0e 1A70     		strb	r2, [r3]
1093:.\main.c      ****                       teclas1=version[1]; 
 4582              		.loc 1 1093 0
 4583 0c10 384B     		ldr	r3, .L653+24
 4584 0c12 5B78     		ldrb	r3, [r3, #1]
 4585 0c14 DAB2     		uxtb	r2, r3
 4586 0c16 384B     		ldr	r3, .L653+28
 4587 0c18 1A70     		strb	r2, [r3]
1094:.\main.c      **** 					  rventa2.preset[0]=2;
 4588              		.loc 1 1094 0
 4589 0c1a 3D4B     		ldr	r3, .L653+52
 4590 0c1c 0222     		movs	r2, #2
 4591 0c1e DA76     		strb	r2, [r3, #27]
1095:.\main.c      ****                       comas1=0;									
 4592              		.loc 1 1095 0
 4593 0c20 364B     		ldr	r3, .L653+32
 4594 0c22 0022     		movs	r2, #0
 4595 0c24 1A70     		strb	r2, [r3]
1096:.\main.c      ****                       set_imagen(1,13); 
 4596              		.loc 1 1096 0
 4597 0c26 0120     		movs	r0, #1
 4598 0c28 0D21     		movs	r1, #13
 4599 0c2a FFF7FEFF 		bl	set_imagen
1097:.\main.c      **** 					  posx1=4;
 4600              		.loc 1 1097 0
 4601 0c2e 344B     		ldr	r3, .L653+36
 4602 0c30 0422     		movs	r2, #4
 4603 0c32 1A80     		strh	r2, [r3]	@ movhi
1098:.\main.c      **** 					  posy1=3;
 4604              		.loc 1 1098 0
 4605 0c34 334B     		ldr	r3, .L653+40
 4606 0c36 0322     		movs	r2, #3
 4607 0c38 1A80     		strh	r2, [r3]	@ movhi
1099:.\main.c      **** 					  sizeletra1=1;					
 4608              		.loc 1 1099 0
 4609 0c3a 334B     		ldr	r3, .L653+44
 4610 0c3c 0122     		movs	r2, #1
 4611 0c3e 1A80     		strh	r2, [r3]	@ movhi
1100:.\main.c      **** 					  write_LCD(1,'L', 3, 4, 1);
 4612              		.loc 1 1100 0
 4613 0c40 0123     		movs	r3, #1
 4614 0c42 0093     		str	r3, [sp]
 4615 0c44 0120     		movs	r0, #1
 4616 0c46 4C21     		movs	r1, #76
 4617 0c48 0322     		movs	r2, #3
 4618 0c4a 0423     		movs	r3, #4
 4619 0c4c FFF7FEFF 		bl	write_LCD
1101:.\main.c      ****                       flujo_LCD1=12; 
 4620              		.loc 1 1101 0
 4621 0c50 2E4B     		ldr	r3, .L653+48
 4622 0c52 0C22     		movs	r2, #12
 4623 0c54 1A70     		strb	r2, [r3]
1102:.\main.c      ****                     }
1103:.\main.c      ****                     break;
 4624              		.loc 1 1103 0
 4625 0c56 9CE0     		b	.L198
ARM GAS  C:\Users\RECEPC~1\AppData\Local\Temp\ccVIJn7M.s 			page 104


 4626              	.L214:
 4627 0c58 9BE0     		b	.L198
 4628              	.L203:
1104:.\main.c      ****                     
1105:.\main.c      ****                     case 0x43:  								//Full 
1106:.\main.c      ****                     if(seleccion_pos == 1){
 4629              		.loc 1 1106 0
 4630 0c5a 214B     		ldr	r3, .L653+4
 4631 0c5c 1B78     		ldrb	r3, [r3]
