ARM GAS  C:\Users\RECEPC~1\AppData\Local\Temp\cc8qeTl3.s 			page 1


   1              		.syntax unified
   2              		.cpu cortex-m3
   3              		.fpu softvfp
   4              		.eabi_attribute 20, 1
   5              		.eabi_attribute 21, 1
   6              		.eabi_attribute 23, 3
   7              		.eabi_attribute 24, 1
   8              		.eabi_attribute 25, 1
   9              		.eabi_attribute 26, 1
  10              		.eabi_attribute 30, 6
  11              		.eabi_attribute 34, 1
  12              		.eabi_attribute 18, 4
  13              		.thumb
  14              		.file	"main.c"
  15              		.text
  16              	.Ltext0:
  17              		.cfi_sections	.debug_frame
  18              		.comm	count_teclas1,1,1
  19              		.comm	comas1,1,1
  20              		.comm	comas2,1,1
  21              		.comm	id_coma1,1,1
  22              		.comm	id_teclado1,1,1
  23              		.comm	count_teclas2,1,1
  24              		.comm	id_coma2,1,1
  25              		.comm	id_teclado2,1,1
  26              		.comm	posx1,2,2
  27              		.comm	posy1,2,2
  28              		.comm	sizeletra1,2,2
  29              		.comm	posx2,2,2
  30              		.comm	posy2,2,2
  31              		.comm	sizeletra2,2,2
  32              		.comm	teclas1,1,1
  33              		.comm	teclas2,1,1
  34              		.comm	flujo_LCD1,1,1
  35              		.comm	flujo_LCD2,1,1
  36              		.comm	flujo_pos1,1,1
  37              		.comm	flujo_pos2,1,1
  38              		.comm	seleccion_pos,1,1
  39              		.comm	flujo_pos,1,1
  40              		.comm	venta_activa,1,1
  41              		.comm	venta_activa2,1,1
  42              		.comm	Buffer_LCD1,30,4
  43              		.comm	Buffer_LCD2,30,4
  44              		.comm	count_protector,1,1
  45              		.comm	count_protector2,1,1
  46              		.comm	password_lcd,9,4
  47              		.comm	imagen_grado,2,2
  48              		.comm	prox_caso,8,4
  49              		.comm	bloqueo_LCD,3,4
  50              		.comm	id_estacion,5,4
  51              		.comm	id_venta,8,4
  52              		.comm	trama_totales,200,4
  53              		.comm	ppux10,1,1
  54              		.comm	nombre_pro1,17,4
  55              		.comm	nombre_pro2,17,4
  56              		.comm	nombre_pro3,17,4
  57              		.comm	version,4,4
ARM GAS  C:\Users\RECEPC~1\AppData\Local\Temp\cc8qeTl3.s 			page 2


  58              		.comm	lado1,93,4
  59              		.comm	lado2,93,4
  60              		.comm	nombre,33,4
  61              		.comm	nit,15,4
  62              		.comm	telefono,20,4
  63              		.comm	direccion,33,4
  64              		.comm	lema1,32,4
  65              		.comm	lema2,32,4
  66              		.comm	id_logo,2,4
  67              		.comm	km,2,4
  68              		.comm	fecha,3,4
  69              		.comm	hora,2,4
  70              		.comm	rventa1,118,4
  71              		.comm	rventa2,118,4
  72              		.comm	ok_RF,1,1
  73              		.comm	ok_datosRF,1,1
  74              		.comm	rf_mod,200,4
  75              		.comm	buffer_i2c,64,4
  76              		.comm	crc_total,1,1
  77              		.comm	print1,2,4
  78              		.comm	print2,2,4
  79              		.comm	tipo_venta,1,1
  80              		.global	letras
  81              		.data
  82              		.align	2
  83              		.type	letras, %object
  84              		.size	letras, 26
  85              	letras:
  86 0000 25       		.byte	37
  87 0001 42       		.byte	66
  88 0002 31       		.byte	49
  89 0003 27       		.byte	39
  90 0004 1D       		.byte	29
  91 0005 28       		.byte	40
  92 0006 29       		.byte	41
  93 0007 2A       		.byte	42
  94 0008 22       		.byte	34
  95 0009 2B       		.byte	43
  96 000a 2C       		.byte	44
  97 000b 2D       		.byte	45
  98 000c 35       		.byte	53
  99 000d 34       		.byte	52
 100 000e 23       		.byte	35
 101 000f 24       		.byte	36
 102 0010 1B       		.byte	27
 103 0011 1E       		.byte	30
 104 0012 26       		.byte	38
 105 0013 1F       		.byte	31
 106 0014 21       		.byte	33
 107 0015 32       		.byte	50
 108 0016 1C       		.byte	28
 109 0017 30       		.byte	48
 110 0018 20       		.byte	32
 111 0019 2F       		.byte	47
 112              		.global	clave_config
 113 001a 0000     		.align	2
 114              		.type	clave_config, %object
ARM GAS  C:\Users\RECEPC~1\AppData\Local\Temp\cc8qeTl3.s 			page 3


 115              		.size	clave_config, 5
 116              	clave_config:
 117 001c 30323431 		.ascii	"02412"
 117      32
 118              		.global	test
 119 0021 000000   		.align	2
 120              		.type	test, %object
 121              		.size	test, 18
 122              	test:
 123 0024 54657374 		.ascii	"Test de Impresora\000"
 123      20646520 
 123      496D7072 
 123      65736F72 
 123      6100
 124              		.comm	num_decimal2,2,2
 125              		.comm	idaux,8,4
 126              		.comm	state_rf,1,1
 127              		.comm	timeout_autorizacion,2,2
 128              		.comm	estado_tanqueando,1,1
 129              		.global	consulta_sistema
 130              		.type	consulta_sistema, %object
 131              		.size	consulta_sistema, 1
 132              	consulta_sistema:
 133 0036 01       		.byte	1
 134              		.global	clave_local
 135 0037 00       		.align	2
 136              		.type	clave_local, %object
 137              		.size	clave_local, 4
 138              	clave_local:
 139 0038 39       		.byte	57
 140 0039 36       		.byte	54
 141 003a 33       		.byte	51
 142 003b 31       		.byte	49
 143              		.comm	v_digitos_1,1,1
 144              		.global	ppuinicial
 145              		.bss
 146              		.type	ppuinicial, %object
 147              		.size	ppuinicial, 1
 148              	ppuinicial:
 149 0000 00       		.space	1
 150              		.comm	Producto,1,1
 151              		.comm	Productos,4,4
 152              		.global	producto1
 153              		.data
 154              		.type	producto1, %object
 155              		.size	producto1, 1
 156              	producto1:
 157 003c 01       		.byte	1
 158              		.global	producto2
 159              		.type	producto2, %object
 160              		.size	producto2, 1
 161              	producto2:
 162 003d 01       		.byte	1
 163              		.global	producto3
 164              		.type	producto3, %object
 165              		.size	producto3, 1
 166              	producto3:
ARM GAS  C:\Users\RECEPC~1\AppData\Local\Temp\cc8qeTl3.s 			page 4


 167 003e 01       		.byte	1
 168              		.global	producto4
 169              		.type	producto4, %object
 170              		.size	producto4, 1
 171              	producto4:
 172 003f 01       		.byte	1
 173              		.comm	status1LP,1,1
 174              		.comm	status2LP,1,1
 175              		.comm	status1st,1,1
 176              		.comm	status2st,1,1
 177              		.section	.text.init,"ax",%progbits
 178              		.align	2
 179              		.global	init
 180              		.thumb
 181              		.thumb_func
 182              		.type	init, %function
 183              	init:
 184              	.LFB63:
 185              		.file 1 ".\\main.c"
   1:.\main.c      **** /*
   2:.\main.c      **** ***************************************************************************************************
   3:.\main.c      **** *                                           GRP550M CODE2
   4:.\main.c      **** *
   5:.\main.c      **** *                             (c) Copyright 2013; Sistemas Insepet LTDA
   6:.\main.c      **** *
   7:.\main.c      **** *               All rights reserved.  Protected by international copyright laws.
   8:.\main.c      **** *               Knowledge of the source code may NOT be used to develop a similar product.
   9:.\main.c      **** *               Please help us continue to provide the Embedded community with the finest
  10:.\main.c      **** *               software available.  Your honesty is greatly appreciated.
  11:.\main.c      **** ***************************************************************************************************
  12:.\main.c      **** */
  13:.\main.c      **** 
  14:.\main.c      **** /*
  15:.\main.c      **** ***************************************************************************************************
  16:.\main.c      **** *
  17:.\main.c      **** *                                               GRP550M CODE
  18:.\main.c      **** *
  19:.\main.c      **** *                                             CYPRESS PSoC5LP
  20:.\main.c      **** *                                                with the
  21:.\main.c      **** *                                            CY8C5969AXI-LP035
  22:.\main.c      **** *
  23:.\main.c      **** * Filename      : main.c
  24:.\main.c      **** * Version       : V2.00
  25:.\main.c      **** * Programmer(s) : 
  26:.\main.c      ****                   
  27:.\main.c      **** ***************************************************************************************************
  28:.\main.c      **** */
  29:.\main.c      **** 
  30:.\main.c      **** /*
  31:.\main.c      **** ***************************************************************************************************
  32:.\main.c      **** *                                             INCLUDE FILES
  33:.\main.c      **** ***************************************************************************************************
  34:.\main.c      **** */
  35:.\main.c      **** 
  36:.\main.c      **** #include <device.h>
  37:.\main.c      **** #include <math.h>
  38:.\main.c      **** #include <stdio.h>
ARM GAS  C:\Users\RECEPC~1\AppData\Local\Temp\cc8qeTl3.s 			page 5


  39:.\main.c      **** #include <stdlib.h>
  40:.\main.c      **** #include <string.h>
  41:.\main.c      **** #include "Protocolo.h"
  42:.\main.c      **** #include "VariablesG.h"
  43:.\main.c      **** #include "Print.h"
  44:.\main.c      **** #include "LCD.h"
  45:.\main.c      **** #include "ibutton.h"
  46:.\main.c      **** #include "i2c.h"
  47:.\main.c      **** 
  48:.\main.c      **** /*
  49:.\main.c      **** ***************************************************************************************************
  50:.\main.c      **** *                                             DECLARACION DE FUNCIONES
  51:.\main.c      **** ***************************************************************************************************
  52:.\main.c      **** */
  53:.\main.c      **** uint8 letras[26]={0x25,0x42,0x31,0x27,0x1D,0x28,0x29,0x2A,0x22,0x2B,0x2C,0x2D,0x35,0x34,0x23,0x24,0
  54:.\main.c      **** uint8 clave_config[5]="02412";
  55:.\main.c      **** uint8 test[18]="Test de Impresora";
  56:.\main.c      **** uint16 num_decimal2;
  57:.\main.c      **** CY_ISR(animacion);
  58:.\main.c      **** CY_ISR(animacion2);
  59:.\main.c      **** CY_ISR(modo_mux);
  60:.\main.c      **** uint8  idaux[8];
  61:.\main.c      **** uint8  state_rf;
  62:.\main.c      **** uint16 timeout_autorizacion;
  63:.\main.c      **** uint8  estado_tanqueando; 
  64:.\main.c      **** uint8  consulta_sistema=1;
  65:.\main.c      **** uint8  clave_local[4]={'9','6','3','1'};
  66:.\main.c      **** uint8  v_digitos_1;
  67:.\main.c      **** uint8  ppuinicial=0;
  68:.\main.c      **** uint8  Producto;
  69:.\main.c      **** uint8  Productos[4];// el buffer es para guardar los tipos de combustible
  70:.\main.c      **** uint8  producto1=1,producto2=1,producto3=1,producto4=1;
  71:.\main.c      **** uint8 status1LP,status2LP,status1st,status2st; 
  72:.\main.c      **** 
  73:.\main.c      **** 
  74:.\main.c      **** /*
  75:.\main.c      **** ***************************************************************************************************
  76:.\main.c      **** *                                         init( void )
  77:.\main.c      **** *
  78:.\main.c      **** * Description : 
  79:.\main.c      **** *               
  80:.\main.c      **** *
  81:.\main.c      **** * Argument(s) : none
  82:.\main.c      **** *
  83:.\main.c      **** * Return(s)   : none
  84:.\main.c      **** *
  85:.\main.c      **** * Caller(s)   : 
  86:.\main.c      **** *
  87:.\main.c      **** * Note(s)     : none.
  88:.\main.c      **** ***************************************************************************************************
  89:.\main.c      **** */ 
  90:.\main.c      **** void init(void){
 186              		.loc 1 90 0
 187              		.cfi_startproc
 188              		@ args = 0, pretend = 0, frame = 8
 189              		@ frame_needed = 1, uses_anonymous_args = 0
 190 0000 90B5     		push	{r4, r7, lr}
ARM GAS  C:\Users\RECEPC~1\AppData\Local\Temp\cc8qeTl3.s 			page 6


 191              		.cfi_def_cfa_offset 12
 192              		.cfi_offset 4, -12
 193              		.cfi_offset 7, -8
 194              		.cfi_offset 14, -4
 195 0002 83B0     		sub	sp, sp, #12
 196              		.cfi_def_cfa_offset 24
 197 0004 00AF     		add	r7, sp, #0
 198              		.cfi_def_cfa_register 7
  91:.\main.c      ****     timeout_autorizacion=0;
 199              		.loc 1 91 0
 200 0006 6A4B     		ldr	r3, .L6
 201 0008 0022     		movs	r2, #0
 202 000a 1A80     		strh	r2, [r3]	@ movhi
  92:.\main.c      **** 	uint8 x;
  93:.\main.c      ****     CyGlobalIntEnable;
 203              		.loc 1 93 0
 204              	@ 93 ".\main.c" 1
 205 000c 62B6     		CPSIE   i
 206              	@ 0 "" 2
  94:.\main.c      **** 	PC_Start();
 207              		.loc 1 94 0
 208              		.thumb
 209 000e FFF7FEFF 		bl	PC_Start
  95:.\main.c      ****     I2C_1_Start();
 210              		.loc 1 95 0
 211 0012 FFF7FEFF 		bl	I2C_1_Start
  96:.\main.c      ****     Surtidor_Start();
 212              		.loc 1 96 0
 213 0016 FFF7FEFF 		bl	Surtidor_Start
  97:.\main.c      ****     LCD_1_Start();
 214              		.loc 1 97 0
 215 001a FFF7FEFF 		bl	LCD_1_Start
  98:.\main.c      ****     LCD_2_Start();   	
 216              		.loc 1 98 0
 217 001e FFF7FEFF 		bl	LCD_2_Start
  99:.\main.c      **** 	EEPROM_Start();
 218              		.loc 1 99 0
 219 0022 FFF7FEFF 		bl	EEPROM_Start
 100:.\main.c      **** 
 101:.\main.c      **** 	/***********Iniciacion de variables***************/
 102:.\main.c      **** 	lado1.grado[0][0]=0;
 220              		.loc 1 102 0
 221 0026 634B     		ldr	r3, .L6+4
 222 0028 0022     		movs	r2, #0
 223 002a 83F85920 		strb	r2, [r3, #89]
 103:.\main.c      **** 	lado1.grado[1][0]=0;
 224              		.loc 1 103 0
 225 002e 614B     		ldr	r3, .L6+4
 226 0030 0022     		movs	r2, #0
 227 0032 83F85A20 		strb	r2, [r3, #90]
 104:.\main.c      **** 	lado1.grado[2][0]=0;
 228              		.loc 1 104 0
 229 0036 5F4B     		ldr	r3, .L6+4
 230 0038 0022     		movs	r2, #0
 231 003a 83F85B20 		strb	r2, [r3, #91]
 105:.\main.c      **** 	lado2.grado[0][0]=0;
 232              		.loc 1 105 0
ARM GAS  C:\Users\RECEPC~1\AppData\Local\Temp\cc8qeTl3.s 			page 7


 233 003e 5E4B     		ldr	r3, .L6+8
 234 0040 0022     		movs	r2, #0
 235 0042 83F85920 		strb	r2, [r3, #89]
 106:.\main.c      **** 	lado2.grado[1][0]=0;
 236              		.loc 1 106 0
 237 0046 5C4B     		ldr	r3, .L6+8
 238 0048 0022     		movs	r2, #0
 239 004a 83F85A20 		strb	r2, [r3, #90]
 107:.\main.c      **** 	lado2.grado[2][0]=0;
 240              		.loc 1 107 0
 241 004e 5A4B     		ldr	r3, .L6+8
 242 0050 0022     		movs	r2, #0
 243 0052 83F85B20 		strb	r2, [r3, #91]
 108:.\main.c      ****     for(x=0; x<=15; x++){
 244              		.loc 1 108 0
 245 0056 0023     		movs	r3, #0
 246 0058 FB71     		strb	r3, [r7, #7]
 247 005a 08E0     		b	.L2
 248              	.L3:
 109:.\main.c      ****         rventa1.id_ef[x]= 1;
 249              		.loc 1 109 0 discriminator 3
 250 005c FB79     		ldrb	r3, [r7, #7]	@ zero_extendqisi2
 251 005e 574A     		ldr	r2, .L6+12
 252 0060 1344     		add	r3, r3, r2
 253 0062 0122     		movs	r2, #1
 254 0064 83F83320 		strb	r2, [r3, #51]
 108:.\main.c      ****     for(x=0; x<=15; x++){
 255              		.loc 1 108 0 discriminator 3
 256 0068 FB79     		ldrb	r3, [r7, #7]	@ zero_extendqisi2
 257 006a 0133     		adds	r3, r3, #1
 258 006c FB71     		strb	r3, [r7, #7]
 259              	.L2:
 108:.\main.c      ****     for(x=0; x<=15; x++){
 260              		.loc 1 108 0 is_stmt 0 discriminator 1
 261 006e FB79     		ldrb	r3, [r7, #7]	@ zero_extendqisi2
 262 0070 0F2B     		cmp	r3, #15
 263 0072 F3D9     		bls	.L3
 110:.\main.c      ****     }
 111:.\main.c      **** 
 112:.\main.c      ****     CyDelay(5);
 264              		.loc 1 112 0 is_stmt 1
 265 0074 0520     		movs	r0, #5
 266 0076 FFF7FEFF 		bl	CyDelay
 113:.\main.c      **** 	/******************Lectura de EEPROM*************/
 114:.\main.c      **** 	
 115:.\main.c      **** 	for(x=13;x<=14;x++){									//Logo
 267              		.loc 1 115 0
 268 007a 0D23     		movs	r3, #13
 269 007c FB71     		strb	r3, [r7, #7]
 270 007e 0EE0     		b	.L4
 271              	.L5:
 116:.\main.c      **** 		id_logo[x-13]=EEPROM_ReadByte(x);
 272              		.loc 1 116 0 discriminator 3
 273 0080 FB79     		ldrb	r3, [r7, #7]	@ zero_extendqisi2
 274 0082 A3F10D04 		sub	r4, r3, #13
 275 0086 FB79     		ldrb	r3, [r7, #7]	@ zero_extendqisi2
 276 0088 9BB2     		uxth	r3, r3
ARM GAS  C:\Users\RECEPC~1\AppData\Local\Temp\cc8qeTl3.s 			page 8


 277 008a 1846     		mov	r0, r3
 278 008c FFF7FEFF 		bl	EEPROM_ReadByte
 279 0090 0346     		mov	r3, r0
 280 0092 1A46     		mov	r2, r3
 281 0094 4A4B     		ldr	r3, .L6+16
 282 0096 1A55     		strb	r2, [r3, r4]
 115:.\main.c      **** 		id_logo[x-13]=EEPROM_ReadByte(x);
 283              		.loc 1 115 0 discriminator 3
 284 0098 FB79     		ldrb	r3, [r7, #7]	@ zero_extendqisi2
 285 009a 0133     		adds	r3, r3, #1
 286 009c FB71     		strb	r3, [r7, #7]
 287              	.L4:
 115:.\main.c      **** 		id_logo[x-13]=EEPROM_ReadByte(x);
 288              		.loc 1 115 0 is_stmt 0 discriminator 1
 289 009e FB79     		ldrb	r3, [r7, #7]	@ zero_extendqisi2
 290 00a0 0E2B     		cmp	r3, #14
 291 00a2 EDD9     		bls	.L5
 117:.\main.c      **** 	}
 118:.\main.c      **** 	lado1.mangueras=EEPROM_ReadByte(15);					//Numero de grados y codigo de cada uno 1
 292              		.loc 1 118 0 is_stmt 1
 293 00a4 0F20     		movs	r0, #15
 294 00a6 FFF7FEFF 		bl	EEPROM_ReadByte
 295 00aa 0346     		mov	r3, r0
 296 00ac 1A46     		mov	r2, r3
 297 00ae 414B     		ldr	r3, .L6+4
 298 00b0 83F85C20 		strb	r2, [r3, #92]
 119:.\main.c      **** 	lado1.grado[0][0]=EEPROM_ReadByte(16);
 299              		.loc 1 119 0
 300 00b4 1020     		movs	r0, #16
 301 00b6 FFF7FEFF 		bl	EEPROM_ReadByte
 302 00ba 0346     		mov	r3, r0
 303 00bc 1A46     		mov	r2, r3
 304 00be 3D4B     		ldr	r3, .L6+4
 305 00c0 83F85920 		strb	r2, [r3, #89]
 120:.\main.c      **** 	lado1.grado[1][0]=EEPROM_ReadByte(17);
 306              		.loc 1 120 0
 307 00c4 1120     		movs	r0, #17
 308 00c6 FFF7FEFF 		bl	EEPROM_ReadByte
 309 00ca 0346     		mov	r3, r0
 310 00cc 1A46     		mov	r2, r3
 311 00ce 394B     		ldr	r3, .L6+4
 312 00d0 83F85A20 		strb	r2, [r3, #90]
 121:.\main.c      **** 	lado1.grado[2][0]=EEPROM_ReadByte(18);
 313              		.loc 1 121 0
 314 00d4 1220     		movs	r0, #18
 315 00d6 FFF7FEFF 		bl	EEPROM_ReadByte
 316 00da 0346     		mov	r3, r0
 317 00dc 1A46     		mov	r2, r3
 318 00de 354B     		ldr	r3, .L6+4
 319 00e0 83F85B20 		strb	r2, [r3, #91]
 122:.\main.c      **** 	
 123:.\main.c      **** 	lado2.mangueras=EEPROM_ReadByte(19);					//Numero de grados y codigo de cada uno 1
 320              		.loc 1 123 0
 321 00e4 1320     		movs	r0, #19
 322 00e6 FFF7FEFF 		bl	EEPROM_ReadByte
 323 00ea 0346     		mov	r3, r0
 324 00ec 1A46     		mov	r2, r3
ARM GAS  C:\Users\RECEPC~1\AppData\Local\Temp\cc8qeTl3.s 			page 9


 325 00ee 324B     		ldr	r3, .L6+8
 326 00f0 83F85C20 		strb	r2, [r3, #92]
 124:.\main.c      **** 	lado2.grado[0][0]=EEPROM_ReadByte(20);
 327              		.loc 1 124 0
 328 00f4 1420     		movs	r0, #20
 329 00f6 FFF7FEFF 		bl	EEPROM_ReadByte
 330 00fa 0346     		mov	r3, r0
 331 00fc 1A46     		mov	r2, r3
 332 00fe 2E4B     		ldr	r3, .L6+8
 333 0100 83F85920 		strb	r2, [r3, #89]
 125:.\main.c      **** 	lado2.grado[1][0]=EEPROM_ReadByte(21);
 334              		.loc 1 125 0
 335 0104 1520     		movs	r0, #21
 336 0106 FFF7FEFF 		bl	EEPROM_ReadByte
 337 010a 0346     		mov	r3, r0
 338 010c 1A46     		mov	r2, r3
 339 010e 2A4B     		ldr	r3, .L6+8
 340 0110 83F85A20 		strb	r2, [r3, #90]
 126:.\main.c      **** 	lado2.grado[2][0]=EEPROM_ReadByte(22);	
 341              		.loc 1 126 0
 342 0114 1620     		movs	r0, #22
 343 0116 FFF7FEFF 		bl	EEPROM_ReadByte
 344 011a 0346     		mov	r3, r0
 345 011c 1A46     		mov	r2, r3
 346 011e 264B     		ldr	r3, .L6+8
 347 0120 83F85B20 		strb	r2, [r3, #91]
 127:.\main.c      **** 	
 128:.\main.c      **** 	ppux10=EEPROM_ReadByte(23);								//PPU X10
 348              		.loc 1 128 0
 349 0124 1720     		movs	r0, #23
 350 0126 FFF7FEFF 		bl	EEPROM_ReadByte
 351 012a 0346     		mov	r3, r0
 352 012c 1A46     		mov	r2, r3
 353 012e 254B     		ldr	r3, .L6+20
 354 0130 1A70     		strb	r2, [r3]
 129:.\main.c      **** 
 130:.\main.c      **** 	version[1]=EEPROM_ReadByte(30);							//Version de digitos y decimales
 355              		.loc 1 130 0
 356 0132 1E20     		movs	r0, #30
 357 0134 FFF7FEFF 		bl	EEPROM_ReadByte
 358 0138 0346     		mov	r3, r0
 359 013a 1A46     		mov	r2, r3
 360 013c 224B     		ldr	r3, .L6+24
 361 013e 5A70     		strb	r2, [r3, #1]
 131:.\main.c      **** 	version[2]=EEPROM_ReadByte(31);
 362              		.loc 1 131 0
 363 0140 1F20     		movs	r0, #31
 364 0142 FFF7FEFF 		bl	EEPROM_ReadByte
 365 0146 0346     		mov	r3, r0
 366 0148 1A46     		mov	r2, r3
 367 014a 1F4B     		ldr	r3, .L6+24
 368 014c 9A70     		strb	r2, [r3, #2]
 132:.\main.c      **** 	version[3]=EEPROM_ReadByte(32);
 369              		.loc 1 132 0
 370 014e 2020     		movs	r0, #32
 371 0150 FFF7FEFF 		bl	EEPROM_ReadByte
 372 0154 0346     		mov	r3, r0
ARM GAS  C:\Users\RECEPC~1\AppData\Local\Temp\cc8qeTl3.s 			page 10


 373 0156 1A46     		mov	r2, r3
 374 0158 1B4B     		ldr	r3, .L6+24
 375 015a DA70     		strb	r2, [r3, #3]
 133:.\main.c      **** 		 
 134:.\main.c      **** 	lado1.dir=EEPROM_ReadByte(26);							//Lado A
 376              		.loc 1 134 0
 377 015c 1A20     		movs	r0, #26
 378 015e FFF7FEFF 		bl	EEPROM_ReadByte
 379 0162 0346     		mov	r3, r0
 380 0164 1A46     		mov	r2, r3
 381 0166 134B     		ldr	r3, .L6+4
 382 0168 1A70     		strb	r2, [r3]
 135:.\main.c      **** 
 136:.\main.c      **** 	lado2.dir=EEPROM_ReadByte(28);							//Lado B
 383              		.loc 1 136 0
 384 016a 1C20     		movs	r0, #28
 385 016c FFF7FEFF 		bl	EEPROM_ReadByte
 386 0170 0346     		mov	r3, r0
 387 0172 1A46     		mov	r2, r3
 388 0174 104B     		ldr	r3, .L6+8
 389 0176 1A70     		strb	r2, [r3]
 137:.\main.c      **** 
 138:.\main.c      ****     lado1.estado=libre;
 390              		.loc 1 138 0
 391 0178 0E4B     		ldr	r3, .L6+4
 392 017a 0122     		movs	r2, #1
 393 017c 5A70     		strb	r2, [r3, #1]
 139:.\main.c      ****     lado2.estado=libre;
 394              		.loc 1 139 0
 395 017e 0E4B     		ldr	r3, .L6+8
 396 0180 0122     		movs	r2, #1
 397 0182 5A70     		strb	r2, [r3, #1]
 140:.\main.c      ****     estado_tanqueando=0;
 398              		.loc 1 140 0
 399 0184 114B     		ldr	r3, .L6+28
 400 0186 0022     		movs	r2, #0
 401 0188 1A70     		strb	r2, [r3]
 141:.\main.c      **** 	//ppux10=1;//1 estacion autogas prueba version de digitos 6
 142:.\main.c      **** 	lado1.mangueras=3;
 402              		.loc 1 142 0
 403 018a 0A4B     		ldr	r3, .L6+4
 404 018c 0322     		movs	r2, #3
 405 018e 83F85C20 		strb	r2, [r3, #92]
 143:.\main.c      **** //	lado1.grado[0][0]=2;				//1 Diesel 2 Corriente 3 Extra 4 Supreme Diesel
 144:.\main.c      **** //	lado1.grado[1][0]=3;
 145:.\main.c      **** //	lado1.grado[2][0]=0;
 146:.\main.c      ****     //version[1]=6;
 147:.\main.c      **** 	version[2]=0;
 406              		.loc 1 147 0
 407 0192 0D4B     		ldr	r3, .L6+24
 408 0194 0022     		movs	r2, #0
 409 0196 9A70     		strb	r2, [r3, #2]
 148:.\main.c      **** 	version[3]=3;
 410              		.loc 1 148 0
 411 0198 0B4B     		ldr	r3, .L6+24
 412 019a 0322     		movs	r2, #3
 413 019c DA70     		strb	r2, [r3, #3]
ARM GAS  C:\Users\RECEPC~1\AppData\Local\Temp\cc8qeTl3.s 			page 11


 149:.\main.c      ****     flujo_LCD1 = 0;
 414              		.loc 1 149 0
 415 019e 0C4B     		ldr	r3, .L6+32
 416 01a0 0022     		movs	r2, #0
 417 01a2 1A70     		strb	r2, [r3]
 150:.\main.c      ****     CyDelay(5);	
 418              		.loc 1 150 0
 419 01a4 0520     		movs	r0, #5
 420 01a6 FFF7FEFF 		bl	CyDelay
 151:.\main.c      ****     
 152:.\main.c      **** }
 421              		.loc 1 152 0
 422 01aa 0C37     		adds	r7, r7, #12
 423              		.cfi_def_cfa_offset 12
 424 01ac BD46     		mov	sp, r7
 425              		.cfi_def_cfa_register 13
 426              		@ sp needed
 427 01ae 90BD     		pop	{r4, r7, pc}
 428              	.L7:
 429              		.align	2
 430              	.L6:
 431 01b0 00000000 		.word	timeout_autorizacion
 432 01b4 00000000 		.word	lado1
 433 01b8 00000000 		.word	lado2
 434 01bc 00000000 		.word	rventa1
 435 01c0 00000000 		.word	id_logo
 436 01c4 00000000 		.word	ppux10
 437 01c8 00000000 		.word	version
 438 01cc 00000000 		.word	estado_tanqueando
 439 01d0 00000000 		.word	flujo_LCD1
 440              		.cfi_endproc
 441              	.LFE63:
 442              		.size	init, .-init
 443              		.section	.rodata
 444              		.align	2
 445              	.LC0:
 446 0000 00       		.byte	0
 447 0001 5E       		.byte	94
 448 0002 BC       		.byte	-68
 449 0003 E2       		.byte	-30
 450 0004 61       		.byte	97
 451 0005 3F       		.byte	63
 452 0006 DD       		.byte	-35
 453 0007 83       		.byte	-125
 454 0008 C2       		.byte	-62
 455 0009 9C       		.byte	-100
 456 000a 7E       		.byte	126
 457 000b 20       		.byte	32
 458 000c A3       		.byte	-93
 459 000d FD       		.byte	-3
 460 000e 1F       		.byte	31
 461 000f 41       		.byte	65
 462 0010 9D       		.byte	-99
 463 0011 C3       		.byte	-61
 464 0012 21       		.byte	33
 465 0013 7F       		.byte	127
 466 0014 FC       		.byte	-4
ARM GAS  C:\Users\RECEPC~1\AppData\Local\Temp\cc8qeTl3.s 			page 12


 467 0015 A2       		.byte	-94
 468 0016 40       		.byte	64
 469 0017 1E       		.byte	30
 470 0018 5F       		.byte	95
 471 0019 01       		.byte	1
 472 001a E3       		.byte	-29
 473 001b BD       		.byte	-67
 474 001c 3E       		.byte	62
 475 001d 60       		.byte	96
 476 001e 82       		.byte	-126
 477 001f DC       		.byte	-36
 478 0020 23       		.byte	35
 479 0021 7D       		.byte	125
 480 0022 9F       		.byte	-97
 481 0023 C1       		.byte	-63
 482 0024 42       		.byte	66
 483 0025 1C       		.byte	28
 484 0026 FE       		.byte	-2
 485 0027 A0       		.byte	-96
 486 0028 E1       		.byte	-31
 487 0029 BF       		.byte	-65
 488 002a 5D       		.byte	93
 489 002b 03       		.byte	3
 490 002c 80       		.byte	-128
 491 002d DE       		.byte	-34
 492 002e 3C       		.byte	60
 493 002f 62       		.byte	98
 494 0030 BE       		.byte	-66
 495 0031 E0       		.byte	-32
 496 0032 02       		.byte	2
 497 0033 5C       		.byte	92
 498 0034 DF       		.byte	-33
 499 0035 81       		.byte	-127
 500 0036 63       		.byte	99
 501 0037 3D       		.byte	61
 502 0038 7C       		.byte	124
 503 0039 22       		.byte	34
 504 003a C0       		.byte	-64
 505 003b 9E       		.byte	-98
 506 003c 1D       		.byte	29
 507 003d 43       		.byte	67
 508 003e A1       		.byte	-95
 509 003f FF       		.byte	-1
 510 0040 46       		.byte	70
 511 0041 18       		.byte	24
 512 0042 FA       		.byte	-6
 513 0043 A4       		.byte	-92
 514 0044 27       		.byte	39
 515 0045 79       		.byte	121
 516 0046 9B       		.byte	-101
 517 0047 C5       		.byte	-59
 518 0048 84       		.byte	-124
 519 0049 DA       		.byte	-38
 520 004a 38       		.byte	56
 521 004b 66       		.byte	102
 522 004c E5       		.byte	-27
 523 004d BB       		.byte	-69
ARM GAS  C:\Users\RECEPC~1\AppData\Local\Temp\cc8qeTl3.s 			page 13


 524 004e 59       		.byte	89
 525 004f 07       		.byte	7
 526 0050 DB       		.byte	-37
 527 0051 85       		.byte	-123
 528 0052 67       		.byte	103
 529 0053 39       		.byte	57
 530 0054 BA       		.byte	-70
 531 0055 E4       		.byte	-28
 532 0056 06       		.byte	6
 533 0057 58       		.byte	88
 534 0058 19       		.byte	25
 535 0059 47       		.byte	71
 536 005a A5       		.byte	-91
 537 005b FB       		.byte	-5
 538 005c 78       		.byte	120
 539 005d 26       		.byte	38
 540 005e C4       		.byte	-60
 541 005f 9A       		.byte	-102
 542 0060 65       		.byte	101
 543 0061 3B       		.byte	59
 544 0062 D9       		.byte	-39
 545 0063 87       		.byte	-121
 546 0064 04       		.byte	4
 547 0065 5A       		.byte	90
 548 0066 B8       		.byte	-72
 549 0067 E6       		.byte	-26
 550 0068 A7       		.byte	-89
 551 0069 F9       		.byte	-7
 552 006a 1B       		.byte	27
 553 006b 45       		.byte	69
 554 006c C6       		.byte	-58
 555 006d 98       		.byte	-104
 556 006e 7A       		.byte	122
 557 006f 24       		.byte	36
 558 0070 F8       		.byte	-8
 559 0071 A6       		.byte	-90
 560 0072 44       		.byte	68
 561 0073 1A       		.byte	26
 562 0074 99       		.byte	-103
 563 0075 C7       		.byte	-57
 564 0076 25       		.byte	37
 565 0077 7B       		.byte	123
 566 0078 3A       		.byte	58
 567 0079 64       		.byte	100
 568 007a 86       		.byte	-122
 569 007b D8       		.byte	-40
 570 007c 5B       		.byte	91
 571 007d 05       		.byte	5
 572 007e E7       		.byte	-25
 573 007f B9       		.byte	-71
 574 0080 8C       		.byte	-116
 575 0081 D2       		.byte	-46
 576 0082 30       		.byte	48
 577 0083 6E       		.byte	110
 578 0084 ED       		.byte	-19
 579 0085 B3       		.byte	-77
 580 0086 51       		.byte	81
ARM GAS  C:\Users\RECEPC~1\AppData\Local\Temp\cc8qeTl3.s 			page 14


 581 0087 0F       		.byte	15
 582 0088 4E       		.byte	78
 583 0089 10       		.byte	16
 584 008a F2       		.byte	-14
 585 008b AC       		.byte	-84
 586 008c 2F       		.byte	47
 587 008d 71       		.byte	113
 588 008e 93       		.byte	-109
 589 008f CD       		.byte	-51
 590 0090 11       		.byte	17
 591 0091 4F       		.byte	79
 592 0092 AD       		.byte	-83
 593 0093 F3       		.byte	-13
 594 0094 70       		.byte	112
 595 0095 2E       		.byte	46
 596 0096 CC       		.byte	-52
 597 0097 92       		.byte	-110
 598 0098 D3       		.byte	-45
 599 0099 8D       		.byte	-115
 600 009a 6F       		.byte	111
 601 009b 31       		.byte	49
 602 009c B2       		.byte	-78
 603 009d EC       		.byte	-20
 604 009e 0E       		.byte	14
 605 009f 50       		.byte	80
 606 00a0 AF       		.byte	-81
 607 00a1 F1       		.byte	-15
 608 00a2 13       		.byte	19
 609 00a3 4D       		.byte	77
 610 00a4 CE       		.byte	-50
 611 00a5 90       		.byte	-112
 612 00a6 72       		.byte	114
 613 00a7 2C       		.byte	44
 614 00a8 6D       		.byte	109
 615 00a9 33       		.byte	51
 616 00aa D1       		.byte	-47
 617 00ab 8F       		.byte	-113
 618 00ac 0C       		.byte	12
 619 00ad 52       		.byte	82
 620 00ae B0       		.byte	-80
 621 00af EE       		.byte	-18
 622 00b0 32       		.byte	50
 623 00b1 6C       		.byte	108
 624 00b2 8E       		.byte	-114
 625 00b3 D0       		.byte	-48
 626 00b4 53       		.byte	83
 627 00b5 0D       		.byte	13
 628 00b6 EF       		.byte	-17
 629 00b7 B1       		.byte	-79
 630 00b8 F0       		.byte	-16
 631 00b9 AE       		.byte	-82
 632 00ba 4C       		.byte	76
 633 00bb 12       		.byte	18
 634 00bc 91       		.byte	-111
 635 00bd CF       		.byte	-49
 636 00be 2D       		.byte	45
 637 00bf 73       		.byte	115
ARM GAS  C:\Users\RECEPC~1\AppData\Local\Temp\cc8qeTl3.s 			page 15


 638 00c0 CA       		.byte	-54
 639 00c1 94       		.byte	-108
 640 00c2 76       		.byte	118
 641 00c3 28       		.byte	40
 642 00c4 AB       		.byte	-85
 643 00c5 F5       		.byte	-11
 644 00c6 17       		.byte	23
 645 00c7 49       		.byte	73
 646 00c8 08       		.byte	8
 647 00c9 56       		.byte	86
 648 00ca B4       		.byte	-76
 649 00cb EA       		.byte	-22
 650 00cc 69       		.byte	105
 651 00cd 37       		.byte	55
 652 00ce D5       		.byte	-43
 653 00cf 8B       		.byte	-117
 654 00d0 57       		.byte	87
 655 00d1 09       		.byte	9
 656 00d2 EB       		.byte	-21
 657 00d3 B5       		.byte	-75
 658 00d4 36       		.byte	54
 659 00d5 68       		.byte	104
 660 00d6 8A       		.byte	-118
 661 00d7 D4       		.byte	-44
 662 00d8 95       		.byte	-107
 663 00d9 CB       		.byte	-53
 664 00da 29       		.byte	41
 665 00db 77       		.byte	119
 666 00dc F4       		.byte	-12
 667 00dd AA       		.byte	-86
 668 00de 48       		.byte	72
 669 00df 16       		.byte	22
 670 00e0 E9       		.byte	-23
 671 00e1 B7       		.byte	-73
 672 00e2 55       		.byte	85
 673 00e3 0B       		.byte	11
 674 00e4 88       		.byte	-120
 675 00e5 D6       		.byte	-42
 676 00e6 34       		.byte	52
 677 00e7 6A       		.byte	106
 678 00e8 2B       		.byte	43
 679 00e9 75       		.byte	117
 680 00ea 97       		.byte	-105
 681 00eb C9       		.byte	-55
 682 00ec 4A       		.byte	74
 683 00ed 14       		.byte	20
 684 00ee F6       		.byte	-10
 685 00ef A8       		.byte	-88
 686 00f0 74       		.byte	116
 687 00f1 2A       		.byte	42
 688 00f2 C8       		.byte	-56
 689 00f3 96       		.byte	-106
 690 00f4 15       		.byte	21
 691 00f5 4B       		.byte	75
 692 00f6 A9       		.byte	-87
 693 00f7 F7       		.byte	-9
 694 00f8 B6       		.byte	-74
ARM GAS  C:\Users\RECEPC~1\AppData\Local\Temp\cc8qeTl3.s 			page 16


 695 00f9 E8       		.byte	-24
 696 00fa 0A       		.byte	10
 697 00fb 54       		.byte	84
 698 00fc D7       		.byte	-41
 699 00fd 89       		.byte	-119
 700 00fe 6B       		.byte	107
 701 00ff 35       		.byte	53
 702              		.section	.text.verificar_check,"ax",%progbits
 703              		.align	2
 704              		.global	verificar_check
 705              		.thumb
 706              		.thumb_func
 707              		.type	verificar_check, %function
 708              	verificar_check:
 709              	.LFB64:
 153:.\main.c      **** 
 154:.\main.c      **** 
 155:.\main.c      **** /*
 156:.\main.c      **** ***************************************************************************************************
 157:.\main.c      **** *                             uint8 verificar_check(uint8 *datos, uint16 size)
 158:.\main.c      **** *
 159:.\main.c      **** * Description : calcula el checksum
 160:.\main.c      **** *               
 161:.\main.c      **** 
 162:.\main.c      **** ***************************************************************************************************
 163:.\main.c      **** */
 164:.\main.c      **** uint8 verificar_check(uint8 *datos, uint16 size){
 710              		.loc 1 164 0
 711              		.cfi_startproc
 712              		@ args = 0, pretend = 0, frame = 272
 713              		@ frame_needed = 1, uses_anonymous_args = 0
 714 0000 80B5     		push	{r7, lr}
 715              		.cfi_def_cfa_offset 8
 716              		.cfi_offset 7, -8
 717              		.cfi_offset 14, -4
 718 0002 C4B0     		sub	sp, sp, #272
 719              		.cfi_def_cfa_offset 280
 720 0004 00AF     		add	r7, sp, #0
 721              		.cfi_def_cfa_register 7
 722 0006 3B1D     		adds	r3, r7, #4
 723 0008 1860     		str	r0, [r3]
 724 000a 0A46     		mov	r2, r1
 725 000c BB1C     		adds	r3, r7, #2
 726 000e 1A80     		strh	r2, [r3]	@ movhi
 165:.\main.c      **** 	uint8 checksum,index;
 166:.\main.c      **** 	uint16 i;
 167:.\main.c      ****     uint8 table[256] = { 
 727              		.loc 1 167 0
 728 0010 07F10803 		add	r3, r7, #8
 729 0014 1A4A     		ldr	r2, .L12
 730 0016 1946     		mov	r1, r3
 731 0018 4FF48073 		mov	r3, #256
 732 001c 0846     		mov	r0, r1
 733 001e 1146     		mov	r1, r2
 734 0020 1A46     		mov	r2, r3
 735 0022 FFF7FEFF 		bl	memcpy
 168:.\main.c      ****     0, 94,188,226, 97, 63,221,131,194,156,126, 32,163,253, 31, 65,
ARM GAS  C:\Users\RECEPC~1\AppData\Local\Temp\cc8qeTl3.s 			page 17


 169:.\main.c      ****     157,195, 33,127,252,162, 64, 30, 95,  1,227,189, 62, 96,130,220,
 170:.\main.c      ****     35,125,159,193, 66, 28,254,160,225,191, 93,  3,128,222, 60, 98,
 171:.\main.c      ****     190,224,  2, 92,223,129, 99, 61,124, 34,192,158, 29, 67,161,255,
 172:.\main.c      ****     70, 24,250,164, 39,121,155,197,132,218, 56,102,229,187, 89,  7,
 173:.\main.c      ****     219,133,103, 57,186,228,  6, 88, 25, 71,165,251,120, 38,196,154,
 174:.\main.c      ****     101, 59,217,135,  4, 90,184,230,167,249, 27, 69,198,152,122, 36,
 175:.\main.c      ****     248,166, 68, 26,153,199, 37,123, 58,100,134,216, 91,  5,231,185,
 176:.\main.c      ****     140,210, 48,110,237,179, 81, 15, 78, 16,242,172, 47,113,147,205,
 177:.\main.c      ****     17, 79,173,243,112, 46,204,146,211,141,111, 49,178,236, 14, 80,
 178:.\main.c      ****     175,241, 19, 77,206,144,114, 44,109, 51,209,143, 12, 82,176,238,
 179:.\main.c      ****     50,108,142,208, 83, 13,239,177,240,174, 76, 18,145,207, 45,115,
 180:.\main.c      ****     202,148,118, 40,171,245, 23, 73,  8, 86,180,234,105, 55,213,139,
 181:.\main.c      ****     87,  9,235,181, 54,104,138,212,149,203, 41,119,244,170, 72, 22,
 182:.\main.c      ****     233,183, 85, 11,136,214, 52,106, 43,117,151,201, 74, 20,246,168,
 183:.\main.c      ****     116, 42,200,150, 21, 75,169,247,182,232, 10, 84,215,137,107, 53};	
 184:.\main.c      **** 	checksum=0;
 736              		.loc 1 184 0
 737 0026 0023     		movs	r3, #0
 738 0028 87F80F31 		strb	r3, [r7, #271]
 185:.\main.c      **** 	for(i=0;i<(size-1);i++){
 739              		.loc 1 185 0
 740 002c 0023     		movs	r3, #0
 741 002e A7F80C31 		strh	r3, [r7, #268]	@ movhi
 742 0032 16E0     		b	.L9
 743              	.L10:
 186:.\main.c      **** 		index = (uint8)(checksum ^ datos[i]);
 744              		.loc 1 186 0 discriminator 3
 745 0034 B7F80C31 		ldrh	r3, [r7, #268]
 746 0038 3A1D     		adds	r2, r7, #4
 747 003a 1268     		ldr	r2, [r2]
 748 003c 1344     		add	r3, r3, r2
 749 003e 1A78     		ldrb	r2, [r3]	@ zero_extendqisi2
 750 0040 97F80F31 		ldrb	r3, [r7, #271]
 751 0044 5340     		eors	r3, r3, r2
 752 0046 87F80B31 		strb	r3, [r7, #267]
 187:.\main.c      **** 		checksum = table[index];				
 753              		.loc 1 187 0 discriminator 3
 754 004a 97F80B31 		ldrb	r3, [r7, #267]	@ zero_extendqisi2
 755 004e 07F10802 		add	r2, r7, #8
 756 0052 D35C     		ldrb	r3, [r2, r3]
 757 0054 87F80F31 		strb	r3, [r7, #271]
 185:.\main.c      **** 	for(i=0;i<(size-1);i++){
 758              		.loc 1 185 0 discriminator 3
 759 0058 B7F80C31 		ldrh	r3, [r7, #268]
 760 005c 0133     		adds	r3, r3, #1
 761 005e A7F80C31 		strh	r3, [r7, #268]	@ movhi
 762              	.L9:
 185:.\main.c      **** 	for(i=0;i<(size-1);i++){
 763              		.loc 1 185 0 is_stmt 0 discriminator 1
 764 0062 B7F80C21 		ldrh	r2, [r7, #268]
 765 0066 BB1C     		adds	r3, r7, #2
 766 0068 1B88     		ldrh	r3, [r3]
 767 006a 013B     		subs	r3, r3, #1
 768 006c 9A42     		cmp	r2, r3
 769 006e E1DB     		blt	.L10
 188:.\main.c      **** 	}
 189:.\main.c      **** 	return checksum;
ARM GAS  C:\Users\RECEPC~1\AppData\Local\Temp\cc8qeTl3.s 			page 18


 770              		.loc 1 189 0 is_stmt 1
 771 0070 97F80F31 		ldrb	r3, [r7, #271]	@ zero_extendqisi2
 190:.\main.c      **** }
 772              		.loc 1 190 0
 773 0074 1846     		mov	r0, r3
 774 0076 07F58877 		add	r7, r7, #272
 775              		.cfi_def_cfa_offset 8
 776 007a BD46     		mov	sp, r7
 777              		.cfi_def_cfa_register 13
 778              		@ sp needed
 779 007c 80BD     		pop	{r7, pc}
 780              	.L13:
 781 007e 00BF     		.align	2
 782              	.L12:
 783 0080 00000000 		.word	.LC0
 784              		.cfi_endproc
 785              	.LFE64:
 786              		.size	verificar_check, .-verificar_check
 787              		.section	.text.error_op,"ax",%progbits
 788              		.align	2
 789              		.global	error_op
 790              		.thumb
 791              		.thumb_func
 792              		.type	error_op, %function
 793              	error_op:
 794              	.LFB65:
 191:.\main.c      **** 
 192:.\main.c      **** /*
 193:.\main.c      **** ***************************************************************************************************
 194:.\main.c      **** *                                         void error_op()
 195:.\main.c      **** *
 196:.\main.c      **** * Description : Muestra en la pantalla el mensaje de operación incorrecta y regresa al inicio del 
 197:.\main.c      **** *               
 198:.\main.c      **** *
 199:.\main.c      **** * Argument(s) : uint8 lcd, para elegir cual pantalla entra en esta función
 200:.\main.c      **** *
 201:.\main.c      **** * Return(s)   : none
 202:.\main.c      **** *
 203:.\main.c      **** * Caller(s)   : Desde cualquier momento de la operacion donde ocurra un error por parte del usuario
 204:.\main.c      **** *
 205:.\main.c      **** * Note(s)     : none.
 206:.\main.c      **** ***************************************************************************************************
 207:.\main.c      **** */
 208:.\main.c      **** void error_op(uint8 lcd, uint16 imagen){
 795              		.loc 1 208 0
 796              		.cfi_startproc
 797              		@ args = 0, pretend = 0, frame = 8
 798              		@ frame_needed = 1, uses_anonymous_args = 0
 799 0000 80B5     		push	{r7, lr}
 800              		.cfi_def_cfa_offset 8
 801              		.cfi_offset 7, -8
 802              		.cfi_offset 14, -4
 803 0002 82B0     		sub	sp, sp, #8
 804              		.cfi_def_cfa_offset 16
 805 0004 00AF     		add	r7, sp, #0
 806              		.cfi_def_cfa_register 7
 807 0006 0346     		mov	r3, r0
ARM GAS  C:\Users\RECEPC~1\AppData\Local\Temp\cc8qeTl3.s 			page 19


 808 0008 0A46     		mov	r2, r1
 809 000a FB71     		strb	r3, [r7, #7]
 810 000c 1346     		mov	r3, r2	@ movhi
 811 000e BB80     		strh	r3, [r7, #4]	@ movhi
 209:.\main.c      **** 	if(lcd==1){
 812              		.loc 1 209 0
 813 0010 FB79     		ldrb	r3, [r7, #7]	@ zero_extendqisi2
 814 0012 012B     		cmp	r3, #1
 815 0014 13D1     		bne	.L15
 210:.\main.c      **** 	   set_imagen(1,imagen);
 816              		.loc 1 210 0
 817 0016 BB88     		ldrh	r3, [r7, #4]
 818 0018 0120     		movs	r0, #1
 819 001a 1946     		mov	r1, r3
 820 001c FFF7FEFF 		bl	set_imagen
 211:.\main.c      **** 	   flujo_LCD1=100;
 821              		.loc 1 211 0
 822 0020 104B     		ldr	r3, .L17
 823 0022 6422     		movs	r2, #100
 824 0024 1A70     		strb	r2, [r3]
 212:.\main.c      **** 	   count_protector=1;
 825              		.loc 1 212 0
 826 0026 104B     		ldr	r3, .L17+4
 827 0028 0122     		movs	r2, #1
 828 002a 1A70     		strb	r2, [r3]
 213:.\main.c      ****        lado1.estado=libre;       
 829              		.loc 1 213 0
 830 002c 0F4B     		ldr	r3, .L17+8
 831 002e 0122     		movs	r2, #1
 832 0030 5A70     		strb	r2, [r3, #1]
 214:.\main.c      **** 	   isr_3_StartEx(animacion);  
 833              		.loc 1 214 0
 834 0032 0F48     		ldr	r0, .L17+12
 835 0034 FFF7FEFF 		bl	isr_3_StartEx
 215:.\main.c      **** 	   Timer_Animacion_Start();
 836              		.loc 1 215 0
 837 0038 FFF7FEFF 		bl	Timer_Animacion_Start
 838 003c 0FE0     		b	.L14
 839              	.L15:
 216:.\main.c      **** 	}
 217:.\main.c      **** 	else{
 218:.\main.c      **** 	    set_imagen(2,imagen);
 840              		.loc 1 218 0
 841 003e BB88     		ldrh	r3, [r7, #4]
 842 0040 0220     		movs	r0, #2
 843 0042 1946     		mov	r1, r3
 844 0044 FFF7FEFF 		bl	set_imagen
 219:.\main.c      **** 	    flujo_LCD2=100;
 845              		.loc 1 219 0
 846 0048 0A4B     		ldr	r3, .L17+16
 847 004a 6422     		movs	r2, #100
 848 004c 1A70     		strb	r2, [r3]
 220:.\main.c      **** 		count_protector2=1;
 849              		.loc 1 220 0
 850 004e 0A4B     		ldr	r3, .L17+20
 851 0050 0122     		movs	r2, #1
 852 0052 1A70     		strb	r2, [r3]
ARM GAS  C:\Users\RECEPC~1\AppData\Local\Temp\cc8qeTl3.s 			page 20


 221:.\main.c      **** 	    isr_4_StartEx(animacion2);  
 853              		.loc 1 221 0
 854 0054 0948     		ldr	r0, .L17+24
 855 0056 FFF7FEFF 		bl	isr_4_StartEx
 222:.\main.c      **** 	    Timer_Animacion2_Start();	
 856              		.loc 1 222 0
 857 005a FFF7FEFF 		bl	Timer_Animacion2_Start
 858              	.L14:
 223:.\main.c      **** 	}
 224:.\main.c      **** }
 859              		.loc 1 224 0
 860 005e 0837     		adds	r7, r7, #8
 861              		.cfi_def_cfa_offset 8
 862 0060 BD46     		mov	sp, r7
 863              		.cfi_def_cfa_register 13
 864              		@ sp needed
 865 0062 80BD     		pop	{r7, pc}
 866              	.L18:
 867              		.align	2
 868              	.L17:
 869 0064 00000000 		.word	flujo_LCD1
 870 0068 00000000 		.word	count_protector
 871 006c 00000000 		.word	lado1
 872 0070 00000000 		.word	animacion
 873 0074 00000000 		.word	flujo_LCD2
 874 0078 00000000 		.word	count_protector2
 875 007c 00000000 		.word	animacion2
 876              		.cfi_endproc
 877              	.LFE65:
 878              		.size	error_op, .-error_op
 879              		.section	.text.init_surt,"ax",%progbits
 880              		.align	2
 881              		.global	init_surt
 882              		.thumb
 883              		.thumb_func
 884              		.type	init_surt, %function
 885              	init_surt:
 886              	.LFB66:
 225:.\main.c      **** 
 226:.\main.c      **** /*
 227:.\main.c      **** ***************************************************************************************************
 228:.\main.c      **** *                                         init_surt( void )
 229:.\main.c      **** *
 230:.\main.c      **** * Description : Busca las posiciones del surtidor y las graba en lado.a.dir y lado.b.dir
 231:.\main.c      **** *               
 232:.\main.c      **** *
 233:.\main.c      **** * Argument(s) : none
 234:.\main.c      **** *
 235:.\main.c      **** * Return(s)   : none
 236:.\main.c      **** *
 237:.\main.c      **** * Caller(s)   : main()
 238:.\main.c      **** *
 239:.\main.c      **** * Note(s)     : Falta generar codigo para los casos 1 y 2
 240:.\main.c      **** ***************************************************************************************************
 241:.\main.c      **** */
 242:.\main.c      **** void init_surt(void){
 887              		.loc 1 242 0
ARM GAS  C:\Users\RECEPC~1\AppData\Local\Temp\cc8qeTl3.s 			page 21


 888              		.cfi_startproc
 889              		@ args = 0, pretend = 0, frame = 8
 890              		@ frame_needed = 1, uses_anonymous_args = 0
 891 0000 80B5     		push	{r7, lr}
 892              		.cfi_def_cfa_offset 8
 893              		.cfi_offset 7, -8
 894              		.cfi_offset 14, -4
 895 0002 82B0     		sub	sp, sp, #8
 896              		.cfi_def_cfa_offset 16
 897 0004 00AF     		add	r7, sp, #0
 898              		.cfi_def_cfa_register 7
 243:.\main.c      **** 	uint8 estado, ok=0;
 899              		.loc 1 243 0
 900 0006 0023     		movs	r3, #0
 901 0008 FB71     		strb	r3, [r7, #7]
 244:.\main.c      **** 	while(ok<=1){
 902              		.loc 1 244 0
 903 000a 80E1     		b	.L20
 904              	.L49:
 245:.\main.c      **** 		ok=0;
 905              		.loc 1 245 0
 906 000c 0023     		movs	r3, #0
 907 000e FB71     		strb	r3, [r7, #7]
 246:.\main.c      **** 		if((lado1.dir==0xFF)||(lado2.dir==0xFF)){
 908              		.loc 1 246 0
 909 0010 C24B     		ldr	r3, .L50
 910 0012 1B78     		ldrb	r3, [r3]
 911 0014 DBB2     		uxtb	r3, r3
 912 0016 FF2B     		cmp	r3, #255
 913 0018 04D0     		beq	.L21
 914              		.loc 1 246 0 is_stmt 0 discriminator 1
 915 001a C14B     		ldr	r3, .L50+4
 916 001c 1B78     		ldrb	r3, [r3]
 917 001e DBB2     		uxtb	r3, r3
 918 0020 FF2B     		cmp	r3, #255
 919 0022 58D1     		bne	.L22
 920              	.L21:
 247:.\main.c      **** 			while(ver_pos()==0){};
 921              		.loc 1 247 0 is_stmt 1
 922 0024 00BF     		nop
 923              	.L23:
 924              		.loc 1 247 0 is_stmt 0 discriminator 1
 925 0026 FFF7FEFF 		bl	ver_pos
 926 002a 0346     		mov	r3, r0
 927 002c 002B     		cmp	r3, #0
 928 002e FAD0     		beq	.L23
 248:.\main.c      **** 		    while(totales(lado1.dir, lado1.mangueras)==0);			
 929              		.loc 1 248 0 is_stmt 1
 930 0030 00BF     		nop
 931              	.L24:
 932              		.loc 1 248 0 is_stmt 0 discriminator 1
 933 0032 BA4B     		ldr	r3, .L50
 934 0034 1B78     		ldrb	r3, [r3]
 935 0036 DAB2     		uxtb	r2, r3
 936 0038 B84B     		ldr	r3, .L50
 937 003a 93F85C30 		ldrb	r3, [r3, #92]
 938 003e DBB2     		uxtb	r3, r3
ARM GAS  C:\Users\RECEPC~1\AppData\Local\Temp\cc8qeTl3.s 			page 22


 939 0040 1046     		mov	r0, r2
 940 0042 1946     		mov	r1, r3
 941 0044 FFF7FEFF 		bl	totales
 942 0048 0346     		mov	r3, r0
 943 004a 002B     		cmp	r3, #0
 944 004c F1D0     		beq	.L24
 249:.\main.c      **** 			CyDelay(50);	
 945              		.loc 1 249 0 is_stmt 1
 946 004e 3220     		movs	r0, #50
 947 0050 FFF7FEFF 		bl	CyDelay
 250:.\main.c      **** 			while(totales(lado2.dir, lado2.mangueras)==0);
 948              		.loc 1 250 0
 949 0054 00BF     		nop
 950              	.L25:
 951              		.loc 1 250 0 is_stmt 0 discriminator 1
 952 0056 B24B     		ldr	r3, .L50+4
 953 0058 1B78     		ldrb	r3, [r3]
 954 005a DAB2     		uxtb	r2, r3
 955 005c B04B     		ldr	r3, .L50+4
 956 005e 93F85C30 		ldrb	r3, [r3, #92]
 957 0062 DBB2     		uxtb	r3, r3
 958 0064 1046     		mov	r0, r2
 959 0066 1946     		mov	r1, r3
 960 0068 FFF7FEFF 		bl	totales
 961 006c 0346     		mov	r3, r0
 962 006e 002B     		cmp	r3, #0
 963 0070 F1D0     		beq	.L25
 251:.\main.c      **** 			CyDelay(50);	
 964              		.loc 1 251 0 is_stmt 1
 965 0072 3220     		movs	r0, #50
 966 0074 FFF7FEFF 		bl	CyDelay
 252:.\main.c      **** 			if(EEPROM_WriteByte(lado1.dir, 26)==CYRET_SUCCESS){
 967              		.loc 1 252 0
 968 0078 A84B     		ldr	r3, .L50
 969 007a 1B78     		ldrb	r3, [r3]
 970 007c DBB2     		uxtb	r3, r3
 971 007e 1846     		mov	r0, r3
 972 0080 1A21     		movs	r1, #26
 973 0082 FFF7FEFF 		bl	EEPROM_WriteByte
 974 0086 0346     		mov	r3, r0
 975 0088 002B     		cmp	r3, #0
 976 008a 04D1     		bne	.L26
 253:.\main.c      **** 				set_imagen(1,60);								
 977              		.loc 1 253 0
 978 008c 0120     		movs	r0, #1
 979 008e 3C21     		movs	r1, #60
 980 0090 FFF7FEFF 		bl	set_imagen
 981 0094 03E0     		b	.L27
 982              	.L26:
 254:.\main.c      **** 			}
 255:.\main.c      **** 			else{
 256:.\main.c      **** 				set_imagen(1,85);
 983              		.loc 1 256 0
 984 0096 0120     		movs	r0, #1
 985 0098 5521     		movs	r1, #85
 986 009a FFF7FEFF 		bl	set_imagen
 987              	.L27:
ARM GAS  C:\Users\RECEPC~1\AppData\Local\Temp\cc8qeTl3.s 			page 23


 257:.\main.c      **** 			}
 258:.\main.c      **** 			if(EEPROM_WriteByte(lado2.dir, 28)==CYRET_SUCCESS){
 988              		.loc 1 258 0
 989 009e A04B     		ldr	r3, .L50+4
 990 00a0 1B78     		ldrb	r3, [r3]
 991 00a2 DBB2     		uxtb	r3, r3
 992 00a4 1846     		mov	r0, r3
 993 00a6 1C21     		movs	r1, #28
 994 00a8 FFF7FEFF 		bl	EEPROM_WriteByte
 995 00ac 0346     		mov	r3, r0
 996 00ae 002B     		cmp	r3, #0
 997 00b0 04D1     		bne	.L28
 259:.\main.c      **** 				set_imagen(2,60);								
 998              		.loc 1 259 0
 999 00b2 0220     		movs	r0, #2
 1000 00b4 3C21     		movs	r1, #60
 1001 00b6 FFF7FEFF 		bl	set_imagen
 1002 00ba 03E0     		b	.L29
 1003              	.L28:
 260:.\main.c      **** 			}
 261:.\main.c      **** 			else{
 262:.\main.c      **** 				set_imagen(2,85);
 1004              		.loc 1 262 0
 1005 00bc 0220     		movs	r0, #2
 1006 00be 5521     		movs	r1, #85
 1007 00c0 FFF7FEFF 		bl	set_imagen
 1008              	.L29:
 263:.\main.c      **** 			}
 264:.\main.c      **** 			flujo_LCD2=0;
 1009              		.loc 1 264 0
 1010 00c4 974B     		ldr	r3, .L50+8
 1011 00c6 0022     		movs	r2, #0
 1012 00c8 1A70     		strb	r2, [r3]
 265:.\main.c      **** 			flujo_LCD1=0;			
 1013              		.loc 1 265 0
 1014 00ca 974B     		ldr	r3, .L50+12
 1015 00cc 0022     		movs	r2, #0
 1016 00ce 1A70     		strb	r2, [r3]
 266:.\main.c      **** 			ok=2;	
 1017              		.loc 1 266 0
 1018 00d0 0223     		movs	r3, #2
 1019 00d2 FB71     		strb	r3, [r7, #7]
 1020 00d4 1BE1     		b	.L20
 1021              	.L22:
 267:.\main.c      **** 		}
 268:.\main.c      **** 		else{
 269:.\main.c      **** 			estado=get_estado(lado1.dir);										
 1022              		.loc 1 269 0
 1023 00d6 914B     		ldr	r3, .L50
 1024 00d8 1B78     		ldrb	r3, [r3]
 1025 00da DBB2     		uxtb	r3, r3
 1026 00dc 1846     		mov	r0, r3
 1027 00de FFF7FEFF 		bl	get_estado
 1028 00e2 0346     		mov	r3, r0
 1029 00e4 BB71     		strb	r3, [r7, #6]
 270:.\main.c      **** 			switch(estado){
 1030              		.loc 1 270 0
ARM GAS  C:\Users\RECEPC~1\AppData\Local\Temp\cc8qeTl3.s 			page 24


 1031 00e6 BB79     		ldrb	r3, [r7, #6]	@ zero_extendqisi2
 1032 00e8 0C2B     		cmp	r3, #12
 1033 00ea 7ED8     		bhi	.L30
 1034 00ec 01A2     		adr	r2, .L32
 1035 00ee 52F823F0 		ldr	pc, [r2, r3, lsl #2]
 1036 00f2 00BF     		.p2align 2
 1037              	.L32:
 1038 00f4 29010000 		.word	.L31+1
 1039 00f8 EB010000 		.word	.L30+1
 1040 00fc EB010000 		.word	.L30+1
 1041 0100 EB010000 		.word	.L30+1
 1042 0104 EB010000 		.word	.L30+1
 1043 0108 EB010000 		.word	.L30+1
 1044 010c 31010000 		.word	.L33+1
 1045 0110 6D010000 		.word	.L34+1
 1046 0114 97010000 		.word	.L35+1
 1047 0118 AB010000 		.word	.L36+1
 1048 011c C7010000 		.word	.L37+1
 1049 0120 B9010000 		.word	.L38+1
 1050 0124 D5010000 		.word	.L39+1
 1051              		.p2align 1
 1052              	.L31:
 271:.\main.c      **** 		         case 0:                     
 272:.\main.c      **** 					lado1.dir=0xFF;
 1053              		.loc 1 272 0
 1054 0128 7C4B     		ldr	r3, .L50
 1055 012a FF22     		movs	r2, #255
 1056 012c 1A70     		strb	r2, [r3]
 273:.\main.c      **** 				 break;	
 1057              		.loc 1 273 0
 1058 012e 5CE0     		b	.L30
 1059              	.L33:
 274:.\main.c      **** 			
 275:.\main.c      **** 				case 0x06:
 276:.\main.c      **** 					venta(lado1.dir);
 1060              		.loc 1 276 0
 1061 0130 7A4B     		ldr	r3, .L50
 1062 0132 1B78     		ldrb	r3, [r3]
 1063 0134 DBB2     		uxtb	r3, r3
 1064 0136 1846     		mov	r0, r3
 1065 0138 FFF7FEFF 		bl	venta
 277:.\main.c      **** 					CyDelay(50);	
 1066              		.loc 1 277 0
 1067 013c 3220     		movs	r0, #50
 1068 013e FFF7FEFF 		bl	CyDelay
 278:.\main.c      **** 					totales(lado1.dir, lado1.mangueras);
 1069              		.loc 1 278 0
 1070 0142 764B     		ldr	r3, .L50
 1071 0144 1B78     		ldrb	r3, [r3]
 1072 0146 DAB2     		uxtb	r2, r3
 1073 0148 744B     		ldr	r3, .L50
 1074 014a 93F85C30 		ldrb	r3, [r3, #92]
 1075 014e DBB2     		uxtb	r3, r3
 1076 0150 1046     		mov	r0, r2
 1077 0152 1946     		mov	r1, r3
 1078 0154 FFF7FEFF 		bl	totales
 279:.\main.c      **** 					CyDelay(50);	
ARM GAS  C:\Users\RECEPC~1\AppData\Local\Temp\cc8qeTl3.s 			page 25


 1079              		.loc 1 279 0
 1080 0158 3220     		movs	r0, #50
 1081 015a FFF7FEFF 		bl	CyDelay
 280:.\main.c      **** 					flujo_LCD1=0;					
 1082              		.loc 1 280 0
 1083 015e 724B     		ldr	r3, .L50+12
 1084 0160 0022     		movs	r2, #0
 1085 0162 1A70     		strb	r2, [r3]
 281:.\main.c      **** 					ok++;
 1086              		.loc 1 281 0
 1087 0164 FB79     		ldrb	r3, [r7, #7]	@ zero_extendqisi2
 1088 0166 0133     		adds	r3, r3, #1
 1089 0168 FB71     		strb	r3, [r7, #7]
 282:.\main.c      **** 				break;
 1090              		.loc 1 282 0
 1091 016a 3EE0     		b	.L30
 1092              	.L34:
 283:.\main.c      **** 					
 284:.\main.c      **** 				case 0x07:	
 285:.\main.c      **** 					totales(lado1.dir, lado1.mangueras);
 1093              		.loc 1 285 0
 1094 016c 6B4B     		ldr	r3, .L50
 1095 016e 1B78     		ldrb	r3, [r3]
 1096 0170 DAB2     		uxtb	r2, r3
 1097 0172 6A4B     		ldr	r3, .L50
 1098 0174 93F85C30 		ldrb	r3, [r3, #92]
 1099 0178 DBB2     		uxtb	r3, r3
 1100 017a 1046     		mov	r0, r2
 1101 017c 1946     		mov	r1, r3
 1102 017e FFF7FEFF 		bl	totales
 286:.\main.c      **** 					CyDelay(50);	
 1103              		.loc 1 286 0
 1104 0182 3220     		movs	r0, #50
 1105 0184 FFF7FEFF 		bl	CyDelay
 287:.\main.c      **** 					flujo_LCD1=0;					
 1106              		.loc 1 287 0
 1107 0188 674B     		ldr	r3, .L50+12
 1108 018a 0022     		movs	r2, #0
 1109 018c 1A70     		strb	r2, [r3]
 288:.\main.c      **** 					ok++;
 1110              		.loc 1 288 0
 1111 018e FB79     		ldrb	r3, [r7, #7]	@ zero_extendqisi2
 1112 0190 0133     		adds	r3, r3, #1
 1113 0192 FB71     		strb	r3, [r7, #7]
 289:.\main.c      **** 				break;
 1114              		.loc 1 289 0
 1115 0194 29E0     		b	.L30
 1116              	.L35:
 290:.\main.c      **** 				
 291:.\main.c      **** 				case 0x08:
 292:.\main.c      **** 			     	flujo_LCD1=8;
 1117              		.loc 1 292 0
 1118 0196 644B     		ldr	r3, .L50+12
 1119 0198 0822     		movs	r2, #8
 1120 019a 1A70     		strb	r2, [r3]
 293:.\main.c      ****                     seleccion_pos = 1;
 1121              		.loc 1 293 0
ARM GAS  C:\Users\RECEPC~1\AppData\Local\Temp\cc8qeTl3.s 			page 26


 1122 019c 634B     		ldr	r3, .L50+16
 1123 019e 0122     		movs	r2, #1
 1124 01a0 1A70     		strb	r2, [r3]
 294:.\main.c      **** 					ok++;
 1125              		.loc 1 294 0
 1126 01a2 FB79     		ldrb	r3, [r7, #7]	@ zero_extendqisi2
 1127 01a4 0133     		adds	r3, r3, #1
 1128 01a6 FB71     		strb	r3, [r7, #7]
 295:.\main.c      **** 				break;
 1129              		.loc 1 295 0
 1130 01a8 1FE0     		b	.L30
 1131              	.L36:
 296:.\main.c      **** 					
 297:.\main.c      **** 				case 0x09:
 298:.\main.c      **** 			     	flujo_LCD1=11;
 1132              		.loc 1 298 0
 1133 01aa 5F4B     		ldr	r3, .L50+12
 1134 01ac 0B22     		movs	r2, #11
 1135 01ae 1A70     		strb	r2, [r3]
 299:.\main.c      **** 					ok++;
 1136              		.loc 1 299 0
 1137 01b0 FB79     		ldrb	r3, [r7, #7]	@ zero_extendqisi2
 1138 01b2 0133     		adds	r3, r3, #1
 1139 01b4 FB71     		strb	r3, [r7, #7]
 300:.\main.c      **** 				break;
 1140              		.loc 1 300 0
 1141 01b6 18E0     		b	.L30
 1142              	.L38:
 301:.\main.c      **** 				
 302:.\main.c      **** 		         case 0x0B:                     //Termino venta
 303:.\main.c      **** 					flujo_LCD1=12;
 1143              		.loc 1 303 0
 1144 01b8 5B4B     		ldr	r3, .L50+12
 1145 01ba 0C22     		movs	r2, #12
 1146 01bc 1A70     		strb	r2, [r3]
 304:.\main.c      **** 					ok++;
 1147              		.loc 1 304 0
 1148 01be FB79     		ldrb	r3, [r7, #7]	@ zero_extendqisi2
 1149 01c0 0133     		adds	r3, r3, #1
 1150 01c2 FB71     		strb	r3, [r7, #7]
 305:.\main.c      **** 				 break;	
 1151              		.loc 1 305 0
 1152 01c4 11E0     		b	.L30
 1153              	.L37:
 306:.\main.c      **** 					
 307:.\main.c      **** 		         case 0x0A:						//Termino venta
 308:.\main.c      **** 					flujo_LCD1=12;
 1154              		.loc 1 308 0
 1155 01c6 584B     		ldr	r3, .L50+12
 1156 01c8 0C22     		movs	r2, #12
 1157 01ca 1A70     		strb	r2, [r3]
 309:.\main.c      **** 					ok++;
 1158              		.loc 1 309 0
 1159 01cc FB79     		ldrb	r3, [r7, #7]	@ zero_extendqisi2
 1160 01ce 0133     		adds	r3, r3, #1
 1161 01d0 FB71     		strb	r3, [r7, #7]
 310:.\main.c      **** 				 break;
ARM GAS  C:\Users\RECEPC~1\AppData\Local\Temp\cc8qeTl3.s 			page 27


 1162              		.loc 1 310 0
 1163 01d2 0AE0     		b	.L30
 1164              	.L39:
 311:.\main.c      **** 					
 312:.\main.c      **** 		         case 0x0C:						//Bloqueado por surtiendo al iniciar
 313:.\main.c      **** 			     	flujo_LCD1=11;
 1165              		.loc 1 313 0
 1166 01d4 544B     		ldr	r3, .L50+12
 1167 01d6 0B22     		movs	r2, #11
 1168 01d8 1A70     		strb	r2, [r3]
 314:.\main.c      **** 				 	set_imagen(1,8);
 1169              		.loc 1 314 0
 1170 01da 0120     		movs	r0, #1
 1171 01dc 0821     		movs	r1, #8
 1172 01de FFF7FEFF 		bl	set_imagen
 315:.\main.c      **** 					ok++;
 1173              		.loc 1 315 0
 1174 01e2 FB79     		ldrb	r3, [r7, #7]	@ zero_extendqisi2
 1175 01e4 0133     		adds	r3, r3, #1
 1176 01e6 FB71     		strb	r3, [r7, #7]
 316:.\main.c      **** 				 break;					
 1177              		.loc 1 316 0
 1178 01e8 00BF     		nop
 1179              	.L30:
 317:.\main.c      **** 					
 318:.\main.c      **** 			}
 319:.\main.c      **** 			estado=get_estado(lado2.dir);										
 1180              		.loc 1 319 0
 1181 01ea 4D4B     		ldr	r3, .L50+4
 1182 01ec 1B78     		ldrb	r3, [r3]
 1183 01ee DBB2     		uxtb	r3, r3
 1184 01f0 1846     		mov	r0, r3
 1185 01f2 FFF7FEFF 		bl	get_estado
 1186 01f6 0346     		mov	r3, r0
 1187 01f8 BB71     		strb	r3, [r7, #6]
 320:.\main.c      **** 			switch(estado){
 1188              		.loc 1 320 0
 1189 01fa BB79     		ldrb	r3, [r7, #6]	@ zero_extendqisi2
 1190 01fc 0C2B     		cmp	r3, #12
 1191 01fe 00F28680 		bhi	.L20
 1192 0202 01A2     		adr	r2, .L41
 1193 0204 52F823F0 		ldr	pc, [r2, r3, lsl #2]
 1194              		.p2align 2
 1195              	.L41:
 1196 0208 3D020000 		.word	.L40+1
 1197 020c 0F030000 		.word	.L20+1
 1198 0210 0F030000 		.word	.L20+1
 1199 0214 0F030000 		.word	.L20+1
 1200 0218 0F030000 		.word	.L20+1
 1201 021c 0F030000 		.word	.L20+1
 1202 0220 45020000 		.word	.L42+1
 1203 0224 81020000 		.word	.L43+1
 1204 0228 AB020000 		.word	.L44+1
 1205 022c C7020000 		.word	.L45+1
 1206 0230 EB020000 		.word	.L46+1
 1207 0234 DD020000 		.word	.L47+1
 1208 0238 F9020000 		.word	.L48+1
ARM GAS  C:\Users\RECEPC~1\AppData\Local\Temp\cc8qeTl3.s 			page 28


 1209              		.p2align 1
 1210              	.L40:
 321:.\main.c      **** 		         case 0:                     
 322:.\main.c      **** 					lado2.dir=0xFF;
 1211              		.loc 1 322 0
 1212 023c 384B     		ldr	r3, .L50+4
 1213 023e FF22     		movs	r2, #255
 1214 0240 1A70     		strb	r2, [r3]
 323:.\main.c      **** 				 break;	
 1215              		.loc 1 323 0
 1216 0242 64E0     		b	.L20
 1217              	.L42:
 324:.\main.c      **** 			
 325:.\main.c      **** 				case 0x06:
 326:.\main.c      **** 					venta(lado2.dir);
 1218              		.loc 1 326 0
 1219 0244 364B     		ldr	r3, .L50+4
 1220 0246 1B78     		ldrb	r3, [r3]
 1221 0248 DBB2     		uxtb	r3, r3
 1222 024a 1846     		mov	r0, r3
 1223 024c FFF7FEFF 		bl	venta
 327:.\main.c      **** 					CyDelay(50);		
 1224              		.loc 1 327 0
 1225 0250 3220     		movs	r0, #50
 1226 0252 FFF7FEFF 		bl	CyDelay
 328:.\main.c      **** 					totales(lado2.dir, lado2.mangueras);
 1227              		.loc 1 328 0
 1228 0256 324B     		ldr	r3, .L50+4
 1229 0258 1B78     		ldrb	r3, [r3]
 1230 025a DAB2     		uxtb	r2, r3
 1231 025c 304B     		ldr	r3, .L50+4
 1232 025e 93F85C30 		ldrb	r3, [r3, #92]
 1233 0262 DBB2     		uxtb	r3, r3
 1234 0264 1046     		mov	r0, r2
 1235 0266 1946     		mov	r1, r3
 1236 0268 FFF7FEFF 		bl	totales
 329:.\main.c      **** 					CyDelay(50);	
 1237              		.loc 1 329 0
 1238 026c 3220     		movs	r0, #50
 1239 026e FFF7FEFF 		bl	CyDelay
 330:.\main.c      **** 					flujo_LCD2=0;				
 1240              		.loc 1 330 0
 1241 0272 2C4B     		ldr	r3, .L50+8
 1242 0274 0022     		movs	r2, #0
 1243 0276 1A70     		strb	r2, [r3]
 331:.\main.c      **** 					ok++;
 1244              		.loc 1 331 0
 1245 0278 FB79     		ldrb	r3, [r7, #7]	@ zero_extendqisi2
 1246 027a 0133     		adds	r3, r3, #1
 1247 027c FB71     		strb	r3, [r7, #7]
 332:.\main.c      **** 				break;
 1248              		.loc 1 332 0
 1249 027e 46E0     		b	.L20
 1250              	.L43:
 333:.\main.c      **** 					
 334:.\main.c      **** 				case 0x07:	
 335:.\main.c      **** 					totales(lado2.dir, lado2.mangueras);
ARM GAS  C:\Users\RECEPC~1\AppData\Local\Temp\cc8qeTl3.s 			page 29


 1251              		.loc 1 335 0
 1252 0280 274B     		ldr	r3, .L50+4
 1253 0282 1B78     		ldrb	r3, [r3]
 1254 0284 DAB2     		uxtb	r2, r3
 1255 0286 264B     		ldr	r3, .L50+4
 1256 0288 93F85C30 		ldrb	r3, [r3, #92]
 1257 028c DBB2     		uxtb	r3, r3
 1258 028e 1046     		mov	r0, r2
 1259 0290 1946     		mov	r1, r3
 1260 0292 FFF7FEFF 		bl	totales
 336:.\main.c      **** 					CyDelay(50);	
 1261              		.loc 1 336 0
 1262 0296 3220     		movs	r0, #50
 1263 0298 FFF7FEFF 		bl	CyDelay
 337:.\main.c      **** 					flujo_LCD2=0;					
 1264              		.loc 1 337 0
 1265 029c 214B     		ldr	r3, .L50+8
 1266 029e 0022     		movs	r2, #0
 1267 02a0 1A70     		strb	r2, [r3]
 338:.\main.c      **** 					ok++;
 1268              		.loc 1 338 0
 1269 02a2 FB79     		ldrb	r3, [r7, #7]	@ zero_extendqisi2
 1270 02a4 0133     		adds	r3, r3, #1
 1271 02a6 FB71     		strb	r3, [r7, #7]
 339:.\main.c      **** 				break;
 1272              		.loc 1 339 0
 1273 02a8 31E0     		b	.L20
 1274              	.L44:
 340:.\main.c      **** 				
 341:.\main.c      **** 				case 0x08:
 342:.\main.c      **** 			     	flujo_LCD2=8;
 1275              		.loc 1 342 0
 1276 02aa 1E4B     		ldr	r3, .L50+8
 1277 02ac 0822     		movs	r2, #8
 1278 02ae 1A70     		strb	r2, [r3]
 343:.\main.c      ****                     seleccion_pos =2;
 1279              		.loc 1 343 0
 1280 02b0 1E4B     		ldr	r3, .L50+16
 1281 02b2 0222     		movs	r2, #2
 1282 02b4 1A70     		strb	r2, [r3]
 344:.\main.c      **** 				 	set_imagen(2,8);
 1283              		.loc 1 344 0
 1284 02b6 0220     		movs	r0, #2
 1285 02b8 0821     		movs	r1, #8
 1286 02ba FFF7FEFF 		bl	set_imagen
 345:.\main.c      **** 					ok++;
 1287              		.loc 1 345 0
 1288 02be FB79     		ldrb	r3, [r7, #7]	@ zero_extendqisi2
 1289 02c0 0133     		adds	r3, r3, #1
 1290 02c2 FB71     		strb	r3, [r7, #7]
 346:.\main.c      **** 				break;
 1291              		.loc 1 346 0
 1292 02c4 23E0     		b	.L20
 1293              	.L45:
 347:.\main.c      **** 					
 348:.\main.c      **** 				case 0x09:
 349:.\main.c      **** 			     	flujo_LCD2=11;
ARM GAS  C:\Users\RECEPC~1\AppData\Local\Temp\cc8qeTl3.s 			page 30


 1294              		.loc 1 349 0
 1295 02c6 174B     		ldr	r3, .L50+8
 1296 02c8 0B22     		movs	r2, #11
 1297 02ca 1A70     		strb	r2, [r3]
 350:.\main.c      **** 				 	set_imagen(2,8);
 1298              		.loc 1 350 0
 1299 02cc 0220     		movs	r0, #2
 1300 02ce 0821     		movs	r1, #8
 1301 02d0 FFF7FEFF 		bl	set_imagen
 351:.\main.c      **** 					ok++;
 1302              		.loc 1 351 0
 1303 02d4 FB79     		ldrb	r3, [r7, #7]	@ zero_extendqisi2
 1304 02d6 0133     		adds	r3, r3, #1
 1305 02d8 FB71     		strb	r3, [r7, #7]
 352:.\main.c      **** 				break;
 1306              		.loc 1 352 0
 1307 02da 18E0     		b	.L20
 1308              	.L47:
 353:.\main.c      **** 				
 354:.\main.c      **** 		         case 0x0B:                     //Termino venta
 355:.\main.c      **** 					flujo_LCD2=12;
 1309              		.loc 1 355 0
 1310 02dc 114B     		ldr	r3, .L50+8
 1311 02de 0C22     		movs	r2, #12
 1312 02e0 1A70     		strb	r2, [r3]
 356:.\main.c      **** 					ok++;
 1313              		.loc 1 356 0
 1314 02e2 FB79     		ldrb	r3, [r7, #7]	@ zero_extendqisi2
 1315 02e4 0133     		adds	r3, r3, #1
 1316 02e6 FB71     		strb	r3, [r7, #7]
 357:.\main.c      **** 				 break;	
 1317              		.loc 1 357 0
 1318 02e8 11E0     		b	.L20
 1319              	.L46:
 358:.\main.c      **** 					
 359:.\main.c      **** 		         case 0x0A:						//Termino venta
 360:.\main.c      **** 					flujo_LCD2=12;
 1320              		.loc 1 360 0
 1321 02ea 0E4B     		ldr	r3, .L50+8
 1322 02ec 0C22     		movs	r2, #12
 1323 02ee 1A70     		strb	r2, [r3]
 361:.\main.c      **** 					ok++;
 1324              		.loc 1 361 0
 1325 02f0 FB79     		ldrb	r3, [r7, #7]	@ zero_extendqisi2
 1326 02f2 0133     		adds	r3, r3, #1
 1327 02f4 FB71     		strb	r3, [r7, #7]
 362:.\main.c      **** 				 break;
 1328              		.loc 1 362 0
 1329 02f6 0AE0     		b	.L20
 1330              	.L48:
 363:.\main.c      **** 					
 364:.\main.c      **** 		         case 0x0C:						//Bloqueado por surtiendo al iniciar
 365:.\main.c      **** 			     	flujo_LCD2=11;
 1331              		.loc 1 365 0
 1332 02f8 0A4B     		ldr	r3, .L50+8
 1333 02fa 0B22     		movs	r2, #11
 1334 02fc 1A70     		strb	r2, [r3]
ARM GAS  C:\Users\RECEPC~1\AppData\Local\Temp\cc8qeTl3.s 			page 31


 366:.\main.c      **** 				 	set_imagen(2,8);
 1335              		.loc 1 366 0
 1336 02fe 0220     		movs	r0, #2
 1337 0300 0821     		movs	r1, #8
 1338 0302 FFF7FEFF 		bl	set_imagen
 367:.\main.c      **** 					ok++;
 1339              		.loc 1 367 0
 1340 0306 FB79     		ldrb	r3, [r7, #7]	@ zero_extendqisi2
 1341 0308 0133     		adds	r3, r3, #1
 1342 030a FB71     		strb	r3, [r7, #7]
 368:.\main.c      **** 				 break;										
 1343              		.loc 1 368 0
 1344 030c 00BF     		nop
 1345              	.L20:
 244:.\main.c      **** 		ok=0;
 1346              		.loc 1 244 0
 1347 030e FB79     		ldrb	r3, [r7, #7]	@ zero_extendqisi2
 1348 0310 012B     		cmp	r3, #1
 1349 0312 7FF67BAE 		bls	.L49
 369:.\main.c      **** 			}			
 370:.\main.c      **** 		}
 371:.\main.c      **** 	}
 372:.\main.c      **** }
 1350              		.loc 1 372 0
 1351 0316 0837     		adds	r7, r7, #8
 1352              		.cfi_def_cfa_offset 8
 1353 0318 BD46     		mov	sp, r7
 1354              		.cfi_def_cfa_register 13
 1355              		@ sp needed
 1356 031a 80BD     		pop	{r7, pc}
 1357              	.L51:
 1358              		.align	2
 1359              	.L50:
 1360 031c 00000000 		.word	lado1
 1361 0320 00000000 		.word	lado2
 1362 0324 00000000 		.word	flujo_LCD2
 1363 0328 00000000 		.word	flujo_LCD1
 1364 032c 00000000 		.word	seleccion_pos
 1365              		.cfi_endproc
 1366              	.LFE66:
 1367              		.size	init_surt, .-init_surt
 1368              		.section	.text.polling_rf,"ax",%progbits
 1369              		.align	2
 1370              		.global	polling_rf
 1371              		.thumb
 1372              		.thumb_func
 1373              		.type	polling_rf, %function
 1374              	polling_rf:
 1375              	.LFB67:
 373:.\main.c      **** 
 374:.\main.c      **** /*
 375:.\main.c      **** ***************************************************************************************************
 376:.\main.c      **** *                                         uint8 polling_rf(void)
 377:.\main.c      **** *
 378:.\main.c      **** * Description : 
 379:.\main.c      **** *               
 380:.\main.c      **** *
ARM GAS  C:\Users\RECEPC~1\AppData\Local\Temp\cc8qeTl3.s 			page 32


 381:.\main.c      **** * Argument(s) : none
 382:.\main.c      **** *
 383:.\main.c      **** * Return(s)   : none
 384:.\main.c      **** *
 385:.\main.c      **** * Caller(s)   : 
 386:.\main.c      **** *
 387:.\main.c      **** * Note(s)     : none.
 388:.\main.c      **** ***************************************************************************************************
 389:.\main.c      **** */
 390:.\main.c      **** void polling_rf(void){
 1376              		.loc 1 390 0
 1377              		.cfi_startproc
 1378              		@ args = 0, pretend = 0, frame = 24
 1379              		@ frame_needed = 1, uses_anonymous_args = 0
 1380 0000 80B5     		push	{r7, lr}
 1381              		.cfi_def_cfa_offset 8
 1382              		.cfi_offset 7, -8
 1383              		.cfi_offset 14, -4
 1384 0002 86B0     		sub	sp, sp, #24
 1385              		.cfi_def_cfa_offset 32
 1386 0004 00AF     		add	r7, sp, #0
 1387              		.cfi_def_cfa_register 7
 391:.\main.c      **** 	uint16 status1, status2,size,x,t_preset;
 392:.\main.c      **** 	uint8  precio[5],preset[8];
 393:.\main.c      ****     
 394:.\main.c      **** 	if(PC_GetRxBufferSize()>=6){
 1388              		.loc 1 394 0
 1389 0006 FFF7FEFF 		bl	PC_GetRxBufferSize
 1390 000a 0346     		mov	r3, r0
 1391 000c 052B     		cmp	r3, #5
 1392 000e 40F27982 		bls	.L52
 395:.\main.c      **** 		status1=PC_GetRxBufferSize();
 1393              		.loc 1 395 0
 1394 0012 FFF7FEFF 		bl	PC_GetRxBufferSize
 1395 0016 0346     		mov	r3, r0
 1396 0018 3B82     		strh	r3, [r7, #16]	@ movhi
 396:.\main.c      **** 		CyDelay(10);
 1397              		.loc 1 396 0
 1398 001a 0A20     		movs	r0, #10
 1399 001c FFF7FEFF 		bl	CyDelay
 397:.\main.c      **** 		status2=PC_GetRxBufferSize();
 1400              		.loc 1 397 0
 1401 0020 FFF7FEFF 		bl	PC_GetRxBufferSize
 1402 0024 0346     		mov	r3, r0
 1403 0026 FB81     		strh	r3, [r7, #14]	@ movhi
 398:.\main.c      **** 		if(status1==status2){		
 1404              		.loc 1 398 0
 1405 0028 3A8A     		ldrh	r2, [r7, #16]
 1406 002a FB89     		ldrh	r3, [r7, #14]
 1407 002c 9A42     		cmp	r2, r3
 1408 002e 40F06982 		bne	.L52
 399:.\main.c      **** 			if((PC_rxBuffer[0]=='B')&&(PC_rxBuffer[1]=='B')&&(PC_rxBuffer[2]=='B')){
 1409              		.loc 1 399 0
 1410 0032 924B     		ldr	r3, .L87
 1411 0034 1B78     		ldrb	r3, [r3]
 1412 0036 DBB2     		uxtb	r3, r3
 1413 0038 422B     		cmp	r3, #66
ARM GAS  C:\Users\RECEPC~1\AppData\Local\Temp\cc8qeTl3.s 			page 33


 1414 003a 40F05B82 		bne	.L54
 1415              		.loc 1 399 0 is_stmt 0 discriminator 1
 1416 003e 8F4B     		ldr	r3, .L87
 1417 0040 5B78     		ldrb	r3, [r3, #1]
 1418 0042 DBB2     		uxtb	r3, r3
 1419 0044 422B     		cmp	r3, #66
 1420 0046 40F05582 		bne	.L54
 1421              		.loc 1 399 0 discriminator 2
 1422 004a 8C4B     		ldr	r3, .L87
 1423 004c 9B78     		ldrb	r3, [r3, #2]
 1424 004e DBB2     		uxtb	r3, r3
 1425 0050 422B     		cmp	r3, #66
 1426 0052 40F04F82 		bne	.L54
 400:.\main.c      **** 				ok_datosRF=0;   
 1427              		.loc 1 400 0 is_stmt 1
 1428 0056 8A4B     		ldr	r3, .L87+4
 1429 0058 0022     		movs	r2, #0
 1430 005a 1A70     		strb	r2, [r3]
 401:.\main.c      **** 				switch(PC_rxBuffer[3]){
 1431              		.loc 1 401 0
 1432 005c 874B     		ldr	r3, .L87
 1433 005e DB78     		ldrb	r3, [r3, #3]
 1434 0060 DBB2     		uxtb	r3, r3
 1435 0062 312B     		cmp	r3, #49
 1436 0064 00F0DE81 		beq	.L56
 1437 0068 452B     		cmp	r3, #69
 1438 006a 00F00482 		beq	.L57
 1439 006e 302B     		cmp	r3, #48
 1440 0070 40F02C82 		bne	.L55
 402:.\main.c      **** 					case cautorizar:
 403:.\main.c      ****                     PC_rxBuffer[3] = 0;
 1441              		.loc 1 403 0
 1442 0074 814B     		ldr	r3, .L87
 1443 0076 0022     		movs	r2, #0
 1444 0078 DA70     		strb	r2, [r3, #3]
 404:.\main.c      **** 						if(PC_rxBuffer[5]=='N'){			//No autorizo el servidor		
 1445              		.loc 1 404 0
 1446 007a 804B     		ldr	r3, .L87
 1447 007c 5B79     		ldrb	r3, [r3, #5]
 1448 007e DBB2     		uxtb	r3, r3
 1449 0080 4E2B     		cmp	r3, #78
 1450 0082 0AD1     		bne	.L59
 405:.\main.c      **** 							error_op((PC_rxBuffer[4] & 0x0F),28);
 1451              		.loc 1 405 0
 1452 0084 7D4B     		ldr	r3, .L87
 1453 0086 1B79     		ldrb	r3, [r3, #4]
 1454 0088 DBB2     		uxtb	r3, r3
 1455 008a 03F00F03 		and	r3, r3, #15
 1456 008e DBB2     		uxtb	r3, r3
 1457 0090 1846     		mov	r0, r3
 1458 0092 1C21     		movs	r1, #28
 1459 0094 FFF7FEFF 		bl	error_op
 406:.\main.c      **** 							break;
 1460              		.loc 1 406 0
 1461 0098 18E2     		b	.L55
 1462              	.L59:
 407:.\main.c      **** 						}
ARM GAS  C:\Users\RECEPC~1\AppData\Local\Temp\cc8qeTl3.s 			page 34


 408:.\main.c      **** 						if(PC_rxBuffer[10]=='F'){		//Cambia precio
 1463              		.loc 1 408 0
 1464 009a 784B     		ldr	r3, .L87
 1465 009c 9B7A     		ldrb	r3, [r3, #10]
 1466 009e DBB2     		uxtb	r3, r3
 1467 00a0 462B     		cmp	r3, #70
 1468 00a2 7DD1     		bne	.L60
 409:.\main.c      ****                             precio[0]=lado1.ppu[rventa1.manguera-1][0]&0x0f;	
 1469              		.loc 1 409 0
 1470 00a4 774B     		ldr	r3, .L87+8
 1471 00a6 9B7E     		ldrb	r3, [r3, #26]	@ zero_extendqisi2
 1472 00a8 5A1E     		subs	r2, r3, #1
 1473 00aa 7749     		ldr	r1, .L87+12
 1474 00ac 1346     		mov	r3, r2
 1475 00ae 9B00     		lsls	r3, r3, #2
 1476 00b0 1344     		add	r3, r3, r2
 1477 00b2 0B44     		add	r3, r3, r1
 1478 00b4 4833     		adds	r3, r3, #72
 1479 00b6 9B78     		ldrb	r3, [r3, #2]
 1480 00b8 DBB2     		uxtb	r3, r3
 1481 00ba 03F00F03 		and	r3, r3, #15
 1482 00be DBB2     		uxtb	r3, r3
 1483 00c0 3B72     		strb	r3, [r7, #8]
 410:.\main.c      ****     						precio[1]=lado1.ppu[rventa1.manguera-1][1]&0x0f;
 1484              		.loc 1 410 0
 1485 00c2 704B     		ldr	r3, .L87+8
 1486 00c4 9B7E     		ldrb	r3, [r3, #26]	@ zero_extendqisi2
 1487 00c6 5A1E     		subs	r2, r3, #1
 1488 00c8 6F49     		ldr	r1, .L87+12
 1489 00ca 1346     		mov	r3, r2
 1490 00cc 9B00     		lsls	r3, r3, #2
 1491 00ce 1344     		add	r3, r3, r2
 1492 00d0 0B44     		add	r3, r3, r1
 1493 00d2 4933     		adds	r3, r3, #73
 1494 00d4 9B78     		ldrb	r3, [r3, #2]
 1495 00d6 DBB2     		uxtb	r3, r3
 1496 00d8 03F00F03 		and	r3, r3, #15
 1497 00dc DBB2     		uxtb	r3, r3
 1498 00de 7B72     		strb	r3, [r7, #9]
 411:.\main.c      ****     						precio[2]=lado1.ppu[rventa1.manguera-1][2]&0x0f;
 1499              		.loc 1 411 0
 1500 00e0 684B     		ldr	r3, .L87+8
 1501 00e2 9B7E     		ldrb	r3, [r3, #26]	@ zero_extendqisi2
 1502 00e4 5A1E     		subs	r2, r3, #1
 1503 00e6 6849     		ldr	r1, .L87+12
 1504 00e8 1346     		mov	r3, r2
 1505 00ea 9B00     		lsls	r3, r3, #2
 1506 00ec 1344     		add	r3, r3, r2
 1507 00ee 0B44     		add	r3, r3, r1
 1508 00f0 4A33     		adds	r3, r3, #74
 1509 00f2 9B78     		ldrb	r3, [r3, #2]
 1510 00f4 DBB2     		uxtb	r3, r3
 1511 00f6 03F00F03 		and	r3, r3, #15
 1512 00fa DBB2     		uxtb	r3, r3
 1513 00fc BB72     		strb	r3, [r7, #10]
 412:.\main.c      ****     						precio[3]=lado1.ppu[rventa1.manguera-1][3]&0x0f;
 1514              		.loc 1 412 0
ARM GAS  C:\Users\RECEPC~1\AppData\Local\Temp\cc8qeTl3.s 			page 35


 1515 00fe 614B     		ldr	r3, .L87+8
 1516 0100 9B7E     		ldrb	r3, [r3, #26]	@ zero_extendqisi2
 1517 0102 5A1E     		subs	r2, r3, #1
 1518 0104 6049     		ldr	r1, .L87+12
 1519 0106 1346     		mov	r3, r2
 1520 0108 9B00     		lsls	r3, r3, #2
 1521 010a 1344     		add	r3, r3, r2
 1522 010c 0B44     		add	r3, r3, r1
 1523 010e 4B33     		adds	r3, r3, #75
 1524 0110 9B78     		ldrb	r3, [r3, #2]
 1525 0112 DBB2     		uxtb	r3, r3
 1526 0114 03F00F03 		and	r3, r3, #15
 1527 0118 DBB2     		uxtb	r3, r3
 1528 011a FB72     		strb	r3, [r7, #11]
 413:.\main.c      ****     						precio[4]=lado1.ppu[rventa1.manguera-1][4]&0x0f;
 1529              		.loc 1 413 0
 1530 011c 594B     		ldr	r3, .L87+8
 1531 011e 9B7E     		ldrb	r3, [r3, #26]	@ zero_extendqisi2
 1532 0120 5A1E     		subs	r2, r3, #1
 1533 0122 5949     		ldr	r1, .L87+12
 1534 0124 1346     		mov	r3, r2
 1535 0126 9B00     		lsls	r3, r3, #2
 1536 0128 1344     		add	r3, r3, r2
 1537 012a 0B44     		add	r3, r3, r1
 1538 012c 4C33     		adds	r3, r3, #76
 1539 012e 9B78     		ldrb	r3, [r3, #2]
 1540 0130 DBB2     		uxtb	r3, r3
 1541 0132 03F00F03 		and	r3, r3, #15
 1542 0136 DBB2     		uxtb	r3, r3
 1543 0138 3B73     		strb	r3, [r7, #12]
 414:.\main.c      ****                         	if(cambiar_precio((lado1.dir & 0x0F),precio,rventa1.manguera)==0){
 1544              		.loc 1 414 0
 1545 013a 534B     		ldr	r3, .L87+12
 1546 013c 1B78     		ldrb	r3, [r3]
 1547 013e DBB2     		uxtb	r3, r3
 1548 0140 03F00F03 		and	r3, r3, #15
 1549 0144 D9B2     		uxtb	r1, r3
 1550 0146 4F4B     		ldr	r3, .L87+8
 1551 0148 9B7E     		ldrb	r3, [r3, #26]	@ zero_extendqisi2
 1552 014a 07F10802 		add	r2, r7, #8
 1553 014e 0846     		mov	r0, r1
 1554 0150 1146     		mov	r1, r2
 1555 0152 1A46     		mov	r2, r3
 1556 0154 FFF7FEFF 		bl	cambiar_precio
 1557 0158 0346     		mov	r3, r0
 1558 015a 002B     		cmp	r3, #0
 1559 015c 40F09A80 		bne	.L61
 415:.\main.c      **** 								rf_mod[0]='M';
 1560              		.loc 1 415 0
 1561 0160 4A4B     		ldr	r3, .L87+16
 1562 0162 4D22     		movs	r2, #77
 1563 0164 1A70     		strb	r2, [r3]
 416:.\main.c      **** 								rf_mod[1]='U';
 1564              		.loc 1 416 0
 1565 0166 494B     		ldr	r3, .L87+16
 1566 0168 5522     		movs	r2, #85
 1567 016a 5A70     		strb	r2, [r3, #1]
ARM GAS  C:\Users\RECEPC~1\AppData\Local\Temp\cc8qeTl3.s 			page 36


 417:.\main.c      **** 								rf_mod[2]='X';
 1568              		.loc 1 417 0
 1569 016c 474B     		ldr	r3, .L87+16
 1570 016e 5822     		movs	r2, #88
 1571 0170 9A70     		strb	r2, [r3, #2]
 418:.\main.c      **** 								rf_mod[3]=creset;
 1572              		.loc 1 418 0
 1573 0172 464B     		ldr	r3, .L87+16
 1574 0174 4522     		movs	r2, #69
 1575 0176 DA70     		strb	r2, [r3, #3]
 419:.\main.c      **** 								rf_mod[4]=cautorizar;
 1576              		.loc 1 419 0
 1577 0178 444B     		ldr	r3, .L87+16
 1578 017a 3022     		movs	r2, #48
 1579 017c 1A71     		strb	r2, [r3, #4]
 420:.\main.c      **** 								rf_mod[5]=PC_rxBuffer[4];
 1580              		.loc 1 420 0
 1581 017e 3F4B     		ldr	r3, .L87
 1582 0180 1B79     		ldrb	r3, [r3, #4]
 1583 0182 DAB2     		uxtb	r2, r3
 1584 0184 414B     		ldr	r3, .L87+16
 1585 0186 5A71     		strb	r2, [r3, #5]
 421:.\main.c      **** 								rf_mod[6]='1';
 1586              		.loc 1 421 0
 1587 0188 404B     		ldr	r3, .L87+16
 1588 018a 3122     		movs	r2, #49
 1589 018c 9A71     		strb	r2, [r3, #6]
 422:.\main.c      **** 								rf_mod[7]='*';
 1590              		.loc 1 422 0
 1591 018e 3F4B     		ldr	r3, .L87+16
 1592 0190 2A22     		movs	r2, #42
 1593 0192 DA71     		strb	r2, [r3, #7]
 423:.\main.c      **** 								size=8;
 1594              		.loc 1 423 0
 1595 0194 0823     		movs	r3, #8
 1596 0196 FB82     		strh	r3, [r7, #22]	@ movhi
 424:.\main.c      **** 								ok_datosRF=1;
 1597              		.loc 1 424 0
 1598 0198 394B     		ldr	r3, .L87+4
 1599 019a 0122     		movs	r2, #1
 1600 019c 1A70     		strb	r2, [r3]
 425:.\main.c      **** 								break;
 1601              		.loc 1 425 0
 1602 019e 95E1     		b	.L55
 1603              	.L60:
 426:.\main.c      **** 							}                                                      
 427:.\main.c      ****   						}
 428:.\main.c      ****                         else{
 429:.\main.c      **** 							totales(lado1.dir, lado1.mangueras);
 1604              		.loc 1 429 0
 1605 01a0 394B     		ldr	r3, .L87+12
 1606 01a2 1B78     		ldrb	r3, [r3]
 1607 01a4 DAB2     		uxtb	r2, r3
 1608 01a6 384B     		ldr	r3, .L87+12
 1609 01a8 93F85C30 		ldrb	r3, [r3, #92]
 1610 01ac DBB2     		uxtb	r3, r3
 1611 01ae 1046     		mov	r0, r2
ARM GAS  C:\Users\RECEPC~1\AppData\Local\Temp\cc8qeTl3.s 			page 37


 1612 01b0 1946     		mov	r1, r3
 1613 01b2 FFF7FEFF 		bl	totales
 430:.\main.c      ****                             if(ppux10==1){
 1614              		.loc 1 430 0
 1615 01b6 364B     		ldr	r3, .L87+20
 1616 01b8 1B78     		ldrb	r3, [r3]
 1617 01ba DBB2     		uxtb	r3, r3
 1618 01bc 012B     		cmp	r3, #1
 1619 01be 11D1     		bne	.L62
 431:.\main.c      ****     							precio[4]=PC_rxBuffer[9];	
 1620              		.loc 1 431 0
 1621 01c0 2E4B     		ldr	r3, .L87
 1622 01c2 5B7A     		ldrb	r3, [r3, #9]
 1623 01c4 DBB2     		uxtb	r3, r3
 1624 01c6 3B73     		strb	r3, [r7, #12]
 432:.\main.c      ****     							precio[3]=PC_rxBuffer[8];
 1625              		.loc 1 432 0
 1626 01c8 2C4B     		ldr	r3, .L87
 1627 01ca 1B7A     		ldrb	r3, [r3, #8]
 1628 01cc DBB2     		uxtb	r3, r3
 1629 01ce FB72     		strb	r3, [r7, #11]
 433:.\main.c      ****     							precio[2]=PC_rxBuffer[7];
 1630              		.loc 1 433 0
 1631 01d0 2A4B     		ldr	r3, .L87
 1632 01d2 DB79     		ldrb	r3, [r3, #7]
 1633 01d4 DBB2     		uxtb	r3, r3
 1634 01d6 BB72     		strb	r3, [r7, #10]
 434:.\main.c      ****     							precio[1]=PC_rxBuffer[6];
 1635              		.loc 1 434 0
 1636 01d8 284B     		ldr	r3, .L87
 1637 01da 9B79     		ldrb	r3, [r3, #6]
 1638 01dc DBB2     		uxtb	r3, r3
 1639 01de 7B72     		strb	r3, [r7, #9]
 435:.\main.c      ****     							precio[0]=0;			
 1640              		.loc 1 435 0
 1641 01e0 0023     		movs	r3, #0
 1642 01e2 3B72     		strb	r3, [r7, #8]
 1643              	.L62:
 436:.\main.c      ****                             }
 437:.\main.c      ****                             if(ppux10==0){
 1644              		.loc 1 437 0
 1645 01e4 2A4B     		ldr	r3, .L87+20
 1646 01e6 1B78     		ldrb	r3, [r3]
 1647 01e8 DBB2     		uxtb	r3, r3
 1648 01ea 002B     		cmp	r3, #0
 1649 01ec 13D1     		bne	.L63
 438:.\main.c      ****     							precio[4]=PC_rxBuffer[10];	
 1650              		.loc 1 438 0
 1651 01ee 234B     		ldr	r3, .L87
 1652 01f0 9B7A     		ldrb	r3, [r3, #10]
 1653 01f2 DBB2     		uxtb	r3, r3
 1654 01f4 3B73     		strb	r3, [r7, #12]
 439:.\main.c      ****     							precio[3]=PC_rxBuffer[9];
 1655              		.loc 1 439 0
 1656 01f6 214B     		ldr	r3, .L87
 1657 01f8 5B7A     		ldrb	r3, [r3, #9]
 1658 01fa DBB2     		uxtb	r3, r3
ARM GAS  C:\Users\RECEPC~1\AppData\Local\Temp\cc8qeTl3.s 			page 38


 1659 01fc FB72     		strb	r3, [r7, #11]
 440:.\main.c      ****     							precio[2]=PC_rxBuffer[8];
 1660              		.loc 1 440 0
 1661 01fe 1F4B     		ldr	r3, .L87
 1662 0200 1B7A     		ldrb	r3, [r3, #8]
 1663 0202 DBB2     		uxtb	r3, r3
 1664 0204 BB72     		strb	r3, [r7, #10]
 441:.\main.c      ****     							precio[1]=PC_rxBuffer[7];
 1665              		.loc 1 441 0
 1666 0206 1D4B     		ldr	r3, .L87
 1667 0208 DB79     		ldrb	r3, [r3, #7]
 1668 020a DBB2     		uxtb	r3, r3
 1669 020c 7B72     		strb	r3, [r7, #9]
 442:.\main.c      ****     							precio[0]=PC_rxBuffer[6];                            
 1670              		.loc 1 442 0
 1671 020e 1B4B     		ldr	r3, .L87
 1672 0210 9B79     		ldrb	r3, [r3, #6]
 1673 0212 DBB2     		uxtb	r3, r3
 1674 0214 3B72     		strb	r3, [r7, #8]
 1675              	.L63:
 443:.\main.c      ****                             }
 444:.\main.c      **** 							if(cambiar_precio((lado1.dir & 0x0F),precio,rventa1.manguera)==0){
 1676              		.loc 1 444 0
 1677 0216 1C4B     		ldr	r3, .L87+12
 1678 0218 1B78     		ldrb	r3, [r3]
 1679 021a DBB2     		uxtb	r3, r3
 1680 021c 03F00F03 		and	r3, r3, #15
 1681 0220 D9B2     		uxtb	r1, r3
 1682 0222 184B     		ldr	r3, .L87+8
 1683 0224 9B7E     		ldrb	r3, [r3, #26]	@ zero_extendqisi2
 1684 0226 07F10802 		add	r2, r7, #8
 1685 022a 0846     		mov	r0, r1
 1686 022c 1146     		mov	r1, r2
 1687 022e 1A46     		mov	r2, r3
 1688 0230 FFF7FEFF 		bl	cambiar_precio
 1689 0234 0346     		mov	r3, r0
 1690 0236 002B     		cmp	r3, #0
 1691 0238 2CD1     		bne	.L61
 445:.\main.c      **** 								rf_mod[0]='M';
 1692              		.loc 1 445 0
 1693 023a 144B     		ldr	r3, .L87+16
 1694 023c 4D22     		movs	r2, #77
 1695 023e 1A70     		strb	r2, [r3]
 446:.\main.c      **** 								rf_mod[1]='U';
 1696              		.loc 1 446 0
 1697 0240 124B     		ldr	r3, .L87+16
 1698 0242 5522     		movs	r2, #85
 1699 0244 5A70     		strb	r2, [r3, #1]
 447:.\main.c      **** 								rf_mod[2]='X';
 1700              		.loc 1 447 0
 1701 0246 114B     		ldr	r3, .L87+16
 1702 0248 5822     		movs	r2, #88
 1703 024a 9A70     		strb	r2, [r3, #2]
 448:.\main.c      **** 								rf_mod[3]=creset;
 1704              		.loc 1 448 0
 1705 024c 0F4B     		ldr	r3, .L87+16
 1706 024e 4522     		movs	r2, #69
ARM GAS  C:\Users\RECEPC~1\AppData\Local\Temp\cc8qeTl3.s 			page 39


 1707 0250 DA70     		strb	r2, [r3, #3]
 449:.\main.c      **** 								rf_mod[4]=cautorizar;
 1708              		.loc 1 449 0
 1709 0252 0E4B     		ldr	r3, .L87+16
 1710 0254 3022     		movs	r2, #48
 1711 0256 1A71     		strb	r2, [r3, #4]
 450:.\main.c      **** 								rf_mod[5]=PC_rxBuffer[4];
 1712              		.loc 1 450 0
 1713 0258 084B     		ldr	r3, .L87
 1714 025a 1B79     		ldrb	r3, [r3, #4]
 1715 025c DAB2     		uxtb	r2, r3
 1716 025e 0B4B     		ldr	r3, .L87+16
 1717 0260 5A71     		strb	r2, [r3, #5]
 451:.\main.c      **** 								rf_mod[6]='1';
 1718              		.loc 1 451 0
 1719 0262 0A4B     		ldr	r3, .L87+16
 1720 0264 3122     		movs	r2, #49
 1721 0266 9A71     		strb	r2, [r3, #6]
 452:.\main.c      **** 								rf_mod[7]='*';
 1722              		.loc 1 452 0
 1723 0268 084B     		ldr	r3, .L87+16
 1724 026a 2A22     		movs	r2, #42
 1725 026c DA71     		strb	r2, [r3, #7]
 453:.\main.c      **** 								size=8;
 1726              		.loc 1 453 0
 1727 026e 0823     		movs	r3, #8
 1728 0270 FB82     		strh	r3, [r7, #22]	@ movhi
 454:.\main.c      **** 								ok_datosRF=1;
 1729              		.loc 1 454 0
 1730 0272 034B     		ldr	r3, .L87+4
 1731 0274 0122     		movs	r2, #1
 1732 0276 1A70     		strb	r2, [r3]
 455:.\main.c      **** 								break;
 1733              		.loc 1 455 0
 1734 0278 28E1     		b	.L55
 1735              	.L88:
 1736 027a 00BF     		.align	2
 1737              	.L87:
 1738 027c 00000000 		.word	PC_rxBuffer
 1739 0280 00000000 		.word	ok_datosRF
 1740 0284 00000000 		.word	rventa1
 1741 0288 00000000 		.word	lado1
 1742 028c 00000000 		.word	rf_mod
 1743 0290 00000000 		.word	ppux10
 1744              	.L61:
 456:.\main.c      **** 							}
 457:.\main.c      ****                         }
 458:.\main.c      **** 						preset[1]=PC_rxBuffer[17];				//Preset
 1745              		.loc 1 458 0
 1746 0294 9D4B     		ldr	r3, .L89
 1747 0296 5B7C     		ldrb	r3, [r3, #17]
 1748 0298 DBB2     		uxtb	r3, r3
 1749 029a 7B70     		strb	r3, [r7, #1]
 459:.\main.c      **** 						if(PC_rxBuffer[17]!=','){
 1750              		.loc 1 459 0
 1751 029c 9B4B     		ldr	r3, .L89
 1752 029e 5B7C     		ldrb	r3, [r3, #17]
ARM GAS  C:\Users\RECEPC~1\AppData\Local\Temp\cc8qeTl3.s 			page 40


 1753 02a0 DBB2     		uxtb	r3, r3
 1754 02a2 2C2B     		cmp	r3, #44
 1755 02a4 06D0     		beq	.L64
 460:.\main.c      **** 							preset[1]=PC_rxBuffer[17] & 0x0F;
 1756              		.loc 1 460 0
 1757 02a6 994B     		ldr	r3, .L89
 1758 02a8 5B7C     		ldrb	r3, [r3, #17]
 1759 02aa DBB2     		uxtb	r3, r3
 1760 02ac 03F00F03 		and	r3, r3, #15
 1761 02b0 DBB2     		uxtb	r3, r3
 1762 02b2 7B70     		strb	r3, [r7, #1]
 1763              	.L64:
 461:.\main.c      **** 						}
 462:.\main.c      **** 						preset[2]=PC_rxBuffer[16];
 1764              		.loc 1 462 0
 1765 02b4 954B     		ldr	r3, .L89
 1766 02b6 1B7C     		ldrb	r3, [r3, #16]
 1767 02b8 DBB2     		uxtb	r3, r3
 1768 02ba BB70     		strb	r3, [r7, #2]
 463:.\main.c      **** 						if(PC_rxBuffer[16]!=','){
 1769              		.loc 1 463 0
 1770 02bc 934B     		ldr	r3, .L89
 1771 02be 1B7C     		ldrb	r3, [r3, #16]
 1772 02c0 DBB2     		uxtb	r3, r3
 1773 02c2 2C2B     		cmp	r3, #44
 1774 02c4 06D0     		beq	.L65
 464:.\main.c      **** 							preset[2]=PC_rxBuffer[16] & 0x0F;
 1775              		.loc 1 464 0
 1776 02c6 914B     		ldr	r3, .L89
 1777 02c8 1B7C     		ldrb	r3, [r3, #16]
 1778 02ca DBB2     		uxtb	r3, r3
 1779 02cc 03F00F03 		and	r3, r3, #15
 1780 02d0 DBB2     		uxtb	r3, r3
 1781 02d2 BB70     		strb	r3, [r7, #2]
 1782              	.L65:
 465:.\main.c      **** 						}
 466:.\main.c      **** 						preset[3]=PC_rxBuffer[15];
 1783              		.loc 1 466 0
 1784 02d4 8D4B     		ldr	r3, .L89
 1785 02d6 DB7B     		ldrb	r3, [r3, #15]
 1786 02d8 DBB2     		uxtb	r3, r3
 1787 02da FB70     		strb	r3, [r7, #3]
 467:.\main.c      **** 						if(PC_rxBuffer[15]!=','){
 1788              		.loc 1 467 0
 1789 02dc 8B4B     		ldr	r3, .L89
 1790 02de DB7B     		ldrb	r3, [r3, #15]
 1791 02e0 DBB2     		uxtb	r3, r3
 1792 02e2 2C2B     		cmp	r3, #44
 1793 02e4 06D0     		beq	.L66
 468:.\main.c      **** 							preset[3]=PC_rxBuffer[15] & 0x0F;
 1794              		.loc 1 468 0
 1795 02e6 894B     		ldr	r3, .L89
 1796 02e8 DB7B     		ldrb	r3, [r3, #15]
 1797 02ea DBB2     		uxtb	r3, r3
 1798 02ec 03F00F03 		and	r3, r3, #15
 1799 02f0 DBB2     		uxtb	r3, r3
 1800 02f2 FB70     		strb	r3, [r7, #3]
ARM GAS  C:\Users\RECEPC~1\AppData\Local\Temp\cc8qeTl3.s 			page 41


 1801              	.L66:
 469:.\main.c      **** 						}
 470:.\main.c      **** 						preset[4]=PC_rxBuffer[14];
 1802              		.loc 1 470 0
 1803 02f4 854B     		ldr	r3, .L89
 1804 02f6 9B7B     		ldrb	r3, [r3, #14]
 1805 02f8 DBB2     		uxtb	r3, r3
 1806 02fa 3B71     		strb	r3, [r7, #4]
 471:.\main.c      **** 						if(PC_rxBuffer[14]!=','){
 1807              		.loc 1 471 0
 1808 02fc 834B     		ldr	r3, .L89
 1809 02fe 9B7B     		ldrb	r3, [r3, #14]
 1810 0300 DBB2     		uxtb	r3, r3
 1811 0302 2C2B     		cmp	r3, #44
 1812 0304 06D0     		beq	.L67
 472:.\main.c      **** 							preset[4]=PC_rxBuffer[14] & 0x0F;
 1813              		.loc 1 472 0
 1814 0306 814B     		ldr	r3, .L89
 1815 0308 9B7B     		ldrb	r3, [r3, #14]
 1816 030a DBB2     		uxtb	r3, r3
 1817 030c 03F00F03 		and	r3, r3, #15
 1818 0310 DBB2     		uxtb	r3, r3
 1819 0312 3B71     		strb	r3, [r7, #4]
 1820              	.L67:
 473:.\main.c      **** 						}
 474:.\main.c      **** 						preset[5]=PC_rxBuffer[13];
 1821              		.loc 1 474 0
 1822 0314 7D4B     		ldr	r3, .L89
 1823 0316 5B7B     		ldrb	r3, [r3, #13]
 1824 0318 DBB2     		uxtb	r3, r3
 1825 031a 7B71     		strb	r3, [r7, #5]
 475:.\main.c      **** 						if(PC_rxBuffer[13]!=','){
 1826              		.loc 1 475 0
 1827 031c 7B4B     		ldr	r3, .L89
 1828 031e 5B7B     		ldrb	r3, [r3, #13]
 1829 0320 DBB2     		uxtb	r3, r3
 1830 0322 2C2B     		cmp	r3, #44
 1831 0324 06D0     		beq	.L68
 476:.\main.c      **** 							preset[5]=PC_rxBuffer[13] & 0x0F;
 1832              		.loc 1 476 0
 1833 0326 794B     		ldr	r3, .L89
 1834 0328 5B7B     		ldrb	r3, [r3, #13]
 1835 032a DBB2     		uxtb	r3, r3
 1836 032c 03F00F03 		and	r3, r3, #15
 1837 0330 DBB2     		uxtb	r3, r3
 1838 0332 7B71     		strb	r3, [r7, #5]
 1839              	.L68:
 477:.\main.c      **** 						}
 478:.\main.c      **** 						preset[6]=PC_rxBuffer[12];
 1840              		.loc 1 478 0
 1841 0334 754B     		ldr	r3, .L89
 1842 0336 1B7B     		ldrb	r3, [r3, #12]
 1843 0338 DBB2     		uxtb	r3, r3
 1844 033a BB71     		strb	r3, [r7, #6]
 479:.\main.c      **** 						if(PC_rxBuffer[12]!=','){
 1845              		.loc 1 479 0
 1846 033c 734B     		ldr	r3, .L89
ARM GAS  C:\Users\RECEPC~1\AppData\Local\Temp\cc8qeTl3.s 			page 42


 1847 033e 1B7B     		ldrb	r3, [r3, #12]
 1848 0340 DBB2     		uxtb	r3, r3
 1849 0342 2C2B     		cmp	r3, #44
 1850 0344 06D0     		beq	.L69
 480:.\main.c      **** 							preset[6]=PC_rxBuffer[12] & 0x0F;
 1851              		.loc 1 480 0
 1852 0346 714B     		ldr	r3, .L89
 1853 0348 1B7B     		ldrb	r3, [r3, #12]
 1854 034a DBB2     		uxtb	r3, r3
 1855 034c 03F00F03 		and	r3, r3, #15
 1856 0350 DBB2     		uxtb	r3, r3
 1857 0352 BB71     		strb	r3, [r7, #6]
 1858              	.L69:
 481:.\main.c      **** 						}
 482:.\main.c      **** 						preset[7]=PC_rxBuffer[11];
 1859              		.loc 1 482 0
 1860 0354 6D4B     		ldr	r3, .L89
 1861 0356 DB7A     		ldrb	r3, [r3, #11]
 1862 0358 DBB2     		uxtb	r3, r3
 1863 035a FB71     		strb	r3, [r7, #7]
 483:.\main.c      **** 						if(PC_rxBuffer[11]!=','){
 1864              		.loc 1 483 0
 1865 035c 6B4B     		ldr	r3, .L89
 1866 035e DB7A     		ldrb	r3, [r3, #11]
 1867 0360 DBB2     		uxtb	r3, r3
 1868 0362 2C2B     		cmp	r3, #44
 1869 0364 06D0     		beq	.L70
 484:.\main.c      **** 							preset[7]=PC_rxBuffer[11] & 0x0F;
 1870              		.loc 1 484 0
 1871 0366 694B     		ldr	r3, .L89
 1872 0368 DB7A     		ldrb	r3, [r3, #11]
 1873 036a DBB2     		uxtb	r3, r3
 1874 036c 03F00F03 		and	r3, r3, #15
 1875 0370 DBB2     		uxtb	r3, r3
 1876 0372 FB71     		strb	r3, [r7, #7]
 1877              	.L70:
 485:.\main.c      **** 						}
 486:.\main.c      **** 						t_preset=PC_rxBuffer[18];
 1878              		.loc 1 486 0
 1879 0374 654B     		ldr	r3, .L89
 1880 0376 9B7C     		ldrb	r3, [r3, #18]
 1881 0378 DBB2     		uxtb	r3, r3
 1882 037a 7B82     		strh	r3, [r7, #18]	@ movhi
 487:.\main.c      **** 						if(t_preset=='1'){
 1883              		.loc 1 487 0
 1884 037c 7B8A     		ldrh	r3, [r7, #18]
 1885 037e 312B     		cmp	r3, #49
 1886 0380 02D1     		bne	.L71
 488:.\main.c      **** 							t_preset=2;
 1887              		.loc 1 488 0
 1888 0382 0223     		movs	r3, #2
 1889 0384 7B82     		strh	r3, [r7, #18]	@ movhi
 1890 0386 01E0     		b	.L72
 1891              	.L71:
 489:.\main.c      **** 						}
 490:.\main.c      **** 						else{
 491:.\main.c      **** 							t_preset=1;
ARM GAS  C:\Users\RECEPC~1\AppData\Local\Temp\cc8qeTl3.s 			page 43


 1892              		.loc 1 491 0
 1893 0388 0123     		movs	r3, #1
 1894 038a 7B82     		strh	r3, [r7, #18]	@ movhi
 1895              	.L72:
 492:.\main.c      **** 						}
 493:.\main.c      **** 						if(programar((lado1.dir & 0x0F),rventa1.manguera,preset,t_preset)==1){		//Programar
 1896              		.loc 1 493 0
 1897 038c 604B     		ldr	r3, .L89+4
 1898 038e 1B78     		ldrb	r3, [r3]
 1899 0390 DBB2     		uxtb	r3, r3
 1900 0392 03F00F03 		and	r3, r3, #15
 1901 0396 D8B2     		uxtb	r0, r3
 1902 0398 5E4B     		ldr	r3, .L89+8
 1903 039a 997E     		ldrb	r1, [r3, #26]	@ zero_extendqisi2
 1904 039c 7B8A     		ldrh	r3, [r7, #18]	@ movhi
 1905 039e DBB2     		uxtb	r3, r3
 1906 03a0 3A46     		mov	r2, r7
 1907 03a2 FFF7FEFF 		bl	programar
 1908 03a6 0346     		mov	r3, r0
 1909 03a8 012B     		cmp	r3, #1
 1910 03aa 1BD1     		bne	.L73
 494:.\main.c      ****                             if(ppuinicial==0){                          
 495:.\main.c      **** //                                for(x=0;x<=4;x++){
 496:.\main.c      **** //                            	    precio[x]=lado1.ppu[0][x];	    
 497:.\main.c      **** //                                }
 498:.\main.c      **** //                                cambiar_precio(lado1.dir,precio,1);    
 499:.\main.c      **** //                                for(x=0;x<=4;x++){
 500:.\main.c      **** //                            	    precio[x]=lado1.ppu[1][x];	    
 501:.\main.c      **** //                                }    
 502:.\main.c      **** //                                cambiar_precio(lado1.dir,precio,2);
 503:.\main.c      **** //                                for(x=0;x<=4;x++){
 504:.\main.c      **** //                            	    precio[x]=lado1.ppu[2][x];	    
 505:.\main.c      **** //                                }
 506:.\main.c      **** //                                cambiar_precio(lado1.dir,precio,3);       
 507:.\main.c      ****                             }
 508:.\main.c      ****                             CyDelay(10);
 1911              		.loc 1 508 0
 1912 03ac 0A20     		movs	r0, #10
 1913 03ae FFF7FEFF 		bl	CyDelay
 509:.\main.c      **** 							Surtidor_PutChar(0x10|(lado1.dir & 0x0F));							
 1914              		.loc 1 509 0
 1915 03b2 574B     		ldr	r3, .L89+4
 1916 03b4 1B78     		ldrb	r3, [r3]
 1917 03b6 DBB2     		uxtb	r3, r3
 1918 03b8 DBB2     		uxtb	r3, r3
 1919 03ba 03F00F03 		and	r3, r3, #15
 1920 03be DBB2     		uxtb	r3, r3
 1921 03c0 43F01003 		orr	r3, r3, #16
 1922 03c4 DBB2     		uxtb	r3, r3
 1923 03c6 DBB2     		uxtb	r3, r3
 1924 03c8 1846     		mov	r0, r3
 1925 03ca FFF7FEFF 		bl	Surtidor_PutChar
 510:.\main.c      **** 							lado1.estado=tanqueo;
 1926              		.loc 1 510 0
 1927 03ce 504B     		ldr	r3, .L89+4
 1928 03d0 0622     		movs	r2, #6
 1929 03d2 5A70     		strb	r2, [r3, #1]
ARM GAS  C:\Users\RECEPC~1\AppData\Local\Temp\cc8qeTl3.s 			page 44


 511:.\main.c      **** 							flujo_LCD1=8;
 1930              		.loc 1 511 0
 1931 03d4 504B     		ldr	r3, .L89+12
 1932 03d6 0822     		movs	r2, #8
 1933 03d8 1A70     		strb	r2, [r3]
 512:.\main.c      **** 							set_imagen(1,8);
 1934              		.loc 1 512 0
 1935 03da 0120     		movs	r0, #1
 1936 03dc 0821     		movs	r1, #8
 1937 03de FFF7FEFF 		bl	set_imagen
 513:.\main.c      **** 						}
 514:.\main.c      **** 						else{
 515:.\main.c      **** 							rf_mod[0]='M';
 516:.\main.c      **** 							rf_mod[1]='U';
 517:.\main.c      **** 							rf_mod[2]='X';
 518:.\main.c      **** 							rf_mod[3]=creset;
 519:.\main.c      **** 							rf_mod[4]=cautorizar;
 520:.\main.c      **** 							rf_mod[5]=PC_rxBuffer[4];
 521:.\main.c      **** 							rf_mod[6]='2';
 522:.\main.c      **** 							rf_mod[7]='*';
 523:.\main.c      **** 							size=8;
 524:.\main.c      **** 							ok_datosRF=1;							
 525:.\main.c      **** 						}
 526:.\main.c      **** 					break;
 1938              		.loc 1 526 0
 1939 03e2 73E0     		b	.L55
 1940              	.L73:
 515:.\main.c      **** 							rf_mod[1]='U';
 1941              		.loc 1 515 0
 1942 03e4 4D4B     		ldr	r3, .L89+16
 1943 03e6 4D22     		movs	r2, #77
 1944 03e8 1A70     		strb	r2, [r3]
 516:.\main.c      **** 							rf_mod[2]='X';
 1945              		.loc 1 516 0
 1946 03ea 4C4B     		ldr	r3, .L89+16
 1947 03ec 5522     		movs	r2, #85
 1948 03ee 5A70     		strb	r2, [r3, #1]
 517:.\main.c      **** 							rf_mod[3]=creset;
 1949              		.loc 1 517 0
 1950 03f0 4A4B     		ldr	r3, .L89+16
 1951 03f2 5822     		movs	r2, #88
 1952 03f4 9A70     		strb	r2, [r3, #2]
 518:.\main.c      **** 							rf_mod[4]=cautorizar;
 1953              		.loc 1 518 0
 1954 03f6 494B     		ldr	r3, .L89+16
 1955 03f8 4522     		movs	r2, #69
 1956 03fa DA70     		strb	r2, [r3, #3]
 519:.\main.c      **** 							rf_mod[5]=PC_rxBuffer[4];
 1957              		.loc 1 519 0
 1958 03fc 474B     		ldr	r3, .L89+16
 1959 03fe 3022     		movs	r2, #48
 1960 0400 1A71     		strb	r2, [r3, #4]
 520:.\main.c      **** 							rf_mod[6]='2';
 1961              		.loc 1 520 0
 1962 0402 424B     		ldr	r3, .L89
 1963 0404 1B79     		ldrb	r3, [r3, #4]
 1964 0406 DAB2     		uxtb	r2, r3
ARM GAS  C:\Users\RECEPC~1\AppData\Local\Temp\cc8qeTl3.s 			page 45


 1965 0408 444B     		ldr	r3, .L89+16
 1966 040a 5A71     		strb	r2, [r3, #5]
 521:.\main.c      **** 							rf_mod[7]='*';
 1967              		.loc 1 521 0
 1968 040c 434B     		ldr	r3, .L89+16
 1969 040e 3222     		movs	r2, #50
 1970 0410 9A71     		strb	r2, [r3, #6]
 522:.\main.c      **** 							size=8;
 1971              		.loc 1 522 0
 1972 0412 424B     		ldr	r3, .L89+16
 1973 0414 2A22     		movs	r2, #42
 1974 0416 DA71     		strb	r2, [r3, #7]
 523:.\main.c      **** 							ok_datosRF=1;							
 1975              		.loc 1 523 0
 1976 0418 0823     		movs	r3, #8
 1977 041a FB82     		strh	r3, [r7, #22]	@ movhi
 524:.\main.c      **** 						}
 1978              		.loc 1 524 0
 1979 041c 404B     		ldr	r3, .L89+20
 1980 041e 0122     		movs	r2, #1
 1981 0420 1A70     		strb	r2, [r3]
 1982              		.loc 1 526 0
 1983 0422 53E0     		b	.L55
 1984              	.L56:
 527:.\main.c      **** 					
 528:.\main.c      **** 					case cimprimir:
 529:.\main.c      **** 						set_imagen(1,55);					
 1985              		.loc 1 529 0
 1986 0424 0120     		movs	r0, #1
 1987 0426 3721     		movs	r1, #55
 1988 0428 FFF7FEFF 		bl	set_imagen
 530:.\main.c      **** 						if(lado1.dir==(lado1.dir & 0x0F)){
 1989              		.loc 1 530 0
 1990 042c 384B     		ldr	r3, .L89+4
 1991 042e 1B78     		ldrb	r3, [r3]
 1992 0430 DBB2     		uxtb	r3, r3
 1993 0432 1A46     		mov	r2, r3
 1994 0434 364B     		ldr	r3, .L89+4
 1995 0436 1B78     		ldrb	r3, [r3]
 1996 0438 DBB2     		uxtb	r3, r3
 1997 043a 03F00F03 		and	r3, r3, #15
 1998 043e 9A42     		cmp	r2, r3
 1999 0440 06D1     		bne	.L75
 531:.\main.c      **** 							lado1.estado=libre;
 2000              		.loc 1 531 0
 2001 0442 334B     		ldr	r3, .L89+4
 2002 0444 0122     		movs	r2, #1
 2003 0446 5A70     		strb	r2, [r3, #1]
 532:.\main.c      **** 							flujo_LCD1=0;
 2004              		.loc 1 532 0
 2005 0448 334B     		ldr	r3, .L89+12
 2006 044a 0022     		movs	r2, #0
 2007 044c 1A70     		strb	r2, [r3]
 2008 044e 11E0     		b	.L76
 2009              	.L75:
 533:.\main.c      **** 						}
 534:.\main.c      **** 						else if(lado2.dir==(PC_rxBuffer[4] & 0x0F)){
ARM GAS  C:\Users\RECEPC~1\AppData\Local\Temp\cc8qeTl3.s 			page 46


 2010              		.loc 1 534 0
 2011 0450 344B     		ldr	r3, .L89+24
 2012 0452 1B78     		ldrb	r3, [r3]
 2013 0454 DBB2     		uxtb	r3, r3
 2014 0456 1A46     		mov	r2, r3
 2015 0458 2C4B     		ldr	r3, .L89
 2016 045a 1B79     		ldrb	r3, [r3, #4]
 2017 045c DBB2     		uxtb	r3, r3
 2018 045e 03F00F03 		and	r3, r3, #15
 2019 0462 9A42     		cmp	r2, r3
 2020 0464 06D1     		bne	.L76
 535:.\main.c      **** 							lado2.estado=libre;
 2021              		.loc 1 535 0
 2022 0466 2F4B     		ldr	r3, .L89+24
 2023 0468 0122     		movs	r2, #1
 2024 046a 5A70     		strb	r2, [r3, #1]
 536:.\main.c      **** 							flujo_LCD1=0;
 2025              		.loc 1 536 0
 2026 046c 2A4B     		ldr	r3, .L89+12
 2027 046e 0022     		movs	r2, #0
 2028 0470 1A70     		strb	r2, [r3]
 537:.\main.c      **** 						}						
 538:.\main.c      **** 					break;
 2029              		.loc 1 538 0
 2030 0472 2BE0     		b	.L55
 2031              	.L76:
 2032 0474 2AE0     		b	.L55
 2033              	.L57:
 539:.\main.c      **** 					
 540:.\main.c      **** 					case creset:                                   
 541:.\main.c      ****     						switch(PC_rxBuffer[5]){
 2034              		.loc 1 541 0
 2035 0476 254B     		ldr	r3, .L89
 2036 0478 5B79     		ldrb	r3, [r3, #5]
 2037 047a DBB2     		uxtb	r3, r3
 2038 047c 313B     		subs	r3, r3, #49
 2039 047e 032B     		cmp	r3, #3
 2040 0480 23D8     		bhi	.L85
 2041 0482 01A2     		adr	r2, .L79
 2042 0484 52F823F0 		ldr	pc, [r2, r3, lsl #2]
 2043              		.p2align 2
 2044              	.L79:
 2045 0488 99040000 		.word	.L78+1
 2046 048c A9040000 		.word	.L80+1
 2047 0490 B9040000 		.word	.L81+1
 2048 0494 C9040000 		.word	.L86+1
 2049              		.p2align 1
 2050              	.L78:
 542:.\main.c      ****     							case '1':														
 543:.\main.c      ****     								lado1.estado=libre;
 2051              		.loc 1 543 0
 2052 0498 1D4B     		ldr	r3, .L89+4
 2053 049a 0122     		movs	r2, #1
 2054 049c 5A70     		strb	r2, [r3, #1]
 544:.\main.c      ****     								error_op(1,28);					 //Error de id					
 2055              		.loc 1 544 0
 2056 049e 0120     		movs	r0, #1
ARM GAS  C:\Users\RECEPC~1\AppData\Local\Temp\cc8qeTl3.s 			page 47


 2057 04a0 1C21     		movs	r1, #28
 2058 04a2 FFF7FEFF 		bl	error_op
 545:.\main.c      ****     							break;
 2059              		.loc 1 545 0
 2060 04a6 10E0     		b	.L77
 2061              	.L80:
 546:.\main.c      ****     								
 547:.\main.c      ****     							case '2':
 548:.\main.c      ****     								lado1.estado=libre;
 2062              		.loc 1 548 0
 2063 04a8 194B     		ldr	r3, .L89+4
 2064 04aa 0122     		movs	r2, #1
 2065 04ac 5A70     		strb	r2, [r3, #1]
 549:.\main.c      ****     								error_op(1,12);					//Gracias por su compra
 2066              		.loc 1 549 0
 2067 04ae 0120     		movs	r0, #1
 2068 04b0 0C21     		movs	r1, #12
 2069 04b2 FFF7FEFF 		bl	error_op
 550:.\main.c      ****     							break;
 2070              		.loc 1 550 0
 2071 04b6 08E0     		b	.L77
 2072              	.L81:
 551:.\main.c      ****     								
 552:.\main.c      ****     							case '3':
 553:.\main.c      ****     								lado1.estado=libre;
 2073              		.loc 1 553 0
 2074 04b8 154B     		ldr	r3, .L89+4
 2075 04ba 0122     		movs	r2, #1
 2076 04bc 5A70     		strb	r2, [r3, #1]
 554:.\main.c      ****     								error_op(1,12);					//Error de Operacion //85
 2077              		.loc 1 554 0
 2078 04be 0120     		movs	r0, #1
 2079 04c0 0C21     		movs	r1, #12
 2080 04c2 FFF7FEFF 		bl	error_op
 555:.\main.c      ****     							break;
 2081              		.loc 1 555 0
 2082 04c6 00E0     		b	.L77
 2083              	.L86:
 556:.\main.c      ****     								
 557:.\main.c      ****     							case '4':
 558:.\main.c      **** //    								lado1.estado=libre;//
 559:.\main.c      **** //    								error_op(1,12);		//			//Fin Corte
 560:.\main.c      ****     							break;								
 2084              		.loc 1 560 0
 2085 04c8 00BF     		nop
 2086              	.L77:
 2087              	.L85:
 561:.\main.c      ****     								
 562:.\main.c      ****     						}                        
 563:.\main.c      **** 					break;
 2088              		.loc 1 563 0
 2089 04ca 00BF     		nop
 2090              	.L55:
 564:.\main.c      **** 				}
 565:.\main.c      **** 				if(ok_datosRF==1){
 2091              		.loc 1 565 0
 2092 04cc 144B     		ldr	r3, .L89+20
ARM GAS  C:\Users\RECEPC~1\AppData\Local\Temp\cc8qeTl3.s 			page 48


 2093 04ce 1B78     		ldrb	r3, [r3]	@ zero_extendqisi2
 2094 04d0 012B     		cmp	r3, #1
 2095 04d2 0FD1     		bne	.L54
 566:.\main.c      **** 				    for(x=0;x<size;x++){
 2096              		.loc 1 566 0
 2097 04d4 0023     		movs	r3, #0
 2098 04d6 BB82     		strh	r3, [r7, #20]	@ movhi
 2099 04d8 08E0     		b	.L83
 2100              	.L84:
 567:.\main.c      **** 					   PC_PutChar(rf_mod[x]);
 2101              		.loc 1 567 0 discriminator 3
 2102 04da BB8A     		ldrh	r3, [r7, #20]
 2103 04dc 0F4A     		ldr	r2, .L89+16
 2104 04de D35C     		ldrb	r3, [r2, r3]	@ zero_extendqisi2
 2105 04e0 1846     		mov	r0, r3
 2106 04e2 FFF7FEFF 		bl	PC_PutChar
 566:.\main.c      **** 				    for(x=0;x<size;x++){
 2107              		.loc 1 566 0 discriminator 3
 2108 04e6 BB8A     		ldrh	r3, [r7, #20]
 2109 04e8 0133     		adds	r3, r3, #1
 2110 04ea BB82     		strh	r3, [r7, #20]	@ movhi
 2111              	.L83:
 566:.\main.c      **** 				    for(x=0;x<size;x++){
 2112              		.loc 1 566 0 is_stmt 0 discriminator 1
 2113 04ec BA8A     		ldrh	r2, [r7, #20]
 2114 04ee FB8A     		ldrh	r3, [r7, #22]
 2115 04f0 9A42     		cmp	r2, r3
 2116 04f2 F2D3     		bcc	.L84
 2117              	.L54:
 568:.\main.c      **** 				    }	               
 569:.\main.c      **** 				}
 570:.\main.c      **** 			}
 571:.\main.c      **** 			PC_ClearRxBuffer();
 2118              		.loc 1 571 0 is_stmt 1
 2119 04f4 FFF7FEFF 		bl	PC_ClearRxBuffer
 572:.\main.c      ****             Surtidor_ClearRxBuffer();
 2120              		.loc 1 572 0
 2121 04f8 FFF7FEFF 		bl	Surtidor_ClearRxBuffer
 573:.\main.c      **** 			status1=0;
 2122              		.loc 1 573 0
 2123 04fc 0023     		movs	r3, #0
 2124 04fe 3B82     		strh	r3, [r7, #16]	@ movhi
 574:.\main.c      **** 			status2=0;			
 2125              		.loc 1 574 0
 2126 0500 0023     		movs	r3, #0
 2127 0502 FB81     		strh	r3, [r7, #14]	@ movhi
 2128              	.L52:
 575:.\main.c      **** 		}		
 576:.\main.c      **** 	}	
 577:.\main.c      **** }
 2129              		.loc 1 577 0
 2130 0504 1837     		adds	r7, r7, #24
 2131              		.cfi_def_cfa_offset 8
 2132 0506 BD46     		mov	sp, r7
 2133              		.cfi_def_cfa_register 13
 2134              		@ sp needed
 2135 0508 80BD     		pop	{r7, pc}
ARM GAS  C:\Users\RECEPC~1\AppData\Local\Temp\cc8qeTl3.s 			page 49


 2136              	.L90:
 2137 050a 00BF     		.align	2
 2138              	.L89:
 2139 050c 00000000 		.word	PC_rxBuffer
 2140 0510 00000000 		.word	lado1
 2141 0514 00000000 		.word	rventa1
 2142 0518 00000000 		.word	flujo_LCD1
 2143 051c 00000000 		.word	rf_mod
 2144 0520 00000000 		.word	ok_datosRF
 2145 0524 00000000 		.word	lado2
 2146              		.cfi_endproc
 2147              	.LFE67:
 2148              		.size	polling_rf, .-polling_rf
 2149              		.section	.text.polling_rf2,"ax",%progbits
 2150              		.align	2
 2151              		.global	polling_rf2
 2152              		.thumb
 2153              		.thumb_func
 2154              		.type	polling_rf2, %function
 2155              	polling_rf2:
 2156              	.LFB68:
 578:.\main.c      **** 
 579:.\main.c      **** 
 580:.\main.c      **** 
 581:.\main.c      **** /*
 582:.\main.c      **** ***************************************************************************************************
 583:.\main.c      **** *                                         uint8 polling_rf(void)
 584:.\main.c      **** *
 585:.\main.c      **** * Description : 
 586:.\main.c      **** *               
 587:.\main.c      **** *
 588:.\main.c      **** * Argument(s) : none
 589:.\main.c      **** *
 590:.\main.c      **** * Return(s)   : none
 591:.\main.c      **** *
 592:.\main.c      **** * Caller(s)   : 
 593:.\main.c      **** *
 594:.\main.c      **** * Note(s)     : none.
 595:.\main.c      **** ***************************************************************************************************
 596:.\main.c      **** */
 597:.\main.c      **** void polling_rf2(void){
 2157              		.loc 1 597 0
 2158              		.cfi_startproc
 2159              		@ args = 0, pretend = 0, frame = 24
 2160              		@ frame_needed = 1, uses_anonymous_args = 0
 2161 0000 80B5     		push	{r7, lr}
 2162              		.cfi_def_cfa_offset 8
 2163              		.cfi_offset 7, -8
 2164              		.cfi_offset 14, -4
 2165 0002 86B0     		sub	sp, sp, #24
 2166              		.cfi_def_cfa_offset 32
 2167 0004 00AF     		add	r7, sp, #0
 2168              		.cfi_def_cfa_register 7
 598:.\main.c      **** 	uint16 status1, status2,size,x,t_preset;
 599:.\main.c      **** 	uint8  precio[5],preset[8];
 600:.\main.c      ****     
 601:.\main.c      **** 	if(PC_GetRxBufferSize()>=6){
ARM GAS  C:\Users\RECEPC~1\AppData\Local\Temp\cc8qeTl3.s 			page 50


 2169              		.loc 1 601 0
 2170 0006 FFF7FEFF 		bl	PC_GetRxBufferSize
 2171 000a 0346     		mov	r3, r0
 2172 000c 052B     		cmp	r3, #5
 2173 000e 40F27B82 		bls	.L91
 602:.\main.c      **** 		status1=PC_GetRxBufferSize();
 2174              		.loc 1 602 0
 2175 0012 FFF7FEFF 		bl	PC_GetRxBufferSize
 2176 0016 0346     		mov	r3, r0
 2177 0018 3B82     		strh	r3, [r7, #16]	@ movhi
 603:.\main.c      **** 		CyDelay(10);
 2178              		.loc 1 603 0
 2179 001a 0A20     		movs	r0, #10
 2180 001c FFF7FEFF 		bl	CyDelay
 604:.\main.c      **** 		status2=PC_GetRxBufferSize();
 2181              		.loc 1 604 0
 2182 0020 FFF7FEFF 		bl	PC_GetRxBufferSize
 2183 0024 0346     		mov	r3, r0
 2184 0026 FB81     		strh	r3, [r7, #14]	@ movhi
 605:.\main.c      **** 		if(status1==status2){		
 2185              		.loc 1 605 0
 2186 0028 3A8A     		ldrh	r2, [r7, #16]
 2187 002a FB89     		ldrh	r3, [r7, #14]
 2188 002c 9A42     		cmp	r2, r3
 2189 002e 40F06B82 		bne	.L91
 606:.\main.c      **** 			if((PC_rxBuffer[0]=='B')&&(PC_rxBuffer[1]=='B')&&(PC_rxBuffer[2]=='B')){
 2190              		.loc 1 606 0
 2191 0032 924B     		ldr	r3, .L126
 2192 0034 1B78     		ldrb	r3, [r3]
 2193 0036 DBB2     		uxtb	r3, r3
 2194 0038 422B     		cmp	r3, #66
 2195 003a 40F05D82 		bne	.L93
 2196              		.loc 1 606 0 is_stmt 0 discriminator 1
 2197 003e 8F4B     		ldr	r3, .L126
 2198 0040 5B78     		ldrb	r3, [r3, #1]
 2199 0042 DBB2     		uxtb	r3, r3
 2200 0044 422B     		cmp	r3, #66
 2201 0046 40F05782 		bne	.L93
 2202              		.loc 1 606 0 discriminator 2
 2203 004a 8C4B     		ldr	r3, .L126
 2204 004c 9B78     		ldrb	r3, [r3, #2]
 2205 004e DBB2     		uxtb	r3, r3
 2206 0050 422B     		cmp	r3, #66
 2207 0052 40F05182 		bne	.L93
 607:.\main.c      **** 				ok_datosRF=0;   
 2208              		.loc 1 607 0 is_stmt 1
 2209 0056 8A4B     		ldr	r3, .L126+4
 2210 0058 0022     		movs	r2, #0
 2211 005a 1A70     		strb	r2, [r3]
 608:.\main.c      **** 				switch(PC_rxBuffer[3]){
 2212              		.loc 1 608 0
 2213 005c 874B     		ldr	r3, .L126
 2214 005e DB78     		ldrb	r3, [r3, #3]
 2215 0060 DBB2     		uxtb	r3, r3
 2216 0062 312B     		cmp	r3, #49
 2217 0064 00F0E081 		beq	.L95
 2218 0068 452B     		cmp	r3, #69
ARM GAS  C:\Users\RECEPC~1\AppData\Local\Temp\cc8qeTl3.s 			page 51


 2219 006a 00F00682 		beq	.L96
 2220 006e 302B     		cmp	r3, #48
 2221 0070 40F02E82 		bne	.L94
 609:.\main.c      **** 					case cautorizar:
 610:.\main.c      ****                     PC_rxBuffer[3] = 0;
 2222              		.loc 1 610 0
 2223 0074 814B     		ldr	r3, .L126
 2224 0076 0022     		movs	r2, #0
 2225 0078 DA70     		strb	r2, [r3, #3]
 611:.\main.c      **** 						if(PC_rxBuffer[5]=='N'){			//No autorizo el servidor		
 2226              		.loc 1 611 0
 2227 007a 804B     		ldr	r3, .L126
 2228 007c 5B79     		ldrb	r3, [r3, #5]
 2229 007e DBB2     		uxtb	r3, r3
 2230 0080 4E2B     		cmp	r3, #78
 2231 0082 0AD1     		bne	.L98
 612:.\main.c      **** 							error_op((PC_rxBuffer[4] & 0x0F),28);
 2232              		.loc 1 612 0
 2233 0084 7D4B     		ldr	r3, .L126
 2234 0086 1B79     		ldrb	r3, [r3, #4]
 2235 0088 DBB2     		uxtb	r3, r3
 2236 008a 03F00F03 		and	r3, r3, #15
 2237 008e DBB2     		uxtb	r3, r3
 2238 0090 1846     		mov	r0, r3
 2239 0092 1C21     		movs	r1, #28
 2240 0094 FFF7FEFF 		bl	error_op
 613:.\main.c      **** 							break;
 2241              		.loc 1 613 0
 2242 0098 1AE2     		b	.L94
 2243              	.L98:
 614:.\main.c      **** 						}
 615:.\main.c      **** 						if(PC_rxBuffer[10]=='F'){		//Cambia precio
 2244              		.loc 1 615 0
 2245 009a 784B     		ldr	r3, .L126
 2246 009c 9B7A     		ldrb	r3, [r3, #10]
 2247 009e DBB2     		uxtb	r3, r3
 2248 00a0 462B     		cmp	r3, #70
 2249 00a2 7DD1     		bne	.L99
 616:.\main.c      ****                             precio[0]=lado2.ppu[rventa1.manguera-1][0]&0x0f;	
 2250              		.loc 1 616 0
 2251 00a4 774B     		ldr	r3, .L126+8
 2252 00a6 9B7E     		ldrb	r3, [r3, #26]	@ zero_extendqisi2
 2253 00a8 5A1E     		subs	r2, r3, #1
 2254 00aa 7749     		ldr	r1, .L126+12
 2255 00ac 1346     		mov	r3, r2
 2256 00ae 9B00     		lsls	r3, r3, #2
 2257 00b0 1344     		add	r3, r3, r2
 2258 00b2 0B44     		add	r3, r3, r1
 2259 00b4 4833     		adds	r3, r3, #72
 2260 00b6 9B78     		ldrb	r3, [r3, #2]
 2261 00b8 DBB2     		uxtb	r3, r3
 2262 00ba 03F00F03 		and	r3, r3, #15
 2263 00be DBB2     		uxtb	r3, r3
 2264 00c0 3B72     		strb	r3, [r7, #8]
 617:.\main.c      ****     						precio[1]=lado2.ppu[rventa1.manguera-1][1]&0x0f;
 2265              		.loc 1 617 0
 2266 00c2 704B     		ldr	r3, .L126+8
ARM GAS  C:\Users\RECEPC~1\AppData\Local\Temp\cc8qeTl3.s 			page 52


 2267 00c4 9B7E     		ldrb	r3, [r3, #26]	@ zero_extendqisi2
 2268 00c6 5A1E     		subs	r2, r3, #1
 2269 00c8 6F49     		ldr	r1, .L126+12
 2270 00ca 1346     		mov	r3, r2
 2271 00cc 9B00     		lsls	r3, r3, #2
 2272 00ce 1344     		add	r3, r3, r2
 2273 00d0 0B44     		add	r3, r3, r1
 2274 00d2 4933     		adds	r3, r3, #73
 2275 00d4 9B78     		ldrb	r3, [r3, #2]
 2276 00d6 DBB2     		uxtb	r3, r3
 2277 00d8 03F00F03 		and	r3, r3, #15
 2278 00dc DBB2     		uxtb	r3, r3
 2279 00de 7B72     		strb	r3, [r7, #9]
 618:.\main.c      ****     						precio[2]=lado2.ppu[rventa1.manguera-1][2]&0x0f;
 2280              		.loc 1 618 0
 2281 00e0 684B     		ldr	r3, .L126+8
 2282 00e2 9B7E     		ldrb	r3, [r3, #26]	@ zero_extendqisi2
 2283 00e4 5A1E     		subs	r2, r3, #1
 2284 00e6 6849     		ldr	r1, .L126+12
 2285 00e8 1346     		mov	r3, r2
 2286 00ea 9B00     		lsls	r3, r3, #2
 2287 00ec 1344     		add	r3, r3, r2
 2288 00ee 0B44     		add	r3, r3, r1
 2289 00f0 4A33     		adds	r3, r3, #74
 2290 00f2 9B78     		ldrb	r3, [r3, #2]
 2291 00f4 DBB2     		uxtb	r3, r3
 2292 00f6 03F00F03 		and	r3, r3, #15
 2293 00fa DBB2     		uxtb	r3, r3
 2294 00fc BB72     		strb	r3, [r7, #10]
 619:.\main.c      ****     						precio[3]=lado2.ppu[rventa1.manguera-1][3]&0x0f;
 2295              		.loc 1 619 0
 2296 00fe 614B     		ldr	r3, .L126+8
 2297 0100 9B7E     		ldrb	r3, [r3, #26]	@ zero_extendqisi2
 2298 0102 5A1E     		subs	r2, r3, #1
 2299 0104 6049     		ldr	r1, .L126+12
 2300 0106 1346     		mov	r3, r2
 2301 0108 9B00     		lsls	r3, r3, #2
 2302 010a 1344     		add	r3, r3, r2
 2303 010c 0B44     		add	r3, r3, r1
 2304 010e 4B33     		adds	r3, r3, #75
 2305 0110 9B78     		ldrb	r3, [r3, #2]
 2306 0112 DBB2     		uxtb	r3, r3
 2307 0114 03F00F03 		and	r3, r3, #15
 2308 0118 DBB2     		uxtb	r3, r3
 2309 011a FB72     		strb	r3, [r7, #11]
 620:.\main.c      ****     						precio[4]=lado2.ppu[rventa1.manguera-1][4]&0x0f;
 2310              		.loc 1 620 0
 2311 011c 594B     		ldr	r3, .L126+8
 2312 011e 9B7E     		ldrb	r3, [r3, #26]	@ zero_extendqisi2
 2313 0120 5A1E     		subs	r2, r3, #1
 2314 0122 5949     		ldr	r1, .L126+12
 2315 0124 1346     		mov	r3, r2
 2316 0126 9B00     		lsls	r3, r3, #2
 2317 0128 1344     		add	r3, r3, r2
 2318 012a 0B44     		add	r3, r3, r1
 2319 012c 4C33     		adds	r3, r3, #76
 2320 012e 9B78     		ldrb	r3, [r3, #2]
ARM GAS  C:\Users\RECEPC~1\AppData\Local\Temp\cc8qeTl3.s 			page 53


 2321 0130 DBB2     		uxtb	r3, r3
 2322 0132 03F00F03 		and	r3, r3, #15
 2323 0136 DBB2     		uxtb	r3, r3
 2324 0138 3B73     		strb	r3, [r7, #12]
 621:.\main.c      ****                         	if(cambiar_precio((lado2.dir & 0x0F),precio,rventa2.manguera)==0){
 2325              		.loc 1 621 0
 2326 013a 534B     		ldr	r3, .L126+12
 2327 013c 1B78     		ldrb	r3, [r3]
 2328 013e DBB2     		uxtb	r3, r3
 2329 0140 03F00F03 		and	r3, r3, #15
 2330 0144 D9B2     		uxtb	r1, r3
 2331 0146 514B     		ldr	r3, .L126+16
 2332 0148 9B7E     		ldrb	r3, [r3, #26]	@ zero_extendqisi2
 2333 014a 07F10802 		add	r2, r7, #8
 2334 014e 0846     		mov	r0, r1
 2335 0150 1146     		mov	r1, r2
 2336 0152 1A46     		mov	r2, r3
 2337 0154 FFF7FEFF 		bl	cambiar_precio
 2338 0158 0346     		mov	r3, r0
 2339 015a 002B     		cmp	r3, #0
 2340 015c 40F09C80 		bne	.L100
 622:.\main.c      **** 								rf_mod[0]='M';
 2341              		.loc 1 622 0
 2342 0160 4B4B     		ldr	r3, .L126+20
 2343 0162 4D22     		movs	r2, #77
 2344 0164 1A70     		strb	r2, [r3]
 623:.\main.c      **** 								rf_mod[1]='U';
 2345              		.loc 1 623 0
 2346 0166 4A4B     		ldr	r3, .L126+20
 2347 0168 5522     		movs	r2, #85
 2348 016a 5A70     		strb	r2, [r3, #1]
 624:.\main.c      **** 								rf_mod[2]='X';
 2349              		.loc 1 624 0
 2350 016c 484B     		ldr	r3, .L126+20
 2351 016e 5822     		movs	r2, #88
 2352 0170 9A70     		strb	r2, [r3, #2]
 625:.\main.c      **** 								rf_mod[3]=creset;
 2353              		.loc 1 625 0
 2354 0172 474B     		ldr	r3, .L126+20
 2355 0174 4522     		movs	r2, #69
 2356 0176 DA70     		strb	r2, [r3, #3]
 626:.\main.c      **** 								rf_mod[4]=cautorizar;
 2357              		.loc 1 626 0
 2358 0178 454B     		ldr	r3, .L126+20
 2359 017a 3022     		movs	r2, #48
 2360 017c 1A71     		strb	r2, [r3, #4]
 627:.\main.c      **** 								rf_mod[5]=PC_rxBuffer[4];
 2361              		.loc 1 627 0
 2362 017e 3F4B     		ldr	r3, .L126
 2363 0180 1B79     		ldrb	r3, [r3, #4]
 2364 0182 DAB2     		uxtb	r2, r3
 2365 0184 424B     		ldr	r3, .L126+20
 2366 0186 5A71     		strb	r2, [r3, #5]
 628:.\main.c      **** 								rf_mod[6]='1';
 2367              		.loc 1 628 0
 2368 0188 414B     		ldr	r3, .L126+20
 2369 018a 3122     		movs	r2, #49
ARM GAS  C:\Users\RECEPC~1\AppData\Local\Temp\cc8qeTl3.s 			page 54


 2370 018c 9A71     		strb	r2, [r3, #6]
 629:.\main.c      **** 								rf_mod[7]='*';
 2371              		.loc 1 629 0
 2372 018e 404B     		ldr	r3, .L126+20
 2373 0190 2A22     		movs	r2, #42
 2374 0192 DA71     		strb	r2, [r3, #7]
 630:.\main.c      **** 								size=8;
 2375              		.loc 1 630 0
 2376 0194 0823     		movs	r3, #8
 2377 0196 FB82     		strh	r3, [r7, #22]	@ movhi
 631:.\main.c      **** 								ok_datosRF=1;
 2378              		.loc 1 631 0
 2379 0198 394B     		ldr	r3, .L126+4
 2380 019a 0122     		movs	r2, #1
 2381 019c 1A70     		strb	r2, [r3]
 632:.\main.c      **** 								break;
 2382              		.loc 1 632 0
 2383 019e 97E1     		b	.L94
 2384              	.L99:
 633:.\main.c      **** 							}                                                      
 634:.\main.c      ****   						}
 635:.\main.c      ****                         else{
 636:.\main.c      **** 							totales(lado2.dir, lado2.mangueras);
 2385              		.loc 1 636 0
 2386 01a0 394B     		ldr	r3, .L126+12
 2387 01a2 1B78     		ldrb	r3, [r3]
 2388 01a4 DAB2     		uxtb	r2, r3
 2389 01a6 384B     		ldr	r3, .L126+12
 2390 01a8 93F85C30 		ldrb	r3, [r3, #92]
 2391 01ac DBB2     		uxtb	r3, r3
 2392 01ae 1046     		mov	r0, r2
 2393 01b0 1946     		mov	r1, r3
 2394 01b2 FFF7FEFF 		bl	totales
 637:.\main.c      ****                             if(ppux10==1){
 2395              		.loc 1 637 0
 2396 01b6 374B     		ldr	r3, .L126+24
 2397 01b8 1B78     		ldrb	r3, [r3]
 2398 01ba DBB2     		uxtb	r3, r3
 2399 01bc 012B     		cmp	r3, #1
 2400 01be 11D1     		bne	.L101
 638:.\main.c      ****     							precio[4]=PC_rxBuffer[9];	
 2401              		.loc 1 638 0
 2402 01c0 2E4B     		ldr	r3, .L126
 2403 01c2 5B7A     		ldrb	r3, [r3, #9]
 2404 01c4 DBB2     		uxtb	r3, r3
 2405 01c6 3B73     		strb	r3, [r7, #12]
 639:.\main.c      ****     							precio[3]=PC_rxBuffer[8];
 2406              		.loc 1 639 0
 2407 01c8 2C4B     		ldr	r3, .L126
 2408 01ca 1B7A     		ldrb	r3, [r3, #8]
 2409 01cc DBB2     		uxtb	r3, r3
 2410 01ce FB72     		strb	r3, [r7, #11]
 640:.\main.c      ****     							precio[2]=PC_rxBuffer[7];
 2411              		.loc 1 640 0
 2412 01d0 2A4B     		ldr	r3, .L126
 2413 01d2 DB79     		ldrb	r3, [r3, #7]
 2414 01d4 DBB2     		uxtb	r3, r3
ARM GAS  C:\Users\RECEPC~1\AppData\Local\Temp\cc8qeTl3.s 			page 55


 2415 01d6 BB72     		strb	r3, [r7, #10]
 641:.\main.c      ****     							precio[1]=PC_rxBuffer[6];
 2416              		.loc 1 641 0
 2417 01d8 284B     		ldr	r3, .L126
 2418 01da 9B79     		ldrb	r3, [r3, #6]
 2419 01dc DBB2     		uxtb	r3, r3
 2420 01de 7B72     		strb	r3, [r7, #9]
 642:.\main.c      ****     							precio[0]=0;			
 2421              		.loc 1 642 0
 2422 01e0 0023     		movs	r3, #0
 2423 01e2 3B72     		strb	r3, [r7, #8]
 2424              	.L101:
 643:.\main.c      ****                             }
 644:.\main.c      ****                             if(ppux10==0){
 2425              		.loc 1 644 0
 2426 01e4 2B4B     		ldr	r3, .L126+24
 2427 01e6 1B78     		ldrb	r3, [r3]
 2428 01e8 DBB2     		uxtb	r3, r3
 2429 01ea 002B     		cmp	r3, #0
 2430 01ec 13D1     		bne	.L102
 645:.\main.c      ****     							precio[4]=PC_rxBuffer[10];	
 2431              		.loc 1 645 0
 2432 01ee 234B     		ldr	r3, .L126
 2433 01f0 9B7A     		ldrb	r3, [r3, #10]
 2434 01f2 DBB2     		uxtb	r3, r3
 2435 01f4 3B73     		strb	r3, [r7, #12]
 646:.\main.c      ****     							precio[3]=PC_rxBuffer[9];
 2436              		.loc 1 646 0
 2437 01f6 214B     		ldr	r3, .L126
 2438 01f8 5B7A     		ldrb	r3, [r3, #9]
 2439 01fa DBB2     		uxtb	r3, r3
 2440 01fc FB72     		strb	r3, [r7, #11]
 647:.\main.c      ****     							precio[2]=PC_rxBuffer[8];
 2441              		.loc 1 647 0
 2442 01fe 1F4B     		ldr	r3, .L126
 2443 0200 1B7A     		ldrb	r3, [r3, #8]
 2444 0202 DBB2     		uxtb	r3, r3
 2445 0204 BB72     		strb	r3, [r7, #10]
 648:.\main.c      ****     							precio[1]=PC_rxBuffer[7];
 2446              		.loc 1 648 0
 2447 0206 1D4B     		ldr	r3, .L126
 2448 0208 DB79     		ldrb	r3, [r3, #7]
 2449 020a DBB2     		uxtb	r3, r3
 2450 020c 7B72     		strb	r3, [r7, #9]
 649:.\main.c      ****     							precio[0]=PC_rxBuffer[6];                            
 2451              		.loc 1 649 0
 2452 020e 1B4B     		ldr	r3, .L126
 2453 0210 9B79     		ldrb	r3, [r3, #6]
 2454 0212 DBB2     		uxtb	r3, r3
 2455 0214 3B72     		strb	r3, [r7, #8]
 2456              	.L102:
 650:.\main.c      ****                             }
 651:.\main.c      **** 							if(cambiar_precio((lado2.dir & 0x0F),precio,rventa2.manguera)==0){
 2457              		.loc 1 651 0
 2458 0216 1C4B     		ldr	r3, .L126+12
 2459 0218 1B78     		ldrb	r3, [r3]
 2460 021a DBB2     		uxtb	r3, r3
ARM GAS  C:\Users\RECEPC~1\AppData\Local\Temp\cc8qeTl3.s 			page 56


 2461 021c 03F00F03 		and	r3, r3, #15
 2462 0220 D9B2     		uxtb	r1, r3
 2463 0222 1A4B     		ldr	r3, .L126+16
 2464 0224 9B7E     		ldrb	r3, [r3, #26]	@ zero_extendqisi2
 2465 0226 07F10802 		add	r2, r7, #8
 2466 022a 0846     		mov	r0, r1
 2467 022c 1146     		mov	r1, r2
 2468 022e 1A46     		mov	r2, r3
 2469 0230 FFF7FEFF 		bl	cambiar_precio
 2470 0234 0346     		mov	r3, r0
 2471 0236 002B     		cmp	r3, #0
 2472 0238 2ED1     		bne	.L100
 652:.\main.c      **** 								rf_mod[0]='M';
 2473              		.loc 1 652 0
 2474 023a 154B     		ldr	r3, .L126+20
 2475 023c 4D22     		movs	r2, #77
 2476 023e 1A70     		strb	r2, [r3]
 653:.\main.c      **** 								rf_mod[1]='U';
 2477              		.loc 1 653 0
 2478 0240 134B     		ldr	r3, .L126+20
 2479 0242 5522     		movs	r2, #85
 2480 0244 5A70     		strb	r2, [r3, #1]
 654:.\main.c      **** 								rf_mod[2]='X';
 2481              		.loc 1 654 0
 2482 0246 124B     		ldr	r3, .L126+20
 2483 0248 5822     		movs	r2, #88
 2484 024a 9A70     		strb	r2, [r3, #2]
 655:.\main.c      **** 								rf_mod[3]=creset;
 2485              		.loc 1 655 0
 2486 024c 104B     		ldr	r3, .L126+20
 2487 024e 4522     		movs	r2, #69
 2488 0250 DA70     		strb	r2, [r3, #3]
 656:.\main.c      **** 								rf_mod[4]=cautorizar;
 2489              		.loc 1 656 0
 2490 0252 0F4B     		ldr	r3, .L126+20
 2491 0254 3022     		movs	r2, #48
 2492 0256 1A71     		strb	r2, [r3, #4]
 657:.\main.c      **** 								rf_mod[5]=PC_rxBuffer[4];
 2493              		.loc 1 657 0
 2494 0258 084B     		ldr	r3, .L126
 2495 025a 1B79     		ldrb	r3, [r3, #4]
 2496 025c DAB2     		uxtb	r2, r3
 2497 025e 0C4B     		ldr	r3, .L126+20
 2498 0260 5A71     		strb	r2, [r3, #5]
 658:.\main.c      **** 								rf_mod[6]='1';
 2499              		.loc 1 658 0
 2500 0262 0B4B     		ldr	r3, .L126+20
 2501 0264 3122     		movs	r2, #49
 2502 0266 9A71     		strb	r2, [r3, #6]
 659:.\main.c      **** 								rf_mod[7]='*';
 2503              		.loc 1 659 0
 2504 0268 094B     		ldr	r3, .L126+20
 2505 026a 2A22     		movs	r2, #42
 2506 026c DA71     		strb	r2, [r3, #7]
 660:.\main.c      **** 								size=8;
 2507              		.loc 1 660 0
 2508 026e 0823     		movs	r3, #8
ARM GAS  C:\Users\RECEPC~1\AppData\Local\Temp\cc8qeTl3.s 			page 57


 2509 0270 FB82     		strh	r3, [r7, #22]	@ movhi
 661:.\main.c      **** 								ok_datosRF=1;
 2510              		.loc 1 661 0
 2511 0272 034B     		ldr	r3, .L126+4
 2512 0274 0122     		movs	r2, #1
 2513 0276 1A70     		strb	r2, [r3]
 662:.\main.c      **** 								break;
 2514              		.loc 1 662 0
 2515 0278 2AE1     		b	.L94
 2516              	.L127:
 2517 027a 00BF     		.align	2
 2518              	.L126:
 2519 027c 00000000 		.word	PC_rxBuffer
 2520 0280 00000000 		.word	ok_datosRF
 2521 0284 00000000 		.word	rventa1
 2522 0288 00000000 		.word	lado2
 2523 028c 00000000 		.word	rventa2
 2524 0290 00000000 		.word	rf_mod
 2525 0294 00000000 		.word	ppux10
 2526              	.L100:
 663:.\main.c      **** 							}
 664:.\main.c      ****                         }
 665:.\main.c      **** 						preset[1]=PC_rxBuffer[17];				//Preset
 2527              		.loc 1 665 0
 2528 0298 9D4B     		ldr	r3, .L128
 2529 029a 5B7C     		ldrb	r3, [r3, #17]
 2530 029c DBB2     		uxtb	r3, r3
 2531 029e 7B70     		strb	r3, [r7, #1]
 666:.\main.c      **** 						if(PC_rxBuffer[17]!=','){
 2532              		.loc 1 666 0
 2533 02a0 9B4B     		ldr	r3, .L128
 2534 02a2 5B7C     		ldrb	r3, [r3, #17]
 2535 02a4 DBB2     		uxtb	r3, r3
 2536 02a6 2C2B     		cmp	r3, #44
 2537 02a8 06D0     		beq	.L103
 667:.\main.c      **** 							preset[1]=PC_rxBuffer[17] & 0x0F;
 2538              		.loc 1 667 0
 2539 02aa 994B     		ldr	r3, .L128
 2540 02ac 5B7C     		ldrb	r3, [r3, #17]
 2541 02ae DBB2     		uxtb	r3, r3
 2542 02b0 03F00F03 		and	r3, r3, #15
 2543 02b4 DBB2     		uxtb	r3, r3
 2544 02b6 7B70     		strb	r3, [r7, #1]
 2545              	.L103:
 668:.\main.c      **** 						}
 669:.\main.c      **** 						preset[2]=PC_rxBuffer[16];
 2546              		.loc 1 669 0
 2547 02b8 954B     		ldr	r3, .L128
 2548 02ba 1B7C     		ldrb	r3, [r3, #16]
 2549 02bc DBB2     		uxtb	r3, r3
 2550 02be BB70     		strb	r3, [r7, #2]
 670:.\main.c      **** 						if(PC_rxBuffer[16]!=','){
 2551              		.loc 1 670 0
 2552 02c0 934B     		ldr	r3, .L128
 2553 02c2 1B7C     		ldrb	r3, [r3, #16]
 2554 02c4 DBB2     		uxtb	r3, r3
 2555 02c6 2C2B     		cmp	r3, #44
ARM GAS  C:\Users\RECEPC~1\AppData\Local\Temp\cc8qeTl3.s 			page 58


 2556 02c8 06D0     		beq	.L104
 671:.\main.c      **** 							preset[2]=PC_rxBuffer[16] & 0x0F;
 2557              		.loc 1 671 0
 2558 02ca 914B     		ldr	r3, .L128
 2559 02cc 1B7C     		ldrb	r3, [r3, #16]
 2560 02ce DBB2     		uxtb	r3, r3
 2561 02d0 03F00F03 		and	r3, r3, #15
 2562 02d4 DBB2     		uxtb	r3, r3
 2563 02d6 BB70     		strb	r3, [r7, #2]
 2564              	.L104:
 672:.\main.c      **** 						}
 673:.\main.c      **** 						preset[3]=PC_rxBuffer[15];
 2565              		.loc 1 673 0
 2566 02d8 8D4B     		ldr	r3, .L128
 2567 02da DB7B     		ldrb	r3, [r3, #15]
 2568 02dc DBB2     		uxtb	r3, r3
 2569 02de FB70     		strb	r3, [r7, #3]
 674:.\main.c      **** 						if(PC_rxBuffer[15]!=','){
 2570              		.loc 1 674 0
 2571 02e0 8B4B     		ldr	r3, .L128
 2572 02e2 DB7B     		ldrb	r3, [r3, #15]
 2573 02e4 DBB2     		uxtb	r3, r3
 2574 02e6 2C2B     		cmp	r3, #44
 2575 02e8 06D0     		beq	.L105
 675:.\main.c      **** 							preset[3]=PC_rxBuffer[15] & 0x0F;
 2576              		.loc 1 675 0
 2577 02ea 894B     		ldr	r3, .L128
 2578 02ec DB7B     		ldrb	r3, [r3, #15]
 2579 02ee DBB2     		uxtb	r3, r3
 2580 02f0 03F00F03 		and	r3, r3, #15
 2581 02f4 DBB2     		uxtb	r3, r3
 2582 02f6 FB70     		strb	r3, [r7, #3]
 2583              	.L105:
 676:.\main.c      **** 						}
 677:.\main.c      **** 						preset[4]=PC_rxBuffer[14];
 2584              		.loc 1 677 0
 2585 02f8 854B     		ldr	r3, .L128
 2586 02fa 9B7B     		ldrb	r3, [r3, #14]
 2587 02fc DBB2     		uxtb	r3, r3
 2588 02fe 3B71     		strb	r3, [r7, #4]
 678:.\main.c      **** 						if(PC_rxBuffer[14]!=','){
 2589              		.loc 1 678 0
 2590 0300 834B     		ldr	r3, .L128
 2591 0302 9B7B     		ldrb	r3, [r3, #14]
 2592 0304 DBB2     		uxtb	r3, r3
 2593 0306 2C2B     		cmp	r3, #44
 2594 0308 06D0     		beq	.L106
 679:.\main.c      **** 							preset[4]=PC_rxBuffer[14] & 0x0F;
 2595              		.loc 1 679 0
 2596 030a 814B     		ldr	r3, .L128
 2597 030c 9B7B     		ldrb	r3, [r3, #14]
 2598 030e DBB2     		uxtb	r3, r3
 2599 0310 03F00F03 		and	r3, r3, #15
 2600 0314 DBB2     		uxtb	r3, r3
 2601 0316 3B71     		strb	r3, [r7, #4]
 2602              	.L106:
 680:.\main.c      **** 						}
ARM GAS  C:\Users\RECEPC~1\AppData\Local\Temp\cc8qeTl3.s 			page 59


 681:.\main.c      **** 						preset[5]=PC_rxBuffer[13];
 2603              		.loc 1 681 0
 2604 0318 7D4B     		ldr	r3, .L128
 2605 031a 5B7B     		ldrb	r3, [r3, #13]
 2606 031c DBB2     		uxtb	r3, r3
 2607 031e 7B71     		strb	r3, [r7, #5]
 682:.\main.c      **** 						if(PC_rxBuffer[13]!=','){
 2608              		.loc 1 682 0
 2609 0320 7B4B     		ldr	r3, .L128
 2610 0322 5B7B     		ldrb	r3, [r3, #13]
 2611 0324 DBB2     		uxtb	r3, r3
 2612 0326 2C2B     		cmp	r3, #44
 2613 0328 06D0     		beq	.L107
 683:.\main.c      **** 							preset[5]=PC_rxBuffer[13] & 0x0F;
 2614              		.loc 1 683 0
 2615 032a 794B     		ldr	r3, .L128
 2616 032c 5B7B     		ldrb	r3, [r3, #13]
 2617 032e DBB2     		uxtb	r3, r3
 2618 0330 03F00F03 		and	r3, r3, #15
 2619 0334 DBB2     		uxtb	r3, r3
 2620 0336 7B71     		strb	r3, [r7, #5]
 2621              	.L107:
 684:.\main.c      **** 						}
 685:.\main.c      **** 						preset[6]=PC_rxBuffer[12];
 2622              		.loc 1 685 0
 2623 0338 754B     		ldr	r3, .L128
 2624 033a 1B7B     		ldrb	r3, [r3, #12]
 2625 033c DBB2     		uxtb	r3, r3
 2626 033e BB71     		strb	r3, [r7, #6]
 686:.\main.c      **** 						if(PC_rxBuffer[12]!=','){
 2627              		.loc 1 686 0
 2628 0340 734B     		ldr	r3, .L128
 2629 0342 1B7B     		ldrb	r3, [r3, #12]
 2630 0344 DBB2     		uxtb	r3, r3
 2631 0346 2C2B     		cmp	r3, #44
 2632 0348 06D0     		beq	.L108
 687:.\main.c      **** 							preset[6]=PC_rxBuffer[12] & 0x0F;
 2633              		.loc 1 687 0
 2634 034a 714B     		ldr	r3, .L128
 2635 034c 1B7B     		ldrb	r3, [r3, #12]
 2636 034e DBB2     		uxtb	r3, r3
 2637 0350 03F00F03 		and	r3, r3, #15
 2638 0354 DBB2     		uxtb	r3, r3
 2639 0356 BB71     		strb	r3, [r7, #6]
 2640              	.L108:
 688:.\main.c      **** 						}
 689:.\main.c      **** 						preset[7]=PC_rxBuffer[11];
 2641              		.loc 1 689 0
 2642 0358 6D4B     		ldr	r3, .L128
 2643 035a DB7A     		ldrb	r3, [r3, #11]
 2644 035c DBB2     		uxtb	r3, r3
 2645 035e FB71     		strb	r3, [r7, #7]
 690:.\main.c      **** 						if(PC_rxBuffer[11]!=','){
 2646              		.loc 1 690 0
 2647 0360 6B4B     		ldr	r3, .L128
 2648 0362 DB7A     		ldrb	r3, [r3, #11]
 2649 0364 DBB2     		uxtb	r3, r3
ARM GAS  C:\Users\RECEPC~1\AppData\Local\Temp\cc8qeTl3.s 			page 60


 2650 0366 2C2B     		cmp	r3, #44
 2651 0368 06D0     		beq	.L109
 691:.\main.c      **** 							preset[7]=PC_rxBuffer[11] & 0x0F;
 2652              		.loc 1 691 0
 2653 036a 694B     		ldr	r3, .L128
 2654 036c DB7A     		ldrb	r3, [r3, #11]
 2655 036e DBB2     		uxtb	r3, r3
 2656 0370 03F00F03 		and	r3, r3, #15
 2657 0374 DBB2     		uxtb	r3, r3
 2658 0376 FB71     		strb	r3, [r7, #7]
 2659              	.L109:
 692:.\main.c      **** 						}
 693:.\main.c      **** 						t_preset=PC_rxBuffer[18];
 2660              		.loc 1 693 0
 2661 0378 654B     		ldr	r3, .L128
 2662 037a 9B7C     		ldrb	r3, [r3, #18]
 2663 037c DBB2     		uxtb	r3, r3
 2664 037e 7B82     		strh	r3, [r7, #18]	@ movhi
 694:.\main.c      **** 						if(t_preset=='1'){
 2665              		.loc 1 694 0
 2666 0380 7B8A     		ldrh	r3, [r7, #18]
 2667 0382 312B     		cmp	r3, #49
 2668 0384 02D1     		bne	.L110
 695:.\main.c      **** 							t_preset=2;
 2669              		.loc 1 695 0
 2670 0386 0223     		movs	r3, #2
 2671 0388 7B82     		strh	r3, [r7, #18]	@ movhi
 2672 038a 01E0     		b	.L111
 2673              	.L110:
 696:.\main.c      **** 						}
 697:.\main.c      **** 						else{
 698:.\main.c      **** 							t_preset=1;
 2674              		.loc 1 698 0
 2675 038c 0123     		movs	r3, #1
 2676 038e 7B82     		strh	r3, [r7, #18]	@ movhi
 2677              	.L111:
 699:.\main.c      **** 						}
 700:.\main.c      **** 						if(programar((lado2.dir & 0x0F),rventa2.manguera,preset,t_preset)==1){		//Programar
 2678              		.loc 1 700 0
 2679 0390 604B     		ldr	r3, .L128+4
 2680 0392 1B78     		ldrb	r3, [r3]
 2681 0394 DBB2     		uxtb	r3, r3
 2682 0396 03F00F03 		and	r3, r3, #15
 2683 039a D8B2     		uxtb	r0, r3
 2684 039c 5E4B     		ldr	r3, .L128+8
 2685 039e 997E     		ldrb	r1, [r3, #26]	@ zero_extendqisi2
 2686 03a0 7B8A     		ldrh	r3, [r7, #18]	@ movhi
 2687 03a2 DBB2     		uxtb	r3, r3
 2688 03a4 3A46     		mov	r2, r7
 2689 03a6 FFF7FEFF 		bl	programar
 2690 03aa 0346     		mov	r3, r0
 2691 03ac 012B     		cmp	r3, #1
 2692 03ae 1BD1     		bne	.L112
 701:.\main.c      ****                             if(ppuinicial==0){                          
 702:.\main.c      **** //                                for(x=0;x<=4;x++){
 703:.\main.c      **** //                            	    precio[x]=lado1.ppu[0][x];	    
 704:.\main.c      **** //                                }
ARM GAS  C:\Users\RECEPC~1\AppData\Local\Temp\cc8qeTl3.s 			page 61


 705:.\main.c      **** //                                cambiar_precio(lado1.dir,precio,1);    
 706:.\main.c      **** //                                for(x=0;x<=4;x++){
 707:.\main.c      **** //                            	    precio[x]=lado1.ppu[1][x];	    
 708:.\main.c      **** //                                }    
 709:.\main.c      **** //                                cambiar_precio(lado1.dir,precio,2);
 710:.\main.c      **** //                                for(x=0;x<=4;x++){
 711:.\main.c      **** //                            	    precio[x]=lado1.ppu[2][x];	    
 712:.\main.c      **** //                                }
 713:.\main.c      **** //                                cambiar_precio(lado1.dir,precio,3);       
 714:.\main.c      ****                             }
 715:.\main.c      ****                             CyDelay(10);
 2693              		.loc 1 715 0
 2694 03b0 0A20     		movs	r0, #10
 2695 03b2 FFF7FEFF 		bl	CyDelay
 716:.\main.c      **** 							Surtidor_PutChar(0x10|(lado2.dir & 0x0F));							
 2696              		.loc 1 716 0
 2697 03b6 574B     		ldr	r3, .L128+4
 2698 03b8 1B78     		ldrb	r3, [r3]
 2699 03ba DBB2     		uxtb	r3, r3
 2700 03bc DBB2     		uxtb	r3, r3
 2701 03be 03F00F03 		and	r3, r3, #15
 2702 03c2 DBB2     		uxtb	r3, r3
 2703 03c4 43F01003 		orr	r3, r3, #16
 2704 03c8 DBB2     		uxtb	r3, r3
 2705 03ca DBB2     		uxtb	r3, r3
 2706 03cc 1846     		mov	r0, r3
 2707 03ce FFF7FEFF 		bl	Surtidor_PutChar
 717:.\main.c      **** 							lado2.estado=tanqueo;
 2708              		.loc 1 717 0
 2709 03d2 504B     		ldr	r3, .L128+4
 2710 03d4 0622     		movs	r2, #6
 2711 03d6 5A70     		strb	r2, [r3, #1]
 718:.\main.c      **** 							flujo_LCD1=8;
 2712              		.loc 1 718 0
 2713 03d8 504B     		ldr	r3, .L128+12
 2714 03da 0822     		movs	r2, #8
 2715 03dc 1A70     		strb	r2, [r3]
 719:.\main.c      **** 							set_imagen(1,8);
 2716              		.loc 1 719 0
 2717 03de 0120     		movs	r0, #1
 2718 03e0 0821     		movs	r1, #8
 2719 03e2 FFF7FEFF 		bl	set_imagen
 720:.\main.c      **** 						}
 721:.\main.c      **** 						else{
 722:.\main.c      **** 							rf_mod[0]='M';
 723:.\main.c      **** 							rf_mod[1]='U';
 724:.\main.c      **** 							rf_mod[2]='X';
 725:.\main.c      **** 							rf_mod[3]=creset;
 726:.\main.c      **** 							rf_mod[4]=cautorizar;
 727:.\main.c      **** 							rf_mod[5]=PC_rxBuffer[4];
 728:.\main.c      **** 							rf_mod[6]='2';
 729:.\main.c      **** 							rf_mod[7]='*';
 730:.\main.c      **** 							size=8;
 731:.\main.c      **** 							ok_datosRF=1;							
 732:.\main.c      **** 						}
 733:.\main.c      **** 					break;
 2720              		.loc 1 733 0
ARM GAS  C:\Users\RECEPC~1\AppData\Local\Temp\cc8qeTl3.s 			page 62


 2721 03e6 73E0     		b	.L94
 2722              	.L112:
 722:.\main.c      **** 							rf_mod[1]='U';
 2723              		.loc 1 722 0
 2724 03e8 4D4B     		ldr	r3, .L128+16
 2725 03ea 4D22     		movs	r2, #77
 2726 03ec 1A70     		strb	r2, [r3]
 723:.\main.c      **** 							rf_mod[2]='X';
 2727              		.loc 1 723 0
 2728 03ee 4C4B     		ldr	r3, .L128+16
 2729 03f0 5522     		movs	r2, #85
 2730 03f2 5A70     		strb	r2, [r3, #1]
 724:.\main.c      **** 							rf_mod[3]=creset;
 2731              		.loc 1 724 0
 2732 03f4 4A4B     		ldr	r3, .L128+16
 2733 03f6 5822     		movs	r2, #88
 2734 03f8 9A70     		strb	r2, [r3, #2]
 725:.\main.c      **** 							rf_mod[4]=cautorizar;
 2735              		.loc 1 725 0
 2736 03fa 494B     		ldr	r3, .L128+16
 2737 03fc 4522     		movs	r2, #69
 2738 03fe DA70     		strb	r2, [r3, #3]
 726:.\main.c      **** 							rf_mod[5]=PC_rxBuffer[4];
 2739              		.loc 1 726 0
 2740 0400 474B     		ldr	r3, .L128+16
 2741 0402 3022     		movs	r2, #48
 2742 0404 1A71     		strb	r2, [r3, #4]
 727:.\main.c      **** 							rf_mod[6]='2';
 2743              		.loc 1 727 0
 2744 0406 424B     		ldr	r3, .L128
 2745 0408 1B79     		ldrb	r3, [r3, #4]
 2746 040a DAB2     		uxtb	r2, r3
 2747 040c 444B     		ldr	r3, .L128+16
 2748 040e 5A71     		strb	r2, [r3, #5]
 728:.\main.c      **** 							rf_mod[7]='*';
 2749              		.loc 1 728 0
 2750 0410 434B     		ldr	r3, .L128+16
 2751 0412 3222     		movs	r2, #50
 2752 0414 9A71     		strb	r2, [r3, #6]
 729:.\main.c      **** 							size=8;
 2753              		.loc 1 729 0
 2754 0416 424B     		ldr	r3, .L128+16
 2755 0418 2A22     		movs	r2, #42
 2756 041a DA71     		strb	r2, [r3, #7]
 730:.\main.c      **** 							ok_datosRF=1;							
 2757              		.loc 1 730 0
 2758 041c 0823     		movs	r3, #8
 2759 041e FB82     		strh	r3, [r7, #22]	@ movhi
 731:.\main.c      **** 						}
 2760              		.loc 1 731 0
 2761 0420 404B     		ldr	r3, .L128+20
 2762 0422 0122     		movs	r2, #1
 2763 0424 1A70     		strb	r2, [r3]
 2764              		.loc 1 733 0
 2765 0426 53E0     		b	.L94
 2766              	.L95:
 734:.\main.c      **** 					
ARM GAS  C:\Users\RECEPC~1\AppData\Local\Temp\cc8qeTl3.s 			page 63


 735:.\main.c      **** 					case cimprimir:
 736:.\main.c      **** 						set_imagen(1,55);					
 2767              		.loc 1 736 0
 2768 0428 0120     		movs	r0, #1
 2769 042a 3721     		movs	r1, #55
 2770 042c FFF7FEFF 		bl	set_imagen
 737:.\main.c      **** 						if(lado1.dir==(lado1.dir & 0x0F)){
 2771              		.loc 1 737 0
 2772 0430 3D4B     		ldr	r3, .L128+24
 2773 0432 1B78     		ldrb	r3, [r3]
 2774 0434 DBB2     		uxtb	r3, r3
 2775 0436 1A46     		mov	r2, r3
 2776 0438 3B4B     		ldr	r3, .L128+24
 2777 043a 1B78     		ldrb	r3, [r3]
 2778 043c DBB2     		uxtb	r3, r3
 2779 043e 03F00F03 		and	r3, r3, #15
 2780 0442 9A42     		cmp	r2, r3
 2781 0444 06D1     		bne	.L114
 738:.\main.c      **** 							lado1.estado=libre;
 2782              		.loc 1 738 0
 2783 0446 384B     		ldr	r3, .L128+24
 2784 0448 0122     		movs	r2, #1
 2785 044a 5A70     		strb	r2, [r3, #1]
 739:.\main.c      **** 							flujo_LCD1=0;
 2786              		.loc 1 739 0
 2787 044c 334B     		ldr	r3, .L128+12
 2788 044e 0022     		movs	r2, #0
 2789 0450 1A70     		strb	r2, [r3]
 2790 0452 11E0     		b	.L115
 2791              	.L114:
 740:.\main.c      **** 						}
 741:.\main.c      **** 						else if(lado2.dir==(PC_rxBuffer[4] & 0x0F)){
 2792              		.loc 1 741 0
 2793 0454 2F4B     		ldr	r3, .L128+4
 2794 0456 1B78     		ldrb	r3, [r3]
 2795 0458 DBB2     		uxtb	r3, r3
 2796 045a 1A46     		mov	r2, r3
 2797 045c 2C4B     		ldr	r3, .L128
 2798 045e 1B79     		ldrb	r3, [r3, #4]
 2799 0460 DBB2     		uxtb	r3, r3
 2800 0462 03F00F03 		and	r3, r3, #15
 2801 0466 9A42     		cmp	r2, r3
 2802 0468 06D1     		bne	.L115
 742:.\main.c      **** 							lado2.estado=libre;
 2803              		.loc 1 742 0
 2804 046a 2A4B     		ldr	r3, .L128+4
 2805 046c 0122     		movs	r2, #1
 2806 046e 5A70     		strb	r2, [r3, #1]
 743:.\main.c      **** 							flujo_LCD1=0;
 2807              		.loc 1 743 0
 2808 0470 2A4B     		ldr	r3, .L128+12
 2809 0472 0022     		movs	r2, #0
 2810 0474 1A70     		strb	r2, [r3]
 744:.\main.c      **** 						}						
 745:.\main.c      **** 					break;
 2811              		.loc 1 745 0
 2812 0476 2BE0     		b	.L94
ARM GAS  C:\Users\RECEPC~1\AppData\Local\Temp\cc8qeTl3.s 			page 64


 2813              	.L115:
 2814 0478 2AE0     		b	.L94
 2815              	.L96:
 746:.\main.c      **** 					
 747:.\main.c      **** 					case creset:                                   
 748:.\main.c      ****     						switch(PC_rxBuffer[5]){
 2816              		.loc 1 748 0
 2817 047a 254B     		ldr	r3, .L128
 2818 047c 5B79     		ldrb	r3, [r3, #5]
 2819 047e DBB2     		uxtb	r3, r3
 2820 0480 313B     		subs	r3, r3, #49
 2821 0482 032B     		cmp	r3, #3
 2822 0484 23D8     		bhi	.L124
 2823 0486 01A2     		adr	r2, .L118
 2824 0488 52F823F0 		ldr	pc, [r2, r3, lsl #2]
 2825              		.p2align 2
 2826              	.L118:
 2827 048c 9D040000 		.word	.L117+1
 2828 0490 AD040000 		.word	.L119+1
 2829 0494 BD040000 		.word	.L120+1
 2830 0498 CD040000 		.word	.L125+1
 2831              		.p2align 1
 2832              	.L117:
 749:.\main.c      ****     							case '1':														
 750:.\main.c      ****     								lado2.estado=libre;
 2833              		.loc 1 750 0
 2834 049c 1D4B     		ldr	r3, .L128+4
 2835 049e 0122     		movs	r2, #1
 2836 04a0 5A70     		strb	r2, [r3, #1]
 751:.\main.c      ****     								error_op(1,28);					 //Error de id					
 2837              		.loc 1 751 0
 2838 04a2 0120     		movs	r0, #1
 2839 04a4 1C21     		movs	r1, #28
 2840 04a6 FFF7FEFF 		bl	error_op
 752:.\main.c      ****     							break;
 2841              		.loc 1 752 0
 2842 04aa 10E0     		b	.L116
 2843              	.L119:
 753:.\main.c      ****     								
 754:.\main.c      ****     							case '2':
 755:.\main.c      ****     								lado2.estado=libre;
 2844              		.loc 1 755 0
 2845 04ac 194B     		ldr	r3, .L128+4
 2846 04ae 0122     		movs	r2, #1
 2847 04b0 5A70     		strb	r2, [r3, #1]
 756:.\main.c      ****     								error_op(1,12);					//Gracias por su compra
 2848              		.loc 1 756 0
 2849 04b2 0120     		movs	r0, #1
 2850 04b4 0C21     		movs	r1, #12
 2851 04b6 FFF7FEFF 		bl	error_op
 757:.\main.c      ****     							break;
 2852              		.loc 1 757 0
 2853 04ba 08E0     		b	.L116
 2854              	.L120:
 758:.\main.c      ****     								
 759:.\main.c      ****     							case '3':
 760:.\main.c      ****     								lado2.estado=libre;
ARM GAS  C:\Users\RECEPC~1\AppData\Local\Temp\cc8qeTl3.s 			page 65


 2855              		.loc 1 760 0
 2856 04bc 154B     		ldr	r3, .L128+4
 2857 04be 0122     		movs	r2, #1
 2858 04c0 5A70     		strb	r2, [r3, #1]
 761:.\main.c      ****     								error_op(1,12);					//Error de Operacion //85
 2859              		.loc 1 761 0
 2860 04c2 0120     		movs	r0, #1
 2861 04c4 0C21     		movs	r1, #12
 2862 04c6 FFF7FEFF 		bl	error_op
 762:.\main.c      ****     							break;
 2863              		.loc 1 762 0
 2864 04ca 00E0     		b	.L116
 2865              	.L125:
 763:.\main.c      ****     								
 764:.\main.c      ****     							case '4':
 765:.\main.c      **** //    								lado1.estado=libre;//
 766:.\main.c      **** //    								error_op(1,12);		//			//Fin Corte
 767:.\main.c      ****     							break;								
 2866              		.loc 1 767 0
 2867 04cc 00BF     		nop
 2868              	.L116:
 2869              	.L124:
 768:.\main.c      ****     								
 769:.\main.c      ****     						}                        
 770:.\main.c      **** 					break;
 2870              		.loc 1 770 0
 2871 04ce 00BF     		nop
 2872              	.L94:
 771:.\main.c      **** 				}
 772:.\main.c      **** 				if(ok_datosRF==1){
 2873              		.loc 1 772 0
 2874 04d0 144B     		ldr	r3, .L128+20
 2875 04d2 1B78     		ldrb	r3, [r3]	@ zero_extendqisi2
 2876 04d4 012B     		cmp	r3, #1
 2877 04d6 0FD1     		bne	.L93
 773:.\main.c      **** 				    for(x=0;x<size;x++){
 2878              		.loc 1 773 0
 2879 04d8 0023     		movs	r3, #0
 2880 04da BB82     		strh	r3, [r7, #20]	@ movhi
 2881 04dc 08E0     		b	.L122
 2882              	.L123:
 774:.\main.c      **** 					   PC_PutChar(rf_mod[x]);
 2883              		.loc 1 774 0 discriminator 3
 2884 04de BB8A     		ldrh	r3, [r7, #20]
 2885 04e0 0F4A     		ldr	r2, .L128+16
 2886 04e2 D35C     		ldrb	r3, [r2, r3]	@ zero_extendqisi2
 2887 04e4 1846     		mov	r0, r3
 2888 04e6 FFF7FEFF 		bl	PC_PutChar
 773:.\main.c      **** 				    for(x=0;x<size;x++){
 2889              		.loc 1 773 0 discriminator 3
 2890 04ea BB8A     		ldrh	r3, [r7, #20]
 2891 04ec 0133     		adds	r3, r3, #1
 2892 04ee BB82     		strh	r3, [r7, #20]	@ movhi
 2893              	.L122:
 773:.\main.c      **** 				    for(x=0;x<size;x++){
 2894              		.loc 1 773 0 is_stmt 0 discriminator 1
 2895 04f0 BA8A     		ldrh	r2, [r7, #20]
ARM GAS  C:\Users\RECEPC~1\AppData\Local\Temp\cc8qeTl3.s 			page 66


 2896 04f2 FB8A     		ldrh	r3, [r7, #22]
 2897 04f4 9A42     		cmp	r2, r3
 2898 04f6 F2D3     		bcc	.L123
 2899              	.L93:
 775:.\main.c      **** 				    }	               
 776:.\main.c      **** 				}
 777:.\main.c      **** 			}
 778:.\main.c      **** 			PC_ClearRxBuffer();
 2900              		.loc 1 778 0 is_stmt 1
 2901 04f8 FFF7FEFF 		bl	PC_ClearRxBuffer
 779:.\main.c      ****             Surtidor_ClearRxBuffer();
 2902              		.loc 1 779 0
 2903 04fc FFF7FEFF 		bl	Surtidor_ClearRxBuffer
 780:.\main.c      **** 			status1=0;
 2904              		.loc 1 780 0
 2905 0500 0023     		movs	r3, #0
 2906 0502 3B82     		strh	r3, [r7, #16]	@ movhi
 781:.\main.c      **** 			status2=0;			
 2907              		.loc 1 781 0
 2908 0504 0023     		movs	r3, #0
 2909 0506 FB81     		strh	r3, [r7, #14]	@ movhi
 2910              	.L91:
 782:.\main.c      **** 		}		
 783:.\main.c      **** 	}	
 784:.\main.c      **** }
 2911              		.loc 1 784 0
 2912 0508 1837     		adds	r7, r7, #24
 2913              		.cfi_def_cfa_offset 8
 2914 050a BD46     		mov	sp, r7
 2915              		.cfi_def_cfa_register 13
 2916              		@ sp needed
 2917 050c 80BD     		pop	{r7, pc}
 2918              	.L129:
 2919 050e 00BF     		.align	2
 2920              	.L128:
 2921 0510 00000000 		.word	PC_rxBuffer
 2922 0514 00000000 		.word	lado2
 2923 0518 00000000 		.word	rventa2
 2924 051c 00000000 		.word	flujo_LCD1
 2925 0520 00000000 		.word	rf_mod
 2926 0524 00000000 		.word	ok_datosRF
 2927 0528 00000000 		.word	lado1
 2928              		.cfi_endproc
 2929              	.LFE68:
 2930              		.size	polling_rf2, .-polling_rf2
 2931              		.section	.text.polling_surt,"ax",%progbits
 2932              		.align	2
 2933              		.global	polling_surt
 2934              		.thumb
 2935              		.thumb_func
 2936              		.type	polling_surt, %function
 2937              	polling_surt:
 2938              	.LFB69:
 785:.\main.c      **** 
 786:.\main.c      **** 
 787:.\main.c      **** /*
 788:.\main.c      **** ***************************************************************************************************
ARM GAS  C:\Users\RECEPC~1\AppData\Local\Temp\cc8qeTl3.s 			page 67


 789:.\main.c      **** *                                         uint8 polling_surt(void)
 790:.\main.c      **** *
 791:.\main.c      **** * Description : 
 792:.\main.c      **** *               
 793:.\main.c      **** *
 794:.\main.c      **** * Argument(s) : none
 795:.\main.c      **** *
 796:.\main.c      **** * Return(s)   : none
 797:.\main.c      **** *
 798:.\main.c      **** * Caller(s)   : 
 799:.\main.c      **** *
 800:.\main.c      **** * Note(s)     : none.
 801:.\main.c      **** ***************************************************************************************************
 802:.\main.c      **** */
 803:.\main.c      **** 
 804:.\main.c      **** void polling_surt(void){
 2939              		.loc 1 804 0
 2940              		.cfi_startproc
 2941              		@ args = 0, pretend = 0, frame = 0
 2942              		@ frame_needed = 1, uses_anonymous_args = 0
 2943              		@ link register save eliminated.
 2944 0000 80B4     		push	{r7}
 2945              		.cfi_def_cfa_offset 4
 2946              		.cfi_offset 7, -4
 2947 0002 00AF     		add	r7, sp, #0
 2948              		.cfi_def_cfa_register 7
 805:.\main.c      **** 	         
 806:.\main.c      ****             
 807:.\main.c      **** }
 2949              		.loc 1 807 0
 2950 0004 BD46     		mov	sp, r7
 2951              		.cfi_def_cfa_register 13
 2952              		@ sp needed
 2953 0006 5DF8047B 		ldr	r7, [sp], #4
 2954              		.cfi_restore 7
 2955              		.cfi_def_cfa_offset 0
 2956 000a 7047     		bx	lr
 2957              		.cfi_endproc
 2958              	.LFE69:
 2959              		.size	polling_surt, .-polling_surt
 2960              		.global	__aeabi_dcmpge
 2961              		.global	__aeabi_dcmple
 2962              		.global	__aeabi_dcmpgt
 2963              		.section	.text.polling_LCD1,"ax",%progbits
 2964              		.align	2
 2965              		.global	polling_LCD1
 2966              		.thumb
 2967              		.thumb_func
 2968              		.type	polling_LCD1, %function
 2969              	polling_LCD1:
 2970              	.LFB70:
 808:.\main.c      **** 
 809:.\main.c      **** 
 810:.\main.c      **** 
 811:.\main.c      **** /*
 812:.\main.c      **** ***************************************************************************************************
 813:.\main.c      **** *                                         void polling_LCD1(void)
ARM GAS  C:\Users\RECEPC~1\AppData\Local\Temp\cc8qeTl3.s 			page 68


 814:.\main.c      **** *
 815:.\main.c      **** * Description : 
 816:.\main.c      **** *               
 817:.\main.c      **** *
 818:.\main.c      **** * Argument(s) : none
 819:.\main.c      **** *
 820:.\main.c      **** * Return(s)   : none
 821:.\main.c      **** *
 822:.\main.c      **** * Caller(s)   : 
 823:.\main.c      **** *
 824:.\main.c      **** * Note(s)     : none.
 825:.\main.c      **** ***************************************************************************************************
 826:.\main.c      **** */
 827:.\main.c      **** 
 828:.\main.c      **** void polling_LCD1(void){
 2971              		.loc 1 828 0
 2972              		.cfi_startproc
 2973              		@ args = 0, pretend = 0, frame = 48
 2974              		@ frame_needed = 1, uses_anonymous_args = 0
 2975 0000 B0B5     		push	{r4, r5, r7, lr}
 2976              		.cfi_def_cfa_offset 16
 2977              		.cfi_offset 4, -16
 2978              		.cfi_offset 5, -12
 2979              		.cfi_offset 7, -8
 2980              		.cfi_offset 14, -4
 2981 0002 8EB0     		sub	sp, sp, #56
 2982              		.cfi_def_cfa_offset 72
 2983 0004 02AF     		add	r7, sp, #8
 2984              		.cfi_def_cfa 7, 64
 829:.\main.c      ****     uint8 x,y,aux[10],precio[5],x_1,xaux;
 830:.\main.c      **** 	char numero[8];
 831:.\main.c      **** 	double num_decimal;   
 832:.\main.c      ****     switch(flujo_LCD1){
 2985              		.loc 1 832 0
 2986 0006 CD4B     		ldr	r3, .L713
 2987 0008 1B78     		ldrb	r3, [r3]
 2988 000a DBB2     		uxtb	r3, r3
 2989 000c 662B     		cmp	r3, #102
 2990 000e 05F22D80 		bhi	.L131
 2991 0012 01A2     		adr	r2, .L134
 2992 0014 52F823F0 		ldr	pc, [r2, r3, lsl #2]
 2993              		.p2align 2
 2994              	.L134:
 2995 0018 B5010000 		.word	.L133+1
 2996 001c 09030000 		.word	.L135+1
 2997 0020 0B040000 		.word	.L136+1
 2998 0024 07090000 		.word	.L137+1
 2999 0028 D9090000 		.word	.L138+1
 3000 002c A50D0000 		.word	.L139+1
 3001 0030 490F0000 		.word	.L140+1
 3002 0034 6D500000 		.word	.L131+1
 3003 0038 2D100000 		.word	.L141+1
 3004 003c BD120000 		.word	.L142+1
 3005 0040 6D500000 		.word	.L131+1
 3006 0044 E31B0000 		.word	.L143+1
 3007 0048 C71E0000 		.word	.L144+1
 3008 004c 39350000 		.word	.L145+1
ARM GAS  C:\Users\RECEPC~1\AppData\Local\Temp\cc8qeTl3.s 			page 69


 3009 0050 9D400000 		.word	.L146+1
 3010 0054 C3420000 		.word	.L147+1
 3011 0058 03440000 		.word	.L148+1
 3012 005c F1440000 		.word	.L149+1
 3013 0060 97450000 		.word	.L150+1
 3014 0064 574E0000 		.word	.L151+1
 3015 0068 71030000 		.word	.L152+1
 3016 006c CF010000 		.word	.L153+1
 3017 0070 6D500000 		.word	.L131+1
 3018 0074 6D500000 		.word	.L131+1
 3019 0078 6D500000 		.word	.L131+1
 3020 007c 6D500000 		.word	.L131+1
 3021 0080 6D500000 		.word	.L131+1
 3022 0084 6D500000 		.word	.L131+1
 3023 0088 6D500000 		.word	.L131+1
 3024 008c 6D500000 		.word	.L131+1
 3025 0090 6D500000 		.word	.L131+1
 3026 0094 6D500000 		.word	.L131+1
 3027 0098 6D500000 		.word	.L131+1
 3028 009c 6D500000 		.word	.L131+1
 3029 00a0 6D500000 		.word	.L131+1
 3030 00a4 6D500000 		.word	.L131+1
 3031 00a8 6D500000 		.word	.L131+1
 3032 00ac 6D500000 		.word	.L131+1
 3033 00b0 6D500000 		.word	.L131+1
 3034 00b4 6D500000 		.word	.L131+1
 3035 00b8 6D500000 		.word	.L131+1
 3036 00bc 6D500000 		.word	.L131+1
 3037 00c0 6D500000 		.word	.L131+1
 3038 00c4 6D500000 		.word	.L131+1
 3039 00c8 6D500000 		.word	.L131+1
 3040 00cc 6D500000 		.word	.L131+1
 3041 00d0 6D500000 		.word	.L131+1
 3042 00d4 6D500000 		.word	.L131+1
 3043 00d8 6D500000 		.word	.L131+1
 3044 00dc 6D500000 		.word	.L131+1
 3045 00e0 6D500000 		.word	.L131+1
 3046 00e4 6D500000 		.word	.L131+1
 3047 00e8 6D500000 		.word	.L131+1
 3048 00ec 6D500000 		.word	.L131+1
 3049 00f0 6D500000 		.word	.L131+1
 3050 00f4 6D500000 		.word	.L131+1
 3051 00f8 6D500000 		.word	.L131+1
 3052 00fc 6D500000 		.word	.L131+1
 3053 0100 6D500000 		.word	.L131+1
 3054 0104 6D500000 		.word	.L131+1
 3055 0108 6D500000 		.word	.L131+1
 3056 010c 6D500000 		.word	.L131+1
 3057 0110 6D500000 		.word	.L131+1
 3058 0114 6D500000 		.word	.L131+1
 3059 0118 6D500000 		.word	.L131+1
 3060 011c 6D500000 		.word	.L131+1
 3061 0120 6D500000 		.word	.L131+1
 3062 0124 6D500000 		.word	.L131+1
 3063 0128 6D500000 		.word	.L131+1
 3064 012c 6D500000 		.word	.L131+1
 3065 0130 6D500000 		.word	.L131+1
ARM GAS  C:\Users\RECEPC~1\AppData\Local\Temp\cc8qeTl3.s 			page 70


 3066 0134 6D500000 		.word	.L131+1
 3067 0138 6D500000 		.word	.L131+1
 3068 013c 6D500000 		.word	.L131+1
 3069 0140 6D500000 		.word	.L131+1
 3070 0144 6D500000 		.word	.L131+1
 3071 0148 6D500000 		.word	.L131+1
 3072 014c 6D500000 		.word	.L131+1
 3073 0150 6D500000 		.word	.L131+1
 3074 0154 6D500000 		.word	.L131+1
 3075 0158 6D500000 		.word	.L131+1
 3076 015c 6D500000 		.word	.L131+1
 3077 0160 6D500000 		.word	.L131+1
 3078 0164 6D500000 		.word	.L131+1
 3079 0168 6D500000 		.word	.L131+1
 3080 016c 6D500000 		.word	.L131+1
 3081 0170 6D500000 		.word	.L131+1
 3082 0174 6D500000 		.word	.L131+1
 3083 0178 6D500000 		.word	.L131+1
 3084 017c 6D500000 		.word	.L131+1
 3085 0180 6D500000 		.word	.L131+1
 3086 0184 6D500000 		.word	.L131+1
 3087 0188 6D500000 		.word	.L131+1
 3088 018c 6D500000 		.word	.L131+1
 3089 0190 6D500000 		.word	.L131+1
 3090 0194 6D500000 		.word	.L131+1
 3091 0198 6D500000 		.word	.L131+1
 3092 019c 6D500000 		.word	.L131+1
 3093 01a0 6D500000 		.word	.L131+1
 3094 01a4 6D500000 		.word	.L131+1
 3095 01a8 4D500000 		.word	.L154+1
 3096 01ac 6D500000 		.word	.L131+1
 3097 01b0 6D500000 		.word	.L131+1
 3098              		.p2align 1
 3099              	.L133:
 833:.\main.c      ****         case 0:
 834:.\main.c      ****          isr_3_StartEx(animacion); 
 3100              		.loc 1 834 0
 3101 01b4 6248     		ldr	r0, .L713+4
 3102 01b6 FFF7FEFF 		bl	isr_3_StartEx
 835:.\main.c      ****          Timer_Animacion_Start();
 3103              		.loc 1 835 0
 3104 01ba FFF7FEFF 		bl	Timer_Animacion_Start
 836:.\main.c      ****          count_protector=0;
 3105              		.loc 1 836 0
 3106 01be 614B     		ldr	r3, .L713+8
 3107 01c0 0022     		movs	r2, #0
 3108 01c2 1A70     		strb	r2, [r3]
 837:.\main.c      ****          flujo_LCD1=21;	       
 3109              		.loc 1 837 0
 3110 01c4 5D4B     		ldr	r3, .L713
 3111 01c6 1522     		movs	r2, #21
 3112 01c8 1A70     		strb	r2, [r3]
 838:.\main.c      ****         break;
 3113              		.loc 1 838 0
 3114 01ca 04F04FBF 		b	.L131
 3115              	.L153:
 839:.\main.c      ****         
ARM GAS  C:\Users\RECEPC~1\AppData\Local\Temp\cc8qeTl3.s 			page 71


 840:.\main.c      ****         case 21:
 841:.\main.c      **** //            set_imagen(1,27);                 //Pasa a pantalla de tipo de venta viejo:5
 842:.\main.c      **** //            tipo_venta = 0;
 843:.\main.c      **** //            id_teclado1 = 8;
 844:.\main.c      **** //            flujo_LCD1 = 11;             
 845:.\main.c      ****                 if(touch_present(1)==1){
 3116              		.loc 1 845 0
 3117 01ce 0120     		movs	r0, #1
 3118 01d0 FFF7FEFF 		bl	touch_present
 3119 01d4 0346     		mov	r3, r0
 3120 01d6 012B     		cmp	r3, #1
 3121 01d8 70D1     		bne	.L156
 846:.\main.c      ****                     if(touch_write(1,0x33)){
 3122              		.loc 1 846 0
 3123 01da 0120     		movs	r0, #1
 3124 01dc 3321     		movs	r1, #51
 3125 01de FFF7FEFF 		bl	touch_write
 3126 01e2 0346     		mov	r3, r0
 3127 01e4 002B     		cmp	r3, #0
 3128 01e6 69D0     		beq	.L156
 847:.\main.c      ****     	                for(x=0;x<=7;x++){
 3129              		.loc 1 847 0
 3130 01e8 0023     		movs	r3, #0
 3131 01ea 87F82F30 		strb	r3, [r7, #47]
 3132 01ee 1CE0     		b	.L157
 3133              	.L158:
 848:.\main.c      ****     	                    rventa1.id[x]=touch_read_byte(1);
 3134              		.loc 1 848 0 discriminator 3
 3135 01f0 97F82F40 		ldrb	r4, [r7, #47]	@ zero_extendqisi2
 3136 01f4 0120     		movs	r0, #1
 3137 01f6 FFF7FEFF 		bl	touch_read_byte
 3138 01fa 0346     		mov	r3, r0
 3139 01fc 1A46     		mov	r2, r3
 3140 01fe 524B     		ldr	r3, .L713+12
 3141 0200 2344     		add	r3, r3, r4
 3142 0202 83F82320 		strb	r2, [r3, #35]
 849:.\main.c      ****                             rventa2.id[x]=rventa1.id[x];
 3143              		.loc 1 849 0 discriminator 3
 3144 0206 97F82F30 		ldrb	r3, [r7, #47]	@ zero_extendqisi2
 3145 020a 97F82F20 		ldrb	r2, [r7, #47]	@ zero_extendqisi2
 3146 020e 4E49     		ldr	r1, .L713+12
 3147 0210 0A44     		add	r2, r2, r1
 3148 0212 92F82310 		ldrb	r1, [r2, #35]	@ zero_extendqisi2
 3149 0216 4D4A     		ldr	r2, .L713+16
 3150 0218 1344     		add	r3, r3, r2
 3151 021a 0A46     		mov	r2, r1
 3152 021c 83F82320 		strb	r2, [r3, #35]
 847:.\main.c      ****     	                for(x=0;x<=7;x++){
 3153              		.loc 1 847 0 discriminator 3
 3154 0220 97F82F30 		ldrb	r3, [r7, #47]	@ zero_extendqisi2
 3155 0224 0133     		adds	r3, r3, #1
 3156 0226 87F82F30 		strb	r3, [r7, #47]
 3157              	.L157:
 847:.\main.c      ****     	                for(x=0;x<=7;x++){
 3158              		.loc 1 847 0 is_stmt 0 discriminator 1
 3159 022a 97F82F30 		ldrb	r3, [r7, #47]	@ zero_extendqisi2
 3160 022e 072B     		cmp	r3, #7
ARM GAS  C:\Users\RECEPC~1\AppData\Local\Temp\cc8qeTl3.s 			page 72


 3161 0230 DED9     		bls	.L158
 850:.\main.c      ****     	                }
 851:.\main.c      ****     				    crc_total=0;
 3162              		.loc 1 851 0 is_stmt 1
 3163 0232 474B     		ldr	r3, .L713+20
 3164 0234 0022     		movs	r2, #0
 3165 0236 1A70     		strb	r2, [r3]
 852:.\main.c      ****     				    for(x=0;x<7;x++){
 3166              		.loc 1 852 0
 3167 0238 0023     		movs	r3, #0
 3168 023a 87F82F30 		strb	r3, [r7, #47]
 3169 023e 14E0     		b	.L159
 3170              	.L160:
 853:.\main.c      ****     				 	    crc_total=crc_check(crc_total,rventa1.id[x]);
 3171              		.loc 1 853 0 discriminator 3
 3172 0240 434B     		ldr	r3, .L713+20
 3173 0242 1978     		ldrb	r1, [r3]	@ zero_extendqisi2
 3174 0244 97F82F30 		ldrb	r3, [r7, #47]	@ zero_extendqisi2
 3175 0248 3F4A     		ldr	r2, .L713+12
 3176 024a 1344     		add	r3, r3, r2
 3177 024c 93F82330 		ldrb	r3, [r3, #35]	@ zero_extendqisi2
 3178 0250 0846     		mov	r0, r1
 3179 0252 1946     		mov	r1, r3
 3180 0254 FFF7FEFF 		bl	crc_check
 3181 0258 0346     		mov	r3, r0
 3182 025a 1A46     		mov	r2, r3
 3183 025c 3C4B     		ldr	r3, .L713+20
 3184 025e 1A70     		strb	r2, [r3]
 852:.\main.c      ****     				    for(x=0;x<7;x++){
 3185              		.loc 1 852 0 discriminator 3
 3186 0260 97F82F30 		ldrb	r3, [r7, #47]	@ zero_extendqisi2
 3187 0264 0133     		adds	r3, r3, #1
 3188 0266 87F82F30 		strb	r3, [r7, #47]
 3189              	.L159:
 852:.\main.c      ****     				    for(x=0;x<7;x++){
 3190              		.loc 1 852 0 is_stmt 0 discriminator 1
 3191 026a 97F82F30 		ldrb	r3, [r7, #47]	@ zero_extendqisi2
 3192 026e 062B     		cmp	r3, #6
 3193 0270 E6D9     		bls	.L160
 854:.\main.c      ****     				    }					
 855:.\main.c      ****     				    if(crc_total==rventa1.id[7]){
 3194              		.loc 1 855 0 is_stmt 1
 3195 0272 354B     		ldr	r3, .L713+12
 3196 0274 93F82A20 		ldrb	r2, [r3, #42]	@ zero_extendqisi2
 3197 0278 354B     		ldr	r3, .L713+20
 3198 027a 1B78     		ldrb	r3, [r3]	@ zero_extendqisi2
 3199 027c 9A42     		cmp	r2, r3
 3200 027e 1DD1     		bne	.L156
 856:.\main.c      ****     		                set_imagen(1,19);
 3201              		.loc 1 856 0
 3202 0280 0120     		movs	r0, #1
 3203 0282 1321     		movs	r1, #19
 3204 0284 FFF7FEFF 		bl	set_imagen
 857:.\main.c      ****     		                CyDelay(500);					 				 
 3205              		.loc 1 857 0
 3206 0288 4FF4FA70 		mov	r0, #500
 3207 028c FFF7FEFF 		bl	CyDelay
ARM GAS  C:\Users\RECEPC~1\AppData\Local\Temp\cc8qeTl3.s 			page 73


 858:.\main.c      ****     					    count_teclas1=0;							//Inicia el contador de teclas						    
 3208              		.loc 1 858 0
 3209 0290 304B     		ldr	r3, .L713+24
 3210 0292 0022     		movs	r2, #0
 3211 0294 1A70     		strb	r2, [r3]
 859:.\main.c      ****     					    teclas1=10;
 3212              		.loc 1 859 0
 3213 0296 304B     		ldr	r3, .L713+28
 3214 0298 0A22     		movs	r2, #10
 3215 029a 1A70     		strb	r2, [r3]
 860:.\main.c      ****     					    posx1=2;
 3216              		.loc 1 860 0
 3217 029c 2F4B     		ldr	r3, .L713+32
 3218 029e 0222     		movs	r2, #2
 3219 02a0 1A80     		strh	r2, [r3]	@ movhi
 861:.\main.c      ****     					    posy1=3;
 3220              		.loc 1 861 0
 3221 02a2 2F4B     		ldr	r3, .L713+36
 3222 02a4 0322     		movs	r2, #3
 3223 02a6 1A80     		strh	r2, [r3]	@ movhi
 862:.\main.c      ****     					    sizeletra1=1;	 
 3224              		.loc 1 862 0
 3225 02a8 2E4B     		ldr	r3, .L713+40
 3226 02aa 0122     		movs	r2, #1
 3227 02ac 1A80     		strh	r2, [r3]	@ movhi
 863:.\main.c      ****                             flujo_LCD1 = 20;
 3228              		.loc 1 863 0
 3229 02ae 234B     		ldr	r3, .L713
 3230 02b0 1422     		movs	r2, #20
 3231 02b2 1A70     		strb	r2, [r3]
 864:.\main.c      ****                             set_imagen(1,46);
 3232              		.loc 1 864 0
 3233 02b4 0120     		movs	r0, #1
 3234 02b6 2E21     		movs	r1, #46
 3235 02b8 FFF7FEFF 		bl	set_imagen
 3236              	.L156:
 865:.\main.c      ****     					    	
 866:.\main.c      ****     				    }
 867:.\main.c      ****                     }
 868:.\main.c      ****                 }  
 869:.\main.c      ****                    
 870:.\main.c      ****             
 871:.\main.c      ****             if(LCD_1_GetRxBufferSize()==8){
 3237              		.loc 1 871 0
 3238 02bc FFF7FEFF 		bl	LCD_1_GetRxBufferSize
 3239 02c0 0346     		mov	r3, r0
 3240 02c2 082B     		cmp	r3, #8
 3241 02c4 1ED1     		bne	.L161
 872:.\main.c      ****                 if((LCD_1_rxBuffer[0]==0xAA) && (LCD_1_rxBuffer[6]==0xC3) && (LCD_1_rxBuffer[7]==0x
 3242              		.loc 1 872 0
 3243 02c6 284B     		ldr	r3, .L713+44
 3244 02c8 1B78     		ldrb	r3, [r3]
 3245 02ca DBB2     		uxtb	r3, r3
 3246 02cc AA2B     		cmp	r3, #170
 3247 02ce 12D1     		bne	.L162
 3248              		.loc 1 872 0 is_stmt 0 discriminator 1
 3249 02d0 254B     		ldr	r3, .L713+44
ARM GAS  C:\Users\RECEPC~1\AppData\Local\Temp\cc8qeTl3.s 			page 74


 3250 02d2 9B79     		ldrb	r3, [r3, #6]
 3251 02d4 DBB2     		uxtb	r3, r3
 3252 02d6 C32B     		cmp	r3, #195
 3253 02d8 0DD1     		bne	.L162
 3254              		.loc 1 872 0 discriminator 2
 3255 02da 234B     		ldr	r3, .L713+44
 3256 02dc DB79     		ldrb	r3, [r3, #7]
 3257 02de DBB2     		uxtb	r3, r3
 3258 02e0 3C2B     		cmp	r3, #60
 3259 02e2 08D1     		bne	.L162
 873:.\main.c      ****                     switch(LCD_1_rxBuffer[3]){
 3260              		.loc 1 873 0 is_stmt 1
 3261 02e4 204B     		ldr	r3, .L713+44
 3262 02e6 DB78     		ldrb	r3, [r3, #3]
 3263 02e8 DBB2     		uxtb	r3, r3
 3264 02ea 3B2B     		cmp	r3, #59
 3265 02ec 03D1     		bne	.L162
 874:.\main.c      ****                         case 0x3B:
 875:.\main.c      ****                             flujo_LCD1=0; 
 3266              		.loc 1 875 0
 3267 02ee 134B     		ldr	r3, .L713
 3268 02f0 0022     		movs	r2, #0
 3269 02f2 1A70     		strb	r2, [r3]
 876:.\main.c      ****                         break; 
 3270              		.loc 1 876 0
 3271 02f4 00BF     		nop
 3272              	.L162:
 877:.\main.c      ****                     }
 878:.\main.c      ****                 }
 879:.\main.c      ****                 CyDelay(100);            
 3273              		.loc 1 879 0
 3274 02f6 6420     		movs	r0, #100
 3275 02f8 FFF7FEFF 		bl	CyDelay
 880:.\main.c      ****                 LCD_1_ClearRxBuffer();            
 3276              		.loc 1 880 0
 3277 02fc FFF7FEFF 		bl	LCD_1_ClearRxBuffer
 881:.\main.c      ****         }
 882:.\main.c      ****         break;
 3278              		.loc 1 882 0
 3279 0300 04F0B4BE 		b	.L131
 3280              	.L161:
 3281 0304 04F0B2BE 		b	.L131
 3282              	.L135:
 883:.\main.c      ****         
 884:.\main.c      ****         case 1:
 885:.\main.c      ****          if(LCD_1_GetRxBufferSize()==8){ 
 3283              		.loc 1 885 0
 3284 0308 FFF7FEFF 		bl	LCD_1_GetRxBufferSize
 3285 030c 0346     		mov	r3, r0
 3286 030e 082B     		cmp	r3, #8
 3287 0310 11D1     		bne	.L164
 886:.\main.c      ****              isr_3_Stop(); 
 3288              		.loc 1 886 0
 3289 0312 FFF7FEFF 		bl	isr_3_Stop
 887:.\main.c      ****              Timer_Animacion_Stop();
 3290              		.loc 1 887 0
 3291 0316 FFF7FEFF 		bl	Timer_Animacion_Stop
ARM GAS  C:\Users\RECEPC~1\AppData\Local\Temp\cc8qeTl3.s 			page 75


 888:.\main.c      ****              set_imagen(1,46);				//Muestra imagen de inicio GRP700
 3292              		.loc 1 888 0
 3293 031a 0120     		movs	r0, #1
 3294 031c 2E21     		movs	r1, #46
 3295 031e FFF7FEFF 		bl	set_imagen
 889:.\main.c      **** 	         flujo_LCD1 = 20;	         
 3296              		.loc 1 889 0
 3297 0322 064B     		ldr	r3, .L713
 3298 0324 1422     		movs	r2, #20
 3299 0326 1A70     		strb	r2, [r3]
 890:.\main.c      ****              LCD_1_ClearRxBuffer();	
 3300              		.loc 1 890 0
 3301 0328 FFF7FEFF 		bl	LCD_1_ClearRxBuffer
 891:.\main.c      ****              seleccion_pos = 0;
 3302              		.loc 1 891 0
 3303 032c 0F4B     		ldr	r3, .L713+48
 3304 032e 0022     		movs	r2, #0
 3305 0330 1A70     		strb	r2, [r3]
 892:.\main.c      ****          }
 893:.\main.c      ****         break;
 3306              		.loc 1 893 0
 3307 0332 04F09BBE 		b	.L131
 3308              	.L164:
 3309              		.loc 1 893 0 is_stmt 0 discriminator 2
 3310 0336 04F099BE 		b	.L131
 3311              	.L714:
 3312 033a 00BF     		.align	2
 3313              	.L713:
 3314 033c 00000000 		.word	flujo_LCD1
 3315 0340 00000000 		.word	animacion
 3316 0344 00000000 		.word	count_protector
 3317 0348 00000000 		.word	rventa1
 3318 034c 00000000 		.word	rventa2
 3319 0350 00000000 		.word	crc_total
 3320 0354 00000000 		.word	count_teclas1
 3321 0358 00000000 		.word	teclas1
 3322 035c 00000000 		.word	posx1
 3323 0360 00000000 		.word	posy1
 3324 0364 00000000 		.word	sizeletra1
 3325 0368 00000000 		.word	LCD_1_rxBuffer
 3326 036c 00000000 		.word	seleccion_pos
 3327              	.L152:
 894:.\main.c      ****         
 895:.\main.c      ****         case 20:        
 896:.\main.c      **** 	    if(LCD_1_GetRxBufferSize()==8){
 3328              		.loc 1 896 0 is_stmt 1
 3329 0370 FFF7FEFF 		bl	LCD_1_GetRxBufferSize
 3330 0374 0346     		mov	r3, r0
 3331 0376 082B     		cmp	r3, #8
 3332 0378 45D1     		bne	.L165
 897:.\main.c      ****             if((LCD_1_rxBuffer[0]==0xAA) && (LCD_1_rxBuffer[6]==0xC3) && (LCD_1_rxBuffer[7]==0x3C))
 3333              		.loc 1 897 0
 3334 037a BC4B     		ldr	r3, .L715
 3335 037c 1B78     		ldrb	r3, [r3]
 3336 037e DBB2     		uxtb	r3, r3
 3337 0380 AA2B     		cmp	r3, #170
 3338 0382 39D1     		bne	.L166
ARM GAS  C:\Users\RECEPC~1\AppData\Local\Temp\cc8qeTl3.s 			page 76


 3339              		.loc 1 897 0 is_stmt 0 discriminator 1
 3340 0384 B94B     		ldr	r3, .L715
 3341 0386 9B79     		ldrb	r3, [r3, #6]
 3342 0388 DBB2     		uxtb	r3, r3
 3343 038a C32B     		cmp	r3, #195
 3344 038c 34D1     		bne	.L166
 3345              		.loc 1 897 0 discriminator 2
 3346 038e B74B     		ldr	r3, .L715
 3347 0390 DB79     		ldrb	r3, [r3, #7]
 3348 0392 DBB2     		uxtb	r3, r3
 3349 0394 3C2B     		cmp	r3, #60
 3350 0396 2FD1     		bne	.L166
 898:.\main.c      ****                 switch(LCD_1_rxBuffer[3]){
 3351              		.loc 1 898 0 is_stmt 1
 3352 0398 B44B     		ldr	r3, .L715
 3353 039a DB78     		ldrb	r3, [r3, #3]
 3354 039c DBB2     		uxtb	r3, r3
 3355 039e 572B     		cmp	r3, #87
 3356 03a0 11D0     		beq	.L167
 3357 03a2 942B     		cmp	r3, #148
 3358 03a4 1DD0     		beq	.L168
 3359 03a6 562B     		cmp	r3, #86
 3360 03a8 26D1     		bne	.L166
 899:.\main.c      **** 			        case 0x56:						        //POS A                                                         
 900:.\main.c      ****                         set_imagen(1,36);           //Inicio opciones GRP 700 POS A
 3361              		.loc 1 900 0
 3362 03aa 0120     		movs	r0, #1
 3363 03ac 2421     		movs	r1, #36
 3364 03ae FFF7FEFF 		bl	set_imagen
 901:.\main.c      ****                         seleccion_pos = 1;
 3365              		.loc 1 901 0
 3366 03b2 AF4B     		ldr	r3, .L715+4
 3367 03b4 0122     		movs	r2, #1
 3368 03b6 1A70     		strb	r2, [r3]
 902:.\main.c      ****                         flujo_LCD1    = 12;  
 3369              		.loc 1 902 0
 3370 03b8 AE4B     		ldr	r3, .L715+8
 3371 03ba 0C22     		movs	r2, #12
 3372 03bc 1A70     		strb	r2, [r3]
 903:.\main.c      ****                         id_teclado1   = 8;
 3373              		.loc 1 903 0
 3374 03be AE4B     		ldr	r3, .L715+12
 3375 03c0 0822     		movs	r2, #8
 3376 03c2 1A70     		strb	r2, [r3]
 904:.\main.c      **** 				    break;
 3377              		.loc 1 904 0
 3378 03c4 18E0     		b	.L166
 3379              	.L167:
 905:.\main.c      ****                         		       
 906:.\main.c      **** 				    case 0x57:  				            //POS B                                                        
 907:.\main.c      ****                         set_imagen(1,36);           //Inicio opciones GRP 700
 3380              		.loc 1 907 0
 3381 03c6 0120     		movs	r0, #1
 3382 03c8 2421     		movs	r1, #36
 3383 03ca FFF7FEFF 		bl	set_imagen
 908:.\main.c      **** 				        seleccion_pos = 2;
 3384              		.loc 1 908 0
ARM GAS  C:\Users\RECEPC~1\AppData\Local\Temp\cc8qeTl3.s 			page 77


 3385 03ce A84B     		ldr	r3, .L715+4
 3386 03d0 0222     		movs	r2, #2
 3387 03d2 1A70     		strb	r2, [r3]
 909:.\main.c      ****                         flujo_LCD1    = 12;  
 3388              		.loc 1 909 0
 3389 03d4 A74B     		ldr	r3, .L715+8
 3390 03d6 0C22     		movs	r2, #12
 3391 03d8 1A70     		strb	r2, [r3]
 910:.\main.c      ****                         id_teclado1   = 8;
 3392              		.loc 1 910 0
 3393 03da A74B     		ldr	r3, .L715+12
 3394 03dc 0822     		movs	r2, #8
 3395 03de 1A70     		strb	r2, [r3]
 911:.\main.c      **** 				    break;
 3396              		.loc 1 911 0
 3397 03e0 0AE0     		b	.L166
 3398              	.L168:
 912:.\main.c      ****                     
 913:.\main.c      ****                     case 0x94:  				            //POS B                                            
 914:.\main.c      ****                         set_imagen(1,114);
 3399              		.loc 1 914 0
 3400 03e2 0120     		movs	r0, #1
 3401 03e4 7221     		movs	r1, #114
 3402 03e6 FFF7FEFF 		bl	set_imagen
 915:.\main.c      ****                         seleccion_pos = 1;
 3403              		.loc 1 915 0
 3404 03ea A14B     		ldr	r3, .L715+4
 3405 03ec 0122     		movs	r2, #1
 3406 03ee 1A70     		strb	r2, [r3]
 916:.\main.c      ****                         flujo_LCD1 = 15;
 3407              		.loc 1 916 0
 3408 03f0 A04B     		ldr	r3, .L715+8
 3409 03f2 0F22     		movs	r2, #15
 3410 03f4 1A70     		strb	r2, [r3]
 917:.\main.c      **** 				    break;
 3411              		.loc 1 917 0
 3412 03f6 00BF     		nop
 3413              	.L166:
 918:.\main.c      ****                                                
 919:.\main.c      **** 			    }                                                            
 920:.\main.c      **** 		    }
 921:.\main.c      ****             CyDelay(100);
 3414              		.loc 1 921 0
 3415 03f8 6420     		movs	r0, #100
 3416 03fa FFF7FEFF 		bl	CyDelay
 922:.\main.c      **** 		    LCD_1_ClearRxBuffer();
 3417              		.loc 1 922 0
 3418 03fe FFF7FEFF 		bl	LCD_1_ClearRxBuffer
 923:.\main.c      **** 	    }                                        
 924:.\main.c      ****         break;
 3419              		.loc 1 924 0
 3420 0402 04F033BE 		b	.L131
 3421              	.L165:
 3422              		.loc 1 924 0 is_stmt 0 discriminator 3
 3423 0406 04F031BE 		b	.L131
 3424              	.L136:
 925:.\main.c      ****         
ARM GAS  C:\Users\RECEPC~1\AppData\Local\Temp\cc8qeTl3.s 			page 78


 926:.\main.c      ****         case 2:
 927:.\main.c      **** 	        if(LCD_1_GetRxBufferSize()==8){
 3425              		.loc 1 927 0 is_stmt 1
 3426 040a FFF7FEFF 		bl	LCD_1_GetRxBufferSize
 3427 040e 0346     		mov	r3, r0
 3428 0410 082B     		cmp	r3, #8
 3429 0412 40F07682 		bne	.L170
 928:.\main.c      **** 	            if((LCD_1_rxBuffer[0]==0xAA) && (LCD_1_rxBuffer[6]==0xC3) && (LCD_1_rxBuffer[7]==0x3C)
 3430              		.loc 1 928 0
 3431 0416 954B     		ldr	r3, .L715
 3432 0418 1B78     		ldrb	r3, [r3]
 3433 041a DBB2     		uxtb	r3, r3
 3434 041c AA2B     		cmp	r3, #170
 3435 041e 40F06982 		bne	.L171
 3436              		.loc 1 928 0 is_stmt 0 discriminator 1
 3437 0422 924B     		ldr	r3, .L715
 3438 0424 9B79     		ldrb	r3, [r3, #6]
 3439 0426 DBB2     		uxtb	r3, r3
 3440 0428 C32B     		cmp	r3, #195
 3441 042a 40F06382 		bne	.L171
 3442              		.loc 1 928 0 discriminator 2
 3443 042e 8F4B     		ldr	r3, .L715
 3444 0430 DB79     		ldrb	r3, [r3, #7]
 3445 0432 DBB2     		uxtb	r3, r3
 3446 0434 3C2B     		cmp	r3, #60
 3447 0436 40F05D82 		bne	.L171
 929:.\main.c      ****                     switch(LCD_1_rxBuffer[3]){
 3448              		.loc 1 929 0 is_stmt 1
 3449 043a 8C4B     		ldr	r3, .L715
 3450 043c DB78     		ldrb	r3, [r3, #3]
 3451 043e DBB2     		uxtb	r3, r3
 3452 0440 592B     		cmp	r3, #89
 3453 0442 1AD0     		beq	.L172
 3454 0444 592B     		cmp	r3, #89
 3455 0446 02DC     		bgt	.L173
 3456 0448 452B     		cmp	r3, #69
 3457 044a 0ED0     		beq	.L174
 3458 044c 52E2     		b	.L171
 3459              	.L173:
 3460 044e 5C2B     		cmp	r3, #92
 3461 0450 03D0     		beq	.L175
 3462 0452 7E2B     		cmp	r3, #126
 3463 0454 00F04682 		beq	.L176
 3464 0458 4CE2     		b	.L171
 3465              	.L175:
 930:.\main.c      **** 	                    case 0x5C:                                  //Venta							
 931:.\main.c      **** 							set_imagen(1,73);
 3466              		.loc 1 931 0
 3467 045a 0120     		movs	r0, #1
 3468 045c 4921     		movs	r1, #73
 3469 045e FFF7FEFF 		bl	set_imagen
 932:.\main.c      ****                             flujo_LCD1 = 3;
 3470              		.loc 1 932 0
 3471 0462 844B     		ldr	r3, .L715+8
 3472 0464 0322     		movs	r2, #3
 3473 0466 1A70     		strb	r2, [r3]
 933:.\main.c      **** 	                    break;                
ARM GAS  C:\Users\RECEPC~1\AppData\Local\Temp\cc8qeTl3.s 			page 79


 3474              		.loc 1 933 0
 3475 0468 44E2     		b	.L171
 3476              	.L174:
 934:.\main.c      **** 	                    
 935:.\main.c      **** 	                    case 0x45:								    //Otras opciones
 936:.\main.c      ****                             set_imagen(1,114);
 3477              		.loc 1 936 0
 3478 046a 0120     		movs	r0, #1
 3479 046c 7221     		movs	r1, #114
 3480 046e FFF7FEFF 		bl	set_imagen
 937:.\main.c      ****                             flujo_LCD1 = 15;
 3481              		.loc 1 937 0
 3482 0472 804B     		ldr	r3, .L715+8
 3483 0474 0F22     		movs	r2, #15
 3484 0476 1A70     		strb	r2, [r3]
 938:.\main.c      **** 	                    break; 
 3485              		.loc 1 938 0
 3486 0478 3CE2     		b	.L171
 3487              	.L172:
 939:.\main.c      **** 
 940:.\main.c      **** 	                    case 0x59:									//Corte
 941:.\main.c      **** 							set_imagen(1,57);
 3488              		.loc 1 941 0
 3489 047a 0120     		movs	r0, #1
 3490 047c 3921     		movs	r1, #57
 3491 047e FFF7FEFF 		bl	set_imagen
 942:.\main.c      **** 							rf_mod[0]='M';
 3492              		.loc 1 942 0
 3493 0482 7E4B     		ldr	r3, .L715+16
 3494 0484 4D22     		movs	r2, #77
 3495 0486 1A70     		strb	r2, [r3]
 943:.\main.c      **** 							rf_mod[1]='U';
 3496              		.loc 1 943 0
 3497 0488 7C4B     		ldr	r3, .L715+16
 3498 048a 5522     		movs	r2, #85
 3499 048c 5A70     		strb	r2, [r3, #1]
 944:.\main.c      **** 							rf_mod[2]='X';
 3500              		.loc 1 944 0
 3501 048e 7B4B     		ldr	r3, .L715+16
 3502 0490 5822     		movs	r2, #88
 3503 0492 9A70     		strb	r2, [r3, #2]
 945:.\main.c      **** 							rf_mod[3]='2';
 3504              		.loc 1 945 0
 3505 0494 794B     		ldr	r3, .L715+16
 3506 0496 3222     		movs	r2, #50
 3507 0498 DA70     		strb	r2, [r3, #3]
 946:.\main.c      ****                             if(seleccion_pos == 1){
 3508              		.loc 1 946 0
 3509 049a 754B     		ldr	r3, .L715+4
 3510 049c 1B78     		ldrb	r3, [r3]
 3511 049e DBB2     		uxtb	r3, r3
 3512 04a0 012B     		cmp	r3, #1
 3513 04a2 40F01181 		bne	.L177
 947:.\main.c      ****                                 totales(lado1.dir, lado1.mangueras);
 3514              		.loc 1 947 0
 3515 04a6 764B     		ldr	r3, .L715+20
 3516 04a8 1B78     		ldrb	r3, [r3]
ARM GAS  C:\Users\RECEPC~1\AppData\Local\Temp\cc8qeTl3.s 			page 80


 3517 04aa DAB2     		uxtb	r2, r3
 3518 04ac 744B     		ldr	r3, .L715+20
 3519 04ae 93F85C30 		ldrb	r3, [r3, #92]
 3520 04b2 DBB2     		uxtb	r3, r3
 3521 04b4 1046     		mov	r0, r2
 3522 04b6 1946     		mov	r1, r3
 3523 04b8 FFF7FEFF 		bl	totales
 948:.\main.c      ****                                 CyDelay(50);  
 3524              		.loc 1 948 0
 3525 04bc 3220     		movs	r0, #50
 3526 04be FFF7FEFF 		bl	CyDelay
 949:.\main.c      ****                                 x_1=4;
 3527              		.loc 1 949 0
 3528 04c2 0423     		movs	r3, #4
 3529 04c4 87F82D30 		strb	r3, [r7, #45]
 950:.\main.c      ****                                 for(x=0;x<=11;x++){     //volumen_pro1 
 3530              		.loc 1 950 0
 3531 04c8 0023     		movs	r3, #0
 3532 04ca 87F82F30 		strb	r3, [r7, #47]
 3533 04ce 18E0     		b	.L178
 3534              	.L179:
 951:.\main.c      ****                                     rf_mod[x_1]=(lado1.totales[0][x]&0X0F)+48;
 3535              		.loc 1 951 0 discriminator 3
 3536 04d0 97F82D30 		ldrb	r3, [r7, #45]	@ zero_extendqisi2
 3537 04d4 97F82F20 		ldrb	r2, [r7, #47]	@ zero_extendqisi2
 3538 04d8 6949     		ldr	r1, .L715+20
 3539 04da 0A44     		add	r2, r2, r1
 3540 04dc 9278     		ldrb	r2, [r2, #2]
 3541 04de D2B2     		uxtb	r2, r2
 3542 04e0 02F00F02 		and	r2, r2, #15
 3543 04e4 D2B2     		uxtb	r2, r2
 3544 04e6 3032     		adds	r2, r2, #48
 3545 04e8 D1B2     		uxtb	r1, r2
 3546 04ea 644A     		ldr	r2, .L715+16
 3547 04ec D154     		strb	r1, [r2, r3]
 952:.\main.c      ****                                     x_1++;
 3548              		.loc 1 952 0 discriminator 3
 3549 04ee 97F82D30 		ldrb	r3, [r7, #45]	@ zero_extendqisi2
 3550 04f2 0133     		adds	r3, r3, #1
 3551 04f4 87F82D30 		strb	r3, [r7, #45]
 950:.\main.c      ****                                 for(x=0;x<=11;x++){     //volumen_pro1 
 3552              		.loc 1 950 0 discriminator 3
 3553 04f8 97F82F30 		ldrb	r3, [r7, #47]	@ zero_extendqisi2
 3554 04fc 0133     		adds	r3, r3, #1
 3555 04fe 87F82F30 		strb	r3, [r7, #47]
 3556              	.L178:
 950:.\main.c      ****                                 for(x=0;x<=11;x++){     //volumen_pro1 
 3557              		.loc 1 950 0 is_stmt 0 discriminator 1
 3558 0502 97F82F30 		ldrb	r3, [r7, #47]	@ zero_extendqisi2
 3559 0506 0B2B     		cmp	r3, #11
 3560 0508 E2D9     		bls	.L179
 953:.\main.c      ****                                 }
 954:.\main.c      ****                                 for(x=12;x<=23;x++){    //dinero_pro1
 3561              		.loc 1 954 0 is_stmt 1
 3562 050a 0C23     		movs	r3, #12
 3563 050c 87F82F30 		strb	r3, [r7, #47]
 3564 0510 18E0     		b	.L180
ARM GAS  C:\Users\RECEPC~1\AppData\Local\Temp\cc8qeTl3.s 			page 81


 3565              	.L181:
 955:.\main.c      ****                                     rf_mod[x_1]=(lado1.totales[0][x]&0X0F)+48;
 3566              		.loc 1 955 0 discriminator 3
 3567 0512 97F82D30 		ldrb	r3, [r7, #45]	@ zero_extendqisi2
 3568 0516 97F82F20 		ldrb	r2, [r7, #47]	@ zero_extendqisi2
 3569 051a 5949     		ldr	r1, .L715+20
 3570 051c 0A44     		add	r2, r2, r1
 3571 051e 9278     		ldrb	r2, [r2, #2]
 3572 0520 D2B2     		uxtb	r2, r2
 3573 0522 02F00F02 		and	r2, r2, #15
 3574 0526 D2B2     		uxtb	r2, r2
 3575 0528 3032     		adds	r2, r2, #48
 3576 052a D1B2     		uxtb	r1, r2
 3577 052c 534A     		ldr	r2, .L715+16
 3578 052e D154     		strb	r1, [r2, r3]
 956:.\main.c      ****                                     x_1++;
 3579              		.loc 1 956 0 discriminator 3
 3580 0530 97F82D30 		ldrb	r3, [r7, #45]	@ zero_extendqisi2
 3581 0534 0133     		adds	r3, r3, #1
 3582 0536 87F82D30 		strb	r3, [r7, #45]
 954:.\main.c      ****                                     rf_mod[x_1]=(lado1.totales[0][x]&0X0F)+48;
 3583              		.loc 1 954 0 discriminator 3
 3584 053a 97F82F30 		ldrb	r3, [r7, #47]	@ zero_extendqisi2
 3585 053e 0133     		adds	r3, r3, #1
 3586 0540 87F82F30 		strb	r3, [r7, #47]
 3587              	.L180:
 954:.\main.c      ****                                     rf_mod[x_1]=(lado1.totales[0][x]&0X0F)+48;
 3588              		.loc 1 954 0 is_stmt 0 discriminator 1
 3589 0544 97F82F30 		ldrb	r3, [r7, #47]	@ zero_extendqisi2
 3590 0548 172B     		cmp	r3, #23
 3591 054a E2D9     		bls	.L181
 957:.\main.c      ****                                 }           
 958:.\main.c      ****                                 for(x=0;x<=11;x++){     //volumen_pro2     
 3592              		.loc 1 958 0 is_stmt 1
 3593 054c 0023     		movs	r3, #0
 3594 054e 87F82F30 		strb	r3, [r7, #47]
 3595 0552 18E0     		b	.L182
 3596              	.L183:
 959:.\main.c      ****                                     rf_mod[x_1]=(lado1.totales[1][x]&0X0F)+48;
 3597              		.loc 1 959 0 discriminator 3
 3598 0554 97F82D30 		ldrb	r3, [r7, #45]	@ zero_extendqisi2
 3599 0558 97F82F20 		ldrb	r2, [r7, #47]	@ zero_extendqisi2
 3600 055c 4849     		ldr	r1, .L715+20
 3601 055e 0A44     		add	r2, r2, r1
 3602 0560 927E     		ldrb	r2, [r2, #26]
 3603 0562 D2B2     		uxtb	r2, r2
 3604 0564 02F00F02 		and	r2, r2, #15
 3605 0568 D2B2     		uxtb	r2, r2
 3606 056a 3032     		adds	r2, r2, #48
 3607 056c D1B2     		uxtb	r1, r2
 3608 056e 434A     		ldr	r2, .L715+16
 3609 0570 D154     		strb	r1, [r2, r3]
 960:.\main.c      ****                                     x_1++;
 3610              		.loc 1 960 0 discriminator 3
 3611 0572 97F82D30 		ldrb	r3, [r7, #45]	@ zero_extendqisi2
 3612 0576 0133     		adds	r3, r3, #1
 3613 0578 87F82D30 		strb	r3, [r7, #45]
ARM GAS  C:\Users\RECEPC~1\AppData\Local\Temp\cc8qeTl3.s 			page 82


 958:.\main.c      ****                                     rf_mod[x_1]=(lado1.totales[1][x]&0X0F)+48;
 3614              		.loc 1 958 0 discriminator 3
 3615 057c 97F82F30 		ldrb	r3, [r7, #47]	@ zero_extendqisi2
 3616 0580 0133     		adds	r3, r3, #1
 3617 0582 87F82F30 		strb	r3, [r7, #47]
 3618              	.L182:
 958:.\main.c      ****                                     rf_mod[x_1]=(lado1.totales[1][x]&0X0F)+48;
 3619              		.loc 1 958 0 is_stmt 0 discriminator 1
 3620 0586 97F82F30 		ldrb	r3, [r7, #47]	@ zero_extendqisi2
 3621 058a 0B2B     		cmp	r3, #11
 3622 058c E2D9     		bls	.L183
 961:.\main.c      ****                                 }
 962:.\main.c      ****                                 for(x=12;x<=23;x++){    //dinero_pro2    
 3623              		.loc 1 962 0 is_stmt 1
 3624 058e 0C23     		movs	r3, #12
 3625 0590 87F82F30 		strb	r3, [r7, #47]
 3626 0594 18E0     		b	.L184
 3627              	.L185:
 963:.\main.c      ****                                     rf_mod[x_1]=(lado1.totales[1][x]&0X0F)+48;
 3628              		.loc 1 963 0 discriminator 3
 3629 0596 97F82D30 		ldrb	r3, [r7, #45]	@ zero_extendqisi2
 3630 059a 97F82F20 		ldrb	r2, [r7, #47]	@ zero_extendqisi2
 3631 059e 3849     		ldr	r1, .L715+20
 3632 05a0 0A44     		add	r2, r2, r1
 3633 05a2 927E     		ldrb	r2, [r2, #26]
 3634 05a4 D2B2     		uxtb	r2, r2
 3635 05a6 02F00F02 		and	r2, r2, #15
 3636 05aa D2B2     		uxtb	r2, r2
 3637 05ac 3032     		adds	r2, r2, #48
 3638 05ae D1B2     		uxtb	r1, r2
 3639 05b0 324A     		ldr	r2, .L715+16
 3640 05b2 D154     		strb	r1, [r2, r3]
 964:.\main.c      ****                                     x_1++;
 3641              		.loc 1 964 0 discriminator 3
 3642 05b4 97F82D30 		ldrb	r3, [r7, #45]	@ zero_extendqisi2
 3643 05b8 0133     		adds	r3, r3, #1
 3644 05ba 87F82D30 		strb	r3, [r7, #45]
 962:.\main.c      ****                                     rf_mod[x_1]=(lado1.totales[1][x]&0X0F)+48;
 3645              		.loc 1 962 0 discriminator 3
 3646 05be 97F82F30 		ldrb	r3, [r7, #47]	@ zero_extendqisi2
 3647 05c2 0133     		adds	r3, r3, #1
 3648 05c4 87F82F30 		strb	r3, [r7, #47]
 3649              	.L184:
 962:.\main.c      ****                                     rf_mod[x_1]=(lado1.totales[1][x]&0X0F)+48;
 3650              		.loc 1 962 0 is_stmt 0 discriminator 1
 3651 05c8 97F82F30 		ldrb	r3, [r7, #47]	@ zero_extendqisi2
 3652 05cc 172B     		cmp	r3, #23
 3653 05ce E2D9     		bls	.L185
 965:.\main.c      ****                                 }           
 966:.\main.c      ****                                 for(x=0;x<=11;x++){     //volumen_pro3   
 3654              		.loc 1 966 0 is_stmt 1
 3655 05d0 0023     		movs	r3, #0
 3656 05d2 87F82F30 		strb	r3, [r7, #47]
 3657 05d6 19E0     		b	.L186
 3658              	.L187:
 967:.\main.c      ****                                     rf_mod[x_1]=(lado1.totales[2][x]&0X0F)+48;
 3659              		.loc 1 967 0 discriminator 3
ARM GAS  C:\Users\RECEPC~1\AppData\Local\Temp\cc8qeTl3.s 			page 83


 3660 05d8 97F82D30 		ldrb	r3, [r7, #45]	@ zero_extendqisi2
 3661 05dc 97F82F20 		ldrb	r2, [r7, #47]	@ zero_extendqisi2
 3662 05e0 2749     		ldr	r1, .L715+20
 3663 05e2 0A44     		add	r2, r2, r1
 3664 05e4 92F83220 		ldrb	r2, [r2, #50]
 3665 05e8 D2B2     		uxtb	r2, r2
 3666 05ea 02F00F02 		and	r2, r2, #15
 3667 05ee D2B2     		uxtb	r2, r2
 3668 05f0 3032     		adds	r2, r2, #48
 3669 05f2 D1B2     		uxtb	r1, r2
 3670 05f4 214A     		ldr	r2, .L715+16
 3671 05f6 D154     		strb	r1, [r2, r3]
 968:.\main.c      ****                                     x_1++;
 3672              		.loc 1 968 0 discriminator 3
 3673 05f8 97F82D30 		ldrb	r3, [r7, #45]	@ zero_extendqisi2
 3674 05fc 0133     		adds	r3, r3, #1
 3675 05fe 87F82D30 		strb	r3, [r7, #45]
 966:.\main.c      ****                                     rf_mod[x_1]=(lado1.totales[2][x]&0X0F)+48;
 3676              		.loc 1 966 0 discriminator 3
 3677 0602 97F82F30 		ldrb	r3, [r7, #47]	@ zero_extendqisi2
 3678 0606 0133     		adds	r3, r3, #1
 3679 0608 87F82F30 		strb	r3, [r7, #47]
 3680              	.L186:
 966:.\main.c      ****                                     rf_mod[x_1]=(lado1.totales[2][x]&0X0F)+48;
 3681              		.loc 1 966 0 is_stmt 0 discriminator 1
 3682 060c 97F82F30 		ldrb	r3, [r7, #47]	@ zero_extendqisi2
 3683 0610 0B2B     		cmp	r3, #11
 3684 0612 E1D9     		bls	.L187
 969:.\main.c      ****                                 }
 970:.\main.c      ****                                 for(x=12;x<=23;x++){    //dinero_pro3    
 3685              		.loc 1 970 0 is_stmt 1
 3686 0614 0C23     		movs	r3, #12
 3687 0616 87F82F30 		strb	r3, [r7, #47]
 3688 061a 19E0     		b	.L188
 3689              	.L189:
 971:.\main.c      ****                                     rf_mod[x_1]=(lado1.totales[2][x]&0X0F)+48;
 3690              		.loc 1 971 0 discriminator 3
 3691 061c 97F82D30 		ldrb	r3, [r7, #45]	@ zero_extendqisi2
 3692 0620 97F82F20 		ldrb	r2, [r7, #47]	@ zero_extendqisi2
 3693 0624 1649     		ldr	r1, .L715+20
 3694 0626 0A44     		add	r2, r2, r1
 3695 0628 92F83220 		ldrb	r2, [r2, #50]
 3696 062c D2B2     		uxtb	r2, r2
 3697 062e 02F00F02 		and	r2, r2, #15
 3698 0632 D2B2     		uxtb	r2, r2
 3699 0634 3032     		adds	r2, r2, #48
 3700 0636 D1B2     		uxtb	r1, r2
 3701 0638 104A     		ldr	r2, .L715+16
 3702 063a D154     		strb	r1, [r2, r3]
 972:.\main.c      ****                                     x_1++;
 3703              		.loc 1 972 0 discriminator 3
 3704 063c 97F82D30 		ldrb	r3, [r7, #45]	@ zero_extendqisi2
 3705 0640 0133     		adds	r3, r3, #1
 3706 0642 87F82D30 		strb	r3, [r7, #45]
 970:.\main.c      ****                                     rf_mod[x_1]=(lado1.totales[2][x]&0X0F)+48;
 3707              		.loc 1 970 0 discriminator 3
 3708 0646 97F82F30 		ldrb	r3, [r7, #47]	@ zero_extendqisi2
ARM GAS  C:\Users\RECEPC~1\AppData\Local\Temp\cc8qeTl3.s 			page 84


 3709 064a 0133     		adds	r3, r3, #1
 3710 064c 87F82F30 		strb	r3, [r7, #47]
 3711              	.L188:
 970:.\main.c      ****                                     rf_mod[x_1]=(lado1.totales[2][x]&0X0F)+48;
 3712              		.loc 1 970 0 is_stmt 0 discriminator 1
 3713 0650 97F82F30 		ldrb	r3, [r7, #47]	@ zero_extendqisi2
 3714 0654 172B     		cmp	r3, #23
 3715 0656 E1D9     		bls	.L189
 973:.\main.c      ****                                 }
 974:.\main.c      ****                                 rf_mod[75]='*';                            
 3716              		.loc 1 974 0 is_stmt 1
 3717 0658 084B     		ldr	r3, .L715+16
 3718 065a 2A22     		movs	r2, #42
 3719 065c 83F84B20 		strb	r2, [r3, #75]
 975:.\main.c      ****                                 PC_ClearRxBuffer();
 3720              		.loc 1 975 0
 3721 0660 FFF7FEFF 		bl	PC_ClearRxBuffer
 976:.\main.c      ****     						    for(x=0;x<=75;x++){
 3722              		.loc 1 976 0
 3723 0664 0023     		movs	r3, #0
 3724 0666 87F82F30 		strb	r3, [r7, #47]
 3725 066a 17E0     		b	.L190
 3726              	.L716:
 3727              		.align	2
 3728              	.L715:
 3729 066c 00000000 		.word	LCD_1_rxBuffer
 3730 0670 00000000 		.word	seleccion_pos
 3731 0674 00000000 		.word	flujo_LCD1
 3732 0678 00000000 		.word	id_teclado1
 3733 067c 00000000 		.word	rf_mod
 3734 0680 00000000 		.word	lado1
 3735              	.L191:
 977:.\main.c      ****     							   PC_PutChar(rf_mod[x]);
 3736              		.loc 1 977 0 discriminator 3
 3737 0684 97F82F30 		ldrb	r3, [r7, #47]	@ zero_extendqisi2
 3738 0688 CB4A     		ldr	r2, .L717
 3739 068a D35C     		ldrb	r3, [r2, r3]	@ zero_extendqisi2
 3740 068c 1846     		mov	r0, r3
 3741 068e FFF7FEFF 		bl	PC_PutChar
 976:.\main.c      ****     						    for(x=0;x<=75;x++){
 3742              		.loc 1 976 0 discriminator 3
 3743 0692 97F82F30 		ldrb	r3, [r7, #47]	@ zero_extendqisi2
 3744 0696 0133     		adds	r3, r3, #1
 3745 0698 87F82F30 		strb	r3, [r7, #47]
 3746              	.L190:
 976:.\main.c      ****     						    for(x=0;x<=75;x++){
 3747              		.loc 1 976 0 is_stmt 0 discriminator 1
 3748 069c 97F82F30 		ldrb	r3, [r7, #47]	@ zero_extendqisi2
 3749 06a0 4B2B     		cmp	r3, #75
 3750 06a2 EFD9     		bls	.L191
 978:.\main.c      ****     						    }                                 
 979:.\main.c      ****     							CyDelay(250);                
 3751              		.loc 1 979 0 is_stmt 1
 3752 06a4 FA20     		movs	r0, #250
 3753 06a6 FFF7FEFF 		bl	CyDelay
 980:.\main.c      ****     							if(PC_GetRxBufferSize()>=2){
 3754              		.loc 1 980 0
ARM GAS  C:\Users\RECEPC~1\AppData\Local\Temp\cc8qeTl3.s 			page 85


 3755 06aa FFF7FEFF 		bl	PC_GetRxBufferSize
 3756 06ae 0346     		mov	r3, r0
 3757 06b0 012B     		cmp	r3, #1
 3758 06b2 09D9     		bls	.L177
 981:.\main.c      ****  							        set_imagen(1,74);
 3759              		.loc 1 981 0
 3760 06b4 0120     		movs	r0, #1
 3761 06b6 4A21     		movs	r1, #74
 3762 06b8 FFF7FEFF 		bl	set_imagen
 982:.\main.c      **** 							        flujo_LCD1=0;
 3763              		.loc 1 982 0
 3764 06bc BF4B     		ldr	r3, .L717+4
 3765 06be 0022     		movs	r2, #0
 3766 06c0 1A70     		strb	r2, [r3]
 983:.\main.c      **** 							        lado1.estado=libre;     //Fin de reimpresion                                        
 3767              		.loc 1 983 0
 3768 06c2 BF4B     		ldr	r3, .L717+8
 3769 06c4 0122     		movs	r2, #1
 3770 06c6 5A70     		strb	r2, [r3, #1]
 3771              	.L177:
 984:.\main.c      **** 							    }
 985:.\main.c      ****                             }
 986:.\main.c      ****                 			if(seleccion_pos == 2){
 3772              		.loc 1 986 0
 3773 06c8 BE4B     		ldr	r3, .L717+12
 3774 06ca 1B78     		ldrb	r3, [r3]
 3775 06cc DBB2     		uxtb	r3, r3
 3776 06ce 022B     		cmp	r3, #2
 3777 06d0 40F00581 		bne	.L192
 987:.\main.c      ****                                 totales(lado2.dir, lado2.mangueras);
 3778              		.loc 1 987 0
 3779 06d4 BC4B     		ldr	r3, .L717+16
 3780 06d6 1B78     		ldrb	r3, [r3]
 3781 06d8 DAB2     		uxtb	r2, r3
 3782 06da BB4B     		ldr	r3, .L717+16
 3783 06dc 93F85C30 		ldrb	r3, [r3, #92]
 3784 06e0 DBB2     		uxtb	r3, r3
 3785 06e2 1046     		mov	r0, r2
 3786 06e4 1946     		mov	r1, r3
 3787 06e6 FFF7FEFF 		bl	totales
 988:.\main.c      ****                                 CyDelay(50);  
 3788              		.loc 1 988 0
 3789 06ea 3220     		movs	r0, #50
 3790 06ec FFF7FEFF 		bl	CyDelay
 989:.\main.c      ****                                 x_1=4;
 3791              		.loc 1 989 0
 3792 06f0 0423     		movs	r3, #4
 3793 06f2 87F82D30 		strb	r3, [r7, #45]
 990:.\main.c      ****                                 for(x=0;x<=11;x++){     //volumen_pro1 
 3794              		.loc 1 990 0
 3795 06f6 0023     		movs	r3, #0
 3796 06f8 87F82F30 		strb	r3, [r7, #47]
 3797 06fc 18E0     		b	.L193
 3798              	.L194:
 991:.\main.c      ****                                     rf_mod[x_1]=(lado2.totales[0][x]&0X0F)+48;
 3799              		.loc 1 991 0 discriminator 3
 3800 06fe 97F82D30 		ldrb	r3, [r7, #45]	@ zero_extendqisi2
ARM GAS  C:\Users\RECEPC~1\AppData\Local\Temp\cc8qeTl3.s 			page 86


 3801 0702 97F82F20 		ldrb	r2, [r7, #47]	@ zero_extendqisi2
 3802 0706 B049     		ldr	r1, .L717+16
 3803 0708 0A44     		add	r2, r2, r1
 3804 070a 9278     		ldrb	r2, [r2, #2]
 3805 070c D2B2     		uxtb	r2, r2
 3806 070e 02F00F02 		and	r2, r2, #15
 3807 0712 D2B2     		uxtb	r2, r2
 3808 0714 3032     		adds	r2, r2, #48
 3809 0716 D1B2     		uxtb	r1, r2
 3810 0718 A74A     		ldr	r2, .L717
 3811 071a D154     		strb	r1, [r2, r3]
 992:.\main.c      ****                                     x_1++;
 3812              		.loc 1 992 0 discriminator 3
 3813 071c 97F82D30 		ldrb	r3, [r7, #45]	@ zero_extendqisi2
 3814 0720 0133     		adds	r3, r3, #1
 3815 0722 87F82D30 		strb	r3, [r7, #45]
 990:.\main.c      ****                                 for(x=0;x<=11;x++){     //volumen_pro1 
 3816              		.loc 1 990 0 discriminator 3
 3817 0726 97F82F30 		ldrb	r3, [r7, #47]	@ zero_extendqisi2
 3818 072a 0133     		adds	r3, r3, #1
 3819 072c 87F82F30 		strb	r3, [r7, #47]
 3820              	.L193:
 990:.\main.c      ****                                 for(x=0;x<=11;x++){     //volumen_pro1 
 3821              		.loc 1 990 0 is_stmt 0 discriminator 1
 3822 0730 97F82F30 		ldrb	r3, [r7, #47]	@ zero_extendqisi2
 3823 0734 0B2B     		cmp	r3, #11
 3824 0736 E2D9     		bls	.L194
 993:.\main.c      ****                                 }
 994:.\main.c      ****                                 for(x=12;x<=23;x++){    //dinero_pro1
 3825              		.loc 1 994 0 is_stmt 1
 3826 0738 0C23     		movs	r3, #12
 3827 073a 87F82F30 		strb	r3, [r7, #47]
 3828 073e 18E0     		b	.L195
 3829              	.L196:
 995:.\main.c      ****                                     rf_mod[x_1]=(lado2.totales[0][x]&0X0F)+48;
 3830              		.loc 1 995 0 discriminator 3
 3831 0740 97F82D30 		ldrb	r3, [r7, #45]	@ zero_extendqisi2
 3832 0744 97F82F20 		ldrb	r2, [r7, #47]	@ zero_extendqisi2
 3833 0748 9F49     		ldr	r1, .L717+16
 3834 074a 0A44     		add	r2, r2, r1
 3835 074c 9278     		ldrb	r2, [r2, #2]
 3836 074e D2B2     		uxtb	r2, r2
 3837 0750 02F00F02 		and	r2, r2, #15
 3838 0754 D2B2     		uxtb	r2, r2
 3839 0756 3032     		adds	r2, r2, #48
 3840 0758 D1B2     		uxtb	r1, r2
 3841 075a 974A     		ldr	r2, .L717
 3842 075c D154     		strb	r1, [r2, r3]
 996:.\main.c      ****                                     x_1++;
 3843              		.loc 1 996 0 discriminator 3
 3844 075e 97F82D30 		ldrb	r3, [r7, #45]	@ zero_extendqisi2
 3845 0762 0133     		adds	r3, r3, #1
 3846 0764 87F82D30 		strb	r3, [r7, #45]
 994:.\main.c      ****                                     rf_mod[x_1]=(lado2.totales[0][x]&0X0F)+48;
 3847              		.loc 1 994 0 discriminator 3
 3848 0768 97F82F30 		ldrb	r3, [r7, #47]	@ zero_extendqisi2
 3849 076c 0133     		adds	r3, r3, #1
ARM GAS  C:\Users\RECEPC~1\AppData\Local\Temp\cc8qeTl3.s 			page 87


 3850 076e 87F82F30 		strb	r3, [r7, #47]
 3851              	.L195:
 994:.\main.c      ****                                     rf_mod[x_1]=(lado2.totales[0][x]&0X0F)+48;
 3852              		.loc 1 994 0 is_stmt 0 discriminator 1
 3853 0772 97F82F30 		ldrb	r3, [r7, #47]	@ zero_extendqisi2
 3854 0776 172B     		cmp	r3, #23
 3855 0778 E2D9     		bls	.L196
 997:.\main.c      ****                                 }           
 998:.\main.c      ****                                 for(x=0;x<=11;x++){     //volumen_pro2     
 3856              		.loc 1 998 0 is_stmt 1
 3857 077a 0023     		movs	r3, #0
 3858 077c 87F82F30 		strb	r3, [r7, #47]
 3859 0780 18E0     		b	.L197
 3860              	.L198:
 999:.\main.c      ****                                     rf_mod[x_1]=(lado2.totales[1][x]&0X0F)+48;
 3861              		.loc 1 999 0 discriminator 3
 3862 0782 97F82D30 		ldrb	r3, [r7, #45]	@ zero_extendqisi2
 3863 0786 97F82F20 		ldrb	r2, [r7, #47]	@ zero_extendqisi2
 3864 078a 8F49     		ldr	r1, .L717+16
 3865 078c 0A44     		add	r2, r2, r1
 3866 078e 927E     		ldrb	r2, [r2, #26]
 3867 0790 D2B2     		uxtb	r2, r2
 3868 0792 02F00F02 		and	r2, r2, #15
 3869 0796 D2B2     		uxtb	r2, r2
 3870 0798 3032     		adds	r2, r2, #48
 3871 079a D1B2     		uxtb	r1, r2
 3872 079c 864A     		ldr	r2, .L717
 3873 079e D154     		strb	r1, [r2, r3]
1000:.\main.c      ****                                     x_1++;
 3874              		.loc 1 1000 0 discriminator 3
 3875 07a0 97F82D30 		ldrb	r3, [r7, #45]	@ zero_extendqisi2
 3876 07a4 0133     		adds	r3, r3, #1
 3877 07a6 87F82D30 		strb	r3, [r7, #45]
 998:.\main.c      ****                                     rf_mod[x_1]=(lado2.totales[1][x]&0X0F)+48;
 3878              		.loc 1 998 0 discriminator 3
 3879 07aa 97F82F30 		ldrb	r3, [r7, #47]	@ zero_extendqisi2
 3880 07ae 0133     		adds	r3, r3, #1
 3881 07b0 87F82F30 		strb	r3, [r7, #47]
 3882              	.L197:
 998:.\main.c      ****                                     rf_mod[x_1]=(lado2.totales[1][x]&0X0F)+48;
 3883              		.loc 1 998 0 is_stmt 0 discriminator 1
 3884 07b4 97F82F30 		ldrb	r3, [r7, #47]	@ zero_extendqisi2
 3885 07b8 0B2B     		cmp	r3, #11
 3886 07ba E2D9     		bls	.L198
1001:.\main.c      ****                                 }
1002:.\main.c      ****                                 for(x=12;x<=23;x++){    //dinero_pro2    
 3887              		.loc 1 1002 0 is_stmt 1
 3888 07bc 0C23     		movs	r3, #12
 3889 07be 87F82F30 		strb	r3, [r7, #47]
 3890 07c2 18E0     		b	.L199
 3891              	.L200:
1003:.\main.c      ****                                     rf_mod[x_1]=(lado2.totales[1][x]&0X0F)+48;
 3892              		.loc 1 1003 0 discriminator 3
 3893 07c4 97F82D30 		ldrb	r3, [r7, #45]	@ zero_extendqisi2
 3894 07c8 97F82F20 		ldrb	r2, [r7, #47]	@ zero_extendqisi2
 3895 07cc 7E49     		ldr	r1, .L717+16
 3896 07ce 0A44     		add	r2, r2, r1
ARM GAS  C:\Users\RECEPC~1\AppData\Local\Temp\cc8qeTl3.s 			page 88


 3897 07d0 927E     		ldrb	r2, [r2, #26]
 3898 07d2 D2B2     		uxtb	r2, r2
 3899 07d4 02F00F02 		and	r2, r2, #15
 3900 07d8 D2B2     		uxtb	r2, r2
 3901 07da 3032     		adds	r2, r2, #48
 3902 07dc D1B2     		uxtb	r1, r2
 3903 07de 764A     		ldr	r2, .L717
 3904 07e0 D154     		strb	r1, [r2, r3]
1004:.\main.c      ****                                     x_1++;
 3905              		.loc 1 1004 0 discriminator 3
 3906 07e2 97F82D30 		ldrb	r3, [r7, #45]	@ zero_extendqisi2
 3907 07e6 0133     		adds	r3, r3, #1
 3908 07e8 87F82D30 		strb	r3, [r7, #45]
1002:.\main.c      ****                                     rf_mod[x_1]=(lado2.totales[1][x]&0X0F)+48;
 3909              		.loc 1 1002 0 discriminator 3
 3910 07ec 97F82F30 		ldrb	r3, [r7, #47]	@ zero_extendqisi2
 3911 07f0 0133     		adds	r3, r3, #1
 3912 07f2 87F82F30 		strb	r3, [r7, #47]
 3913              	.L199:
1002:.\main.c      ****                                     rf_mod[x_1]=(lado2.totales[1][x]&0X0F)+48;
 3914              		.loc 1 1002 0 is_stmt 0 discriminator 1
 3915 07f6 97F82F30 		ldrb	r3, [r7, #47]	@ zero_extendqisi2
 3916 07fa 172B     		cmp	r3, #23
 3917 07fc E2D9     		bls	.L200
1005:.\main.c      ****                                 }           
1006:.\main.c      ****                                 for(x=0;x<=11;x++){     //volumen_pro3   
 3918              		.loc 1 1006 0 is_stmt 1
 3919 07fe 0023     		movs	r3, #0
 3920 0800 87F82F30 		strb	r3, [r7, #47]
 3921 0804 19E0     		b	.L201
 3922              	.L202:
1007:.\main.c      ****                                     rf_mod[x_1]=(lado2.totales[2][x]&0X0F)+48;
 3923              		.loc 1 1007 0 discriminator 3
 3924 0806 97F82D30 		ldrb	r3, [r7, #45]	@ zero_extendqisi2
 3925 080a 97F82F20 		ldrb	r2, [r7, #47]	@ zero_extendqisi2
 3926 080e 6E49     		ldr	r1, .L717+16
 3927 0810 0A44     		add	r2, r2, r1
 3928 0812 92F83220 		ldrb	r2, [r2, #50]
 3929 0816 D2B2     		uxtb	r2, r2
 3930 0818 02F00F02 		and	r2, r2, #15
 3931 081c D2B2     		uxtb	r2, r2
 3932 081e 3032     		adds	r2, r2, #48
 3933 0820 D1B2     		uxtb	r1, r2
 3934 0822 654A     		ldr	r2, .L717
 3935 0824 D154     		strb	r1, [r2, r3]
1008:.\main.c      ****                                     x_1++;
 3936              		.loc 1 1008 0 discriminator 3
 3937 0826 97F82D30 		ldrb	r3, [r7, #45]	@ zero_extendqisi2
 3938 082a 0133     		adds	r3, r3, #1
 3939 082c 87F82D30 		strb	r3, [r7, #45]
1006:.\main.c      ****                                     rf_mod[x_1]=(lado2.totales[2][x]&0X0F)+48;
 3940              		.loc 1 1006 0 discriminator 3
 3941 0830 97F82F30 		ldrb	r3, [r7, #47]	@ zero_extendqisi2
 3942 0834 0133     		adds	r3, r3, #1
 3943 0836 87F82F30 		strb	r3, [r7, #47]
 3944              	.L201:
1006:.\main.c      ****                                     rf_mod[x_1]=(lado2.totales[2][x]&0X0F)+48;
ARM GAS  C:\Users\RECEPC~1\AppData\Local\Temp\cc8qeTl3.s 			page 89


 3945              		.loc 1 1006 0 is_stmt 0 discriminator 1
 3946 083a 97F82F30 		ldrb	r3, [r7, #47]	@ zero_extendqisi2
 3947 083e 0B2B     		cmp	r3, #11
 3948 0840 E1D9     		bls	.L202
1009:.\main.c      ****                                 }
1010:.\main.c      ****                                 for(x=12;x<=23;x++){    //dinero_pro3    
 3949              		.loc 1 1010 0 is_stmt 1
 3950 0842 0C23     		movs	r3, #12
 3951 0844 87F82F30 		strb	r3, [r7, #47]
 3952 0848 19E0     		b	.L203
 3953              	.L204:
1011:.\main.c      ****                                     rf_mod[x_1]=(lado2.totales[2][x]&0X0F)+48;
 3954              		.loc 1 1011 0 discriminator 3
 3955 084a 97F82D30 		ldrb	r3, [r7, #45]	@ zero_extendqisi2
 3956 084e 97F82F20 		ldrb	r2, [r7, #47]	@ zero_extendqisi2
 3957 0852 5D49     		ldr	r1, .L717+16
 3958 0854 0A44     		add	r2, r2, r1
 3959 0856 92F83220 		ldrb	r2, [r2, #50]
 3960 085a D2B2     		uxtb	r2, r2
 3961 085c 02F00F02 		and	r2, r2, #15
 3962 0860 D2B2     		uxtb	r2, r2
 3963 0862 3032     		adds	r2, r2, #48
 3964 0864 D1B2     		uxtb	r1, r2
 3965 0866 544A     		ldr	r2, .L717
 3966 0868 D154     		strb	r1, [r2, r3]
1012:.\main.c      ****                                     x_1++;
 3967              		.loc 1 1012 0 discriminator 3
 3968 086a 97F82D30 		ldrb	r3, [r7, #45]	@ zero_extendqisi2
 3969 086e 0133     		adds	r3, r3, #1
 3970 0870 87F82D30 		strb	r3, [r7, #45]
1010:.\main.c      ****                                     rf_mod[x_1]=(lado2.totales[2][x]&0X0F)+48;
 3971              		.loc 1 1010 0 discriminator 3
 3972 0874 97F82F30 		ldrb	r3, [r7, #47]	@ zero_extendqisi2
 3973 0878 0133     		adds	r3, r3, #1
 3974 087a 87F82F30 		strb	r3, [r7, #47]
 3975              	.L203:
1010:.\main.c      ****                                     rf_mod[x_1]=(lado2.totales[2][x]&0X0F)+48;
 3976              		.loc 1 1010 0 is_stmt 0 discriminator 1
 3977 087e 97F82F30 		ldrb	r3, [r7, #47]	@ zero_extendqisi2
 3978 0882 172B     		cmp	r3, #23
 3979 0884 E1D9     		bls	.L204
1013:.\main.c      ****                                 }
1014:.\main.c      ****                                 rf_mod[75]='*';                            
 3980              		.loc 1 1014 0 is_stmt 1
 3981 0886 4C4B     		ldr	r3, .L717
 3982 0888 2A22     		movs	r2, #42
 3983 088a 83F84B20 		strb	r2, [r3, #75]
1015:.\main.c      ****                                 PC_ClearRxBuffer();
 3984              		.loc 1 1015 0
 3985 088e FFF7FEFF 		bl	PC_ClearRxBuffer
1016:.\main.c      ****     						    for(x=0;x<=75;x++){
 3986              		.loc 1 1016 0
 3987 0892 0023     		movs	r3, #0
 3988 0894 87F82F30 		strb	r3, [r7, #47]
 3989 0898 0BE0     		b	.L205
 3990              	.L206:
1017:.\main.c      ****     							   PC_PutChar(rf_mod[x]);
ARM GAS  C:\Users\RECEPC~1\AppData\Local\Temp\cc8qeTl3.s 			page 90


 3991              		.loc 1 1017 0 discriminator 3
 3992 089a 97F82F30 		ldrb	r3, [r7, #47]	@ zero_extendqisi2
 3993 089e 464A     		ldr	r2, .L717
 3994 08a0 D35C     		ldrb	r3, [r2, r3]	@ zero_extendqisi2
 3995 08a2 1846     		mov	r0, r3
 3996 08a4 FFF7FEFF 		bl	PC_PutChar
1016:.\main.c      ****     						    for(x=0;x<=75;x++){
 3997              		.loc 1 1016 0 discriminator 3
 3998 08a8 97F82F30 		ldrb	r3, [r7, #47]	@ zero_extendqisi2
 3999 08ac 0133     		adds	r3, r3, #1
 4000 08ae 87F82F30 		strb	r3, [r7, #47]
 4001              	.L205:
1016:.\main.c      ****     						    for(x=0;x<=75;x++){
 4002              		.loc 1 1016 0 is_stmt 0 discriminator 1
 4003 08b2 97F82F30 		ldrb	r3, [r7, #47]	@ zero_extendqisi2
 4004 08b6 4B2B     		cmp	r3, #75
 4005 08b8 EFD9     		bls	.L206
1018:.\main.c      ****     						    }                                 
1019:.\main.c      ****     							CyDelay(250);                
 4006              		.loc 1 1019 0 is_stmt 1
 4007 08ba FA20     		movs	r0, #250
 4008 08bc FFF7FEFF 		bl	CyDelay
1020:.\main.c      ****     							if(PC_GetRxBufferSize()>=2){
 4009              		.loc 1 1020 0
 4010 08c0 FFF7FEFF 		bl	PC_GetRxBufferSize
 4011 08c4 0346     		mov	r3, r0
 4012 08c6 012B     		cmp	r3, #1
 4013 08c8 09D9     		bls	.L192
1021:.\main.c      ****  							        set_imagen(1,74);
 4014              		.loc 1 1021 0
 4015 08ca 0120     		movs	r0, #1
 4016 08cc 4A21     		movs	r1, #74
 4017 08ce FFF7FEFF 		bl	set_imagen
1022:.\main.c      **** 							        flujo_LCD1=0;
 4018              		.loc 1 1022 0
 4019 08d2 3A4B     		ldr	r3, .L717+4
 4020 08d4 0022     		movs	r2, #0
 4021 08d6 1A70     		strb	r2, [r3]
1023:.\main.c      **** 							        lado2.estado=libre;     //Fin de reimpresion                                        
 4022              		.loc 1 1023 0
 4023 08d8 3B4B     		ldr	r3, .L717+16
 4024 08da 0122     		movs	r2, #1
 4025 08dc 5A70     		strb	r2, [r3, #1]
 4026              	.L192:
1024:.\main.c      **** 							    }
1025:.\main.c      ****                             }                			                                
1026:.\main.c      **** 							PC_ClearRxBuffer();                                                                         
 4027              		.loc 1 1026 0
 4028 08de FFF7FEFF 		bl	PC_ClearRxBuffer
1027:.\main.c      **** 	                    break;					
 4029              		.loc 1 1027 0
 4030 08e2 07E0     		b	.L171
 4031              	.L176:
1028:.\main.c      **** 						
1029:.\main.c      **** 	                    case 0x7E:									//ir a menu
1030:.\main.c      **** 						  set_imagen(1,74);	
 4032              		.loc 1 1030 0
ARM GAS  C:\Users\RECEPC~1\AppData\Local\Temp\cc8qeTl3.s 			page 91


 4033 08e4 0120     		movs	r0, #1
 4034 08e6 4A21     		movs	r1, #74
 4035 08e8 FFF7FEFF 		bl	set_imagen
1031:.\main.c      **** 	                      flujo_LCD1=0;     
 4036              		.loc 1 1031 0
 4037 08ec 334B     		ldr	r3, .L717+4
 4038 08ee 0022     		movs	r2, #0
 4039 08f0 1A70     		strb	r2, [r3]
1032:.\main.c      **** 	                    break;					
 4040              		.loc 1 1032 0
 4041 08f2 00BF     		nop
 4042              	.L171:
1033:.\main.c      **** 	                }
1034:.\main.c      **** 	            }
1035:.\main.c      **** 	            CyDelay(100);
 4043              		.loc 1 1035 0
 4044 08f4 6420     		movs	r0, #100
 4045 08f6 FFF7FEFF 		bl	CyDelay
1036:.\main.c      **** 	            LCD_1_ClearRxBuffer();
 4046              		.loc 1 1036 0
 4047 08fa FFF7FEFF 		bl	LCD_1_ClearRxBuffer
1037:.\main.c      **** 	        }				
1038:.\main.c      **** 		break;
 4048              		.loc 1 1038 0
 4049 08fe 04F0B5BB 		b	.L131
 4050              	.L170:
 4051              		.loc 1 1038 0 is_stmt 0 discriminator 4
 4052 0902 04F0B3BB 		b	.L131
 4053              	.L137:
1039:.\main.c      ****             
1040:.\main.c      ****          case 3:     
1041:.\main.c      ****          if(LCD_1_GetRxBufferSize()==8){
 4054              		.loc 1 1041 0 is_stmt 1
 4055 0906 FFF7FEFF 		bl	LCD_1_GetRxBufferSize
 4056 090a 0346     		mov	r3, r0
 4057 090c 082B     		cmp	r3, #8
 4058 090e 50D1     		bne	.L207
1042:.\main.c      ****             if((LCD_1_rxBuffer[0]==0xAA) && (LCD_1_rxBuffer[6]==0xC3) && (LCD_1_rxBuffer[7]==0x3C))
 4059              		.loc 1 1042 0
 4060 0910 2E4B     		ldr	r3, .L717+20
 4061 0912 1B78     		ldrb	r3, [r3]
 4062 0914 DBB2     		uxtb	r3, r3
 4063 0916 AA2B     		cmp	r3, #170
 4064 0918 44D1     		bne	.L208
 4065              		.loc 1 1042 0 is_stmt 0 discriminator 1
 4066 091a 2C4B     		ldr	r3, .L717+20
 4067 091c 9B79     		ldrb	r3, [r3, #6]
 4068 091e DBB2     		uxtb	r3, r3
 4069 0920 C32B     		cmp	r3, #195
 4070 0922 3FD1     		bne	.L208
 4071              		.loc 1 1042 0 discriminator 2
 4072 0924 294B     		ldr	r3, .L717+20
 4073 0926 DB79     		ldrb	r3, [r3, #7]
 4074 0928 DBB2     		uxtb	r3, r3
 4075 092a 3C2B     		cmp	r3, #60
 4076 092c 3AD1     		bne	.L208
1043:.\main.c      ****                 switch(LCD_1_rxBuffer[3]){
ARM GAS  C:\Users\RECEPC~1\AppData\Local\Temp\cc8qeTl3.s 			page 92


 4077              		.loc 1 1043 0 is_stmt 1
 4078 092e 274B     		ldr	r3, .L717+20
 4079 0930 DB78     		ldrb	r3, [r3, #3]
 4080 0932 DBB2     		uxtb	r3, r3
 4081 0934 5F2B     		cmp	r3, #95
 4082 0936 09D0     		beq	.L209
 4083 0938 5F2B     		cmp	r3, #95
 4084 093a 02DC     		bgt	.L210
 4085 093c 5E2B     		cmp	r3, #94
 4086 093e 13D0     		beq	.L211
 4087 0940 30E0     		b	.L208
 4088              	.L210:
 4089 0942 7E2B     		cmp	r3, #126
 4090 0944 1ED0     		beq	.L212
 4091 0946 942B     		cmp	r3, #148
 4092 0948 24D0     		beq	.L213
 4093 094a 2BE0     		b	.L208
 4094              	.L209:
1044:.\main.c      ****                     case 0x5F:							//Sin ID	                                                     
1045:.\main.c      ****                       set_imagen(1,18);                 //Pasa a pantalla de tipo de venta viejo:5
 4095              		.loc 1 1045 0
 4096 094c 0120     		movs	r0, #1
 4097 094e 1221     		movs	r1, #18
 4098 0950 FFF7FEFF 		bl	set_imagen
1046:.\main.c      ****                       tipo_venta = 0;
 4099              		.loc 1 1046 0
 4100 0954 1E4B     		ldr	r3, .L717+24
 4101 0956 0022     		movs	r2, #0
 4102 0958 1A70     		strb	r2, [r3]
1047:.\main.c      ****                       id_teclado1 = 8;
 4103              		.loc 1 1047 0
 4104 095a 1E4B     		ldr	r3, .L717+28
 4105 095c 0822     		movs	r2, #8
 4106 095e 1A70     		strb	r2, [r3]
1048:.\main.c      ****                       flujo_LCD1 = 11;                 // viejo: 4
 4107              		.loc 1 1048 0
 4108 0960 164B     		ldr	r3, .L717+4
 4109 0962 0B22     		movs	r2, #11
 4110 0964 1A70     		strb	r2, [r3]
1049:.\main.c      ****                     break;
 4111              		.loc 1 1049 0
 4112 0966 1DE0     		b	.L208
 4113              	.L211:
1050:.\main.c      ****                     
1051:.\main.c      ****                     case 0x5E:  						//Con ID                                         
1052:.\main.c      ****                       set_imagen(1,18);
 4114              		.loc 1 1052 0
 4115 0968 0120     		movs	r0, #1
 4116 096a 1221     		movs	r1, #18
 4117 096c FFF7FEFF 		bl	set_imagen
1053:.\main.c      ****                       tipo_venta = 1;
 4118              		.loc 1 1053 0
 4119 0970 174B     		ldr	r3, .L717+24
 4120 0972 0122     		movs	r2, #1
 4121 0974 1A70     		strb	r2, [r3]
1054:.\main.c      ****                       flujo_LCD1 = 11;
 4122              		.loc 1 1054 0
ARM GAS  C:\Users\RECEPC~1\AppData\Local\Temp\cc8qeTl3.s 			page 93


 4123 0976 114B     		ldr	r3, .L717+4
 4124 0978 0B22     		movs	r2, #11
 4125 097a 1A70     		strb	r2, [r3]
1055:.\main.c      ****                       id_teclado1 = 0;
 4126              		.loc 1 1055 0
 4127 097c 154B     		ldr	r3, .L717+28
 4128 097e 0022     		movs	r2, #0
 4129 0980 1A70     		strb	r2, [r3]
1056:.\main.c      ****                     break;	
 4130              		.loc 1 1056 0
 4131 0982 0FE0     		b	.L208
 4132              	.L212:
1057:.\main.c      **** 
1058:.\main.c      ****                     case 0x7E:						    //ir a menu
1059:.\main.c      **** 					  set_imagen(1,74);	
 4133              		.loc 1 1059 0
 4134 0984 0120     		movs	r0, #1
 4135 0986 4A21     		movs	r1, #74
 4136 0988 FFF7FEFF 		bl	set_imagen
1060:.\main.c      ****                       flujo_LCD1 = 0;     
 4137              		.loc 1 1060 0
 4138 098c 0B4B     		ldr	r3, .L717+4
 4139 098e 0022     		movs	r2, #0
 4140 0990 1A70     		strb	r2, [r3]
1061:.\main.c      ****                     break;	
 4141              		.loc 1 1061 0
 4142 0992 07E0     		b	.L208
 4143              	.L213:
1062:.\main.c      ****                     
1063:.\main.c      ****                     case 0x94:
1064:.\main.c      ****                         set_imagen(1,99); //Regreso a pantalla de opcion de venta
 4144              		.loc 1 1064 0
 4145 0994 0120     		movs	r0, #1
 4146 0996 6321     		movs	r1, #99
 4147 0998 FFF7FEFF 		bl	set_imagen
1065:.\main.c      ****                         flujo_LCD1 = 1;
 4148              		.loc 1 1065 0
 4149 099c 074B     		ldr	r3, .L717+4
 4150 099e 0122     		movs	r2, #1
 4151 09a0 1A70     		strb	r2, [r3]
1066:.\main.c      ****                     break;
 4152              		.loc 1 1066 0
 4153 09a2 00BF     		nop
 4154              	.L208:
1067:.\main.c      ****                 }
1068:.\main.c      ****             }
1069:.\main.c      ****             CyDelay(100);
 4155              		.loc 1 1069 0
 4156 09a4 6420     		movs	r0, #100
 4157 09a6 FFF7FEFF 		bl	CyDelay
1070:.\main.c      ****             LCD_1_ClearRxBuffer();
 4158              		.loc 1 1070 0
 4159 09aa FFF7FEFF 		bl	LCD_1_ClearRxBuffer
1071:.\main.c      ****         }        
1072:.\main.c      ****         break;    
 4160              		.loc 1 1072 0
 4161 09ae 04F05DBB 		b	.L131
ARM GAS  C:\Users\RECEPC~1\AppData\Local\Temp\cc8qeTl3.s 			page 94


 4162              	.L207:
 4163              		.loc 1 1072 0 is_stmt 0 discriminator 5
 4164 09b2 04F05BBB 		b	.L131
 4165              	.L718:
 4166 09b6 00BF     		.align	2
 4167              	.L717:
 4168 09b8 00000000 		.word	rf_mod
 4169 09bc 00000000 		.word	flujo_LCD1
 4170 09c0 00000000 		.word	lado1
 4171 09c4 00000000 		.word	seleccion_pos
 4172 09c8 00000000 		.word	lado2
 4173 09cc 00000000 		.word	LCD_1_rxBuffer
 4174 09d0 00000000 		.word	tipo_venta
 4175 09d4 00000000 		.word	id_teclado1
 4176              	.L138:
1073:.\main.c      ****             
1074:.\main.c      ****         case 4:
1075:.\main.c      ****          if(LCD_1_GetRxBufferSize()==8){
 4177              		.loc 1 1075 0 is_stmt 1
 4178 09d8 FFF7FEFF 		bl	LCD_1_GetRxBufferSize
 4179 09dc 0346     		mov	r3, r0
 4180 09de 082B     		cmp	r3, #8
 4181 09e0 40F0DE81 		bne	.L214
1076:.\main.c      ****             if((LCD_1_rxBuffer[0]==0xAA) && (LCD_1_rxBuffer[6]==0xC3) && (LCD_1_rxBuffer[7]==0x3C))
 4182              		.loc 1 1076 0
 4183 09e4 BD4B     		ldr	r3, .L719
 4184 09e6 1B78     		ldrb	r3, [r3]
 4185 09e8 DBB2     		uxtb	r3, r3
 4186 09ea AA2B     		cmp	r3, #170
 4187 09ec 40F0D181 		bne	.L215
 4188              		.loc 1 1076 0 is_stmt 0 discriminator 1
 4189 09f0 BA4B     		ldr	r3, .L719
 4190 09f2 9B79     		ldrb	r3, [r3, #6]
 4191 09f4 DBB2     		uxtb	r3, r3
 4192 09f6 C32B     		cmp	r3, #195
 4193 09f8 40F0CB81 		bne	.L215
 4194              		.loc 1 1076 0 discriminator 2
 4195 09fc B74B     		ldr	r3, .L719
 4196 09fe DB79     		ldrb	r3, [r3, #7]
 4197 0a00 DBB2     		uxtb	r3, r3
 4198 0a02 3C2B     		cmp	r3, #60
 4199 0a04 40F0C581 		bne	.L215
1077:.\main.c      ****                 switch(LCD_1_rxBuffer[3]){
 4200              		.loc 1 1077 0 is_stmt 1
 4201 0a08 B44B     		ldr	r3, .L719
 4202 0a0a DB78     		ldrb	r3, [r3, #3]
 4203 0a0c DBB2     		uxtb	r3, r3
 4204 0a0e 3B2B     		cmp	r3, #59
 4205 0a10 00F0B381 		beq	.L216
 4206 0a14 3B2B     		cmp	r3, #59
 4207 0a16 05DC     		bgt	.L217
 4208 0a18 0F2B     		cmp	r3, #15
 4209 0a1a 0AD0     		beq	.L218
 4210 0a1c 102B     		cmp	r3, #16
 4211 0a1e 00F09280 		beq	.L219
 4212 0a22 B6E1     		b	.L215
 4213              	.L217:
ARM GAS  C:\Users\RECEPC~1\AppData\Local\Temp\cc8qeTl3.s 			page 95


 4214 0a24 432B     		cmp	r3, #67
 4215 0a26 00F01881 		beq	.L220
 4216 0a2a 7E2B     		cmp	r3, #126
 4217 0a2c 00F0A981 		beq	.L221
 4218 0a30 AFE1     		b	.L215
 4219              	.L218:
1078:.\main.c      ****                     case 0x0F:                               	//$
1079:.\main.c      ****                     if(seleccion_pos == 1){
 4220              		.loc 1 1079 0
 4221 0a32 AB4B     		ldr	r3, .L719+4
 4222 0a34 1B78     		ldrb	r3, [r3]
 4223 0a36 DBB2     		uxtb	r3, r3
 4224 0a38 012B     		cmp	r3, #1
 4225 0a3a 3ED1     		bne	.L222
1080:.\main.c      **** 					  for(x=0;x<=7;x++){
 4226              		.loc 1 1080 0
 4227 0a3c 0023     		movs	r3, #0
 4228 0a3e 87F82F30 		strb	r3, [r7, #47]
 4229 0a42 0AE0     		b	.L223
 4230              	.L224:
1081:.\main.c      **** 					 	rventa1.preset[x]=0;
 4231              		.loc 1 1081 0 discriminator 3
 4232 0a44 97F82F30 		ldrb	r3, [r7, #47]	@ zero_extendqisi2
 4233 0a48 A64A     		ldr	r2, .L719+8
 4234 0a4a 1344     		add	r3, r3, r2
 4235 0a4c 0022     		movs	r2, #0
 4236 0a4e DA76     		strb	r2, [r3, #27]
1080:.\main.c      **** 					  for(x=0;x<=7;x++){
 4237              		.loc 1 1080 0 discriminator 3
 4238 0a50 97F82F30 		ldrb	r3, [r7, #47]	@ zero_extendqisi2
 4239 0a54 0133     		adds	r3, r3, #1
 4240 0a56 87F82F30 		strb	r3, [r7, #47]
 4241              	.L223:
1080:.\main.c      **** 					  for(x=0;x<=7;x++){
 4242              		.loc 1 1080 0 is_stmt 0 discriminator 1
 4243 0a5a 97F82F30 		ldrb	r3, [r7, #47]	@ zero_extendqisi2
 4244 0a5e 072B     		cmp	r3, #7
 4245 0a60 F0D9     		bls	.L224
1082:.\main.c      **** 					  }					                      
1083:.\main.c      **** 					  count_teclas1=0;							//Inicia el contador de teclas	
 4246              		.loc 1 1083 0 is_stmt 1
 4247 0a62 A14B     		ldr	r3, .L719+12
 4248 0a64 0022     		movs	r2, #0
 4249 0a66 1A70     		strb	r2, [r3]
1084:.\main.c      **** 					  id_teclado1=1;
 4250              		.loc 1 1084 0
 4251 0a68 A04B     		ldr	r3, .L719+16
 4252 0a6a 0122     		movs	r2, #1
 4253 0a6c 1A70     		strb	r2, [r3]
1085:.\main.c      **** 					  id_coma1=',';	
 4254              		.loc 1 1085 0
 4255 0a6e A04B     		ldr	r3, .L719+20
 4256 0a70 2C22     		movs	r2, #44
 4257 0a72 1A70     		strb	r2, [r3]
1086:.\main.c      ****                       teclas1=version[1]; 						//cantidad de teclas q puede digitar
 4258              		.loc 1 1086 0
 4259 0a74 9F4B     		ldr	r3, .L719+24
ARM GAS  C:\Users\RECEPC~1\AppData\Local\Temp\cc8qeTl3.s 			page 96


 4260 0a76 5B78     		ldrb	r3, [r3, #1]
 4261 0a78 DAB2     		uxtb	r2, r3
 4262 0a7a 9F4B     		ldr	r3, .L719+28
 4263 0a7c 1A70     		strb	r2, [r3]
1087:.\main.c      **** 					  rventa1.preset[0]=1;
 4264              		.loc 1 1087 0
 4265 0a7e 994B     		ldr	r3, .L719+8
 4266 0a80 0122     		movs	r2, #1
 4267 0a82 DA76     		strb	r2, [r3, #27]
1088:.\main.c      ****                       comas1=0;									
 4268              		.loc 1 1088 0
 4269 0a84 9D4B     		ldr	r3, .L719+32
 4270 0a86 0022     		movs	r2, #0
 4271 0a88 1A70     		strb	r2, [r3]
1089:.\main.c      ****                       set_imagen(1,6); 
 4272              		.loc 1 1089 0
 4273 0a8a 0120     		movs	r0, #1
 4274 0a8c 0621     		movs	r1, #6
 4275 0a8e FFF7FEFF 		bl	set_imagen
1090:.\main.c      **** 					  posx1=4;
 4276              		.loc 1 1090 0
 4277 0a92 9B4B     		ldr	r3, .L719+36
 4278 0a94 0422     		movs	r2, #4
 4279 0a96 1A80     		strh	r2, [r3]	@ movhi
1091:.\main.c      **** 					  posy1=3;
 4280              		.loc 1 1091 0
 4281 0a98 9A4B     		ldr	r3, .L719+40
 4282 0a9a 0322     		movs	r2, #3
 4283 0a9c 1A80     		strh	r2, [r3]	@ movhi
1092:.\main.c      **** 					  sizeletra1=1;	
 4284              		.loc 1 1092 0
 4285 0a9e 9A4B     		ldr	r3, .L719+44
 4286 0aa0 0122     		movs	r2, #1
 4287 0aa2 1A80     		strh	r2, [r3]	@ movhi
1093:.\main.c      **** 					  write_LCD(1,'$', 3, 4, 1);
 4288              		.loc 1 1093 0
 4289 0aa4 0123     		movs	r3, #1
 4290 0aa6 0093     		str	r3, [sp]
 4291 0aa8 0120     		movs	r0, #1
 4292 0aaa 2421     		movs	r1, #36
 4293 0aac 0322     		movs	r2, #3
 4294 0aae 0423     		movs	r3, #4
 4295 0ab0 FFF7FEFF 		bl	write_LCD
1094:.\main.c      ****                       flujo_LCD1 = 12; 
 4296              		.loc 1 1094 0
 4297 0ab4 954B     		ldr	r3, .L719+48
 4298 0ab6 0C22     		movs	r2, #12
 4299 0ab8 1A70     		strb	r2, [r3]
 4300              	.L222:
1095:.\main.c      ****                     }
1096:.\main.c      ****                     if(seleccion_pos == 2){
 4301              		.loc 1 1096 0
 4302 0aba 894B     		ldr	r3, .L719+4
 4303 0abc 1B78     		ldrb	r3, [r3]
 4304 0abe DBB2     		uxtb	r3, r3
 4305 0ac0 022B     		cmp	r3, #2
 4306 0ac2 3FD1     		bne	.L225
ARM GAS  C:\Users\RECEPC~1\AppData\Local\Temp\cc8qeTl3.s 			page 97


1097:.\main.c      **** 					  for(x=0;x<=7;x++){
 4307              		.loc 1 1097 0
 4308 0ac4 0023     		movs	r3, #0
 4309 0ac6 87F82F30 		strb	r3, [r7, #47]
 4310 0aca 0AE0     		b	.L226
 4311              	.L227:
1098:.\main.c      **** 					 	rventa2.preset[x]=0;
 4312              		.loc 1 1098 0 discriminator 3
 4313 0acc 97F82F30 		ldrb	r3, [r7, #47]	@ zero_extendqisi2
 4314 0ad0 8F4A     		ldr	r2, .L719+52
 4315 0ad2 1344     		add	r3, r3, r2
 4316 0ad4 0022     		movs	r2, #0
 4317 0ad6 DA76     		strb	r2, [r3, #27]
1097:.\main.c      **** 					  for(x=0;x<=7;x++){
 4318              		.loc 1 1097 0 discriminator 3
 4319 0ad8 97F82F30 		ldrb	r3, [r7, #47]	@ zero_extendqisi2
 4320 0adc 0133     		adds	r3, r3, #1
 4321 0ade 87F82F30 		strb	r3, [r7, #47]
 4322              	.L226:
1097:.\main.c      **** 					  for(x=0;x<=7;x++){
 4323              		.loc 1 1097 0 is_stmt 0 discriminator 1
 4324 0ae2 97F82F30 		ldrb	r3, [r7, #47]	@ zero_extendqisi2
 4325 0ae6 072B     		cmp	r3, #7
 4326 0ae8 F0D9     		bls	.L227
1099:.\main.c      **** 					  }					                      
1100:.\main.c      **** 					  count_teclas1=0;							//Inicia el contador de teclas	
 4327              		.loc 1 1100 0 is_stmt 1
 4328 0aea 7F4B     		ldr	r3, .L719+12
 4329 0aec 0022     		movs	r2, #0
 4330 0aee 1A70     		strb	r2, [r3]
1101:.\main.c      **** 					  id_teclado1=1;
 4331              		.loc 1 1101 0
 4332 0af0 7E4B     		ldr	r3, .L719+16
 4333 0af2 0122     		movs	r2, #1
 4334 0af4 1A70     		strb	r2, [r3]
1102:.\main.c      **** 					  id_coma1=',';	
 4335              		.loc 1 1102 0
 4336 0af6 7E4B     		ldr	r3, .L719+20
 4337 0af8 2C22     		movs	r2, #44
 4338 0afa 1A70     		strb	r2, [r3]
1103:.\main.c      ****                       teclas1=version[1]; 						//cantidad de teclas q puede digitar
 4339              		.loc 1 1103 0
 4340 0afc 7D4B     		ldr	r3, .L719+24
 4341 0afe 5B78     		ldrb	r3, [r3, #1]
 4342 0b00 DAB2     		uxtb	r2, r3
 4343 0b02 7D4B     		ldr	r3, .L719+28
 4344 0b04 1A70     		strb	r2, [r3]
1104:.\main.c      **** 					  rventa2.preset[0]=1;
 4345              		.loc 1 1104 0
 4346 0b06 824B     		ldr	r3, .L719+52
 4347 0b08 0122     		movs	r2, #1
 4348 0b0a DA76     		strb	r2, [r3, #27]
1105:.\main.c      ****                       comas1=0;									
 4349              		.loc 1 1105 0
 4350 0b0c 7B4B     		ldr	r3, .L719+32
 4351 0b0e 0022     		movs	r2, #0
 4352 0b10 1A70     		strb	r2, [r3]
ARM GAS  C:\Users\RECEPC~1\AppData\Local\Temp\cc8qeTl3.s 			page 98


1106:.\main.c      ****                       set_imagen(1,6); 
 4353              		.loc 1 1106 0
 4354 0b12 0120     		movs	r0, #1
 4355 0b14 0621     		movs	r1, #6
 4356 0b16 FFF7FEFF 		bl	set_imagen
1107:.\main.c      **** 					  posx1=4;
 4357              		.loc 1 1107 0
 4358 0b1a 794B     		ldr	r3, .L719+36
 4359 0b1c 0422     		movs	r2, #4
 4360 0b1e 1A80     		strh	r2, [r3]	@ movhi
1108:.\main.c      **** 					  posy1=3;
 4361              		.loc 1 1108 0
 4362 0b20 784B     		ldr	r3, .L719+40
 4363 0b22 0322     		movs	r2, #3
 4364 0b24 1A80     		strh	r2, [r3]	@ movhi
1109:.\main.c      **** 					  sizeletra1=1;	
 4365              		.loc 1 1109 0
 4366 0b26 784B     		ldr	r3, .L719+44
 4367 0b28 0122     		movs	r2, #1
 4368 0b2a 1A80     		strh	r2, [r3]	@ movhi
1110:.\main.c      **** 					  write_LCD(1,'$', 3, 4, 1);
 4369              		.loc 1 1110 0
 4370 0b2c 0123     		movs	r3, #1
 4371 0b2e 0093     		str	r3, [sp]
 4372 0b30 0120     		movs	r0, #1
 4373 0b32 2421     		movs	r1, #36
 4374 0b34 0322     		movs	r2, #3
 4375 0b36 0423     		movs	r3, #4
 4376 0b38 FFF7FEFF 		bl	write_LCD
1111:.\main.c      ****                       flujo_LCD1 = 12; 
 4377              		.loc 1 1111 0
 4378 0b3c 734B     		ldr	r3, .L719+48
 4379 0b3e 0C22     		movs	r2, #12
 4380 0b40 1A70     		strb	r2, [r3]
1112:.\main.c      ****                     }
1113:.\main.c      ****                     break;
 4381              		.loc 1 1113 0
 4382 0b42 26E1     		b	.L215
 4383              	.L225:
 4384 0b44 25E1     		b	.L215
 4385              	.L219:
1114:.\main.c      ****                     
1115:.\main.c      ****                     case 0x10: 									//L 
1116:.\main.c      ****                     if(seleccion_pos == 1){
 4386              		.loc 1 1116 0
 4387 0b46 664B     		ldr	r3, .L719+4
 4388 0b48 1B78     		ldrb	r3, [r3]
 4389 0b4a DBB2     		uxtb	r3, r3
 4390 0b4c 012B     		cmp	r3, #1
 4391 0b4e 3ED1     		bne	.L228
1117:.\main.c      **** 					  for(x=0;x<=7;x++){
 4392              		.loc 1 1117 0
 4393 0b50 0023     		movs	r3, #0
 4394 0b52 87F82F30 		strb	r3, [r7, #47]
 4395 0b56 0AE0     		b	.L229
 4396              	.L230:
1118:.\main.c      **** 					 	rventa1.preset[x]=0;
ARM GAS  C:\Users\RECEPC~1\AppData\Local\Temp\cc8qeTl3.s 			page 99


 4397              		.loc 1 1118 0 discriminator 3
 4398 0b58 97F82F30 		ldrb	r3, [r7, #47]	@ zero_extendqisi2
 4399 0b5c 614A     		ldr	r2, .L719+8
 4400 0b5e 1344     		add	r3, r3, r2
 4401 0b60 0022     		movs	r2, #0
 4402 0b62 DA76     		strb	r2, [r3, #27]
1117:.\main.c      **** 					  for(x=0;x<=7;x++){
 4403              		.loc 1 1117 0 discriminator 3
 4404 0b64 97F82F30 		ldrb	r3, [r7, #47]	@ zero_extendqisi2
 4405 0b68 0133     		adds	r3, r3, #1
 4406 0b6a 87F82F30 		strb	r3, [r7, #47]
 4407              	.L229:
1117:.\main.c      **** 					  for(x=0;x<=7;x++){
 4408              		.loc 1 1117 0 is_stmt 0 discriminator 1
 4409 0b6e 97F82F30 		ldrb	r3, [r7, #47]	@ zero_extendqisi2
 4410 0b72 072B     		cmp	r3, #7
 4411 0b74 F0D9     		bls	.L230
1119:.\main.c      **** 					  }						                      
1120:.\main.c      **** 					  count_teclas1=0;							//Inicia el contador de teclas	
 4412              		.loc 1 1120 0 is_stmt 1
 4413 0b76 5C4B     		ldr	r3, .L719+12
 4414 0b78 0022     		movs	r2, #0
 4415 0b7a 1A70     		strb	r2, [r3]
1121:.\main.c      **** 					  id_teclado1=1;
 4416              		.loc 1 1121 0
 4417 0b7c 5B4B     		ldr	r3, .L719+16
 4418 0b7e 0122     		movs	r2, #1
 4419 0b80 1A70     		strb	r2, [r3]
1122:.\main.c      **** 					  id_coma1=',';	
 4420              		.loc 1 1122 0
 4421 0b82 5B4B     		ldr	r3, .L719+20
 4422 0b84 2C22     		movs	r2, #44
 4423 0b86 1A70     		strb	r2, [r3]
1123:.\main.c      ****                       teclas1=version[1]; 
 4424              		.loc 1 1123 0
 4425 0b88 5A4B     		ldr	r3, .L719+24
 4426 0b8a 5B78     		ldrb	r3, [r3, #1]
 4427 0b8c DAB2     		uxtb	r2, r3
 4428 0b8e 5A4B     		ldr	r3, .L719+28
 4429 0b90 1A70     		strb	r2, [r3]
1124:.\main.c      **** 					  rventa1.preset[0]=2;
 4430              		.loc 1 1124 0
 4431 0b92 544B     		ldr	r3, .L719+8
 4432 0b94 0222     		movs	r2, #2
 4433 0b96 DA76     		strb	r2, [r3, #27]
1125:.\main.c      ****                       comas1=0;									
 4434              		.loc 1 1125 0
 4435 0b98 584B     		ldr	r3, .L719+32
 4436 0b9a 0022     		movs	r2, #0
 4437 0b9c 1A70     		strb	r2, [r3]
1126:.\main.c      ****                       set_imagen(1,13); 
 4438              		.loc 1 1126 0
 4439 0b9e 0120     		movs	r0, #1
 4440 0ba0 0D21     		movs	r1, #13
 4441 0ba2 FFF7FEFF 		bl	set_imagen
1127:.\main.c      **** 					  posx1=4;
 4442              		.loc 1 1127 0
ARM GAS  C:\Users\RECEPC~1\AppData\Local\Temp\cc8qeTl3.s 			page 100


 4443 0ba6 564B     		ldr	r3, .L719+36
 4444 0ba8 0422     		movs	r2, #4
 4445 0baa 1A80     		strh	r2, [r3]	@ movhi
1128:.\main.c      **** 					  posy1=3;
 4446              		.loc 1 1128 0
 4447 0bac 554B     		ldr	r3, .L719+40
 4448 0bae 0322     		movs	r2, #3
 4449 0bb0 1A80     		strh	r2, [r3]	@ movhi
1129:.\main.c      **** 					  sizeletra1=1;					
 4450              		.loc 1 1129 0
 4451 0bb2 554B     		ldr	r3, .L719+44
 4452 0bb4 0122     		movs	r2, #1
 4453 0bb6 1A80     		strh	r2, [r3]	@ movhi
1130:.\main.c      **** 					  write_LCD(1,'L', 3, 4, 1);
 4454              		.loc 1 1130 0
 4455 0bb8 0123     		movs	r3, #1
 4456 0bba 0093     		str	r3, [sp]
 4457 0bbc 0120     		movs	r0, #1
 4458 0bbe 4C21     		movs	r1, #76
 4459 0bc0 0322     		movs	r2, #3
 4460 0bc2 0423     		movs	r3, #4
 4461 0bc4 FFF7FEFF 		bl	write_LCD
1131:.\main.c      ****                       flujo_LCD1=12; 
 4462              		.loc 1 1131 0
 4463 0bc8 504B     		ldr	r3, .L719+48
 4464 0bca 0C22     		movs	r2, #12
 4465 0bcc 1A70     		strb	r2, [r3]
 4466              	.L228:
1132:.\main.c      ****                     }
1133:.\main.c      ****                     if(seleccion_pos == 2){
 4467              		.loc 1 1133 0
 4468 0bce 444B     		ldr	r3, .L719+4
 4469 0bd0 1B78     		ldrb	r3, [r3]
 4470 0bd2 DBB2     		uxtb	r3, r3
 4471 0bd4 022B     		cmp	r3, #2
 4472 0bd6 3FD1     		bne	.L231
1134:.\main.c      **** 					  for(x=0;x<=7;x++){
 4473              		.loc 1 1134 0
 4474 0bd8 0023     		movs	r3, #0
 4475 0bda 87F82F30 		strb	r3, [r7, #47]
 4476 0bde 0AE0     		b	.L232
 4477              	.L233:
1135:.\main.c      **** 					 	rventa1.preset[x]=0;
 4478              		.loc 1 1135 0 discriminator 3
 4479 0be0 97F82F30 		ldrb	r3, [r7, #47]	@ zero_extendqisi2
 4480 0be4 3F4A     		ldr	r2, .L719+8
 4481 0be6 1344     		add	r3, r3, r2
 4482 0be8 0022     		movs	r2, #0
 4483 0bea DA76     		strb	r2, [r3, #27]
1134:.\main.c      **** 					  for(x=0;x<=7;x++){
 4484              		.loc 1 1134 0 discriminator 3
 4485 0bec 97F82F30 		ldrb	r3, [r7, #47]	@ zero_extendqisi2
 4486 0bf0 0133     		adds	r3, r3, #1
 4487 0bf2 87F82F30 		strb	r3, [r7, #47]
 4488              	.L232:
1134:.\main.c      **** 					  for(x=0;x<=7;x++){
 4489              		.loc 1 1134 0 is_stmt 0 discriminator 1
ARM GAS  C:\Users\RECEPC~1\AppData\Local\Temp\cc8qeTl3.s 			page 101


 4490 0bf6 97F82F30 		ldrb	r3, [r7, #47]	@ zero_extendqisi2
 4491 0bfa 072B     		cmp	r3, #7
 4492 0bfc F0D9     		bls	.L233
1136:.\main.c      **** 					  }						                      
1137:.\main.c      **** 					  count_teclas1=0;							//Inicia el contador de teclas	
 4493              		.loc 1 1137 0 is_stmt 1
 4494 0bfe 3A4B     		ldr	r3, .L719+12
 4495 0c00 0022     		movs	r2, #0
 4496 0c02 1A70     		strb	r2, [r3]
1138:.\main.c      **** 					  id_teclado1=1;
 4497              		.loc 1 1138 0
 4498 0c04 394B     		ldr	r3, .L719+16
 4499 0c06 0122     		movs	r2, #1
 4500 0c08 1A70     		strb	r2, [r3]
1139:.\main.c      **** 					  id_coma1=',';	
 4501              		.loc 1 1139 0
 4502 0c0a 394B     		ldr	r3, .L719+20
 4503 0c0c 2C22     		movs	r2, #44
 4504 0c0e 1A70     		strb	r2, [r3]
1140:.\main.c      ****                       teclas1=version[1]; 
 4505              		.loc 1 1140 0
 4506 0c10 384B     		ldr	r3, .L719+24
 4507 0c12 5B78     		ldrb	r3, [r3, #1]
 4508 0c14 DAB2     		uxtb	r2, r3
 4509 0c16 384B     		ldr	r3, .L719+28
 4510 0c18 1A70     		strb	r2, [r3]
1141:.\main.c      **** 					  rventa2.preset[0]=2;
 4511              		.loc 1 1141 0
 4512 0c1a 3D4B     		ldr	r3, .L719+52
 4513 0c1c 0222     		movs	r2, #2
 4514 0c1e DA76     		strb	r2, [r3, #27]
1142:.\main.c      ****                       comas1=0;									
 4515              		.loc 1 1142 0
 4516 0c20 364B     		ldr	r3, .L719+32
 4517 0c22 0022     		movs	r2, #0
 4518 0c24 1A70     		strb	r2, [r3]
1143:.\main.c      ****                       set_imagen(1,13); 
 4519              		.loc 1 1143 0
 4520 0c26 0120     		movs	r0, #1
 4521 0c28 0D21     		movs	r1, #13
 4522 0c2a FFF7FEFF 		bl	set_imagen
1144:.\main.c      **** 					  posx1=4;
 4523              		.loc 1 1144 0
 4524 0c2e 344B     		ldr	r3, .L719+36
 4525 0c30 0422     		movs	r2, #4
 4526 0c32 1A80     		strh	r2, [r3]	@ movhi
1145:.\main.c      **** 					  posy1=3;
 4527              		.loc 1 1145 0
 4528 0c34 334B     		ldr	r3, .L719+40
 4529 0c36 0322     		movs	r2, #3
 4530 0c38 1A80     		strh	r2, [r3]	@ movhi
1146:.\main.c      **** 					  sizeletra1=1;					
 4531              		.loc 1 1146 0
 4532 0c3a 334B     		ldr	r3, .L719+44
 4533 0c3c 0122     		movs	r2, #1
 4534 0c3e 1A80     		strh	r2, [r3]	@ movhi
1147:.\main.c      **** 					  write_LCD(1,'L', 3, 4, 1);
ARM GAS  C:\Users\RECEPC~1\AppData\Local\Temp\cc8qeTl3.s 			page 102


 4535              		.loc 1 1147 0
 4536 0c40 0123     		movs	r3, #1
 4537 0c42 0093     		str	r3, [sp]
 4538 0c44 0120     		movs	r0, #1
 4539 0c46 4C21     		movs	r1, #76
 4540 0c48 0322     		movs	r2, #3
 4541 0c4a 0423     		movs	r3, #4
 4542 0c4c FFF7FEFF 		bl	write_LCD
1148:.\main.c      ****                       flujo_LCD1=12; 
 4543              		.loc 1 1148 0
 4544 0c50 2E4B     		ldr	r3, .L719+48
 4545 0c52 0C22     		movs	r2, #12
 4546 0c54 1A70     		strb	r2, [r3]
1149:.\main.c      ****                     }
1150:.\main.c      ****                     break;
 4547              		.loc 1 1150 0
 4548 0c56 9CE0     		b	.L215
 4549              	.L231:
 4550 0c58 9BE0     		b	.L215
 4551              	.L220:
1151:.\main.c      ****                     
1152:.\main.c      ****                     case 0x43:  								//Full 
1153:.\main.c      ****                     if(seleccion_pos == 1){
 4552              		.loc 1 1153 0
 4553 0c5a 214B     		ldr	r3, .L719+4
 4554 0c5c 1B78     		ldrb	r3, [r3]
 4555 0c5e DBB2     		uxtb	r3, r3
 4556 0c60 012B     		cmp	r3, #1
 4557 0c62 32D1     		bne	.L234
1154:.\main.c      **** 					  for(x=0;x<=7;x++){
 4558              		.loc 1 1154 0
 4559 0c64 0023     		movs	r3, #0
 4560 0c66 87F82F30 		strb	r3, [r7, #47]
 4561 0c6a 0AE0     		b	.L235
 4562              	.L236:
1155:.\main.c      **** 					 	rventa1.preset[x]=0;
 4563              		.loc 1 1155 0 discriminator 3
 4564 0c6c 97F82F30 		ldrb	r3, [r7, #47]	@ zero_extendqisi2
 4565 0c70 1C4A     		ldr	r2, .L719+8
 4566 0c72 1344     		add	r3, r3, r2
 4567 0c74 0022     		movs	r2, #0
 4568 0c76 DA76     		strb	r2, [r3, #27]
1154:.\main.c      **** 					  for(x=0;x<=7;x++){
 4569              		.loc 1 1154 0 discriminator 3
 4570 0c78 97F82F30 		ldrb	r3, [r7, #47]	@ zero_extendqisi2
 4571 0c7c 0133     		adds	r3, r3, #1
 4572 0c7e 87F82F30 		strb	r3, [r7, #47]
 4573              	.L235:
1154:.\main.c      **** 					  for(x=0;x<=7;x++){
 4574              		.loc 1 1154 0 is_stmt 0 discriminator 1
 4575 0c82 97F82F30 		ldrb	r3, [r7, #47]	@ zero_extendqisi2
 4576 0c86 072B     		cmp	r3, #7
 4577 0c88 F0D9     		bls	.L236
1156:.\main.c      **** 					  }
1157:.\main.c      ****                       rventa1.preset[0]=3;					
 4578              		.loc 1 1157 0 is_stmt 1
 4579 0c8a 164B     		ldr	r3, .L719+8
ARM GAS  C:\Users\RECEPC~1\AppData\Local\Temp\cc8qeTl3.s 			page 103


 4580 0c8c 0322     		movs	r2, #3
 4581 0c8e DA76     		strb	r2, [r3, #27]
1158:.\main.c      **** 					  for(x=5;x<=7;x++){
 4582              		.loc 1 1158 0
 4583 0c90 0523     		movs	r3, #5
 4584 0c92 87F82F30 		strb	r3, [r7, #47]
 4585 0c96 0AE0     		b	.L237
 4586              	.L238:
1159:.\main.c      **** 						rventa1.preset[x]=9;		
 4587              		.loc 1 1159 0 discriminator 3
 4588 0c98 97F82F30 		ldrb	r3, [r7, #47]	@ zero_extendqisi2
 4589 0c9c 114A     		ldr	r2, .L719+8
 4590 0c9e 1344     		add	r3, r3, r2
 4591 0ca0 0922     		movs	r2, #9
 4592 0ca2 DA76     		strb	r2, [r3, #27]
1158:.\main.c      **** 					  for(x=5;x<=7;x++){
 4593              		.loc 1 1158 0 discriminator 3
 4594 0ca4 97F82F30 		ldrb	r3, [r7, #47]	@ zero_extendqisi2
 4595 0ca8 0133     		adds	r3, r3, #1
 4596 0caa 87F82F30 		strb	r3, [r7, #47]
 4597              	.L237:
1158:.\main.c      **** 					  for(x=5;x<=7;x++){
 4598              		.loc 1 1158 0 is_stmt 0 discriminator 1
 4599 0cae 97F82F30 		ldrb	r3, [r7, #47]	@ zero_extendqisi2
 4600 0cb2 072B     		cmp	r3, #7
 4601 0cb4 F0D9     		bls	.L238
1160:.\main.c      **** 					  }								                                     
1161:.\main.c      **** 		              set_imagen(1,7);
 4602              		.loc 1 1161 0 is_stmt 1
 4603 0cb6 0120     		movs	r0, #1
 4604 0cb8 0721     		movs	r1, #7
 4605 0cba FFF7FEFF 		bl	set_imagen
1162:.\main.c      **** 					  lado1.estado=espera;
 4606              		.loc 1 1162 0
 4607 0cbe 154B     		ldr	r3, .L719+56
 4608 0cc0 0222     		movs	r2, #2
 4609 0cc2 5A70     		strb	r2, [r3, #1]
1163:.\main.c      ****                       flujo_LCD1 = 6;  
 4610              		.loc 1 1163 0
 4611 0cc4 114B     		ldr	r3, .L719+48
 4612 0cc6 0622     		movs	r2, #6
 4613 0cc8 1A70     		strb	r2, [r3]
 4614              	.L234:
1164:.\main.c      ****                     }
1165:.\main.c      ****                     if(seleccion_pos == 2){
 4615              		.loc 1 1165 0
 4616 0cca 054B     		ldr	r3, .L719+4
 4617 0ccc 1B78     		ldrb	r3, [r3]
 4618 0cce DBB2     		uxtb	r3, r3
 4619 0cd0 022B     		cmp	r3, #2
 4620 0cd2 51D1     		bne	.L239
1166:.\main.c      **** 					  for(x=0;x<=7;x++){
 4621              		.loc 1 1166 0
 4622 0cd4 0023     		movs	r3, #0
 4623 0cd6 87F82F30 		strb	r3, [r7, #47]
 4624 0cda 28E0     		b	.L240
 4625              	.L720:
ARM GAS  C:\Users\RECEPC~1\AppData\Local\Temp\cc8qeTl3.s 			page 104


 4626              		.align	2
 4627              	.L719:
 4628 0cdc 00000000 		.word	LCD_1_rxBuffer
 4629 0ce0 00000000 		.word	seleccion_pos
 4630 0ce4 00000000 		.word	rventa1
 4631 0ce8 00000000 		.word	count_teclas1
 4632 0cec 00000000 		.word	id_teclado1
 4633 0cf0 00000000 		.word	id_coma1
 4634 0cf4 00000000 		.word	version
 4635 0cf8 00000000 		.word	teclas1
 4636 0cfc 00000000 		.word	comas1
 4637 0d00 00000000 		.word	posx1
 4638 0d04 00000000 		.word	posy1
 4639 0d08 00000000 		.word	sizeletra1
 4640 0d0c 00000000 		.word	flujo_LCD1
 4641 0d10 00000000 		.word	rventa2
 4642 0d14 00000000 		.word	lado1
 4643              	.L241:
1167:.\main.c      **** 					 	rventa2.preset[x]=0;
 4644              		.loc 1 1167 0 discriminator 3
 4645 0d18 97F82F30 		ldrb	r3, [r7, #47]	@ zero_extendqisi2
 4646 0d1c BB4A     		ldr	r2, .L721
 4647 0d1e 1344     		add	r3, r3, r2
 4648 0d20 0022     		movs	r2, #0
 4649 0d22 DA76     		strb	r2, [r3, #27]
1166:.\main.c      **** 					  for(x=0;x<=7;x++){
 4650              		.loc 1 1166 0 discriminator 3
 4651 0d24 97F82F30 		ldrb	r3, [r7, #47]	@ zero_extendqisi2
 4652 0d28 0133     		adds	r3, r3, #1
 4653 0d2a 87F82F30 		strb	r3, [r7, #47]
 4654              	.L240:
1166:.\main.c      **** 					  for(x=0;x<=7;x++){
 4655              		.loc 1 1166 0 is_stmt 0 discriminator 1
 4656 0d2e 97F82F30 		ldrb	r3, [r7, #47]	@ zero_extendqisi2
 4657 0d32 072B     		cmp	r3, #7
 4658 0d34 F0D9     		bls	.L241
1168:.\main.c      **** 					  }
1169:.\main.c      ****                       rventa1.preset[0]=3;					
 4659              		.loc 1 1169 0 is_stmt 1
 4660 0d36 B64B     		ldr	r3, .L721+4
 4661 0d38 0322     		movs	r2, #3
 4662 0d3a DA76     		strb	r2, [r3, #27]
1170:.\main.c      **** 					  for(x=5;x<=7;x++){
 4663              		.loc 1 1170 0
 4664 0d3c 0523     		movs	r3, #5
 4665 0d3e 87F82F30 		strb	r3, [r7, #47]
 4666 0d42 0AE0     		b	.L242
 4667              	.L243:
1171:.\main.c      **** 						rventa2.preset[x]=9;		
 4668              		.loc 1 1171 0 discriminator 3
 4669 0d44 97F82F30 		ldrb	r3, [r7, #47]	@ zero_extendqisi2
 4670 0d48 B04A     		ldr	r2, .L721
 4671 0d4a 1344     		add	r3, r3, r2
 4672 0d4c 0922     		movs	r2, #9
 4673 0d4e DA76     		strb	r2, [r3, #27]
1170:.\main.c      **** 					  for(x=5;x<=7;x++){
 4674              		.loc 1 1170 0 discriminator 3
ARM GAS  C:\Users\RECEPC~1\AppData\Local\Temp\cc8qeTl3.s 			page 105


 4675 0d50 97F82F30 		ldrb	r3, [r7, #47]	@ zero_extendqisi2
 4676 0d54 0133     		adds	r3, r3, #1
 4677 0d56 87F82F30 		strb	r3, [r7, #47]
 4678              	.L242:
1170:.\main.c      **** 					  for(x=5;x<=7;x++){
 4679              		.loc 1 1170 0 is_stmt 0 discriminator 1
 4680 0d5a 97F82F30 		ldrb	r3, [r7, #47]	@ zero_extendqisi2
 4681 0d5e 072B     		cmp	r3, #7
 4682 0d60 F0D9     		bls	.L243
1172:.\main.c      **** 					  }								                                     
1173:.\main.c      **** 		              set_imagen(1,7);
 4683              		.loc 1 1173 0 is_stmt 1
 4684 0d62 0120     		movs	r0, #1
 4685 0d64 0721     		movs	r1, #7
 4686 0d66 FFF7FEFF 		bl	set_imagen
1174:.\main.c      **** 					  lado2.estado=espera;
 4687              		.loc 1 1174 0
 4688 0d6a AA4B     		ldr	r3, .L721+8
 4689 0d6c 0222     		movs	r2, #2
 4690 0d6e 5A70     		strb	r2, [r3, #1]
1175:.\main.c      ****                       flujo_LCD1 = 6;  
 4691              		.loc 1 1175 0
 4692 0d70 A94B     		ldr	r3, .L721+12
 4693 0d72 0622     		movs	r2, #6
 4694 0d74 1A70     		strb	r2, [r3]
1176:.\main.c      ****                     }
1177:.\main.c      ****                     break;
 4695              		.loc 1 1177 0
 4696 0d76 0CE0     		b	.L215
 4697              	.L239:
 4698 0d78 0BE0     		b	.L215
 4699              	.L216:
1178:.\main.c      ****                     
1179:.\main.c      ****                     case 0x3B:                                //Cancel                     
1180:.\main.c      ****                       flujo_LCD1=0;
 4700              		.loc 1 1180 0
 4701 0d7a A74B     		ldr	r3, .L721+12
 4702 0d7c 0022     		movs	r2, #0
 4703 0d7e 1A70     		strb	r2, [r3]
1181:.\main.c      ****                     break;     
 4704              		.loc 1 1181 0
 4705 0d80 07E0     		b	.L215
 4706              	.L221:
1182:.\main.c      ****                     
1183:.\main.c      ****                     case 0x7E:                                //Símbolo de inicio                 
1184:.\main.c      ****                         set_imagen(1,74);	
 4707              		.loc 1 1184 0
 4708 0d82 0120     		movs	r0, #1
 4709 0d84 4A21     		movs	r1, #74
 4710 0d86 FFF7FEFF 		bl	set_imagen
1185:.\main.c      ****                         flujo_LCD1=0;
 4711              		.loc 1 1185 0
 4712 0d8a A34B     		ldr	r3, .L721+12
 4713 0d8c 0022     		movs	r2, #0
 4714 0d8e 1A70     		strb	r2, [r3]
1186:.\main.c      ****                     break;
 4715              		.loc 1 1186 0
ARM GAS  C:\Users\RECEPC~1\AppData\Local\Temp\cc8qeTl3.s 			page 106


 4716 0d90 00BF     		nop
 4717              	.L215:
1187:.\main.c      ****                 }
1188:.\main.c      ****             }
1189:.\main.c      ****             CyDelay(100);            
 4718              		.loc 1 1189 0
 4719 0d92 6420     		movs	r0, #100
 4720 0d94 FFF7FEFF 		bl	CyDelay
1190:.\main.c      ****             LCD_1_ClearRxBuffer();
 4721              		.loc 1 1190 0
 4722 0d98 FFF7FEFF 		bl	LCD_1_ClearRxBuffer
1191:.\main.c      ****          } 
1192:.\main.c      ****         break;
 4723              		.loc 1 1192 0
 4724 0d9c 04F066B9 		b	.L131
 4725              	.L214:
 4726              		.loc 1 1192 0 is_stmt 0 discriminator 6
 4727 0da0 04F064B9 		b	.L131
 4728              	.L139:
1193:.\main.c      ****         
1194:.\main.c      ****         case 5:
1195:.\main.c      ****         if(seleccion_pos == 1){
 4729              		.loc 1 1195 0 is_stmt 1
 4730 0da4 9D4B     		ldr	r3, .L721+16
 4731 0da6 1B78     		ldrb	r3, [r3]
 4732 0da8 DBB2     		uxtb	r3, r3
 4733 0daa 012B     		cmp	r3, #1
 4734 0dac 61D1     		bne	.L244
1196:.\main.c      ****     		CyDelay(50);
 4735              		.loc 1 1196 0
 4736 0dae 3220     		movs	r0, #50
 4737 0db0 FFF7FEFF 		bl	CyDelay
1197:.\main.c      ****             if(LCD_1_GetRxBufferSize()==8){
 4738              		.loc 1 1197 0
 4739 0db4 FFF7FEFF 		bl	LCD_1_GetRxBufferSize
 4740 0db8 0346     		mov	r3, r0
 4741 0dba 082B     		cmp	r3, #8
 4742 0dbc 1AD1     		bne	.L245
1198:.\main.c      ****                 if((LCD_1_rxBuffer[0]==0xAA) && (LCD_1_rxBuffer[6]==0xC3) && (LCD_1_rxBuffer[7]==0x
 4743              		.loc 1 1198 0
 4744 0dbe 984B     		ldr	r3, .L721+20
 4745 0dc0 1B78     		ldrb	r3, [r3]
 4746 0dc2 DBB2     		uxtb	r3, r3
 4747 0dc4 AA2B     		cmp	r3, #170
 4748 0dc6 11D1     		bne	.L246
 4749              		.loc 1 1198 0 is_stmt 0 discriminator 1
 4750 0dc8 954B     		ldr	r3, .L721+20
 4751 0dca 9B79     		ldrb	r3, [r3, #6]
 4752 0dcc DBB2     		uxtb	r3, r3
 4753 0dce C32B     		cmp	r3, #195
 4754 0dd0 0CD1     		bne	.L246
 4755              		.loc 1 1198 0 discriminator 2
 4756 0dd2 934B     		ldr	r3, .L721+20
 4757 0dd4 DB79     		ldrb	r3, [r3, #7]
 4758 0dd6 DBB2     		uxtb	r3, r3
 4759 0dd8 3C2B     		cmp	r3, #60
 4760 0dda 07D1     		bne	.L246
ARM GAS  C:\Users\RECEPC~1\AppData\Local\Temp\cc8qeTl3.s 			page 107


1199:.\main.c      ****                     if(LCD_1_rxBuffer[3]==0x7E){					//Cancel
 4761              		.loc 1 1199 0 is_stmt 1
 4762 0ddc 904B     		ldr	r3, .L721+20
 4763 0dde DB78     		ldrb	r3, [r3, #3]
 4764 0de0 DBB2     		uxtb	r3, r3
 4765 0de2 7E2B     		cmp	r3, #126
 4766 0de4 02D1     		bne	.L246
1200:.\main.c      ****     					flujo_LCD1=0;
 4767              		.loc 1 1200 0
 4768 0de6 8C4B     		ldr	r3, .L721+12
 4769 0de8 0022     		movs	r2, #0
 4770 0dea 1A70     		strb	r2, [r3]
 4771              	.L246:
1201:.\main.c      ****                     }												
1202:.\main.c      ****     			}                       
1203:.\main.c      ****                 LCD_1_ClearRxBuffer();
 4772              		.loc 1 1203 0
 4773 0dec FFF7FEFF 		bl	LCD_1_ClearRxBuffer
1204:.\main.c      ****     			break;
 4774              		.loc 1 1204 0
 4775 0df0 04F03CB9 		b	.L131
 4776              	.L245:
1205:.\main.c      ****     		}
1206:.\main.c      ****             x=get_estado(lado1.dir);
 4777              		.loc 1 1206 0
 4778 0df4 8B4B     		ldr	r3, .L721+24
 4779 0df6 1B78     		ldrb	r3, [r3]
 4780 0df8 DBB2     		uxtb	r3, r3
 4781 0dfa 1846     		mov	r0, r3
 4782 0dfc FFF7FEFF 		bl	get_estado
 4783 0e00 0346     		mov	r3, r0
 4784 0e02 87F82F30 		strb	r3, [r7, #47]
1207:.\main.c      ****             if(x==7){								//Espera a que este en listo el equipo	
 4785              		.loc 1 1207 0
 4786 0e06 97F82F30 		ldrb	r3, [r7, #47]	@ zero_extendqisi2
 4787 0e0a 072B     		cmp	r3, #7
 4788 0e0c 06D1     		bne	.L247
1208:.\main.c      ****     		    flujo_LCD1=6;
 4789              		.loc 1 1208 0
 4790 0e0e 824B     		ldr	r3, .L721+12
 4791 0e10 0622     		movs	r2, #6
 4792 0e12 1A70     		strb	r2, [r3]
1209:.\main.c      ****                 CyDelay(50);
 4793              		.loc 1 1209 0
 4794 0e14 3220     		movs	r0, #50
 4795 0e16 FFF7FEFF 		bl	CyDelay
 4796 0e1a 2AE0     		b	.L244
 4797              	.L247:
1210:.\main.c      ****             }
1211:.\main.c      ****             else if(x==0){
 4798              		.loc 1 1211 0
 4799 0e1c 97F82F30 		ldrb	r3, [r7, #47]	@ zero_extendqisi2
 4800 0e20 002B     		cmp	r3, #0
 4801 0e22 0ED1     		bne	.L248
1212:.\main.c      ****     			CyDelay(50);
 4802              		.loc 1 1212 0
 4803 0e24 3220     		movs	r0, #50
ARM GAS  C:\Users\RECEPC~1\AppData\Local\Temp\cc8qeTl3.s 			page 108


 4804 0e26 FFF7FEFF 		bl	CyDelay
1213:.\main.c      ****     			programar(lado1.dir,1,aux,2);
 4805              		.loc 1 1213 0
 4806 0e2a 7E4B     		ldr	r3, .L721+24
 4807 0e2c 1B78     		ldrb	r3, [r3]
 4808 0e2e DAB2     		uxtb	r2, r3
 4809 0e30 07F11403 		add	r3, r7, #20
 4810 0e34 1046     		mov	r0, r2
 4811 0e36 0121     		movs	r1, #1
 4812 0e38 1A46     		mov	r2, r3
 4813 0e3a 0223     		movs	r3, #2
 4814 0e3c FFF7FEFF 		bl	programar
 4815 0e40 17E0     		b	.L244
 4816              	.L248:
1214:.\main.c      ****             }
1215:.\main.c      ****             else if(x==0x0C){
 4817              		.loc 1 1215 0
 4818 0e42 97F82F30 		ldrb	r3, [r7, #47]	@ zero_extendqisi2
 4819 0e46 0C2B     		cmp	r3, #12
 4820 0e48 04D1     		bne	.L249
1216:.\main.c      ****                 error_op(1,85);
 4821              		.loc 1 1216 0
 4822 0e4a 0120     		movs	r0, #1
 4823 0e4c 5521     		movs	r1, #85
 4824 0e4e FFF7FEFF 		bl	error_op
 4825 0e52 0EE0     		b	.L244
 4826              	.L249:
1217:.\main.c      ****             }
1218:.\main.c      ****     		else if(x==0x0B){                   //Termino venta
 4827              		.loc 1 1218 0
 4828 0e54 97F82F30 		ldrb	r3, [r7, #47]	@ zero_extendqisi2
 4829 0e58 0B2B     		cmp	r3, #11
 4830 0e5a 03D1     		bne	.L250
1219:.\main.c      ****     			flujo_LCD1=13;
 4831              		.loc 1 1219 0
 4832 0e5c 6E4B     		ldr	r3, .L721+12
 4833 0e5e 0D22     		movs	r2, #13
 4834 0e60 1A70     		strb	r2, [r3]
 4835 0e62 06E0     		b	.L244
 4836              	.L250:
1220:.\main.c      ****             }						
1221:.\main.c      ****     		else if(x==0x0A){					//Termino venta
 4837              		.loc 1 1221 0
 4838 0e64 97F82F30 		ldrb	r3, [r7, #47]	@ zero_extendqisi2
 4839 0e68 0A2B     		cmp	r3, #10
 4840 0e6a 02D1     		bne	.L244
1222:.\main.c      ****     			flujo_LCD1=13;
 4841              		.loc 1 1222 0
 4842 0e6c 6A4B     		ldr	r3, .L721+12
 4843 0e6e 0D22     		movs	r2, #13
 4844 0e70 1A70     		strb	r2, [r3]
 4845              	.L244:
1223:.\main.c      ****     		}  
1224:.\main.c      ****         }
1225:.\main.c      ****         if(seleccion_pos == 2){
 4846              		.loc 1 1225 0
 4847 0e72 6A4B     		ldr	r3, .L721+16
ARM GAS  C:\Users\RECEPC~1\AppData\Local\Temp\cc8qeTl3.s 			page 109


 4848 0e74 1B78     		ldrb	r3, [r3]
 4849 0e76 DBB2     		uxtb	r3, r3
 4850 0e78 022B     		cmp	r3, #2
 4851 0e7a 63D1     		bne	.L251
1226:.\main.c      ****     		CyDelay(50);
 4852              		.loc 1 1226 0
 4853 0e7c 3220     		movs	r0, #50
 4854 0e7e FFF7FEFF 		bl	CyDelay
1227:.\main.c      ****             if(LCD_1_GetRxBufferSize()==8){
 4855              		.loc 1 1227 0
 4856 0e82 FFF7FEFF 		bl	LCD_1_GetRxBufferSize
 4857 0e86 0346     		mov	r3, r0
 4858 0e88 082B     		cmp	r3, #8
 4859 0e8a 1AD1     		bne	.L252
1228:.\main.c      ****                 if((LCD_1_rxBuffer[0]==0xAA) && (LCD_1_rxBuffer[6]==0xC3) && (LCD_1_rxBuffer[7]==0x
 4860              		.loc 1 1228 0
 4861 0e8c 644B     		ldr	r3, .L721+20
 4862 0e8e 1B78     		ldrb	r3, [r3]
 4863 0e90 DBB2     		uxtb	r3, r3
 4864 0e92 AA2B     		cmp	r3, #170
 4865 0e94 11D1     		bne	.L253
 4866              		.loc 1 1228 0 is_stmt 0 discriminator 1
 4867 0e96 624B     		ldr	r3, .L721+20
 4868 0e98 9B79     		ldrb	r3, [r3, #6]
 4869 0e9a DBB2     		uxtb	r3, r3
 4870 0e9c C32B     		cmp	r3, #195
 4871 0e9e 0CD1     		bne	.L253
 4872              		.loc 1 1228 0 discriminator 2
 4873 0ea0 5F4B     		ldr	r3, .L721+20
 4874 0ea2 DB79     		ldrb	r3, [r3, #7]
 4875 0ea4 DBB2     		uxtb	r3, r3
 4876 0ea6 3C2B     		cmp	r3, #60
 4877 0ea8 07D1     		bne	.L253
1229:.\main.c      ****                     if(LCD_1_rxBuffer[3]==0x7E){					//Cancel
 4878              		.loc 1 1229 0 is_stmt 1
 4879 0eaa 5D4B     		ldr	r3, .L721+20
 4880 0eac DB78     		ldrb	r3, [r3, #3]
 4881 0eae DBB2     		uxtb	r3, r3
 4882 0eb0 7E2B     		cmp	r3, #126
 4883 0eb2 02D1     		bne	.L253
1230:.\main.c      ****     					flujo_LCD1=0;
 4884              		.loc 1 1230 0
 4885 0eb4 584B     		ldr	r3, .L721+12
 4886 0eb6 0022     		movs	r2, #0
 4887 0eb8 1A70     		strb	r2, [r3]
 4888              	.L253:
1231:.\main.c      ****                     }												
1232:.\main.c      ****     			}                       
1233:.\main.c      ****                 LCD_1_ClearRxBuffer();
 4889              		.loc 1 1233 0
 4890 0eba FFF7FEFF 		bl	LCD_1_ClearRxBuffer
1234:.\main.c      ****     			break;
 4891              		.loc 1 1234 0
 4892 0ebe 04F0D5B8 		b	.L131
 4893              	.L252:
1235:.\main.c      ****     		}
1236:.\main.c      ****             x=get_estado(lado2.dir);
ARM GAS  C:\Users\RECEPC~1\AppData\Local\Temp\cc8qeTl3.s 			page 110


 4894              		.loc 1 1236 0
 4895 0ec2 544B     		ldr	r3, .L721+8
 4896 0ec4 1B78     		ldrb	r3, [r3]
 4897 0ec6 DBB2     		uxtb	r3, r3
 4898 0ec8 1846     		mov	r0, r3
 4899 0eca FFF7FEFF 		bl	get_estado
 4900 0ece 0346     		mov	r3, r0
 4901 0ed0 87F82F30 		strb	r3, [r7, #47]
1237:.\main.c      ****             if(x==7){								//Espera a que este en listo el equipo	
 4902              		.loc 1 1237 0
 4903 0ed4 97F82F30 		ldrb	r3, [r7, #47]	@ zero_extendqisi2
 4904 0ed8 072B     		cmp	r3, #7
 4905 0eda 06D1     		bne	.L254
1238:.\main.c      ****     		    flujo_LCD1=6;
 4906              		.loc 1 1238 0
 4907 0edc 4E4B     		ldr	r3, .L721+12
 4908 0ede 0622     		movs	r2, #6
 4909 0ee0 1A70     		strb	r2, [r3]
1239:.\main.c      ****                 CyDelay(50);
 4910              		.loc 1 1239 0
 4911 0ee2 3220     		movs	r0, #50
 4912 0ee4 FFF7FEFF 		bl	CyDelay
 4913 0ee8 2CE0     		b	.L251
 4914              	.L254:
1240:.\main.c      ****             }
1241:.\main.c      ****             else if(x==0){
 4915              		.loc 1 1241 0
 4916 0eea 97F82F30 		ldrb	r3, [r7, #47]	@ zero_extendqisi2
 4917 0eee 002B     		cmp	r3, #0
 4918 0ef0 0ED1     		bne	.L255
1242:.\main.c      ****     			CyDelay(50);
 4919              		.loc 1 1242 0
 4920 0ef2 3220     		movs	r0, #50
 4921 0ef4 FFF7FEFF 		bl	CyDelay
1243:.\main.c      ****     			programar(lado2.dir,1,aux,2);
 4922              		.loc 1 1243 0
 4923 0ef8 464B     		ldr	r3, .L721+8
 4924 0efa 1B78     		ldrb	r3, [r3]
 4925 0efc DAB2     		uxtb	r2, r3
 4926 0efe 07F11403 		add	r3, r7, #20
 4927 0f02 1046     		mov	r0, r2
 4928 0f04 0121     		movs	r1, #1
 4929 0f06 1A46     		mov	r2, r3
 4930 0f08 0223     		movs	r3, #2
 4931 0f0a FFF7FEFF 		bl	programar
 4932 0f0e 19E0     		b	.L251
 4933              	.L255:
1244:.\main.c      ****             }
1245:.\main.c      ****             else if(x==0x0C){
 4934              		.loc 1 1245 0
 4935 0f10 97F82F30 		ldrb	r3, [r7, #47]	@ zero_extendqisi2
 4936 0f14 0C2B     		cmp	r3, #12
 4937 0f16 04D1     		bne	.L256
1246:.\main.c      ****                 error_op(1,85);
 4938              		.loc 1 1246 0
 4939 0f18 0120     		movs	r0, #1
 4940 0f1a 5521     		movs	r1, #85
ARM GAS  C:\Users\RECEPC~1\AppData\Local\Temp\cc8qeTl3.s 			page 111


 4941 0f1c FFF7FEFF 		bl	error_op
 4942 0f20 10E0     		b	.L251
 4943              	.L256:
1247:.\main.c      ****             }
1248:.\main.c      ****     		else if(x==0x0B){                   //Termino venta
 4944              		.loc 1 1248 0
 4945 0f22 97F82F30 		ldrb	r3, [r7, #47]	@ zero_extendqisi2
 4946 0f26 0B2B     		cmp	r3, #11
 4947 0f28 03D1     		bne	.L257
1249:.\main.c      ****     			flujo_LCD1=13;
 4948              		.loc 1 1249 0
 4949 0f2a 3B4B     		ldr	r3, .L721+12
 4950 0f2c 0D22     		movs	r2, #13
 4951 0f2e 1A70     		strb	r2, [r3]
 4952 0f30 08E0     		b	.L251
 4953              	.L257:
1250:.\main.c      ****             }						
1251:.\main.c      ****     		else if(x==0x0A){					//Termino venta
 4954              		.loc 1 1251 0
 4955 0f32 97F82F30 		ldrb	r3, [r7, #47]	@ zero_extendqisi2
 4956 0f36 0A2B     		cmp	r3, #10
 4957 0f38 04D1     		bne	.L251
1252:.\main.c      ****     			flujo_LCD1=13;
 4958              		.loc 1 1252 0
 4959 0f3a 374B     		ldr	r3, .L721+12
 4960 0f3c 0D22     		movs	r2, #13
 4961 0f3e 1A70     		strb	r2, [r3]
1253:.\main.c      ****     		}  
1254:.\main.c      ****         }
1255:.\main.c      ****         break;
 4962              		.loc 1 1255 0
 4963 0f40 04F094B8 		b	.L131
 4964              	.L251:
 4965              		.loc 1 1255 0 is_stmt 0 discriminator 7
 4966 0f44 04F092B8 		b	.L131
 4967              	.L140:
1256:.\main.c      ****         
1257:.\main.c      ****         case 6:
1258:.\main.c      ****         if(seleccion_pos == 1){
 4968              		.loc 1 1258 0 is_stmt 1
 4969 0f48 344B     		ldr	r3, .L721+16
 4970 0f4a 1B78     		ldrb	r3, [r3]
 4971 0f4c DBB2     		uxtb	r3, r3
 4972 0f4e 012B     		cmp	r3, #1
 4973 0f50 29D1     		bne	.L258
1259:.\main.c      ****     		CyDelay(10);
 4974              		.loc 1 1259 0
 4975 0f52 0A20     		movs	r0, #10
 4976 0f54 FFF7FEFF 		bl	CyDelay
1260:.\main.c      ****     		rventa1.manguera=estado_ex(lado1.dir);
 4977              		.loc 1 1260 0
 4978 0f58 324B     		ldr	r3, .L721+24
 4979 0f5a 1B78     		ldrb	r3, [r3]
 4980 0f5c DBB2     		uxtb	r3, r3
 4981 0f5e 1846     		mov	r0, r3
 4982 0f60 FFF7FEFF 		bl	estado_ex
 4983 0f64 0346     		mov	r3, r0
ARM GAS  C:\Users\RECEPC~1\AppData\Local\Temp\cc8qeTl3.s 			page 112


 4984 0f66 1A46     		mov	r2, r3
 4985 0f68 294B     		ldr	r3, .L721+4
 4986 0f6a 9A76     		strb	r2, [r3, #26]
1261:.\main.c      ****     		if(rventa1.manguera!=0){			 
 4987              		.loc 1 1261 0
 4988 0f6c 284B     		ldr	r3, .L721+4
 4989 0f6e 9B7E     		ldrb	r3, [r3, #26]	@ zero_extendqisi2
 4990 0f70 002B     		cmp	r3, #0
 4991 0f72 18D0     		beq	.L258
1262:.\main.c      ****                 CyDelay(20);            
 4992              		.loc 1 1262 0
 4993 0f74 1420     		movs	r0, #20
 4994 0f76 FFF7FEFF 		bl	CyDelay
1263:.\main.c      ****     		    if(get_estado(lado1.dir)==7){     			    
 4995              		.loc 1 1263 0
 4996 0f7a 2A4B     		ldr	r3, .L721+24
 4997 0f7c 1B78     		ldrb	r3, [r3]
 4998 0f7e DBB2     		uxtb	r3, r3
 4999 0f80 1846     		mov	r0, r3
 5000 0f82 FFF7FEFF 		bl	get_estado
 5001 0f86 0346     		mov	r3, r0
 5002 0f88 072B     		cmp	r3, #7
 5003 0f8a 0CD1     		bne	.L258
1264:.\main.c      ****                     timeout_autorizacion=0;
 5004              		.loc 1 1264 0
 5005 0f8c 264B     		ldr	r3, .L721+28
 5006 0f8e 0022     		movs	r2, #0
 5007 0f90 1A80     		strh	r2, [r3]	@ movhi
1265:.\main.c      ****     			    lado1.estado=listo;
 5008              		.loc 1 1265 0
 5009 0f92 244B     		ldr	r3, .L721+24
 5010 0f94 0422     		movs	r2, #4
 5011 0f96 5A70     		strb	r2, [r3, #1]
1266:.\main.c      ****                     set_imagen(1,57);                                
 5012              		.loc 1 1266 0
 5013 0f98 0120     		movs	r0, #1
 5014 0f9a 3921     		movs	r1, #57
 5015 0f9c FFF7FEFF 		bl	set_imagen
1267:.\main.c      ****                     flujo_LCD1 = 9;
 5016              		.loc 1 1267 0
 5017 0fa0 1D4B     		ldr	r3, .L721+12
 5018 0fa2 0922     		movs	r2, #9
 5019 0fa4 1A70     		strb	r2, [r3]
 5020              	.L258:
1268:.\main.c      ****     		    }
1269:.\main.c      ****     		}
1270:.\main.c      ****         }
1271:.\main.c      ****         if(seleccion_pos == 2){
 5021              		.loc 1 1271 0
 5022 0fa6 1D4B     		ldr	r3, .L721+16
 5023 0fa8 1B78     		ldrb	r3, [r3]
 5024 0faa DBB2     		uxtb	r3, r3
 5025 0fac 022B     		cmp	r3, #2
 5026 0fae 2BD1     		bne	.L259
1272:.\main.c      ****     		CyDelay(10);
 5027              		.loc 1 1272 0
 5028 0fb0 0A20     		movs	r0, #10
ARM GAS  C:\Users\RECEPC~1\AppData\Local\Temp\cc8qeTl3.s 			page 113


 5029 0fb2 FFF7FEFF 		bl	CyDelay
1273:.\main.c      ****     		rventa2.manguera=estado_ex(lado2.dir);
 5030              		.loc 1 1273 0
 5031 0fb6 174B     		ldr	r3, .L721+8
 5032 0fb8 1B78     		ldrb	r3, [r3]
 5033 0fba DBB2     		uxtb	r3, r3
 5034 0fbc 1846     		mov	r0, r3
 5035 0fbe FFF7FEFF 		bl	estado_ex
 5036 0fc2 0346     		mov	r3, r0
 5037 0fc4 1A46     		mov	r2, r3
 5038 0fc6 114B     		ldr	r3, .L721
 5039 0fc8 9A76     		strb	r2, [r3, #26]
1274:.\main.c      ****     		if(rventa2.manguera!=0){			 
 5040              		.loc 1 1274 0
 5041 0fca 104B     		ldr	r3, .L721
 5042 0fcc 9B7E     		ldrb	r3, [r3, #26]	@ zero_extendqisi2
 5043 0fce 002B     		cmp	r3, #0
 5044 0fd0 1AD0     		beq	.L259
1275:.\main.c      ****                 CyDelay(20);            
 5045              		.loc 1 1275 0
 5046 0fd2 1420     		movs	r0, #20
 5047 0fd4 FFF7FEFF 		bl	CyDelay
1276:.\main.c      ****     		    if(get_estado(lado2.dir)==7){     			    
 5048              		.loc 1 1276 0
 5049 0fd8 0E4B     		ldr	r3, .L721+8
 5050 0fda 1B78     		ldrb	r3, [r3]
 5051 0fdc DBB2     		uxtb	r3, r3
 5052 0fde 1846     		mov	r0, r3
 5053 0fe0 FFF7FEFF 		bl	get_estado
 5054 0fe4 0346     		mov	r3, r0
 5055 0fe6 072B     		cmp	r3, #7
 5056 0fe8 0ED1     		bne	.L259
1277:.\main.c      ****                     timeout_autorizacion=0;
 5057              		.loc 1 1277 0
 5058 0fea 0F4B     		ldr	r3, .L721+28
 5059 0fec 0022     		movs	r2, #0
 5060 0fee 1A80     		strh	r2, [r3]	@ movhi
1278:.\main.c      ****     			    lado2.estado=listo;
 5061              		.loc 1 1278 0
 5062 0ff0 084B     		ldr	r3, .L721+8
 5063 0ff2 0422     		movs	r2, #4
 5064 0ff4 5A70     		strb	r2, [r3, #1]
1279:.\main.c      ****                     set_imagen(1,57);                                
 5065              		.loc 1 1279 0
 5066 0ff6 0120     		movs	r0, #1
 5067 0ff8 3921     		movs	r1, #57
 5068 0ffa FFF7FEFF 		bl	set_imagen
1280:.\main.c      ****                     flujo_LCD1 = 9;
 5069              		.loc 1 1280 0
 5070 0ffe 064B     		ldr	r3, .L721+12
 5071 1000 0922     		movs	r2, #9
 5072 1002 1A70     		strb	r2, [r3]
1281:.\main.c      ****     		    }
1282:.\main.c      ****     		}
1283:.\main.c      ****         }
1284:.\main.c      **** 		break;
 5073              		.loc 1 1284 0
ARM GAS  C:\Users\RECEPC~1\AppData\Local\Temp\cc8qeTl3.s 			page 114


 5074 1004 04F032B8 		b	.L131
 5075              	.L259:
 5076              		.loc 1 1284 0 is_stmt 0 discriminator 8
 5077 1008 04F030B8 		b	.L131
 5078              	.L722:
 5079              		.align	2
 5080              	.L721:
 5081 100c 00000000 		.word	rventa2
 5082 1010 00000000 		.word	rventa1
 5083 1014 00000000 		.word	lado2
 5084 1018 00000000 		.word	flujo_LCD1
 5085 101c 00000000 		.word	seleccion_pos
 5086 1020 00000000 		.word	LCD_1_rxBuffer
 5087 1024 00000000 		.word	lado1
 5088 1028 00000000 		.word	timeout_autorizacion
 5089              	.L141:
1285:.\main.c      ****         
1286:.\main.c      ****         case 8:        
1287:.\main.c      **** 		 CyDelay(50);
 5090              		.loc 1 1287 0 is_stmt 1
 5091 102c 3220     		movs	r0, #50
 5092 102e FFF7FEFF 		bl	CyDelay
1288:.\main.c      ****         if(seleccion_pos == 1){
 5093              		.loc 1 1288 0
 5094 1032 AF4B     		ldr	r3, .L723
 5095 1034 1B78     		ldrb	r3, [r3]
 5096 1036 DBB2     		uxtb	r3, r3
 5097 1038 012B     		cmp	r3, #1
 5098 103a 40F09B80 		bne	.L260
1289:.\main.c      **** 		 switch(get_estado(lado1.dir)){
 5099              		.loc 1 1289 0
 5100 103e AD4B     		ldr	r3, .L723+4
 5101 1040 1B78     		ldrb	r3, [r3]
 5102 1042 DBB2     		uxtb	r3, r3
 5103 1044 1846     		mov	r0, r3
 5104 1046 FFF7FEFF 		bl	get_estado
 5105 104a 0346     		mov	r3, r0
 5106 104c 0A2B     		cmp	r3, #10
 5107 104e 32D0     		beq	.L261
 5108 1050 0B2B     		cmp	r3, #11
 5109 1052 02D0     		beq	.L262
 5110 1054 062B     		cmp	r3, #6
 5111 1056 59D0     		beq	.L263
 5112 1058 8CE0     		b	.L260
 5113              	.L262:
1290:.\main.c      **** 	         case 0x0B:                     //Termino venta
1291:.\main.c      **** 				CyDelay(100);
 5114              		.loc 1 1291 0
 5115 105a 6420     		movs	r0, #100
 5116 105c FFF7FEFF 		bl	CyDelay
1292:.\main.c      **** 				for(x=0;x<=8;x++){
 5117              		.loc 1 1292 0
 5118 1060 0023     		movs	r3, #0
 5119 1062 87F82F30 		strb	r3, [r7, #47]
 5120 1066 10E0     		b	.L264
 5121              	.L265:
1293:.\main.c      **** 					rventa1.dinero[x]=0;
ARM GAS  C:\Users\RECEPC~1\AppData\Local\Temp\cc8qeTl3.s 			page 115


 5122              		.loc 1 1293 0 discriminator 3
 5123 1068 97F82F30 		ldrb	r3, [r7, #47]	@ zero_extendqisi2
 5124 106c A24A     		ldr	r2, .L723+8
 5125 106e 1344     		add	r3, r3, r2
 5126 1070 0022     		movs	r2, #0
 5127 1072 DA71     		strb	r2, [r3, #7]
1294:.\main.c      **** 					rventa1.volumen[x]=0;
 5128              		.loc 1 1294 0 discriminator 3
 5129 1074 97F82F30 		ldrb	r3, [r7, #47]	@ zero_extendqisi2
 5130 1078 9F4A     		ldr	r2, .L723+8
 5131 107a 1344     		add	r3, r3, r2
 5132 107c 0022     		movs	r2, #0
 5133 107e 1A74     		strb	r2, [r3, #16]
1292:.\main.c      **** 				for(x=0;x<=8;x++){
 5134              		.loc 1 1292 0 discriminator 3
 5135 1080 97F82F30 		ldrb	r3, [r7, #47]	@ zero_extendqisi2
 5136 1084 0133     		adds	r3, r3, #1
 5137 1086 87F82F30 		strb	r3, [r7, #47]
 5138              	.L264:
1292:.\main.c      **** 				for(x=0;x<=8;x++){
 5139              		.loc 1 1292 0 is_stmt 0 discriminator 1
 5140 108a 97F82F30 		ldrb	r3, [r7, #47]	@ zero_extendqisi2
 5141 108e 082B     		cmp	r3, #8
 5142 1090 EAD9     		bls	.L265
1295:.\main.c      **** 				}					
1296:.\main.c      **** 				if(venta(lado1.dir)==1){
 5143              		.loc 1 1296 0 is_stmt 1
 5144 1092 984B     		ldr	r3, .L723+4
 5145 1094 1B78     		ldrb	r3, [r3]
 5146 1096 DBB2     		uxtb	r3, r3
 5147 1098 1846     		mov	r0, r3
 5148 109a FFF7FEFF 		bl	venta
 5149 109e 0346     		mov	r3, r0
 5150 10a0 012B     		cmp	r3, #1
 5151 10a2 07D1     		bne	.L266
1297:.\main.c      **** 					flujo_LCD1 = 13;
 5152              		.loc 1 1297 0
 5153 10a4 954B     		ldr	r3, .L723+12
 5154 10a6 0D22     		movs	r2, #13
 5155 10a8 1A70     		strb	r2, [r3]
1298:.\main.c      **** 					set_imagen(1,57);
 5156              		.loc 1 1298 0
 5157 10aa 0120     		movs	r0, #1
 5158 10ac 3921     		movs	r1, #57
 5159 10ae FFF7FEFF 		bl	set_imagen
1299:.\main.c      **** 				}	
1300:.\main.c      **** 			 break;	
 5160              		.loc 1 1300 0
 5161 10b2 5FE0     		b	.L260
 5162              	.L266:
 5163 10b4 5EE0     		b	.L260
 5164              	.L261:
1301:.\main.c      **** 				
1302:.\main.c      **** 	         case 0x0A:						//Termino venta
1303:.\main.c      **** 				for(x=0;x<=8;x++){
 5165              		.loc 1 1303 0
 5166 10b6 0023     		movs	r3, #0
ARM GAS  C:\Users\RECEPC~1\AppData\Local\Temp\cc8qeTl3.s 			page 116


 5167 10b8 87F82F30 		strb	r3, [r7, #47]
 5168 10bc 10E0     		b	.L267
 5169              	.L268:
1304:.\main.c      **** 					rventa1.dinero[x]=0;
 5170              		.loc 1 1304 0 discriminator 3
 5171 10be 97F82F30 		ldrb	r3, [r7, #47]	@ zero_extendqisi2
 5172 10c2 8D4A     		ldr	r2, .L723+8
 5173 10c4 1344     		add	r3, r3, r2
 5174 10c6 0022     		movs	r2, #0
 5175 10c8 DA71     		strb	r2, [r3, #7]
1305:.\main.c      **** 					rventa1.volumen[x]=0;
 5176              		.loc 1 1305 0 discriminator 3
 5177 10ca 97F82F30 		ldrb	r3, [r7, #47]	@ zero_extendqisi2
 5178 10ce 8A4A     		ldr	r2, .L723+8
 5179 10d0 1344     		add	r3, r3, r2
 5180 10d2 0022     		movs	r2, #0
 5181 10d4 1A74     		strb	r2, [r3, #16]
1303:.\main.c      **** 					rventa1.dinero[x]=0;
 5182              		.loc 1 1303 0 discriminator 3
 5183 10d6 97F82F30 		ldrb	r3, [r7, #47]	@ zero_extendqisi2
 5184 10da 0133     		adds	r3, r3, #1
 5185 10dc 87F82F30 		strb	r3, [r7, #47]
 5186              	.L267:
1303:.\main.c      **** 					rventa1.dinero[x]=0;
 5187              		.loc 1 1303 0 is_stmt 0 discriminator 1
 5188 10e0 97F82F30 		ldrb	r3, [r7, #47]	@ zero_extendqisi2
 5189 10e4 082B     		cmp	r3, #8
 5190 10e6 EAD9     		bls	.L268
1306:.\main.c      **** 				}				
1307:.\main.c      **** 				if(venta(lado1.dir)==1){
 5191              		.loc 1 1307 0 is_stmt 1
 5192 10e8 824B     		ldr	r3, .L723+4
 5193 10ea 1B78     		ldrb	r3, [r3]
 5194 10ec DBB2     		uxtb	r3, r3
 5195 10ee 1846     		mov	r0, r3
 5196 10f0 FFF7FEFF 		bl	venta
 5197 10f4 0346     		mov	r3, r0
 5198 10f6 012B     		cmp	r3, #1
 5199 10f8 07D1     		bne	.L269
1308:.\main.c      **** 					flujo_LCD1 = 13;
 5200              		.loc 1 1308 0
 5201 10fa 804B     		ldr	r3, .L723+12
 5202 10fc 0D22     		movs	r2, #13
 5203 10fe 1A70     		strb	r2, [r3]
1309:.\main.c      **** 					set_imagen(1,57);
 5204              		.loc 1 1309 0
 5205 1100 0120     		movs	r0, #1
 5206 1102 3921     		movs	r1, #57
 5207 1104 FFF7FEFF 		bl	set_imagen
1310:.\main.c      **** 				}	
1311:.\main.c      **** 			 break;
 5208              		.loc 1 1311 0
 5209 1108 34E0     		b	.L260
 5210              	.L269:
 5211 110a 33E0     		b	.L260
 5212              	.L263:
1312:.\main.c      **** 
ARM GAS  C:\Users\RECEPC~1\AppData\Local\Temp\cc8qeTl3.s 			page 117


1313:.\main.c      **** 	         case 0x06:                     //No hizo venta
1314:.\main.c      **** 				for(x=0;x<=8;x++){
 5213              		.loc 1 1314 0
 5214 110c 0023     		movs	r3, #0
 5215 110e 87F82F30 		strb	r3, [r7, #47]
 5216 1112 10E0     		b	.L270
 5217              	.L271:
1315:.\main.c      **** 					rventa1.dinero[x]=0;
 5218              		.loc 1 1315 0 discriminator 3
 5219 1114 97F82F30 		ldrb	r3, [r7, #47]	@ zero_extendqisi2
 5220 1118 774A     		ldr	r2, .L723+8
 5221 111a 1344     		add	r3, r3, r2
 5222 111c 0022     		movs	r2, #0
 5223 111e DA71     		strb	r2, [r3, #7]
1316:.\main.c      **** 					rventa1.volumen[x]=0;
 5224              		.loc 1 1316 0 discriminator 3
 5225 1120 97F82F30 		ldrb	r3, [r7, #47]	@ zero_extendqisi2
 5226 1124 744A     		ldr	r2, .L723+8
 5227 1126 1344     		add	r3, r3, r2
 5228 1128 0022     		movs	r2, #0
 5229 112a 1A74     		strb	r2, [r3, #16]
1314:.\main.c      **** 					rventa1.dinero[x]=0;
 5230              		.loc 1 1314 0 discriminator 3
 5231 112c 97F82F30 		ldrb	r3, [r7, #47]	@ zero_extendqisi2
 5232 1130 0133     		adds	r3, r3, #1
 5233 1132 87F82F30 		strb	r3, [r7, #47]
 5234              	.L270:
1314:.\main.c      **** 					rventa1.dinero[x]=0;
 5235              		.loc 1 1314 0 is_stmt 0 discriminator 1
 5236 1136 97F82F30 		ldrb	r3, [r7, #47]	@ zero_extendqisi2
 5237 113a 082B     		cmp	r3, #8
 5238 113c EAD9     		bls	.L271
1317:.\main.c      **** 				}
1318:.\main.c      **** 				for(x=0;x<=4;x++){
 5239              		.loc 1 1318 0 is_stmt 1
 5240 113e 0023     		movs	r3, #0
 5241 1140 87F82F30 		strb	r3, [r7, #47]
 5242 1144 0AE0     		b	.L272
 5243              	.L273:
1319:.\main.c      **** 					rventa1.ppu[x]=0;
 5244              		.loc 1 1319 0 discriminator 3
 5245 1146 97F82F30 		ldrb	r3, [r7, #47]	@ zero_extendqisi2
 5246 114a 6B4A     		ldr	r2, .L723+8
 5247 114c 1344     		add	r3, r3, r2
 5248 114e 0022     		movs	r2, #0
 5249 1150 9A70     		strb	r2, [r3, #2]
1318:.\main.c      **** 					rventa1.ppu[x]=0;
 5250              		.loc 1 1318 0 discriminator 3
 5251 1152 97F82F30 		ldrb	r3, [r7, #47]	@ zero_extendqisi2
 5252 1156 0133     		adds	r3, r3, #1
 5253 1158 87F82F30 		strb	r3, [r7, #47]
 5254              	.L272:
1318:.\main.c      **** 					rventa1.ppu[x]=0;
 5255              		.loc 1 1318 0 is_stmt 0 discriminator 1
 5256 115c 97F82F30 		ldrb	r3, [r7, #47]	@ zero_extendqisi2
 5257 1160 042B     		cmp	r3, #4
 5258 1162 F0D9     		bls	.L273
ARM GAS  C:\Users\RECEPC~1\AppData\Local\Temp\cc8qeTl3.s 			page 118


1320:.\main.c      **** 				}				
1321:.\main.c      **** 				flujo_LCD1 = 13;
 5259              		.loc 1 1321 0 is_stmt 1
 5260 1164 654B     		ldr	r3, .L723+12
 5261 1166 0D22     		movs	r2, #13
 5262 1168 1A70     		strb	r2, [r3]
1322:.\main.c      **** 				set_imagen(1,57);		
 5263              		.loc 1 1322 0
 5264 116a 0120     		movs	r0, #1
 5265 116c 3921     		movs	r1, #57
 5266 116e FFF7FEFF 		bl	set_imagen
1323:.\main.c      **** 			 break;				 	
 5267              		.loc 1 1323 0
 5268 1172 00BF     		nop
 5269              	.L260:
1324:.\main.c      ****          }	
1325:.\main.c      ****         }
1326:.\main.c      ****         if(seleccion_pos == 2){
 5270              		.loc 1 1326 0
 5271 1174 5E4B     		ldr	r3, .L723
 5272 1176 1B78     		ldrb	r3, [r3]
 5273 1178 DBB2     		uxtb	r3, r3
 5274 117a 022B     		cmp	r3, #2
 5275 117c 40F09C80 		bne	.L274
1327:.\main.c      **** 		 switch(get_estado(lado2.dir)){
 5276              		.loc 1 1327 0
 5277 1180 5F4B     		ldr	r3, .L723+16
 5278 1182 1B78     		ldrb	r3, [r3]
 5279 1184 DBB2     		uxtb	r3, r3
 5280 1186 1846     		mov	r0, r3
 5281 1188 FFF7FEFF 		bl	get_estado
 5282 118c 0346     		mov	r3, r0
 5283 118e 0A2B     		cmp	r3, #10
 5284 1190 33D0     		beq	.L275
 5285 1192 0B2B     		cmp	r3, #11
 5286 1194 03D0     		beq	.L276
 5287 1196 062B     		cmp	r3, #6
 5288 1198 5AD0     		beq	.L277
1328:.\main.c      **** 	         case 0x0B:                     //Termino venta
1329:.\main.c      **** 				CyDelay(100);
1330:.\main.c      **** 				for(x=0;x<=8;x++){
1331:.\main.c      **** 					rventa2.dinero[x]=0;
1332:.\main.c      **** 					rventa2.volumen[x]=0;
1333:.\main.c      **** 				}					
1334:.\main.c      **** 				if(venta(lado2.dir)==1){
1335:.\main.c      **** 					flujo_LCD1 = 13;
1336:.\main.c      **** 					set_imagen(1,57);
1337:.\main.c      **** 				}	
1338:.\main.c      **** 			 break;	
1339:.\main.c      **** 				
1340:.\main.c      **** 	         case 0x0A:						//Termino venta
1341:.\main.c      **** 				for(x=0;x<=8;x++){
1342:.\main.c      **** 					rventa2.dinero[x]=0;
1343:.\main.c      **** 					rventa2.volumen[x]=0;
1344:.\main.c      **** 				}				
1345:.\main.c      **** 				if(venta(lado2.dir)==1){
1346:.\main.c      **** 					flujo_LCD1 = 13;
ARM GAS  C:\Users\RECEPC~1\AppData\Local\Temp\cc8qeTl3.s 			page 119


1347:.\main.c      **** 					set_imagen(1,57);
1348:.\main.c      **** 				}	
1349:.\main.c      **** 			 break;
1350:.\main.c      **** 
1351:.\main.c      **** 	         case 0x06:                     //No hizo venta
1352:.\main.c      **** 				for(x=0;x<=8;x++){
1353:.\main.c      **** 					rventa2.dinero[x]=0;
1354:.\main.c      **** 					rventa2.volumen[x]=0;
1355:.\main.c      **** 				}
1356:.\main.c      **** 				for(x=0;x<=4;x++){
1357:.\main.c      **** 					rventa2.ppu[x]=0;
1358:.\main.c      **** 				}				
1359:.\main.c      **** 				flujo_LCD1 = 13;
1360:.\main.c      **** 				set_imagen(1,57);		
1361:.\main.c      **** 			 break;				 	
1362:.\main.c      ****          }	
1363:.\main.c      ****         }
1364:.\main.c      **** 		break;
 5289              		.loc 1 1364 0
 5290 119a 03F067BF 		b	.L131
 5291              	.L276:
1329:.\main.c      **** 				for(x=0;x<=8;x++){
 5292              		.loc 1 1329 0
 5293 119e 6420     		movs	r0, #100
 5294 11a0 FFF7FEFF 		bl	CyDelay
1330:.\main.c      **** 					rventa2.dinero[x]=0;
 5295              		.loc 1 1330 0
 5296 11a4 0023     		movs	r3, #0
 5297 11a6 87F82F30 		strb	r3, [r7, #47]
 5298 11aa 10E0     		b	.L278
 5299              	.L279:
1331:.\main.c      **** 					rventa2.volumen[x]=0;
 5300              		.loc 1 1331 0 discriminator 3
 5301 11ac 97F82F30 		ldrb	r3, [r7, #47]	@ zero_extendqisi2
 5302 11b0 544A     		ldr	r2, .L723+20
 5303 11b2 1344     		add	r3, r3, r2
 5304 11b4 0022     		movs	r2, #0
 5305 11b6 DA71     		strb	r2, [r3, #7]
1332:.\main.c      **** 				}					
 5306              		.loc 1 1332 0 discriminator 3
 5307 11b8 97F82F30 		ldrb	r3, [r7, #47]	@ zero_extendqisi2
 5308 11bc 514A     		ldr	r2, .L723+20
 5309 11be 1344     		add	r3, r3, r2
 5310 11c0 0022     		movs	r2, #0
 5311 11c2 1A74     		strb	r2, [r3, #16]
1330:.\main.c      **** 					rventa2.dinero[x]=0;
 5312              		.loc 1 1330 0 discriminator 3
 5313 11c4 97F82F30 		ldrb	r3, [r7, #47]	@ zero_extendqisi2
 5314 11c8 0133     		adds	r3, r3, #1
 5315 11ca 87F82F30 		strb	r3, [r7, #47]
 5316              	.L278:
1330:.\main.c      **** 					rventa2.dinero[x]=0;
 5317              		.loc 1 1330 0 is_stmt 0 discriminator 1
 5318 11ce 97F82F30 		ldrb	r3, [r7, #47]	@ zero_extendqisi2
 5319 11d2 082B     		cmp	r3, #8
 5320 11d4 EAD9     		bls	.L279
1334:.\main.c      **** 					flujo_LCD1 = 13;
ARM GAS  C:\Users\RECEPC~1\AppData\Local\Temp\cc8qeTl3.s 			page 120


 5321              		.loc 1 1334 0 is_stmt 1
 5322 11d6 4A4B     		ldr	r3, .L723+16
 5323 11d8 1B78     		ldrb	r3, [r3]
 5324 11da DBB2     		uxtb	r3, r3
 5325 11dc 1846     		mov	r0, r3
 5326 11de FFF7FEFF 		bl	venta
 5327 11e2 0346     		mov	r3, r0
 5328 11e4 012B     		cmp	r3, #1
 5329 11e6 07D1     		bne	.L280
1335:.\main.c      **** 					set_imagen(1,57);
 5330              		.loc 1 1335 0
 5331 11e8 444B     		ldr	r3, .L723+12
 5332 11ea 0D22     		movs	r2, #13
 5333 11ec 1A70     		strb	r2, [r3]
1336:.\main.c      **** 				}	
 5334              		.loc 1 1336 0
 5335 11ee 0120     		movs	r0, #1
 5336 11f0 3921     		movs	r1, #57
 5337 11f2 FFF7FEFF 		bl	set_imagen
1338:.\main.c      **** 				
 5338              		.loc 1 1338 0
 5339 11f6 5FE0     		b	.L274
 5340              	.L280:
 5341 11f8 5EE0     		b	.L274
 5342              	.L275:
1341:.\main.c      **** 					rventa2.dinero[x]=0;
 5343              		.loc 1 1341 0
 5344 11fa 0023     		movs	r3, #0
 5345 11fc 87F82F30 		strb	r3, [r7, #47]
 5346 1200 10E0     		b	.L281
 5347              	.L282:
1342:.\main.c      **** 					rventa2.volumen[x]=0;
 5348              		.loc 1 1342 0 discriminator 3
 5349 1202 97F82F30 		ldrb	r3, [r7, #47]	@ zero_extendqisi2
 5350 1206 3F4A     		ldr	r2, .L723+20
 5351 1208 1344     		add	r3, r3, r2
 5352 120a 0022     		movs	r2, #0
 5353 120c DA71     		strb	r2, [r3, #7]
1343:.\main.c      **** 				}				
 5354              		.loc 1 1343 0 discriminator 3
 5355 120e 97F82F30 		ldrb	r3, [r7, #47]	@ zero_extendqisi2
 5356 1212 3C4A     		ldr	r2, .L723+20
 5357 1214 1344     		add	r3, r3, r2
 5358 1216 0022     		movs	r2, #0
 5359 1218 1A74     		strb	r2, [r3, #16]
1341:.\main.c      **** 					rventa2.dinero[x]=0;
 5360              		.loc 1 1341 0 discriminator 3
 5361 121a 97F82F30 		ldrb	r3, [r7, #47]	@ zero_extendqisi2
 5362 121e 0133     		adds	r3, r3, #1
 5363 1220 87F82F30 		strb	r3, [r7, #47]
 5364              	.L281:
1341:.\main.c      **** 					rventa2.dinero[x]=0;
 5365              		.loc 1 1341 0 is_stmt 0 discriminator 1
 5366 1224 97F82F30 		ldrb	r3, [r7, #47]	@ zero_extendqisi2
 5367 1228 082B     		cmp	r3, #8
 5368 122a EAD9     		bls	.L282
1345:.\main.c      **** 					flujo_LCD1 = 13;
ARM GAS  C:\Users\RECEPC~1\AppData\Local\Temp\cc8qeTl3.s 			page 121


 5369              		.loc 1 1345 0 is_stmt 1
 5370 122c 344B     		ldr	r3, .L723+16
 5371 122e 1B78     		ldrb	r3, [r3]
 5372 1230 DBB2     		uxtb	r3, r3
 5373 1232 1846     		mov	r0, r3
 5374 1234 FFF7FEFF 		bl	venta
 5375 1238 0346     		mov	r3, r0
 5376 123a 012B     		cmp	r3, #1
 5377 123c 07D1     		bne	.L283
1346:.\main.c      **** 					set_imagen(1,57);
 5378              		.loc 1 1346 0
 5379 123e 2F4B     		ldr	r3, .L723+12
 5380 1240 0D22     		movs	r2, #13
 5381 1242 1A70     		strb	r2, [r3]
1347:.\main.c      **** 				}	
 5382              		.loc 1 1347 0
 5383 1244 0120     		movs	r0, #1
 5384 1246 3921     		movs	r1, #57
 5385 1248 FFF7FEFF 		bl	set_imagen
1349:.\main.c      **** 
 5386              		.loc 1 1349 0
 5387 124c 34E0     		b	.L274
 5388              	.L283:
1349:.\main.c      **** 
 5389              		.loc 1 1349 0 is_stmt 0 discriminator 10
 5390 124e 33E0     		b	.L274
 5391              	.L277:
1352:.\main.c      **** 					rventa2.dinero[x]=0;
 5392              		.loc 1 1352 0 is_stmt 1
 5393 1250 0023     		movs	r3, #0
 5394 1252 87F82F30 		strb	r3, [r7, #47]
 5395 1256 10E0     		b	.L284
 5396              	.L285:
1353:.\main.c      **** 					rventa2.volumen[x]=0;
 5397              		.loc 1 1353 0 discriminator 3
 5398 1258 97F82F30 		ldrb	r3, [r7, #47]	@ zero_extendqisi2
 5399 125c 294A     		ldr	r2, .L723+20
 5400 125e 1344     		add	r3, r3, r2
 5401 1260 0022     		movs	r2, #0
 5402 1262 DA71     		strb	r2, [r3, #7]
1354:.\main.c      **** 				}
 5403              		.loc 1 1354 0 discriminator 3
 5404 1264 97F82F30 		ldrb	r3, [r7, #47]	@ zero_extendqisi2
 5405 1268 264A     		ldr	r2, .L723+20
 5406 126a 1344     		add	r3, r3, r2
 5407 126c 0022     		movs	r2, #0
 5408 126e 1A74     		strb	r2, [r3, #16]
1352:.\main.c      **** 					rventa2.dinero[x]=0;
 5409              		.loc 1 1352 0 discriminator 3
 5410 1270 97F82F30 		ldrb	r3, [r7, #47]	@ zero_extendqisi2
 5411 1274 0133     		adds	r3, r3, #1
 5412 1276 87F82F30 		strb	r3, [r7, #47]
 5413              	.L284:
1352:.\main.c      **** 					rventa2.dinero[x]=0;
 5414              		.loc 1 1352 0 is_stmt 0 discriminator 1
 5415 127a 97F82F30 		ldrb	r3, [r7, #47]	@ zero_extendqisi2
 5416 127e 082B     		cmp	r3, #8
ARM GAS  C:\Users\RECEPC~1\AppData\Local\Temp\cc8qeTl3.s 			page 122


 5417 1280 EAD9     		bls	.L285
1356:.\main.c      **** 					rventa2.ppu[x]=0;
 5418              		.loc 1 1356 0 is_stmt 1
 5419 1282 0023     		movs	r3, #0
 5420 1284 87F82F30 		strb	r3, [r7, #47]
 5421 1288 0AE0     		b	.L286
 5422              	.L287:
1357:.\main.c      **** 				}				
 5423              		.loc 1 1357 0 discriminator 3
 5424 128a 97F82F30 		ldrb	r3, [r7, #47]	@ zero_extendqisi2
 5425 128e 1D4A     		ldr	r2, .L723+20
 5426 1290 1344     		add	r3, r3, r2
 5427 1292 0022     		movs	r2, #0
 5428 1294 9A70     		strb	r2, [r3, #2]
1356:.\main.c      **** 					rventa2.ppu[x]=0;
 5429              		.loc 1 1356 0 discriminator 3
 5430 1296 97F82F30 		ldrb	r3, [r7, #47]	@ zero_extendqisi2
 5431 129a 0133     		adds	r3, r3, #1
 5432 129c 87F82F30 		strb	r3, [r7, #47]
 5433              	.L286:
1356:.\main.c      **** 					rventa2.ppu[x]=0;
 5434              		.loc 1 1356 0 is_stmt 0 discriminator 1
 5435 12a0 97F82F30 		ldrb	r3, [r7, #47]	@ zero_extendqisi2
 5436 12a4 042B     		cmp	r3, #4
 5437 12a6 F0D9     		bls	.L287
1359:.\main.c      **** 				set_imagen(1,57);		
 5438              		.loc 1 1359 0 is_stmt 1
 5439 12a8 144B     		ldr	r3, .L723+12
 5440 12aa 0D22     		movs	r2, #13
 5441 12ac 1A70     		strb	r2, [r3]
1360:.\main.c      **** 			 break;				 	
 5442              		.loc 1 1360 0
 5443 12ae 0120     		movs	r0, #1
 5444 12b0 3921     		movs	r1, #57
 5445 12b2 FFF7FEFF 		bl	set_imagen
1361:.\main.c      ****          }	
 5446              		.loc 1 1361 0
 5447 12b6 00BF     		nop
 5448              	.L274:
 5449              		.loc 1 1364 0 discriminator 9
 5450 12b8 03F0D8BE 		b	.L131
 5451              	.L142:
1365:.\main.c      ****         
1366:.\main.c      ****         case 9:
1367:.\main.c      **** 			rf_mod[0]='M';
 5452              		.loc 1 1367 0
 5453 12bc 124B     		ldr	r3, .L723+24
 5454 12be 4D22     		movs	r2, #77
 5455 12c0 1A70     		strb	r2, [r3]
1368:.\main.c      **** 			rf_mod[1]='U';
 5456              		.loc 1 1368 0
 5457 12c2 114B     		ldr	r3, .L723+24
 5458 12c4 5522     		movs	r2, #85
 5459 12c6 5A70     		strb	r2, [r3, #1]
1369:.\main.c      **** 			rf_mod[2]='X';
 5460              		.loc 1 1369 0
 5461 12c8 0F4B     		ldr	r3, .L723+24
ARM GAS  C:\Users\RECEPC~1\AppData\Local\Temp\cc8qeTl3.s 			page 123


 5462 12ca 5822     		movs	r2, #88
 5463 12cc 9A70     		strb	r2, [r3, #2]
1370:.\main.c      **** 			rf_mod[3]='0';
 5464              		.loc 1 1370 0
 5465 12ce 0E4B     		ldr	r3, .L723+24
 5466 12d0 3022     		movs	r2, #48
 5467 12d2 DA70     		strb	r2, [r3, #3]
1371:.\main.c      ****             if(seleccion_pos == 1){
 5468              		.loc 1 1371 0
 5469 12d4 064B     		ldr	r3, .L723
 5470 12d6 1B78     		ldrb	r3, [r3]
 5471 12d8 DBB2     		uxtb	r3, r3
 5472 12da 012B     		cmp	r3, #1
 5473 12dc 40F03182 		bne	.L288
1372:.\main.c      ****                 if (tipo_venta == 1){
 5474              		.loc 1 1372 0
 5475 12e0 0A4B     		ldr	r3, .L723+28
 5476 12e2 1B78     		ldrb	r3, [r3]	@ zero_extendqisi2
 5477 12e4 012B     		cmp	r3, #1
 5478 12e6 52D1     		bne	.L289
1373:.\main.c      ****     			    for(x=0;x<=15;x++){						//Serial				
 5479              		.loc 1 1373 0
 5480 12e8 0023     		movs	r3, #0
 5481 12ea 87F82F30 		strb	r3, [r7, #47]
 5482 12ee 4AE0     		b	.L290
 5483              	.L724:
 5484              		.align	2
 5485              	.L723:
 5486 12f0 00000000 		.word	seleccion_pos
 5487 12f4 00000000 		.word	lado1
 5488 12f8 00000000 		.word	rventa1
 5489 12fc 00000000 		.word	flujo_LCD1
 5490 1300 00000000 		.word	lado2
 5491 1304 00000000 		.word	rventa2
 5492 1308 00000000 		.word	rf_mod
 5493 130c 00000000 		.word	tipo_venta
 5494              	.L293:
1374:.\main.c      ****     				    y=(rventa1.id[x/2]>>4)&0x0F;
 5495              		.loc 1 1374 0
 5496 1310 97F82F30 		ldrb	r3, [r7, #47]	@ zero_extendqisi2
 5497 1314 5B08     		lsrs	r3, r3, #1
 5498 1316 DBB2     		uxtb	r3, r3
 5499 1318 1A46     		mov	r2, r3
 5500 131a 214B     		ldr	r3, .L725
 5501 131c 1344     		add	r3, r3, r2
 5502 131e 93F82330 		ldrb	r3, [r3, #35]	@ zero_extendqisi2
 5503 1322 1B09     		lsrs	r3, r3, #4
 5504 1324 87F82E30 		strb	r3, [r7, #46]
1375:.\main.c      ****     				    if((x%2)==0){
 5505              		.loc 1 1375 0
 5506 1328 97F82F30 		ldrb	r3, [r7, #47]
 5507 132c 03F00103 		and	r3, r3, #1
 5508 1330 DBB2     		uxtb	r3, r3
 5509 1332 002B     		cmp	r3, #0
 5510 1334 0CD1     		bne	.L291
1376:.\main.c      ****     					    y=rventa1.id[x/2]&0x0F;
 5511              		.loc 1 1376 0
ARM GAS  C:\Users\RECEPC~1\AppData\Local\Temp\cc8qeTl3.s 			page 124


 5512 1336 97F82F30 		ldrb	r3, [r7, #47]	@ zero_extendqisi2
 5513 133a 5B08     		lsrs	r3, r3, #1
 5514 133c DBB2     		uxtb	r3, r3
 5515 133e 1A46     		mov	r2, r3
 5516 1340 174B     		ldr	r3, .L725
 5517 1342 1344     		add	r3, r3, r2
 5518 1344 93F82330 		ldrb	r3, [r3, #35]	@ zero_extendqisi2
 5519 1348 03F00F03 		and	r3, r3, #15
 5520 134c 87F82E30 		strb	r3, [r7, #46]
 5521              	.L291:
1377:.\main.c      ****     				    }
1378:.\main.c      ****     				    rf_mod[x+4] = y+48;
 5522              		.loc 1 1378 0
 5523 1350 97F82F30 		ldrb	r3, [r7, #47]	@ zero_extendqisi2
 5524 1354 0433     		adds	r3, r3, #4
 5525 1356 97F82E20 		ldrb	r2, [r7, #46]
 5526 135a 3032     		adds	r2, r2, #48
 5527 135c D1B2     		uxtb	r1, r2
 5528 135e 114A     		ldr	r2, .L725+4
 5529 1360 D154     		strb	r1, [r2, r3]
1379:.\main.c      ****     				    if(y>9){
 5530              		.loc 1 1379 0
 5531 1362 97F82E30 		ldrb	r3, [r7, #46]	@ zero_extendqisi2
 5532 1366 092B     		cmp	r3, #9
 5533 1368 08D9     		bls	.L292
1380:.\main.c      ****     					    rf_mod[x+4] = y+55;
 5534              		.loc 1 1380 0
 5535 136a 97F82F30 		ldrb	r3, [r7, #47]	@ zero_extendqisi2
 5536 136e 0433     		adds	r3, r3, #4
 5537 1370 97F82E20 		ldrb	r2, [r7, #46]
 5538 1374 3732     		adds	r2, r2, #55
 5539 1376 D1B2     		uxtb	r1, r2
 5540 1378 0A4A     		ldr	r2, .L725+4
 5541 137a D154     		strb	r1, [r2, r3]
 5542              	.L292:
1373:.\main.c      ****     				    y=(rventa1.id[x/2]>>4)&0x0F;
 5543              		.loc 1 1373 0 discriminator 2
 5544 137c 97F82F30 		ldrb	r3, [r7, #47]	@ zero_extendqisi2
 5545 1380 0133     		adds	r3, r3, #1
 5546 1382 87F82F30 		strb	r3, [r7, #47]
 5547              	.L290:
1373:.\main.c      ****     				    y=(rventa1.id[x/2]>>4)&0x0F;
 5548              		.loc 1 1373 0 is_stmt 0 discriminator 1
 5549 1386 97F82F30 		ldrb	r3, [r7, #47]	@ zero_extendqisi2
 5550 138a 0F2B     		cmp	r3, #15
 5551 138c C0D9     		bls	.L293
 5552              	.L289:
1381:.\main.c      ****     				    }
1382:.\main.c      ****     			    }                
1383:.\main.c      ****                 }
1384:.\main.c      ****                 if(tipo_venta == 0){
 5553              		.loc 1 1384 0 is_stmt 1
 5554 138e 064B     		ldr	r3, .L725+8
 5555 1390 1B78     		ldrb	r3, [r3]	@ zero_extendqisi2
 5556 1392 002B     		cmp	r3, #0
 5557 1394 49D1     		bne	.L294
1385:.\main.c      ****                     for(x=0;x<=15;x++){						//Serial				
ARM GAS  C:\Users\RECEPC~1\AppData\Local\Temp\cc8qeTl3.s 			page 125


 5558              		.loc 1 1385 0
 5559 1396 0023     		movs	r3, #0
 5560 1398 87F82F30 		strb	r3, [r7, #47]
 5561 139c 41E0     		b	.L295
 5562              	.L726:
 5563 139e 00BF     		.align	2
 5564              	.L725:
 5565 13a0 00000000 		.word	rventa1
 5566 13a4 00000000 		.word	rf_mod
 5567 13a8 00000000 		.word	tipo_venta
 5568              	.L298:
1386:.\main.c      ****     				    y=(rventa1.id[x/2]>>4)&0x0F;
 5569              		.loc 1 1386 0
 5570 13ac 97F82F30 		ldrb	r3, [r7, #47]	@ zero_extendqisi2
 5571 13b0 5B08     		lsrs	r3, r3, #1
 5572 13b2 DBB2     		uxtb	r3, r3
 5573 13b4 1A46     		mov	r2, r3
 5574 13b6 B54B     		ldr	r3, .L727
 5575 13b8 1344     		add	r3, r3, r2
 5576 13ba 93F82330 		ldrb	r3, [r3, #35]	@ zero_extendqisi2
 5577 13be 1B09     		lsrs	r3, r3, #4
 5578 13c0 87F82E30 		strb	r3, [r7, #46]
1387:.\main.c      ****     				    if((x%2)==0){
 5579              		.loc 1 1387 0
 5580 13c4 97F82F30 		ldrb	r3, [r7, #47]
 5581 13c8 03F00103 		and	r3, r3, #1
 5582 13cc DBB2     		uxtb	r3, r3
 5583 13ce 002B     		cmp	r3, #0
 5584 13d0 0CD1     		bne	.L296
1388:.\main.c      ****     					    y=rventa1.id[x/2]&0x0F;
 5585              		.loc 1 1388 0
 5586 13d2 97F82F30 		ldrb	r3, [r7, #47]	@ zero_extendqisi2
 5587 13d6 5B08     		lsrs	r3, r3, #1
 5588 13d8 DBB2     		uxtb	r3, r3
 5589 13da 1A46     		mov	r2, r3
 5590 13dc AB4B     		ldr	r3, .L727
 5591 13de 1344     		add	r3, r3, r2
 5592 13e0 93F82330 		ldrb	r3, [r3, #35]	@ zero_extendqisi2
 5593 13e4 03F00F03 		and	r3, r3, #15
 5594 13e8 87F82E30 		strb	r3, [r7, #46]
 5595              	.L296:
1389:.\main.c      ****     				    }
1390:.\main.c      ****     				    rf_mod[x+4] = y+48;
 5596              		.loc 1 1390 0
 5597 13ec 97F82F30 		ldrb	r3, [r7, #47]	@ zero_extendqisi2
 5598 13f0 0433     		adds	r3, r3, #4
 5599 13f2 97F82E20 		ldrb	r2, [r7, #46]
 5600 13f6 3032     		adds	r2, r2, #48
 5601 13f8 D1B2     		uxtb	r1, r2
 5602 13fa A54A     		ldr	r2, .L727+4
 5603 13fc D154     		strb	r1, [r2, r3]
1391:.\main.c      ****     				    if(y>9){
 5604              		.loc 1 1391 0
 5605 13fe 97F82E30 		ldrb	r3, [r7, #46]	@ zero_extendqisi2
 5606 1402 092B     		cmp	r3, #9
 5607 1404 08D9     		bls	.L297
1392:.\main.c      ****     					    rf_mod[x+4] = y+55;
ARM GAS  C:\Users\RECEPC~1\AppData\Local\Temp\cc8qeTl3.s 			page 126


 5608              		.loc 1 1392 0
 5609 1406 97F82F30 		ldrb	r3, [r7, #47]	@ zero_extendqisi2
 5610 140a 0433     		adds	r3, r3, #4
 5611 140c 97F82E20 		ldrb	r2, [r7, #46]
 5612 1410 3732     		adds	r2, r2, #55
 5613 1412 D1B2     		uxtb	r1, r2
 5614 1414 9E4A     		ldr	r2, .L727+4
 5615 1416 D154     		strb	r1, [r2, r3]
 5616              	.L297:
1385:.\main.c      ****     				    y=(rventa1.id[x/2]>>4)&0x0F;
 5617              		.loc 1 1385 0 discriminator 2
 5618 1418 97F82F30 		ldrb	r3, [r7, #47]	@ zero_extendqisi2
 5619 141c 0133     		adds	r3, r3, #1
 5620 141e 87F82F30 		strb	r3, [r7, #47]
 5621              	.L295:
1385:.\main.c      ****     				    y=(rventa1.id[x/2]>>4)&0x0F;
 5622              		.loc 1 1385 0 is_stmt 0 discriminator 1
 5623 1422 97F82F30 		ldrb	r3, [r7, #47]	@ zero_extendqisi2
 5624 1426 0F2B     		cmp	r3, #15
 5625 1428 C0D9     		bls	.L298
 5626              	.L294:
1393:.\main.c      ****     				    }
1394:.\main.c      ****     			    }
1395:.\main.c      ****                 }
1396:.\main.c      ****     			rf_mod[20]=(lado1.grado[rventa1.manguera-1][0])+48;			//Id Producto
 5627              		.loc 1 1396 0 is_stmt 1
 5628 142a 984B     		ldr	r3, .L727
 5629 142c 9B7E     		ldrb	r3, [r3, #26]	@ zero_extendqisi2
 5630 142e 013B     		subs	r3, r3, #1
 5631 1430 984A     		ldr	r2, .L727+8
 5632 1432 1344     		add	r3, r3, r2
 5633 1434 93F85930 		ldrb	r3, [r3, #89]
 5634 1438 DBB2     		uxtb	r3, r3
 5635 143a 3033     		adds	r3, r3, #48
 5636 143c DAB2     		uxtb	r2, r3
 5637 143e 944B     		ldr	r3, .L727+4
 5638 1440 1A75     		strb	r2, [r3, #20]
1397:.\main.c      ****                 if(tipo_venta == 0){
 5639              		.loc 1 1397 0
 5640 1442 954B     		ldr	r3, .L727+12
 5641 1444 1B78     		ldrb	r3, [r3]	@ zero_extendqisi2
 5642 1446 002B     		cmp	r3, #0
 5643 1448 13D1     		bne	.L299
1398:.\main.c      ****                     rf_mod[21]= id_estacion[4];								    //Id vehiculo
 5644              		.loc 1 1398 0
 5645 144a 944B     		ldr	r3, .L727+16
 5646 144c 1B79     		ldrb	r3, [r3, #4]
 5647 144e DAB2     		uxtb	r2, r3
 5648 1450 8F4B     		ldr	r3, .L727+4
 5649 1452 5A75     		strb	r2, [r3, #21]
1399:.\main.c      ****     			    rf_mod[22]= id_estacion[3];
 5650              		.loc 1 1399 0
 5651 1454 914B     		ldr	r3, .L727+16
 5652 1456 DB78     		ldrb	r3, [r3, #3]
 5653 1458 DAB2     		uxtb	r2, r3
 5654 145a 8D4B     		ldr	r3, .L727+4
 5655 145c 9A75     		strb	r2, [r3, #22]
ARM GAS  C:\Users\RECEPC~1\AppData\Local\Temp\cc8qeTl3.s 			page 127


1400:.\main.c      ****     			    rf_mod[23]= id_estacion[2];
 5656              		.loc 1 1400 0
 5657 145e 8F4B     		ldr	r3, .L727+16
 5658 1460 9B78     		ldrb	r3, [r3, #2]
 5659 1462 DAB2     		uxtb	r2, r3
 5660 1464 8A4B     		ldr	r3, .L727+4
 5661 1466 DA75     		strb	r2, [r3, #23]
1401:.\main.c      ****     			    rf_mod[24]= id_estacion[1];  
 5662              		.loc 1 1401 0
 5663 1468 8C4B     		ldr	r3, .L727+16
 5664 146a 5B78     		ldrb	r3, [r3, #1]
 5665 146c DAB2     		uxtb	r2, r3
 5666 146e 884B     		ldr	r3, .L727+4
 5667 1470 1A76     		strb	r2, [r3, #24]
 5668              	.L299:
1402:.\main.c      ****                 }
1403:.\main.c      ****     			if(tipo_venta == 1){
 5669              		.loc 1 1403 0
 5670 1472 894B     		ldr	r3, .L727+12
 5671 1474 1B78     		ldrb	r3, [r3]	@ zero_extendqisi2
 5672 1476 012B     		cmp	r3, #1
 5673 1478 0BD1     		bne	.L300
1404:.\main.c      ****                     rf_mod[21]= '0';								    //Id Estación
 5674              		.loc 1 1404 0
 5675 147a 854B     		ldr	r3, .L727+4
 5676 147c 3022     		movs	r2, #48
 5677 147e 5A75     		strb	r2, [r3, #21]
1405:.\main.c      ****     			    rf_mod[22]= '0';
 5678              		.loc 1 1405 0
 5679 1480 834B     		ldr	r3, .L727+4
 5680 1482 3022     		movs	r2, #48
 5681 1484 9A75     		strb	r2, [r3, #22]
1406:.\main.c      ****     			    rf_mod[23]= '0';
 5682              		.loc 1 1406 0
 5683 1486 824B     		ldr	r3, .L727+4
 5684 1488 3022     		movs	r2, #48
 5685 148a DA75     		strb	r2, [r3, #23]
1407:.\main.c      ****     			    rf_mod[24]= '0';  
 5686              		.loc 1 1407 0
 5687 148c 804B     		ldr	r3, .L727+4
 5688 148e 3022     		movs	r2, #48
 5689 1490 1A76     		strb	r2, [r3, #24]
 5690              	.L300:
1408:.\main.c      ****                 } 
1409:.\main.c      ****                 
1410:.\main.c      ****                 if(ppux10==0){
 5691              		.loc 1 1410 0
 5692 1492 834B     		ldr	r3, .L727+20
 5693 1494 1B78     		ldrb	r3, [r3]
 5694 1496 DBB2     		uxtb	r3, r3
 5695 1498 002B     		cmp	r3, #0
 5696 149a 59D1     		bne	.L301
1411:.\main.c      ****         			rf_mod[25]=(lado1.ppu[rventa1.manguera-1][4]&0x0F)+0x30;		//PPU
 5697              		.loc 1 1411 0
 5698 149c 7B4B     		ldr	r3, .L727
 5699 149e 9B7E     		ldrb	r3, [r3, #26]	@ zero_extendqisi2
 5700 14a0 5A1E     		subs	r2, r3, #1
ARM GAS  C:\Users\RECEPC~1\AppData\Local\Temp\cc8qeTl3.s 			page 128


 5701 14a2 7C49     		ldr	r1, .L727+8
 5702 14a4 1346     		mov	r3, r2
 5703 14a6 9B00     		lsls	r3, r3, #2
 5704 14a8 1344     		add	r3, r3, r2
 5705 14aa 0B44     		add	r3, r3, r1
 5706 14ac 4C33     		adds	r3, r3, #76
 5707 14ae 9B78     		ldrb	r3, [r3, #2]
 5708 14b0 DBB2     		uxtb	r3, r3
 5709 14b2 03F00F03 		and	r3, r3, #15
 5710 14b6 DBB2     		uxtb	r3, r3
 5711 14b8 3033     		adds	r3, r3, #48
 5712 14ba DAB2     		uxtb	r2, r3
 5713 14bc 744B     		ldr	r3, .L727+4
 5714 14be 5A76     		strb	r2, [r3, #25]
1412:.\main.c      ****         			rf_mod[26]=(lado1.ppu[rventa1.manguera-1][3]&0x0F)+0x30;
 5715              		.loc 1 1412 0
 5716 14c0 724B     		ldr	r3, .L727
 5717 14c2 9B7E     		ldrb	r3, [r3, #26]	@ zero_extendqisi2
 5718 14c4 5A1E     		subs	r2, r3, #1
 5719 14c6 7349     		ldr	r1, .L727+8
 5720 14c8 1346     		mov	r3, r2
 5721 14ca 9B00     		lsls	r3, r3, #2
 5722 14cc 1344     		add	r3, r3, r2
 5723 14ce 0B44     		add	r3, r3, r1
 5724 14d0 4B33     		adds	r3, r3, #75
 5725 14d2 9B78     		ldrb	r3, [r3, #2]
 5726 14d4 DBB2     		uxtb	r3, r3
 5727 14d6 03F00F03 		and	r3, r3, #15
 5728 14da DBB2     		uxtb	r3, r3
 5729 14dc 3033     		adds	r3, r3, #48
 5730 14de DAB2     		uxtb	r2, r3
 5731 14e0 6B4B     		ldr	r3, .L727+4
 5732 14e2 9A76     		strb	r2, [r3, #26]
1413:.\main.c      ****         			rf_mod[27]=(lado1.ppu[rventa1.manguera-1][2]&0x0F)+0x30;
 5733              		.loc 1 1413 0
 5734 14e4 694B     		ldr	r3, .L727
 5735 14e6 9B7E     		ldrb	r3, [r3, #26]	@ zero_extendqisi2
 5736 14e8 5A1E     		subs	r2, r3, #1
 5737 14ea 6A49     		ldr	r1, .L727+8
 5738 14ec 1346     		mov	r3, r2
 5739 14ee 9B00     		lsls	r3, r3, #2
 5740 14f0 1344     		add	r3, r3, r2
 5741 14f2 0B44     		add	r3, r3, r1
 5742 14f4 4A33     		adds	r3, r3, #74
 5743 14f6 9B78     		ldrb	r3, [r3, #2]
 5744 14f8 DBB2     		uxtb	r3, r3
 5745 14fa 03F00F03 		and	r3, r3, #15
 5746 14fe DBB2     		uxtb	r3, r3
 5747 1500 3033     		adds	r3, r3, #48
 5748 1502 DAB2     		uxtb	r2, r3
 5749 1504 624B     		ldr	r3, .L727+4
 5750 1506 DA76     		strb	r2, [r3, #27]
1414:.\main.c      ****         			rf_mod[28]=(lado1.ppu[rventa1.manguera-1][1]&0x0F)+0x30;
 5751              		.loc 1 1414 0
 5752 1508 604B     		ldr	r3, .L727
 5753 150a 9B7E     		ldrb	r3, [r3, #26]	@ zero_extendqisi2
 5754 150c 5A1E     		subs	r2, r3, #1
ARM GAS  C:\Users\RECEPC~1\AppData\Local\Temp\cc8qeTl3.s 			page 129


 5755 150e 6149     		ldr	r1, .L727+8
 5756 1510 1346     		mov	r3, r2
 5757 1512 9B00     		lsls	r3, r3, #2
 5758 1514 1344     		add	r3, r3, r2
 5759 1516 0B44     		add	r3, r3, r1
 5760 1518 4933     		adds	r3, r3, #73
 5761 151a 9B78     		ldrb	r3, [r3, #2]
 5762 151c DBB2     		uxtb	r3, r3
 5763 151e 03F00F03 		and	r3, r3, #15
 5764 1522 DBB2     		uxtb	r3, r3
 5765 1524 3033     		adds	r3, r3, #48
 5766 1526 DAB2     		uxtb	r2, r3
 5767 1528 594B     		ldr	r3, .L727+4
 5768 152a 1A77     		strb	r2, [r3, #28]
1415:.\main.c      ****         			rf_mod[29]=(lado1.ppu[rventa1.manguera-1][0]&0x0F)+0x30;
 5769              		.loc 1 1415 0
 5770 152c 574B     		ldr	r3, .L727
 5771 152e 9B7E     		ldrb	r3, [r3, #26]	@ zero_extendqisi2
 5772 1530 5A1E     		subs	r2, r3, #1
 5773 1532 5849     		ldr	r1, .L727+8
 5774 1534 1346     		mov	r3, r2
 5775 1536 9B00     		lsls	r3, r3, #2
 5776 1538 1344     		add	r3, r3, r2
 5777 153a 0B44     		add	r3, r3, r1
 5778 153c 4833     		adds	r3, r3, #72
 5779 153e 9B78     		ldrb	r3, [r3, #2]
 5780 1540 DBB2     		uxtb	r3, r3
 5781 1542 03F00F03 		and	r3, r3, #15
 5782 1546 DBB2     		uxtb	r3, r3
 5783 1548 3033     		adds	r3, r3, #48
 5784 154a DAB2     		uxtb	r2, r3
 5785 154c 504B     		ldr	r3, .L727+4
 5786 154e 5A77     		strb	r2, [r3, #29]
 5787              	.L301:
1416:.\main.c      ****                 }
1417:.\main.c      ****                 if(ppux10==1){
 5788              		.loc 1 1417 0
 5789 1550 534B     		ldr	r3, .L727+20
 5790 1552 1B78     		ldrb	r3, [r3]
 5791 1554 DBB2     		uxtb	r3, r3
 5792 1556 012B     		cmp	r3, #1
 5793 1558 4AD1     		bne	.L302
1418:.\main.c      ****         			rf_mod[25]=(lado1.ppu[rventa1.manguera-1][3]&0x0F)+0x30;		//PPUx10
 5794              		.loc 1 1418 0
 5795 155a 4C4B     		ldr	r3, .L727
 5796 155c 9B7E     		ldrb	r3, [r3, #26]	@ zero_extendqisi2
 5797 155e 5A1E     		subs	r2, r3, #1
 5798 1560 4C49     		ldr	r1, .L727+8
 5799 1562 1346     		mov	r3, r2
 5800 1564 9B00     		lsls	r3, r3, #2
 5801 1566 1344     		add	r3, r3, r2
 5802 1568 0B44     		add	r3, r3, r1
 5803 156a 4B33     		adds	r3, r3, #75
 5804 156c 9B78     		ldrb	r3, [r3, #2]
 5805 156e DBB2     		uxtb	r3, r3
 5806 1570 03F00F03 		and	r3, r3, #15
 5807 1574 DBB2     		uxtb	r3, r3
ARM GAS  C:\Users\RECEPC~1\AppData\Local\Temp\cc8qeTl3.s 			page 130


 5808 1576 3033     		adds	r3, r3, #48
 5809 1578 DAB2     		uxtb	r2, r3
 5810 157a 454B     		ldr	r3, .L727+4
 5811 157c 5A76     		strb	r2, [r3, #25]
1419:.\main.c      ****         			rf_mod[26]=(lado1.ppu[rventa1.manguera-1][2]&0x0F)+0x30;
 5812              		.loc 1 1419 0
 5813 157e 434B     		ldr	r3, .L727
 5814 1580 9B7E     		ldrb	r3, [r3, #26]	@ zero_extendqisi2
 5815 1582 5A1E     		subs	r2, r3, #1
 5816 1584 4349     		ldr	r1, .L727+8
 5817 1586 1346     		mov	r3, r2
 5818 1588 9B00     		lsls	r3, r3, #2
 5819 158a 1344     		add	r3, r3, r2
 5820 158c 0B44     		add	r3, r3, r1
 5821 158e 4A33     		adds	r3, r3, #74
 5822 1590 9B78     		ldrb	r3, [r3, #2]
 5823 1592 DBB2     		uxtb	r3, r3
 5824 1594 03F00F03 		and	r3, r3, #15
 5825 1598 DBB2     		uxtb	r3, r3
 5826 159a 3033     		adds	r3, r3, #48
 5827 159c DAB2     		uxtb	r2, r3
 5828 159e 3C4B     		ldr	r3, .L727+4
 5829 15a0 9A76     		strb	r2, [r3, #26]
1420:.\main.c      ****         			rf_mod[27]=(lado1.ppu[rventa1.manguera-1][1]&0x0F)+0x30;
 5830              		.loc 1 1420 0
 5831 15a2 3A4B     		ldr	r3, .L727
 5832 15a4 9B7E     		ldrb	r3, [r3, #26]	@ zero_extendqisi2
 5833 15a6 5A1E     		subs	r2, r3, #1
 5834 15a8 3A49     		ldr	r1, .L727+8
 5835 15aa 1346     		mov	r3, r2
 5836 15ac 9B00     		lsls	r3, r3, #2
 5837 15ae 1344     		add	r3, r3, r2
 5838 15b0 0B44     		add	r3, r3, r1
 5839 15b2 4933     		adds	r3, r3, #73
 5840 15b4 9B78     		ldrb	r3, [r3, #2]
 5841 15b6 DBB2     		uxtb	r3, r3
 5842 15b8 03F00F03 		and	r3, r3, #15
 5843 15bc DBB2     		uxtb	r3, r3
 5844 15be 3033     		adds	r3, r3, #48
 5845 15c0 DAB2     		uxtb	r2, r3
 5846 15c2 334B     		ldr	r3, .L727+4
 5847 15c4 DA76     		strb	r2, [r3, #27]
1421:.\main.c      ****         			rf_mod[28]=(lado1.ppu[rventa1.manguera-1][0]&0x0F)+0x30;
 5848              		.loc 1 1421 0
 5849 15c6 314B     		ldr	r3, .L727
 5850 15c8 9B7E     		ldrb	r3, [r3, #26]	@ zero_extendqisi2
 5851 15ca 5A1E     		subs	r2, r3, #1
 5852 15cc 3149     		ldr	r1, .L727+8
 5853 15ce 1346     		mov	r3, r2
 5854 15d0 9B00     		lsls	r3, r3, #2
 5855 15d2 1344     		add	r3, r3, r2
 5856 15d4 0B44     		add	r3, r3, r1
 5857 15d6 4833     		adds	r3, r3, #72
 5858 15d8 9B78     		ldrb	r3, [r3, #2]
 5859 15da DBB2     		uxtb	r3, r3
 5860 15dc 03F00F03 		and	r3, r3, #15
 5861 15e0 DBB2     		uxtb	r3, r3
ARM GAS  C:\Users\RECEPC~1\AppData\Local\Temp\cc8qeTl3.s 			page 131


 5862 15e2 3033     		adds	r3, r3, #48
 5863 15e4 DAB2     		uxtb	r2, r3
 5864 15e6 2A4B     		ldr	r3, .L727+4
 5865 15e8 1A77     		strb	r2, [r3, #28]
1422:.\main.c      ****         			rf_mod[29]=0x30;   
 5866              		.loc 1 1422 0
 5867 15ea 294B     		ldr	r3, .L727+4
 5868 15ec 3022     		movs	r2, #48
 5869 15ee 5A77     		strb	r2, [r3, #29]
 5870              	.L302:
1423:.\main.c      ****                 }
1424:.\main.c      ****     			rf_mod[30]=(rventa1.preset[0]+48);								//Tipo de Preset
 5871              		.loc 1 1424 0
 5872 15f0 264B     		ldr	r3, .L727
 5873 15f2 DB7E     		ldrb	r3, [r3, #27]	@ zero_extendqisi2
 5874 15f4 3033     		adds	r3, r3, #48
 5875 15f6 DAB2     		uxtb	r2, r3
 5876 15f8 254B     		ldr	r3, .L727+4
 5877 15fa 9A77     		strb	r2, [r3, #30]
1425:.\main.c      ****     			rf_mod[31]=rventa1.preset[7];									//Preset
 5878              		.loc 1 1425 0
 5879 15fc 234B     		ldr	r3, .L727
 5880 15fe 93F82220 		ldrb	r2, [r3, #34]	@ zero_extendqisi2
 5881 1602 234B     		ldr	r3, .L727+4
 5882 1604 DA77     		strb	r2, [r3, #31]
1426:.\main.c      ****     			if(rventa1.preset[7]<10){				
 5883              		.loc 1 1426 0
 5884 1606 214B     		ldr	r3, .L727
 5885 1608 93F82230 		ldrb	r3, [r3, #34]	@ zero_extendqisi2
 5886 160c 092B     		cmp	r3, #9
 5887 160e 06D8     		bhi	.L303
1427:.\main.c      ****     				rf_mod[31]=rventa1.preset[7]+0x30;							
 5888              		.loc 1 1427 0
 5889 1610 1E4B     		ldr	r3, .L727
 5890 1612 93F82230 		ldrb	r3, [r3, #34]	@ zero_extendqisi2
 5891 1616 3033     		adds	r3, r3, #48
 5892 1618 DAB2     		uxtb	r2, r3
 5893 161a 1D4B     		ldr	r3, .L727+4
 5894 161c DA77     		strb	r2, [r3, #31]
 5895              	.L303:
1428:.\main.c      ****     			}
1429:.\main.c      ****     			rf_mod[32]=rventa1.preset[6];
 5896              		.loc 1 1429 0
 5897 161e 1B4B     		ldr	r3, .L727
 5898 1620 93F82120 		ldrb	r2, [r3, #33]	@ zero_extendqisi2
 5899 1624 1A4B     		ldr	r3, .L727+4
 5900 1626 83F82020 		strb	r2, [r3, #32]
1430:.\main.c      ****     			if(rventa1.preset[6]<10){				
 5901              		.loc 1 1430 0
 5902 162a 184B     		ldr	r3, .L727
 5903 162c 93F82130 		ldrb	r3, [r3, #33]	@ zero_extendqisi2
 5904 1630 092B     		cmp	r3, #9
 5905 1632 07D8     		bhi	.L304
1431:.\main.c      ****     				rf_mod[32]=rventa1.preset[6]+0x30;
 5906              		.loc 1 1431 0
 5907 1634 154B     		ldr	r3, .L727
 5908 1636 93F82130 		ldrb	r3, [r3, #33]	@ zero_extendqisi2
ARM GAS  C:\Users\RECEPC~1\AppData\Local\Temp\cc8qeTl3.s 			page 132


 5909 163a 3033     		adds	r3, r3, #48
 5910 163c DAB2     		uxtb	r2, r3
 5911 163e 144B     		ldr	r3, .L727+4
 5912 1640 83F82020 		strb	r2, [r3, #32]
 5913              	.L304:
1432:.\main.c      ****     			}
1433:.\main.c      ****     			rf_mod[33]=rventa1.preset[5];
 5914              		.loc 1 1433 0
 5915 1644 114B     		ldr	r3, .L727
 5916 1646 93F82020 		ldrb	r2, [r3, #32]	@ zero_extendqisi2
 5917 164a 114B     		ldr	r3, .L727+4
 5918 164c 83F82120 		strb	r2, [r3, #33]
1434:.\main.c      ****     			if(rventa1.preset[5]<10){				
 5919              		.loc 1 1434 0
 5920 1650 0E4B     		ldr	r3, .L727
 5921 1652 93F82030 		ldrb	r3, [r3, #32]	@ zero_extendqisi2
 5922 1656 092B     		cmp	r3, #9
 5923 1658 07D8     		bhi	.L305
1435:.\main.c      ****     				rf_mod[33]=rventa1.preset[5]+0x30;
 5924              		.loc 1 1435 0
 5925 165a 0C4B     		ldr	r3, .L727
 5926 165c 93F82030 		ldrb	r3, [r3, #32]	@ zero_extendqisi2
 5927 1660 3033     		adds	r3, r3, #48
 5928 1662 DAB2     		uxtb	r2, r3
 5929 1664 0A4B     		ldr	r3, .L727+4
 5930 1666 83F82120 		strb	r2, [r3, #33]
 5931              	.L305:
1436:.\main.c      ****     			}
1437:.\main.c      ****     			rf_mod[34]=rventa1.preset[4];
 5932              		.loc 1 1437 0
 5933 166a 084B     		ldr	r3, .L727
 5934 166c DA7F     		ldrb	r2, [r3, #31]	@ zero_extendqisi2
 5935 166e 084B     		ldr	r3, .L727+4
 5936 1670 83F82220 		strb	r2, [r3, #34]
1438:.\main.c      ****     			if(rventa1.preset[4]<10){				
 5937              		.loc 1 1438 0
 5938 1674 054B     		ldr	r3, .L727
 5939 1676 DB7F     		ldrb	r3, [r3, #31]	@ zero_extendqisi2
 5940 1678 092B     		cmp	r3, #9
 5941 167a 13D8     		bhi	.L306
1439:.\main.c      ****     				rf_mod[34]=rventa1.preset[4]+0x30;
 5942              		.loc 1 1439 0
 5943 167c 034B     		ldr	r3, .L727
 5944 167e DB7F     		ldrb	r3, [r3, #31]	@ zero_extendqisi2
 5945 1680 3033     		adds	r3, r3, #48
 5946 1682 DAB2     		uxtb	r2, r3
 5947 1684 024B     		ldr	r3, .L727+4
 5948 1686 83F82220 		strb	r2, [r3, #34]
 5949 168a 0BE0     		b	.L728
 5950              	.L729:
 5951              		.align	2
 5952              	.L727:
 5953 168c 00000000 		.word	rventa1
 5954 1690 00000000 		.word	rf_mod
 5955 1694 00000000 		.word	lado1
 5956 1698 00000000 		.word	tipo_venta
 5957 169c 00000000 		.word	id_estacion
ARM GAS  C:\Users\RECEPC~1\AppData\Local\Temp\cc8qeTl3.s 			page 133


 5958 16a0 00000000 		.word	ppux10
 5959              	.L728:
 5960              	.L306:
1440:.\main.c      ****     			}
1441:.\main.c      ****     			rf_mod[35]=rventa1.preset[3];
 5961              		.loc 1 1441 0
 5962 16a4 514B     		ldr	r3, .L730
 5963 16a6 9A7F     		ldrb	r2, [r3, #30]	@ zero_extendqisi2
 5964 16a8 514B     		ldr	r3, .L730+4
 5965 16aa 83F82320 		strb	r2, [r3, #35]
1442:.\main.c      ****     			if(rventa1.preset[3]<10){				
 5966              		.loc 1 1442 0
 5967 16ae 4F4B     		ldr	r3, .L730
 5968 16b0 9B7F     		ldrb	r3, [r3, #30]	@ zero_extendqisi2
 5969 16b2 092B     		cmp	r3, #9
 5970 16b4 06D8     		bhi	.L307
1443:.\main.c      ****     				rf_mod[35]=rventa1.preset[3]+0x30;
 5971              		.loc 1 1443 0
 5972 16b6 4D4B     		ldr	r3, .L730
 5973 16b8 9B7F     		ldrb	r3, [r3, #30]	@ zero_extendqisi2
 5974 16ba 3033     		adds	r3, r3, #48
 5975 16bc DAB2     		uxtb	r2, r3
 5976 16be 4C4B     		ldr	r3, .L730+4
 5977 16c0 83F82320 		strb	r2, [r3, #35]
 5978              	.L307:
1444:.\main.c      ****     			}
1445:.\main.c      ****     			rf_mod[36]=rventa1.preset[2];
 5979              		.loc 1 1445 0
 5980 16c4 494B     		ldr	r3, .L730
 5981 16c6 5A7F     		ldrb	r2, [r3, #29]	@ zero_extendqisi2
 5982 16c8 494B     		ldr	r3, .L730+4
 5983 16ca 83F82420 		strb	r2, [r3, #36]
1446:.\main.c      ****     			if(rventa1.preset[2]<10){				
 5984              		.loc 1 1446 0
 5985 16ce 474B     		ldr	r3, .L730
 5986 16d0 5B7F     		ldrb	r3, [r3, #29]	@ zero_extendqisi2
 5987 16d2 092B     		cmp	r3, #9
 5988 16d4 06D8     		bhi	.L308
1447:.\main.c      ****     				rf_mod[36]=rventa1.preset[2]+0x30;
 5989              		.loc 1 1447 0
 5990 16d6 454B     		ldr	r3, .L730
 5991 16d8 5B7F     		ldrb	r3, [r3, #29]	@ zero_extendqisi2
 5992 16da 3033     		adds	r3, r3, #48
 5993 16dc DAB2     		uxtb	r2, r3
 5994 16de 444B     		ldr	r3, .L730+4
 5995 16e0 83F82420 		strb	r2, [r3, #36]
 5996              	.L308:
1448:.\main.c      ****     			}
1449:.\main.c      ****     			rf_mod[37]=rventa1.preset[1];
 5997              		.loc 1 1449 0
 5998 16e4 414B     		ldr	r3, .L730
 5999 16e6 1A7F     		ldrb	r2, [r3, #28]	@ zero_extendqisi2
 6000 16e8 414B     		ldr	r3, .L730+4
 6001 16ea 83F82520 		strb	r2, [r3, #37]
1450:.\main.c      ****     			if(rventa1.preset[1]<10){				
 6002              		.loc 1 1450 0
 6003 16ee 3F4B     		ldr	r3, .L730
ARM GAS  C:\Users\RECEPC~1\AppData\Local\Temp\cc8qeTl3.s 			page 134


 6004 16f0 1B7F     		ldrb	r3, [r3, #28]	@ zero_extendqisi2
 6005 16f2 092B     		cmp	r3, #9
 6006 16f4 06D8     		bhi	.L309
1451:.\main.c      ****     				rf_mod[37]=rventa1.preset[1]+0x30;
 6007              		.loc 1 1451 0
 6008 16f6 3D4B     		ldr	r3, .L730
 6009 16f8 1B7F     		ldrb	r3, [r3, #28]	@ zero_extendqisi2
 6010 16fa 3033     		adds	r3, r3, #48
 6011 16fc DAB2     		uxtb	r2, r3
 6012 16fe 3C4B     		ldr	r3, .L730+4
 6013 1700 83F82520 		strb	r2, [r3, #37]
 6014              	.L309:
1452:.\main.c      ****     			}
1453:.\main.c      ****     			for(x=0;x<=6;x++){
 6015              		.loc 1 1453 0
 6016 1704 0023     		movs	r3, #0
 6017 1706 87F82F30 		strb	r3, [r7, #47]
 6018 170a 12E0     		b	.L310
 6019              	.L311:
1454:.\main.c      ****     				rf_mod[38+x]=rventa1.km[x+1] + 48;
 6020              		.loc 1 1454 0 discriminator 3
 6021 170c 97F82F30 		ldrb	r3, [r7, #47]	@ zero_extendqisi2
 6022 1710 2633     		adds	r3, r3, #38
 6023 1712 97F82F20 		ldrb	r2, [r7, #47]	@ zero_extendqisi2
 6024 1716 0132     		adds	r2, r2, #1
 6025 1718 3449     		ldr	r1, .L730
 6026 171a 0A44     		add	r2, r2, r1
 6027 171c 92F84320 		ldrb	r2, [r2, #67]	@ zero_extendqisi2
 6028 1720 3032     		adds	r2, r2, #48
 6029 1722 D1B2     		uxtb	r1, r2
 6030 1724 324A     		ldr	r2, .L730+4
 6031 1726 D154     		strb	r1, [r2, r3]
1453:.\main.c      ****     				rf_mod[38+x]=rventa1.km[x+1] + 48;
 6032              		.loc 1 1453 0 discriminator 3
 6033 1728 97F82F30 		ldrb	r3, [r7, #47]	@ zero_extendqisi2
 6034 172c 0133     		adds	r3, r3, #1
 6035 172e 87F82F30 		strb	r3, [r7, #47]
 6036              	.L310:
1453:.\main.c      ****     				rf_mod[38+x]=rventa1.km[x+1] + 48;
 6037              		.loc 1 1453 0 is_stmt 0 discriminator 1
 6038 1732 97F82F30 		ldrb	r3, [r7, #47]	@ zero_extendqisi2
 6039 1736 062B     		cmp	r3, #6
 6040 1738 E8D9     		bls	.L311
1455:.\main.c      ****     			}
1456:.\main.c      ****                 rf_mod[45]=0x31;
 6041              		.loc 1 1456 0 is_stmt 1
 6042 173a 2D4B     		ldr	r3, .L730+4
 6043 173c 3122     		movs	r2, #49
 6044 173e 83F82D20 		strb	r2, [r3, #45]
 6045              	.L288:
1457:.\main.c      ****             }
1458:.\main.c      ****             
1459:.\main.c      ****             if(seleccion_pos == 2){
 6046              		.loc 1 1459 0
 6047 1742 2C4B     		ldr	r3, .L730+8
 6048 1744 1B78     		ldrb	r3, [r3]
 6049 1746 DBB2     		uxtb	r3, r3
ARM GAS  C:\Users\RECEPC~1\AppData\Local\Temp\cc8qeTl3.s 			page 135


 6050 1748 022B     		cmp	r3, #2
 6051 174a 40F02882 		bne	.L312
1460:.\main.c      ****                 if (tipo_venta == 1){
 6052              		.loc 1 1460 0
 6053 174e 2A4B     		ldr	r3, .L730+12
 6054 1750 1B78     		ldrb	r3, [r3]	@ zero_extendqisi2
 6055 1752 012B     		cmp	r3, #1
 6056 1754 42D1     		bne	.L313
1461:.\main.c      ****     			    for(x=0;x<=15;x++){						//Serial				
 6057              		.loc 1 1461 0
 6058 1756 0023     		movs	r3, #0
 6059 1758 87F82F30 		strb	r3, [r7, #47]
 6060 175c 3AE0     		b	.L314
 6061              	.L317:
1462:.\main.c      ****     				    y=(rventa2.id[x/2]>>4)&0x0F;
 6062              		.loc 1 1462 0
 6063 175e 97F82F30 		ldrb	r3, [r7, #47]	@ zero_extendqisi2
 6064 1762 5B08     		lsrs	r3, r3, #1
 6065 1764 DBB2     		uxtb	r3, r3
 6066 1766 1A46     		mov	r2, r3
 6067 1768 244B     		ldr	r3, .L730+16
 6068 176a 1344     		add	r3, r3, r2
 6069 176c 93F82330 		ldrb	r3, [r3, #35]	@ zero_extendqisi2
 6070 1770 1B09     		lsrs	r3, r3, #4
 6071 1772 87F82E30 		strb	r3, [r7, #46]
1463:.\main.c      ****     				    if((x%2)==0){
 6072              		.loc 1 1463 0
 6073 1776 97F82F30 		ldrb	r3, [r7, #47]
 6074 177a 03F00103 		and	r3, r3, #1
 6075 177e DBB2     		uxtb	r3, r3
 6076 1780 002B     		cmp	r3, #0
 6077 1782 0CD1     		bne	.L315
1464:.\main.c      ****     					    y=rventa2.id[x/2]&0x0F;
 6078              		.loc 1 1464 0
 6079 1784 97F82F30 		ldrb	r3, [r7, #47]	@ zero_extendqisi2
 6080 1788 5B08     		lsrs	r3, r3, #1
 6081 178a DBB2     		uxtb	r3, r3
 6082 178c 1A46     		mov	r2, r3
 6083 178e 1B4B     		ldr	r3, .L730+16
 6084 1790 1344     		add	r3, r3, r2
 6085 1792 93F82330 		ldrb	r3, [r3, #35]	@ zero_extendqisi2
 6086 1796 03F00F03 		and	r3, r3, #15
 6087 179a 87F82E30 		strb	r3, [r7, #46]
 6088              	.L315:
1465:.\main.c      ****     				    }
1466:.\main.c      ****     				    rf_mod[x+4] = y+48;
 6089              		.loc 1 1466 0
 6090 179e 97F82F30 		ldrb	r3, [r7, #47]	@ zero_extendqisi2
 6091 17a2 0433     		adds	r3, r3, #4
 6092 17a4 97F82E20 		ldrb	r2, [r7, #46]
 6093 17a8 3032     		adds	r2, r2, #48
 6094 17aa D1B2     		uxtb	r1, r2
 6095 17ac 104A     		ldr	r2, .L730+4
 6096 17ae D154     		strb	r1, [r2, r3]
1467:.\main.c      ****     				    if(y>9){
 6097              		.loc 1 1467 0
 6098 17b0 97F82E30 		ldrb	r3, [r7, #46]	@ zero_extendqisi2
ARM GAS  C:\Users\RECEPC~1\AppData\Local\Temp\cc8qeTl3.s 			page 136


 6099 17b4 092B     		cmp	r3, #9
 6100 17b6 08D9     		bls	.L316
1468:.\main.c      ****     					    rf_mod[x+4] = y+55;
 6101              		.loc 1 1468 0
 6102 17b8 97F82F30 		ldrb	r3, [r7, #47]	@ zero_extendqisi2
 6103 17bc 0433     		adds	r3, r3, #4
 6104 17be 97F82E20 		ldrb	r2, [r7, #46]
 6105 17c2 3732     		adds	r2, r2, #55
 6106 17c4 D1B2     		uxtb	r1, r2
 6107 17c6 0A4A     		ldr	r2, .L730+4
 6108 17c8 D154     		strb	r1, [r2, r3]
 6109              	.L316:
1461:.\main.c      ****     				    y=(rventa2.id[x/2]>>4)&0x0F;
 6110              		.loc 1 1461 0 discriminator 2
 6111 17ca 97F82F30 		ldrb	r3, [r7, #47]	@ zero_extendqisi2
 6112 17ce 0133     		adds	r3, r3, #1
 6113 17d0 87F82F30 		strb	r3, [r7, #47]
 6114              	.L314:
1461:.\main.c      ****     				    y=(rventa2.id[x/2]>>4)&0x0F;
 6115              		.loc 1 1461 0 is_stmt 0 discriminator 1
 6116 17d4 97F82F30 		ldrb	r3, [r7, #47]	@ zero_extendqisi2
 6117 17d8 0F2B     		cmp	r3, #15
 6118 17da C0D9     		bls	.L317
 6119              	.L313:
1469:.\main.c      ****     				    }
1470:.\main.c      ****     			    }                
1471:.\main.c      ****                 }
1472:.\main.c      ****                 if(tipo_venta == 0){
 6120              		.loc 1 1472 0 is_stmt 1
 6121 17dc 064B     		ldr	r3, .L730+12
 6122 17de 1B78     		ldrb	r3, [r3]	@ zero_extendqisi2
 6123 17e0 002B     		cmp	r3, #0
 6124 17e2 4CD1     		bne	.L318
1473:.\main.c      ****                     for(x=0;x<=15;x++){						//Serial				
 6125              		.loc 1 1473 0
 6126 17e4 0023     		movs	r3, #0
 6127 17e6 87F82F30 		strb	r3, [r7, #47]
 6128 17ea 44E0     		b	.L319
 6129              	.L731:
 6130              		.align	2
 6131              	.L730:
 6132 17ec 00000000 		.word	rventa1
 6133 17f0 00000000 		.word	rf_mod
 6134 17f4 00000000 		.word	seleccion_pos
 6135 17f8 00000000 		.word	tipo_venta
 6136 17fc 00000000 		.word	rventa2
 6137              	.L322:
1474:.\main.c      ****     				    y=(rventa2.id[x/2]>>4)&0x0F;
 6138              		.loc 1 1474 0
 6139 1800 97F82F30 		ldrb	r3, [r7, #47]	@ zero_extendqisi2
 6140 1804 5B08     		lsrs	r3, r3, #1
 6141 1806 DBB2     		uxtb	r3, r3
 6142 1808 1A46     		mov	r2, r3
 6143 180a B54B     		ldr	r3, .L732
 6144 180c 1344     		add	r3, r3, r2
 6145 180e 93F82330 		ldrb	r3, [r3, #35]	@ zero_extendqisi2
 6146 1812 1B09     		lsrs	r3, r3, #4
ARM GAS  C:\Users\RECEPC~1\AppData\Local\Temp\cc8qeTl3.s 			page 137


 6147 1814 87F82E30 		strb	r3, [r7, #46]
1475:.\main.c      ****     				    if((x%2)==0){
 6148              		.loc 1 1475 0
 6149 1818 97F82F30 		ldrb	r3, [r7, #47]
 6150 181c 03F00103 		and	r3, r3, #1
 6151 1820 DBB2     		uxtb	r3, r3
 6152 1822 002B     		cmp	r3, #0
 6153 1824 0CD1     		bne	.L320
1476:.\main.c      ****     					    y=rventa2.id[x/2]&0x0F;
 6154              		.loc 1 1476 0
 6155 1826 97F82F30 		ldrb	r3, [r7, #47]	@ zero_extendqisi2
 6156 182a 5B08     		lsrs	r3, r3, #1
 6157 182c DBB2     		uxtb	r3, r3
 6158 182e 1A46     		mov	r2, r3
 6159 1830 AB4B     		ldr	r3, .L732
 6160 1832 1344     		add	r3, r3, r2
 6161 1834 93F82330 		ldrb	r3, [r3, #35]	@ zero_extendqisi2
 6162 1838 03F00F03 		and	r3, r3, #15
 6163 183c 87F82E30 		strb	r3, [r7, #46]
 6164              	.L320:
1477:.\main.c      ****     				    }
1478:.\main.c      ****     				    rf_mod[x+4] = y+48;
 6165              		.loc 1 1478 0
 6166 1840 97F82F30 		ldrb	r3, [r7, #47]	@ zero_extendqisi2
 6167 1844 0433     		adds	r3, r3, #4
 6168 1846 97F82E20 		ldrb	r2, [r7, #46]
 6169 184a 3032     		adds	r2, r2, #48
 6170 184c D1B2     		uxtb	r1, r2
 6171 184e A54A     		ldr	r2, .L732+4
 6172 1850 D154     		strb	r1, [r2, r3]
1479:.\main.c      ****     				    if(y>9){
 6173              		.loc 1 1479 0
 6174 1852 97F82E30 		ldrb	r3, [r7, #46]	@ zero_extendqisi2
 6175 1856 092B     		cmp	r3, #9
 6176 1858 08D9     		bls	.L321
1480:.\main.c      ****     					    rf_mod[x+4] = y+55;
 6177              		.loc 1 1480 0
 6178 185a 97F82F30 		ldrb	r3, [r7, #47]	@ zero_extendqisi2
 6179 185e 0433     		adds	r3, r3, #4
 6180 1860 97F82E20 		ldrb	r2, [r7, #46]
 6181 1864 3732     		adds	r2, r2, #55
 6182 1866 D1B2     		uxtb	r1, r2
 6183 1868 9E4A     		ldr	r2, .L732+4
 6184 186a D154     		strb	r1, [r2, r3]
 6185              	.L321:
1473:.\main.c      ****     				    y=(rventa2.id[x/2]>>4)&0x0F;
 6186              		.loc 1 1473 0 discriminator 2
 6187 186c 97F82F30 		ldrb	r3, [r7, #47]	@ zero_extendqisi2
 6188 1870 0133     		adds	r3, r3, #1
 6189 1872 87F82F30 		strb	r3, [r7, #47]
 6190              	.L319:
1473:.\main.c      ****     				    y=(rventa2.id[x/2]>>4)&0x0F;
 6191              		.loc 1 1473 0 is_stmt 0 discriminator 1
 6192 1876 97F82F30 		ldrb	r3, [r7, #47]	@ zero_extendqisi2
 6193 187a 0F2B     		cmp	r3, #15
 6194 187c C0D9     		bls	.L322
 6195              	.L318:
ARM GAS  C:\Users\RECEPC~1\AppData\Local\Temp\cc8qeTl3.s 			page 138


1481:.\main.c      ****     				    }
1482:.\main.c      ****     			    }
1483:.\main.c      ****                 }
1484:.\main.c      ****     			rf_mod[20]=(lado2.grado[rventa2.manguera-1][0])+48;			//Id Producto
 6196              		.loc 1 1484 0 is_stmt 1
 6197 187e 984B     		ldr	r3, .L732
 6198 1880 9B7E     		ldrb	r3, [r3, #26]	@ zero_extendqisi2
 6199 1882 013B     		subs	r3, r3, #1
 6200 1884 984A     		ldr	r2, .L732+8
 6201 1886 1344     		add	r3, r3, r2
 6202 1888 93F85930 		ldrb	r3, [r3, #89]
 6203 188c DBB2     		uxtb	r3, r3
 6204 188e 3033     		adds	r3, r3, #48
 6205 1890 DAB2     		uxtb	r2, r3
 6206 1892 944B     		ldr	r3, .L732+4
 6207 1894 1A75     		strb	r2, [r3, #20]
1485:.\main.c      ****                 if(tipo_venta == 0){
 6208              		.loc 1 1485 0
 6209 1896 954B     		ldr	r3, .L732+12
 6210 1898 1B78     		ldrb	r3, [r3]	@ zero_extendqisi2
 6211 189a 002B     		cmp	r3, #0
 6212 189c 13D1     		bne	.L323
1486:.\main.c      ****                     rf_mod[21]= id_estacion[4];								    //Id vehiculo
 6213              		.loc 1 1486 0
 6214 189e 944B     		ldr	r3, .L732+16
 6215 18a0 1B79     		ldrb	r3, [r3, #4]
 6216 18a2 DAB2     		uxtb	r2, r3
 6217 18a4 8F4B     		ldr	r3, .L732+4
 6218 18a6 5A75     		strb	r2, [r3, #21]
1487:.\main.c      ****     			    rf_mod[22]= id_estacion[3];
 6219              		.loc 1 1487 0
 6220 18a8 914B     		ldr	r3, .L732+16
 6221 18aa DB78     		ldrb	r3, [r3, #3]
 6222 18ac DAB2     		uxtb	r2, r3
 6223 18ae 8D4B     		ldr	r3, .L732+4
 6224 18b0 9A75     		strb	r2, [r3, #22]
1488:.\main.c      ****     			    rf_mod[23]= id_estacion[2];
 6225              		.loc 1 1488 0
 6226 18b2 8F4B     		ldr	r3, .L732+16
 6227 18b4 9B78     		ldrb	r3, [r3, #2]
 6228 18b6 DAB2     		uxtb	r2, r3
 6229 18b8 8A4B     		ldr	r3, .L732+4
 6230 18ba DA75     		strb	r2, [r3, #23]
1489:.\main.c      ****     			    rf_mod[24]= id_estacion[1];  
 6231              		.loc 1 1489 0
 6232 18bc 8C4B     		ldr	r3, .L732+16
 6233 18be 5B78     		ldrb	r3, [r3, #1]
 6234 18c0 DAB2     		uxtb	r2, r3
 6235 18c2 884B     		ldr	r3, .L732+4
 6236 18c4 1A76     		strb	r2, [r3, #24]
 6237              	.L323:
1490:.\main.c      ****                 }
1491:.\main.c      ****     			if(tipo_venta == 1){
 6238              		.loc 1 1491 0
 6239 18c6 894B     		ldr	r3, .L732+12
 6240 18c8 1B78     		ldrb	r3, [r3]	@ zero_extendqisi2
 6241 18ca 012B     		cmp	r3, #1
ARM GAS  C:\Users\RECEPC~1\AppData\Local\Temp\cc8qeTl3.s 			page 139


 6242 18cc 0BD1     		bne	.L324
1492:.\main.c      ****                     rf_mod[21]= '0';								    //Id Estación
 6243              		.loc 1 1492 0
 6244 18ce 854B     		ldr	r3, .L732+4
 6245 18d0 3022     		movs	r2, #48
 6246 18d2 5A75     		strb	r2, [r3, #21]
1493:.\main.c      ****     			    rf_mod[22]= '0';
 6247              		.loc 1 1493 0
 6248 18d4 834B     		ldr	r3, .L732+4
 6249 18d6 3022     		movs	r2, #48
 6250 18d8 9A75     		strb	r2, [r3, #22]
1494:.\main.c      ****     			    rf_mod[23]= '0';
 6251              		.loc 1 1494 0
 6252 18da 824B     		ldr	r3, .L732+4
 6253 18dc 3022     		movs	r2, #48
 6254 18de DA75     		strb	r2, [r3, #23]
1495:.\main.c      ****     			    rf_mod[24]= '0';  
 6255              		.loc 1 1495 0
 6256 18e0 804B     		ldr	r3, .L732+4
 6257 18e2 3022     		movs	r2, #48
 6258 18e4 1A76     		strb	r2, [r3, #24]
 6259              	.L324:
1496:.\main.c      ****                 } 
1497:.\main.c      ****                 
1498:.\main.c      ****                 if(ppux10==0){
 6260              		.loc 1 1498 0
 6261 18e6 834B     		ldr	r3, .L732+20
 6262 18e8 1B78     		ldrb	r3, [r3]
 6263 18ea DBB2     		uxtb	r3, r3
 6264 18ec 002B     		cmp	r3, #0
 6265 18ee 59D1     		bne	.L325
1499:.\main.c      ****         			rf_mod[25]=(lado2.ppu[rventa2.manguera-1][4]&0x0F)+0x30;		//PPU
 6266              		.loc 1 1499 0
 6267 18f0 7B4B     		ldr	r3, .L732
 6268 18f2 9B7E     		ldrb	r3, [r3, #26]	@ zero_extendqisi2
 6269 18f4 5A1E     		subs	r2, r3, #1
 6270 18f6 7C49     		ldr	r1, .L732+8
 6271 18f8 1346     		mov	r3, r2
 6272 18fa 9B00     		lsls	r3, r3, #2
 6273 18fc 1344     		add	r3, r3, r2
 6274 18fe 0B44     		add	r3, r3, r1
 6275 1900 4C33     		adds	r3, r3, #76
 6276 1902 9B78     		ldrb	r3, [r3, #2]
 6277 1904 DBB2     		uxtb	r3, r3
 6278 1906 03F00F03 		and	r3, r3, #15
 6279 190a DBB2     		uxtb	r3, r3
 6280 190c 3033     		adds	r3, r3, #48
 6281 190e DAB2     		uxtb	r2, r3
 6282 1910 744B     		ldr	r3, .L732+4
 6283 1912 5A76     		strb	r2, [r3, #25]
1500:.\main.c      ****         			rf_mod[26]=(lado2.ppu[rventa2.manguera-1][3]&0x0F)+0x30;
 6284              		.loc 1 1500 0
 6285 1914 724B     		ldr	r3, .L732
 6286 1916 9B7E     		ldrb	r3, [r3, #26]	@ zero_extendqisi2
 6287 1918 5A1E     		subs	r2, r3, #1
 6288 191a 7349     		ldr	r1, .L732+8
 6289 191c 1346     		mov	r3, r2
ARM GAS  C:\Users\RECEPC~1\AppData\Local\Temp\cc8qeTl3.s 			page 140


 6290 191e 9B00     		lsls	r3, r3, #2
 6291 1920 1344     		add	r3, r3, r2
 6292 1922 0B44     		add	r3, r3, r1
 6293 1924 4B33     		adds	r3, r3, #75
 6294 1926 9B78     		ldrb	r3, [r3, #2]
 6295 1928 DBB2     		uxtb	r3, r3
 6296 192a 03F00F03 		and	r3, r3, #15
 6297 192e DBB2     		uxtb	r3, r3
 6298 1930 3033     		adds	r3, r3, #48
 6299 1932 DAB2     		uxtb	r2, r3
 6300 1934 6B4B     		ldr	r3, .L732+4
 6301 1936 9A76     		strb	r2, [r3, #26]
1501:.\main.c      ****         			rf_mod[27]=(lado2.ppu[rventa2.manguera-1][2]&0x0F)+0x30;
 6302              		.loc 1 1501 0
 6303 1938 694B     		ldr	r3, .L732
 6304 193a 9B7E     		ldrb	r3, [r3, #26]	@ zero_extendqisi2
 6305 193c 5A1E     		subs	r2, r3, #1
 6306 193e 6A49     		ldr	r1, .L732+8
 6307 1940 1346     		mov	r3, r2
 6308 1942 9B00     		lsls	r3, r3, #2
 6309 1944 1344     		add	r3, r3, r2
 6310 1946 0B44     		add	r3, r3, r1
 6311 1948 4A33     		adds	r3, r3, #74
 6312 194a 9B78     		ldrb	r3, [r3, #2]
 6313 194c DBB2     		uxtb	r3, r3
 6314 194e 03F00F03 		and	r3, r3, #15
 6315 1952 DBB2     		uxtb	r3, r3
 6316 1954 3033     		adds	r3, r3, #48
 6317 1956 DAB2     		uxtb	r2, r3
 6318 1958 624B     		ldr	r3, .L732+4
 6319 195a DA76     		strb	r2, [r3, #27]
1502:.\main.c      ****         			rf_mod[28]=(lado2.ppu[rventa2.manguera-1][1]&0x0F)+0x30;
 6320              		.loc 1 1502 0
 6321 195c 604B     		ldr	r3, .L732
 6322 195e 9B7E     		ldrb	r3, [r3, #26]	@ zero_extendqisi2
 6323 1960 5A1E     		subs	r2, r3, #1
 6324 1962 6149     		ldr	r1, .L732+8
 6325 1964 1346     		mov	r3, r2
 6326 1966 9B00     		lsls	r3, r3, #2
 6327 1968 1344     		add	r3, r3, r2
 6328 196a 0B44     		add	r3, r3, r1
 6329 196c 4933     		adds	r3, r3, #73
 6330 196e 9B78     		ldrb	r3, [r3, #2]
 6331 1970 DBB2     		uxtb	r3, r3
 6332 1972 03F00F03 		and	r3, r3, #15
 6333 1976 DBB2     		uxtb	r3, r3
 6334 1978 3033     		adds	r3, r3, #48
 6335 197a DAB2     		uxtb	r2, r3
 6336 197c 594B     		ldr	r3, .L732+4
 6337 197e 1A77     		strb	r2, [r3, #28]
1503:.\main.c      ****         			rf_mod[29]=(lado2.ppu[rventa2.manguera-1][0]&0x0F)+0x30;
 6338              		.loc 1 1503 0
 6339 1980 574B     		ldr	r3, .L732
 6340 1982 9B7E     		ldrb	r3, [r3, #26]	@ zero_extendqisi2
 6341 1984 5A1E     		subs	r2, r3, #1
 6342 1986 5849     		ldr	r1, .L732+8
 6343 1988 1346     		mov	r3, r2
ARM GAS  C:\Users\RECEPC~1\AppData\Local\Temp\cc8qeTl3.s 			page 141


 6344 198a 9B00     		lsls	r3, r3, #2
 6345 198c 1344     		add	r3, r3, r2
 6346 198e 0B44     		add	r3, r3, r1
 6347 1990 4833     		adds	r3, r3, #72
 6348 1992 9B78     		ldrb	r3, [r3, #2]
 6349 1994 DBB2     		uxtb	r3, r3
 6350 1996 03F00F03 		and	r3, r3, #15
 6351 199a DBB2     		uxtb	r3, r3
 6352 199c 3033     		adds	r3, r3, #48
 6353 199e DAB2     		uxtb	r2, r3
 6354 19a0 504B     		ldr	r3, .L732+4
 6355 19a2 5A77     		strb	r2, [r3, #29]
 6356              	.L325:
1504:.\main.c      ****                 }
1505:.\main.c      ****                 if(ppux10==1){
 6357              		.loc 1 1505 0
 6358 19a4 534B     		ldr	r3, .L732+20
 6359 19a6 1B78     		ldrb	r3, [r3]
 6360 19a8 DBB2     		uxtb	r3, r3
 6361 19aa 012B     		cmp	r3, #1
 6362 19ac 4AD1     		bne	.L326
1506:.\main.c      ****         			rf_mod[25]=(lado1.ppu[rventa2.manguera-1][3]&0x0F)+0x30;		//PPUx10
 6363              		.loc 1 1506 0
 6364 19ae 4C4B     		ldr	r3, .L732
 6365 19b0 9B7E     		ldrb	r3, [r3, #26]	@ zero_extendqisi2
 6366 19b2 5A1E     		subs	r2, r3, #1
 6367 19b4 5049     		ldr	r1, .L732+24
 6368 19b6 1346     		mov	r3, r2
 6369 19b8 9B00     		lsls	r3, r3, #2
 6370 19ba 1344     		add	r3, r3, r2
 6371 19bc 0B44     		add	r3, r3, r1
 6372 19be 4B33     		adds	r3, r3, #75
 6373 19c0 9B78     		ldrb	r3, [r3, #2]
 6374 19c2 DBB2     		uxtb	r3, r3
 6375 19c4 03F00F03 		and	r3, r3, #15
 6376 19c8 DBB2     		uxtb	r3, r3
 6377 19ca 3033     		adds	r3, r3, #48
 6378 19cc DAB2     		uxtb	r2, r3
 6379 19ce 454B     		ldr	r3, .L732+4
 6380 19d0 5A76     		strb	r2, [r3, #25]
1507:.\main.c      ****         			rf_mod[26]=(lado1.ppu[rventa2.manguera-1][2]&0x0F)+0x30;
 6381              		.loc 1 1507 0
 6382 19d2 434B     		ldr	r3, .L732
 6383 19d4 9B7E     		ldrb	r3, [r3, #26]	@ zero_extendqisi2
 6384 19d6 5A1E     		subs	r2, r3, #1
 6385 19d8 4749     		ldr	r1, .L732+24
 6386 19da 1346     		mov	r3, r2
 6387 19dc 9B00     		lsls	r3, r3, #2
 6388 19de 1344     		add	r3, r3, r2
 6389 19e0 0B44     		add	r3, r3, r1
 6390 19e2 4A33     		adds	r3, r3, #74
 6391 19e4 9B78     		ldrb	r3, [r3, #2]
 6392 19e6 DBB2     		uxtb	r3, r3
 6393 19e8 03F00F03 		and	r3, r3, #15
 6394 19ec DBB2     		uxtb	r3, r3
 6395 19ee 3033     		adds	r3, r3, #48
 6396 19f0 DAB2     		uxtb	r2, r3
ARM GAS  C:\Users\RECEPC~1\AppData\Local\Temp\cc8qeTl3.s 			page 142


 6397 19f2 3C4B     		ldr	r3, .L732+4
 6398 19f4 9A76     		strb	r2, [r3, #26]
1508:.\main.c      ****         			rf_mod[27]=(lado1.ppu[rventa2.manguera-1][1]&0x0F)+0x30;
 6399              		.loc 1 1508 0
 6400 19f6 3A4B     		ldr	r3, .L732
 6401 19f8 9B7E     		ldrb	r3, [r3, #26]	@ zero_extendqisi2
 6402 19fa 5A1E     		subs	r2, r3, #1
 6403 19fc 3E49     		ldr	r1, .L732+24
 6404 19fe 1346     		mov	r3, r2
 6405 1a00 9B00     		lsls	r3, r3, #2
 6406 1a02 1344     		add	r3, r3, r2
 6407 1a04 0B44     		add	r3, r3, r1
 6408 1a06 4933     		adds	r3, r3, #73
 6409 1a08 9B78     		ldrb	r3, [r3, #2]
 6410 1a0a DBB2     		uxtb	r3, r3
 6411 1a0c 03F00F03 		and	r3, r3, #15
 6412 1a10 DBB2     		uxtb	r3, r3
 6413 1a12 3033     		adds	r3, r3, #48
 6414 1a14 DAB2     		uxtb	r2, r3
 6415 1a16 334B     		ldr	r3, .L732+4
 6416 1a18 DA76     		strb	r2, [r3, #27]
1509:.\main.c      ****         			rf_mod[28]=(lado1.ppu[rventa2.manguera-1][0]&0x0F)+0x30;
 6417              		.loc 1 1509 0
 6418 1a1a 314B     		ldr	r3, .L732
 6419 1a1c 9B7E     		ldrb	r3, [r3, #26]	@ zero_extendqisi2
 6420 1a1e 5A1E     		subs	r2, r3, #1
 6421 1a20 3549     		ldr	r1, .L732+24
 6422 1a22 1346     		mov	r3, r2
 6423 1a24 9B00     		lsls	r3, r3, #2
 6424 1a26 1344     		add	r3, r3, r2
 6425 1a28 0B44     		add	r3, r3, r1
 6426 1a2a 4833     		adds	r3, r3, #72
 6427 1a2c 9B78     		ldrb	r3, [r3, #2]
 6428 1a2e DBB2     		uxtb	r3, r3
 6429 1a30 03F00F03 		and	r3, r3, #15
 6430 1a34 DBB2     		uxtb	r3, r3
 6431 1a36 3033     		adds	r3, r3, #48
 6432 1a38 DAB2     		uxtb	r2, r3
 6433 1a3a 2A4B     		ldr	r3, .L732+4
 6434 1a3c 1A77     		strb	r2, [r3, #28]
1510:.\main.c      ****         			rf_mod[29]=0x30;   
 6435              		.loc 1 1510 0
 6436 1a3e 294B     		ldr	r3, .L732+4
 6437 1a40 3022     		movs	r2, #48
 6438 1a42 5A77     		strb	r2, [r3, #29]
 6439              	.L326:
1511:.\main.c      ****                 }
1512:.\main.c      ****     			rf_mod[30]=(rventa2.preset[0]+48);								//Tipo de Preset
 6440              		.loc 1 1512 0
 6441 1a44 264B     		ldr	r3, .L732
 6442 1a46 DB7E     		ldrb	r3, [r3, #27]	@ zero_extendqisi2
 6443 1a48 3033     		adds	r3, r3, #48
 6444 1a4a DAB2     		uxtb	r2, r3
 6445 1a4c 254B     		ldr	r3, .L732+4
 6446 1a4e 9A77     		strb	r2, [r3, #30]
1513:.\main.c      ****     			rf_mod[31]=rventa2.preset[7];									//Preset
 6447              		.loc 1 1513 0
ARM GAS  C:\Users\RECEPC~1\AppData\Local\Temp\cc8qeTl3.s 			page 143


 6448 1a50 234B     		ldr	r3, .L732
 6449 1a52 93F82220 		ldrb	r2, [r3, #34]	@ zero_extendqisi2
 6450 1a56 234B     		ldr	r3, .L732+4
 6451 1a58 DA77     		strb	r2, [r3, #31]
1514:.\main.c      ****     			if(rventa1.preset[7]<10){				
 6452              		.loc 1 1514 0
 6453 1a5a 284B     		ldr	r3, .L732+28
 6454 1a5c 93F82230 		ldrb	r3, [r3, #34]	@ zero_extendqisi2
 6455 1a60 092B     		cmp	r3, #9
 6456 1a62 06D8     		bhi	.L327
1515:.\main.c      ****     				rf_mod[31]=rventa2.preset[7]+0x30;							
 6457              		.loc 1 1515 0
 6458 1a64 1E4B     		ldr	r3, .L732
 6459 1a66 93F82230 		ldrb	r3, [r3, #34]	@ zero_extendqisi2
 6460 1a6a 3033     		adds	r3, r3, #48
 6461 1a6c DAB2     		uxtb	r2, r3
 6462 1a6e 1D4B     		ldr	r3, .L732+4
 6463 1a70 DA77     		strb	r2, [r3, #31]
 6464              	.L327:
1516:.\main.c      ****     			}
1517:.\main.c      ****     			rf_mod[32]=rventa2.preset[6];
 6465              		.loc 1 1517 0
 6466 1a72 1B4B     		ldr	r3, .L732
 6467 1a74 93F82120 		ldrb	r2, [r3, #33]	@ zero_extendqisi2
 6468 1a78 1A4B     		ldr	r3, .L732+4
 6469 1a7a 83F82020 		strb	r2, [r3, #32]
1518:.\main.c      ****     			if(rventa1.preset[6]<10){				
 6470              		.loc 1 1518 0
 6471 1a7e 1F4B     		ldr	r3, .L732+28
 6472 1a80 93F82130 		ldrb	r3, [r3, #33]	@ zero_extendqisi2
 6473 1a84 092B     		cmp	r3, #9
 6474 1a86 07D8     		bhi	.L328
1519:.\main.c      ****     				rf_mod[32]=rventa2.preset[6]+0x30;
 6475              		.loc 1 1519 0
 6476 1a88 154B     		ldr	r3, .L732
 6477 1a8a 93F82130 		ldrb	r3, [r3, #33]	@ zero_extendqisi2
 6478 1a8e 3033     		adds	r3, r3, #48
 6479 1a90 DAB2     		uxtb	r2, r3
 6480 1a92 144B     		ldr	r3, .L732+4
 6481 1a94 83F82020 		strb	r2, [r3, #32]
 6482              	.L328:
1520:.\main.c      ****     			}
1521:.\main.c      ****     			rf_mod[33]=rventa2.preset[5];
 6483              		.loc 1 1521 0
 6484 1a98 114B     		ldr	r3, .L732
 6485 1a9a 93F82020 		ldrb	r2, [r3, #32]	@ zero_extendqisi2
 6486 1a9e 114B     		ldr	r3, .L732+4
 6487 1aa0 83F82120 		strb	r2, [r3, #33]
1522:.\main.c      ****     			if(rventa2.preset[5]<10){				
 6488              		.loc 1 1522 0
 6489 1aa4 0E4B     		ldr	r3, .L732
 6490 1aa6 93F82030 		ldrb	r3, [r3, #32]	@ zero_extendqisi2
 6491 1aaa 092B     		cmp	r3, #9
 6492 1aac 07D8     		bhi	.L329
1523:.\main.c      ****     				rf_mod[33]=rventa2.preset[5]+0x30;
 6493              		.loc 1 1523 0
 6494 1aae 0C4B     		ldr	r3, .L732
ARM GAS  C:\Users\RECEPC~1\AppData\Local\Temp\cc8qeTl3.s 			page 144


 6495 1ab0 93F82030 		ldrb	r3, [r3, #32]	@ zero_extendqisi2
 6496 1ab4 3033     		adds	r3, r3, #48
 6497 1ab6 DAB2     		uxtb	r2, r3
 6498 1ab8 0A4B     		ldr	r3, .L732+4
 6499 1aba 83F82120 		strb	r2, [r3, #33]
 6500              	.L329:
1524:.\main.c      ****     			}
1525:.\main.c      ****     			rf_mod[34]=rventa2.preset[4];
 6501              		.loc 1 1525 0
 6502 1abe 084B     		ldr	r3, .L732
 6503 1ac0 DA7F     		ldrb	r2, [r3, #31]	@ zero_extendqisi2
 6504 1ac2 084B     		ldr	r3, .L732+4
 6505 1ac4 83F82220 		strb	r2, [r3, #34]
1526:.\main.c      ****     			if(rventa2.preset[4]<10){				
 6506              		.loc 1 1526 0
 6507 1ac8 054B     		ldr	r3, .L732
 6508 1aca DB7F     		ldrb	r3, [r3, #31]	@ zero_extendqisi2
 6509 1acc 092B     		cmp	r3, #9
 6510 1ace 17D8     		bhi	.L330
1527:.\main.c      ****     				rf_mod[34]=rventa2.preset[4]+0x30;
 6511              		.loc 1 1527 0
 6512 1ad0 034B     		ldr	r3, .L732
 6513 1ad2 DB7F     		ldrb	r3, [r3, #31]	@ zero_extendqisi2
 6514 1ad4 3033     		adds	r3, r3, #48
 6515 1ad6 DAB2     		uxtb	r2, r3
 6516 1ad8 024B     		ldr	r3, .L732+4
 6517 1ada 83F82220 		strb	r2, [r3, #34]
 6518 1ade 0FE0     		b	.L733
 6519              	.L734:
 6520              		.align	2
 6521              	.L732:
 6522 1ae0 00000000 		.word	rventa2
 6523 1ae4 00000000 		.word	rf_mod
 6524 1ae8 00000000 		.word	lado2
 6525 1aec 00000000 		.word	tipo_venta
 6526 1af0 00000000 		.word	id_estacion
 6527 1af4 00000000 		.word	ppux10
 6528 1af8 00000000 		.word	lado1
 6529 1afc 00000000 		.word	rventa1
 6530              	.L733:
 6531              	.L330:
1528:.\main.c      ****     			}
1529:.\main.c      ****     			rf_mod[35]=rventa2.preset[3];
 6532              		.loc 1 1529 0
 6533 1b00 9F4B     		ldr	r3, .L735
 6534 1b02 9A7F     		ldrb	r2, [r3, #30]	@ zero_extendqisi2
 6535 1b04 9F4B     		ldr	r3, .L735+4
 6536 1b06 83F82320 		strb	r2, [r3, #35]
1530:.\main.c      ****     			if(rventa2.preset[3]<10){				
 6537              		.loc 1 1530 0
 6538 1b0a 9D4B     		ldr	r3, .L735
 6539 1b0c 9B7F     		ldrb	r3, [r3, #30]	@ zero_extendqisi2
 6540 1b0e 092B     		cmp	r3, #9
 6541 1b10 06D8     		bhi	.L331
1531:.\main.c      ****     				rf_mod[35]=rventa2.preset[3]+0x30;
 6542              		.loc 1 1531 0
 6543 1b12 9B4B     		ldr	r3, .L735
ARM GAS  C:\Users\RECEPC~1\AppData\Local\Temp\cc8qeTl3.s 			page 145


 6544 1b14 9B7F     		ldrb	r3, [r3, #30]	@ zero_extendqisi2
 6545 1b16 3033     		adds	r3, r3, #48
 6546 1b18 DAB2     		uxtb	r2, r3
 6547 1b1a 9A4B     		ldr	r3, .L735+4
 6548 1b1c 83F82320 		strb	r2, [r3, #35]
 6549              	.L331:
1532:.\main.c      ****     			}
1533:.\main.c      ****     			rf_mod[36]=rventa2.preset[2];
 6550              		.loc 1 1533 0
 6551 1b20 974B     		ldr	r3, .L735
 6552 1b22 5A7F     		ldrb	r2, [r3, #29]	@ zero_extendqisi2
 6553 1b24 974B     		ldr	r3, .L735+4
 6554 1b26 83F82420 		strb	r2, [r3, #36]
1534:.\main.c      ****     			if(rventa2.preset[2]<10){				
 6555              		.loc 1 1534 0
 6556 1b2a 954B     		ldr	r3, .L735
 6557 1b2c 5B7F     		ldrb	r3, [r3, #29]	@ zero_extendqisi2
 6558 1b2e 092B     		cmp	r3, #9
 6559 1b30 06D8     		bhi	.L332
1535:.\main.c      ****     				rf_mod[36]=rventa2.preset[2]+0x30;
 6560              		.loc 1 1535 0
 6561 1b32 934B     		ldr	r3, .L735
 6562 1b34 5B7F     		ldrb	r3, [r3, #29]	@ zero_extendqisi2
 6563 1b36 3033     		adds	r3, r3, #48
 6564 1b38 DAB2     		uxtb	r2, r3
 6565 1b3a 924B     		ldr	r3, .L735+4
 6566 1b3c 83F82420 		strb	r2, [r3, #36]
 6567              	.L332:
1536:.\main.c      ****     			}
1537:.\main.c      ****     			rf_mod[37]=rventa2.preset[1];
 6568              		.loc 1 1537 0
 6569 1b40 8F4B     		ldr	r3, .L735
 6570 1b42 1A7F     		ldrb	r2, [r3, #28]	@ zero_extendqisi2
 6571 1b44 8F4B     		ldr	r3, .L735+4
 6572 1b46 83F82520 		strb	r2, [r3, #37]
1538:.\main.c      ****     			if(rventa2.preset[1]<10){				
 6573              		.loc 1 1538 0
 6574 1b4a 8D4B     		ldr	r3, .L735
 6575 1b4c 1B7F     		ldrb	r3, [r3, #28]	@ zero_extendqisi2
 6576 1b4e 092B     		cmp	r3, #9
 6577 1b50 06D8     		bhi	.L333
1539:.\main.c      ****     				rf_mod[37]=rventa2.preset[1]+0x30;
 6578              		.loc 1 1539 0
 6579 1b52 8B4B     		ldr	r3, .L735
 6580 1b54 1B7F     		ldrb	r3, [r3, #28]	@ zero_extendqisi2
 6581 1b56 3033     		adds	r3, r3, #48
 6582 1b58 DAB2     		uxtb	r2, r3
 6583 1b5a 8A4B     		ldr	r3, .L735+4
 6584 1b5c 83F82520 		strb	r2, [r3, #37]
 6585              	.L333:
1540:.\main.c      ****     			}
1541:.\main.c      ****     			for(x=0;x<=6;x++){
 6586              		.loc 1 1541 0
 6587 1b60 0023     		movs	r3, #0
 6588 1b62 87F82F30 		strb	r3, [r7, #47]
 6589 1b66 12E0     		b	.L334
 6590              	.L335:
ARM GAS  C:\Users\RECEPC~1\AppData\Local\Temp\cc8qeTl3.s 			page 146


1542:.\main.c      ****     				rf_mod[38+x]=rventa2.km[x+1] + 48;
 6591              		.loc 1 1542 0 discriminator 3
 6592 1b68 97F82F30 		ldrb	r3, [r7, #47]	@ zero_extendqisi2
 6593 1b6c 2633     		adds	r3, r3, #38
 6594 1b6e 97F82F20 		ldrb	r2, [r7, #47]	@ zero_extendqisi2
 6595 1b72 0132     		adds	r2, r2, #1
 6596 1b74 8249     		ldr	r1, .L735
 6597 1b76 0A44     		add	r2, r2, r1
 6598 1b78 92F84320 		ldrb	r2, [r2, #67]	@ zero_extendqisi2
 6599 1b7c 3032     		adds	r2, r2, #48
 6600 1b7e D1B2     		uxtb	r1, r2
 6601 1b80 804A     		ldr	r2, .L735+4
 6602 1b82 D154     		strb	r1, [r2, r3]
1541:.\main.c      ****     				rf_mod[38+x]=rventa2.km[x+1] + 48;
 6603              		.loc 1 1541 0 discriminator 3
 6604 1b84 97F82F30 		ldrb	r3, [r7, #47]	@ zero_extendqisi2
 6605 1b88 0133     		adds	r3, r3, #1
 6606 1b8a 87F82F30 		strb	r3, [r7, #47]
 6607              	.L334:
1541:.\main.c      ****     				rf_mod[38+x]=rventa2.km[x+1] + 48;
 6608              		.loc 1 1541 0 is_stmt 0 discriminator 1
 6609 1b8e 97F82F30 		ldrb	r3, [r7, #47]	@ zero_extendqisi2
 6610 1b92 062B     		cmp	r3, #6
 6611 1b94 E8D9     		bls	.L335
1543:.\main.c      ****     			}
1544:.\main.c      ****                 rf_mod[45]=0x32;    
 6612              		.loc 1 1544 0 is_stmt 1
 6613 1b96 7B4B     		ldr	r3, .L735+4
 6614 1b98 3222     		movs	r2, #50
 6615 1b9a 83F82D20 		strb	r2, [r3, #45]
 6616              	.L312:
1545:.\main.c      ****             }			
1546:.\main.c      **** 			rf_mod[46]='*';
 6617              		.loc 1 1546 0
 6618 1b9e 794B     		ldr	r3, .L735+4
 6619 1ba0 2A22     		movs	r2, #42
 6620 1ba2 83F82E20 		strb	r2, [r3, #46]
1547:.\main.c      **** 			PC_ClearRxBuffer();				
 6621              		.loc 1 1547 0
 6622 1ba6 FFF7FEFF 		bl	PC_ClearRxBuffer
1548:.\main.c      **** 		    for(x=0;x<=46;x++){
 6623              		.loc 1 1548 0
 6624 1baa 0023     		movs	r3, #0
 6625 1bac 87F82F30 		strb	r3, [r7, #47]
 6626 1bb0 0BE0     		b	.L336
 6627              	.L337:
1549:.\main.c      **** 			   PC_PutChar(rf_mod[x]);
 6628              		.loc 1 1549 0 discriminator 3
 6629 1bb2 97F82F30 		ldrb	r3, [r7, #47]	@ zero_extendqisi2
 6630 1bb6 734A     		ldr	r2, .L735+4
 6631 1bb8 D35C     		ldrb	r3, [r2, r3]	@ zero_extendqisi2
 6632 1bba 1846     		mov	r0, r3
 6633 1bbc FFF7FEFF 		bl	PC_PutChar
1548:.\main.c      **** 		    for(x=0;x<=46;x++){
 6634              		.loc 1 1548 0 discriminator 3
 6635 1bc0 97F82F30 		ldrb	r3, [r7, #47]	@ zero_extendqisi2
 6636 1bc4 0133     		adds	r3, r3, #1
ARM GAS  C:\Users\RECEPC~1\AppData\Local\Temp\cc8qeTl3.s 			page 147


 6637 1bc6 87F82F30 		strb	r3, [r7, #47]
 6638              	.L336:
1548:.\main.c      **** 		    for(x=0;x<=46;x++){
 6639              		.loc 1 1548 0 is_stmt 0 discriminator 1
 6640 1bca 97F82F30 		ldrb	r3, [r7, #47]	@ zero_extendqisi2
 6641 1bce 2E2B     		cmp	r3, #46
 6642 1bd0 EFD9     		bls	.L337
1550:.\main.c      **** 		    }	            
1551:.\main.c      **** 			CyDelay(350);			
 6643              		.loc 1 1551 0 is_stmt 1
 6644 1bd2 4FF4AF70 		mov	r0, #350
 6645 1bd6 FFF7FEFF 		bl	CyDelay
1552:.\main.c      ****             PC_ClearTxBuffer();
 6646              		.loc 1 1552 0
 6647 1bda FFF7FEFF 		bl	PC_ClearTxBuffer
1553:.\main.c      **** 		break;
 6648              		.loc 1 1553 0
 6649 1bde 03F045BA 		b	.L131
 6650              	.L143:
1554:.\main.c      ****             
1555:.\main.c      ****         
1556:.\main.c      ****             
1557:.\main.c      ****         case 11:    
1558:.\main.c      ****             if(seleccion_pos == 1){
 6651              		.loc 1 1558 0
 6652 1be2 694B     		ldr	r3, .L735+8
 6653 1be4 1B78     		ldrb	r3, [r3]
 6654 1be6 DBB2     		uxtb	r3, r3
 6655 1be8 012B     		cmp	r3, #1
 6656 1bea 40F09480 		bne	.L338
1559:.\main.c      ****                 if(touch_present(1)==1){
 6657              		.loc 1 1559 0
 6658 1bee 0120     		movs	r0, #1
 6659 1bf0 FFF7FEFF 		bl	touch_present
 6660 1bf4 0346     		mov	r3, r0
 6661 1bf6 012B     		cmp	r3, #1
 6662 1bf8 40F08D80 		bne	.L338
1560:.\main.c      ****                     if(touch_write(1,0x33)){
 6663              		.loc 1 1560 0
 6664 1bfc 0120     		movs	r0, #1
 6665 1bfe 3321     		movs	r1, #51
 6666 1c00 FFF7FEFF 		bl	touch_write
 6667 1c04 0346     		mov	r3, r0
 6668 1c06 002B     		cmp	r3, #0
 6669 1c08 00F08580 		beq	.L338
1561:.\main.c      ****     	                for(x=0;x<=7;x++){
 6670              		.loc 1 1561 0
 6671 1c0c 0023     		movs	r3, #0
 6672 1c0e 87F82F30 		strb	r3, [r7, #47]
 6673 1c12 0FE0     		b	.L339
 6674              	.L340:
1562:.\main.c      ****     	                    rventa1.id[x]=touch_read_byte(1);
 6675              		.loc 1 1562 0 discriminator 3
 6676 1c14 97F82F40 		ldrb	r4, [r7, #47]	@ zero_extendqisi2
 6677 1c18 0120     		movs	r0, #1
 6678 1c1a FFF7FEFF 		bl	touch_read_byte
 6679 1c1e 0346     		mov	r3, r0
ARM GAS  C:\Users\RECEPC~1\AppData\Local\Temp\cc8qeTl3.s 			page 148


 6680 1c20 1A46     		mov	r2, r3
 6681 1c22 5A4B     		ldr	r3, .L735+12
 6682 1c24 2344     		add	r3, r3, r4
 6683 1c26 83F82320 		strb	r2, [r3, #35]
1561:.\main.c      ****     	                for(x=0;x<=7;x++){
 6684              		.loc 1 1561 0 discriminator 3
 6685 1c2a 97F82F30 		ldrb	r3, [r7, #47]	@ zero_extendqisi2
 6686 1c2e 0133     		adds	r3, r3, #1
 6687 1c30 87F82F30 		strb	r3, [r7, #47]
 6688              	.L339:
1561:.\main.c      ****     	                for(x=0;x<=7;x++){
 6689              		.loc 1 1561 0 is_stmt 0 discriminator 1
 6690 1c34 97F82F30 		ldrb	r3, [r7, #47]	@ zero_extendqisi2
 6691 1c38 072B     		cmp	r3, #7
 6692 1c3a EBD9     		bls	.L340
1563:.\main.c      ****     	                }
1564:.\main.c      ****     				    crc_total=0;
 6693              		.loc 1 1564 0 is_stmt 1
 6694 1c3c 544B     		ldr	r3, .L735+16
 6695 1c3e 0022     		movs	r2, #0
 6696 1c40 1A70     		strb	r2, [r3]
1565:.\main.c      ****     				    for(x=0;x<7;x++){
 6697              		.loc 1 1565 0
 6698 1c42 0023     		movs	r3, #0
 6699 1c44 87F82F30 		strb	r3, [r7, #47]
 6700 1c48 14E0     		b	.L341
 6701              	.L342:
1566:.\main.c      ****     				 	    crc_total=crc_check(crc_total,rventa1.id[x]);
 6702              		.loc 1 1566 0 discriminator 3
 6703 1c4a 514B     		ldr	r3, .L735+16
 6704 1c4c 1978     		ldrb	r1, [r3]	@ zero_extendqisi2
 6705 1c4e 97F82F30 		ldrb	r3, [r7, #47]	@ zero_extendqisi2
 6706 1c52 4E4A     		ldr	r2, .L735+12
 6707 1c54 1344     		add	r3, r3, r2
 6708 1c56 93F82330 		ldrb	r3, [r3, #35]	@ zero_extendqisi2
 6709 1c5a 0846     		mov	r0, r1
 6710 1c5c 1946     		mov	r1, r3
 6711 1c5e FFF7FEFF 		bl	crc_check
 6712 1c62 0346     		mov	r3, r0
 6713 1c64 1A46     		mov	r2, r3
 6714 1c66 4A4B     		ldr	r3, .L735+16
 6715 1c68 1A70     		strb	r2, [r3]
1565:.\main.c      ****     				    for(x=0;x<7;x++){
 6716              		.loc 1 1565 0 discriminator 3
 6717 1c6a 97F82F30 		ldrb	r3, [r7, #47]	@ zero_extendqisi2
 6718 1c6e 0133     		adds	r3, r3, #1
 6719 1c70 87F82F30 		strb	r3, [r7, #47]
 6720              	.L341:
1565:.\main.c      ****     				    for(x=0;x<7;x++){
 6721              		.loc 1 1565 0 is_stmt 0 discriminator 1
 6722 1c74 97F82F30 		ldrb	r3, [r7, #47]	@ zero_extendqisi2
 6723 1c78 062B     		cmp	r3, #6
 6724 1c7a E6D9     		bls	.L342
1567:.\main.c      ****     				    }					
1568:.\main.c      ****     				    if(crc_total==rventa1.id[7]){
 6725              		.loc 1 1568 0 is_stmt 1
 6726 1c7c 434B     		ldr	r3, .L735+12
ARM GAS  C:\Users\RECEPC~1\AppData\Local\Temp\cc8qeTl3.s 			page 149


 6727 1c7e 93F82A20 		ldrb	r2, [r3, #42]	@ zero_extendqisi2
 6728 1c82 434B     		ldr	r3, .L735+16
 6729 1c84 1B78     		ldrb	r3, [r3]	@ zero_extendqisi2
 6730 1c86 9A42     		cmp	r2, r3
 6731 1c88 45D1     		bne	.L338
1569:.\main.c      ****     		                set_imagen(1,19);
 6732              		.loc 1 1569 0
 6733 1c8a 0120     		movs	r0, #1
 6734 1c8c 1321     		movs	r1, #19
 6735 1c8e FFF7FEFF 		bl	set_imagen
1570:.\main.c      ****     		                CyDelay(500);					 				 
 6736              		.loc 1 1570 0
 6737 1c92 4FF4FA70 		mov	r0, #500
 6738 1c96 FFF7FEFF 		bl	CyDelay
1571:.\main.c      ****     					    count_teclas1=0;							//Inicia el contador de teclas						    
 6739              		.loc 1 1571 0
 6740 1c9a 3E4B     		ldr	r3, .L735+20
 6741 1c9c 0022     		movs	r2, #0
 6742 1c9e 1A70     		strb	r2, [r3]
1572:.\main.c      ****     					    teclas1=10;
 6743              		.loc 1 1572 0
 6744 1ca0 3D4B     		ldr	r3, .L735+24
 6745 1ca2 0A22     		movs	r2, #10
 6746 1ca4 1A70     		strb	r2, [r3]
1573:.\main.c      ****     					    posx1=2;
 6747              		.loc 1 1573 0
 6748 1ca6 3D4B     		ldr	r3, .L735+28
 6749 1ca8 0222     		movs	r2, #2
 6750 1caa 1A80     		strh	r2, [r3]	@ movhi
1574:.\main.c      ****     					    posy1=3;
 6751              		.loc 1 1574 0
 6752 1cac 3C4B     		ldr	r3, .L735+32
 6753 1cae 0322     		movs	r2, #3
 6754 1cb0 1A80     		strh	r2, [r3]	@ movhi
1575:.\main.c      ****     					    sizeletra1=1;	
 6755              		.loc 1 1575 0
 6756 1cb2 3C4B     		ldr	r3, .L735+36
 6757 1cb4 0122     		movs	r2, #1
 6758 1cb6 1A80     		strh	r2, [r3]	@ movhi
1576:.\main.c      ****                             count_protector = 0;
 6759              		.loc 1 1576 0
 6760 1cb8 3B4B     		ldr	r3, .L735+40
 6761 1cba 0022     		movs	r2, #0
 6762 1cbc 1A70     		strb	r2, [r3]
1577:.\main.c      ****                             if(id_teclado1 ==10){
 6763              		.loc 1 1577 0
 6764 1cbe 3B4B     		ldr	r3, .L735+44
 6765 1cc0 1B78     		ldrb	r3, [r3]
 6766 1cc2 DBB2     		uxtb	r3, r3
 6767 1cc4 0A2B     		cmp	r3, #10
 6768 1cc6 06D1     		bne	.L343
1578:.\main.c      ****                                 set_imagen(1,19);
 6769              		.loc 1 1578 0
 6770 1cc8 0120     		movs	r0, #1
 6771 1cca 1321     		movs	r1, #19
 6772 1ccc FFF7FEFF 		bl	set_imagen
1579:.\main.c      ****                                 flujo_LCD1 = 19;
ARM GAS  C:\Users\RECEPC~1\AppData\Local\Temp\cc8qeTl3.s 			page 150


 6773              		.loc 1 1579 0
 6774 1cd0 374B     		ldr	r3, .L735+48
 6775 1cd2 1322     		movs	r2, #19
 6776 1cd4 1A70     		strb	r2, [r3]
 6777              	.L343:
1580:.\main.c      ****                             }
1581:.\main.c      ****                             if(id_teclado1 ==8){
 6778              		.loc 1 1581 0
 6779 1cd6 354B     		ldr	r3, .L735+44
 6780 1cd8 1B78     		ldrb	r3, [r3]
 6781 1cda DBB2     		uxtb	r3, r3
 6782 1cdc 082B     		cmp	r3, #8
 6783 1cde 06D1     		bne	.L344
1582:.\main.c      ****                                 set_imagen(1,36);
 6784              		.loc 1 1582 0
 6785 1ce0 0120     		movs	r0, #1
 6786 1ce2 2421     		movs	r1, #36
 6787 1ce4 FFF7FEFF 		bl	set_imagen
1583:.\main.c      ****                                 flujo_LCD1 = 12;
 6788              		.loc 1 1583 0
 6789 1ce8 314B     		ldr	r3, .L735+48
 6790 1cea 0C22     		movs	r2, #12
 6791 1cec 1A70     		strb	r2, [r3]
 6792              	.L344:
1584:.\main.c      ****                             }
1585:.\main.c      ****                             if(id_teclado1 !=8 && id_teclado1 !=10){
 6793              		.loc 1 1585 0
 6794 1cee 2F4B     		ldr	r3, .L735+44
 6795 1cf0 1B78     		ldrb	r3, [r3]
 6796 1cf2 DBB2     		uxtb	r3, r3
 6797 1cf4 082B     		cmp	r3, #8
 6798 1cf6 0ED0     		beq	.L338
 6799              		.loc 1 1585 0 is_stmt 0 discriminator 1
 6800 1cf8 2C4B     		ldr	r3, .L735+44
 6801 1cfa 1B78     		ldrb	r3, [r3]
 6802 1cfc DBB2     		uxtb	r3, r3
 6803 1cfe 0A2B     		cmp	r3, #10
 6804 1d00 09D0     		beq	.L338
1586:.\main.c      ****                                 id_teclado1=2;
 6805              		.loc 1 1586 0 is_stmt 1
 6806 1d02 2A4B     		ldr	r3, .L735+44
 6807 1d04 0222     		movs	r2, #2
 6808 1d06 1A70     		strb	r2, [r3]
1587:.\main.c      ****                                 set_imagen(1,14);
 6809              		.loc 1 1587 0
 6810 1d08 0120     		movs	r0, #1
 6811 1d0a 0E21     		movs	r1, #14
 6812 1d0c FFF7FEFF 		bl	set_imagen
1588:.\main.c      ****                                 flujo_LCD1=12;
 6813              		.loc 1 1588 0
 6814 1d10 274B     		ldr	r3, .L735+48
 6815 1d12 0C22     		movs	r2, #12
 6816 1d14 1A70     		strb	r2, [r3]
 6817              	.L338:
1589:.\main.c      ****                             }
1590:.\main.c      ****     					    	
1591:.\main.c      ****     				    }
ARM GAS  C:\Users\RECEPC~1\AppData\Local\Temp\cc8qeTl3.s 			page 151


1592:.\main.c      ****                     }
1593:.\main.c      ****                 }  
1594:.\main.c      ****             }
1595:.\main.c      ****             if(seleccion_pos == 2){
 6818              		.loc 1 1595 0
 6819 1d16 1C4B     		ldr	r3, .L735+8
 6820 1d18 1B78     		ldrb	r3, [r3]
 6821 1d1a DBB2     		uxtb	r3, r3
 6822 1d1c 022B     		cmp	r3, #2
 6823 1d1e 40F0AC80 		bne	.L345
1596:.\main.c      ****                 if(touch_present(1)==1){
 6824              		.loc 1 1596 0
 6825 1d22 0120     		movs	r0, #1
 6826 1d24 FFF7FEFF 		bl	touch_present
 6827 1d28 0346     		mov	r3, r0
 6828 1d2a 012B     		cmp	r3, #1
 6829 1d2c 40F0A580 		bne	.L345
1597:.\main.c      ****                     if(touch_write(1,0x33)){
 6830              		.loc 1 1597 0
 6831 1d30 0120     		movs	r0, #1
 6832 1d32 3321     		movs	r1, #51
 6833 1d34 FFF7FEFF 		bl	touch_write
 6834 1d38 0346     		mov	r3, r0
 6835 1d3a 002B     		cmp	r3, #0
 6836 1d3c 00F09D80 		beq	.L345
1598:.\main.c      ****     	                for(x=0;x<=7;x++){
 6837              		.loc 1 1598 0
 6838 1d40 0023     		movs	r3, #0
 6839 1d42 87F82F30 		strb	r3, [r7, #47]
 6840 1d46 0FE0     		b	.L346
 6841              	.L347:
1599:.\main.c      ****     	                    rventa2.id[x]=touch_read_byte(1);
 6842              		.loc 1 1599 0 discriminator 3
 6843 1d48 97F82F40 		ldrb	r4, [r7, #47]	@ zero_extendqisi2
 6844 1d4c 0120     		movs	r0, #1
 6845 1d4e FFF7FEFF 		bl	touch_read_byte
 6846 1d52 0346     		mov	r3, r0
 6847 1d54 1A46     		mov	r2, r3
 6848 1d56 0A4B     		ldr	r3, .L735
 6849 1d58 2344     		add	r3, r3, r4
 6850 1d5a 83F82320 		strb	r2, [r3, #35]
1598:.\main.c      ****     	                for(x=0;x<=7;x++){
 6851              		.loc 1 1598 0 discriminator 3
 6852 1d5e 97F82F30 		ldrb	r3, [r7, #47]	@ zero_extendqisi2
 6853 1d62 0133     		adds	r3, r3, #1
 6854 1d64 87F82F30 		strb	r3, [r7, #47]
 6855              	.L346:
1598:.\main.c      ****     	                for(x=0;x<=7;x++){
 6856              		.loc 1 1598 0 is_stmt 0 discriminator 1
 6857 1d68 97F82F30 		ldrb	r3, [r7, #47]	@ zero_extendqisi2
 6858 1d6c 072B     		cmp	r3, #7
 6859 1d6e EBD9     		bls	.L347
1600:.\main.c      ****     	                }
1601:.\main.c      ****     				    crc_total=0;
 6860              		.loc 1 1601 0 is_stmt 1
 6861 1d70 074B     		ldr	r3, .L735+16
 6862 1d72 0022     		movs	r2, #0
ARM GAS  C:\Users\RECEPC~1\AppData\Local\Temp\cc8qeTl3.s 			page 152


 6863 1d74 1A70     		strb	r2, [r3]
1602:.\main.c      ****     				    for(x=0;x<7;x++){
 6864              		.loc 1 1602 0
 6865 1d76 0023     		movs	r3, #0
 6866 1d78 87F82F30 		strb	r3, [r7, #47]
 6867 1d7c 2FE0     		b	.L348
 6868              	.L736:
 6869 1d7e 00BF     		.align	2
 6870              	.L735:
 6871 1d80 00000000 		.word	rventa2
 6872 1d84 00000000 		.word	rf_mod
 6873 1d88 00000000 		.word	seleccion_pos
 6874 1d8c 00000000 		.word	rventa1
 6875 1d90 00000000 		.word	crc_total
 6876 1d94 00000000 		.word	count_teclas1
 6877 1d98 00000000 		.word	teclas1
 6878 1d9c 00000000 		.word	posx1
 6879 1da0 00000000 		.word	posy1
 6880 1da4 00000000 		.word	sizeletra1
 6881 1da8 00000000 		.word	count_protector
 6882 1dac 00000000 		.word	id_teclado1
 6883 1db0 00000000 		.word	flujo_LCD1
 6884              	.L349:
1603:.\main.c      ****     				 	    crc_total=crc_check(crc_total,rventa2.id[x]);
 6885              		.loc 1 1603 0 discriminator 3
 6886 1db4 7F4B     		ldr	r3, .L737
 6887 1db6 1978     		ldrb	r1, [r3]	@ zero_extendqisi2
 6888 1db8 97F82F30 		ldrb	r3, [r7, #47]	@ zero_extendqisi2
 6889 1dbc 7E4A     		ldr	r2, .L737+4
 6890 1dbe 1344     		add	r3, r3, r2
 6891 1dc0 93F82330 		ldrb	r3, [r3, #35]	@ zero_extendqisi2
 6892 1dc4 0846     		mov	r0, r1
 6893 1dc6 1946     		mov	r1, r3
 6894 1dc8 FFF7FEFF 		bl	crc_check
 6895 1dcc 0346     		mov	r3, r0
 6896 1dce 1A46     		mov	r2, r3
 6897 1dd0 784B     		ldr	r3, .L737
 6898 1dd2 1A70     		strb	r2, [r3]
1602:.\main.c      ****     				    for(x=0;x<7;x++){
 6899              		.loc 1 1602 0 discriminator 3
 6900 1dd4 97F82F30 		ldrb	r3, [r7, #47]	@ zero_extendqisi2
 6901 1dd8 0133     		adds	r3, r3, #1
 6902 1dda 87F82F30 		strb	r3, [r7, #47]
 6903              	.L348:
1602:.\main.c      ****     				    for(x=0;x<7;x++){
 6904              		.loc 1 1602 0 is_stmt 0 discriminator 1
 6905 1dde 97F82F30 		ldrb	r3, [r7, #47]	@ zero_extendqisi2
 6906 1de2 062B     		cmp	r3, #6
 6907 1de4 E6D9     		bls	.L349
1604:.\main.c      ****     				    }					
1605:.\main.c      ****     				    if(crc_total==rventa2.id[7]){
 6908              		.loc 1 1605 0 is_stmt 1
 6909 1de6 744B     		ldr	r3, .L737+4
 6910 1de8 93F82A20 		ldrb	r2, [r3, #42]	@ zero_extendqisi2
 6911 1dec 714B     		ldr	r3, .L737
 6912 1dee 1B78     		ldrb	r3, [r3]	@ zero_extendqisi2
 6913 1df0 9A42     		cmp	r2, r3
ARM GAS  C:\Users\RECEPC~1\AppData\Local\Temp\cc8qeTl3.s 			page 153


 6914 1df2 42D1     		bne	.L345
1606:.\main.c      ****     		                set_imagen(1,19);
 6915              		.loc 1 1606 0
 6916 1df4 0120     		movs	r0, #1
 6917 1df6 1321     		movs	r1, #19
 6918 1df8 FFF7FEFF 		bl	set_imagen
1607:.\main.c      ****     		                CyDelay(500);					 				 
 6919              		.loc 1 1607 0
 6920 1dfc 4FF4FA70 		mov	r0, #500
 6921 1e00 FFF7FEFF 		bl	CyDelay
1608:.\main.c      ****     					    count_teclas1=0;							//Inicia el contador de teclas						    
 6922              		.loc 1 1608 0
 6923 1e04 6D4B     		ldr	r3, .L737+8
 6924 1e06 0022     		movs	r2, #0
 6925 1e08 1A70     		strb	r2, [r3]
1609:.\main.c      ****     					    teclas1=10;
 6926              		.loc 1 1609 0
 6927 1e0a 6D4B     		ldr	r3, .L737+12
 6928 1e0c 0A22     		movs	r2, #10
 6929 1e0e 1A70     		strb	r2, [r3]
1610:.\main.c      ****     					    posx1=2;
 6930              		.loc 1 1610 0
 6931 1e10 6C4B     		ldr	r3, .L737+16
 6932 1e12 0222     		movs	r2, #2
 6933 1e14 1A80     		strh	r2, [r3]	@ movhi
1611:.\main.c      ****     					    posy1=3;
 6934              		.loc 1 1611 0
 6935 1e16 6C4B     		ldr	r3, .L737+20
 6936 1e18 0322     		movs	r2, #3
 6937 1e1a 1A80     		strh	r2, [r3]	@ movhi
1612:.\main.c      ****     					    sizeletra1=1;	                        
 6938              		.loc 1 1612 0
 6939 1e1c 6B4B     		ldr	r3, .L737+24
 6940 1e1e 0122     		movs	r2, #1
 6941 1e20 1A80     		strh	r2, [r3]	@ movhi
1613:.\main.c      ****                             if(id_teclado1 ==10){
 6942              		.loc 1 1613 0
 6943 1e22 6B4B     		ldr	r3, .L737+28
 6944 1e24 1B78     		ldrb	r3, [r3]
 6945 1e26 DBB2     		uxtb	r3, r3
 6946 1e28 0A2B     		cmp	r3, #10
 6947 1e2a 06D1     		bne	.L350
1614:.\main.c      ****                                 set_imagen(1,19);
 6948              		.loc 1 1614 0
 6949 1e2c 0120     		movs	r0, #1
 6950 1e2e 1321     		movs	r1, #19
 6951 1e30 FFF7FEFF 		bl	set_imagen
1615:.\main.c      ****                                 flujo_LCD1 = 19;
 6952              		.loc 1 1615 0
 6953 1e34 674B     		ldr	r3, .L737+32
 6954 1e36 1322     		movs	r2, #19
 6955 1e38 1A70     		strb	r2, [r3]
 6956              	.L350:
1616:.\main.c      ****                             }
1617:.\main.c      ****                             if(id_teclado1 ==8){
 6957              		.loc 1 1617 0
 6958 1e3a 654B     		ldr	r3, .L737+28
ARM GAS  C:\Users\RECEPC~1\AppData\Local\Temp\cc8qeTl3.s 			page 154


 6959 1e3c 1B78     		ldrb	r3, [r3]
 6960 1e3e DBB2     		uxtb	r3, r3
 6961 1e40 082B     		cmp	r3, #8
 6962 1e42 06D1     		bne	.L351
1618:.\main.c      ****                                 set_imagen(1,36);
 6963              		.loc 1 1618 0
 6964 1e44 0120     		movs	r0, #1
 6965 1e46 2421     		movs	r1, #36
 6966 1e48 FFF7FEFF 		bl	set_imagen
1619:.\main.c      ****                                 flujo_LCD1 = 12;
 6967              		.loc 1 1619 0
 6968 1e4c 614B     		ldr	r3, .L737+32
 6969 1e4e 0C22     		movs	r2, #12
 6970 1e50 1A70     		strb	r2, [r3]
 6971              	.L351:
1620:.\main.c      ****                             }
1621:.\main.c      ****                             if(id_teclado1 !=8 && id_teclado1 !=10){
 6972              		.loc 1 1621 0
 6973 1e52 5F4B     		ldr	r3, .L737+28
 6974 1e54 1B78     		ldrb	r3, [r3]
 6975 1e56 DBB2     		uxtb	r3, r3
 6976 1e58 082B     		cmp	r3, #8
 6977 1e5a 0ED0     		beq	.L345
 6978              		.loc 1 1621 0 is_stmt 0 discriminator 1
 6979 1e5c 5C4B     		ldr	r3, .L737+28
 6980 1e5e 1B78     		ldrb	r3, [r3]
 6981 1e60 DBB2     		uxtb	r3, r3
 6982 1e62 0A2B     		cmp	r3, #10
 6983 1e64 09D0     		beq	.L345
1622:.\main.c      ****                                 id_teclado1=2;
 6984              		.loc 1 1622 0 is_stmt 1
 6985 1e66 5A4B     		ldr	r3, .L737+28
 6986 1e68 0222     		movs	r2, #2
 6987 1e6a 1A70     		strb	r2, [r3]
1623:.\main.c      ****                                 set_imagen(1,14);
 6988              		.loc 1 1623 0
 6989 1e6c 0120     		movs	r0, #1
 6990 1e6e 0E21     		movs	r1, #14
 6991 1e70 FFF7FEFF 		bl	set_imagen
1624:.\main.c      ****                                 flujo_LCD1=12;
 6992              		.loc 1 1624 0
 6993 1e74 574B     		ldr	r3, .L737+32
 6994 1e76 0C22     		movs	r2, #12
 6995 1e78 1A70     		strb	r2, [r3]
 6996              	.L345:
1625:.\main.c      ****                             }
1626:.\main.c      ****     					    	
1627:.\main.c      ****     				    }
1628:.\main.c      ****                     }
1629:.\main.c      ****                 }  
1630:.\main.c      ****             }
1631:.\main.c      ****             
1632:.\main.c      ****             if(LCD_1_GetRxBufferSize()==8){
 6997              		.loc 1 1632 0
 6998 1e7a FFF7FEFF 		bl	LCD_1_GetRxBufferSize
 6999 1e7e 0346     		mov	r3, r0
 7000 1e80 082B     		cmp	r3, #8
ARM GAS  C:\Users\RECEPC~1\AppData\Local\Temp\cc8qeTl3.s 			page 155


 7001 1e82 1ED1     		bne	.L352
1633:.\main.c      ****                 if((LCD_1_rxBuffer[0]==0xAA) && (LCD_1_rxBuffer[6]==0xC3) && (LCD_1_rxBuffer[7]==0x
 7002              		.loc 1 1633 0
 7003 1e84 544B     		ldr	r3, .L737+36
 7004 1e86 1B78     		ldrb	r3, [r3]
 7005 1e88 DBB2     		uxtb	r3, r3
 7006 1e8a AA2B     		cmp	r3, #170
 7007 1e8c 12D1     		bne	.L353
 7008              		.loc 1 1633 0 is_stmt 0 discriminator 1
 7009 1e8e 524B     		ldr	r3, .L737+36
 7010 1e90 9B79     		ldrb	r3, [r3, #6]
 7011 1e92 DBB2     		uxtb	r3, r3
 7012 1e94 C32B     		cmp	r3, #195
 7013 1e96 0DD1     		bne	.L353
 7014              		.loc 1 1633 0 discriminator 2
 7015 1e98 4F4B     		ldr	r3, .L737+36
 7016 1e9a DB79     		ldrb	r3, [r3, #7]
 7017 1e9c DBB2     		uxtb	r3, r3
 7018 1e9e 3C2B     		cmp	r3, #60
 7019 1ea0 08D1     		bne	.L353
1634:.\main.c      ****                     switch(LCD_1_rxBuffer[3]){
 7020              		.loc 1 1634 0 is_stmt 1
 7021 1ea2 4D4B     		ldr	r3, .L737+36
 7022 1ea4 DB78     		ldrb	r3, [r3, #3]
 7023 1ea6 DBB2     		uxtb	r3, r3
 7024 1ea8 3B2B     		cmp	r3, #59
 7025 1eaa 03D1     		bne	.L353
1635:.\main.c      ****                         case 0x3B:
1636:.\main.c      ****                             flujo_LCD1=0; 
 7026              		.loc 1 1636 0
 7027 1eac 494B     		ldr	r3, .L737+32
 7028 1eae 0022     		movs	r2, #0
 7029 1eb0 1A70     		strb	r2, [r3]
1637:.\main.c      ****                         break; 
 7030              		.loc 1 1637 0
 7031 1eb2 00BF     		nop
 7032              	.L353:
1638:.\main.c      ****                     }
1639:.\main.c      ****                 }
1640:.\main.c      ****                 CyDelay(100);            
 7033              		.loc 1 1640 0
 7034 1eb4 6420     		movs	r0, #100
 7035 1eb6 FFF7FEFF 		bl	CyDelay
1641:.\main.c      ****                 LCD_1_ClearRxBuffer();            
 7036              		.loc 1 1641 0
 7037 1eba FFF7FEFF 		bl	LCD_1_ClearRxBuffer
1642:.\main.c      ****         }		
1643:.\main.c      **** 		break;
 7038              		.loc 1 1643 0
 7039 1ebe 03F0D5B8 		b	.L131
 7040              	.L352:
 7041              		.loc 1 1643 0 is_stmt 0 discriminator 12
 7042 1ec2 03F0D3B8 		b	.L131
 7043              	.L144:
1644:.\main.c      ****         
1645:.\main.c      ****         
1646:.\main.c      ****         case 12: 
ARM GAS  C:\Users\RECEPC~1\AppData\Local\Temp\cc8qeTl3.s 			page 156


1647:.\main.c      ****         if(seleccion_pos == 1){
 7044              		.loc 1 1647 0 is_stmt 1
 7045 1ec6 454B     		ldr	r3, .L737+40
 7046 1ec8 1B78     		ldrb	r3, [r3]
 7047 1eca DBB2     		uxtb	r3, r3
 7048 1ecc 012B     		cmp	r3, #1
 7049 1ece 40F09385 		bne	.L355
1648:.\main.c      ****          if(LCD_1_GetRxBufferSize()==8){
 7050              		.loc 1 1648 0
 7051 1ed2 FFF7FEFF 		bl	LCD_1_GetRxBufferSize
 7052 1ed6 0346     		mov	r3, r0
 7053 1ed8 082B     		cmp	r3, #8
 7054 1eda 40F08D85 		bne	.L355
1649:.\main.c      ****             if((LCD_1_rxBuffer[0]==0xAA) && (LCD_1_rxBuffer[6]==0xC3) && (LCD_1_rxBuffer[7]==0x3C))
 7055              		.loc 1 1649 0
 7056 1ede 3E4B     		ldr	r3, .L737+36
 7057 1ee0 1B78     		ldrb	r3, [r3]
 7058 1ee2 DBB2     		uxtb	r3, r3
 7059 1ee4 AA2B     		cmp	r3, #170
 7060 1ee6 40F08585 		bne	.L356
 7061              		.loc 1 1649 0 is_stmt 0 discriminator 1
 7062 1eea 3B4B     		ldr	r3, .L737+36
 7063 1eec 9B79     		ldrb	r3, [r3, #6]
 7064 1eee DBB2     		uxtb	r3, r3
 7065 1ef0 C32B     		cmp	r3, #195
 7066 1ef2 40F07F85 		bne	.L356
 7067              		.loc 1 1649 0 discriminator 2
 7068 1ef6 384B     		ldr	r3, .L737+36
 7069 1ef8 DB79     		ldrb	r3, [r3, #7]
 7070 1efa DBB2     		uxtb	r3, r3
 7071 1efc 3C2B     		cmp	r3, #60
 7072 1efe 40F07985 		bne	.L356
1650:.\main.c      **** 				count_protector=0;
 7073              		.loc 1 1650 0 is_stmt 1
 7074 1f02 374B     		ldr	r3, .L737+44
 7075 1f04 0022     		movs	r2, #0
 7076 1f06 1A70     		strb	r2, [r3]
1651:.\main.c      ****                 if(count_teclas1<teclas1){									
 7077              		.loc 1 1651 0
 7078 1f08 2C4B     		ldr	r3, .L737+8
 7079 1f0a 1B78     		ldrb	r3, [r3]
 7080 1f0c DAB2     		uxtb	r2, r3
 7081 1f0e 2C4B     		ldr	r3, .L737+12
 7082 1f10 1B78     		ldrb	r3, [r3]
 7083 1f12 DBB2     		uxtb	r3, r3
 7084 1f14 9A42     		cmp	r2, r3
 7085 1f16 80F0D780 		bcs	.L357
1652:.\main.c      ****                     if(LCD_1_rxBuffer[3]<=9){								//Numero de 1-9
 7086              		.loc 1 1652 0
 7087 1f1a 2F4B     		ldr	r3, .L737+36
 7088 1f1c DB78     		ldrb	r3, [r3, #3]
 7089 1f1e DBB2     		uxtb	r3, r3
 7090 1f20 092B     		cmp	r3, #9
 7091 1f22 32D8     		bhi	.L358
1653:.\main.c      ****                         count_teclas1++;
 7092              		.loc 1 1653 0
 7093 1f24 254B     		ldr	r3, .L737+8
ARM GAS  C:\Users\RECEPC~1\AppData\Local\Temp\cc8qeTl3.s 			page 157


 7094 1f26 1B78     		ldrb	r3, [r3]
 7095 1f28 DBB2     		uxtb	r3, r3
 7096 1f2a 0133     		adds	r3, r3, #1
 7097 1f2c DAB2     		uxtb	r2, r3
 7098 1f2e 234B     		ldr	r3, .L737+8
 7099 1f30 1A70     		strb	r2, [r3]
1654:.\main.c      ****                         Buffer_LCD1[count_teclas1]=LCD_1_rxBuffer[3];
 7100              		.loc 1 1654 0
 7101 1f32 224B     		ldr	r3, .L737+8
 7102 1f34 1B78     		ldrb	r3, [r3]
 7103 1f36 DBB2     		uxtb	r3, r3
 7104 1f38 1A46     		mov	r2, r3
 7105 1f3a 274B     		ldr	r3, .L737+36
 7106 1f3c DB78     		ldrb	r3, [r3, #3]
 7107 1f3e D9B2     		uxtb	r1, r3
 7108 1f40 284B     		ldr	r3, .L737+48
 7109 1f42 9954     		strb	r1, [r3, r2]
1655:.\main.c      ****                         write_LCD(1,(LCD_1_rxBuffer[3]+0x30), posy1, ((count_teclas1*(sizeletra1+1)
 7110              		.loc 1 1655 0
 7111 1f44 244B     		ldr	r3, .L737+36
 7112 1f46 DB78     		ldrb	r3, [r3, #3]
 7113 1f48 DBB2     		uxtb	r3, r3
 7114 1f4a 3033     		adds	r3, r3, #48
 7115 1f4c D9B2     		uxtb	r1, r3
 7116 1f4e 1E4B     		ldr	r3, .L737+20
 7117 1f50 1B88     		ldrh	r3, [r3]	@ movhi
 7118 1f52 9DB2     		uxth	r5, r3
 7119 1f54 194B     		ldr	r3, .L737+8
 7120 1f56 1B78     		ldrb	r3, [r3]
 7121 1f58 DBB2     		uxtb	r3, r3
 7122 1f5a 9BB2     		uxth	r3, r3
 7123 1f5c 1B4A     		ldr	r2, .L737+24
 7124 1f5e 1288     		ldrh	r2, [r2]	@ movhi
 7125 1f60 92B2     		uxth	r2, r2
 7126 1f62 0132     		adds	r2, r2, #1
 7127 1f64 92B2     		uxth	r2, r2
 7128 1f66 02FB03F3 		mul	r3, r2, r3
 7129 1f6a 9AB2     		uxth	r2, r3
 7130 1f6c 154B     		ldr	r3, .L737+16
 7131 1f6e 1B88     		ldrh	r3, [r3]	@ movhi
 7132 1f70 9BB2     		uxth	r3, r3
 7133 1f72 1344     		add	r3, r3, r2
 7134 1f74 9CB2     		uxth	r4, r3
 7135 1f76 154B     		ldr	r3, .L737+24
 7136 1f78 1B88     		ldrh	r3, [r3]	@ movhi
 7137 1f7a 9BB2     		uxth	r3, r3
 7138 1f7c DBB2     		uxtb	r3, r3
 7139 1f7e 0093     		str	r3, [sp]
 7140 1f80 0120     		movs	r0, #1
 7141 1f82 2A46     		mov	r2, r5
 7142 1f84 2346     		mov	r3, r4
 7143 1f86 FFF7FEFF 		bl	write_LCD
 7144              	.L358:
1656:.\main.c      ****                     }
1657:.\main.c      ****                     if(LCD_1_rxBuffer[3]==0x0A){            				//Comando de 0
 7145              		.loc 1 1657 0
 7146 1f8a 134B     		ldr	r3, .L737+36
ARM GAS  C:\Users\RECEPC~1\AppData\Local\Temp\cc8qeTl3.s 			page 158


 7147 1f8c DB78     		ldrb	r3, [r3, #3]
 7148 1f8e DBB2     		uxtb	r3, r3
 7149 1f90 0A2B     		cmp	r3, #10
 7150 1f92 56D1     		bne	.L359
1658:.\main.c      **** 						if((id_teclado1==1)&&(count_teclas1==1)&&(Buffer_LCD1[1]==0)){
 7151              		.loc 1 1658 0
 7152 1f94 0E4B     		ldr	r3, .L737+28
 7153 1f96 1B78     		ldrb	r3, [r3]
 7154 1f98 DBB2     		uxtb	r3, r3
 7155 1f9a 012B     		cmp	r3, #1
 7156 1f9c 24D1     		bne	.L360
 7157              		.loc 1 1658 0 is_stmt 0 discriminator 1
 7158 1f9e 074B     		ldr	r3, .L737+8
 7159 1fa0 1B78     		ldrb	r3, [r3]
 7160 1fa2 DBB2     		uxtb	r3, r3
 7161 1fa4 012B     		cmp	r3, #1
 7162 1fa6 1FD1     		bne	.L360
 7163              		.loc 1 1658 0 discriminator 2
 7164 1fa8 0E4B     		ldr	r3, .L737+48
 7165 1faa 5B78     		ldrb	r3, [r3, #1]
 7166 1fac DBB2     		uxtb	r3, r3
 7167 1fae 002B     		cmp	r3, #0
 7168 1fb0 1AD1     		bne	.L360
 7169              		.loc 1 1658 0
 7170 1fb2 46E0     		b	.L359
 7171              	.L738:
 7172              		.align	2
 7173              	.L737:
 7174 1fb4 00000000 		.word	crc_total
 7175 1fb8 00000000 		.word	rventa2
 7176 1fbc 00000000 		.word	count_teclas1
 7177 1fc0 00000000 		.word	teclas1
 7178 1fc4 00000000 		.word	posx1
 7179 1fc8 00000000 		.word	posy1
 7180 1fcc 00000000 		.word	sizeletra1
 7181 1fd0 00000000 		.word	id_teclado1
 7182 1fd4 00000000 		.word	flujo_LCD1
 7183 1fd8 00000000 		.word	LCD_1_rxBuffer
 7184 1fdc 00000000 		.word	seleccion_pos
 7185 1fe0 00000000 		.word	count_protector
 7186 1fe4 00000000 		.word	Buffer_LCD1
 7187              	.L360:
1659:.\main.c      **** 						}
1660:.\main.c      **** 						else{
1661:.\main.c      **** 	                        count_teclas1++;
 7188              		.loc 1 1661 0 is_stmt 1
 7189 1fe8 AF4B     		ldr	r3, .L739
 7190 1fea 1B78     		ldrb	r3, [r3]
 7191 1fec DBB2     		uxtb	r3, r3
 7192 1fee 0133     		adds	r3, r3, #1
 7193 1ff0 DAB2     		uxtb	r2, r3
 7194 1ff2 AD4B     		ldr	r3, .L739
 7195 1ff4 1A70     		strb	r2, [r3]
1662:.\main.c      **** 	                        Buffer_LCD1[count_teclas1]=0;
 7196              		.loc 1 1662 0
 7197 1ff6 AC4B     		ldr	r3, .L739
 7198 1ff8 1B78     		ldrb	r3, [r3]
ARM GAS  C:\Users\RECEPC~1\AppData\Local\Temp\cc8qeTl3.s 			page 159


 7199 1ffa DBB2     		uxtb	r3, r3
 7200 1ffc 1A46     		mov	r2, r3
 7201 1ffe AB4B     		ldr	r3, .L739+4
 7202 2000 0021     		movs	r1, #0
 7203 2002 9954     		strb	r1, [r3, r2]
1663:.\main.c      **** 							write_LCD(1,0x30, posy1, ((count_teclas1*(sizeletra1+1))+posx1), sizeletra1);
 7204              		.loc 1 1663 0
 7205 2004 AA4B     		ldr	r3, .L739+8
 7206 2006 1B88     		ldrh	r3, [r3]	@ movhi
 7207 2008 9DB2     		uxth	r5, r3
 7208 200a A74B     		ldr	r3, .L739
 7209 200c 1B78     		ldrb	r3, [r3]
 7210 200e DBB2     		uxtb	r3, r3
 7211 2010 9BB2     		uxth	r3, r3
 7212 2012 A84A     		ldr	r2, .L739+12
 7213 2014 1288     		ldrh	r2, [r2]	@ movhi
 7214 2016 92B2     		uxth	r2, r2
 7215 2018 0132     		adds	r2, r2, #1
 7216 201a 92B2     		uxth	r2, r2
 7217 201c 02FB03F3 		mul	r3, r2, r3
 7218 2020 9AB2     		uxth	r2, r3
 7219 2022 A54B     		ldr	r3, .L739+16
 7220 2024 1B88     		ldrh	r3, [r3]	@ movhi
 7221 2026 9BB2     		uxth	r3, r3
 7222 2028 1344     		add	r3, r3, r2
 7223 202a 9CB2     		uxth	r4, r3
 7224 202c A14B     		ldr	r3, .L739+12
 7225 202e 1B88     		ldrh	r3, [r3]	@ movhi
 7226 2030 9BB2     		uxth	r3, r3
 7227 2032 DBB2     		uxtb	r3, r3
 7228 2034 0093     		str	r3, [sp]
 7229 2036 0120     		movs	r0, #1
 7230 2038 3021     		movs	r1, #48
 7231 203a 2A46     		mov	r2, r5
 7232 203c 2346     		mov	r3, r4
 7233 203e FFF7FEFF 		bl	write_LCD
 7234              	.L359:
1664:.\main.c      **** 						}
1665:.\main.c      ****                     }  
1666:.\main.c      ****                     if(LCD_1_rxBuffer[3]==0x51){            	 			//Comando de Coma
 7235              		.loc 1 1666 0
 7236 2042 9E4B     		ldr	r3, .L739+20
 7237 2044 DB78     		ldrb	r3, [r3, #3]
 7238 2046 DBB2     		uxtb	r3, r3
 7239 2048 512B     		cmp	r3, #81
 7240 204a 3DD1     		bne	.L357
1667:.\main.c      ****                         if(count_teclas1>=1 && comas1==0){
 7241              		.loc 1 1667 0
 7242 204c 964B     		ldr	r3, .L739
 7243 204e 1B78     		ldrb	r3, [r3]
 7244 2050 DBB2     		uxtb	r3, r3
 7245 2052 002B     		cmp	r3, #0
 7246 2054 38D0     		beq	.L357
 7247              		.loc 1 1667 0 is_stmt 0 discriminator 1
 7248 2056 9A4B     		ldr	r3, .L739+24
 7249 2058 1B78     		ldrb	r3, [r3]
 7250 205a DBB2     		uxtb	r3, r3
ARM GAS  C:\Users\RECEPC~1\AppData\Local\Temp\cc8qeTl3.s 			page 160


 7251 205c 002B     		cmp	r3, #0
 7252 205e 33D1     		bne	.L357
1668:.\main.c      ****                             count_teclas1++;
 7253              		.loc 1 1668 0 is_stmt 1
 7254 2060 914B     		ldr	r3, .L739
 7255 2062 1B78     		ldrb	r3, [r3]
 7256 2064 DBB2     		uxtb	r3, r3
 7257 2066 0133     		adds	r3, r3, #1
 7258 2068 DAB2     		uxtb	r2, r3
 7259 206a 8F4B     		ldr	r3, .L739
 7260 206c 1A70     		strb	r2, [r3]
1669:.\main.c      ****                             Buffer_LCD1[count_teclas1]=id_coma1;
 7261              		.loc 1 1669 0
 7262 206e 8E4B     		ldr	r3, .L739
 7263 2070 1B78     		ldrb	r3, [r3]
 7264 2072 DBB2     		uxtb	r3, r3
 7265 2074 1A46     		mov	r2, r3
 7266 2076 934B     		ldr	r3, .L739+28
 7267 2078 1B78     		ldrb	r3, [r3]
 7268 207a D9B2     		uxtb	r1, r3
 7269 207c 8B4B     		ldr	r3, .L739+4
 7270 207e 9954     		strb	r1, [r3, r2]
1670:.\main.c      **** 							write_LCD(1,id_coma1, posy1, ((count_teclas1*(sizeletra1+1))+posx1), sizeletra1);
 7271              		.loc 1 1670 0
 7272 2080 904B     		ldr	r3, .L739+28
 7273 2082 1B78     		ldrb	r3, [r3]
 7274 2084 D9B2     		uxtb	r1, r3
 7275 2086 8A4B     		ldr	r3, .L739+8
 7276 2088 1B88     		ldrh	r3, [r3]	@ movhi
 7277 208a 9DB2     		uxth	r5, r3
 7278 208c 864B     		ldr	r3, .L739
 7279 208e 1B78     		ldrb	r3, [r3]
 7280 2090 DBB2     		uxtb	r3, r3
 7281 2092 9BB2     		uxth	r3, r3
 7282 2094 874A     		ldr	r2, .L739+12
 7283 2096 1288     		ldrh	r2, [r2]	@ movhi
 7284 2098 92B2     		uxth	r2, r2
 7285 209a 0132     		adds	r2, r2, #1
 7286 209c 92B2     		uxth	r2, r2
 7287 209e 02FB03F3 		mul	r3, r2, r3
 7288 20a2 9AB2     		uxth	r2, r3
 7289 20a4 844B     		ldr	r3, .L739+16
 7290 20a6 1B88     		ldrh	r3, [r3]	@ movhi
 7291 20a8 9BB2     		uxth	r3, r3
 7292 20aa 1344     		add	r3, r3, r2
 7293 20ac 9CB2     		uxth	r4, r3
 7294 20ae 814B     		ldr	r3, .L739+12
 7295 20b0 1B88     		ldrh	r3, [r3]	@ movhi
 7296 20b2 9BB2     		uxth	r3, r3
 7297 20b4 DBB2     		uxtb	r3, r3
 7298 20b6 0093     		str	r3, [sp]
 7299 20b8 0120     		movs	r0, #1
 7300 20ba 2A46     		mov	r2, r5
 7301 20bc 2346     		mov	r3, r4
 7302 20be FFF7FEFF 		bl	write_LCD
1671:.\main.c      ****                             comas1=1;
 7303              		.loc 1 1671 0
ARM GAS  C:\Users\RECEPC~1\AppData\Local\Temp\cc8qeTl3.s 			page 161


 7304 20c2 7F4B     		ldr	r3, .L739+24
 7305 20c4 0122     		movs	r2, #1
 7306 20c6 1A70     		strb	r2, [r3]
 7307              	.L357:
1672:.\main.c      ****                         }
1673:.\main.c      ****                     }                    
1674:.\main.c      ****                 }                                
1675:.\main.c      ****                 if(LCD_1_rxBuffer[3]==0x0B){								//Cancel
 7308              		.loc 1 1675 0
 7309 20c8 7C4B     		ldr	r3, .L739+20
 7310 20ca DB78     		ldrb	r3, [r3, #3]
 7311 20cc DBB2     		uxtb	r3, r3
 7312 20ce 0B2B     		cmp	r3, #11
 7313 20d0 40F0A080 		bne	.L361
1676:.\main.c      ****                     if(count_teclas1==0){
 7314              		.loc 1 1676 0
 7315 20d4 744B     		ldr	r3, .L739
 7316 20d6 1B78     		ldrb	r3, [r3]
 7317 20d8 DBB2     		uxtb	r3, r3
 7318 20da 002B     		cmp	r3, #0
 7319 20dc 5ED1     		bne	.L362
1677:.\main.c      **** 						switch(id_teclado1){
 7320              		.loc 1 1677 0
 7321 20de 7A4B     		ldr	r3, .L739+32
 7322 20e0 1B78     		ldrb	r3, [r3]
 7323 20e2 DBB2     		uxtb	r3, r3
 7324 20e4 013B     		subs	r3, r3, #1
 7325 20e6 072B     		cmp	r3, #7
 7326 20e8 00F29480 		bhi	.L361
 7327 20ec 01A2     		adr	r2, .L365
 7328 20ee 52F823F0 		ldr	pc, [r2, r3, lsl #2]
 7329 20f2 00BF     		.p2align 2
 7330              	.L365:
 7331 20f4 15210000 		.word	.L364+1
 7332 20f8 25210000 		.word	.L366+1
 7333 20fc 2D210000 		.word	.L367+1
 7334 2100 43210000 		.word	.L368+1
 7335 2104 59210000 		.word	.L369+1
 7336 2108 6F210000 		.word	.L370+1
 7337 210c 15220000 		.word	.L361+1
 7338 2110 85210000 		.word	.L371+1
 7339              		.p2align 1
 7340              	.L364:
1678:.\main.c      **** 							case 1:
1679:.\main.c      **** 							set_imagen(1,5);
 7341              		.loc 1 1679 0
 7342 2114 0120     		movs	r0, #1
 7343 2116 0521     		movs	r1, #5
 7344 2118 FFF7FEFF 		bl	set_imagen
1680:.\main.c      **** 							flujo_LCD1=4;
 7345              		.loc 1 1680 0
 7346 211c 6B4B     		ldr	r3, .L739+36
 7347 211e 0422     		movs	r2, #4
 7348 2120 1A70     		strb	r2, [r3]
1681:.\main.c      **** 							break;
 7349              		.loc 1 1681 0
 7350 2122 3AE0     		b	.L363
ARM GAS  C:\Users\RECEPC~1\AppData\Local\Temp\cc8qeTl3.s 			page 162


 7351              	.L366:
1682:.\main.c      **** 							case 2:
1683:.\main.c      **** 	                        flujo_LCD1=0;	
 7352              		.loc 1 1683 0
 7353 2124 694B     		ldr	r3, .L739+36
 7354 2126 0022     		movs	r2, #0
 7355 2128 1A70     		strb	r2, [r3]
1684:.\main.c      **** 							break;
 7356              		.loc 1 1684 0
 7357 212a 36E0     		b	.L363
 7358              	.L367:
1685:.\main.c      **** 							case 3:
1686:.\main.c      **** 							set_imagen(1,0);
 7359              		.loc 1 1686 0
 7360 212c 0120     		movs	r0, #1
 7361 212e 0021     		movs	r1, #0
 7362 2130 FFF7FEFF 		bl	set_imagen
1687:.\main.c      **** 							flujo_LCD1=0;
 7363              		.loc 1 1687 0
 7364 2134 654B     		ldr	r3, .L739+36
 7365 2136 0022     		movs	r2, #0
 7366 2138 1A70     		strb	r2, [r3]
1688:.\main.c      **** 							lado1.estado=libre;
 7367              		.loc 1 1688 0
 7368 213a 654B     		ldr	r3, .L739+40
 7369 213c 0122     		movs	r2, #1
 7370 213e 5A70     		strb	r2, [r3, #1]
1689:.\main.c      **** 							break;
 7371              		.loc 1 1689 0
 7372 2140 2BE0     		b	.L363
 7373              	.L368:
1690:.\main.c      **** 							case 4:
1691:.\main.c      **** 							set_imagen(1,0);
 7374              		.loc 1 1691 0
 7375 2142 0120     		movs	r0, #1
 7376 2144 0021     		movs	r1, #0
 7377 2146 FFF7FEFF 		bl	set_imagen
1692:.\main.c      **** 							flujo_LCD1=0;
 7378              		.loc 1 1692 0
 7379 214a 604B     		ldr	r3, .L739+36
 7380 214c 0022     		movs	r2, #0
 7381 214e 1A70     		strb	r2, [r3]
1693:.\main.c      **** 							lado1.estado=libre;
 7382              		.loc 1 1693 0
 7383 2150 5F4B     		ldr	r3, .L739+40
 7384 2152 0122     		movs	r2, #1
 7385 2154 5A70     		strb	r2, [r3, #1]
1694:.\main.c      **** 							break;
 7386              		.loc 1 1694 0
 7387 2156 20E0     		b	.L363
 7388              	.L369:
1695:.\main.c      ****                             case 5:
1696:.\main.c      **** 							set_imagen(1,0);
 7389              		.loc 1 1696 0
 7390 2158 0120     		movs	r0, #1
 7391 215a 0021     		movs	r1, #0
 7392 215c FFF7FEFF 		bl	set_imagen
ARM GAS  C:\Users\RECEPC~1\AppData\Local\Temp\cc8qeTl3.s 			page 163


1697:.\main.c      **** 							flujo_LCD1=0;
 7393              		.loc 1 1697 0
 7394 2160 5A4B     		ldr	r3, .L739+36
 7395 2162 0022     		movs	r2, #0
 7396 2164 1A70     		strb	r2, [r3]
1698:.\main.c      **** 							lado1.estado=libre;                            
 7397              		.loc 1 1698 0
 7398 2166 5A4B     		ldr	r3, .L739+40
 7399 2168 0122     		movs	r2, #1
 7400 216a 5A70     		strb	r2, [r3, #1]
1699:.\main.c      ****                             break;
 7401              		.loc 1 1699 0
 7402 216c 15E0     		b	.L363
 7403              	.L370:
1700:.\main.c      ****                             case 6:
1701:.\main.c      **** 							set_imagen(1,0);
 7404              		.loc 1 1701 0
 7405 216e 0120     		movs	r0, #1
 7406 2170 0021     		movs	r1, #0
 7407 2172 FFF7FEFF 		bl	set_imagen
1702:.\main.c      **** 							flujo_LCD1=0;
 7408              		.loc 1 1702 0
 7409 2176 554B     		ldr	r3, .L739+36
 7410 2178 0022     		movs	r2, #0
 7411 217a 1A70     		strb	r2, [r3]
1703:.\main.c      **** 							lado1.estado=libre;                            
 7412              		.loc 1 1703 0
 7413 217c 544B     		ldr	r3, .L739+40
 7414 217e 0122     		movs	r2, #1
 7415 2180 5A70     		strb	r2, [r3, #1]
1704:.\main.c      ****                             break;  
 7416              		.loc 1 1704 0
 7417 2182 0AE0     		b	.L363
 7418              	.L371:
1705:.\main.c      ****                             case 8:
1706:.\main.c      **** 							set_imagen(1,0);
 7419              		.loc 1 1706 0
 7420 2184 0120     		movs	r0, #1
 7421 2186 0021     		movs	r1, #0
 7422 2188 FFF7FEFF 		bl	set_imagen
1707:.\main.c      **** 							flujo_LCD1 = 0;
 7423              		.loc 1 1707 0
 7424 218c 4F4B     		ldr	r3, .L739+36
 7425 218e 0022     		movs	r2, #0
 7426 2190 1A70     		strb	r2, [r3]
1708:.\main.c      **** 							lado1.estado=libre;                            
 7427              		.loc 1 1708 0
 7428 2192 4F4B     		ldr	r3, .L739+40
 7429 2194 0122     		movs	r2, #1
 7430 2196 5A70     		strb	r2, [r3, #1]
1709:.\main.c      ****                             break;                             
 7431              		.loc 1 1709 0
 7432 2198 00BF     		nop
 7433              	.L363:
 7434 219a 3BE0     		b	.L361
 7435              	.L362:
1710:.\main.c      **** 						}
ARM GAS  C:\Users\RECEPC~1\AppData\Local\Temp\cc8qeTl3.s 			page 164


1711:.\main.c      ****                     }
1712:.\main.c      ****                     else{
1713:.\main.c      **** 						write_LCD(1,0x20, posy1, ((count_teclas1*(sizeletra1+1))+posx1), sizeletra1);
 7436              		.loc 1 1713 0
 7437 219c 444B     		ldr	r3, .L739+8
 7438 219e 1B88     		ldrh	r3, [r3]	@ movhi
 7439 21a0 9DB2     		uxth	r5, r3
 7440 21a2 414B     		ldr	r3, .L739
 7441 21a4 1B78     		ldrb	r3, [r3]
 7442 21a6 DBB2     		uxtb	r3, r3
 7443 21a8 9BB2     		uxth	r3, r3
 7444 21aa 424A     		ldr	r2, .L739+12
 7445 21ac 1288     		ldrh	r2, [r2]	@ movhi
 7446 21ae 92B2     		uxth	r2, r2
 7447 21b0 0132     		adds	r2, r2, #1
 7448 21b2 92B2     		uxth	r2, r2
 7449 21b4 02FB03F3 		mul	r3, r2, r3
 7450 21b8 9AB2     		uxth	r2, r3
 7451 21ba 3F4B     		ldr	r3, .L739+16
 7452 21bc 1B88     		ldrh	r3, [r3]	@ movhi
 7453 21be 9BB2     		uxth	r3, r3
 7454 21c0 1344     		add	r3, r3, r2
 7455 21c2 9CB2     		uxth	r4, r3
 7456 21c4 3B4B     		ldr	r3, .L739+12
 7457 21c6 1B88     		ldrh	r3, [r3]	@ movhi
 7458 21c8 9BB2     		uxth	r3, r3
 7459 21ca DBB2     		uxtb	r3, r3
 7460 21cc 0093     		str	r3, [sp]
 7461 21ce 0120     		movs	r0, #1
 7462 21d0 2021     		movs	r1, #32
 7463 21d2 2A46     		mov	r2, r5
 7464 21d4 2346     		mov	r3, r4
 7465 21d6 FFF7FEFF 		bl	write_LCD
1714:.\main.c      ****                         if(Buffer_LCD1[count_teclas1]==id_coma1){
 7466              		.loc 1 1714 0
 7467 21da 334B     		ldr	r3, .L739
 7468 21dc 1B78     		ldrb	r3, [r3]
 7469 21de DBB2     		uxtb	r3, r3
 7470 21e0 1A46     		mov	r2, r3
 7471 21e2 324B     		ldr	r3, .L739+4
 7472 21e4 9B5C     		ldrb	r3, [r3, r2]
 7473 21e6 DAB2     		uxtb	r2, r3
 7474 21e8 364B     		ldr	r3, .L739+28
 7475 21ea 1B78     		ldrb	r3, [r3]
 7476 21ec DBB2     		uxtb	r3, r3
 7477 21ee 9A42     		cmp	r2, r3
 7478 21f0 02D1     		bne	.L372
1715:.\main.c      ****                             comas1=0;
 7479              		.loc 1 1715 0
 7480 21f2 334B     		ldr	r3, .L739+24
 7481 21f4 0022     		movs	r2, #0
 7482 21f6 1A70     		strb	r2, [r3]
 7483              	.L372:
1716:.\main.c      ****                         }
1717:.\main.c      **** 						Buffer_LCD1[count_teclas1]=0;
 7484              		.loc 1 1717 0
 7485 21f8 2B4B     		ldr	r3, .L739
ARM GAS  C:\Users\RECEPC~1\AppData\Local\Temp\cc8qeTl3.s 			page 165


 7486 21fa 1B78     		ldrb	r3, [r3]
 7487 21fc DBB2     		uxtb	r3, r3
 7488 21fe 1A46     		mov	r2, r3
 7489 2200 2A4B     		ldr	r3, .L739+4
 7490 2202 0021     		movs	r1, #0
 7491 2204 9954     		strb	r1, [r3, r2]
1718:.\main.c      ****                         count_teclas1--;
 7492              		.loc 1 1718 0
 7493 2206 284B     		ldr	r3, .L739
 7494 2208 1B78     		ldrb	r3, [r3]
 7495 220a DBB2     		uxtb	r3, r3
 7496 220c 013B     		subs	r3, r3, #1
 7497 220e DAB2     		uxtb	r2, r3
 7498 2210 254B     		ldr	r3, .L739
 7499 2212 1A70     		strb	r2, [r3]
 7500              	.L361:
1719:.\main.c      ****                     }
1720:.\main.c      ****                 }
1721:.\main.c      ****                 if(LCD_1_rxBuffer[3]==0x0C){								//Enter
 7501              		.loc 1 1721 0
 7502 2214 294B     		ldr	r3, .L739+20
 7503 2216 DB78     		ldrb	r3, [r3, #3]
 7504 2218 DBB2     		uxtb	r3, r3
 7505 221a 0C2B     		cmp	r3, #12
 7506 221c 40F0EA83 		bne	.L356
1722:.\main.c      **** 					switch(id_teclado1){
 7507              		.loc 1 1722 0
 7508 2220 294B     		ldr	r3, .L739+32
 7509 2222 1B78     		ldrb	r3, [r3]
 7510 2224 DBB2     		uxtb	r3, r3
 7511 2226 013B     		subs	r3, r3, #1
 7512 2228 072B     		cmp	r3, #7
 7513 222a 00F2E383 		bhi	.L356
 7514 222e 01A2     		adr	r2, .L374
 7515 2230 52F823F0 		ldr	pc, [r2, r3, lsl #2]
 7516              		.p2align 2
 7517              	.L374:
 7518 2234 55220000 		.word	.L373+1
 7519 2238 E9230000 		.word	.L375+1
 7520 223c C5240000 		.word	.L376+1
 7521 2240 3D250000 		.word	.L377+1
 7522 2244 97250000 		.word	.L378+1
 7523 2248 85260000 		.word	.L379+1
 7524 224c B7260000 		.word	.L380+1
 7525 2250 5F280000 		.word	.L381+1
 7526              		.p2align 1
 7527              	.L373:
1723:.\main.c      **** 						case 1:
1724:.\main.c      **** 							for(x=0;x<=7;x++){
 7528              		.loc 1 1724 0
 7529 2254 0023     		movs	r3, #0
 7530 2256 87F82F30 		strb	r3, [r7, #47]
 7531 225a 0CE0     		b	.L382
 7532              	.L383:
1725:.\main.c      **** 								numero[x]=0;
 7533              		.loc 1 1725 0 discriminator 3
 7534 225c 97F82F30 		ldrb	r3, [r7, #47]	@ zero_extendqisi2
ARM GAS  C:\Users\RECEPC~1\AppData\Local\Temp\cc8qeTl3.s 			page 166


 7535 2260 07F13002 		add	r2, r7, #48
 7536 2264 1344     		add	r3, r3, r2
 7537 2266 0022     		movs	r2, #0
 7538 2268 03F82C2C 		strb	r2, [r3, #-44]
1724:.\main.c      **** 								numero[x]=0;
 7539              		.loc 1 1724 0 discriminator 3
 7540 226c 97F82F30 		ldrb	r3, [r7, #47]	@ zero_extendqisi2
 7541 2270 0133     		adds	r3, r3, #1
 7542 2272 87F82F30 		strb	r3, [r7, #47]
 7543              	.L382:
1724:.\main.c      **** 								numero[x]=0;
 7544              		.loc 1 1724 0 is_stmt 0 discriminator 1
 7545 2276 97F82F30 		ldrb	r3, [r7, #47]	@ zero_extendqisi2
 7546 227a 072B     		cmp	r3, #7
 7547 227c EED9     		bls	.L383
1726:.\main.c      **** 							}						
1727:.\main.c      **** 							if((count_teclas1>=1)&&(Buffer_LCD1[count_teclas1]!=',')){
 7548              		.loc 1 1727 0 is_stmt 1
 7549 227e 0A4B     		ldr	r3, .L739
 7550 2280 1B78     		ldrb	r3, [r3]
 7551 2282 DBB2     		uxtb	r3, r3
 7552 2284 002B     		cmp	r3, #0
 7553 2286 00F0AE80 		beq	.L384
 7554              		.loc 1 1727 0 is_stmt 0 discriminator 1
 7555 228a 074B     		ldr	r3, .L739
 7556 228c 1B78     		ldrb	r3, [r3]
 7557 228e DBB2     		uxtb	r3, r3
 7558 2290 1A46     		mov	r2, r3
 7559 2292 064B     		ldr	r3, .L739+4
 7560 2294 9B5C     		ldrb	r3, [r3, r2]
 7561 2296 DBB2     		uxtb	r3, r3
 7562 2298 2C2B     		cmp	r3, #44
 7563 229a 00F0A480 		beq	.L384
1728:.\main.c      **** 								for(x=1;x<=count_teclas1;x++){
 7564              		.loc 1 1728 0 is_stmt 1
 7565 229e 0123     		movs	r3, #1
 7566 22a0 87F82F30 		strb	r3, [r7, #47]
 7567 22a4 3FE0     		b	.L385
 7568              	.L740:
 7569 22a6 00BF     		.align	2
 7570              	.L739:
 7571 22a8 00000000 		.word	count_teclas1
 7572 22ac 00000000 		.word	Buffer_LCD1
 7573 22b0 00000000 		.word	posy1
 7574 22b4 00000000 		.word	sizeletra1
 7575 22b8 00000000 		.word	posx1
 7576 22bc 00000000 		.word	LCD_1_rxBuffer
 7577 22c0 00000000 		.word	comas1
 7578 22c4 00000000 		.word	id_coma1
 7579 22c8 00000000 		.word	id_teclado1
 7580 22cc 00000000 		.word	flujo_LCD1
 7581 22d0 00000000 		.word	lado1
 7582              	.L388:
1729:.\main.c      **** 									if(Buffer_LCD1[x]!=','){
 7583              		.loc 1 1729 0
 7584 22d4 97F82F30 		ldrb	r3, [r7, #47]	@ zero_extendqisi2
 7585 22d8 B14A     		ldr	r2, .L741
ARM GAS  C:\Users\RECEPC~1\AppData\Local\Temp\cc8qeTl3.s 			page 167


 7586 22da D35C     		ldrb	r3, [r2, r3]
 7587 22dc DBB2     		uxtb	r3, r3
 7588 22de 2C2B     		cmp	r3, #44
 7589 22e0 0FD0     		beq	.L386
1730:.\main.c      **** 										numero[x-1]=Buffer_LCD1[x]+48;
 7590              		.loc 1 1730 0
 7591 22e2 97F82F30 		ldrb	r3, [r7, #47]	@ zero_extendqisi2
 7592 22e6 013B     		subs	r3, r3, #1
 7593 22e8 97F82F20 		ldrb	r2, [r7, #47]	@ zero_extendqisi2
 7594 22ec AC49     		ldr	r1, .L741
 7595 22ee 8A5C     		ldrb	r2, [r1, r2]
 7596 22f0 D2B2     		uxtb	r2, r2
 7597 22f2 3032     		adds	r2, r2, #48
 7598 22f4 D2B2     		uxtb	r2, r2
 7599 22f6 07F13001 		add	r1, r7, #48
 7600 22fa 0B44     		add	r3, r3, r1
 7601 22fc 03F82C2C 		strb	r2, [r3, #-44]
 7602 2300 0CE0     		b	.L387
 7603              	.L386:
1731:.\main.c      **** 									}
1732:.\main.c      **** 									else{
1733:.\main.c      **** 										numero[x-1]=Buffer_LCD1[x];
 7604              		.loc 1 1733 0
 7605 2302 97F82F30 		ldrb	r3, [r7, #47]	@ zero_extendqisi2
 7606 2306 013B     		subs	r3, r3, #1
 7607 2308 97F82F20 		ldrb	r2, [r7, #47]	@ zero_extendqisi2
 7608 230c A449     		ldr	r1, .L741
 7609 230e 8A5C     		ldrb	r2, [r1, r2]
 7610 2310 D2B2     		uxtb	r2, r2
 7611 2312 07F13001 		add	r1, r7, #48
 7612 2316 0B44     		add	r3, r3, r1
 7613 2318 03F82C2C 		strb	r2, [r3, #-44]
 7614              	.L387:
1728:.\main.c      **** 									if(Buffer_LCD1[x]!=','){
 7615              		.loc 1 1728 0 discriminator 2
 7616 231c 97F82F30 		ldrb	r3, [r7, #47]	@ zero_extendqisi2
 7617 2320 0133     		adds	r3, r3, #1
 7618 2322 87F82F30 		strb	r3, [r7, #47]
 7619              	.L385:
1728:.\main.c      **** 									if(Buffer_LCD1[x]!=','){
 7620              		.loc 1 1728 0 is_stmt 0 discriminator 1
 7621 2326 9F4B     		ldr	r3, .L741+4
 7622 2328 1B78     		ldrb	r3, [r3]
 7623 232a DBB2     		uxtb	r3, r3
 7624 232c 97F82F20 		ldrb	r2, [r7, #47]	@ zero_extendqisi2
 7625 2330 9A42     		cmp	r2, r3
 7626 2332 CFD9     		bls	.L388
1734:.\main.c      **** 									}
1735:.\main.c      **** 								}
1736:.\main.c      **** 								num_decimal=atof(numero);
 7627              		.loc 1 1736 0 is_stmt 1
 7628 2334 3B1D     		adds	r3, r7, #4
 7629 2336 1846     		mov	r0, r3
 7630 2338 FFF7FEFF 		bl	atof
 7631 233c C7E90801 		strd	r0, [r7, #32]
1737:.\main.c      **** 								if(((rventa1.preset[0]==1)&&(num_decimal>=5))||((rventa1.preset[0]==2)&&(num_decimal<=5)&&(
 7632              		.loc 1 1737 0
ARM GAS  C:\Users\RECEPC~1\AppData\Local\Temp\cc8qeTl3.s 			page 168


 7633 2340 994B     		ldr	r3, .L741+8
 7634 2342 DB7E     		ldrb	r3, [r3, #27]	@ zero_extendqisi2
 7635 2344 012B     		cmp	r3, #1
 7636 2346 09D1     		bne	.L389
 7637              		.loc 1 1737 0 is_stmt 0 discriminator 1
 7638 2348 D7E90801 		ldrd	r0, [r7, #32]
 7639 234c 4FF00002 		mov	r2, #0
 7640 2350 964B     		ldr	r3, .L741+12
 7641 2352 FFF7FEFF 		bl	__aeabi_dcmpge
 7642 2356 0346     		mov	r3, r0
 7643 2358 002B     		cmp	r3, #0
 7644 235a 1AD1     		bne	.L390
 7645              	.L389:
 7646              		.loc 1 1737 0 discriminator 3
 7647 235c 924B     		ldr	r3, .L741+8
 7648 235e DB7E     		ldrb	r3, [r3, #27]	@ zero_extendqisi2
 7649 2360 022B     		cmp	r3, #2
 7650 2362 40D1     		bne	.L384
 7651              		.loc 1 1737 0 discriminator 4
 7652 2364 D7E90801 		ldrd	r0, [r7, #32]
 7653 2368 4FF00002 		mov	r2, #0
 7654 236c 8F4B     		ldr	r3, .L741+12
 7655 236e FFF7FEFF 		bl	__aeabi_dcmple
 7656 2372 0346     		mov	r3, r0
 7657 2374 002B     		cmp	r3, #0
 7658 2376 00D1     		bne	.L703
1738:.\main.c      **** 									for(x=count_teclas1;x>=1;x--){
1739:.\main.c      **** 										rventa1.preset[x]=Buffer_LCD1[(count_teclas1-x)+1];
1740:.\main.c      **** 									}
1741:.\main.c      **** 									flujo_LCD1=5;								
1742:.\main.c      ****                          			lado1.estado=espera;
1743:.\main.c      **** 						            set_imagen(1,7);
1744:.\main.c      **** 								}
1745:.\main.c      **** 							}
1746:.\main.c      **** 						break;
 7659              		.loc 1 1746 0 is_stmt 1 discriminator 4
 7660 2378 3CE3     		b	.L356
 7661              	.L703:
1737:.\main.c      **** 								if(((rventa1.preset[0]==1)&&(num_decimal>=5))||((rventa1.preset[0]==2)&&(num_decimal<=5)&&(
 7662              		.loc 1 1737 0 discriminator 5
 7663 237a D7E90801 		ldrd	r0, [r7, #32]
 7664 237e 4FF00002 		mov	r2, #0
 7665 2382 4FF00003 		mov	r3, #0
 7666 2386 FFF7FEFF 		bl	__aeabi_dcmpgt
 7667 238a 0346     		mov	r3, r0
 7668 238c 002B     		cmp	r3, #0
 7669 238e 00D1     		bne	.L390
 7670              		.loc 1 1746 0 discriminator 5
 7671 2390 30E3     		b	.L356
 7672              	.L390:
1738:.\main.c      **** 									for(x=count_teclas1;x>=1;x--){
 7673              		.loc 1 1738 0
 7674 2392 844B     		ldr	r3, .L741+4
 7675 2394 1B78     		ldrb	r3, [r3]
 7676 2396 87F82F30 		strb	r3, [r7, #47]
 7677 239a 15E0     		b	.L393
 7678              	.L394:
ARM GAS  C:\Users\RECEPC~1\AppData\Local\Temp\cc8qeTl3.s 			page 169


1739:.\main.c      **** 									}
 7679              		.loc 1 1739 0 discriminator 3
 7680 239c 97F82F30 		ldrb	r3, [r7, #47]	@ zero_extendqisi2
 7681 23a0 804A     		ldr	r2, .L741+4
 7682 23a2 1278     		ldrb	r2, [r2]
 7683 23a4 D2B2     		uxtb	r2, r2
 7684 23a6 1146     		mov	r1, r2
 7685 23a8 97F82F20 		ldrb	r2, [r7, #47]	@ zero_extendqisi2
 7686 23ac 8A1A     		subs	r2, r1, r2
 7687 23ae 0132     		adds	r2, r2, #1
 7688 23b0 7B49     		ldr	r1, .L741
 7689 23b2 8A5C     		ldrb	r2, [r1, r2]
 7690 23b4 D1B2     		uxtb	r1, r2
 7691 23b6 7C4A     		ldr	r2, .L741+8
 7692 23b8 1344     		add	r3, r3, r2
 7693 23ba 0A46     		mov	r2, r1
 7694 23bc DA76     		strb	r2, [r3, #27]
1738:.\main.c      **** 									for(x=count_teclas1;x>=1;x--){
 7695              		.loc 1 1738 0 discriminator 3
 7696 23be 97F82F30 		ldrb	r3, [r7, #47]	@ zero_extendqisi2
 7697 23c2 013B     		subs	r3, r3, #1
 7698 23c4 87F82F30 		strb	r3, [r7, #47]
 7699              	.L393:
1738:.\main.c      **** 									for(x=count_teclas1;x>=1;x--){
 7700              		.loc 1 1738 0 is_stmt 0 discriminator 1
 7701 23c8 97F82F30 		ldrb	r3, [r7, #47]	@ zero_extendqisi2
 7702 23cc 002B     		cmp	r3, #0
 7703 23ce E5D1     		bne	.L394
1741:.\main.c      ****                          			lado1.estado=espera;
 7704              		.loc 1 1741 0 is_stmt 1
 7705 23d0 774B     		ldr	r3, .L741+16
 7706 23d2 0522     		movs	r2, #5
 7707 23d4 1A70     		strb	r2, [r3]
1742:.\main.c      **** 						            set_imagen(1,7);
 7708              		.loc 1 1742 0
 7709 23d6 774B     		ldr	r3, .L741+20
 7710 23d8 0222     		movs	r2, #2
 7711 23da 5A70     		strb	r2, [r3, #1]
1743:.\main.c      **** 								}
 7712              		.loc 1 1743 0
 7713 23dc 0120     		movs	r0, #1
 7714 23de 0721     		movs	r1, #7
 7715 23e0 FFF7FEFF 		bl	set_imagen
 7716              		.loc 1 1746 0
 7717 23e4 06E3     		b	.L356
 7718              	.L384:
 7719 23e6 05E3     		b	.L356
 7720              	.L375:
1747:.\main.c      **** 						case 2:	                            
1748:.\main.c      ****                             for(x=0;x<=10;x++){
 7721              		.loc 1 1748 0
 7722 23e8 0023     		movs	r3, #0
 7723 23ea 87F82F30 		strb	r3, [r7, #47]
 7724 23ee 0BE0     		b	.L395
 7725              	.L396:
1749:.\main.c      ****                               rventa1.km[x]=0;
 7726              		.loc 1 1749 0 discriminator 3
ARM GAS  C:\Users\RECEPC~1\AppData\Local\Temp\cc8qeTl3.s 			page 170


 7727 23f0 97F82F30 		ldrb	r3, [r7, #47]	@ zero_extendqisi2
 7728 23f4 6C4A     		ldr	r2, .L741+8
 7729 23f6 1344     		add	r3, r3, r2
 7730 23f8 0022     		movs	r2, #0
 7731 23fa 83F84320 		strb	r2, [r3, #67]
1748:.\main.c      ****                               rventa1.km[x]=0;
 7732              		.loc 1 1748 0 discriminator 3
 7733 23fe 97F82F30 		ldrb	r3, [r7, #47]	@ zero_extendqisi2
 7734 2402 0133     		adds	r3, r3, #1
 7735 2404 87F82F30 		strb	r3, [r7, #47]
 7736              	.L395:
1748:.\main.c      ****                               rventa1.km[x]=0;
 7737              		.loc 1 1748 0 is_stmt 0 discriminator 1
 7738 2408 97F82F30 		ldrb	r3, [r7, #47]	@ zero_extendqisi2
 7739 240c 0A2B     		cmp	r3, #10
 7740 240e EFD9     		bls	.L396
1750:.\main.c      ****                             }
1751:.\main.c      **** 							for(x=count_teclas1;x>=1;x--){
 7741              		.loc 1 1751 0 is_stmt 1
 7742 2410 644B     		ldr	r3, .L741+4
 7743 2412 1B78     		ldrb	r3, [r3]
 7744 2414 87F82F30 		strb	r3, [r7, #47]
 7745 2418 16E0     		b	.L397
 7746              	.L398:
1752:.\main.c      **** 								rventa1.km[x]=Buffer_LCD1[(count_teclas1-x)+1];
 7747              		.loc 1 1752 0 discriminator 3
 7748 241a 97F82F30 		ldrb	r3, [r7, #47]	@ zero_extendqisi2
 7749 241e 614A     		ldr	r2, .L741+4
 7750 2420 1278     		ldrb	r2, [r2]
 7751 2422 D2B2     		uxtb	r2, r2
 7752 2424 1146     		mov	r1, r2
 7753 2426 97F82F20 		ldrb	r2, [r7, #47]	@ zero_extendqisi2
 7754 242a 8A1A     		subs	r2, r1, r2
 7755 242c 0132     		adds	r2, r2, #1
 7756 242e 5C49     		ldr	r1, .L741
 7757 2430 8A5C     		ldrb	r2, [r1, r2]
 7758 2432 D1B2     		uxtb	r1, r2
 7759 2434 5C4A     		ldr	r2, .L741+8
 7760 2436 1344     		add	r3, r3, r2
 7761 2438 0A46     		mov	r2, r1
 7762 243a 83F84320 		strb	r2, [r3, #67]
1751:.\main.c      **** 								rventa1.km[x]=Buffer_LCD1[(count_teclas1-x)+1];
 7763              		.loc 1 1751 0 discriminator 3
 7764 243e 97F82F30 		ldrb	r3, [r7, #47]	@ zero_extendqisi2
 7765 2442 013B     		subs	r3, r3, #1
 7766 2444 87F82F30 		strb	r3, [r7, #47]
 7767              	.L397:
1751:.\main.c      **** 								rventa1.km[x]=Buffer_LCD1[(count_teclas1-x)+1];
 7768              		.loc 1 1751 0 is_stmt 0 discriminator 1
 7769 2448 97F82F30 		ldrb	r3, [r7, #47]	@ zero_extendqisi2
 7770 244c 002B     		cmp	r3, #0
 7771 244e E4D1     		bne	.L398
1753:.\main.c      **** 							}	                                                    
1754:.\main.c      ****                             if(seleccion_pos == 1){
 7772              		.loc 1 1754 0 is_stmt 1
 7773 2450 594B     		ldr	r3, .L741+24
 7774 2452 1B78     		ldrb	r3, [r3]
ARM GAS  C:\Users\RECEPC~1\AppData\Local\Temp\cc8qeTl3.s 			page 171


 7775 2454 DBB2     		uxtb	r3, r3
 7776 2456 012B     		cmp	r3, #1
 7777 2458 33D1     		bne	.L399
1755:.\main.c      ****             					for(x=0;x<=7;x++){
 7778              		.loc 1 1755 0
 7779 245a 0023     		movs	r3, #0
 7780 245c 87F82F30 		strb	r3, [r7, #47]
 7781 2460 0AE0     		b	.L400
 7782              	.L401:
1756:.\main.c      ****             					 	rventa1.preset[x]=0;
 7783              		.loc 1 1756 0 discriminator 3
 7784 2462 97F82F30 		ldrb	r3, [r7, #47]	@ zero_extendqisi2
 7785 2466 504A     		ldr	r2, .L741+8
 7786 2468 1344     		add	r3, r3, r2
 7787 246a 0022     		movs	r2, #0
 7788 246c DA76     		strb	r2, [r3, #27]
1755:.\main.c      ****             					for(x=0;x<=7;x++){
 7789              		.loc 1 1755 0 discriminator 3
 7790 246e 97F82F30 		ldrb	r3, [r7, #47]	@ zero_extendqisi2
 7791 2472 0133     		adds	r3, r3, #1
 7792 2474 87F82F30 		strb	r3, [r7, #47]
 7793              	.L400:
1755:.\main.c      ****             					for(x=0;x<=7;x++){
 7794              		.loc 1 1755 0 is_stmt 0 discriminator 1
 7795 2478 97F82F30 		ldrb	r3, [r7, #47]	@ zero_extendqisi2
 7796 247c 072B     		cmp	r3, #7
 7797 247e F0D9     		bls	.L401
1757:.\main.c      ****             					}
1758:.\main.c      ****                                 rventa1.preset[0]=3;					
 7798              		.loc 1 1758 0 is_stmt 1
 7799 2480 494B     		ldr	r3, .L741+8
 7800 2482 0322     		movs	r2, #3
 7801 2484 DA76     		strb	r2, [r3, #27]
1759:.\main.c      ****             					for(x=5;x<=7;x++){
 7802              		.loc 1 1759 0
 7803 2486 0523     		movs	r3, #5
 7804 2488 87F82F30 		strb	r3, [r7, #47]
 7805 248c 0AE0     		b	.L402
 7806              	.L403:
1760:.\main.c      ****             						rventa1.preset[x]=9;		
 7807              		.loc 1 1760 0 discriminator 3
 7808 248e 97F82F30 		ldrb	r3, [r7, #47]	@ zero_extendqisi2
 7809 2492 454A     		ldr	r2, .L741+8
 7810 2494 1344     		add	r3, r3, r2
 7811 2496 0922     		movs	r2, #9
 7812 2498 DA76     		strb	r2, [r3, #27]
1759:.\main.c      ****             					for(x=5;x<=7;x++){
 7813              		.loc 1 1759 0 discriminator 3
 7814 249a 97F82F30 		ldrb	r3, [r7, #47]	@ zero_extendqisi2
 7815 249e 0133     		adds	r3, r3, #1
 7816 24a0 87F82F30 		strb	r3, [r7, #47]
 7817              	.L402:
1759:.\main.c      ****             					for(x=5;x<=7;x++){
 7818              		.loc 1 1759 0 is_stmt 0 discriminator 1
 7819 24a4 97F82F30 		ldrb	r3, [r7, #47]	@ zero_extendqisi2
 7820 24a8 072B     		cmp	r3, #7
 7821 24aa F0D9     		bls	.L403
ARM GAS  C:\Users\RECEPC~1\AppData\Local\Temp\cc8qeTl3.s 			page 172


1761:.\main.c      ****             					}								                                     
1762:.\main.c      ****             		            set_imagen(1,7);
 7822              		.loc 1 1762 0 is_stmt 1
 7823 24ac 0120     		movs	r0, #1
 7824 24ae 0721     		movs	r1, #7
 7825 24b0 FFF7FEFF 		bl	set_imagen
1763:.\main.c      ****             					lado1.estado=espera;
 7826              		.loc 1 1763 0
 7827 24b4 3F4B     		ldr	r3, .L741+20
 7828 24b6 0222     		movs	r2, #2
 7829 24b8 5A70     		strb	r2, [r3, #1]
1764:.\main.c      ****                                 flujo_LCD1 = 6;  
 7830              		.loc 1 1764 0
 7831 24ba 3D4B     		ldr	r3, .L741+16
 7832 24bc 0622     		movs	r2, #6
 7833 24be 1A70     		strb	r2, [r3]
1765:.\main.c      ****                             }                                                      
1766:.\main.c      **** 						break;
 7834              		.loc 1 1766 0
 7835 24c0 98E2     		b	.L356
 7836              	.L399:
 7837 24c2 97E2     		b	.L356
 7838              	.L376:
1767:.\main.c      ****                             
1768:.\main.c      **** 						case 3:
1769:.\main.c      **** 							for(x=count_teclas1;x>=1;x--){
 7839              		.loc 1 1769 0
 7840 24c4 374B     		ldr	r3, .L741+4
 7841 24c6 1B78     		ldrb	r3, [r3]
 7842 24c8 87F82F30 		strb	r3, [r7, #47]
 7843 24cc 18E0     		b	.L404
 7844              	.L405:
1770:.\main.c      **** 								rventa1.cedula[x]=Buffer_LCD1[(count_teclas1-x)+1]+48;
 7845              		.loc 1 1770 0 discriminator 3
 7846 24ce 97F82F30 		ldrb	r3, [r7, #47]	@ zero_extendqisi2
 7847 24d2 344A     		ldr	r2, .L741+4
 7848 24d4 1278     		ldrb	r2, [r2]
 7849 24d6 D2B2     		uxtb	r2, r2
 7850 24d8 1146     		mov	r1, r2
 7851 24da 97F82F20 		ldrb	r2, [r7, #47]	@ zero_extendqisi2
 7852 24de 8A1A     		subs	r2, r1, r2
 7853 24e0 0132     		adds	r2, r2, #1
 7854 24e2 2F49     		ldr	r1, .L741
 7855 24e4 8A5C     		ldrb	r2, [r1, r2]
 7856 24e6 D2B2     		uxtb	r2, r2
 7857 24e8 3032     		adds	r2, r2, #48
 7858 24ea D1B2     		uxtb	r1, r2
 7859 24ec 2E4A     		ldr	r2, .L741+8
 7860 24ee 1344     		add	r3, r3, r2
 7861 24f0 0A46     		mov	r2, r1
 7862 24f2 83F85920 		strb	r2, [r3, #89]
1769:.\main.c      **** 								rventa1.cedula[x]=Buffer_LCD1[(count_teclas1-x)+1]+48;
 7863              		.loc 1 1769 0 discriminator 3
 7864 24f6 97F82F30 		ldrb	r3, [r7, #47]	@ zero_extendqisi2
 7865 24fa 013B     		subs	r3, r3, #1
 7866 24fc 87F82F30 		strb	r3, [r7, #47]
 7867              	.L404:
ARM GAS  C:\Users\RECEPC~1\AppData\Local\Temp\cc8qeTl3.s 			page 173


1769:.\main.c      **** 								rventa1.cedula[x]=Buffer_LCD1[(count_teclas1-x)+1]+48;
 7868              		.loc 1 1769 0 is_stmt 0 discriminator 1
 7869 2500 97F82F30 		ldrb	r3, [r7, #47]	@ zero_extendqisi2
 7870 2504 002B     		cmp	r3, #0
 7871 2506 E2D1     		bne	.L405
1771:.\main.c      **** 							}
1772:.\main.c      ****                         	flujo_LCD1=2;	
 7872              		.loc 1 1772 0 is_stmt 1
 7873 2508 294B     		ldr	r3, .L741+16
 7874 250a 0222     		movs	r2, #2
 7875 250c 1A70     		strb	r2, [r3]
1773:.\main.c      ****                         	set_imagen(1,5);
 7876              		.loc 1 1773 0
 7877 250e 0120     		movs	r0, #1
 7878 2510 0521     		movs	r1, #5
 7879 2512 FFF7FEFF 		bl	set_imagen
1774:.\main.c      **** 							count_teclas1=0;
 7880              		.loc 1 1774 0
 7881 2516 234B     		ldr	r3, .L741+4
 7882 2518 0022     		movs	r2, #0
 7883 251a 1A70     		strb	r2, [r3]
1775:.\main.c      **** 							id_teclado1=4;
 7884              		.loc 1 1775 0
 7885 251c 274B     		ldr	r3, .L741+28
 7886 251e 0422     		movs	r2, #4
 7887 2520 1A70     		strb	r2, [r3]
1776:.\main.c      **** 							teclas1=10;
 7888              		.loc 1 1776 0
 7889 2522 274B     		ldr	r3, .L741+32
 7890 2524 0A22     		movs	r2, #10
 7891 2526 1A70     		strb	r2, [r3]
1777:.\main.c      **** 							posx1=2;
 7892              		.loc 1 1777 0
 7893 2528 264B     		ldr	r3, .L741+36
 7894 252a 0222     		movs	r2, #2
 7895 252c 1A80     		strh	r2, [r3]	@ movhi
1778:.\main.c      **** 							posy1=3;
 7896              		.loc 1 1778 0
 7897 252e 264B     		ldr	r3, .L741+40
 7898 2530 0322     		movs	r2, #3
 7899 2532 1A80     		strh	r2, [r3]	@ movhi
1779:.\main.c      **** 							sizeletra1=1;								
 7900              		.loc 1 1779 0
 7901 2534 254B     		ldr	r3, .L741+44
 7902 2536 0122     		movs	r2, #1
 7903 2538 1A80     		strh	r2, [r3]	@ movhi
1780:.\main.c      **** 						break;
 7904              		.loc 1 1780 0
 7905 253a 5BE2     		b	.L356
 7906              	.L377:
1781:.\main.c      **** 						case 4:
1782:.\main.c      **** 							for(x=count_teclas1;x>=1;x--){
 7907              		.loc 1 1782 0
 7908 253c 194B     		ldr	r3, .L741+4
 7909 253e 1B78     		ldrb	r3, [r3]
 7910 2540 87F82F30 		strb	r3, [r7, #47]
 7911 2544 18E0     		b	.L406
ARM GAS  C:\Users\RECEPC~1\AppData\Local\Temp\cc8qeTl3.s 			page 174


 7912              	.L407:
1783:.\main.c      **** 								rventa1.password[x]=Buffer_LCD1[(count_teclas1-x)+1]+48;
 7913              		.loc 1 1783 0 discriminator 3
 7914 2546 97F82F30 		ldrb	r3, [r7, #47]	@ zero_extendqisi2
 7915 254a 164A     		ldr	r2, .L741+4
 7916 254c 1278     		ldrb	r2, [r2]
 7917 254e D2B2     		uxtb	r2, r2
 7918 2550 1146     		mov	r1, r2
 7919 2552 97F82F20 		ldrb	r2, [r7, #47]	@ zero_extendqisi2
 7920 2556 8A1A     		subs	r2, r1, r2
 7921 2558 0132     		adds	r2, r2, #1
 7922 255a 1149     		ldr	r1, .L741
 7923 255c 8A5C     		ldrb	r2, [r1, r2]
 7924 255e D2B2     		uxtb	r2, r2
 7925 2560 3032     		adds	r2, r2, #48
 7926 2562 D1B2     		uxtb	r1, r2
 7927 2564 104A     		ldr	r2, .L741+8
 7928 2566 1344     		add	r3, r3, r2
 7929 2568 0A46     		mov	r2, r1
 7930 256a 83F86420 		strb	r2, [r3, #100]
1782:.\main.c      **** 								rventa1.password[x]=Buffer_LCD1[(count_teclas1-x)+1]+48;
 7931              		.loc 1 1782 0 discriminator 3
 7932 256e 97F82F30 		ldrb	r3, [r7, #47]	@ zero_extendqisi2
 7933 2572 013B     		subs	r3, r3, #1
 7934 2574 87F82F30 		strb	r3, [r7, #47]
 7935              	.L406:
1782:.\main.c      **** 								rventa1.password[x]=Buffer_LCD1[(count_teclas1-x)+1]+48;
 7936              		.loc 1 1782 0 is_stmt 0 discriminator 1
 7937 2578 97F82F30 		ldrb	r3, [r7, #47]	@ zero_extendqisi2
 7938 257c 002B     		cmp	r3, #0
 7939 257e E2D1     		bne	.L407
1784:.\main.c      **** 							}
1785:.\main.c      ****                         	flujo_LCD1=102;	
 7940              		.loc 1 1785 0 is_stmt 1
 7941 2580 0B4B     		ldr	r3, .L741+16
 7942 2582 6622     		movs	r2, #102
 7943 2584 1A70     		strb	r2, [r3]
1786:.\main.c      ****                         	set_imagen(1,57);
 7944              		.loc 1 1786 0
 7945 2586 0120     		movs	r0, #1
 7946 2588 3921     		movs	r1, #57
 7947 258a FFF7FEFF 		bl	set_imagen
1787:.\main.c      **** 							lado1.estado=16;
 7948              		.loc 1 1787 0
 7949 258e 094B     		ldr	r3, .L741+20
 7950 2590 1022     		movs	r2, #16
 7951 2592 5A70     		strb	r2, [r3, #1]
1788:.\main.c      **** 						break;	
 7952              		.loc 1 1788 0
 7953 2594 2EE2     		b	.L356
 7954              	.L378:
1789:.\main.c      ****                         case 5:
1790:.\main.c      **** 							for(x=count_teclas1;x>=1;x--){
 7955              		.loc 1 1790 0
 7956 2596 034B     		ldr	r3, .L741+4
 7957 2598 1B78     		ldrb	r3, [r3]
 7958 259a 87F82F30 		strb	r3, [r7, #47]
ARM GAS  C:\Users\RECEPC~1\AppData\Local\Temp\cc8qeTl3.s 			page 175


 7959 259e 30E0     		b	.L408
 7960              	.L742:
 7961              		.align	2
 7962              	.L741:
 7963 25a0 00000000 		.word	Buffer_LCD1
 7964 25a4 00000000 		.word	count_teclas1
 7965 25a8 00000000 		.word	rventa1
 7966 25ac 00001440 		.word	1075052544
 7967 25b0 00000000 		.word	flujo_LCD1
 7968 25b4 00000000 		.word	lado1
 7969 25b8 00000000 		.word	seleccion_pos
 7970 25bc 00000000 		.word	id_teclado1
 7971 25c0 00000000 		.word	teclas1
 7972 25c4 00000000 		.word	posx1
 7973 25c8 00000000 		.word	posy1
 7974 25cc 00000000 		.word	sizeletra1
 7975              	.L409:
1791:.\main.c      **** 								rventa1.password_local[x]=Buffer_LCD1[(count_teclas1-x)+1]+48;
 7976              		.loc 1 1791 0 discriminator 3
 7977 25d0 97F82F30 		ldrb	r3, [r7, #47]	@ zero_extendqisi2
 7978 25d4 AF4A     		ldr	r2, .L743
 7979 25d6 1278     		ldrb	r2, [r2]
 7980 25d8 D2B2     		uxtb	r2, r2
 7981 25da 1146     		mov	r1, r2
 7982 25dc 97F82F20 		ldrb	r2, [r7, #47]	@ zero_extendqisi2
 7983 25e0 8A1A     		subs	r2, r1, r2
 7984 25e2 0132     		adds	r2, r2, #1
 7985 25e4 AC49     		ldr	r1, .L743+4
 7986 25e6 8A5C     		ldrb	r2, [r1, r2]
 7987 25e8 D2B2     		uxtb	r2, r2
 7988 25ea 3032     		adds	r2, r2, #48
 7989 25ec D1B2     		uxtb	r1, r2
 7990 25ee AB4A     		ldr	r2, .L743+8
 7991 25f0 1344     		add	r3, r3, r2
 7992 25f2 0A46     		mov	r2, r1
 7993 25f4 83F87120 		strb	r2, [r3, #113]
1790:.\main.c      **** 								rventa1.password_local[x]=Buffer_LCD1[(count_teclas1-x)+1]+48;
 7994              		.loc 1 1790 0 discriminator 3
 7995 25f8 97F82F30 		ldrb	r3, [r7, #47]	@ zero_extendqisi2
 7996 25fc 013B     		subs	r3, r3, #1
 7997 25fe 87F82F30 		strb	r3, [r7, #47]
 7998              	.L408:
1790:.\main.c      **** 								rventa1.password_local[x]=Buffer_LCD1[(count_teclas1-x)+1]+48;
 7999              		.loc 1 1790 0 is_stmt 0 discriminator 1
 8000 2602 97F82F30 		ldrb	r3, [r7, #47]	@ zero_extendqisi2
 8001 2606 002B     		cmp	r3, #0
 8002 2608 E2D1     		bne	.L409
1792:.\main.c      **** 							}
1793:.\main.c      ****                             if(clave_local[0]==rventa1.password_local[4] && clave_local[1]==rventa1
 8003              		.loc 1 1793 0 is_stmt 1
 8004 260a A54B     		ldr	r3, .L743+12
 8005 260c 1A78     		ldrb	r2, [r3]	@ zero_extendqisi2
 8006 260e A34B     		ldr	r3, .L743+8
 8007 2610 93F87530 		ldrb	r3, [r3, #117]	@ zero_extendqisi2
 8008 2614 9A42     		cmp	r2, r3
 8009 2616 23D1     		bne	.L410
 8010              		.loc 1 1793 0 is_stmt 0 discriminator 1
ARM GAS  C:\Users\RECEPC~1\AppData\Local\Temp\cc8qeTl3.s 			page 176


 8011 2618 A14B     		ldr	r3, .L743+12
 8012 261a 5A78     		ldrb	r2, [r3, #1]	@ zero_extendqisi2
 8013 261c 9F4B     		ldr	r3, .L743+8
 8014 261e 93F87430 		ldrb	r3, [r3, #116]	@ zero_extendqisi2
 8015 2622 9A42     		cmp	r2, r3
 8016 2624 1CD1     		bne	.L410
 8017              		.loc 1 1793 0 discriminator 2
 8018 2626 9E4B     		ldr	r3, .L743+12
 8019 2628 9A78     		ldrb	r2, [r3, #2]	@ zero_extendqisi2
 8020 262a 9C4B     		ldr	r3, .L743+8
 8021 262c 93F87330 		ldrb	r3, [r3, #115]	@ zero_extendqisi2
 8022 2630 9A42     		cmp	r2, r3
 8023 2632 15D1     		bne	.L410
 8024              		.loc 1 1793 0 discriminator 3
 8025 2634 9A4B     		ldr	r3, .L743+12
 8026 2636 DA78     		ldrb	r2, [r3, #3]	@ zero_extendqisi2
 8027 2638 984B     		ldr	r3, .L743+8
 8028 263a 93F87230 		ldrb	r3, [r3, #114]	@ zero_extendqisi2
 8029 263e 9A42     		cmp	r2, r3
 8030 2640 0ED1     		bne	.L410
1794:.\main.c      ****                         	    set_imagen(1,38); 
 8031              		.loc 1 1794 0 is_stmt 1
 8032 2642 0120     		movs	r0, #1
 8033 2644 2621     		movs	r1, #38
 8034 2646 FFF7FEFF 		bl	set_imagen
1795:.\main.c      ****                                 CyDelay(200);
 8035              		.loc 1 1795 0
 8036 264a C820     		movs	r0, #200
 8037 264c FFF7FEFF 		bl	CyDelay
1796:.\main.c      **** 							    set_imagen(1,70);  
 8038              		.loc 1 1796 0
 8039 2650 0120     		movs	r0, #1
 8040 2652 4621     		movs	r1, #70
 8041 2654 FFF7FEFF 		bl	set_imagen
1797:.\main.c      ****                                 flujo_LCD1 = 16;
 8042              		.loc 1 1797 0
 8043 2658 924B     		ldr	r3, .L743+16
 8044 265a 1022     		movs	r2, #16
 8045 265c 1A70     		strb	r2, [r3]
1798:.\main.c      ****                             }else{
1799:.\main.c      ****                         	    flujo_LCD1=0;	
1800:.\main.c      ****                         	    set_imagen(1,39); 
1801:.\main.c      **** 							    lado1.estado=libre;                                 
1802:.\main.c      ****                                 CyDelay(200);
1803:.\main.c      **** 							    set_imagen(1,0);                                 
1804:.\main.c      ****                             }
1805:.\main.c      ****                         break; 
 8046              		.loc 1 1805 0
 8047 265e C9E1     		b	.L356
 8048              	.L410:
1799:.\main.c      ****                         	    set_imagen(1,39); 
 8049              		.loc 1 1799 0
 8050 2660 904B     		ldr	r3, .L743+16
 8051 2662 0022     		movs	r2, #0
 8052 2664 1A70     		strb	r2, [r3]
1800:.\main.c      **** 							    lado1.estado=libre;                                 
 8053              		.loc 1 1800 0
ARM GAS  C:\Users\RECEPC~1\AppData\Local\Temp\cc8qeTl3.s 			page 177


 8054 2666 0120     		movs	r0, #1
 8055 2668 2721     		movs	r1, #39
 8056 266a FFF7FEFF 		bl	set_imagen
1801:.\main.c      ****                                 CyDelay(200);
 8057              		.loc 1 1801 0
 8058 266e 8E4B     		ldr	r3, .L743+20
 8059 2670 0122     		movs	r2, #1
 8060 2672 5A70     		strb	r2, [r3, #1]
1802:.\main.c      **** 							    set_imagen(1,0);                                 
 8061              		.loc 1 1802 0
 8062 2674 C820     		movs	r0, #200
 8063 2676 FFF7FEFF 		bl	CyDelay
1803:.\main.c      ****                             }
 8064              		.loc 1 1803 0
 8065 267a 0120     		movs	r0, #1
 8066 267c 0021     		movs	r1, #0
 8067 267e FFF7FEFF 		bl	set_imagen
 8068              		.loc 1 1805 0
 8069 2682 B7E1     		b	.L356
 8070              	.L379:
1806:.\main.c      ****                         case 6:                        
1807:.\main.c      **** 						    EEPROM_WriteByte(Buffer_LCD1[count_teclas1],30);
 8071              		.loc 1 1807 0
 8072 2684 834B     		ldr	r3, .L743
 8073 2686 1B78     		ldrb	r3, [r3]
 8074 2688 DBB2     		uxtb	r3, r3
 8075 268a 1A46     		mov	r2, r3
 8076 268c 824B     		ldr	r3, .L743+4
 8077 268e 9B5C     		ldrb	r3, [r3, r2]
 8078 2690 DBB2     		uxtb	r3, r3
 8079 2692 1846     		mov	r0, r3
 8080 2694 1E21     		movs	r1, #30
 8081 2696 FFF7FEFF 		bl	EEPROM_WriteByte
1808:.\main.c      ****                         	flujo_LCD1 = 0;	
 8082              		.loc 1 1808 0
 8083 269a 824B     		ldr	r3, .L743+16
 8084 269c 0022     		movs	r2, #0
 8085 269e 1A70     		strb	r2, [r3]
1809:.\main.c      ****                         	set_imagen(1,60);
 8086              		.loc 1 1809 0
 8087 26a0 0120     		movs	r0, #1
 8088 26a2 3C21     		movs	r1, #60
 8089 26a4 FFF7FEFF 		bl	set_imagen
1810:.\main.c      ****                             CyDelay(200);
 8090              		.loc 1 1810 0
 8091 26a8 C820     		movs	r0, #200
 8092 26aa FFF7FEFF 		bl	CyDelay
1811:.\main.c      **** 							lado1.estado=libre;                                                     
 8093              		.loc 1 1811 0
 8094 26ae 7E4B     		ldr	r3, .L743+20
 8095 26b0 0122     		movs	r2, #1
 8096 26b2 5A70     		strb	r2, [r3, #1]
1812:.\main.c      ****                         break;   
 8097              		.loc 1 1812 0
 8098 26b4 9EE1     		b	.L356
 8099              	.L380:
1813:.\main.c      ****                         case 7:
ARM GAS  C:\Users\RECEPC~1\AppData\Local\Temp\cc8qeTl3.s 			page 178


1814:.\main.c      ****                             flujo_LCD1=18;
 8100              		.loc 1 1814 0
 8101 26b6 7B4B     		ldr	r3, .L743+16
 8102 26b8 1222     		movs	r2, #18
 8103 26ba 1A70     		strb	r2, [r3]
1815:.\main.c      ****                             set_imagen(1,88);
 8104              		.loc 1 1815 0
 8105 26bc 0120     		movs	r0, #1
 8106 26be 5821     		movs	r1, #88
 8107 26c0 FFF7FEFF 		bl	set_imagen
1816:.\main.c      ****                             switch(Producto){
 8108              		.loc 1 1816 0
 8109 26c4 794B     		ldr	r3, .L743+24
 8110 26c6 1B78     		ldrb	r3, [r3]	@ zero_extendqisi2
 8111 26c8 013B     		subs	r3, r3, #1
 8112 26ca 032B     		cmp	r3, #3
 8113 26cc 00F29880 		bhi	.L412
 8114 26d0 01A2     		adr	r2, .L414
 8115 26d2 52F823F0 		ldr	pc, [r2, r3, lsl #2]
 8116 26d6 00BF     		.p2align 2
 8117              	.L414:
 8118 26d8 E9260000 		.word	.L413+1
 8119 26dc 2F270000 		.word	.L415+1
 8120 26e0 75270000 		.word	.L416+1
 8121 26e4 BB270000 		.word	.L417+1
 8122              		.p2align 1
 8123              	.L413:
1817:.\main.c      ****                                 case 1:// 1=diesel, siempre para Autogas, 
1818:.\main.c      ****                                     Productos[0]=Buffer_LCD1[1]+48;//para la estacion seria el digi
 8124              		.loc 1 1818 0
 8125 26e8 6B4B     		ldr	r3, .L743+4
 8126 26ea 5B78     		ldrb	r3, [r3, #1]
 8127 26ec DBB2     		uxtb	r3, r3
 8128 26ee 3033     		adds	r3, r3, #48
 8129 26f0 DAB2     		uxtb	r2, r3
 8130 26f2 6F4B     		ldr	r3, .L743+28
 8131 26f4 1A70     		strb	r2, [r3]
1819:.\main.c      ****                                     switch(Productos[0]){
 8132              		.loc 1 1819 0
 8133 26f6 6E4B     		ldr	r3, .L743+28
 8134 26f8 1B78     		ldrb	r3, [r3]	@ zero_extendqisi2
 8135 26fa 322B     		cmp	r3, #50
 8136 26fc 08D0     		beq	.L419
 8137 26fe 332B     		cmp	r3, #51
 8138 2700 0BD0     		beq	.L420
 8139 2702 312B     		cmp	r3, #49
 8140 2704 0ED1     		bne	.L705
1820:.\main.c      ****                                         case '1':
1821:.\main.c      ****                                         lado1.grado[0][0]=1;                                       
 8141              		.loc 1 1821 0
 8142 2706 684B     		ldr	r3, .L743+20
 8143 2708 0122     		movs	r2, #1
 8144 270a 83F85920 		strb	r2, [r3, #89]
1822:.\main.c      ****                                         break;
 8145              		.loc 1 1822 0
 8146 270e 0DE0     		b	.L422
 8147              	.L419:
ARM GAS  C:\Users\RECEPC~1\AppData\Local\Temp\cc8qeTl3.s 			page 179


1823:.\main.c      ****                                         case '2':
1824:.\main.c      ****                                         lado1.grado[1][0]=1;                                       
 8148              		.loc 1 1824 0
 8149 2710 654B     		ldr	r3, .L743+20
 8150 2712 0122     		movs	r2, #1
 8151 2714 83F85A20 		strb	r2, [r3, #90]
1825:.\main.c      ****                                         break;
 8152              		.loc 1 1825 0
 8153 2718 08E0     		b	.L422
 8154              	.L420:
1826:.\main.c      ****                                         case '3':
1827:.\main.c      ****                                         lado1.grado[2][0]=1;                                       
 8155              		.loc 1 1827 0
 8156 271a 634B     		ldr	r3, .L743+20
 8157 271c 0122     		movs	r2, #1
 8158 271e 83F85B20 		strb	r2, [r3, #91]
1828:.\main.c      ****                                         break;                    
 8159              		.loc 1 1828 0
 8160 2722 03E0     		b	.L422
 8161              	.L705:
1829:.\main.c      ****                                         default:
1830:.\main.c      ****                                         producto1 = 0;
 8162              		.loc 1 1830 0
 8163 2724 634B     		ldr	r3, .L743+32
 8164 2726 0022     		movs	r2, #0
 8165 2728 1A70     		strb	r2, [r3]
1831:.\main.c      ****                                         break;
 8166              		.loc 1 1831 0
 8167 272a 00BF     		nop
 8168              	.L422:
1832:.\main.c      ****                                     }                                   
1833:.\main.c      ****                                 break;
 8169              		.loc 1 1833 0
 8170 272c 68E0     		b	.L412
 8171              	.L415:
1834:.\main.c      ****                                 case 2:// 2=corriente, siempre para Autogas,
1835:.\main.c      ****                                     Productos[1]=Buffer_LCD1[1]+48;
 8172              		.loc 1 1835 0
 8173 272e 5A4B     		ldr	r3, .L743+4
 8174 2730 5B78     		ldrb	r3, [r3, #1]
 8175 2732 DBB2     		uxtb	r3, r3
 8176 2734 3033     		adds	r3, r3, #48
 8177 2736 DAB2     		uxtb	r2, r3
 8178 2738 5D4B     		ldr	r3, .L743+28
 8179 273a 5A70     		strb	r2, [r3, #1]
1836:.\main.c      ****                                     switch(Productos[1]){
 8180              		.loc 1 1836 0
 8181 273c 5C4B     		ldr	r3, .L743+28
 8182 273e 5B78     		ldrb	r3, [r3, #1]	@ zero_extendqisi2
 8183 2740 322B     		cmp	r3, #50
 8184 2742 08D0     		beq	.L424
 8185 2744 332B     		cmp	r3, #51
 8186 2746 0BD0     		beq	.L425
 8187 2748 312B     		cmp	r3, #49
 8188 274a 0ED1     		bne	.L706
1837:.\main.c      ****                                         case '1':
1838:.\main.c      ****                                         lado1.grado[0][0]=2;                                       
ARM GAS  C:\Users\RECEPC~1\AppData\Local\Temp\cc8qeTl3.s 			page 180


 8189              		.loc 1 1838 0
 8190 274c 564B     		ldr	r3, .L743+20
 8191 274e 0222     		movs	r2, #2
 8192 2750 83F85920 		strb	r2, [r3, #89]
1839:.\main.c      ****                                         break;
 8193              		.loc 1 1839 0
 8194 2754 0DE0     		b	.L427
 8195              	.L424:
1840:.\main.c      ****                                         case '2':
1841:.\main.c      ****                                         lado1.grado[1][0]=2;                                       
 8196              		.loc 1 1841 0
 8197 2756 544B     		ldr	r3, .L743+20
 8198 2758 0222     		movs	r2, #2
 8199 275a 83F85A20 		strb	r2, [r3, #90]
1842:.\main.c      ****                                         break;
 8200              		.loc 1 1842 0
 8201 275e 08E0     		b	.L427
 8202              	.L425:
1843:.\main.c      ****                                         case '3':
1844:.\main.c      ****                                         lado1.grado[2][0]=2;                                       
 8203              		.loc 1 1844 0
 8204 2760 514B     		ldr	r3, .L743+20
 8205 2762 0222     		movs	r2, #2
 8206 2764 83F85B20 		strb	r2, [r3, #91]
1845:.\main.c      ****                                         break; 
 8207              		.loc 1 1845 0
 8208 2768 03E0     		b	.L427
 8209              	.L706:
1846:.\main.c      ****                                         default:
1847:.\main.c      ****                                         producto2=0;
 8210              		.loc 1 1847 0
 8211 276a 534B     		ldr	r3, .L743+36
 8212 276c 0022     		movs	r2, #0
 8213 276e 1A70     		strb	r2, [r3]
1848:.\main.c      ****                                         break;                                        
 8214              		.loc 1 1848 0
 8215 2770 00BF     		nop
 8216              	.L427:
1849:.\main.c      ****                                     }                                      
1850:.\main.c      ****                                 break;
 8217              		.loc 1 1850 0
 8218 2772 45E0     		b	.L412
 8219              	.L416:
1851:.\main.c      ****                                 case 3:// 3=extra, siempre para Autogas,
1852:.\main.c      ****                                     Productos[2]=Buffer_LCD1[1]+48;
 8220              		.loc 1 1852 0
 8221 2774 484B     		ldr	r3, .L743+4
 8222 2776 5B78     		ldrb	r3, [r3, #1]
 8223 2778 DBB2     		uxtb	r3, r3
 8224 277a 3033     		adds	r3, r3, #48
 8225 277c DAB2     		uxtb	r2, r3
 8226 277e 4C4B     		ldr	r3, .L743+28
 8227 2780 9A70     		strb	r2, [r3, #2]
1853:.\main.c      ****                                     switch(Productos[2]){
 8228              		.loc 1 1853 0
 8229 2782 4B4B     		ldr	r3, .L743+28
 8230 2784 9B78     		ldrb	r3, [r3, #2]	@ zero_extendqisi2
ARM GAS  C:\Users\RECEPC~1\AppData\Local\Temp\cc8qeTl3.s 			page 181


 8231 2786 322B     		cmp	r3, #50
 8232 2788 08D0     		beq	.L429
 8233 278a 332B     		cmp	r3, #51
 8234 278c 0BD0     		beq	.L430
 8235 278e 312B     		cmp	r3, #49
 8236 2790 0ED1     		bne	.L707
1854:.\main.c      ****                                         case '1':
1855:.\main.c      ****                                         lado1.grado[0][0]=3;                                       
 8237              		.loc 1 1855 0
 8238 2792 454B     		ldr	r3, .L743+20
 8239 2794 0322     		movs	r2, #3
 8240 2796 83F85920 		strb	r2, [r3, #89]
1856:.\main.c      ****                                         break;
 8241              		.loc 1 1856 0
 8242 279a 0DE0     		b	.L432
 8243              	.L429:
1857:.\main.c      ****                                         case '2':
1858:.\main.c      ****                                         lado1.grado[1][0]=3;                                       
 8244              		.loc 1 1858 0
 8245 279c 424B     		ldr	r3, .L743+20
 8246 279e 0322     		movs	r2, #3
 8247 27a0 83F85A20 		strb	r2, [r3, #90]
1859:.\main.c      ****                                         break;
 8248              		.loc 1 1859 0
 8249 27a4 08E0     		b	.L432
 8250              	.L430:
1860:.\main.c      ****                                         case '3':
1861:.\main.c      ****                                         lado1.grado[2][0]=3;                                       
 8251              		.loc 1 1861 0
 8252 27a6 404B     		ldr	r3, .L743+20
 8253 27a8 0322     		movs	r2, #3
 8254 27aa 83F85B20 		strb	r2, [r3, #91]
1862:.\main.c      ****                                         break; 
 8255              		.loc 1 1862 0
 8256 27ae 03E0     		b	.L432
 8257              	.L707:
1863:.\main.c      ****                                         default:
1864:.\main.c      ****                                         producto3=0;
 8258              		.loc 1 1864 0
 8259 27b0 424B     		ldr	r3, .L743+40
 8260 27b2 0022     		movs	r2, #0
 8261 27b4 1A70     		strb	r2, [r3]
1865:.\main.c      ****                                         break;                                        
 8262              		.loc 1 1865 0
 8263 27b6 00BF     		nop
 8264              	.L432:
1866:.\main.c      ****                                     }                                      
1867:.\main.c      ****                                 break;
 8265              		.loc 1 1867 0
 8266 27b8 22E0     		b	.L412
 8267              	.L417:
1868:.\main.c      ****                                 case 4:// 4=supreme diesel, siempre para Autogas,
1869:.\main.c      ****                                     Productos[3]=Buffer_LCD1[1]+48;
 8268              		.loc 1 1869 0
 8269 27ba 374B     		ldr	r3, .L743+4
 8270 27bc 5B78     		ldrb	r3, [r3, #1]
 8271 27be DBB2     		uxtb	r3, r3
ARM GAS  C:\Users\RECEPC~1\AppData\Local\Temp\cc8qeTl3.s 			page 182


 8272 27c0 3033     		adds	r3, r3, #48
 8273 27c2 DAB2     		uxtb	r2, r3
 8274 27c4 3A4B     		ldr	r3, .L743+28
 8275 27c6 DA70     		strb	r2, [r3, #3]
1870:.\main.c      ****                                     switch(Productos[3]){
 8276              		.loc 1 1870 0
 8277 27c8 394B     		ldr	r3, .L743+28
 8278 27ca DB78     		ldrb	r3, [r3, #3]	@ zero_extendqisi2
 8279 27cc 322B     		cmp	r3, #50
 8280 27ce 08D0     		beq	.L434
 8281 27d0 332B     		cmp	r3, #51
 8282 27d2 0BD0     		beq	.L435
 8283 27d4 312B     		cmp	r3, #49
 8284 27d6 0ED1     		bne	.L708
1871:.\main.c      ****                                         case '1':
1872:.\main.c      ****                                         lado1.grado[0][0]=4;                                       
 8285              		.loc 1 1872 0
 8286 27d8 334B     		ldr	r3, .L743+20
 8287 27da 0422     		movs	r2, #4
 8288 27dc 83F85920 		strb	r2, [r3, #89]
1873:.\main.c      ****                                         break;
 8289              		.loc 1 1873 0
 8290 27e0 0DE0     		b	.L437
 8291              	.L434:
1874:.\main.c      ****                                         case '2':
1875:.\main.c      ****                                         lado1.grado[1][0]=4;                                       
 8292              		.loc 1 1875 0
 8293 27e2 314B     		ldr	r3, .L743+20
 8294 27e4 0422     		movs	r2, #4
 8295 27e6 83F85A20 		strb	r2, [r3, #90]
1876:.\main.c      ****                                         break;
 8296              		.loc 1 1876 0
 8297 27ea 08E0     		b	.L437
 8298              	.L435:
1877:.\main.c      ****                                         case '3':
1878:.\main.c      ****                                         lado1.grado[2][0]=4;                                       
 8299              		.loc 1 1878 0
 8300 27ec 2E4B     		ldr	r3, .L743+20
 8301 27ee 0422     		movs	r2, #4
 8302 27f0 83F85B20 		strb	r2, [r3, #91]
1879:.\main.c      ****                                         break;
 8303              		.loc 1 1879 0
 8304 27f4 03E0     		b	.L437
 8305              	.L708:
1880:.\main.c      ****                                         default:
1881:.\main.c      ****                                         producto4=0;
 8306              		.loc 1 1881 0
 8307 27f6 324B     		ldr	r3, .L743+44
 8308 27f8 0022     		movs	r2, #0
 8309 27fa 1A70     		strb	r2, [r3]
1882:.\main.c      ****                                         break;                                      
 8310              		.loc 1 1882 0
 8311 27fc 00BF     		nop
 8312              	.L437:
1883:.\main.c      ****                                     }                                      
1884:.\main.c      ****                                 break;                                    
 8313              		.loc 1 1884 0
ARM GAS  C:\Users\RECEPC~1\AppData\Local\Temp\cc8qeTl3.s 			page 183


 8314 27fe 00BF     		nop
 8315              	.L412:
1885:.\main.c      ****                             }
1886:.\main.c      ****                             write_LCD(1,Productos[0], 7, 44, 1);
 8316              		.loc 1 1886 0
 8317 2800 2B4B     		ldr	r3, .L743+28
 8318 2802 1A78     		ldrb	r2, [r3]	@ zero_extendqisi2
 8319 2804 0123     		movs	r3, #1
 8320 2806 0093     		str	r3, [sp]
 8321 2808 0120     		movs	r0, #1
 8322 280a 1146     		mov	r1, r2
 8323 280c 0722     		movs	r2, #7
 8324 280e 2C23     		movs	r3, #44
 8325 2810 FFF7FEFF 		bl	write_LCD
1887:.\main.c      ****                             write_LCD(1,Productos[1], 14, 44, 1); 
 8326              		.loc 1 1887 0
 8327 2814 264B     		ldr	r3, .L743+28
 8328 2816 5A78     		ldrb	r2, [r3, #1]	@ zero_extendqisi2
 8329 2818 0123     		movs	r3, #1
 8330 281a 0093     		str	r3, [sp]
 8331 281c 0120     		movs	r0, #1
 8332 281e 1146     		mov	r1, r2
 8333 2820 0E22     		movs	r2, #14
 8334 2822 2C23     		movs	r3, #44
 8335 2824 FFF7FEFF 		bl	write_LCD
1888:.\main.c      ****                             write_LCD(1,Productos[2], 19, 44, 1);
 8336              		.loc 1 1888 0
 8337 2828 214B     		ldr	r3, .L743+28
 8338 282a 9A78     		ldrb	r2, [r3, #2]	@ zero_extendqisi2
 8339 282c 0123     		movs	r3, #1
 8340 282e 0093     		str	r3, [sp]
 8341 2830 0120     		movs	r0, #1
 8342 2832 1146     		mov	r1, r2
 8343 2834 1322     		movs	r2, #19
 8344 2836 2C23     		movs	r3, #44
 8345 2838 FFF7FEFF 		bl	write_LCD
1889:.\main.c      ****                             write_LCD(1,Productos[3], 25, 44, 1); 
 8346              		.loc 1 1889 0
 8347 283c 1C4B     		ldr	r3, .L743+28
 8348 283e DA78     		ldrb	r2, [r3, #3]	@ zero_extendqisi2
 8349 2840 0123     		movs	r3, #1
 8350 2842 0093     		str	r3, [sp]
 8351 2844 0120     		movs	r0, #1
 8352 2846 1146     		mov	r1, r2
 8353 2848 1922     		movs	r2, #25
 8354 284a 2C23     		movs	r3, #44
 8355 284c FFF7FEFF 		bl	write_LCD
1890:.\main.c      **** 							lado1.estado=libre;                                 
 8356              		.loc 1 1890 0
 8357 2850 154B     		ldr	r3, .L743+20
 8358 2852 0122     		movs	r2, #1
 8359 2854 5A70     		strb	r2, [r3, #1]
1891:.\main.c      ****                             CyDelay(200);                             
 8360              		.loc 1 1891 0
 8361 2856 C820     		movs	r0, #200
 8362 2858 FFF7FEFF 		bl	CyDelay
1892:.\main.c      ****                         break;          
ARM GAS  C:\Users\RECEPC~1\AppData\Local\Temp\cc8qeTl3.s 			page 184


 8363              		.loc 1 1892 0
 8364 285c CAE0     		b	.L356
 8365              	.L381:
1893:.\main.c      ****                         case 8:
1894:.\main.c      ****                             for(x=1;x<=4;x++){
 8366              		.loc 1 1894 0
 8367 285e 0123     		movs	r3, #1
 8368 2860 87F82F30 		strb	r3, [r7, #47]
 8369 2864 09E0     		b	.L438
 8370              	.L439:
1895:.\main.c      ****                               id_estacion[x]=0;
 8371              		.loc 1 1895 0 discriminator 3
 8372 2866 97F82F30 		ldrb	r3, [r7, #47]	@ zero_extendqisi2
 8373 286a 164A     		ldr	r2, .L743+48
 8374 286c 0021     		movs	r1, #0
 8375 286e D154     		strb	r1, [r2, r3]
1894:.\main.c      ****                               id_estacion[x]=0;
 8376              		.loc 1 1894 0 discriminator 3
 8377 2870 97F82F30 		ldrb	r3, [r7, #47]	@ zero_extendqisi2
 8378 2874 0133     		adds	r3, r3, #1
 8379 2876 87F82F30 		strb	r3, [r7, #47]
 8380              	.L438:
1894:.\main.c      ****                               id_estacion[x]=0;
 8381              		.loc 1 1894 0 is_stmt 0 discriminator 1
 8382 287a 97F82F30 		ldrb	r3, [r7, #47]	@ zero_extendqisi2
 8383 287e 042B     		cmp	r3, #4
 8384 2880 F1D9     		bls	.L439
1896:.\main.c      ****                             }
1897:.\main.c      ****                             id_estacion[0]=4;
 8385              		.loc 1 1897 0 is_stmt 1
 8386 2882 104B     		ldr	r3, .L743+48
 8387 2884 0422     		movs	r2, #4
 8388 2886 1A70     		strb	r2, [r3]
1898:.\main.c      **** 							for(x=count_teclas1;x>=1;x--){
 8389              		.loc 1 1898 0
 8390 2888 024B     		ldr	r3, .L743
 8391 288a 1B78     		ldrb	r3, [r3]
 8392 288c 87F82F30 		strb	r3, [r7, #47]
 8393 2890 30E0     		b	.L440
 8394              	.L744:
 8395 2892 00BF     		.align	2
 8396              	.L743:
 8397 2894 00000000 		.word	count_teclas1
 8398 2898 00000000 		.word	Buffer_LCD1
 8399 289c 00000000 		.word	rventa1
 8400 28a0 00000000 		.word	clave_local
 8401 28a4 00000000 		.word	flujo_LCD1
 8402 28a8 00000000 		.word	lado1
 8403 28ac 00000000 		.word	Producto
 8404 28b0 00000000 		.word	Productos
 8405 28b4 00000000 		.word	producto1
 8406 28b8 00000000 		.word	producto2
 8407 28bc 00000000 		.word	producto3
 8408 28c0 00000000 		.word	producto4
 8409 28c4 00000000 		.word	id_estacion
 8410              	.L441:
1899:.\main.c      **** 								id_estacion[x]=Buffer_LCD1[(count_teclas1-x)+1]+0X30;
ARM GAS  C:\Users\RECEPC~1\AppData\Local\Temp\cc8qeTl3.s 			page 185


 8411              		.loc 1 1899 0 discriminator 3
 8412 28c8 97F82F30 		ldrb	r3, [r7, #47]	@ zero_extendqisi2
 8413 28cc 864A     		ldr	r2, .L745
 8414 28ce 1278     		ldrb	r2, [r2]
 8415 28d0 D2B2     		uxtb	r2, r2
 8416 28d2 1146     		mov	r1, r2
 8417 28d4 97F82F20 		ldrb	r2, [r7, #47]	@ zero_extendqisi2
 8418 28d8 8A1A     		subs	r2, r1, r2
 8419 28da 0132     		adds	r2, r2, #1
 8420 28dc 8349     		ldr	r1, .L745+4
 8421 28de 8A5C     		ldrb	r2, [r1, r2]
 8422 28e0 D2B2     		uxtb	r2, r2
 8423 28e2 3032     		adds	r2, r2, #48
 8424 28e4 D1B2     		uxtb	r1, r2
 8425 28e6 824A     		ldr	r2, .L745+8
 8426 28e8 D154     		strb	r1, [r2, r3]
1898:.\main.c      **** 							for(x=count_teclas1;x>=1;x--){
 8427              		.loc 1 1898 0 discriminator 3
 8428 28ea 97F82F30 		ldrb	r3, [r7, #47]	@ zero_extendqisi2
 8429 28ee 013B     		subs	r3, r3, #1
 8430 28f0 87F82F30 		strb	r3, [r7, #47]
 8431              	.L440:
1898:.\main.c      **** 							for(x=count_teclas1;x>=1;x--){
 8432              		.loc 1 1898 0 is_stmt 0 discriminator 1
 8433 28f4 97F82F30 		ldrb	r3, [r7, #47]	@ zero_extendqisi2
 8434 28f8 002B     		cmp	r3, #0
 8435 28fa E5D1     		bne	.L441
1900:.\main.c      **** 							}                            
1901:.\main.c      ****                             if(id_estacion[1]>=0x30 && id_estacion[2]<0x30 && id_estacion[3]<0x30 &
 8436              		.loc 1 1901 0 is_stmt 1
 8437 28fc 7C4B     		ldr	r3, .L745+8
 8438 28fe 5B78     		ldrb	r3, [r3, #1]
 8439 2900 DBB2     		uxtb	r3, r3
 8440 2902 2F2B     		cmp	r3, #47
 8441 2904 17D9     		bls	.L442
 8442              		.loc 1 1901 0 is_stmt 0 discriminator 1
 8443 2906 7A4B     		ldr	r3, .L745+8
 8444 2908 9B78     		ldrb	r3, [r3, #2]
 8445 290a DBB2     		uxtb	r3, r3
 8446 290c 2F2B     		cmp	r3, #47
 8447 290e 12D8     		bhi	.L442
 8448              		.loc 1 1901 0 discriminator 2
 8449 2910 774B     		ldr	r3, .L745+8
 8450 2912 DB78     		ldrb	r3, [r3, #3]
 8451 2914 DBB2     		uxtb	r3, r3
 8452 2916 2F2B     		cmp	r3, #47
 8453 2918 0DD8     		bhi	.L442
 8454              		.loc 1 1901 0 discriminator 3
 8455 291a 754B     		ldr	r3, .L745+8
 8456 291c 1B79     		ldrb	r3, [r3, #4]
 8457 291e DBB2     		uxtb	r3, r3
 8458 2920 2F2B     		cmp	r3, #47
 8459 2922 08D8     		bhi	.L442
1902:.\main.c      ****                                 id_estacion[2]='0';
 8460              		.loc 1 1902 0 is_stmt 1
 8461 2924 724B     		ldr	r3, .L745+8
 8462 2926 3022     		movs	r2, #48
ARM GAS  C:\Users\RECEPC~1\AppData\Local\Temp\cc8qeTl3.s 			page 186


 8463 2928 9A70     		strb	r2, [r3, #2]
1903:.\main.c      ****                                 id_estacion[3]='0';
 8464              		.loc 1 1903 0
 8465 292a 714B     		ldr	r3, .L745+8
 8466 292c 3022     		movs	r2, #48
 8467 292e DA70     		strb	r2, [r3, #3]
1904:.\main.c      ****                                 id_estacion[4]='0';                                
 8468              		.loc 1 1904 0
 8469 2930 6F4B     		ldr	r3, .L745+8
 8470 2932 3022     		movs	r2, #48
 8471 2934 1A71     		strb	r2, [r3, #4]
 8472              	.L442:
1905:.\main.c      ****                             }
1906:.\main.c      ****                             if(id_estacion[1]>=0x30 && id_estacion[2]>=0x30 && id_estacion[3]<0x30 
 8473              		.loc 1 1906 0
 8474 2936 6E4B     		ldr	r3, .L745+8
 8475 2938 5B78     		ldrb	r3, [r3, #1]
 8476 293a DBB2     		uxtb	r3, r3
 8477 293c 2F2B     		cmp	r3, #47
 8478 293e 14D9     		bls	.L443
 8479              		.loc 1 1906 0 is_stmt 0 discriminator 1
 8480 2940 6B4B     		ldr	r3, .L745+8
 8481 2942 9B78     		ldrb	r3, [r3, #2]
 8482 2944 DBB2     		uxtb	r3, r3
 8483 2946 2F2B     		cmp	r3, #47
 8484 2948 0FD9     		bls	.L443
 8485              		.loc 1 1906 0 discriminator 2
 8486 294a 694B     		ldr	r3, .L745+8
 8487 294c DB78     		ldrb	r3, [r3, #3]
 8488 294e DBB2     		uxtb	r3, r3
 8489 2950 2F2B     		cmp	r3, #47
 8490 2952 0AD8     		bhi	.L443
 8491              		.loc 1 1906 0 discriminator 3
 8492 2954 664B     		ldr	r3, .L745+8
 8493 2956 1B79     		ldrb	r3, [r3, #4]
 8494 2958 DBB2     		uxtb	r3, r3
 8495 295a 2F2B     		cmp	r3, #47
 8496 295c 05D8     		bhi	.L443
1907:.\main.c      ****                                 id_estacion[3]='0';
 8497              		.loc 1 1907 0 is_stmt 1
 8498 295e 644B     		ldr	r3, .L745+8
 8499 2960 3022     		movs	r2, #48
 8500 2962 DA70     		strb	r2, [r3, #3]
1908:.\main.c      ****                                 id_estacion[4]='0';                             
 8501              		.loc 1 1908 0
 8502 2964 624B     		ldr	r3, .L745+8
 8503 2966 3022     		movs	r2, #48
 8504 2968 1A71     		strb	r2, [r3, #4]
 8505              	.L443:
1909:.\main.c      ****                             }  
1910:.\main.c      ****                             if(id_estacion[1]>=0x30 && id_estacion[2]>=0x30 && id_estacion[3]>=0x30
 8506              		.loc 1 1910 0
 8507 296a 614B     		ldr	r3, .L745+8
 8508 296c 5B78     		ldrb	r3, [r3, #1]
 8509 296e DBB2     		uxtb	r3, r3
 8510 2970 2F2B     		cmp	r3, #47
 8511 2972 11D9     		bls	.L444
ARM GAS  C:\Users\RECEPC~1\AppData\Local\Temp\cc8qeTl3.s 			page 187


 8512              		.loc 1 1910 0 is_stmt 0 discriminator 1
 8513 2974 5E4B     		ldr	r3, .L745+8
 8514 2976 9B78     		ldrb	r3, [r3, #2]
 8515 2978 DBB2     		uxtb	r3, r3
 8516 297a 2F2B     		cmp	r3, #47
 8517 297c 0CD9     		bls	.L444
 8518              		.loc 1 1910 0 discriminator 2
 8519 297e 5C4B     		ldr	r3, .L745+8
 8520 2980 DB78     		ldrb	r3, [r3, #3]
 8521 2982 DBB2     		uxtb	r3, r3
 8522 2984 2F2B     		cmp	r3, #47
 8523 2986 07D9     		bls	.L444
 8524              		.loc 1 1910 0 discriminator 3
 8525 2988 594B     		ldr	r3, .L745+8
 8526 298a 1B79     		ldrb	r3, [r3, #4]
 8527 298c DBB2     		uxtb	r3, r3
 8528 298e 2F2B     		cmp	r3, #47
 8529 2990 02D8     		bhi	.L444
1911:.\main.c      ****                                 id_estacion[4]='0';                              
 8530              		.loc 1 1911 0 is_stmt 1
 8531 2992 574B     		ldr	r3, .L745+8
 8532 2994 3022     		movs	r2, #48
 8533 2996 1A71     		strb	r2, [r3, #4]
 8534              	.L444:
1912:.\main.c      ****                             }
1913:.\main.c      ****                     		for(x=8;x<=12;x++){	
 8535              		.loc 1 1913 0
 8536 2998 0823     		movs	r3, #8
 8537 299a 87F82F30 		strb	r3, [r7, #47]
 8538 299e 11E0     		b	.L445
 8539              	.L446:
1914:.\main.c      ****                     			EEPROM_WriteByte(id_estacion[x-8], x);
 8540              		.loc 1 1914 0 discriminator 3
 8541 29a0 97F82F30 		ldrb	r3, [r7, #47]	@ zero_extendqisi2
 8542 29a4 083B     		subs	r3, r3, #8
 8543 29a6 524A     		ldr	r2, .L745+8
 8544 29a8 D35C     		ldrb	r3, [r2, r3]
 8545 29aa DAB2     		uxtb	r2, r3
 8546 29ac 97F82F30 		ldrb	r3, [r7, #47]	@ zero_extendqisi2
 8547 29b0 9BB2     		uxth	r3, r3
 8548 29b2 1046     		mov	r0, r2
 8549 29b4 1946     		mov	r1, r3
 8550 29b6 FFF7FEFF 		bl	EEPROM_WriteByte
1913:.\main.c      ****                     			EEPROM_WriteByte(id_estacion[x-8], x);
 8551              		.loc 1 1913 0 discriminator 3
 8552 29ba 97F82F30 		ldrb	r3, [r7, #47]	@ zero_extendqisi2
 8553 29be 0133     		adds	r3, r3, #1
 8554 29c0 87F82F30 		strb	r3, [r7, #47]
 8555              	.L445:
1913:.\main.c      ****                     			EEPROM_WriteByte(id_estacion[x-8], x);
 8556              		.loc 1 1913 0 is_stmt 0 discriminator 1
 8557 29c4 97F82F30 		ldrb	r3, [r7, #47]	@ zero_extendqisi2
 8558 29c8 0C2B     		cmp	r3, #12
 8559 29ca E9D9     		bls	.L446
1915:.\main.c      ****                     		}   
1916:.\main.c      ****                         	flujo_LCD1 = 12;	//viejo: 0
 8560              		.loc 1 1916 0 is_stmt 1
ARM GAS  C:\Users\RECEPC~1\AppData\Local\Temp\cc8qeTl3.s 			page 188


 8561 29cc 494B     		ldr	r3, .L745+12
 8562 29ce 0C22     		movs	r2, #12
 8563 29d0 1A70     		strb	r2, [r3]
1917:.\main.c      ****                             id_teclado1 = 2;
 8564              		.loc 1 1917 0
 8565 29d2 494B     		ldr	r3, .L745+16
 8566 29d4 0222     		movs	r2, #2
 8567 29d6 1A70     		strb	r2, [r3]
1918:.\main.c      ****                         	set_imagen(1,14); //viejo: 60
 8568              		.loc 1 1918 0
 8569 29d8 0120     		movs	r0, #1
 8570 29da 0E21     		movs	r1, #14
 8571 29dc FFF7FEFF 		bl	set_imagen
1919:.\main.c      ****                             CyDelay(200);
 8572              		.loc 1 1919 0
 8573 29e0 C820     		movs	r0, #200
 8574 29e2 FFF7FEFF 		bl	CyDelay
1920:.\main.c      ****                             count_teclas1 = 0;
 8575              		.loc 1 1920 0
 8576 29e6 404B     		ldr	r3, .L745
 8577 29e8 0022     		movs	r2, #0
 8578 29ea 1A70     		strb	r2, [r3]
1921:.\main.c      **** 							lado1.estado=libre;                                    
 8579              		.loc 1 1921 0
 8580 29ec 434B     		ldr	r3, .L745+20
 8581 29ee 0122     		movs	r2, #1
 8582 29f0 5A70     		strb	r2, [r3, #1]
1922:.\main.c      ****                         break;
 8583              		.loc 1 1922 0
 8584 29f2 00BF     		nop
 8585              	.L356:
1923:.\main.c      **** 					}					
1924:.\main.c      ****                 }
1925:.\main.c      ****             }                      
1926:.\main.c      ****             LCD_1_ClearRxBuffer();
 8586              		.loc 1 1926 0
 8587 29f4 FFF7FEFF 		bl	LCD_1_ClearRxBuffer
 8588              	.L355:
1927:.\main.c      ****          }
1928:.\main.c      ****         }
1929:.\main.c      ****         
1930:.\main.c      ****         if(seleccion_pos == 2){
 8589              		.loc 1 1930 0
 8590 29f8 414B     		ldr	r3, .L745+24
 8591 29fa 1B78     		ldrb	r3, [r3]
 8592 29fc DBB2     		uxtb	r3, r3
 8593 29fe 022B     		cmp	r3, #2
 8594 2a00 40F09885 		bne	.L447
1931:.\main.c      ****          if(LCD_1_GetRxBufferSize()==8){
 8595              		.loc 1 1931 0
 8596 2a04 FFF7FEFF 		bl	LCD_1_GetRxBufferSize
 8597 2a08 0346     		mov	r3, r0
 8598 2a0a 082B     		cmp	r3, #8
 8599 2a0c 40F09285 		bne	.L447
1932:.\main.c      ****             if((LCD_1_rxBuffer[0]==0xAA) && (LCD_1_rxBuffer[6]==0xC3) && (LCD_1_rxBuffer[7]==0x3C))
 8600              		.loc 1 1932 0
 8601 2a10 3C4B     		ldr	r3, .L745+28
ARM GAS  C:\Users\RECEPC~1\AppData\Local\Temp\cc8qeTl3.s 			page 189


 8602 2a12 1B78     		ldrb	r3, [r3]
 8603 2a14 DBB2     		uxtb	r3, r3
 8604 2a16 AA2B     		cmp	r3, #170
 8605 2a18 40F08885 		bne	.L448
 8606              		.loc 1 1932 0 is_stmt 0 discriminator 1
 8607 2a1c 394B     		ldr	r3, .L745+28
 8608 2a1e 9B79     		ldrb	r3, [r3, #6]
 8609 2a20 DBB2     		uxtb	r3, r3
 8610 2a22 C32B     		cmp	r3, #195
 8611 2a24 40F08285 		bne	.L448
 8612              		.loc 1 1932 0 discriminator 2
 8613 2a28 364B     		ldr	r3, .L745+28
 8614 2a2a DB79     		ldrb	r3, [r3, #7]
 8615 2a2c DBB2     		uxtb	r3, r3
 8616 2a2e 3C2B     		cmp	r3, #60
 8617 2a30 40F07C85 		bne	.L448
1933:.\main.c      **** 				count_protector=0;
 8618              		.loc 1 1933 0 is_stmt 1
 8619 2a34 344B     		ldr	r3, .L745+32
 8620 2a36 0022     		movs	r2, #0
 8621 2a38 1A70     		strb	r2, [r3]
1934:.\main.c      ****                 if(count_teclas1<teclas1){									
 8622              		.loc 1 1934 0
 8623 2a3a 2B4B     		ldr	r3, .L745
 8624 2a3c 1B78     		ldrb	r3, [r3]
 8625 2a3e DAB2     		uxtb	r2, r3
 8626 2a40 324B     		ldr	r3, .L745+36
 8627 2a42 1B78     		ldrb	r3, [r3]
 8628 2a44 DBB2     		uxtb	r3, r3
 8629 2a46 9A42     		cmp	r2, r3
 8630 2a48 80F0D880 		bcs	.L449
1935:.\main.c      ****                     if(LCD_1_rxBuffer[3]<=9){								//Numero de 1-9
 8631              		.loc 1 1935 0
 8632 2a4c 2D4B     		ldr	r3, .L745+28
 8633 2a4e DB78     		ldrb	r3, [r3, #3]
 8634 2a50 DBB2     		uxtb	r3, r3
 8635 2a52 092B     		cmp	r3, #9
 8636 2a54 32D8     		bhi	.L450
1936:.\main.c      ****                         count_teclas1++;
 8637              		.loc 1 1936 0
 8638 2a56 244B     		ldr	r3, .L745
 8639 2a58 1B78     		ldrb	r3, [r3]
 8640 2a5a DBB2     		uxtb	r3, r3
 8641 2a5c 0133     		adds	r3, r3, #1
 8642 2a5e DAB2     		uxtb	r2, r3
 8643 2a60 214B     		ldr	r3, .L745
 8644 2a62 1A70     		strb	r2, [r3]
1937:.\main.c      ****                         Buffer_LCD1[count_teclas1]=LCD_1_rxBuffer[3];
 8645              		.loc 1 1937 0
 8646 2a64 204B     		ldr	r3, .L745
 8647 2a66 1B78     		ldrb	r3, [r3]
 8648 2a68 DBB2     		uxtb	r3, r3
 8649 2a6a 1A46     		mov	r2, r3
 8650 2a6c 254B     		ldr	r3, .L745+28
 8651 2a6e DB78     		ldrb	r3, [r3, #3]
 8652 2a70 D9B2     		uxtb	r1, r3
 8653 2a72 1E4B     		ldr	r3, .L745+4
ARM GAS  C:\Users\RECEPC~1\AppData\Local\Temp\cc8qeTl3.s 			page 190


 8654 2a74 9954     		strb	r1, [r3, r2]
1938:.\main.c      ****                         write_LCD(1,(LCD_1_rxBuffer[3]+0x30), posy1, ((count_teclas1*(sizeletra1+1)
 8655              		.loc 1 1938 0
 8656 2a76 234B     		ldr	r3, .L745+28
 8657 2a78 DB78     		ldrb	r3, [r3, #3]
 8658 2a7a DBB2     		uxtb	r3, r3
 8659 2a7c 3033     		adds	r3, r3, #48
 8660 2a7e D9B2     		uxtb	r1, r3
 8661 2a80 234B     		ldr	r3, .L745+40
 8662 2a82 1B88     		ldrh	r3, [r3]	@ movhi
 8663 2a84 9DB2     		uxth	r5, r3
 8664 2a86 184B     		ldr	r3, .L745
 8665 2a88 1B78     		ldrb	r3, [r3]
 8666 2a8a DBB2     		uxtb	r3, r3
 8667 2a8c 9BB2     		uxth	r3, r3
 8668 2a8e 214A     		ldr	r2, .L745+44
 8669 2a90 1288     		ldrh	r2, [r2]	@ movhi
 8670 2a92 92B2     		uxth	r2, r2
 8671 2a94 0132     		adds	r2, r2, #1
 8672 2a96 92B2     		uxth	r2, r2
 8673 2a98 02FB03F3 		mul	r3, r2, r3
 8674 2a9c 9AB2     		uxth	r2, r3
 8675 2a9e 1E4B     		ldr	r3, .L745+48
 8676 2aa0 1B88     		ldrh	r3, [r3]	@ movhi
 8677 2aa2 9BB2     		uxth	r3, r3
 8678 2aa4 1344     		add	r3, r3, r2
 8679 2aa6 9CB2     		uxth	r4, r3
 8680 2aa8 1A4B     		ldr	r3, .L745+44
 8681 2aaa 1B88     		ldrh	r3, [r3]	@ movhi
 8682 2aac 9BB2     		uxth	r3, r3
 8683 2aae DBB2     		uxtb	r3, r3
 8684 2ab0 0093     		str	r3, [sp]
 8685 2ab2 0120     		movs	r0, #1
 8686 2ab4 2A46     		mov	r2, r5
 8687 2ab6 2346     		mov	r3, r4
 8688 2ab8 FFF7FEFF 		bl	write_LCD
 8689              	.L450:
1939:.\main.c      ****                     }
1940:.\main.c      ****                     if(LCD_1_rxBuffer[3]==0x0A){            				//Comando de 0
 8690              		.loc 1 1940 0
 8691 2abc 114B     		ldr	r3, .L745+28
 8692 2abe DB78     		ldrb	r3, [r3, #3]
 8693 2ac0 DBB2     		uxtb	r3, r3
 8694 2ac2 0A2B     		cmp	r3, #10
 8695 2ac4 57D1     		bne	.L451
1941:.\main.c      **** 						if((id_teclado1==1)&&(count_teclas1==1)&&(Buffer_LCD1[1]==0)){
 8696              		.loc 1 1941 0
 8697 2ac6 0C4B     		ldr	r3, .L745+16
 8698 2ac8 1B78     		ldrb	r3, [r3]
 8699 2aca DBB2     		uxtb	r3, r3
 8700 2acc 012B     		cmp	r3, #1
 8701 2ace 25D1     		bne	.L452
 8702              		.loc 1 1941 0 is_stmt 0 discriminator 1
 8703 2ad0 054B     		ldr	r3, .L745
 8704 2ad2 1B78     		ldrb	r3, [r3]
 8705 2ad4 DBB2     		uxtb	r3, r3
 8706 2ad6 012B     		cmp	r3, #1
ARM GAS  C:\Users\RECEPC~1\AppData\Local\Temp\cc8qeTl3.s 			page 191


 8707 2ad8 20D1     		bne	.L452
 8708              		.loc 1 1941 0 discriminator 2
 8709 2ada 044B     		ldr	r3, .L745+4
 8710 2adc 5B78     		ldrb	r3, [r3, #1]
 8711 2ade DBB2     		uxtb	r3, r3
 8712 2ae0 002B     		cmp	r3, #0
 8713 2ae2 1BD1     		bne	.L452
 8714              		.loc 1 1941 0
 8715 2ae4 47E0     		b	.L451
 8716              	.L746:
 8717 2ae6 00BF     		.align	2
 8718              	.L745:
 8719 2ae8 00000000 		.word	count_teclas1
 8720 2aec 00000000 		.word	Buffer_LCD1
 8721 2af0 00000000 		.word	id_estacion
 8722 2af4 00000000 		.word	flujo_LCD1
 8723 2af8 00000000 		.word	id_teclado1
 8724 2afc 00000000 		.word	lado1
 8725 2b00 00000000 		.word	seleccion_pos
 8726 2b04 00000000 		.word	LCD_1_rxBuffer
 8727 2b08 00000000 		.word	count_protector
 8728 2b0c 00000000 		.word	teclas1
 8729 2b10 00000000 		.word	posy1
 8730 2b14 00000000 		.word	sizeletra1
 8731 2b18 00000000 		.word	posx1
 8732              	.L452:
1942:.\main.c      **** 						}
1943:.\main.c      **** 						else{
1944:.\main.c      **** 	                        count_teclas1++;
 8733              		.loc 1 1944 0 is_stmt 1
 8734 2b1c AF4B     		ldr	r3, .L747
 8735 2b1e 1B78     		ldrb	r3, [r3]
 8736 2b20 DBB2     		uxtb	r3, r3
 8737 2b22 0133     		adds	r3, r3, #1
 8738 2b24 DAB2     		uxtb	r2, r3
 8739 2b26 AD4B     		ldr	r3, .L747
 8740 2b28 1A70     		strb	r2, [r3]
1945:.\main.c      **** 	                        Buffer_LCD1[count_teclas1]=0;
 8741              		.loc 1 1945 0
 8742 2b2a AC4B     		ldr	r3, .L747
 8743 2b2c 1B78     		ldrb	r3, [r3]
 8744 2b2e DBB2     		uxtb	r3, r3
 8745 2b30 1A46     		mov	r2, r3
 8746 2b32 AB4B     		ldr	r3, .L747+4
 8747 2b34 0021     		movs	r1, #0
 8748 2b36 9954     		strb	r1, [r3, r2]
1946:.\main.c      **** 							write_LCD(1,0x30, posy1, ((count_teclas1*(sizeletra1+1))+posx1), sizeletra1);
 8749              		.loc 1 1946 0
 8750 2b38 AA4B     		ldr	r3, .L747+8
 8751 2b3a 1B88     		ldrh	r3, [r3]	@ movhi
 8752 2b3c 9DB2     		uxth	r5, r3
 8753 2b3e A74B     		ldr	r3, .L747
 8754 2b40 1B78     		ldrb	r3, [r3]
 8755 2b42 DBB2     		uxtb	r3, r3
 8756 2b44 9BB2     		uxth	r3, r3
 8757 2b46 A84A     		ldr	r2, .L747+12
 8758 2b48 1288     		ldrh	r2, [r2]	@ movhi
ARM GAS  C:\Users\RECEPC~1\AppData\Local\Temp\cc8qeTl3.s 			page 192


 8759 2b4a 92B2     		uxth	r2, r2
 8760 2b4c 0132     		adds	r2, r2, #1
 8761 2b4e 92B2     		uxth	r2, r2
 8762 2b50 02FB03F3 		mul	r3, r2, r3
 8763 2b54 9AB2     		uxth	r2, r3
 8764 2b56 A54B     		ldr	r3, .L747+16
 8765 2b58 1B88     		ldrh	r3, [r3]	@ movhi
 8766 2b5a 9BB2     		uxth	r3, r3
 8767 2b5c 1344     		add	r3, r3, r2
 8768 2b5e 9CB2     		uxth	r4, r3
 8769 2b60 A14B     		ldr	r3, .L747+12
 8770 2b62 1B88     		ldrh	r3, [r3]	@ movhi
 8771 2b64 9BB2     		uxth	r3, r3
 8772 2b66 DBB2     		uxtb	r3, r3
 8773 2b68 0093     		str	r3, [sp]
 8774 2b6a 0120     		movs	r0, #1
 8775 2b6c 3021     		movs	r1, #48
 8776 2b6e 2A46     		mov	r2, r5
 8777 2b70 2346     		mov	r3, r4
 8778 2b72 FFF7FEFF 		bl	write_LCD
 8779              	.L451:
1947:.\main.c      **** 						}
1948:.\main.c      ****                     }  
1949:.\main.c      ****                     if(LCD_1_rxBuffer[3]==0x51){            	 			//Comando de Coma
 8780              		.loc 1 1949 0
 8781 2b76 9E4B     		ldr	r3, .L747+20
 8782 2b78 DB78     		ldrb	r3, [r3, #3]
 8783 2b7a DBB2     		uxtb	r3, r3
 8784 2b7c 512B     		cmp	r3, #81
 8785 2b7e 3DD1     		bne	.L449
1950:.\main.c      ****                         if(count_teclas1>=1 && comas1==0){
 8786              		.loc 1 1950 0
 8787 2b80 964B     		ldr	r3, .L747
 8788 2b82 1B78     		ldrb	r3, [r3]
 8789 2b84 DBB2     		uxtb	r3, r3
 8790 2b86 002B     		cmp	r3, #0
 8791 2b88 38D0     		beq	.L449
 8792              		.loc 1 1950 0 is_stmt 0 discriminator 1
 8793 2b8a 9A4B     		ldr	r3, .L747+24
 8794 2b8c 1B78     		ldrb	r3, [r3]
 8795 2b8e DBB2     		uxtb	r3, r3
 8796 2b90 002B     		cmp	r3, #0
 8797 2b92 33D1     		bne	.L449
1951:.\main.c      ****                             count_teclas1++;
 8798              		.loc 1 1951 0 is_stmt 1
 8799 2b94 914B     		ldr	r3, .L747
 8800 2b96 1B78     		ldrb	r3, [r3]
 8801 2b98 DBB2     		uxtb	r3, r3
 8802 2b9a 0133     		adds	r3, r3, #1
 8803 2b9c DAB2     		uxtb	r2, r3
 8804 2b9e 8F4B     		ldr	r3, .L747
 8805 2ba0 1A70     		strb	r2, [r3]
1952:.\main.c      ****                             Buffer_LCD1[count_teclas1]=id_coma1;
 8806              		.loc 1 1952 0
 8807 2ba2 8E4B     		ldr	r3, .L747
 8808 2ba4 1B78     		ldrb	r3, [r3]
 8809 2ba6 DBB2     		uxtb	r3, r3
ARM GAS  C:\Users\RECEPC~1\AppData\Local\Temp\cc8qeTl3.s 			page 193


 8810 2ba8 1A46     		mov	r2, r3
 8811 2baa 934B     		ldr	r3, .L747+28
 8812 2bac 1B78     		ldrb	r3, [r3]
 8813 2bae D9B2     		uxtb	r1, r3
 8814 2bb0 8B4B     		ldr	r3, .L747+4
 8815 2bb2 9954     		strb	r1, [r3, r2]
1953:.\main.c      **** 							write_LCD(1,id_coma1, posy1, ((count_teclas1*(sizeletra1+1))+posx1), sizeletra1);
 8816              		.loc 1 1953 0
 8817 2bb4 904B     		ldr	r3, .L747+28
 8818 2bb6 1B78     		ldrb	r3, [r3]
 8819 2bb8 D9B2     		uxtb	r1, r3
 8820 2bba 8A4B     		ldr	r3, .L747+8
 8821 2bbc 1B88     		ldrh	r3, [r3]	@ movhi
 8822 2bbe 9DB2     		uxth	r5, r3
 8823 2bc0 864B     		ldr	r3, .L747
 8824 2bc2 1B78     		ldrb	r3, [r3]
 8825 2bc4 DBB2     		uxtb	r3, r3
 8826 2bc6 9BB2     		uxth	r3, r3
 8827 2bc8 874A     		ldr	r2, .L747+12
 8828 2bca 1288     		ldrh	r2, [r2]	@ movhi
 8829 2bcc 92B2     		uxth	r2, r2
 8830 2bce 0132     		adds	r2, r2, #1
 8831 2bd0 92B2     		uxth	r2, r2
 8832 2bd2 02FB03F3 		mul	r3, r2, r3
 8833 2bd6 9AB2     		uxth	r2, r3
 8834 2bd8 844B     		ldr	r3, .L747+16
 8835 2bda 1B88     		ldrh	r3, [r3]	@ movhi
 8836 2bdc 9BB2     		uxth	r3, r3
 8837 2bde 1344     		add	r3, r3, r2
 8838 2be0 9CB2     		uxth	r4, r3
 8839 2be2 814B     		ldr	r3, .L747+12
 8840 2be4 1B88     		ldrh	r3, [r3]	@ movhi
 8841 2be6 9BB2     		uxth	r3, r3
 8842 2be8 DBB2     		uxtb	r3, r3
 8843 2bea 0093     		str	r3, [sp]
 8844 2bec 0120     		movs	r0, #1
 8845 2bee 2A46     		mov	r2, r5
 8846 2bf0 2346     		mov	r3, r4
 8847 2bf2 FFF7FEFF 		bl	write_LCD
1954:.\main.c      ****                             comas1=1;
 8848              		.loc 1 1954 0
 8849 2bf6 7F4B     		ldr	r3, .L747+24
 8850 2bf8 0122     		movs	r2, #1
 8851 2bfa 1A70     		strb	r2, [r3]
 8852              	.L449:
1955:.\main.c      ****                         }
1956:.\main.c      ****                     }                    
1957:.\main.c      ****                 }                                
1958:.\main.c      ****                 if(LCD_1_rxBuffer[3]==0x0B){								//Cancel
 8853              		.loc 1 1958 0
 8854 2bfc 7C4B     		ldr	r3, .L747+20
 8855 2bfe DB78     		ldrb	r3, [r3, #3]
 8856 2c00 DBB2     		uxtb	r3, r3
 8857 2c02 0B2B     		cmp	r3, #11
 8858 2c04 40F0A080 		bne	.L453
1959:.\main.c      ****                     if(count_teclas1==0){
 8859              		.loc 1 1959 0
ARM GAS  C:\Users\RECEPC~1\AppData\Local\Temp\cc8qeTl3.s 			page 194


 8860 2c08 744B     		ldr	r3, .L747
 8861 2c0a 1B78     		ldrb	r3, [r3]
 8862 2c0c DBB2     		uxtb	r3, r3
 8863 2c0e 002B     		cmp	r3, #0
 8864 2c10 5ED1     		bne	.L454
1960:.\main.c      **** 						switch(id_teclado1){
 8865              		.loc 1 1960 0
 8866 2c12 7A4B     		ldr	r3, .L747+32
 8867 2c14 1B78     		ldrb	r3, [r3]
 8868 2c16 DBB2     		uxtb	r3, r3
 8869 2c18 013B     		subs	r3, r3, #1
 8870 2c1a 072B     		cmp	r3, #7
 8871 2c1c 00F29480 		bhi	.L453
 8872 2c20 01A2     		adr	r2, .L457
 8873 2c22 52F823F0 		ldr	pc, [r2, r3, lsl #2]
 8874 2c26 00BF     		.p2align 2
 8875              	.L457:
 8876 2c28 492C0000 		.word	.L456+1
 8877 2c2c 592C0000 		.word	.L458+1
 8878 2c30 612C0000 		.word	.L459+1
 8879 2c34 772C0000 		.word	.L460+1
 8880 2c38 8D2C0000 		.word	.L461+1
 8881 2c3c A32C0000 		.word	.L462+1
 8882 2c40 492D0000 		.word	.L453+1
 8883 2c44 B92C0000 		.word	.L463+1
 8884              		.p2align 1
 8885              	.L456:
1961:.\main.c      **** 							case 1:
1962:.\main.c      **** 							set_imagen(1,5);
 8886              		.loc 1 1962 0
 8887 2c48 0120     		movs	r0, #1
 8888 2c4a 0521     		movs	r1, #5
 8889 2c4c FFF7FEFF 		bl	set_imagen
1963:.\main.c      **** 							flujo_LCD1=4;
 8890              		.loc 1 1963 0
 8891 2c50 6B4B     		ldr	r3, .L747+36
 8892 2c52 0422     		movs	r2, #4
 8893 2c54 1A70     		strb	r2, [r3]
1964:.\main.c      **** 							break;
 8894              		.loc 1 1964 0
 8895 2c56 3AE0     		b	.L455
 8896              	.L458:
1965:.\main.c      **** 							case 2:
1966:.\main.c      **** 	                        flujo_LCD1=0;	
 8897              		.loc 1 1966 0
 8898 2c58 694B     		ldr	r3, .L747+36
 8899 2c5a 0022     		movs	r2, #0
 8900 2c5c 1A70     		strb	r2, [r3]
1967:.\main.c      **** 							break;
 8901              		.loc 1 1967 0
 8902 2c5e 36E0     		b	.L455
 8903              	.L459:
1968:.\main.c      **** 							case 3:
1969:.\main.c      **** 							set_imagen(1,0);
 8904              		.loc 1 1969 0
 8905 2c60 0120     		movs	r0, #1
 8906 2c62 0021     		movs	r1, #0
ARM GAS  C:\Users\RECEPC~1\AppData\Local\Temp\cc8qeTl3.s 			page 195


 8907 2c64 FFF7FEFF 		bl	set_imagen
1970:.\main.c      **** 							flujo_LCD1=0;
 8908              		.loc 1 1970 0
 8909 2c68 654B     		ldr	r3, .L747+36
 8910 2c6a 0022     		movs	r2, #0
 8911 2c6c 1A70     		strb	r2, [r3]
1971:.\main.c      **** 							lado2.estado=libre;
 8912              		.loc 1 1971 0
 8913 2c6e 654B     		ldr	r3, .L747+40
 8914 2c70 0122     		movs	r2, #1
 8915 2c72 5A70     		strb	r2, [r3, #1]
1972:.\main.c      **** 							break;
 8916              		.loc 1 1972 0
 8917 2c74 2BE0     		b	.L455
 8918              	.L460:
1973:.\main.c      **** 							case 4:
1974:.\main.c      **** 							set_imagen(1,0);
 8919              		.loc 1 1974 0
 8920 2c76 0120     		movs	r0, #1
 8921 2c78 0021     		movs	r1, #0
 8922 2c7a FFF7FEFF 		bl	set_imagen
1975:.\main.c      **** 							flujo_LCD1=0;
 8923              		.loc 1 1975 0
 8924 2c7e 604B     		ldr	r3, .L747+36
 8925 2c80 0022     		movs	r2, #0
 8926 2c82 1A70     		strb	r2, [r3]
1976:.\main.c      **** 							lado2.estado=libre;
 8927              		.loc 1 1976 0
 8928 2c84 5F4B     		ldr	r3, .L747+40
 8929 2c86 0122     		movs	r2, #1
 8930 2c88 5A70     		strb	r2, [r3, #1]
1977:.\main.c      **** 							break;
 8931              		.loc 1 1977 0
 8932 2c8a 20E0     		b	.L455
 8933              	.L461:
1978:.\main.c      ****                             case 5:
1979:.\main.c      **** 							set_imagen(1,0);
 8934              		.loc 1 1979 0
 8935 2c8c 0120     		movs	r0, #1
 8936 2c8e 0021     		movs	r1, #0
 8937 2c90 FFF7FEFF 		bl	set_imagen
1980:.\main.c      **** 							flujo_LCD1=0;
 8938              		.loc 1 1980 0
 8939 2c94 5A4B     		ldr	r3, .L747+36
 8940 2c96 0022     		movs	r2, #0
 8941 2c98 1A70     		strb	r2, [r3]
1981:.\main.c      **** 							lado2.estado=libre;                            
 8942              		.loc 1 1981 0
 8943 2c9a 5A4B     		ldr	r3, .L747+40
 8944 2c9c 0122     		movs	r2, #1
 8945 2c9e 5A70     		strb	r2, [r3, #1]
1982:.\main.c      ****                             break;
 8946              		.loc 1 1982 0
 8947 2ca0 15E0     		b	.L455
 8948              	.L462:
1983:.\main.c      ****                             case 6:
1984:.\main.c      **** 							set_imagen(1,0);
ARM GAS  C:\Users\RECEPC~1\AppData\Local\Temp\cc8qeTl3.s 			page 196


 8949              		.loc 1 1984 0
 8950 2ca2 0120     		movs	r0, #1
 8951 2ca4 0021     		movs	r1, #0
 8952 2ca6 FFF7FEFF 		bl	set_imagen
1985:.\main.c      **** 							flujo_LCD1=0;
 8953              		.loc 1 1985 0
 8954 2caa 554B     		ldr	r3, .L747+36
 8955 2cac 0022     		movs	r2, #0
 8956 2cae 1A70     		strb	r2, [r3]
1986:.\main.c      **** 							lado2.estado=libre;                            
 8957              		.loc 1 1986 0
 8958 2cb0 544B     		ldr	r3, .L747+40
 8959 2cb2 0122     		movs	r2, #1
 8960 2cb4 5A70     		strb	r2, [r3, #1]
1987:.\main.c      ****                             break;  
 8961              		.loc 1 1987 0
 8962 2cb6 0AE0     		b	.L455
 8963              	.L463:
1988:.\main.c      ****                             case 8:
1989:.\main.c      **** 							set_imagen(1,0);
 8964              		.loc 1 1989 0
 8965 2cb8 0120     		movs	r0, #1
 8966 2cba 0021     		movs	r1, #0
 8967 2cbc FFF7FEFF 		bl	set_imagen
1990:.\main.c      **** 							flujo_LCD1 = 0;
 8968              		.loc 1 1990 0
 8969 2cc0 4F4B     		ldr	r3, .L747+36
 8970 2cc2 0022     		movs	r2, #0
 8971 2cc4 1A70     		strb	r2, [r3]
1991:.\main.c      **** 							lado2.estado=libre;                            
 8972              		.loc 1 1991 0
 8973 2cc6 4F4B     		ldr	r3, .L747+40
 8974 2cc8 0122     		movs	r2, #1
 8975 2cca 5A70     		strb	r2, [r3, #1]
1992:.\main.c      ****                             break;                             
 8976              		.loc 1 1992 0
 8977 2ccc 00BF     		nop
 8978              	.L455:
 8979 2cce 3BE0     		b	.L453
 8980              	.L454:
1993:.\main.c      **** 						}
1994:.\main.c      ****                     }
1995:.\main.c      ****                     else{
1996:.\main.c      **** 						write_LCD(1,0x20, posy1, ((count_teclas1*(sizeletra1+1))+posx1), sizeletra1);
 8981              		.loc 1 1996 0
 8982 2cd0 444B     		ldr	r3, .L747+8
 8983 2cd2 1B88     		ldrh	r3, [r3]	@ movhi
 8984 2cd4 9DB2     		uxth	r5, r3
 8985 2cd6 414B     		ldr	r3, .L747
 8986 2cd8 1B78     		ldrb	r3, [r3]
 8987 2cda DBB2     		uxtb	r3, r3
 8988 2cdc 9BB2     		uxth	r3, r3
 8989 2cde 424A     		ldr	r2, .L747+12
 8990 2ce0 1288     		ldrh	r2, [r2]	@ movhi
 8991 2ce2 92B2     		uxth	r2, r2
 8992 2ce4 0132     		adds	r2, r2, #1
 8993 2ce6 92B2     		uxth	r2, r2
ARM GAS  C:\Users\RECEPC~1\AppData\Local\Temp\cc8qeTl3.s 			page 197


 8994 2ce8 02FB03F3 		mul	r3, r2, r3
 8995 2cec 9AB2     		uxth	r2, r3
 8996 2cee 3F4B     		ldr	r3, .L747+16
 8997 2cf0 1B88     		ldrh	r3, [r3]	@ movhi
 8998 2cf2 9BB2     		uxth	r3, r3
 8999 2cf4 1344     		add	r3, r3, r2
 9000 2cf6 9CB2     		uxth	r4, r3
 9001 2cf8 3B4B     		ldr	r3, .L747+12
 9002 2cfa 1B88     		ldrh	r3, [r3]	@ movhi
 9003 2cfc 9BB2     		uxth	r3, r3
 9004 2cfe DBB2     		uxtb	r3, r3
 9005 2d00 0093     		str	r3, [sp]
 9006 2d02 0120     		movs	r0, #1
 9007 2d04 2021     		movs	r1, #32
 9008 2d06 2A46     		mov	r2, r5
 9009 2d08 2346     		mov	r3, r4
 9010 2d0a FFF7FEFF 		bl	write_LCD
1997:.\main.c      ****                         if(Buffer_LCD1[count_teclas1]==id_coma1){
 9011              		.loc 1 1997 0
 9012 2d0e 334B     		ldr	r3, .L747
 9013 2d10 1B78     		ldrb	r3, [r3]
 9014 2d12 DBB2     		uxtb	r3, r3
 9015 2d14 1A46     		mov	r2, r3
 9016 2d16 324B     		ldr	r3, .L747+4
 9017 2d18 9B5C     		ldrb	r3, [r3, r2]
 9018 2d1a DAB2     		uxtb	r2, r3
 9019 2d1c 364B     		ldr	r3, .L747+28
 9020 2d1e 1B78     		ldrb	r3, [r3]
 9021 2d20 DBB2     		uxtb	r3, r3
 9022 2d22 9A42     		cmp	r2, r3
 9023 2d24 02D1     		bne	.L464
1998:.\main.c      ****                             comas1=0;
 9024              		.loc 1 1998 0
 9025 2d26 334B     		ldr	r3, .L747+24
 9026 2d28 0022     		movs	r2, #0
 9027 2d2a 1A70     		strb	r2, [r3]
 9028              	.L464:
1999:.\main.c      ****                         }
2000:.\main.c      **** 						Buffer_LCD1[count_teclas1]=0;
 9029              		.loc 1 2000 0
 9030 2d2c 2B4B     		ldr	r3, .L747
 9031 2d2e 1B78     		ldrb	r3, [r3]
 9032 2d30 DBB2     		uxtb	r3, r3
 9033 2d32 1A46     		mov	r2, r3
 9034 2d34 2A4B     		ldr	r3, .L747+4
 9035 2d36 0021     		movs	r1, #0
 9036 2d38 9954     		strb	r1, [r3, r2]
2001:.\main.c      ****                         count_teclas1--;
 9037              		.loc 1 2001 0
 9038 2d3a 284B     		ldr	r3, .L747
 9039 2d3c 1B78     		ldrb	r3, [r3]
 9040 2d3e DBB2     		uxtb	r3, r3
 9041 2d40 013B     		subs	r3, r3, #1
 9042 2d42 DAB2     		uxtb	r2, r3
 9043 2d44 254B     		ldr	r3, .L747
 9044 2d46 1A70     		strb	r2, [r3]
 9045              	.L453:
ARM GAS  C:\Users\RECEPC~1\AppData\Local\Temp\cc8qeTl3.s 			page 198


2002:.\main.c      ****                     }
2003:.\main.c      ****                 }
2004:.\main.c      ****                 if(LCD_1_rxBuffer[3]==0x0C){								//Enter
 9046              		.loc 1 2004 0
 9047 2d48 294B     		ldr	r3, .L747+20
 9048 2d4a DB78     		ldrb	r3, [r3, #3]
 9049 2d4c DBB2     		uxtb	r3, r3
 9050 2d4e 0C2B     		cmp	r3, #12
 9051 2d50 40F0EC83 		bne	.L448
2005:.\main.c      **** 					switch(id_teclado1){
 9052              		.loc 1 2005 0
 9053 2d54 294B     		ldr	r3, .L747+32
 9054 2d56 1B78     		ldrb	r3, [r3]
 9055 2d58 DBB2     		uxtb	r3, r3
 9056 2d5a 013B     		subs	r3, r3, #1
 9057 2d5c 072B     		cmp	r3, #7
 9058 2d5e 00F2E583 		bhi	.L448
 9059 2d62 01A2     		adr	r2, .L466
 9060 2d64 52F823F0 		ldr	pc, [r2, r3, lsl #2]
 9061              		.p2align 2
 9062              	.L466:
 9063 2d68 892D0000 		.word	.L465+1
 9064 2d6c 1D2F0000 		.word	.L467+1
 9065 2d70 F92F0000 		.word	.L468+1
 9066 2d74 71300000 		.word	.L469+1
 9067 2d78 CB300000 		.word	.L470+1
 9068 2d7c B9310000 		.word	.L471+1
 9069 2d80 EB310000 		.word	.L472+1
 9070 2d84 93330000 		.word	.L473+1
 9071              		.p2align 1
 9072              	.L465:
2006:.\main.c      **** 						case 1:
2007:.\main.c      **** 							for(x=0;x<=7;x++){
 9073              		.loc 1 2007 0
 9074 2d88 0023     		movs	r3, #0
 9075 2d8a 87F82F30 		strb	r3, [r7, #47]
 9076 2d8e 0CE0     		b	.L474
 9077              	.L475:
2008:.\main.c      **** 								numero[x]=0;
 9078              		.loc 1 2008 0 discriminator 3
 9079 2d90 97F82F30 		ldrb	r3, [r7, #47]	@ zero_extendqisi2
 9080 2d94 07F13002 		add	r2, r7, #48
 9081 2d98 1344     		add	r3, r3, r2
 9082 2d9a 0022     		movs	r2, #0
 9083 2d9c 03F82C2C 		strb	r2, [r3, #-44]
2007:.\main.c      **** 								numero[x]=0;
 9084              		.loc 1 2007 0 discriminator 3
 9085 2da0 97F82F30 		ldrb	r3, [r7, #47]	@ zero_extendqisi2
 9086 2da4 0133     		adds	r3, r3, #1
 9087 2da6 87F82F30 		strb	r3, [r7, #47]
 9088              	.L474:
2007:.\main.c      **** 								numero[x]=0;
 9089              		.loc 1 2007 0 is_stmt 0 discriminator 1
 9090 2daa 97F82F30 		ldrb	r3, [r7, #47]	@ zero_extendqisi2
 9091 2dae 072B     		cmp	r3, #7
 9092 2db0 EED9     		bls	.L475
2009:.\main.c      **** 							}						
ARM GAS  C:\Users\RECEPC~1\AppData\Local\Temp\cc8qeTl3.s 			page 199


2010:.\main.c      **** 							if((count_teclas1>=1)&&(Buffer_LCD1[count_teclas1]!=',')){
 9093              		.loc 1 2010 0 is_stmt 1
 9094 2db2 0A4B     		ldr	r3, .L747
 9095 2db4 1B78     		ldrb	r3, [r3]
 9096 2db6 DBB2     		uxtb	r3, r3
 9097 2db8 002B     		cmp	r3, #0
 9098 2dba 00F0AE80 		beq	.L476
 9099              		.loc 1 2010 0 is_stmt 0 discriminator 1
 9100 2dbe 074B     		ldr	r3, .L747
 9101 2dc0 1B78     		ldrb	r3, [r3]
 9102 2dc2 DBB2     		uxtb	r3, r3
 9103 2dc4 1A46     		mov	r2, r3
 9104 2dc6 064B     		ldr	r3, .L747+4
 9105 2dc8 9B5C     		ldrb	r3, [r3, r2]
 9106 2dca DBB2     		uxtb	r3, r3
 9107 2dcc 2C2B     		cmp	r3, #44
 9108 2dce 00F0A480 		beq	.L476
2011:.\main.c      **** 								for(x=1;x<=count_teclas1;x++){
 9109              		.loc 1 2011 0 is_stmt 1
 9110 2dd2 0123     		movs	r3, #1
 9111 2dd4 87F82F30 		strb	r3, [r7, #47]
 9112 2dd8 3FE0     		b	.L477
 9113              	.L748:
 9114 2dda 00BF     		.align	2
 9115              	.L747:
 9116 2ddc 00000000 		.word	count_teclas1
 9117 2de0 00000000 		.word	Buffer_LCD1
 9118 2de4 00000000 		.word	posy1
 9119 2de8 00000000 		.word	sizeletra1
 9120 2dec 00000000 		.word	posx1
 9121 2df0 00000000 		.word	LCD_1_rxBuffer
 9122 2df4 00000000 		.word	comas1
 9123 2df8 00000000 		.word	id_coma1
 9124 2dfc 00000000 		.word	id_teclado1
 9125 2e00 00000000 		.word	flujo_LCD1
 9126 2e04 00000000 		.word	lado2
 9127              	.L480:
2012:.\main.c      **** 									if(Buffer_LCD1[x]!=','){
 9128              		.loc 1 2012 0
 9129 2e08 97F82F30 		ldrb	r3, [r7, #47]	@ zero_extendqisi2
 9130 2e0c B14A     		ldr	r2, .L749
 9131 2e0e D35C     		ldrb	r3, [r2, r3]
 9132 2e10 DBB2     		uxtb	r3, r3
 9133 2e12 2C2B     		cmp	r3, #44
 9134 2e14 0FD0     		beq	.L478
2013:.\main.c      **** 										numero[x-1]=Buffer_LCD1[x]+48;
 9135              		.loc 1 2013 0
 9136 2e16 97F82F30 		ldrb	r3, [r7, #47]	@ zero_extendqisi2
 9137 2e1a 013B     		subs	r3, r3, #1
 9138 2e1c 97F82F20 		ldrb	r2, [r7, #47]	@ zero_extendqisi2
 9139 2e20 AC49     		ldr	r1, .L749
 9140 2e22 8A5C     		ldrb	r2, [r1, r2]
 9141 2e24 D2B2     		uxtb	r2, r2
 9142 2e26 3032     		adds	r2, r2, #48
 9143 2e28 D2B2     		uxtb	r2, r2
 9144 2e2a 07F13001 		add	r1, r7, #48
 9145 2e2e 0B44     		add	r3, r3, r1
ARM GAS  C:\Users\RECEPC~1\AppData\Local\Temp\cc8qeTl3.s 			page 200


 9146 2e30 03F82C2C 		strb	r2, [r3, #-44]
 9147 2e34 0CE0     		b	.L479
 9148              	.L478:
2014:.\main.c      **** 									}
2015:.\main.c      **** 									else{
2016:.\main.c      **** 										numero[x-1]=Buffer_LCD1[x];
 9149              		.loc 1 2016 0
 9150 2e36 97F82F30 		ldrb	r3, [r7, #47]	@ zero_extendqisi2
 9151 2e3a 013B     		subs	r3, r3, #1
 9152 2e3c 97F82F20 		ldrb	r2, [r7, #47]	@ zero_extendqisi2
 9153 2e40 A449     		ldr	r1, .L749
 9154 2e42 8A5C     		ldrb	r2, [r1, r2]
 9155 2e44 D2B2     		uxtb	r2, r2
 9156 2e46 07F13001 		add	r1, r7, #48
 9157 2e4a 0B44     		add	r3, r3, r1
 9158 2e4c 03F82C2C 		strb	r2, [r3, #-44]
 9159              	.L479:
2011:.\main.c      **** 									if(Buffer_LCD1[x]!=','){
 9160              		.loc 1 2011 0 discriminator 2
 9161 2e50 97F82F30 		ldrb	r3, [r7, #47]	@ zero_extendqisi2
 9162 2e54 0133     		adds	r3, r3, #1
 9163 2e56 87F82F30 		strb	r3, [r7, #47]
 9164              	.L477:
2011:.\main.c      **** 									if(Buffer_LCD1[x]!=','){
 9165              		.loc 1 2011 0 is_stmt 0 discriminator 1
 9166 2e5a 9F4B     		ldr	r3, .L749+4
 9167 2e5c 1B78     		ldrb	r3, [r3]
 9168 2e5e DBB2     		uxtb	r3, r3
 9169 2e60 97F82F20 		ldrb	r2, [r7, #47]	@ zero_extendqisi2
 9170 2e64 9A42     		cmp	r2, r3
 9171 2e66 CFD9     		bls	.L480
2017:.\main.c      **** 									}
2018:.\main.c      **** 								}
2019:.\main.c      **** 								num_decimal=atof(numero);
 9172              		.loc 1 2019 0 is_stmt 1
 9173 2e68 3B1D     		adds	r3, r7, #4
 9174 2e6a 1846     		mov	r0, r3
 9175 2e6c FFF7FEFF 		bl	atof
 9176 2e70 C7E90801 		strd	r0, [r7, #32]
2020:.\main.c      **** 								if(((rventa2.preset[0]==1)&&(num_decimal>=5))||((rventa2.preset[0]==2)&&(num_decimal<=5)&&(
 9177              		.loc 1 2020 0
 9178 2e74 994B     		ldr	r3, .L749+8
 9179 2e76 DB7E     		ldrb	r3, [r3, #27]	@ zero_extendqisi2
 9180 2e78 012B     		cmp	r3, #1
 9181 2e7a 09D1     		bne	.L481
 9182              		.loc 1 2020 0 is_stmt 0 discriminator 1
 9183 2e7c D7E90801 		ldrd	r0, [r7, #32]
 9184 2e80 4FF00002 		mov	r2, #0
 9185 2e84 964B     		ldr	r3, .L749+12
 9186 2e86 FFF7FEFF 		bl	__aeabi_dcmpge
 9187 2e8a 0346     		mov	r3, r0
 9188 2e8c 002B     		cmp	r3, #0
 9189 2e8e 1AD1     		bne	.L482
 9190              	.L481:
 9191              		.loc 1 2020 0 discriminator 3
 9192 2e90 924B     		ldr	r3, .L749+8
 9193 2e92 DB7E     		ldrb	r3, [r3, #27]	@ zero_extendqisi2
ARM GAS  C:\Users\RECEPC~1\AppData\Local\Temp\cc8qeTl3.s 			page 201


 9194 2e94 022B     		cmp	r3, #2
 9195 2e96 40D1     		bne	.L476
 9196              		.loc 1 2020 0 discriminator 4
 9197 2e98 D7E90801 		ldrd	r0, [r7, #32]
 9198 2e9c 4FF00002 		mov	r2, #0
 9199 2ea0 8F4B     		ldr	r3, .L749+12
 9200 2ea2 FFF7FEFF 		bl	__aeabi_dcmple
 9201 2ea6 0346     		mov	r3, r0
 9202 2ea8 002B     		cmp	r3, #0
 9203 2eaa 00D1     		bne	.L704
2021:.\main.c      **** 									for(x=count_teclas1;x>=1;x--){
2022:.\main.c      **** 										rventa2.preset[x]=Buffer_LCD1[(count_teclas1-x)+1];
2023:.\main.c      **** 									}
2024:.\main.c      **** 									flujo_LCD1=5;								
2025:.\main.c      ****                          			lado2.estado=espera;
2026:.\main.c      **** 						            set_imagen(1,7);
2027:.\main.c      **** 								}
2028:.\main.c      **** 							}
2029:.\main.c      **** 						break;
 9204              		.loc 1 2029 0 is_stmt 1 discriminator 4
 9205 2eac 3EE3     		b	.L448
 9206              	.L704:
2020:.\main.c      **** 								if(((rventa2.preset[0]==1)&&(num_decimal>=5))||((rventa2.preset[0]==2)&&(num_decimal<=5)&&(
 9207              		.loc 1 2020 0 discriminator 5
 9208 2eae D7E90801 		ldrd	r0, [r7, #32]
 9209 2eb2 4FF00002 		mov	r2, #0
 9210 2eb6 4FF00003 		mov	r3, #0
 9211 2eba FFF7FEFF 		bl	__aeabi_dcmpgt
 9212 2ebe 0346     		mov	r3, r0
 9213 2ec0 002B     		cmp	r3, #0
 9214 2ec2 00D1     		bne	.L482
 9215              		.loc 1 2029 0 discriminator 5
 9216 2ec4 32E3     		b	.L448
 9217              	.L482:
2021:.\main.c      **** 									for(x=count_teclas1;x>=1;x--){
 9218              		.loc 1 2021 0
 9219 2ec6 844B     		ldr	r3, .L749+4
 9220 2ec8 1B78     		ldrb	r3, [r3]
 9221 2eca 87F82F30 		strb	r3, [r7, #47]
 9222 2ece 15E0     		b	.L485
 9223              	.L486:
2022:.\main.c      **** 									}
 9224              		.loc 1 2022 0 discriminator 3
 9225 2ed0 97F82F30 		ldrb	r3, [r7, #47]	@ zero_extendqisi2
 9226 2ed4 804A     		ldr	r2, .L749+4
 9227 2ed6 1278     		ldrb	r2, [r2]
 9228 2ed8 D2B2     		uxtb	r2, r2
 9229 2eda 1146     		mov	r1, r2
 9230 2edc 97F82F20 		ldrb	r2, [r7, #47]	@ zero_extendqisi2
 9231 2ee0 8A1A     		subs	r2, r1, r2
 9232 2ee2 0132     		adds	r2, r2, #1
 9233 2ee4 7B49     		ldr	r1, .L749
 9234 2ee6 8A5C     		ldrb	r2, [r1, r2]
 9235 2ee8 D1B2     		uxtb	r1, r2
 9236 2eea 7C4A     		ldr	r2, .L749+8
 9237 2eec 1344     		add	r3, r3, r2
 9238 2eee 0A46     		mov	r2, r1
ARM GAS  C:\Users\RECEPC~1\AppData\Local\Temp\cc8qeTl3.s 			page 202


 9239 2ef0 DA76     		strb	r2, [r3, #27]
2021:.\main.c      **** 									for(x=count_teclas1;x>=1;x--){
 9240              		.loc 1 2021 0 discriminator 3
 9241 2ef2 97F82F30 		ldrb	r3, [r7, #47]	@ zero_extendqisi2
 9242 2ef6 013B     		subs	r3, r3, #1
 9243 2ef8 87F82F30 		strb	r3, [r7, #47]
 9244              	.L485:
2021:.\main.c      **** 									for(x=count_teclas1;x>=1;x--){
 9245              		.loc 1 2021 0 is_stmt 0 discriminator 1
 9246 2efc 97F82F30 		ldrb	r3, [r7, #47]	@ zero_extendqisi2
 9247 2f00 002B     		cmp	r3, #0
 9248 2f02 E5D1     		bne	.L486
2024:.\main.c      ****                          			lado2.estado=espera;
 9249              		.loc 1 2024 0 is_stmt 1
 9250 2f04 774B     		ldr	r3, .L749+16
 9251 2f06 0522     		movs	r2, #5
 9252 2f08 1A70     		strb	r2, [r3]
2025:.\main.c      **** 						            set_imagen(1,7);
 9253              		.loc 1 2025 0
 9254 2f0a 774B     		ldr	r3, .L749+20
 9255 2f0c 0222     		movs	r2, #2
 9256 2f0e 5A70     		strb	r2, [r3, #1]
2026:.\main.c      **** 								}
 9257              		.loc 1 2026 0
 9258 2f10 0120     		movs	r0, #1
 9259 2f12 0721     		movs	r1, #7
 9260 2f14 FFF7FEFF 		bl	set_imagen
 9261              		.loc 1 2029 0
 9262 2f18 08E3     		b	.L448
 9263              	.L476:
 9264 2f1a 07E3     		b	.L448
 9265              	.L467:
2030:.\main.c      **** 						case 2:	
2031:.\main.c      ****                             for(x=0;x<=10;x++){
 9266              		.loc 1 2031 0
 9267 2f1c 0023     		movs	r3, #0
 9268 2f1e 87F82F30 		strb	r3, [r7, #47]
 9269 2f22 0BE0     		b	.L487
 9270              	.L488:
2032:.\main.c      ****                               rventa2.km[x]=0;
 9271              		.loc 1 2032 0 discriminator 3
 9272 2f24 97F82F30 		ldrb	r3, [r7, #47]	@ zero_extendqisi2
 9273 2f28 6C4A     		ldr	r2, .L749+8
 9274 2f2a 1344     		add	r3, r3, r2
 9275 2f2c 0022     		movs	r2, #0
 9276 2f2e 83F84320 		strb	r2, [r3, #67]
2031:.\main.c      ****                               rventa2.km[x]=0;
 9277              		.loc 1 2031 0 discriminator 3
 9278 2f32 97F82F30 		ldrb	r3, [r7, #47]	@ zero_extendqisi2
 9279 2f36 0133     		adds	r3, r3, #1
 9280 2f38 87F82F30 		strb	r3, [r7, #47]
 9281              	.L487:
2031:.\main.c      ****                               rventa2.km[x]=0;
 9282              		.loc 1 2031 0 is_stmt 0 discriminator 1
 9283 2f3c 97F82F30 		ldrb	r3, [r7, #47]	@ zero_extendqisi2
 9284 2f40 0A2B     		cmp	r3, #10
 9285 2f42 EFD9     		bls	.L488
ARM GAS  C:\Users\RECEPC~1\AppData\Local\Temp\cc8qeTl3.s 			page 203


2033:.\main.c      ****                             }
2034:.\main.c      **** 							for(x=count_teclas1;x>=1;x--){
 9286              		.loc 1 2034 0 is_stmt 1
 9287 2f44 644B     		ldr	r3, .L749+4
 9288 2f46 1B78     		ldrb	r3, [r3]
 9289 2f48 87F82F30 		strb	r3, [r7, #47]
 9290 2f4c 16E0     		b	.L489
 9291              	.L490:
2035:.\main.c      **** 								rventa2.km[x]=Buffer_LCD1[(count_teclas1-x)+1];
 9292              		.loc 1 2035 0 discriminator 3
 9293 2f4e 97F82F30 		ldrb	r3, [r7, #47]	@ zero_extendqisi2
 9294 2f52 614A     		ldr	r2, .L749+4
 9295 2f54 1278     		ldrb	r2, [r2]
 9296 2f56 D2B2     		uxtb	r2, r2
 9297 2f58 1146     		mov	r1, r2
 9298 2f5a 97F82F20 		ldrb	r2, [r7, #47]	@ zero_extendqisi2
 9299 2f5e 8A1A     		subs	r2, r1, r2
 9300 2f60 0132     		adds	r2, r2, #1
 9301 2f62 5C49     		ldr	r1, .L749
 9302 2f64 8A5C     		ldrb	r2, [r1, r2]
 9303 2f66 D1B2     		uxtb	r1, r2
 9304 2f68 5C4A     		ldr	r2, .L749+8
 9305 2f6a 1344     		add	r3, r3, r2
 9306 2f6c 0A46     		mov	r2, r1
 9307 2f6e 83F84320 		strb	r2, [r3, #67]
2034:.\main.c      **** 								rventa2.km[x]=Buffer_LCD1[(count_teclas1-x)+1];
 9308              		.loc 1 2034 0 discriminator 3
 9309 2f72 97F82F30 		ldrb	r3, [r7, #47]	@ zero_extendqisi2
 9310 2f76 013B     		subs	r3, r3, #1
 9311 2f78 87F82F30 		strb	r3, [r7, #47]
 9312              	.L489:
2034:.\main.c      **** 								rventa2.km[x]=Buffer_LCD1[(count_teclas1-x)+1];
 9313              		.loc 1 2034 0 is_stmt 0 discriminator 1
 9314 2f7c 97F82F30 		ldrb	r3, [r7, #47]	@ zero_extendqisi2
 9315 2f80 002B     		cmp	r3, #0
 9316 2f82 E4D1     		bne	.L490
2036:.\main.c      **** 							}	                                                    
2037:.\main.c      ****                             if(seleccion_pos == 2){
 9317              		.loc 1 2037 0 is_stmt 1
 9318 2f84 594B     		ldr	r3, .L749+24
 9319 2f86 1B78     		ldrb	r3, [r3]
 9320 2f88 DBB2     		uxtb	r3, r3
 9321 2f8a 022B     		cmp	r3, #2
 9322 2f8c 33D1     		bne	.L491
2038:.\main.c      ****             					for(x=0;x<=7;x++){
 9323              		.loc 1 2038 0
 9324 2f8e 0023     		movs	r3, #0
 9325 2f90 87F82F30 		strb	r3, [r7, #47]
 9326 2f94 0AE0     		b	.L492
 9327              	.L493:
2039:.\main.c      ****             					 	rventa2.preset[x]=0;
 9328              		.loc 1 2039 0 discriminator 3
 9329 2f96 97F82F30 		ldrb	r3, [r7, #47]	@ zero_extendqisi2
 9330 2f9a 504A     		ldr	r2, .L749+8
 9331 2f9c 1344     		add	r3, r3, r2
 9332 2f9e 0022     		movs	r2, #0
 9333 2fa0 DA76     		strb	r2, [r3, #27]
ARM GAS  C:\Users\RECEPC~1\AppData\Local\Temp\cc8qeTl3.s 			page 204


2038:.\main.c      ****             					for(x=0;x<=7;x++){
 9334              		.loc 1 2038 0 discriminator 3
 9335 2fa2 97F82F30 		ldrb	r3, [r7, #47]	@ zero_extendqisi2
 9336 2fa6 0133     		adds	r3, r3, #1
 9337 2fa8 87F82F30 		strb	r3, [r7, #47]
 9338              	.L492:
2038:.\main.c      ****             					for(x=0;x<=7;x++){
 9339              		.loc 1 2038 0 is_stmt 0 discriminator 1
 9340 2fac 97F82F30 		ldrb	r3, [r7, #47]	@ zero_extendqisi2
 9341 2fb0 072B     		cmp	r3, #7
 9342 2fb2 F0D9     		bls	.L493
2040:.\main.c      ****             					}
2041:.\main.c      ****                                 rventa2.preset[0]=3;					
 9343              		.loc 1 2041 0 is_stmt 1
 9344 2fb4 494B     		ldr	r3, .L749+8
 9345 2fb6 0322     		movs	r2, #3
 9346 2fb8 DA76     		strb	r2, [r3, #27]
2042:.\main.c      ****             					for(x=5;x<=7;x++){
 9347              		.loc 1 2042 0
 9348 2fba 0523     		movs	r3, #5
 9349 2fbc 87F82F30 		strb	r3, [r7, #47]
 9350 2fc0 0AE0     		b	.L494
 9351              	.L495:
2043:.\main.c      ****             						rventa2.preset[x]=9;		
 9352              		.loc 1 2043 0 discriminator 3
 9353 2fc2 97F82F30 		ldrb	r3, [r7, #47]	@ zero_extendqisi2
 9354 2fc6 454A     		ldr	r2, .L749+8
 9355 2fc8 1344     		add	r3, r3, r2
 9356 2fca 0922     		movs	r2, #9
 9357 2fcc DA76     		strb	r2, [r3, #27]
2042:.\main.c      ****             					for(x=5;x<=7;x++){
 9358              		.loc 1 2042 0 discriminator 3
 9359 2fce 97F82F30 		ldrb	r3, [r7, #47]	@ zero_extendqisi2
 9360 2fd2 0133     		adds	r3, r3, #1
 9361 2fd4 87F82F30 		strb	r3, [r7, #47]
 9362              	.L494:
2042:.\main.c      ****             					for(x=5;x<=7;x++){
 9363              		.loc 1 2042 0 is_stmt 0 discriminator 1
 9364 2fd8 97F82F30 		ldrb	r3, [r7, #47]	@ zero_extendqisi2
 9365 2fdc 072B     		cmp	r3, #7
 9366 2fde F0D9     		bls	.L495
2044:.\main.c      ****             					}								                                     
2045:.\main.c      ****             		            set_imagen(1,7);
 9367              		.loc 1 2045 0 is_stmt 1
 9368 2fe0 0120     		movs	r0, #1
 9369 2fe2 0721     		movs	r1, #7
 9370 2fe4 FFF7FEFF 		bl	set_imagen
2046:.\main.c      ****             					lado2.estado=espera;
 9371              		.loc 1 2046 0
 9372 2fe8 3F4B     		ldr	r3, .L749+20
 9373 2fea 0222     		movs	r2, #2
 9374 2fec 5A70     		strb	r2, [r3, #1]
2047:.\main.c      ****                                 flujo_LCD1 = 6;  
 9375              		.loc 1 2047 0
 9376 2fee 3D4B     		ldr	r3, .L749+16
 9377 2ff0 0622     		movs	r2, #6
 9378 2ff2 1A70     		strb	r2, [r3]
ARM GAS  C:\Users\RECEPC~1\AppData\Local\Temp\cc8qeTl3.s 			page 205


2048:.\main.c      ****                             }    		                        
2049:.\main.c      **** 						break;
 9379              		.loc 1 2049 0
 9380 2ff4 9AE2     		b	.L448
 9381              	.L491:
 9382 2ff6 99E2     		b	.L448
 9383              	.L468:
2050:.\main.c      **** 						case 3:
2051:.\main.c      **** 							for(x=count_teclas1;x>=1;x--){
 9384              		.loc 1 2051 0
 9385 2ff8 374B     		ldr	r3, .L749+4
 9386 2ffa 1B78     		ldrb	r3, [r3]
 9387 2ffc 87F82F30 		strb	r3, [r7, #47]
 9388 3000 18E0     		b	.L496
 9389              	.L497:
2052:.\main.c      **** 								rventa2.cedula[x]=Buffer_LCD1[(count_teclas1-x)+1]+48;
 9390              		.loc 1 2052 0 discriminator 3
 9391 3002 97F82F30 		ldrb	r3, [r7, #47]	@ zero_extendqisi2
 9392 3006 344A     		ldr	r2, .L749+4
 9393 3008 1278     		ldrb	r2, [r2]
 9394 300a D2B2     		uxtb	r2, r2
 9395 300c 1146     		mov	r1, r2
 9396 300e 97F82F20 		ldrb	r2, [r7, #47]	@ zero_extendqisi2
 9397 3012 8A1A     		subs	r2, r1, r2
 9398 3014 0132     		adds	r2, r2, #1
 9399 3016 2F49     		ldr	r1, .L749
 9400 3018 8A5C     		ldrb	r2, [r1, r2]
 9401 301a D2B2     		uxtb	r2, r2
 9402 301c 3032     		adds	r2, r2, #48
 9403 301e D1B2     		uxtb	r1, r2
 9404 3020 2E4A     		ldr	r2, .L749+8
 9405 3022 1344     		add	r3, r3, r2
 9406 3024 0A46     		mov	r2, r1
 9407 3026 83F85920 		strb	r2, [r3, #89]
2051:.\main.c      **** 								rventa2.cedula[x]=Buffer_LCD1[(count_teclas1-x)+1]+48;
 9408              		.loc 1 2051 0 discriminator 3
 9409 302a 97F82F30 		ldrb	r3, [r7, #47]	@ zero_extendqisi2
 9410 302e 013B     		subs	r3, r3, #1
 9411 3030 87F82F30 		strb	r3, [r7, #47]
 9412              	.L496:
2051:.\main.c      **** 								rventa2.cedula[x]=Buffer_LCD1[(count_teclas1-x)+1]+48;
 9413              		.loc 1 2051 0 is_stmt 0 discriminator 1
 9414 3034 97F82F30 		ldrb	r3, [r7, #47]	@ zero_extendqisi2
 9415 3038 002B     		cmp	r3, #0
 9416 303a E2D1     		bne	.L497
2053:.\main.c      **** 							}
2054:.\main.c      ****                         	flujo_LCD1=2;	
 9417              		.loc 1 2054 0 is_stmt 1
 9418 303c 294B     		ldr	r3, .L749+16
 9419 303e 0222     		movs	r2, #2
 9420 3040 1A70     		strb	r2, [r3]
2055:.\main.c      ****                         	set_imagen(1,5);
 9421              		.loc 1 2055 0
 9422 3042 0120     		movs	r0, #1
 9423 3044 0521     		movs	r1, #5
 9424 3046 FFF7FEFF 		bl	set_imagen
2056:.\main.c      **** 							count_teclas1=0;
ARM GAS  C:\Users\RECEPC~1\AppData\Local\Temp\cc8qeTl3.s 			page 206


 9425              		.loc 1 2056 0
 9426 304a 234B     		ldr	r3, .L749+4
 9427 304c 0022     		movs	r2, #0
 9428 304e 1A70     		strb	r2, [r3]
2057:.\main.c      **** 							id_teclado1=4;
 9429              		.loc 1 2057 0
 9430 3050 274B     		ldr	r3, .L749+28
 9431 3052 0422     		movs	r2, #4
 9432 3054 1A70     		strb	r2, [r3]
2058:.\main.c      **** 							teclas1=10;
 9433              		.loc 1 2058 0
 9434 3056 274B     		ldr	r3, .L749+32
 9435 3058 0A22     		movs	r2, #10
 9436 305a 1A70     		strb	r2, [r3]
2059:.\main.c      **** 							posx1=2;
 9437              		.loc 1 2059 0
 9438 305c 264B     		ldr	r3, .L749+36
 9439 305e 0222     		movs	r2, #2
 9440 3060 1A80     		strh	r2, [r3]	@ movhi
2060:.\main.c      **** 							posy1=3;
 9441              		.loc 1 2060 0
 9442 3062 264B     		ldr	r3, .L749+40
 9443 3064 0322     		movs	r2, #3
 9444 3066 1A80     		strh	r2, [r3]	@ movhi
2061:.\main.c      **** 							sizeletra1=1;								
 9445              		.loc 1 2061 0
 9446 3068 254B     		ldr	r3, .L749+44
 9447 306a 0122     		movs	r2, #1
 9448 306c 1A80     		strh	r2, [r3]	@ movhi
2062:.\main.c      **** 						break;
 9449              		.loc 1 2062 0
 9450 306e 5DE2     		b	.L448
 9451              	.L469:
2063:.\main.c      **** 						case 4:
2064:.\main.c      **** 							for(x=count_teclas1;x>=1;x--){
 9452              		.loc 1 2064 0
 9453 3070 194B     		ldr	r3, .L749+4
 9454 3072 1B78     		ldrb	r3, [r3]
 9455 3074 87F82F30 		strb	r3, [r7, #47]
 9456 3078 18E0     		b	.L498
 9457              	.L499:
2065:.\main.c      **** 								rventa2.password[x]=Buffer_LCD1[(count_teclas1-x)+1]+48;
 9458              		.loc 1 2065 0 discriminator 3
 9459 307a 97F82F30 		ldrb	r3, [r7, #47]	@ zero_extendqisi2
 9460 307e 164A     		ldr	r2, .L749+4
 9461 3080 1278     		ldrb	r2, [r2]
 9462 3082 D2B2     		uxtb	r2, r2
 9463 3084 1146     		mov	r1, r2
 9464 3086 97F82F20 		ldrb	r2, [r7, #47]	@ zero_extendqisi2
 9465 308a 8A1A     		subs	r2, r1, r2
 9466 308c 0132     		adds	r2, r2, #1
 9467 308e 1149     		ldr	r1, .L749
 9468 3090 8A5C     		ldrb	r2, [r1, r2]
 9469 3092 D2B2     		uxtb	r2, r2
 9470 3094 3032     		adds	r2, r2, #48
 9471 3096 D1B2     		uxtb	r1, r2
 9472 3098 104A     		ldr	r2, .L749+8
ARM GAS  C:\Users\RECEPC~1\AppData\Local\Temp\cc8qeTl3.s 			page 207


 9473 309a 1344     		add	r3, r3, r2
 9474 309c 0A46     		mov	r2, r1
 9475 309e 83F86420 		strb	r2, [r3, #100]
2064:.\main.c      **** 								rventa2.password[x]=Buffer_LCD1[(count_teclas1-x)+1]+48;
 9476              		.loc 1 2064 0 discriminator 3
 9477 30a2 97F82F30 		ldrb	r3, [r7, #47]	@ zero_extendqisi2
 9478 30a6 013B     		subs	r3, r3, #1
 9479 30a8 87F82F30 		strb	r3, [r7, #47]
 9480              	.L498:
2064:.\main.c      **** 								rventa2.password[x]=Buffer_LCD1[(count_teclas1-x)+1]+48;
 9481              		.loc 1 2064 0 is_stmt 0 discriminator 1
 9482 30ac 97F82F30 		ldrb	r3, [r7, #47]	@ zero_extendqisi2
 9483 30b0 002B     		cmp	r3, #0
 9484 30b2 E2D1     		bne	.L499
2066:.\main.c      **** 							}
2067:.\main.c      ****                         	flujo_LCD1=102;	
 9485              		.loc 1 2067 0 is_stmt 1
 9486 30b4 0B4B     		ldr	r3, .L749+16
 9487 30b6 6622     		movs	r2, #102
 9488 30b8 1A70     		strb	r2, [r3]
2068:.\main.c      ****                         	set_imagen(1,57);
 9489              		.loc 1 2068 0
 9490 30ba 0120     		movs	r0, #1
 9491 30bc 3921     		movs	r1, #57
 9492 30be FFF7FEFF 		bl	set_imagen
2069:.\main.c      **** 							lado2.estado=16;
 9493              		.loc 1 2069 0
 9494 30c2 094B     		ldr	r3, .L749+20
 9495 30c4 1022     		movs	r2, #16
 9496 30c6 5A70     		strb	r2, [r3, #1]
2070:.\main.c      **** 						break;	
 9497              		.loc 1 2070 0
 9498 30c8 30E2     		b	.L448
 9499              	.L470:
2071:.\main.c      ****                         case 5:
2072:.\main.c      **** 							for(x=count_teclas1;x>=1;x--){
 9500              		.loc 1 2072 0
 9501 30ca 034B     		ldr	r3, .L749+4
 9502 30cc 1B78     		ldrb	r3, [r3]
 9503 30ce 87F82F30 		strb	r3, [r7, #47]
 9504 30d2 30E0     		b	.L500
 9505              	.L750:
 9506              		.align	2
 9507              	.L749:
 9508 30d4 00000000 		.word	Buffer_LCD1
 9509 30d8 00000000 		.word	count_teclas1
 9510 30dc 00000000 		.word	rventa2
 9511 30e0 00001440 		.word	1075052544
 9512 30e4 00000000 		.word	flujo_LCD1
 9513 30e8 00000000 		.word	lado2
 9514 30ec 00000000 		.word	seleccion_pos
 9515 30f0 00000000 		.word	id_teclado1
 9516 30f4 00000000 		.word	teclas1
 9517 30f8 00000000 		.word	posx1
 9518 30fc 00000000 		.word	posy1
 9519 3100 00000000 		.word	sizeletra1
 9520              	.L501:
ARM GAS  C:\Users\RECEPC~1\AppData\Local\Temp\cc8qeTl3.s 			page 208


2073:.\main.c      **** 								rventa1.password_local[x]=Buffer_LCD1[(count_teclas1-x)+1]+48;
 9521              		.loc 1 2073 0 discriminator 3
 9522 3104 97F82F30 		ldrb	r3, [r7, #47]	@ zero_extendqisi2
 9523 3108 AF4A     		ldr	r2, .L751
 9524 310a 1278     		ldrb	r2, [r2]
 9525 310c D2B2     		uxtb	r2, r2
 9526 310e 1146     		mov	r1, r2
 9527 3110 97F82F20 		ldrb	r2, [r7, #47]	@ zero_extendqisi2
 9528 3114 8A1A     		subs	r2, r1, r2
 9529 3116 0132     		adds	r2, r2, #1
 9530 3118 AC49     		ldr	r1, .L751+4
 9531 311a 8A5C     		ldrb	r2, [r1, r2]
 9532 311c D2B2     		uxtb	r2, r2
 9533 311e 3032     		adds	r2, r2, #48
 9534 3120 D1B2     		uxtb	r1, r2
 9535 3122 AB4A     		ldr	r2, .L751+8
 9536 3124 1344     		add	r3, r3, r2
 9537 3126 0A46     		mov	r2, r1
 9538 3128 83F87120 		strb	r2, [r3, #113]
2072:.\main.c      **** 								rventa1.password_local[x]=Buffer_LCD1[(count_teclas1-x)+1]+48;
 9539              		.loc 1 2072 0 discriminator 3
 9540 312c 97F82F30 		ldrb	r3, [r7, #47]	@ zero_extendqisi2
 9541 3130 013B     		subs	r3, r3, #1
 9542 3132 87F82F30 		strb	r3, [r7, #47]
 9543              	.L500:
2072:.\main.c      **** 								rventa1.password_local[x]=Buffer_LCD1[(count_teclas1-x)+1]+48;
 9544              		.loc 1 2072 0 is_stmt 0 discriminator 1
 9545 3136 97F82F30 		ldrb	r3, [r7, #47]	@ zero_extendqisi2
 9546 313a 002B     		cmp	r3, #0
 9547 313c E2D1     		bne	.L501
2074:.\main.c      **** 							}
2075:.\main.c      ****                             if(clave_local[0]==rventa1.password_local[4] && clave_local[1]==rventa1
 9548              		.loc 1 2075 0 is_stmt 1
 9549 313e A54B     		ldr	r3, .L751+12
 9550 3140 1A78     		ldrb	r2, [r3]	@ zero_extendqisi2
 9551 3142 A34B     		ldr	r3, .L751+8
 9552 3144 93F87530 		ldrb	r3, [r3, #117]	@ zero_extendqisi2
 9553 3148 9A42     		cmp	r2, r3
 9554 314a 23D1     		bne	.L502
 9555              		.loc 1 2075 0 is_stmt 0 discriminator 1
 9556 314c A14B     		ldr	r3, .L751+12
 9557 314e 5A78     		ldrb	r2, [r3, #1]	@ zero_extendqisi2
 9558 3150 9F4B     		ldr	r3, .L751+8
 9559 3152 93F87430 		ldrb	r3, [r3, #116]	@ zero_extendqisi2
 9560 3156 9A42     		cmp	r2, r3
 9561 3158 1CD1     		bne	.L502
 9562              		.loc 1 2075 0 discriminator 2
 9563 315a 9E4B     		ldr	r3, .L751+12
 9564 315c 9A78     		ldrb	r2, [r3, #2]	@ zero_extendqisi2
 9565 315e 9C4B     		ldr	r3, .L751+8
 9566 3160 93F87330 		ldrb	r3, [r3, #115]	@ zero_extendqisi2
 9567 3164 9A42     		cmp	r2, r3
 9568 3166 15D1     		bne	.L502
 9569              		.loc 1 2075 0 discriminator 3
 9570 3168 9A4B     		ldr	r3, .L751+12
 9571 316a DA78     		ldrb	r2, [r3, #3]	@ zero_extendqisi2
 9572 316c 984B     		ldr	r3, .L751+8
ARM GAS  C:\Users\RECEPC~1\AppData\Local\Temp\cc8qeTl3.s 			page 209


 9573 316e 93F87230 		ldrb	r3, [r3, #114]	@ zero_extendqisi2
 9574 3172 9A42     		cmp	r2, r3
 9575 3174 0ED1     		bne	.L502
2076:.\main.c      ****                         	    set_imagen(1,38); 
 9576              		.loc 1 2076 0 is_stmt 1
 9577 3176 0120     		movs	r0, #1
 9578 3178 2621     		movs	r1, #38
 9579 317a FFF7FEFF 		bl	set_imagen
2077:.\main.c      ****                                 CyDelay(200);
 9580              		.loc 1 2077 0
 9581 317e C820     		movs	r0, #200
 9582 3180 FFF7FEFF 		bl	CyDelay
2078:.\main.c      **** 							    set_imagen(1,70);  
 9583              		.loc 1 2078 0
 9584 3184 0120     		movs	r0, #1
 9585 3186 4621     		movs	r1, #70
 9586 3188 FFF7FEFF 		bl	set_imagen
2079:.\main.c      ****                                 flujo_LCD1 = 16;
 9587              		.loc 1 2079 0
 9588 318c 924B     		ldr	r3, .L751+16
 9589 318e 1022     		movs	r2, #16
 9590 3190 1A70     		strb	r2, [r3]
2080:.\main.c      ****                             }else{
2081:.\main.c      ****                         	    flujo_LCD1=0;	
2082:.\main.c      ****                         	    set_imagen(1,39); 
2083:.\main.c      **** 							    lado2.estado=libre;                                 
2084:.\main.c      ****                                 CyDelay(200);
2085:.\main.c      **** 							    set_imagen(1,0);                                 
2086:.\main.c      ****                             }
2087:.\main.c      ****                         break; 
 9591              		.loc 1 2087 0
 9592 3192 CBE1     		b	.L448
 9593              	.L502:
2081:.\main.c      ****                         	    set_imagen(1,39); 
 9594              		.loc 1 2081 0
 9595 3194 904B     		ldr	r3, .L751+16
 9596 3196 0022     		movs	r2, #0
 9597 3198 1A70     		strb	r2, [r3]
2082:.\main.c      **** 							    lado2.estado=libre;                                 
 9598              		.loc 1 2082 0
 9599 319a 0120     		movs	r0, #1
 9600 319c 2721     		movs	r1, #39
 9601 319e FFF7FEFF 		bl	set_imagen
2083:.\main.c      ****                                 CyDelay(200);
 9602              		.loc 1 2083 0
 9603 31a2 8E4B     		ldr	r3, .L751+20
 9604 31a4 0122     		movs	r2, #1
 9605 31a6 5A70     		strb	r2, [r3, #1]
2084:.\main.c      **** 							    set_imagen(1,0);                                 
 9606              		.loc 1 2084 0
 9607 31a8 C820     		movs	r0, #200
 9608 31aa FFF7FEFF 		bl	CyDelay
2085:.\main.c      ****                             }
 9609              		.loc 1 2085 0
 9610 31ae 0120     		movs	r0, #1
 9611 31b0 0021     		movs	r1, #0
 9612 31b2 FFF7FEFF 		bl	set_imagen
ARM GAS  C:\Users\RECEPC~1\AppData\Local\Temp\cc8qeTl3.s 			page 210


 9613              		.loc 1 2087 0
 9614 31b6 B9E1     		b	.L448
 9615              	.L471:
2088:.\main.c      ****                         case 6:                        
2089:.\main.c      **** 						    EEPROM_WriteByte(Buffer_LCD1[count_teclas1],30);
 9616              		.loc 1 2089 0
 9617 31b8 834B     		ldr	r3, .L751
 9618 31ba 1B78     		ldrb	r3, [r3]
 9619 31bc DBB2     		uxtb	r3, r3
 9620 31be 1A46     		mov	r2, r3
 9621 31c0 824B     		ldr	r3, .L751+4
 9622 31c2 9B5C     		ldrb	r3, [r3, r2]
 9623 31c4 DBB2     		uxtb	r3, r3
 9624 31c6 1846     		mov	r0, r3
 9625 31c8 1E21     		movs	r1, #30
 9626 31ca FFF7FEFF 		bl	EEPROM_WriteByte
2090:.\main.c      ****                         	flujo_LCD1 = 0;	
 9627              		.loc 1 2090 0
 9628 31ce 824B     		ldr	r3, .L751+16
 9629 31d0 0022     		movs	r2, #0
 9630 31d2 1A70     		strb	r2, [r3]
2091:.\main.c      ****                         	set_imagen(1,60);
 9631              		.loc 1 2091 0
 9632 31d4 0120     		movs	r0, #1
 9633 31d6 3C21     		movs	r1, #60
 9634 31d8 FFF7FEFF 		bl	set_imagen
2092:.\main.c      ****                             CyDelay(200);
 9635              		.loc 1 2092 0
 9636 31dc C820     		movs	r0, #200
 9637 31de FFF7FEFF 		bl	CyDelay
2093:.\main.c      **** 							lado2.estado=libre;                                                     
 9638              		.loc 1 2093 0
 9639 31e2 7E4B     		ldr	r3, .L751+20
 9640 31e4 0122     		movs	r2, #1
 9641 31e6 5A70     		strb	r2, [r3, #1]
2094:.\main.c      ****                         break;   
 9642              		.loc 1 2094 0
 9643 31e8 A0E1     		b	.L448
 9644              	.L472:
2095:.\main.c      ****                         case 7:
2096:.\main.c      ****                             flujo_LCD1=18;
 9645              		.loc 1 2096 0
 9646 31ea 7B4B     		ldr	r3, .L751+16
 9647 31ec 1222     		movs	r2, #18
 9648 31ee 1A70     		strb	r2, [r3]
2097:.\main.c      ****                             set_imagen(1,88);
 9649              		.loc 1 2097 0
 9650 31f0 0120     		movs	r0, #1
 9651 31f2 5821     		movs	r1, #88
 9652 31f4 FFF7FEFF 		bl	set_imagen
2098:.\main.c      ****                             switch(Producto){
 9653              		.loc 1 2098 0
 9654 31f8 794B     		ldr	r3, .L751+24
 9655 31fa 1B78     		ldrb	r3, [r3]	@ zero_extendqisi2
 9656 31fc 013B     		subs	r3, r3, #1
 9657 31fe 032B     		cmp	r3, #3
 9658 3200 00F29880 		bhi	.L504
ARM GAS  C:\Users\RECEPC~1\AppData\Local\Temp\cc8qeTl3.s 			page 211


 9659 3204 01A2     		adr	r2, .L506
 9660 3206 52F823F0 		ldr	pc, [r2, r3, lsl #2]
 9661 320a 00BF     		.p2align 2
 9662              	.L506:
 9663 320c 1D320000 		.word	.L505+1
 9664 3210 63320000 		.word	.L507+1
 9665 3214 A9320000 		.word	.L508+1
 9666 3218 EF320000 		.word	.L509+1
 9667              		.p2align 1
 9668              	.L505:
2099:.\main.c      ****                                 case 1:// 1=diesel, siempre para Autogas, 
2100:.\main.c      ****                                     Productos[0]=Buffer_LCD1[1]+48;//para la estacion seria el digi
 9669              		.loc 1 2100 0
 9670 321c 6B4B     		ldr	r3, .L751+4
 9671 321e 5B78     		ldrb	r3, [r3, #1]
 9672 3220 DBB2     		uxtb	r3, r3
 9673 3222 3033     		adds	r3, r3, #48
 9674 3224 DAB2     		uxtb	r2, r3
 9675 3226 6F4B     		ldr	r3, .L751+28
 9676 3228 1A70     		strb	r2, [r3]
2101:.\main.c      ****                                     switch(Productos[0]){
 9677              		.loc 1 2101 0
 9678 322a 6E4B     		ldr	r3, .L751+28
 9679 322c 1B78     		ldrb	r3, [r3]	@ zero_extendqisi2
 9680 322e 322B     		cmp	r3, #50
 9681 3230 08D0     		beq	.L511
 9682 3232 332B     		cmp	r3, #51
 9683 3234 0BD0     		beq	.L512
 9684 3236 312B     		cmp	r3, #49
 9685 3238 0ED1     		bne	.L709
2102:.\main.c      ****                                         case '1':
2103:.\main.c      ****                                         lado2.grado[0][0]=1;                                       
 9686              		.loc 1 2103 0
 9687 323a 684B     		ldr	r3, .L751+20
 9688 323c 0122     		movs	r2, #1
 9689 323e 83F85920 		strb	r2, [r3, #89]
2104:.\main.c      ****                                         break;
 9690              		.loc 1 2104 0
 9691 3242 0DE0     		b	.L514
 9692              	.L511:
2105:.\main.c      ****                                         case '2':
2106:.\main.c      ****                                         lado2.grado[1][0]=1;                                       
 9693              		.loc 1 2106 0
 9694 3244 654B     		ldr	r3, .L751+20
 9695 3246 0122     		movs	r2, #1
 9696 3248 83F85A20 		strb	r2, [r3, #90]
2107:.\main.c      ****                                         break;
 9697              		.loc 1 2107 0
 9698 324c 08E0     		b	.L514
 9699              	.L512:
2108:.\main.c      ****                                         case '3':
2109:.\main.c      ****                                         lado2.grado[2][0]=1;                                       
 9700              		.loc 1 2109 0
 9701 324e 634B     		ldr	r3, .L751+20
 9702 3250 0122     		movs	r2, #1
 9703 3252 83F85B20 		strb	r2, [r3, #91]
2110:.\main.c      ****                                         break;                    
ARM GAS  C:\Users\RECEPC~1\AppData\Local\Temp\cc8qeTl3.s 			page 212


 9704              		.loc 1 2110 0
 9705 3256 03E0     		b	.L514
 9706              	.L709:
2111:.\main.c      ****                                         default:
2112:.\main.c      ****                                         producto1 = 0;
 9707              		.loc 1 2112 0
 9708 3258 634B     		ldr	r3, .L751+32
 9709 325a 0022     		movs	r2, #0
 9710 325c 1A70     		strb	r2, [r3]
2113:.\main.c      ****                                         break;
 9711              		.loc 1 2113 0
 9712 325e 00BF     		nop
 9713              	.L514:
2114:.\main.c      ****                                     }                                   
2115:.\main.c      ****                                 break;
 9714              		.loc 1 2115 0
 9715 3260 68E0     		b	.L504
 9716              	.L507:
2116:.\main.c      ****                                 case 2:// 2=corriente, siempre para Autogas,
2117:.\main.c      ****                                     Productos[1]=Buffer_LCD1[1]+48;
 9717              		.loc 1 2117 0
 9718 3262 5A4B     		ldr	r3, .L751+4
 9719 3264 5B78     		ldrb	r3, [r3, #1]
 9720 3266 DBB2     		uxtb	r3, r3
 9721 3268 3033     		adds	r3, r3, #48
 9722 326a DAB2     		uxtb	r2, r3
 9723 326c 5D4B     		ldr	r3, .L751+28
 9724 326e 5A70     		strb	r2, [r3, #1]
2118:.\main.c      ****                                     switch(Productos[1]){
 9725              		.loc 1 2118 0
 9726 3270 5C4B     		ldr	r3, .L751+28
 9727 3272 5B78     		ldrb	r3, [r3, #1]	@ zero_extendqisi2
 9728 3274 322B     		cmp	r3, #50
 9729 3276 08D0     		beq	.L516
 9730 3278 332B     		cmp	r3, #51
 9731 327a 0BD0     		beq	.L517
 9732 327c 312B     		cmp	r3, #49
 9733 327e 0ED1     		bne	.L710
2119:.\main.c      ****                                         case '1':
2120:.\main.c      ****                                         lado2.grado[0][0]=2;                                       
 9734              		.loc 1 2120 0
 9735 3280 564B     		ldr	r3, .L751+20
 9736 3282 0222     		movs	r2, #2
 9737 3284 83F85920 		strb	r2, [r3, #89]
2121:.\main.c      ****                                         break;
 9738              		.loc 1 2121 0
 9739 3288 0DE0     		b	.L519
 9740              	.L516:
2122:.\main.c      ****                                         case '2':
2123:.\main.c      ****                                         lado2.grado[1][0]=2;                                       
 9741              		.loc 1 2123 0
 9742 328a 544B     		ldr	r3, .L751+20
 9743 328c 0222     		movs	r2, #2
 9744 328e 83F85A20 		strb	r2, [r3, #90]
2124:.\main.c      ****                                         break;
 9745              		.loc 1 2124 0
 9746 3292 08E0     		b	.L519
ARM GAS  C:\Users\RECEPC~1\AppData\Local\Temp\cc8qeTl3.s 			page 213


 9747              	.L517:
2125:.\main.c      ****                                         case '3':
2126:.\main.c      ****                                         lado2.grado[2][0]=2;                                       
 9748              		.loc 1 2126 0
 9749 3294 514B     		ldr	r3, .L751+20
 9750 3296 0222     		movs	r2, #2
 9751 3298 83F85B20 		strb	r2, [r3, #91]
2127:.\main.c      ****                                         break; 
 9752              		.loc 1 2127 0
 9753 329c 03E0     		b	.L519
 9754              	.L710:
2128:.\main.c      ****                                         default:
2129:.\main.c      ****                                         producto2=0;
 9755              		.loc 1 2129 0
 9756 329e 534B     		ldr	r3, .L751+36
 9757 32a0 0022     		movs	r2, #0
 9758 32a2 1A70     		strb	r2, [r3]
2130:.\main.c      ****                                         break;                                        
 9759              		.loc 1 2130 0
 9760 32a4 00BF     		nop
 9761              	.L519:
2131:.\main.c      ****                                     }                                      
2132:.\main.c      ****                                 break;
 9762              		.loc 1 2132 0
 9763 32a6 45E0     		b	.L504
 9764              	.L508:
2133:.\main.c      ****                                 case 3:// 3=extra, siempre para Autogas,
2134:.\main.c      ****                                     Productos[2]=Buffer_LCD1[1]+48;
 9765              		.loc 1 2134 0
 9766 32a8 484B     		ldr	r3, .L751+4
 9767 32aa 5B78     		ldrb	r3, [r3, #1]
 9768 32ac DBB2     		uxtb	r3, r3
 9769 32ae 3033     		adds	r3, r3, #48
 9770 32b0 DAB2     		uxtb	r2, r3
 9771 32b2 4C4B     		ldr	r3, .L751+28
 9772 32b4 9A70     		strb	r2, [r3, #2]
2135:.\main.c      ****                                     switch(Productos[2]){
 9773              		.loc 1 2135 0
 9774 32b6 4B4B     		ldr	r3, .L751+28
 9775 32b8 9B78     		ldrb	r3, [r3, #2]	@ zero_extendqisi2
 9776 32ba 322B     		cmp	r3, #50
 9777 32bc 08D0     		beq	.L521
 9778 32be 332B     		cmp	r3, #51
 9779 32c0 0BD0     		beq	.L522
 9780 32c2 312B     		cmp	r3, #49
 9781 32c4 0ED1     		bne	.L711
2136:.\main.c      ****                                         case '1':
2137:.\main.c      ****                                         lado2.grado[0][0]=3;                                       
 9782              		.loc 1 2137 0
 9783 32c6 454B     		ldr	r3, .L751+20
 9784 32c8 0322     		movs	r2, #3
 9785 32ca 83F85920 		strb	r2, [r3, #89]
2138:.\main.c      ****                                         break;
 9786              		.loc 1 2138 0
 9787 32ce 0DE0     		b	.L524
 9788              	.L521:
2139:.\main.c      ****                                         case '2':
ARM GAS  C:\Users\RECEPC~1\AppData\Local\Temp\cc8qeTl3.s 			page 214


2140:.\main.c      ****                                         lado2.grado[1][0]=3;                                       
 9789              		.loc 1 2140 0
 9790 32d0 424B     		ldr	r3, .L751+20
 9791 32d2 0322     		movs	r2, #3
 9792 32d4 83F85A20 		strb	r2, [r3, #90]
2141:.\main.c      ****                                         break;
 9793              		.loc 1 2141 0
 9794 32d8 08E0     		b	.L524
 9795              	.L522:
2142:.\main.c      ****                                         case '3':
2143:.\main.c      ****                                         lado2.grado[2][0]=3;                                       
 9796              		.loc 1 2143 0
 9797 32da 404B     		ldr	r3, .L751+20
 9798 32dc 0322     		movs	r2, #3
 9799 32de 83F85B20 		strb	r2, [r3, #91]
2144:.\main.c      ****                                         break; 
 9800              		.loc 1 2144 0
 9801 32e2 03E0     		b	.L524
 9802              	.L711:
2145:.\main.c      ****                                         default:
2146:.\main.c      ****                                         producto3=0;
 9803              		.loc 1 2146 0
 9804 32e4 424B     		ldr	r3, .L751+40
 9805 32e6 0022     		movs	r2, #0
 9806 32e8 1A70     		strb	r2, [r3]
2147:.\main.c      ****                                         break;                                        
 9807              		.loc 1 2147 0
 9808 32ea 00BF     		nop
 9809              	.L524:
2148:.\main.c      ****                                     }                                      
2149:.\main.c      ****                                 break;
 9810              		.loc 1 2149 0
 9811 32ec 22E0     		b	.L504
 9812              	.L509:
2150:.\main.c      ****                                 case 4:// 4=supreme diesel, siempre para Autogas,
2151:.\main.c      ****                                     Productos[3]=Buffer_LCD1[1]+48;
 9813              		.loc 1 2151 0
 9814 32ee 374B     		ldr	r3, .L751+4
 9815 32f0 5B78     		ldrb	r3, [r3, #1]
 9816 32f2 DBB2     		uxtb	r3, r3
 9817 32f4 3033     		adds	r3, r3, #48
 9818 32f6 DAB2     		uxtb	r2, r3
 9819 32f8 3A4B     		ldr	r3, .L751+28
 9820 32fa DA70     		strb	r2, [r3, #3]
2152:.\main.c      ****                                     switch(Productos[3]){
 9821              		.loc 1 2152 0
 9822 32fc 394B     		ldr	r3, .L751+28
 9823 32fe DB78     		ldrb	r3, [r3, #3]	@ zero_extendqisi2
 9824 3300 322B     		cmp	r3, #50
 9825 3302 08D0     		beq	.L526
 9826 3304 332B     		cmp	r3, #51
 9827 3306 0BD0     		beq	.L527
 9828 3308 312B     		cmp	r3, #49
 9829 330a 0ED1     		bne	.L712
2153:.\main.c      ****                                         case '1':
2154:.\main.c      ****                                         lado2.grado[0][0]=4;                                       
 9830              		.loc 1 2154 0
ARM GAS  C:\Users\RECEPC~1\AppData\Local\Temp\cc8qeTl3.s 			page 215


 9831 330c 334B     		ldr	r3, .L751+20
 9832 330e 0422     		movs	r2, #4
 9833 3310 83F85920 		strb	r2, [r3, #89]
2155:.\main.c      ****                                         break;
 9834              		.loc 1 2155 0
 9835 3314 0DE0     		b	.L529
 9836              	.L526:
2156:.\main.c      ****                                         case '2':
2157:.\main.c      ****                                         lado2.grado[1][0]=4;                                       
 9837              		.loc 1 2157 0
 9838 3316 314B     		ldr	r3, .L751+20
 9839 3318 0422     		movs	r2, #4
 9840 331a 83F85A20 		strb	r2, [r3, #90]
2158:.\main.c      ****                                         break;
 9841              		.loc 1 2158 0
 9842 331e 08E0     		b	.L529
 9843              	.L527:
2159:.\main.c      ****                                         case '3':
2160:.\main.c      ****                                         lado2.grado[2][0]=4;                                       
 9844              		.loc 1 2160 0
 9845 3320 2E4B     		ldr	r3, .L751+20
 9846 3322 0422     		movs	r2, #4
 9847 3324 83F85B20 		strb	r2, [r3, #91]
2161:.\main.c      ****                                         break;
 9848              		.loc 1 2161 0
 9849 3328 03E0     		b	.L529
 9850              	.L712:
2162:.\main.c      ****                                         default:
2163:.\main.c      ****                                         producto4=0;
 9851              		.loc 1 2163 0
 9852 332a 324B     		ldr	r3, .L751+44
 9853 332c 0022     		movs	r2, #0
 9854 332e 1A70     		strb	r2, [r3]
2164:.\main.c      ****                                         break;                                      
 9855              		.loc 1 2164 0
 9856 3330 00BF     		nop
 9857              	.L529:
2165:.\main.c      ****                                     }                                      
2166:.\main.c      ****                                 break;                                    
 9858              		.loc 1 2166 0
 9859 3332 00BF     		nop
 9860              	.L504:
2167:.\main.c      ****                             }
2168:.\main.c      ****                             write_LCD(1,Productos[0], 7, 44, 1);
 9861              		.loc 1 2168 0
 9862 3334 2B4B     		ldr	r3, .L751+28
 9863 3336 1A78     		ldrb	r2, [r3]	@ zero_extendqisi2
 9864 3338 0123     		movs	r3, #1
 9865 333a 0093     		str	r3, [sp]
 9866 333c 0120     		movs	r0, #1
 9867 333e 1146     		mov	r1, r2
 9868 3340 0722     		movs	r2, #7
 9869 3342 2C23     		movs	r3, #44
 9870 3344 FFF7FEFF 		bl	write_LCD
2169:.\main.c      ****                             write_LCD(1,Productos[1], 14, 44, 1); 
 9871              		.loc 1 2169 0
 9872 3348 264B     		ldr	r3, .L751+28
ARM GAS  C:\Users\RECEPC~1\AppData\Local\Temp\cc8qeTl3.s 			page 216


 9873 334a 5A78     		ldrb	r2, [r3, #1]	@ zero_extendqisi2
 9874 334c 0123     		movs	r3, #1
 9875 334e 0093     		str	r3, [sp]
 9876 3350 0120     		movs	r0, #1
 9877 3352 1146     		mov	r1, r2
 9878 3354 0E22     		movs	r2, #14
 9879 3356 2C23     		movs	r3, #44
 9880 3358 FFF7FEFF 		bl	write_LCD
2170:.\main.c      ****                             write_LCD(1,Productos[2], 19, 44, 1);
 9881              		.loc 1 2170 0
 9882 335c 214B     		ldr	r3, .L751+28
 9883 335e 9A78     		ldrb	r2, [r3, #2]	@ zero_extendqisi2
 9884 3360 0123     		movs	r3, #1
 9885 3362 0093     		str	r3, [sp]
 9886 3364 0120     		movs	r0, #1
 9887 3366 1146     		mov	r1, r2
 9888 3368 1322     		movs	r2, #19
 9889 336a 2C23     		movs	r3, #44
 9890 336c FFF7FEFF 		bl	write_LCD
2171:.\main.c      ****                             write_LCD(1,Productos[3], 25, 44, 1); 
 9891              		.loc 1 2171 0
 9892 3370 1C4B     		ldr	r3, .L751+28
 9893 3372 DA78     		ldrb	r2, [r3, #3]	@ zero_extendqisi2
 9894 3374 0123     		movs	r3, #1
 9895 3376 0093     		str	r3, [sp]
 9896 3378 0120     		movs	r0, #1
 9897 337a 1146     		mov	r1, r2
 9898 337c 1922     		movs	r2, #25
 9899 337e 2C23     		movs	r3, #44
 9900 3380 FFF7FEFF 		bl	write_LCD
2172:.\main.c      **** 							lado1.estado=libre;                                 
 9901              		.loc 1 2172 0
 9902 3384 1C4B     		ldr	r3, .L751+48
 9903 3386 0122     		movs	r2, #1
 9904 3388 5A70     		strb	r2, [r3, #1]
2173:.\main.c      ****                             CyDelay(200);                             
 9905              		.loc 1 2173 0
 9906 338a C820     		movs	r0, #200
 9907 338c FFF7FEFF 		bl	CyDelay
2174:.\main.c      ****                         break;          
 9908              		.loc 1 2174 0
 9909 3390 CCE0     		b	.L448
 9910              	.L473:
2175:.\main.c      ****                         case 8:
2176:.\main.c      ****                             for(x=1;x<=4;x++){
 9911              		.loc 1 2176 0
 9912 3392 0123     		movs	r3, #1
 9913 3394 87F82F30 		strb	r3, [r7, #47]
 9914 3398 09E0     		b	.L530
 9915              	.L531:
2177:.\main.c      ****                               id_estacion[x]=0;
 9916              		.loc 1 2177 0 discriminator 3
 9917 339a 97F82F30 		ldrb	r3, [r7, #47]	@ zero_extendqisi2
 9918 339e 174A     		ldr	r2, .L751+52
 9919 33a0 0021     		movs	r1, #0
 9920 33a2 D154     		strb	r1, [r2, r3]
2176:.\main.c      ****                               id_estacion[x]=0;
ARM GAS  C:\Users\RECEPC~1\AppData\Local\Temp\cc8qeTl3.s 			page 217


 9921              		.loc 1 2176 0 discriminator 3
 9922 33a4 97F82F30 		ldrb	r3, [r7, #47]	@ zero_extendqisi2
 9923 33a8 0133     		adds	r3, r3, #1
 9924 33aa 87F82F30 		strb	r3, [r7, #47]
 9925              	.L530:
2176:.\main.c      ****                               id_estacion[x]=0;
 9926              		.loc 1 2176 0 is_stmt 0 discriminator 1
 9927 33ae 97F82F30 		ldrb	r3, [r7, #47]	@ zero_extendqisi2
 9928 33b2 042B     		cmp	r3, #4
 9929 33b4 F1D9     		bls	.L531
2178:.\main.c      ****                             }
2179:.\main.c      ****                             id_estacion[0]=4;
 9930              		.loc 1 2179 0 is_stmt 1
 9931 33b6 114B     		ldr	r3, .L751+52
 9932 33b8 0422     		movs	r2, #4
 9933 33ba 1A70     		strb	r2, [r3]
2180:.\main.c      **** 							for(x=count_teclas1;x>=1;x--){
 9934              		.loc 1 2180 0
 9935 33bc 024B     		ldr	r3, .L751
 9936 33be 1B78     		ldrb	r3, [r3]
 9937 33c0 87F82F30 		strb	r3, [r7, #47]
 9938 33c4 32E0     		b	.L532
 9939              	.L752:
 9940 33c6 00BF     		.align	2
 9941              	.L751:
 9942 33c8 00000000 		.word	count_teclas1
 9943 33cc 00000000 		.word	Buffer_LCD1
 9944 33d0 00000000 		.word	rventa1
 9945 33d4 00000000 		.word	clave_local
 9946 33d8 00000000 		.word	flujo_LCD1
 9947 33dc 00000000 		.word	lado2
 9948 33e0 00000000 		.word	Producto
 9949 33e4 00000000 		.word	Productos
 9950 33e8 00000000 		.word	producto1
 9951 33ec 00000000 		.word	producto2
 9952 33f0 00000000 		.word	producto3
 9953 33f4 00000000 		.word	producto4
 9954 33f8 00000000 		.word	lado1
 9955 33fc 00000000 		.word	id_estacion
 9956              	.L533:
2181:.\main.c      **** 								id_estacion[x]=Buffer_LCD1[(count_teclas1-x)+1]+0X30;
 9957              		.loc 1 2181 0 discriminator 3
 9958 3400 97F82F30 		ldrb	r3, [r7, #47]	@ zero_extendqisi2
 9959 3404 884A     		ldr	r2, .L753
 9960 3406 1278     		ldrb	r2, [r2]
 9961 3408 D2B2     		uxtb	r2, r2
 9962 340a 1146     		mov	r1, r2
 9963 340c 97F82F20 		ldrb	r2, [r7, #47]	@ zero_extendqisi2
 9964 3410 8A1A     		subs	r2, r1, r2
 9965 3412 0132     		adds	r2, r2, #1
 9966 3414 8549     		ldr	r1, .L753+4
 9967 3416 8A5C     		ldrb	r2, [r1, r2]
 9968 3418 D2B2     		uxtb	r2, r2
 9969 341a 3032     		adds	r2, r2, #48
 9970 341c D1B2     		uxtb	r1, r2
 9971 341e 844A     		ldr	r2, .L753+8
 9972 3420 D154     		strb	r1, [r2, r3]
ARM GAS  C:\Users\RECEPC~1\AppData\Local\Temp\cc8qeTl3.s 			page 218


2180:.\main.c      **** 							for(x=count_teclas1;x>=1;x--){
 9973              		.loc 1 2180 0 discriminator 3
 9974 3422 97F82F30 		ldrb	r3, [r7, #47]	@ zero_extendqisi2
 9975 3426 013B     		subs	r3, r3, #1
 9976 3428 87F82F30 		strb	r3, [r7, #47]
 9977              	.L532:
2180:.\main.c      **** 							for(x=count_teclas1;x>=1;x--){
 9978              		.loc 1 2180 0 is_stmt 0 discriminator 1
 9979 342c 97F82F30 		ldrb	r3, [r7, #47]	@ zero_extendqisi2
 9980 3430 002B     		cmp	r3, #0
 9981 3432 E5D1     		bne	.L533
2182:.\main.c      **** 							}                            
2183:.\main.c      ****                             if(id_estacion[1]>=0x30 && id_estacion[2]<0x30 && id_estacion[3]<0x30 &
 9982              		.loc 1 2183 0 is_stmt 1
 9983 3434 7E4B     		ldr	r3, .L753+8
 9984 3436 5B78     		ldrb	r3, [r3, #1]
 9985 3438 DBB2     		uxtb	r3, r3
 9986 343a 2F2B     		cmp	r3, #47
 9987 343c 17D9     		bls	.L534
 9988              		.loc 1 2183 0 is_stmt 0 discriminator 1
 9989 343e 7C4B     		ldr	r3, .L753+8
 9990 3440 9B78     		ldrb	r3, [r3, #2]
 9991 3442 DBB2     		uxtb	r3, r3
 9992 3444 2F2B     		cmp	r3, #47
 9993 3446 12D8     		bhi	.L534
 9994              		.loc 1 2183 0 discriminator 2
 9995 3448 794B     		ldr	r3, .L753+8
 9996 344a DB78     		ldrb	r3, [r3, #3]
 9997 344c DBB2     		uxtb	r3, r3
 9998 344e 2F2B     		cmp	r3, #47
 9999 3450 0DD8     		bhi	.L534
 10000              		.loc 1 2183 0 discriminator 3
 10001 3452 774B     		ldr	r3, .L753+8
 10002 3454 1B79     		ldrb	r3, [r3, #4]
 10003 3456 DBB2     		uxtb	r3, r3
 10004 3458 2F2B     		cmp	r3, #47
 10005 345a 08D8     		bhi	.L534
2184:.\main.c      ****                                 id_estacion[2]='0';
 10006              		.loc 1 2184 0 is_stmt 1
 10007 345c 744B     		ldr	r3, .L753+8
 10008 345e 3022     		movs	r2, #48
 10009 3460 9A70     		strb	r2, [r3, #2]
2185:.\main.c      ****                                 id_estacion[3]='0';
 10010              		.loc 1 2185 0
 10011 3462 734B     		ldr	r3, .L753+8
 10012 3464 3022     		movs	r2, #48
 10013 3466 DA70     		strb	r2, [r3, #3]
2186:.\main.c      ****                                 id_estacion[4]='0';                                
 10014              		.loc 1 2186 0
 10015 3468 714B     		ldr	r3, .L753+8
 10016 346a 3022     		movs	r2, #48
 10017 346c 1A71     		strb	r2, [r3, #4]
 10018              	.L534:
2187:.\main.c      ****                             }
2188:.\main.c      ****                             if(id_estacion[1]>=0x30 && id_estacion[2]>=0x30 && id_estacion[3]<0x30 
 10019              		.loc 1 2188 0
 10020 346e 704B     		ldr	r3, .L753+8
ARM GAS  C:\Users\RECEPC~1\AppData\Local\Temp\cc8qeTl3.s 			page 219


 10021 3470 5B78     		ldrb	r3, [r3, #1]
 10022 3472 DBB2     		uxtb	r3, r3
 10023 3474 2F2B     		cmp	r3, #47
 10024 3476 14D9     		bls	.L535
 10025              		.loc 1 2188 0 is_stmt 0 discriminator 1
 10026 3478 6D4B     		ldr	r3, .L753+8
 10027 347a 9B78     		ldrb	r3, [r3, #2]
 10028 347c DBB2     		uxtb	r3, r3
 10029 347e 2F2B     		cmp	r3, #47
 10030 3480 0FD9     		bls	.L535
 10031              		.loc 1 2188 0 discriminator 2
 10032 3482 6B4B     		ldr	r3, .L753+8
 10033 3484 DB78     		ldrb	r3, [r3, #3]
 10034 3486 DBB2     		uxtb	r3, r3
 10035 3488 2F2B     		cmp	r3, #47
 10036 348a 0AD8     		bhi	.L535
 10037              		.loc 1 2188 0 discriminator 3
 10038 348c 684B     		ldr	r3, .L753+8
 10039 348e 1B79     		ldrb	r3, [r3, #4]
 10040 3490 DBB2     		uxtb	r3, r3
 10041 3492 2F2B     		cmp	r3, #47
 10042 3494 05D8     		bhi	.L535
2189:.\main.c      ****                                 id_estacion[3]='0';
 10043              		.loc 1 2189 0 is_stmt 1
 10044 3496 664B     		ldr	r3, .L753+8
 10045 3498 3022     		movs	r2, #48
 10046 349a DA70     		strb	r2, [r3, #3]
2190:.\main.c      ****                                 id_estacion[4]='0';                             
 10047              		.loc 1 2190 0
 10048 349c 644B     		ldr	r3, .L753+8
 10049 349e 3022     		movs	r2, #48
 10050 34a0 1A71     		strb	r2, [r3, #4]
 10051              	.L535:
2191:.\main.c      ****                             }  
2192:.\main.c      ****                             if(id_estacion[1]>=0x30 && id_estacion[2]>=0x30 && id_estacion[3]>=0x30
 10052              		.loc 1 2192 0
 10053 34a2 634B     		ldr	r3, .L753+8
 10054 34a4 5B78     		ldrb	r3, [r3, #1]
 10055 34a6 DBB2     		uxtb	r3, r3
 10056 34a8 2F2B     		cmp	r3, #47
 10057 34aa 11D9     		bls	.L536
 10058              		.loc 1 2192 0 is_stmt 0 discriminator 1
 10059 34ac 604B     		ldr	r3, .L753+8
 10060 34ae 9B78     		ldrb	r3, [r3, #2]
 10061 34b0 DBB2     		uxtb	r3, r3
 10062 34b2 2F2B     		cmp	r3, #47
 10063 34b4 0CD9     		bls	.L536
 10064              		.loc 1 2192 0 discriminator 2
 10065 34b6 5E4B     		ldr	r3, .L753+8
 10066 34b8 DB78     		ldrb	r3, [r3, #3]
 10067 34ba DBB2     		uxtb	r3, r3
 10068 34bc 2F2B     		cmp	r3, #47
 10069 34be 07D9     		bls	.L536
 10070              		.loc 1 2192 0 discriminator 3
 10071 34c0 5B4B     		ldr	r3, .L753+8
 10072 34c2 1B79     		ldrb	r3, [r3, #4]
 10073 34c4 DBB2     		uxtb	r3, r3
ARM GAS  C:\Users\RECEPC~1\AppData\Local\Temp\cc8qeTl3.s 			page 220


 10074 34c6 2F2B     		cmp	r3, #47
 10075 34c8 02D8     		bhi	.L536
2193:.\main.c      ****                                 id_estacion[4]='0';                              
 10076              		.loc 1 2193 0 is_stmt 1
 10077 34ca 594B     		ldr	r3, .L753+8
 10078 34cc 3022     		movs	r2, #48
 10079 34ce 1A71     		strb	r2, [r3, #4]
 10080              	.L536:
2194:.\main.c      ****                             }
2195:.\main.c      ****                     		for(x=8;x<=12;x++){	
 10081              		.loc 1 2195 0
 10082 34d0 0823     		movs	r3, #8
 10083 34d2 87F82F30 		strb	r3, [r7, #47]
 10084 34d6 11E0     		b	.L537
 10085              	.L538:
2196:.\main.c      ****                     			EEPROM_WriteByte(id_estacion[x-8], x);
 10086              		.loc 1 2196 0 discriminator 3
 10087 34d8 97F82F30 		ldrb	r3, [r7, #47]	@ zero_extendqisi2
 10088 34dc 083B     		subs	r3, r3, #8
 10089 34de 544A     		ldr	r2, .L753+8
 10090 34e0 D35C     		ldrb	r3, [r2, r3]
 10091 34e2 DAB2     		uxtb	r2, r3
 10092 34e4 97F82F30 		ldrb	r3, [r7, #47]	@ zero_extendqisi2
 10093 34e8 9BB2     		uxth	r3, r3
 10094 34ea 1046     		mov	r0, r2
 10095 34ec 1946     		mov	r1, r3
 10096 34ee FFF7FEFF 		bl	EEPROM_WriteByte
2195:.\main.c      ****                     			EEPROM_WriteByte(id_estacion[x-8], x);
 10097              		.loc 1 2195 0 discriminator 3
 10098 34f2 97F82F30 		ldrb	r3, [r7, #47]	@ zero_extendqisi2
 10099 34f6 0133     		adds	r3, r3, #1
 10100 34f8 87F82F30 		strb	r3, [r7, #47]
 10101              	.L537:
2195:.\main.c      ****                     			EEPROM_WriteByte(id_estacion[x-8], x);
 10102              		.loc 1 2195 0 is_stmt 0 discriminator 1
 10103 34fc 97F82F30 		ldrb	r3, [r7, #47]	@ zero_extendqisi2
 10104 3500 0C2B     		cmp	r3, #12
 10105 3502 E9D9     		bls	.L538
2197:.\main.c      ****                     		}   
2198:.\main.c      ****                         	flujo_LCD1 = 12;	//viejo: 0
 10106              		.loc 1 2198 0 is_stmt 1
 10107 3504 4B4B     		ldr	r3, .L753+12
 10108 3506 0C22     		movs	r2, #12
 10109 3508 1A70     		strb	r2, [r3]
2199:.\main.c      ****                             id_teclado1 = 2;
 10110              		.loc 1 2199 0
 10111 350a 4B4B     		ldr	r3, .L753+16
 10112 350c 0222     		movs	r2, #2
 10113 350e 1A70     		strb	r2, [r3]
2200:.\main.c      ****                         	set_imagen(1,14); //viejo: 60
 10114              		.loc 1 2200 0
 10115 3510 0120     		movs	r0, #1
 10116 3512 0E21     		movs	r1, #14
 10117 3514 FFF7FEFF 		bl	set_imagen
2201:.\main.c      ****                             CyDelay(200);
 10118              		.loc 1 2201 0
 10119 3518 C820     		movs	r0, #200
ARM GAS  C:\Users\RECEPC~1\AppData\Local\Temp\cc8qeTl3.s 			page 221


 10120 351a FFF7FEFF 		bl	CyDelay
2202:.\main.c      ****                             count_teclas1 = 0;
 10121              		.loc 1 2202 0
 10122 351e 424B     		ldr	r3, .L753
 10123 3520 0022     		movs	r2, #0
 10124 3522 1A70     		strb	r2, [r3]
2203:.\main.c      **** 							lado2.estado=libre;                                     
 10125              		.loc 1 2203 0
 10126 3524 454B     		ldr	r3, .L753+20
 10127 3526 0122     		movs	r2, #1
 10128 3528 5A70     		strb	r2, [r3, #1]
2204:.\main.c      ****                         break;
 10129              		.loc 1 2204 0
 10130 352a 00BF     		nop
 10131              	.L448:
2205:.\main.c      **** 					}					
2206:.\main.c      ****                 }
2207:.\main.c      ****             }                      
2208:.\main.c      ****             LCD_1_ClearRxBuffer();
 10132              		.loc 1 2208 0
 10133 352c FFF7FEFF 		bl	LCD_1_ClearRxBuffer
2209:.\main.c      ****          }
2210:.\main.c      ****         }
2211:.\main.c      ****         
2212:.\main.c      ****         break;	
 10134              		.loc 1 2212 0
 10135 3530 01F09CBD 		b	.L131
 10136              	.L447:
 10137              		.loc 1 2212 0 is_stmt 0 discriminator 13
 10138 3534 01F09ABD 		b	.L131
 10139              	.L145:
2213:.\main.c      ****             
2214:.\main.c      ****         case 13:  
2215:.\main.c      ****         if(seleccion_pos == 1){
 10140              		.loc 1 2215 0 is_stmt 1
 10141 3538 414B     		ldr	r3, .L753+24
 10142 353a 1B78     		ldrb	r3, [r3]
 10143 353c DBB2     		uxtb	r3, r3
 10144 353e 012B     		cmp	r3, #1
 10145 3540 40F0D182 		bne	.L539
2216:.\main.c      **** 			rf_mod[0]='M';
 10146              		.loc 1 2216 0
 10147 3544 3F4B     		ldr	r3, .L753+28
 10148 3546 4D22     		movs	r2, #77
 10149 3548 1A70     		strb	r2, [r3]
2217:.\main.c      **** 			rf_mod[1]='U';
 10150              		.loc 1 2217 0
 10151 354a 3E4B     		ldr	r3, .L753+28
 10152 354c 5522     		movs	r2, #85
 10153 354e 5A70     		strb	r2, [r3, #1]
2218:.\main.c      **** 			rf_mod[2]='X';
 10154              		.loc 1 2218 0
 10155 3550 3C4B     		ldr	r3, .L753+28
 10156 3552 5822     		movs	r2, #88
 10157 3554 9A70     		strb	r2, [r3, #2]
2219:.\main.c      **** 			rf_mod[3]='1';
 10158              		.loc 1 2219 0
ARM GAS  C:\Users\RECEPC~1\AppData\Local\Temp\cc8qeTl3.s 			page 222


 10159 3556 3B4B     		ldr	r3, .L753+28
 10160 3558 3122     		movs	r2, #49
 10161 355a DA70     		strb	r2, [r3, #3]
2220:.\main.c      **** 			rf_mod[4]=1 + 48;								//Cara
 10162              		.loc 1 2220 0
 10163 355c 394B     		ldr	r3, .L753+28
 10164 355e 3122     		movs	r2, #49
 10165 3560 1A71     		strb	r2, [r3, #4]
2221:.\main.c      **** 			rf_mod[5]=(lado1.grado[rventa1.producto-1][0] + 48);	//Id Producto	
 10166              		.loc 1 2221 0
 10167 3562 394B     		ldr	r3, .L753+32
 10168 3564 5B7E     		ldrb	r3, [r3, #25]	@ zero_extendqisi2
 10169 3566 013B     		subs	r3, r3, #1
 10170 3568 384A     		ldr	r2, .L753+36
 10171 356a 1344     		add	r3, r3, r2
 10172 356c 93F85930 		ldrb	r3, [r3, #89]
 10173 3570 DBB2     		uxtb	r3, r3
 10174 3572 3033     		adds	r3, r3, #48
 10175 3574 DAB2     		uxtb	r2, r3
 10176 3576 334B     		ldr	r3, .L753+28
 10177 3578 5A71     		strb	r2, [r3, #5]
2222:.\main.c      **** 			rf_mod[6]=rventa1.volumen[5] + 48;						//Volumen
 10178              		.loc 1 2222 0
 10179 357a 334B     		ldr	r3, .L753+32
 10180 357c 5B7D     		ldrb	r3, [r3, #21]	@ zero_extendqisi2
 10181 357e 3033     		adds	r3, r3, #48
 10182 3580 DAB2     		uxtb	r2, r3
 10183 3582 304B     		ldr	r3, .L753+28
 10184 3584 9A71     		strb	r2, [r3, #6]
2223:.\main.c      **** 			rf_mod[7]=rventa1.volumen[4] + 48;
 10185              		.loc 1 2223 0
 10186 3586 304B     		ldr	r3, .L753+32
 10187 3588 1B7D     		ldrb	r3, [r3, #20]	@ zero_extendqisi2
 10188 358a 3033     		adds	r3, r3, #48
 10189 358c DAB2     		uxtb	r2, r3
 10190 358e 2D4B     		ldr	r3, .L753+28
 10191 3590 DA71     		strb	r2, [r3, #7]
2224:.\main.c      **** 			rf_mod[8]=rventa1.volumen[3] + 48;
 10192              		.loc 1 2224 0
 10193 3592 2D4B     		ldr	r3, .L753+32
 10194 3594 DB7C     		ldrb	r3, [r3, #19]	@ zero_extendqisi2
 10195 3596 3033     		adds	r3, r3, #48
 10196 3598 DAB2     		uxtb	r2, r3
 10197 359a 2A4B     		ldr	r3, .L753+28
 10198 359c 1A72     		strb	r2, [r3, #8]
2225:.\main.c      **** 			rf_mod[9]=',';
 10199              		.loc 1 2225 0
 10200 359e 294B     		ldr	r3, .L753+28
 10201 35a0 2C22     		movs	r2, #44
 10202 35a2 5A72     		strb	r2, [r3, #9]
2226:.\main.c      **** 			rf_mod[10]=rventa1.volumen[2] + 48;
 10203              		.loc 1 2226 0
 10204 35a4 284B     		ldr	r3, .L753+32
 10205 35a6 9B7C     		ldrb	r3, [r3, #18]	@ zero_extendqisi2
 10206 35a8 3033     		adds	r3, r3, #48
 10207 35aa DAB2     		uxtb	r2, r3
 10208 35ac 254B     		ldr	r3, .L753+28
ARM GAS  C:\Users\RECEPC~1\AppData\Local\Temp\cc8qeTl3.s 			page 223


 10209 35ae 9A72     		strb	r2, [r3, #10]
2227:.\main.c      **** 			rf_mod[11]=rventa1.volumen[1] + 48;
 10210              		.loc 1 2227 0
 10211 35b0 254B     		ldr	r3, .L753+32
 10212 35b2 5B7C     		ldrb	r3, [r3, #17]	@ zero_extendqisi2
 10213 35b4 3033     		adds	r3, r3, #48
 10214 35b6 DAB2     		uxtb	r2, r3
 10215 35b8 224B     		ldr	r3, .L753+28
 10216 35ba DA72     		strb	r2, [r3, #11]
2228:.\main.c      **** 			rf_mod[12]=rventa1.volumen[0] + 48;
 10217              		.loc 1 2228 0
 10218 35bc 224B     		ldr	r3, .L753+32
 10219 35be 1B7C     		ldrb	r3, [r3, #16]	@ zero_extendqisi2
 10220 35c0 3033     		adds	r3, r3, #48
 10221 35c2 DAB2     		uxtb	r2, r3
 10222 35c4 1F4B     		ldr	r3, .L753+28
 10223 35c6 1A73     		strb	r2, [r3, #12]
2229:.\main.c      **** 			if(version[1]==7){
 10224              		.loc 1 2229 0
 10225 35c8 214B     		ldr	r3, .L753+40
 10226 35ca 5B78     		ldrb	r3, [r3, #1]
 10227 35cc DBB2     		uxtb	r3, r3
 10228 35ce 072B     		cmp	r3, #7
 10229 35d0 40D1     		bne	.L540
2230:.\main.c      **** 				rf_mod[13]=rventa1.dinero[7] + 48;	//Dinero 7 digitos
 10230              		.loc 1 2230 0
 10231 35d2 1D4B     		ldr	r3, .L753+32
 10232 35d4 9B7B     		ldrb	r3, [r3, #14]	@ zero_extendqisi2
 10233 35d6 3033     		adds	r3, r3, #48
 10234 35d8 DAB2     		uxtb	r2, r3
 10235 35da 1A4B     		ldr	r3, .L753+28
 10236 35dc 5A73     		strb	r2, [r3, #13]
2231:.\main.c      **** 				rf_mod[14]=rventa1.dinero[6] + 48;
 10237              		.loc 1 2231 0
 10238 35de 1A4B     		ldr	r3, .L753+32
 10239 35e0 5B7B     		ldrb	r3, [r3, #13]	@ zero_extendqisi2
 10240 35e2 3033     		adds	r3, r3, #48
 10241 35e4 DAB2     		uxtb	r2, r3
 10242 35e6 174B     		ldr	r3, .L753+28
 10243 35e8 9A73     		strb	r2, [r3, #14]
2232:.\main.c      **** 				rf_mod[15]=rventa1.dinero[5] + 48;
 10244              		.loc 1 2232 0
 10245 35ea 174B     		ldr	r3, .L753+32
 10246 35ec 1B7B     		ldrb	r3, [r3, #12]	@ zero_extendqisi2
 10247 35ee 3033     		adds	r3, r3, #48
 10248 35f0 DAB2     		uxtb	r2, r3
 10249 35f2 144B     		ldr	r3, .L753+28
 10250 35f4 DA73     		strb	r2, [r3, #15]
2233:.\main.c      **** 				rf_mod[16]=rventa1.dinero[4] + 48;
 10251              		.loc 1 2233 0
 10252 35f6 144B     		ldr	r3, .L753+32
 10253 35f8 DB7A     		ldrb	r3, [r3, #11]	@ zero_extendqisi2
 10254 35fa 3033     		adds	r3, r3, #48
 10255 35fc DAB2     		uxtb	r2, r3
 10256 35fe 114B     		ldr	r3, .L753+28
 10257 3600 1A74     		strb	r2, [r3, #16]
2234:.\main.c      **** 				rf_mod[17]=rventa1.dinero[3] + 48;
ARM GAS  C:\Users\RECEPC~1\AppData\Local\Temp\cc8qeTl3.s 			page 224


 10258              		.loc 1 2234 0
 10259 3602 114B     		ldr	r3, .L753+32
 10260 3604 9B7A     		ldrb	r3, [r3, #10]	@ zero_extendqisi2
 10261 3606 3033     		adds	r3, r3, #48
 10262 3608 DAB2     		uxtb	r2, r3
 10263 360a 0E4B     		ldr	r3, .L753+28
 10264 360c 5A74     		strb	r2, [r3, #17]
2235:.\main.c      **** 				rf_mod[18]=rventa1.dinero[2] + 48;
 10265              		.loc 1 2235 0
 10266 360e 0E4B     		ldr	r3, .L753+32
 10267 3610 5B7A     		ldrb	r3, [r3, #9]	@ zero_extendqisi2
 10268 3612 3033     		adds	r3, r3, #48
 10269 3614 DAB2     		uxtb	r2, r3
 10270 3616 0B4B     		ldr	r3, .L753+28
 10271 3618 9A74     		strb	r2, [r3, #18]
2236:.\main.c      **** 				rf_mod[19]=rventa1.dinero[1] + 48;					
 10272              		.loc 1 2236 0
 10273 361a 0B4B     		ldr	r3, .L753+32
 10274 361c 1B7A     		ldrb	r3, [r3, #8]	@ zero_extendqisi2
 10275 361e 3033     		adds	r3, r3, #48
 10276 3620 DAB2     		uxtb	r2, r3
 10277 3622 084B     		ldr	r3, .L753+28
 10278 3624 DA74     		strb	r2, [r3, #19]
 10279 3626 3FE0     		b	.L541
 10280              	.L754:
 10281              		.align	2
 10282              	.L753:
 10283 3628 00000000 		.word	count_teclas1
 10284 362c 00000000 		.word	Buffer_LCD1
 10285 3630 00000000 		.word	id_estacion
 10286 3634 00000000 		.word	flujo_LCD1
 10287 3638 00000000 		.word	id_teclado1
 10288 363c 00000000 		.word	lado2
 10289 3640 00000000 		.word	seleccion_pos
 10290 3644 00000000 		.word	rf_mod
 10291 3648 00000000 		.word	rventa1
 10292 364c 00000000 		.word	lado1
 10293 3650 00000000 		.word	version
 10294              	.L540:
2237:.\main.c      **** 			}
2238:.\main.c      **** 			else{
2239:.\main.c      **** 				rf_mod[13]=rventa1.dinero[6] + 48;	//Dinero 6 digitos 
 10295              		.loc 1 2239 0
 10296 3654 664B     		ldr	r3, .L755
 10297 3656 5B7B     		ldrb	r3, [r3, #13]	@ zero_extendqisi2
 10298 3658 3033     		adds	r3, r3, #48
 10299 365a DAB2     		uxtb	r2, r3
 10300 365c 654B     		ldr	r3, .L755+4
 10301 365e 5A73     		strb	r2, [r3, #13]
2240:.\main.c      **** 				rf_mod[14]=rventa1.dinero[5] + 48;
 10302              		.loc 1 2240 0
 10303 3660 634B     		ldr	r3, .L755
 10304 3662 1B7B     		ldrb	r3, [r3, #12]	@ zero_extendqisi2
 10305 3664 3033     		adds	r3, r3, #48
 10306 3666 DAB2     		uxtb	r2, r3
 10307 3668 624B     		ldr	r3, .L755+4
 10308 366a 9A73     		strb	r2, [r3, #14]
ARM GAS  C:\Users\RECEPC~1\AppData\Local\Temp\cc8qeTl3.s 			page 225


2241:.\main.c      **** 				rf_mod[15]=rventa1.dinero[4] + 48;
 10309              		.loc 1 2241 0
 10310 366c 604B     		ldr	r3, .L755
 10311 366e DB7A     		ldrb	r3, [r3, #11]	@ zero_extendqisi2
 10312 3670 3033     		adds	r3, r3, #48
 10313 3672 DAB2     		uxtb	r2, r3
 10314 3674 5F4B     		ldr	r3, .L755+4
 10315 3676 DA73     		strb	r2, [r3, #15]
2242:.\main.c      **** 				rf_mod[16]=rventa1.dinero[3] + 48;
 10316              		.loc 1 2242 0
 10317 3678 5D4B     		ldr	r3, .L755
 10318 367a 9B7A     		ldrb	r3, [r3, #10]	@ zero_extendqisi2
 10319 367c 3033     		adds	r3, r3, #48
 10320 367e DAB2     		uxtb	r2, r3
 10321 3680 5C4B     		ldr	r3, .L755+4
 10322 3682 1A74     		strb	r2, [r3, #16]
2243:.\main.c      **** 				rf_mod[17]=rventa1.dinero[2] + 48;
 10323              		.loc 1 2243 0
 10324 3684 5A4B     		ldr	r3, .L755
 10325 3686 5B7A     		ldrb	r3, [r3, #9]	@ zero_extendqisi2
 10326 3688 3033     		adds	r3, r3, #48
 10327 368a DAB2     		uxtb	r2, r3
 10328 368c 594B     		ldr	r3, .L755+4
 10329 368e 5A74     		strb	r2, [r3, #17]
2244:.\main.c      **** 				rf_mod[18]=rventa1.dinero[1] + 48;					
 10330              		.loc 1 2244 0
 10331 3690 574B     		ldr	r3, .L755
 10332 3692 1B7A     		ldrb	r3, [r3, #8]	@ zero_extendqisi2
 10333 3694 3033     		adds	r3, r3, #48
 10334 3696 DAB2     		uxtb	r2, r3
 10335 3698 564B     		ldr	r3, .L755+4
 10336 369a 9A74     		strb	r2, [r3, #18]
2245:.\main.c      **** 				rf_mod[19]=rventa1.dinero[0] + 48;
 10337              		.loc 1 2245 0
 10338 369c 544B     		ldr	r3, .L755
 10339 369e DB79     		ldrb	r3, [r3, #7]	@ zero_extendqisi2
 10340 36a0 3033     		adds	r3, r3, #48
 10341 36a2 DAB2     		uxtb	r2, r3
 10342 36a4 534B     		ldr	r3, .L755+4
 10343 36a6 DA74     		strb	r2, [r3, #19]
 10344              	.L541:
2246:.\main.c      **** 			}
2247:.\main.c      ****             if(ppux10==0){
 10345              		.loc 1 2247 0
 10346 36a8 534B     		ldr	r3, .L755+8
 10347 36aa 1B78     		ldrb	r3, [r3]
 10348 36ac DBB2     		uxtb	r3, r3
 10349 36ae 002B     		cmp	r3, #0
 10350 36b0 1DD1     		bne	.L542
2248:.\main.c      ****     			rf_mod[20]=rventa1.ppu[4] + 48;			//PPU
 10351              		.loc 1 2248 0
 10352 36b2 4F4B     		ldr	r3, .L755
 10353 36b4 9B79     		ldrb	r3, [r3, #6]	@ zero_extendqisi2
 10354 36b6 3033     		adds	r3, r3, #48
 10355 36b8 DAB2     		uxtb	r2, r3
 10356 36ba 4E4B     		ldr	r3, .L755+4
 10357 36bc 1A75     		strb	r2, [r3, #20]
ARM GAS  C:\Users\RECEPC~1\AppData\Local\Temp\cc8qeTl3.s 			page 226


2249:.\main.c      ****     			rf_mod[21]=rventa1.ppu[3] + 48;
 10358              		.loc 1 2249 0
 10359 36be 4C4B     		ldr	r3, .L755
 10360 36c0 5B79     		ldrb	r3, [r3, #5]	@ zero_extendqisi2
 10361 36c2 3033     		adds	r3, r3, #48
 10362 36c4 DAB2     		uxtb	r2, r3
 10363 36c6 4B4B     		ldr	r3, .L755+4
 10364 36c8 5A75     		strb	r2, [r3, #21]
2250:.\main.c      ****     			rf_mod[22]=rventa1.ppu[2] + 48;
 10365              		.loc 1 2250 0
 10366 36ca 494B     		ldr	r3, .L755
 10367 36cc 1B79     		ldrb	r3, [r3, #4]	@ zero_extendqisi2
 10368 36ce 3033     		adds	r3, r3, #48
 10369 36d0 DAB2     		uxtb	r2, r3
 10370 36d2 484B     		ldr	r3, .L755+4
 10371 36d4 9A75     		strb	r2, [r3, #22]
2251:.\main.c      ****     			rf_mod[23]=rventa1.ppu[1] + 48;
 10372              		.loc 1 2251 0
 10373 36d6 464B     		ldr	r3, .L755
 10374 36d8 DB78     		ldrb	r3, [r3, #3]	@ zero_extendqisi2
 10375 36da 3033     		adds	r3, r3, #48
 10376 36dc DAB2     		uxtb	r2, r3
 10377 36de 454B     		ldr	r3, .L755+4
 10378 36e0 DA75     		strb	r2, [r3, #23]
2252:.\main.c      ****     			rf_mod[24]=rventa1.ppu[0] + 48;
 10379              		.loc 1 2252 0
 10380 36e2 434B     		ldr	r3, .L755
 10381 36e4 9B78     		ldrb	r3, [r3, #2]	@ zero_extendqisi2
 10382 36e6 3033     		adds	r3, r3, #48
 10383 36e8 DAB2     		uxtb	r2, r3
 10384 36ea 424B     		ldr	r3, .L755+4
 10385 36ec 1A76     		strb	r2, [r3, #24]
 10386              	.L542:
2253:.\main.c      ****             }
2254:.\main.c      ****             if(ppux10==1){
 10387              		.loc 1 2254 0
 10388 36ee 424B     		ldr	r3, .L755+8
 10389 36f0 1B78     		ldrb	r3, [r3]
 10390 36f2 DBB2     		uxtb	r3, r3
 10391 36f4 012B     		cmp	r3, #1
 10392 36f6 1AD1     		bne	.L543
2255:.\main.c      ****     			rf_mod[20]=rventa1.ppu[3] + 48;			//PPU x10
 10393              		.loc 1 2255 0
 10394 36f8 3D4B     		ldr	r3, .L755
 10395 36fa 5B79     		ldrb	r3, [r3, #5]	@ zero_extendqisi2
 10396 36fc 3033     		adds	r3, r3, #48
 10397 36fe DAB2     		uxtb	r2, r3
 10398 3700 3C4B     		ldr	r3, .L755+4
 10399 3702 1A75     		strb	r2, [r3, #20]
2256:.\main.c      ****     			rf_mod[21]=rventa1.ppu[2] + 48;
 10400              		.loc 1 2256 0
 10401 3704 3A4B     		ldr	r3, .L755
 10402 3706 1B79     		ldrb	r3, [r3, #4]	@ zero_extendqisi2
 10403 3708 3033     		adds	r3, r3, #48
 10404 370a DAB2     		uxtb	r2, r3
 10405 370c 394B     		ldr	r3, .L755+4
 10406 370e 5A75     		strb	r2, [r3, #21]
ARM GAS  C:\Users\RECEPC~1\AppData\Local\Temp\cc8qeTl3.s 			page 227


2257:.\main.c      ****     			rf_mod[22]=rventa1.ppu[1] + 48;
 10407              		.loc 1 2257 0
 10408 3710 374B     		ldr	r3, .L755
 10409 3712 DB78     		ldrb	r3, [r3, #3]	@ zero_extendqisi2
 10410 3714 3033     		adds	r3, r3, #48
 10411 3716 DAB2     		uxtb	r2, r3
 10412 3718 364B     		ldr	r3, .L755+4
 10413 371a 9A75     		strb	r2, [r3, #22]
2258:.\main.c      ****     			rf_mod[23]=rventa1.ppu[0] + 48;
 10414              		.loc 1 2258 0
 10415 371c 344B     		ldr	r3, .L755
 10416 371e 9B78     		ldrb	r3, [r3, #2]	@ zero_extendqisi2
 10417 3720 3033     		adds	r3, r3, #48
 10418 3722 DAB2     		uxtb	r2, r3
 10419 3724 334B     		ldr	r3, .L755+4
 10420 3726 DA75     		strb	r2, [r3, #23]
2259:.\main.c      ****     			rf_mod[24]=48;
 10421              		.loc 1 2259 0
 10422 3728 324B     		ldr	r3, .L755+4
 10423 372a 3022     		movs	r2, #48
 10424 372c 1A76     		strb	r2, [r3, #24]
 10425              	.L543:
2260:.\main.c      ****             }
2261:.\main.c      **** 			rf_mod[25]=id_estacion[4];				//Id Estacion	
 10426              		.loc 1 2261 0
 10427 372e 334B     		ldr	r3, .L755+12
 10428 3730 1B79     		ldrb	r3, [r3, #4]
 10429 3732 DAB2     		uxtb	r2, r3
 10430 3734 2F4B     		ldr	r3, .L755+4
 10431 3736 5A76     		strb	r2, [r3, #25]
2262:.\main.c      **** 			rf_mod[26]=id_estacion[3];
 10432              		.loc 1 2262 0
 10433 3738 304B     		ldr	r3, .L755+12
 10434 373a DB78     		ldrb	r3, [r3, #3]
 10435 373c DAB2     		uxtb	r2, r3
 10436 373e 2D4B     		ldr	r3, .L755+4
 10437 3740 9A76     		strb	r2, [r3, #26]
2263:.\main.c      **** 			rf_mod[27]=id_estacion[2];
 10438              		.loc 1 2263 0
 10439 3742 2E4B     		ldr	r3, .L755+12
 10440 3744 9B78     		ldrb	r3, [r3, #2]
 10441 3746 DAB2     		uxtb	r2, r3
 10442 3748 2A4B     		ldr	r3, .L755+4
 10443 374a DA76     		strb	r2, [r3, #27]
2264:.\main.c      **** 			rf_mod[28]=id_estacion[1];
 10444              		.loc 1 2264 0
 10445 374c 2B4B     		ldr	r3, .L755+12
 10446 374e 5B78     		ldrb	r3, [r3, #1]
 10447 3750 DAB2     		uxtb	r2, r3
 10448 3752 284B     		ldr	r3, .L755+4
 10449 3754 1A77     		strb	r2, [r3, #28]
2265:.\main.c      **** 			
2266:.\main.c      ****             if(tipo_venta == 1){
 10450              		.loc 1 2266 0
 10451 3756 2A4B     		ldr	r3, .L755+16
 10452 3758 1B78     		ldrb	r3, [r3]	@ zero_extendqisi2
 10453 375a 012B     		cmp	r3, #1
ARM GAS  C:\Users\RECEPC~1\AppData\Local\Temp\cc8qeTl3.s 			page 228


 10454 375c 43D1     		bne	.L544
2267:.\main.c      ****                 for(x=0;x<=15;x++){						//Serial				
 10455              		.loc 1 2267 0
 10456 375e 0023     		movs	r3, #0
 10457 3760 87F82F30 		strb	r3, [r7, #47]
 10458 3764 3AE0     		b	.L545
 10459              	.L548:
2268:.\main.c      **** 				    y=(rventa1.id[x/2]>>4)&0x0F;
 10460              		.loc 1 2268 0
 10461 3766 97F82F30 		ldrb	r3, [r7, #47]	@ zero_extendqisi2
 10462 376a 5B08     		lsrs	r3, r3, #1
 10463 376c DBB2     		uxtb	r3, r3
 10464 376e 1A46     		mov	r2, r3
 10465 3770 1F4B     		ldr	r3, .L755
 10466 3772 1344     		add	r3, r3, r2
 10467 3774 93F82330 		ldrb	r3, [r3, #35]	@ zero_extendqisi2
 10468 3778 1B09     		lsrs	r3, r3, #4
 10469 377a 87F82E30 		strb	r3, [r7, #46]
2269:.\main.c      **** 				    if((x%2)==0){
 10470              		.loc 1 2269 0
 10471 377e 97F82F30 		ldrb	r3, [r7, #47]
 10472 3782 03F00103 		and	r3, r3, #1
 10473 3786 DBB2     		uxtb	r3, r3
 10474 3788 002B     		cmp	r3, #0
 10475 378a 0CD1     		bne	.L546
2270:.\main.c      **** 					    y=rventa1.id[x/2]&0x0F;
 10476              		.loc 1 2270 0
 10477 378c 97F82F30 		ldrb	r3, [r7, #47]	@ zero_extendqisi2
 10478 3790 5B08     		lsrs	r3, r3, #1
 10479 3792 DBB2     		uxtb	r3, r3
 10480 3794 1A46     		mov	r2, r3
 10481 3796 164B     		ldr	r3, .L755
 10482 3798 1344     		add	r3, r3, r2
 10483 379a 93F82330 		ldrb	r3, [r3, #35]	@ zero_extendqisi2
 10484 379e 03F00F03 		and	r3, r3, #15
 10485 37a2 87F82E30 		strb	r3, [r7, #46]
 10486              	.L546:
2271:.\main.c      **** 				    }
2272:.\main.c      **** 				    rf_mod[x+29] = y+48;
 10487              		.loc 1 2272 0
 10488 37a6 97F82F30 		ldrb	r3, [r7, #47]	@ zero_extendqisi2
 10489 37aa 1D33     		adds	r3, r3, #29
 10490 37ac 97F82E20 		ldrb	r2, [r7, #46]
 10491 37b0 3032     		adds	r2, r2, #48
 10492 37b2 D1B2     		uxtb	r1, r2
 10493 37b4 0F4A     		ldr	r2, .L755+4
 10494 37b6 D154     		strb	r1, [r2, r3]
2273:.\main.c      **** 				    if(y>9){
 10495              		.loc 1 2273 0
 10496 37b8 97F82E30 		ldrb	r3, [r7, #46]	@ zero_extendqisi2
 10497 37bc 092B     		cmp	r3, #9
 10498 37be 08D9     		bls	.L547
2274:.\main.c      **** 					    rf_mod[x+29] = y+55;
 10499              		.loc 1 2274 0
 10500 37c0 97F82F30 		ldrb	r3, [r7, #47]	@ zero_extendqisi2
 10501 37c4 1D33     		adds	r3, r3, #29
 10502 37c6 97F82E20 		ldrb	r2, [r7, #46]
ARM GAS  C:\Users\RECEPC~1\AppData\Local\Temp\cc8qeTl3.s 			page 229


 10503 37ca 3732     		adds	r2, r2, #55
 10504 37cc D1B2     		uxtb	r1, r2
 10505 37ce 094A     		ldr	r2, .L755+4
 10506 37d0 D154     		strb	r1, [r2, r3]
 10507              	.L547:
2267:.\main.c      **** 				    y=(rventa1.id[x/2]>>4)&0x0F;
 10508              		.loc 1 2267 0 discriminator 2
 10509 37d2 97F82F30 		ldrb	r3, [r7, #47]	@ zero_extendqisi2
 10510 37d6 0133     		adds	r3, r3, #1
 10511 37d8 87F82F30 		strb	r3, [r7, #47]
 10512              	.L545:
2267:.\main.c      **** 				    y=(rventa1.id[x/2]>>4)&0x0F;
 10513              		.loc 1 2267 0 is_stmt 0 discriminator 1
 10514 37dc 97F82F30 		ldrb	r3, [r7, #47]	@ zero_extendqisi2
 10515 37e0 0F2B     		cmp	r3, #15
 10516 37e2 C0D9     		bls	.L548
 10517 37e4 4DE0     		b	.L549
 10518              	.L544:
2275:.\main.c      **** 				    }
2276:.\main.c      **** 			    }
2277:.\main.c      ****             }else{
2278:.\main.c      ****                 for(x=0;x<=15;x++){						//Serial				
 10519              		.loc 1 2278 0 is_stmt 1
 10520 37e6 0023     		movs	r3, #0
 10521 37e8 87F82F30 		strb	r3, [r7, #47]
 10522 37ec 45E0     		b	.L550
 10523              	.L756:
 10524 37ee 00BF     		.align	2
 10525              	.L755:
 10526 37f0 00000000 		.word	rventa1
 10527 37f4 00000000 		.word	rf_mod
 10528 37f8 00000000 		.word	ppux10
 10529 37fc 00000000 		.word	id_estacion
 10530 3800 00000000 		.word	tipo_venta
 10531              	.L553:
2279:.\main.c      **** 				    y=(rventa1.id[x/2]>>4)&0x0F;
 10532              		.loc 1 2279 0
 10533 3804 97F82F30 		ldrb	r3, [r7, #47]	@ zero_extendqisi2
 10534 3808 5B08     		lsrs	r3, r3, #1
 10535 380a DBB2     		uxtb	r3, r3
 10536 380c 1A46     		mov	r2, r3
 10537 380e 7D4B     		ldr	r3, .L757
 10538 3810 1344     		add	r3, r3, r2
 10539 3812 93F82330 		ldrb	r3, [r3, #35]	@ zero_extendqisi2
 10540 3816 1B09     		lsrs	r3, r3, #4
 10541 3818 87F82E30 		strb	r3, [r7, #46]
2280:.\main.c      **** 				    if((x%2)==0){
 10542              		.loc 1 2280 0
 10543 381c 97F82F30 		ldrb	r3, [r7, #47]
 10544 3820 03F00103 		and	r3, r3, #1
 10545 3824 DBB2     		uxtb	r3, r3
 10546 3826 002B     		cmp	r3, #0
 10547 3828 0CD1     		bne	.L551
2281:.\main.c      **** 					    y=rventa1.id[x/2]&0x0F;
 10548              		.loc 1 2281 0
 10549 382a 97F82F30 		ldrb	r3, [r7, #47]	@ zero_extendqisi2
 10550 382e 5B08     		lsrs	r3, r3, #1
ARM GAS  C:\Users\RECEPC~1\AppData\Local\Temp\cc8qeTl3.s 			page 230


 10551 3830 DBB2     		uxtb	r3, r3
 10552 3832 1A46     		mov	r2, r3
 10553 3834 734B     		ldr	r3, .L757
 10554 3836 1344     		add	r3, r3, r2
 10555 3838 93F82330 		ldrb	r3, [r3, #35]	@ zero_extendqisi2
 10556 383c 03F00F03 		and	r3, r3, #15
 10557 3840 87F82E30 		strb	r3, [r7, #46]
 10558              	.L551:
2282:.\main.c      **** 				    }
2283:.\main.c      **** 				    rf_mod[x+29] = y+48;
 10559              		.loc 1 2283 0
 10560 3844 97F82F30 		ldrb	r3, [r7, #47]	@ zero_extendqisi2
 10561 3848 1D33     		adds	r3, r3, #29
 10562 384a 97F82E20 		ldrb	r2, [r7, #46]
 10563 384e 3032     		adds	r2, r2, #48
 10564 3850 D1B2     		uxtb	r1, r2
 10565 3852 6D4A     		ldr	r2, .L757+4
 10566 3854 D154     		strb	r1, [r2, r3]
2284:.\main.c      **** 				    if(y>9){
 10567              		.loc 1 2284 0
 10568 3856 97F82E30 		ldrb	r3, [r7, #46]	@ zero_extendqisi2
 10569 385a 092B     		cmp	r3, #9
 10570 385c 08D9     		bls	.L552
2285:.\main.c      **** 					    rf_mod[x+29] = y+55;
 10571              		.loc 1 2285 0
 10572 385e 97F82F30 		ldrb	r3, [r7, #47]	@ zero_extendqisi2
 10573 3862 1D33     		adds	r3, r3, #29
 10574 3864 97F82E20 		ldrb	r2, [r7, #46]
 10575 3868 3732     		adds	r2, r2, #55
 10576 386a D1B2     		uxtb	r1, r2
 10577 386c 664A     		ldr	r2, .L757+4
 10578 386e D154     		strb	r1, [r2, r3]
 10579              	.L552:
2278:.\main.c      **** 				    y=(rventa1.id[x/2]>>4)&0x0F;
 10580              		.loc 1 2278 0 discriminator 2
 10581 3870 97F82F30 		ldrb	r3, [r7, #47]	@ zero_extendqisi2
 10582 3874 0133     		adds	r3, r3, #1
 10583 3876 87F82F30 		strb	r3, [r7, #47]
 10584              	.L550:
2278:.\main.c      **** 				    y=(rventa1.id[x/2]>>4)&0x0F;
 10585              		.loc 1 2278 0 is_stmt 0 discriminator 1
 10586 387a 97F82F30 		ldrb	r3, [r7, #47]	@ zero_extendqisi2
 10587 387e 0F2B     		cmp	r3, #15
 10588 3880 C0D9     		bls	.L553
 10589              	.L549:
2286:.\main.c      **** 				    }
2287:.\main.c      **** 			    }               
2288:.\main.c      ****             }
2289:.\main.c      **** 			num_decimal2++;
 10590              		.loc 1 2289 0 is_stmt 1
 10591 3882 624B     		ldr	r3, .L757+8
 10592 3884 1B88     		ldrh	r3, [r3]
 10593 3886 0133     		adds	r3, r3, #1
 10594 3888 9AB2     		uxth	r2, r3
 10595 388a 604B     		ldr	r3, .L757+8
 10596 388c 1A80     		strh	r2, [r3]	@ movhi
2290:.\main.c      **** 			id_venta[4]=(num_decimal2/1000)+48;
ARM GAS  C:\Users\RECEPC~1\AppData\Local\Temp\cc8qeTl3.s 			page 231


 10597              		.loc 1 2290 0
 10598 388e 5F4B     		ldr	r3, .L757+8
 10599 3890 1B88     		ldrh	r3, [r3]
 10600 3892 5F4A     		ldr	r2, .L757+12
 10601 3894 A2FB0323 		umull	r2, r3, r2, r3
 10602 3898 9B09     		lsrs	r3, r3, #6
 10603 389a 9BB2     		uxth	r3, r3
 10604 389c DBB2     		uxtb	r3, r3
 10605 389e 3033     		adds	r3, r3, #48
 10606 38a0 DAB2     		uxtb	r2, r3
 10607 38a2 5C4B     		ldr	r3, .L757+16
 10608 38a4 1A71     		strb	r2, [r3, #4]
2291:.\main.c      **** 			id_venta[3]=((num_decimal2%1000)/100)+48;
 10609              		.loc 1 2291 0
 10610 38a6 594B     		ldr	r3, .L757+8
 10611 38a8 1B88     		ldrh	r3, [r3]
 10612 38aa 594A     		ldr	r2, .L757+12
 10613 38ac A2FB0312 		umull	r1, r2, r2, r3
 10614 38b0 9209     		lsrs	r2, r2, #6
 10615 38b2 4FF47A71 		mov	r1, #1000
 10616 38b6 01FB02F2 		mul	r2, r1, r2
 10617 38ba 9B1A     		subs	r3, r3, r2
 10618 38bc 9BB2     		uxth	r3, r3
 10619 38be 564A     		ldr	r2, .L757+20
 10620 38c0 A2FB0323 		umull	r2, r3, r2, r3
 10621 38c4 5B09     		lsrs	r3, r3, #5
 10622 38c6 9BB2     		uxth	r3, r3
 10623 38c8 DBB2     		uxtb	r3, r3
 10624 38ca 3033     		adds	r3, r3, #48
 10625 38cc DAB2     		uxtb	r2, r3
 10626 38ce 514B     		ldr	r3, .L757+16
 10627 38d0 DA70     		strb	r2, [r3, #3]
2292:.\main.c      **** 			id_venta[2]=(((num_decimal2%1000)%100)/10)+48;
 10628              		.loc 1 2292 0
 10629 38d2 4E4B     		ldr	r3, .L757+8
 10630 38d4 1B88     		ldrh	r3, [r3]
 10631 38d6 4E4A     		ldr	r2, .L757+12
 10632 38d8 A2FB0312 		umull	r1, r2, r2, r3
 10633 38dc 9209     		lsrs	r2, r2, #6
 10634 38de 4FF47A71 		mov	r1, #1000
 10635 38e2 01FB02F2 		mul	r2, r1, r2
 10636 38e6 9B1A     		subs	r3, r3, r2
 10637 38e8 9BB2     		uxth	r3, r3
 10638 38ea 4B4A     		ldr	r2, .L757+20
 10639 38ec A2FB0312 		umull	r1, r2, r2, r3
 10640 38f0 5209     		lsrs	r2, r2, #5
 10641 38f2 6421     		movs	r1, #100
 10642 38f4 01FB02F2 		mul	r2, r1, r2
 10643 38f8 9B1A     		subs	r3, r3, r2
 10644 38fa 9BB2     		uxth	r3, r3
 10645 38fc 474A     		ldr	r2, .L757+24
 10646 38fe A2FB0323 		umull	r2, r3, r2, r3
 10647 3902 DB08     		lsrs	r3, r3, #3
 10648 3904 9BB2     		uxth	r3, r3
 10649 3906 DBB2     		uxtb	r3, r3
 10650 3908 3033     		adds	r3, r3, #48
 10651 390a DAB2     		uxtb	r2, r3
ARM GAS  C:\Users\RECEPC~1\AppData\Local\Temp\cc8qeTl3.s 			page 232


 10652 390c 414B     		ldr	r3, .L757+16
 10653 390e 9A70     		strb	r2, [r3, #2]
2293:.\main.c      **** 			id_venta[1]=(((num_decimal2%1000)%100)%10)+48; 
 10654              		.loc 1 2293 0
 10655 3910 3E4B     		ldr	r3, .L757+8
 10656 3912 1B88     		ldrh	r3, [r3]
 10657 3914 3E4A     		ldr	r2, .L757+12
 10658 3916 A2FB0312 		umull	r1, r2, r2, r3
 10659 391a 9209     		lsrs	r2, r2, #6
 10660 391c 4FF47A71 		mov	r1, #1000
 10661 3920 01FB02F2 		mul	r2, r1, r2
 10662 3924 9B1A     		subs	r3, r3, r2
 10663 3926 9BB2     		uxth	r3, r3
 10664 3928 3B4A     		ldr	r2, .L757+20
 10665 392a A2FB0312 		umull	r1, r2, r2, r3
 10666 392e 5209     		lsrs	r2, r2, #5
 10667 3930 6421     		movs	r1, #100
 10668 3932 01FB02F2 		mul	r2, r1, r2
 10669 3936 9B1A     		subs	r3, r3, r2
 10670 3938 9AB2     		uxth	r2, r3
 10671 393a 384B     		ldr	r3, .L757+24
 10672 393c A3FB0213 		umull	r1, r3, r3, r2
 10673 3940 D908     		lsrs	r1, r3, #3
 10674 3942 0B46     		mov	r3, r1
 10675 3944 9B00     		lsls	r3, r3, #2
 10676 3946 0B44     		add	r3, r3, r1
 10677 3948 5B00     		lsls	r3, r3, #1
 10678 394a D31A     		subs	r3, r2, r3
 10679 394c 9BB2     		uxth	r3, r3
 10680 394e DBB2     		uxtb	r3, r3
 10681 3950 3033     		adds	r3, r3, #48
 10682 3952 DAB2     		uxtb	r2, r3
 10683 3954 2F4B     		ldr	r3, .L757+16
 10684 3956 5A70     		strb	r2, [r3, #1]
2294:.\main.c      **** 			for(x=1;x<=7;x++){						//Id de Venta
 10685              		.loc 1 2294 0
 10686 3958 0123     		movs	r3, #1
 10687 395a 87F82F30 		strb	r3, [r7, #47]
 10688 395e 0EE0     		b	.L554
 10689              	.L555:
2295:.\main.c      **** 				rf_mod[44+x]=id_venta[x];
 10690              		.loc 1 2295 0 discriminator 3
 10691 3960 97F82F30 		ldrb	r3, [r7, #47]	@ zero_extendqisi2
 10692 3964 2C33     		adds	r3, r3, #44
 10693 3966 97F82F20 		ldrb	r2, [r7, #47]	@ zero_extendqisi2
 10694 396a 2A49     		ldr	r1, .L757+16
 10695 396c 8A5C     		ldrb	r2, [r1, r2]
 10696 396e D1B2     		uxtb	r1, r2
 10697 3970 254A     		ldr	r2, .L757+4
 10698 3972 D154     		strb	r1, [r2, r3]
2294:.\main.c      **** 			for(x=1;x<=7;x++){						//Id de Venta
 10699              		.loc 1 2294 0 discriminator 3
 10700 3974 97F82F30 		ldrb	r3, [r7, #47]	@ zero_extendqisi2
 10701 3978 0133     		adds	r3, r3, #1
 10702 397a 87F82F30 		strb	r3, [r7, #47]
 10703              	.L554:
2294:.\main.c      **** 			for(x=1;x<=7;x++){						//Id de Venta
ARM GAS  C:\Users\RECEPC~1\AppData\Local\Temp\cc8qeTl3.s 			page 233


 10704              		.loc 1 2294 0 is_stmt 0 discriminator 1
 10705 397e 97F82F30 		ldrb	r3, [r7, #47]	@ zero_extendqisi2
 10706 3982 072B     		cmp	r3, #7
 10707 3984 ECD9     		bls	.L555
2296:.\main.c      **** 			}
2297:.\main.c      **** 			for(x=1;x<=4;x++){						//Guarda Id venta
 10708              		.loc 1 2297 0 is_stmt 1
 10709 3986 0123     		movs	r3, #1
 10710 3988 87F82F30 		strb	r3, [r7, #47]
 10711 398c 10E0     		b	.L556
 10712              	.L557:
2298:.\main.c      **** 				EEPROM_WriteByte(id_venta[x],x);
 10713              		.loc 1 2298 0 discriminator 3
 10714 398e 97F82F30 		ldrb	r3, [r7, #47]	@ zero_extendqisi2
 10715 3992 204A     		ldr	r2, .L757+16
 10716 3994 D35C     		ldrb	r3, [r2, r3]
 10717 3996 DAB2     		uxtb	r2, r3
 10718 3998 97F82F30 		ldrb	r3, [r7, #47]	@ zero_extendqisi2
 10719 399c 9BB2     		uxth	r3, r3
 10720 399e 1046     		mov	r0, r2
 10721 39a0 1946     		mov	r1, r3
 10722 39a2 FFF7FEFF 		bl	EEPROM_WriteByte
2297:.\main.c      **** 				EEPROM_WriteByte(id_venta[x],x);
 10723              		.loc 1 2297 0 discriminator 3
 10724 39a6 97F82F30 		ldrb	r3, [r7, #47]	@ zero_extendqisi2
 10725 39aa 0133     		adds	r3, r3, #1
 10726 39ac 87F82F30 		strb	r3, [r7, #47]
 10727              	.L556:
2297:.\main.c      **** 				EEPROM_WriteByte(id_venta[x],x);
 10728              		.loc 1 2297 0 is_stmt 0 discriminator 1
 10729 39b0 97F82F30 		ldrb	r3, [r7, #47]	@ zero_extendqisi2
 10730 39b4 042B     		cmp	r3, #4
 10731 39b6 EAD9     		bls	.L557
2299:.\main.c      **** 			}
2300:.\main.c      **** 			for(x=0;x<=6;x++){						//Km
 10732              		.loc 1 2300 0 is_stmt 1
 10733 39b8 0023     		movs	r3, #0
 10734 39ba 87F82F30 		strb	r3, [r7, #47]
 10735 39be 12E0     		b	.L558
 10736              	.L559:
2301:.\main.c      **** 				rf_mod[52+x]=rventa1.km[x+1] + 48;
 10737              		.loc 1 2301 0 discriminator 3
 10738 39c0 97F82F30 		ldrb	r3, [r7, #47]	@ zero_extendqisi2
 10739 39c4 3433     		adds	r3, r3, #52
 10740 39c6 97F82F20 		ldrb	r2, [r7, #47]	@ zero_extendqisi2
 10741 39ca 0132     		adds	r2, r2, #1
 10742 39cc 0D49     		ldr	r1, .L757
 10743 39ce 0A44     		add	r2, r2, r1
 10744 39d0 92F84320 		ldrb	r2, [r2, #67]	@ zero_extendqisi2
 10745 39d4 3032     		adds	r2, r2, #48
 10746 39d6 D1B2     		uxtb	r1, r2
 10747 39d8 0B4A     		ldr	r2, .L757+4
 10748 39da D154     		strb	r1, [r2, r3]
2300:.\main.c      **** 				rf_mod[52+x]=rventa1.km[x+1] + 48;
 10749              		.loc 1 2300 0 discriminator 3
 10750 39dc 97F82F30 		ldrb	r3, [r7, #47]	@ zero_extendqisi2
 10751 39e0 0133     		adds	r3, r3, #1
ARM GAS  C:\Users\RECEPC~1\AppData\Local\Temp\cc8qeTl3.s 			page 234


 10752 39e2 87F82F30 		strb	r3, [r7, #47]
 10753              	.L558:
2300:.\main.c      **** 				rf_mod[52+x]=rventa1.km[x+1] + 48;
 10754              		.loc 1 2300 0 is_stmt 0 discriminator 1
 10755 39e6 97F82F30 		ldrb	r3, [r7, #47]	@ zero_extendqisi2
 10756 39ea 062B     		cmp	r3, #6
 10757 39ec E8D9     		bls	.L559
2302:.\main.c      **** 			}				
2303:.\main.c      **** 			rf_mod[59]='*';
 10758              		.loc 1 2303 0 is_stmt 1
 10759 39ee 064B     		ldr	r3, .L757+4
 10760 39f0 2A22     		movs	r2, #42
 10761 39f2 83F83B20 		strb	r2, [r3, #59]
2304:.\main.c      **** 			PC_ClearRxBuffer();				
 10762              		.loc 1 2304 0
 10763 39f6 FFF7FEFF 		bl	PC_ClearRxBuffer
2305:.\main.c      **** 		    for(x=0;x<=59;x++){
 10764              		.loc 1 2305 0
 10765 39fa 0023     		movs	r3, #0
 10766 39fc 87F82F30 		strb	r3, [r7, #47]
 10767 3a00 1AE0     		b	.L560
 10768              	.L758:
 10769 3a02 00BF     		.align	2
 10770              	.L757:
 10771 3a04 00000000 		.word	rventa1
 10772 3a08 00000000 		.word	rf_mod
 10773 3a0c 00000000 		.word	num_decimal2
 10774 3a10 D34D6210 		.word	274877907
 10775 3a14 00000000 		.word	id_venta
 10776 3a18 1F85EB51 		.word	1374389535
 10777 3a1c CDCCCCCC 		.word	-858993459
 10778              	.L561:
2306:.\main.c      **** 			   PC_PutChar(rf_mod[x]);
 10779              		.loc 1 2306 0 discriminator 3
 10780 3a20 97F82F30 		ldrb	r3, [r7, #47]	@ zero_extendqisi2
 10781 3a24 6C4A     		ldr	r2, .L759
 10782 3a26 D35C     		ldrb	r3, [r2, r3]	@ zero_extendqisi2
 10783 3a28 1846     		mov	r0, r3
 10784 3a2a FFF7FEFF 		bl	PC_PutChar
2305:.\main.c      **** 		    for(x=0;x<=59;x++){
 10785              		.loc 1 2305 0 discriminator 3
 10786 3a2e 97F82F30 		ldrb	r3, [r7, #47]	@ zero_extendqisi2
 10787 3a32 0133     		adds	r3, r3, #1
 10788 3a34 87F82F30 		strb	r3, [r7, #47]
 10789              	.L560:
2305:.\main.c      **** 		    for(x=0;x<=59;x++){
 10790              		.loc 1 2305 0 is_stmt 0 discriminator 1
 10791 3a38 97F82F30 		ldrb	r3, [r7, #47]	@ zero_extendqisi2
 10792 3a3c 3B2B     		cmp	r3, #59
 10793 3a3e EFD9     		bls	.L561
2307:.\main.c      **** 		    }            
2308:.\main.c      ****             PC_ClearRxBuffer();
 10794              		.loc 1 2308 0 is_stmt 1
 10795 3a40 FFF7FEFF 		bl	PC_ClearRxBuffer
2309:.\main.c      **** 			CyDelay(300);
 10796              		.loc 1 2309 0
 10797 3a44 4FF49670 		mov	r0, #300
ARM GAS  C:\Users\RECEPC~1\AppData\Local\Temp\cc8qeTl3.s 			page 235


 10798 3a48 FFF7FEFF 		bl	CyDelay
2310:.\main.c      ****             PC_ClearTxBuffer();				
 10799              		.loc 1 2310 0
 10800 3a4c FFF7FEFF 		bl	PC_ClearTxBuffer
2311:.\main.c      ****             estado_tanqueando=0;				
 10801              		.loc 1 2311 0
 10802 3a50 624B     		ldr	r3, .L759+4
 10803 3a52 0022     		movs	r2, #0
 10804 3a54 1A70     		strb	r2, [r3]
2312:.\main.c      **** 			precio[0]=lado1.ppu[rventa1.producto-1][0];
 10805              		.loc 1 2312 0
 10806 3a56 624B     		ldr	r3, .L759+8
 10807 3a58 5B7E     		ldrb	r3, [r3, #25]	@ zero_extendqisi2
 10808 3a5a 5A1E     		subs	r2, r3, #1
 10809 3a5c 6149     		ldr	r1, .L759+12
 10810 3a5e 1346     		mov	r3, r2
 10811 3a60 9B00     		lsls	r3, r3, #2
 10812 3a62 1344     		add	r3, r3, r2
 10813 3a64 0B44     		add	r3, r3, r1
 10814 3a66 4833     		adds	r3, r3, #72
 10815 3a68 9B78     		ldrb	r3, [r3, #2]
 10816 3a6a DBB2     		uxtb	r3, r3
 10817 3a6c 3B73     		strb	r3, [r7, #12]
2313:.\main.c      **** 			precio[1]=lado1.ppu[rventa1.producto-1][1];
 10818              		.loc 1 2313 0
 10819 3a6e 5C4B     		ldr	r3, .L759+8
 10820 3a70 5B7E     		ldrb	r3, [r3, #25]	@ zero_extendqisi2
 10821 3a72 5A1E     		subs	r2, r3, #1
 10822 3a74 5B49     		ldr	r1, .L759+12
 10823 3a76 1346     		mov	r3, r2
 10824 3a78 9B00     		lsls	r3, r3, #2
 10825 3a7a 1344     		add	r3, r3, r2
 10826 3a7c 0B44     		add	r3, r3, r1
 10827 3a7e 4933     		adds	r3, r3, #73
 10828 3a80 9B78     		ldrb	r3, [r3, #2]
 10829 3a82 DBB2     		uxtb	r3, r3
 10830 3a84 7B73     		strb	r3, [r7, #13]
2314:.\main.c      **** 			precio[2]=lado1.ppu[rventa1.producto-1][2];
 10831              		.loc 1 2314 0
 10832 3a86 564B     		ldr	r3, .L759+8
 10833 3a88 5B7E     		ldrb	r3, [r3, #25]	@ zero_extendqisi2
 10834 3a8a 5A1E     		subs	r2, r3, #1
 10835 3a8c 5549     		ldr	r1, .L759+12
 10836 3a8e 1346     		mov	r3, r2
 10837 3a90 9B00     		lsls	r3, r3, #2
 10838 3a92 1344     		add	r3, r3, r2
 10839 3a94 0B44     		add	r3, r3, r1
 10840 3a96 4A33     		adds	r3, r3, #74
 10841 3a98 9B78     		ldrb	r3, [r3, #2]
 10842 3a9a DBB2     		uxtb	r3, r3
 10843 3a9c BB73     		strb	r3, [r7, #14]
2315:.\main.c      **** 			precio[3]=lado1.ppu[rventa1.producto-1][3];
 10844              		.loc 1 2315 0
 10845 3a9e 504B     		ldr	r3, .L759+8
 10846 3aa0 5B7E     		ldrb	r3, [r3, #25]	@ zero_extendqisi2
 10847 3aa2 5A1E     		subs	r2, r3, #1
 10848 3aa4 4F49     		ldr	r1, .L759+12
ARM GAS  C:\Users\RECEPC~1\AppData\Local\Temp\cc8qeTl3.s 			page 236


 10849 3aa6 1346     		mov	r3, r2
 10850 3aa8 9B00     		lsls	r3, r3, #2
 10851 3aaa 1344     		add	r3, r3, r2
 10852 3aac 0B44     		add	r3, r3, r1
 10853 3aae 4B33     		adds	r3, r3, #75
 10854 3ab0 9B78     		ldrb	r3, [r3, #2]
 10855 3ab2 DBB2     		uxtb	r3, r3
 10856 3ab4 FB73     		strb	r3, [r7, #15]
2316:.\main.c      **** 			precio[4]=lado1.ppu[rventa1.producto-1][4];
 10857              		.loc 1 2316 0
 10858 3ab6 4A4B     		ldr	r3, .L759+8
 10859 3ab8 5B7E     		ldrb	r3, [r3, #25]	@ zero_extendqisi2
 10860 3aba 5A1E     		subs	r2, r3, #1
 10861 3abc 4949     		ldr	r1, .L759+12
 10862 3abe 1346     		mov	r3, r2
 10863 3ac0 9B00     		lsls	r3, r3, #2
 10864 3ac2 1344     		add	r3, r3, r2
 10865 3ac4 0B44     		add	r3, r3, r1
 10866 3ac6 4C33     		adds	r3, r3, #76
 10867 3ac8 9B78     		ldrb	r3, [r3, #2]
 10868 3aca DBB2     		uxtb	r3, r3
 10869 3acc 3B74     		strb	r3, [r7, #16]
2317:.\main.c      **** 			cambiar_precio(lado1.dir,precio,rventa1.producto);
 10870              		.loc 1 2317 0
 10871 3ace 454B     		ldr	r3, .L759+12
 10872 3ad0 1B78     		ldrb	r3, [r3]
 10873 3ad2 D9B2     		uxtb	r1, r3
 10874 3ad4 424B     		ldr	r3, .L759+8
 10875 3ad6 5B7E     		ldrb	r3, [r3, #25]	@ zero_extendqisi2
 10876 3ad8 07F10C02 		add	r2, r7, #12
 10877 3adc 0846     		mov	r0, r1
 10878 3ade 1146     		mov	r1, r2
 10879 3ae0 1A46     		mov	r2, r3
 10880 3ae2 FFF7FEFF 		bl	cambiar_precio
 10881              	.L539:
2318:.\main.c      ****         }
2319:.\main.c      ****         if(seleccion_pos == 2){
 10882              		.loc 1 2319 0
 10883 3ae6 404B     		ldr	r3, .L759+16
 10884 3ae8 1B78     		ldrb	r3, [r3]
 10885 3aea DBB2     		uxtb	r3, r3
 10886 3aec 022B     		cmp	r3, #2
 10887 3aee 40F0BF82 		bne	.L562
2320:.\main.c      **** 			rf_mod[0]='M';
 10888              		.loc 1 2320 0
 10889 3af2 394B     		ldr	r3, .L759
 10890 3af4 4D22     		movs	r2, #77
 10891 3af6 1A70     		strb	r2, [r3]
2321:.\main.c      **** 			rf_mod[1]='U';
 10892              		.loc 1 2321 0
 10893 3af8 374B     		ldr	r3, .L759
 10894 3afa 5522     		movs	r2, #85
 10895 3afc 5A70     		strb	r2, [r3, #1]
2322:.\main.c      **** 			rf_mod[2]='X';
 10896              		.loc 1 2322 0
 10897 3afe 364B     		ldr	r3, .L759
 10898 3b00 5822     		movs	r2, #88
ARM GAS  C:\Users\RECEPC~1\AppData\Local\Temp\cc8qeTl3.s 			page 237


 10899 3b02 9A70     		strb	r2, [r3, #2]
2323:.\main.c      **** 			rf_mod[3]='1';
 10900              		.loc 1 2323 0
 10901 3b04 344B     		ldr	r3, .L759
 10902 3b06 3122     		movs	r2, #49
 10903 3b08 DA70     		strb	r2, [r3, #3]
2324:.\main.c      **** 			rf_mod[4]=2 + 48;								//Cara
 10904              		.loc 1 2324 0
 10905 3b0a 334B     		ldr	r3, .L759
 10906 3b0c 3222     		movs	r2, #50
 10907 3b0e 1A71     		strb	r2, [r3, #4]
2325:.\main.c      **** 			rf_mod[5]=(lado2.grado[rventa2.producto-1][0] + 48);	//Id Producto	
 10908              		.loc 1 2325 0
 10909 3b10 364B     		ldr	r3, .L759+20
 10910 3b12 5B7E     		ldrb	r3, [r3, #25]	@ zero_extendqisi2
 10911 3b14 013B     		subs	r3, r3, #1
 10912 3b16 364A     		ldr	r2, .L759+24
 10913 3b18 1344     		add	r3, r3, r2
 10914 3b1a 93F85930 		ldrb	r3, [r3, #89]
 10915 3b1e DBB2     		uxtb	r3, r3
 10916 3b20 3033     		adds	r3, r3, #48
 10917 3b22 DAB2     		uxtb	r2, r3
 10918 3b24 2C4B     		ldr	r3, .L759
 10919 3b26 5A71     		strb	r2, [r3, #5]
2326:.\main.c      **** 			rf_mod[6]=rventa2.volumen[5] + 48;						//Volumen
 10920              		.loc 1 2326 0
 10921 3b28 304B     		ldr	r3, .L759+20
 10922 3b2a 5B7D     		ldrb	r3, [r3, #21]	@ zero_extendqisi2
 10923 3b2c 3033     		adds	r3, r3, #48
 10924 3b2e DAB2     		uxtb	r2, r3
 10925 3b30 294B     		ldr	r3, .L759
 10926 3b32 9A71     		strb	r2, [r3, #6]
2327:.\main.c      **** 			rf_mod[7]=rventa2.volumen[4] + 48;
 10927              		.loc 1 2327 0
 10928 3b34 2D4B     		ldr	r3, .L759+20
 10929 3b36 1B7D     		ldrb	r3, [r3, #20]	@ zero_extendqisi2
 10930 3b38 3033     		adds	r3, r3, #48
 10931 3b3a DAB2     		uxtb	r2, r3
 10932 3b3c 264B     		ldr	r3, .L759
 10933 3b3e DA71     		strb	r2, [r3, #7]
2328:.\main.c      **** 			rf_mod[8]=rventa2.volumen[3] + 48;
 10934              		.loc 1 2328 0
 10935 3b40 2A4B     		ldr	r3, .L759+20
 10936 3b42 DB7C     		ldrb	r3, [r3, #19]	@ zero_extendqisi2
 10937 3b44 3033     		adds	r3, r3, #48
 10938 3b46 DAB2     		uxtb	r2, r3
 10939 3b48 234B     		ldr	r3, .L759
 10940 3b4a 1A72     		strb	r2, [r3, #8]
2329:.\main.c      **** 			rf_mod[9]=',';
 10941              		.loc 1 2329 0
 10942 3b4c 224B     		ldr	r3, .L759
 10943 3b4e 2C22     		movs	r2, #44
 10944 3b50 5A72     		strb	r2, [r3, #9]
2330:.\main.c      **** 			rf_mod[10]=rventa2.volumen[2] + 48;
 10945              		.loc 1 2330 0
 10946 3b52 264B     		ldr	r3, .L759+20
 10947 3b54 9B7C     		ldrb	r3, [r3, #18]	@ zero_extendqisi2
ARM GAS  C:\Users\RECEPC~1\AppData\Local\Temp\cc8qeTl3.s 			page 238


 10948 3b56 3033     		adds	r3, r3, #48
 10949 3b58 DAB2     		uxtb	r2, r3
 10950 3b5a 1F4B     		ldr	r3, .L759
 10951 3b5c 9A72     		strb	r2, [r3, #10]
2331:.\main.c      **** 			rf_mod[11]=rventa2.volumen[1] + 48;
 10952              		.loc 1 2331 0
 10953 3b5e 234B     		ldr	r3, .L759+20
 10954 3b60 5B7C     		ldrb	r3, [r3, #17]	@ zero_extendqisi2
 10955 3b62 3033     		adds	r3, r3, #48
 10956 3b64 DAB2     		uxtb	r2, r3
 10957 3b66 1C4B     		ldr	r3, .L759
 10958 3b68 DA72     		strb	r2, [r3, #11]
2332:.\main.c      **** 			rf_mod[12]=rventa2.volumen[0] + 48;
 10959              		.loc 1 2332 0
 10960 3b6a 204B     		ldr	r3, .L759+20
 10961 3b6c 1B7C     		ldrb	r3, [r3, #16]	@ zero_extendqisi2
 10962 3b6e 3033     		adds	r3, r3, #48
 10963 3b70 DAB2     		uxtb	r2, r3
 10964 3b72 194B     		ldr	r3, .L759
 10965 3b74 1A73     		strb	r2, [r3, #12]
2333:.\main.c      **** 			if(version[1]==7){
 10966              		.loc 1 2333 0
 10967 3b76 1F4B     		ldr	r3, .L759+28
 10968 3b78 5B78     		ldrb	r3, [r3, #1]
 10969 3b7a DBB2     		uxtb	r3, r3
 10970 3b7c 072B     		cmp	r3, #7
 10971 3b7e 3BD1     		bne	.L563
2334:.\main.c      **** 				rf_mod[13]=rventa2.dinero[7] + 48;	//Dinero 7 digitos
 10972              		.loc 1 2334 0
 10973 3b80 1A4B     		ldr	r3, .L759+20
 10974 3b82 9B7B     		ldrb	r3, [r3, #14]	@ zero_extendqisi2
 10975 3b84 3033     		adds	r3, r3, #48
 10976 3b86 DAB2     		uxtb	r2, r3
 10977 3b88 134B     		ldr	r3, .L759
 10978 3b8a 5A73     		strb	r2, [r3, #13]
2335:.\main.c      **** 				rf_mod[14]=rventa2.dinero[6] + 48;
 10979              		.loc 1 2335 0
 10980 3b8c 174B     		ldr	r3, .L759+20
 10981 3b8e 5B7B     		ldrb	r3, [r3, #13]	@ zero_extendqisi2
 10982 3b90 3033     		adds	r3, r3, #48
 10983 3b92 DAB2     		uxtb	r2, r3
 10984 3b94 104B     		ldr	r3, .L759
 10985 3b96 9A73     		strb	r2, [r3, #14]
2336:.\main.c      **** 				rf_mod[15]=rventa2.dinero[5] + 48;
 10986              		.loc 1 2336 0
 10987 3b98 144B     		ldr	r3, .L759+20
 10988 3b9a 1B7B     		ldrb	r3, [r3, #12]	@ zero_extendqisi2
 10989 3b9c 3033     		adds	r3, r3, #48
 10990 3b9e DAB2     		uxtb	r2, r3
 10991 3ba0 0D4B     		ldr	r3, .L759
 10992 3ba2 DA73     		strb	r2, [r3, #15]
2337:.\main.c      **** 				rf_mod[16]=rventa2.dinero[4] + 48;
 10993              		.loc 1 2337 0
 10994 3ba4 114B     		ldr	r3, .L759+20
 10995 3ba6 DB7A     		ldrb	r3, [r3, #11]	@ zero_extendqisi2
 10996 3ba8 3033     		adds	r3, r3, #48
 10997 3baa DAB2     		uxtb	r2, r3
ARM GAS  C:\Users\RECEPC~1\AppData\Local\Temp\cc8qeTl3.s 			page 239


 10998 3bac 0A4B     		ldr	r3, .L759
 10999 3bae 1A74     		strb	r2, [r3, #16]
2338:.\main.c      **** 				rf_mod[17]=rventa2.dinero[3] + 48;
 11000              		.loc 1 2338 0
 11001 3bb0 0E4B     		ldr	r3, .L759+20
 11002 3bb2 9B7A     		ldrb	r3, [r3, #10]	@ zero_extendqisi2
 11003 3bb4 3033     		adds	r3, r3, #48
 11004 3bb6 DAB2     		uxtb	r2, r3
 11005 3bb8 074B     		ldr	r3, .L759
 11006 3bba 5A74     		strb	r2, [r3, #17]
2339:.\main.c      **** 				rf_mod[18]=rventa2.dinero[2] + 48;
 11007              		.loc 1 2339 0
 11008 3bbc 0B4B     		ldr	r3, .L759+20
 11009 3bbe 5B7A     		ldrb	r3, [r3, #9]	@ zero_extendqisi2
 11010 3bc0 3033     		adds	r3, r3, #48
 11011 3bc2 DAB2     		uxtb	r2, r3
 11012 3bc4 044B     		ldr	r3, .L759
 11013 3bc6 9A74     		strb	r2, [r3, #18]
2340:.\main.c      **** 				rf_mod[19]=rventa2.dinero[1] + 48;					
 11014              		.loc 1 2340 0
 11015 3bc8 084B     		ldr	r3, .L759+20
 11016 3bca 1B7A     		ldrb	r3, [r3, #8]	@ zero_extendqisi2
 11017 3bcc 3033     		adds	r3, r3, #48
 11018 3bce DAB2     		uxtb	r2, r3
 11019 3bd0 014B     		ldr	r3, .L759
 11020 3bd2 DA74     		strb	r2, [r3, #19]
 11021 3bd4 3AE0     		b	.L564
 11022              	.L760:
 11023 3bd6 00BF     		.align	2
 11024              	.L759:
 11025 3bd8 00000000 		.word	rf_mod
 11026 3bdc 00000000 		.word	estado_tanqueando
 11027 3be0 00000000 		.word	rventa1
 11028 3be4 00000000 		.word	lado1
 11029 3be8 00000000 		.word	seleccion_pos
 11030 3bec 00000000 		.word	rventa2
 11031 3bf0 00000000 		.word	lado2
 11032 3bf4 00000000 		.word	version
 11033              	.L563:
2341:.\main.c      **** 			}
2342:.\main.c      **** 			else{
2343:.\main.c      **** 				rf_mod[13]=rventa2.dinero[6] + 48;	//Dinero 6 digitos 
 11034              		.loc 1 2343 0
 11035 3bf8 664B     		ldr	r3, .L761
 11036 3bfa 5B7B     		ldrb	r3, [r3, #13]	@ zero_extendqisi2
 11037 3bfc 3033     		adds	r3, r3, #48
 11038 3bfe DAB2     		uxtb	r2, r3
 11039 3c00 654B     		ldr	r3, .L761+4
 11040 3c02 5A73     		strb	r2, [r3, #13]
2344:.\main.c      **** 				rf_mod[14]=rventa2.dinero[5] + 48;
 11041              		.loc 1 2344 0
 11042 3c04 634B     		ldr	r3, .L761
 11043 3c06 1B7B     		ldrb	r3, [r3, #12]	@ zero_extendqisi2
 11044 3c08 3033     		adds	r3, r3, #48
 11045 3c0a DAB2     		uxtb	r2, r3
 11046 3c0c 624B     		ldr	r3, .L761+4
 11047 3c0e 9A73     		strb	r2, [r3, #14]
ARM GAS  C:\Users\RECEPC~1\AppData\Local\Temp\cc8qeTl3.s 			page 240


2345:.\main.c      **** 				rf_mod[15]=rventa2.dinero[4] + 48;
 11048              		.loc 1 2345 0
 11049 3c10 604B     		ldr	r3, .L761
 11050 3c12 DB7A     		ldrb	r3, [r3, #11]	@ zero_extendqisi2
 11051 3c14 3033     		adds	r3, r3, #48
 11052 3c16 DAB2     		uxtb	r2, r3
 11053 3c18 5F4B     		ldr	r3, .L761+4
 11054 3c1a DA73     		strb	r2, [r3, #15]
2346:.\main.c      **** 				rf_mod[16]=rventa2.dinero[3] + 48;
 11055              		.loc 1 2346 0
 11056 3c1c 5D4B     		ldr	r3, .L761
 11057 3c1e 9B7A     		ldrb	r3, [r3, #10]	@ zero_extendqisi2
 11058 3c20 3033     		adds	r3, r3, #48
 11059 3c22 DAB2     		uxtb	r2, r3
 11060 3c24 5C4B     		ldr	r3, .L761+4
 11061 3c26 1A74     		strb	r2, [r3, #16]
2347:.\main.c      **** 				rf_mod[17]=rventa2.dinero[2] + 48;
 11062              		.loc 1 2347 0
 11063 3c28 5A4B     		ldr	r3, .L761
 11064 3c2a 5B7A     		ldrb	r3, [r3, #9]	@ zero_extendqisi2
 11065 3c2c 3033     		adds	r3, r3, #48
 11066 3c2e DAB2     		uxtb	r2, r3
 11067 3c30 594B     		ldr	r3, .L761+4
 11068 3c32 5A74     		strb	r2, [r3, #17]
2348:.\main.c      **** 				rf_mod[18]=rventa2.dinero[1] + 48;					
 11069              		.loc 1 2348 0
 11070 3c34 574B     		ldr	r3, .L761
 11071 3c36 1B7A     		ldrb	r3, [r3, #8]	@ zero_extendqisi2
 11072 3c38 3033     		adds	r3, r3, #48
 11073 3c3a DAB2     		uxtb	r2, r3
 11074 3c3c 564B     		ldr	r3, .L761+4
 11075 3c3e 9A74     		strb	r2, [r3, #18]
2349:.\main.c      **** 				rf_mod[19]=rventa2.dinero[0] + 48;
 11076              		.loc 1 2349 0
 11077 3c40 544B     		ldr	r3, .L761
 11078 3c42 DB79     		ldrb	r3, [r3, #7]	@ zero_extendqisi2
 11079 3c44 3033     		adds	r3, r3, #48
 11080 3c46 DAB2     		uxtb	r2, r3
 11081 3c48 534B     		ldr	r3, .L761+4
 11082 3c4a DA74     		strb	r2, [r3, #19]
 11083              	.L564:
2350:.\main.c      **** 			}
2351:.\main.c      ****             if(ppux10==0){
 11084              		.loc 1 2351 0
 11085 3c4c 534B     		ldr	r3, .L761+8
 11086 3c4e 1B78     		ldrb	r3, [r3]
 11087 3c50 DBB2     		uxtb	r3, r3
 11088 3c52 002B     		cmp	r3, #0
 11089 3c54 1DD1     		bne	.L565
2352:.\main.c      ****     			rf_mod[20]=rventa2.ppu[4] + 48;			//PPU
 11090              		.loc 1 2352 0
 11091 3c56 4F4B     		ldr	r3, .L761
 11092 3c58 9B79     		ldrb	r3, [r3, #6]	@ zero_extendqisi2
 11093 3c5a 3033     		adds	r3, r3, #48
 11094 3c5c DAB2     		uxtb	r2, r3
 11095 3c5e 4E4B     		ldr	r3, .L761+4
 11096 3c60 1A75     		strb	r2, [r3, #20]
ARM GAS  C:\Users\RECEPC~1\AppData\Local\Temp\cc8qeTl3.s 			page 241


2353:.\main.c      ****     			rf_mod[21]=rventa2.ppu[3] + 48;
 11097              		.loc 1 2353 0
 11098 3c62 4C4B     		ldr	r3, .L761
 11099 3c64 5B79     		ldrb	r3, [r3, #5]	@ zero_extendqisi2
 11100 3c66 3033     		adds	r3, r3, #48
 11101 3c68 DAB2     		uxtb	r2, r3
 11102 3c6a 4B4B     		ldr	r3, .L761+4
 11103 3c6c 5A75     		strb	r2, [r3, #21]
2354:.\main.c      ****     			rf_mod[22]=rventa2.ppu[2] + 48;
 11104              		.loc 1 2354 0
 11105 3c6e 494B     		ldr	r3, .L761
 11106 3c70 1B79     		ldrb	r3, [r3, #4]	@ zero_extendqisi2
 11107 3c72 3033     		adds	r3, r3, #48
 11108 3c74 DAB2     		uxtb	r2, r3
 11109 3c76 484B     		ldr	r3, .L761+4
 11110 3c78 9A75     		strb	r2, [r3, #22]
2355:.\main.c      ****     			rf_mod[23]=rventa2.ppu[1] + 48;
 11111              		.loc 1 2355 0
 11112 3c7a 464B     		ldr	r3, .L761
 11113 3c7c DB78     		ldrb	r3, [r3, #3]	@ zero_extendqisi2
 11114 3c7e 3033     		adds	r3, r3, #48
 11115 3c80 DAB2     		uxtb	r2, r3
 11116 3c82 454B     		ldr	r3, .L761+4
 11117 3c84 DA75     		strb	r2, [r3, #23]
2356:.\main.c      ****     			rf_mod[24]=rventa2.ppu[0] + 48;
 11118              		.loc 1 2356 0
 11119 3c86 434B     		ldr	r3, .L761
 11120 3c88 9B78     		ldrb	r3, [r3, #2]	@ zero_extendqisi2
 11121 3c8a 3033     		adds	r3, r3, #48
 11122 3c8c DAB2     		uxtb	r2, r3
 11123 3c8e 424B     		ldr	r3, .L761+4
 11124 3c90 1A76     		strb	r2, [r3, #24]
 11125              	.L565:
2357:.\main.c      ****             }
2358:.\main.c      ****             if(ppux10==1){
 11126              		.loc 1 2358 0
 11127 3c92 424B     		ldr	r3, .L761+8
 11128 3c94 1B78     		ldrb	r3, [r3]
 11129 3c96 DBB2     		uxtb	r3, r3
 11130 3c98 012B     		cmp	r3, #1
 11131 3c9a 1AD1     		bne	.L566
2359:.\main.c      ****     			rf_mod[20]=rventa2.ppu[3] + 48;			//PPU x10
 11132              		.loc 1 2359 0
 11133 3c9c 3D4B     		ldr	r3, .L761
 11134 3c9e 5B79     		ldrb	r3, [r3, #5]	@ zero_extendqisi2
 11135 3ca0 3033     		adds	r3, r3, #48
 11136 3ca2 DAB2     		uxtb	r2, r3
 11137 3ca4 3C4B     		ldr	r3, .L761+4
 11138 3ca6 1A75     		strb	r2, [r3, #20]
2360:.\main.c      ****     			rf_mod[21]=rventa2.ppu[2] + 48;
 11139              		.loc 1 2360 0
 11140 3ca8 3A4B     		ldr	r3, .L761
 11141 3caa 1B79     		ldrb	r3, [r3, #4]	@ zero_extendqisi2
 11142 3cac 3033     		adds	r3, r3, #48
 11143 3cae DAB2     		uxtb	r2, r3
 11144 3cb0 394B     		ldr	r3, .L761+4
 11145 3cb2 5A75     		strb	r2, [r3, #21]
ARM GAS  C:\Users\RECEPC~1\AppData\Local\Temp\cc8qeTl3.s 			page 242


2361:.\main.c      ****     			rf_mod[22]=rventa2.ppu[1] + 48;
 11146              		.loc 1 2361 0
 11147 3cb4 374B     		ldr	r3, .L761
 11148 3cb6 DB78     		ldrb	r3, [r3, #3]	@ zero_extendqisi2
 11149 3cb8 3033     		adds	r3, r3, #48
 11150 3cba DAB2     		uxtb	r2, r3
 11151 3cbc 364B     		ldr	r3, .L761+4
 11152 3cbe 9A75     		strb	r2, [r3, #22]
2362:.\main.c      ****     			rf_mod[23]=rventa2.ppu[0] + 48;
 11153              		.loc 1 2362 0
 11154 3cc0 344B     		ldr	r3, .L761
 11155 3cc2 9B78     		ldrb	r3, [r3, #2]	@ zero_extendqisi2
 11156 3cc4 3033     		adds	r3, r3, #48
 11157 3cc6 DAB2     		uxtb	r2, r3
 11158 3cc8 334B     		ldr	r3, .L761+4
 11159 3cca DA75     		strb	r2, [r3, #23]
2363:.\main.c      ****     			rf_mod[24]=48;
 11160              		.loc 1 2363 0
 11161 3ccc 324B     		ldr	r3, .L761+4
 11162 3cce 3022     		movs	r2, #48
 11163 3cd0 1A76     		strb	r2, [r3, #24]
 11164              	.L566:
2364:.\main.c      ****             }
2365:.\main.c      **** 			rf_mod[25]=id_estacion[4];				//Id Estacion	
 11165              		.loc 1 2365 0
 11166 3cd2 334B     		ldr	r3, .L761+12
 11167 3cd4 1B79     		ldrb	r3, [r3, #4]
 11168 3cd6 DAB2     		uxtb	r2, r3
 11169 3cd8 2F4B     		ldr	r3, .L761+4
 11170 3cda 5A76     		strb	r2, [r3, #25]
2366:.\main.c      **** 			rf_mod[26]=id_estacion[3];
 11171              		.loc 1 2366 0
 11172 3cdc 304B     		ldr	r3, .L761+12
 11173 3cde DB78     		ldrb	r3, [r3, #3]
 11174 3ce0 DAB2     		uxtb	r2, r3
 11175 3ce2 2D4B     		ldr	r3, .L761+4
 11176 3ce4 9A76     		strb	r2, [r3, #26]
2367:.\main.c      **** 			rf_mod[27]=id_estacion[2];
 11177              		.loc 1 2367 0
 11178 3ce6 2E4B     		ldr	r3, .L761+12
 11179 3ce8 9B78     		ldrb	r3, [r3, #2]
 11180 3cea DAB2     		uxtb	r2, r3
 11181 3cec 2A4B     		ldr	r3, .L761+4
 11182 3cee DA76     		strb	r2, [r3, #27]
2368:.\main.c      **** 			rf_mod[28]=id_estacion[1];
 11183              		.loc 1 2368 0
 11184 3cf0 2B4B     		ldr	r3, .L761+12
 11185 3cf2 5B78     		ldrb	r3, [r3, #1]
 11186 3cf4 DAB2     		uxtb	r2, r3
 11187 3cf6 284B     		ldr	r3, .L761+4
 11188 3cf8 1A77     		strb	r2, [r3, #28]
2369:.\main.c      **** 			
2370:.\main.c      ****             if(tipo_venta == 1){
 11189              		.loc 1 2370 0
 11190 3cfa 2A4B     		ldr	r3, .L761+16
 11191 3cfc 1B78     		ldrb	r3, [r3]	@ zero_extendqisi2
 11192 3cfe 012B     		cmp	r3, #1
ARM GAS  C:\Users\RECEPC~1\AppData\Local\Temp\cc8qeTl3.s 			page 243


 11193 3d00 43D1     		bne	.L567
2371:.\main.c      ****                 for(x=0;x<=15;x++){						//Serial				
 11194              		.loc 1 2371 0
 11195 3d02 0023     		movs	r3, #0
 11196 3d04 87F82F30 		strb	r3, [r7, #47]
 11197 3d08 3AE0     		b	.L568
 11198              	.L571:
2372:.\main.c      **** 				    y=(rventa2.id[x/2]>>4)&0x0F;
 11199              		.loc 1 2372 0
 11200 3d0a 97F82F30 		ldrb	r3, [r7, #47]	@ zero_extendqisi2
 11201 3d0e 5B08     		lsrs	r3, r3, #1
 11202 3d10 DBB2     		uxtb	r3, r3
 11203 3d12 1A46     		mov	r2, r3
 11204 3d14 1F4B     		ldr	r3, .L761
 11205 3d16 1344     		add	r3, r3, r2
 11206 3d18 93F82330 		ldrb	r3, [r3, #35]	@ zero_extendqisi2
 11207 3d1c 1B09     		lsrs	r3, r3, #4
 11208 3d1e 87F82E30 		strb	r3, [r7, #46]
2373:.\main.c      **** 				    if((x%2)==0){
 11209              		.loc 1 2373 0
 11210 3d22 97F82F30 		ldrb	r3, [r7, #47]
 11211 3d26 03F00103 		and	r3, r3, #1
 11212 3d2a DBB2     		uxtb	r3, r3
 11213 3d2c 002B     		cmp	r3, #0
 11214 3d2e 0CD1     		bne	.L569
2374:.\main.c      **** 					    y=rventa2.id[x/2]&0x0F;
 11215              		.loc 1 2374 0
 11216 3d30 97F82F30 		ldrb	r3, [r7, #47]	@ zero_extendqisi2
 11217 3d34 5B08     		lsrs	r3, r3, #1
 11218 3d36 DBB2     		uxtb	r3, r3
 11219 3d38 1A46     		mov	r2, r3
 11220 3d3a 164B     		ldr	r3, .L761
 11221 3d3c 1344     		add	r3, r3, r2
 11222 3d3e 93F82330 		ldrb	r3, [r3, #35]	@ zero_extendqisi2
 11223 3d42 03F00F03 		and	r3, r3, #15
 11224 3d46 87F82E30 		strb	r3, [r7, #46]
 11225              	.L569:
2375:.\main.c      **** 				    }
2376:.\main.c      **** 				    rf_mod[x+29] = y+48;
 11226              		.loc 1 2376 0
 11227 3d4a 97F82F30 		ldrb	r3, [r7, #47]	@ zero_extendqisi2
 11228 3d4e 1D33     		adds	r3, r3, #29
 11229 3d50 97F82E20 		ldrb	r2, [r7, #46]
 11230 3d54 3032     		adds	r2, r2, #48
 11231 3d56 D1B2     		uxtb	r1, r2
 11232 3d58 0F4A     		ldr	r2, .L761+4
 11233 3d5a D154     		strb	r1, [r2, r3]
2377:.\main.c      **** 				    if(y>9){
 11234              		.loc 1 2377 0
 11235 3d5c 97F82E30 		ldrb	r3, [r7, #46]	@ zero_extendqisi2
 11236 3d60 092B     		cmp	r3, #9
 11237 3d62 08D9     		bls	.L570
2378:.\main.c      **** 					    rf_mod[x+29] = y+55;
 11238              		.loc 1 2378 0
 11239 3d64 97F82F30 		ldrb	r3, [r7, #47]	@ zero_extendqisi2
 11240 3d68 1D33     		adds	r3, r3, #29
 11241 3d6a 97F82E20 		ldrb	r2, [r7, #46]
ARM GAS  C:\Users\RECEPC~1\AppData\Local\Temp\cc8qeTl3.s 			page 244


 11242 3d6e 3732     		adds	r2, r2, #55
 11243 3d70 D1B2     		uxtb	r1, r2
 11244 3d72 094A     		ldr	r2, .L761+4
 11245 3d74 D154     		strb	r1, [r2, r3]
 11246              	.L570:
2371:.\main.c      **** 				    y=(rventa2.id[x/2]>>4)&0x0F;
 11247              		.loc 1 2371 0 discriminator 2
 11248 3d76 97F82F30 		ldrb	r3, [r7, #47]	@ zero_extendqisi2
 11249 3d7a 0133     		adds	r3, r3, #1
 11250 3d7c 87F82F30 		strb	r3, [r7, #47]
 11251              	.L568:
2371:.\main.c      **** 				    y=(rventa2.id[x/2]>>4)&0x0F;
 11252              		.loc 1 2371 0 is_stmt 0 discriminator 1
 11253 3d80 97F82F30 		ldrb	r3, [r7, #47]	@ zero_extendqisi2
 11254 3d84 0F2B     		cmp	r3, #15
 11255 3d86 C0D9     		bls	.L571
 11256 3d88 4DE0     		b	.L572
 11257              	.L567:
2379:.\main.c      **** 				    }
2380:.\main.c      **** 			    }
2381:.\main.c      ****             }else{
2382:.\main.c      ****                 for(x=0;x<=15;x++){						//Serial				
 11258              		.loc 1 2382 0 is_stmt 1
 11259 3d8a 0023     		movs	r3, #0
 11260 3d8c 87F82F30 		strb	r3, [r7, #47]
 11261 3d90 45E0     		b	.L573
 11262              	.L762:
 11263 3d92 00BF     		.align	2
 11264              	.L761:
 11265 3d94 00000000 		.word	rventa2
 11266 3d98 00000000 		.word	rf_mod
 11267 3d9c 00000000 		.word	ppux10
 11268 3da0 00000000 		.word	id_estacion
 11269 3da4 00000000 		.word	tipo_venta
 11270              	.L576:
2383:.\main.c      **** 				    y=(rventa2.id[x/2]>>4)&0x0F;
 11271              		.loc 1 2383 0
 11272 3da8 97F82F30 		ldrb	r3, [r7, #47]	@ zero_extendqisi2
 11273 3dac 5B08     		lsrs	r3, r3, #1
 11274 3dae DBB2     		uxtb	r3, r3
 11275 3db0 1A46     		mov	r2, r3
 11276 3db2 B04B     		ldr	r3, .L763
 11277 3db4 1344     		add	r3, r3, r2
 11278 3db6 93F82330 		ldrb	r3, [r3, #35]	@ zero_extendqisi2
 11279 3dba 1B09     		lsrs	r3, r3, #4
 11280 3dbc 87F82E30 		strb	r3, [r7, #46]
2384:.\main.c      **** 				    if((x%2)==0){
 11281              		.loc 1 2384 0
 11282 3dc0 97F82F30 		ldrb	r3, [r7, #47]
 11283 3dc4 03F00103 		and	r3, r3, #1
 11284 3dc8 DBB2     		uxtb	r3, r3
 11285 3dca 002B     		cmp	r3, #0
 11286 3dcc 0CD1     		bne	.L574
2385:.\main.c      **** 					    y=rventa2.id[x/2]&0x0F;
 11287              		.loc 1 2385 0
 11288 3dce 97F82F30 		ldrb	r3, [r7, #47]	@ zero_extendqisi2
 11289 3dd2 5B08     		lsrs	r3, r3, #1
ARM GAS  C:\Users\RECEPC~1\AppData\Local\Temp\cc8qeTl3.s 			page 245


 11290 3dd4 DBB2     		uxtb	r3, r3
 11291 3dd6 1A46     		mov	r2, r3
 11292 3dd8 A64B     		ldr	r3, .L763
 11293 3dda 1344     		add	r3, r3, r2
 11294 3ddc 93F82330 		ldrb	r3, [r3, #35]	@ zero_extendqisi2
 11295 3de0 03F00F03 		and	r3, r3, #15
 11296 3de4 87F82E30 		strb	r3, [r7, #46]
 11297              	.L574:
2386:.\main.c      **** 				    }
2387:.\main.c      **** 				    rf_mod[x+29] = y+48;
 11298              		.loc 1 2387 0
 11299 3de8 97F82F30 		ldrb	r3, [r7, #47]	@ zero_extendqisi2
 11300 3dec 1D33     		adds	r3, r3, #29
 11301 3dee 97F82E20 		ldrb	r2, [r7, #46]
 11302 3df2 3032     		adds	r2, r2, #48
 11303 3df4 D1B2     		uxtb	r1, r2
 11304 3df6 A04A     		ldr	r2, .L763+4
 11305 3df8 D154     		strb	r1, [r2, r3]
2388:.\main.c      **** 				    if(y>9){
 11306              		.loc 1 2388 0
 11307 3dfa 97F82E30 		ldrb	r3, [r7, #46]	@ zero_extendqisi2
 11308 3dfe 092B     		cmp	r3, #9
 11309 3e00 08D9     		bls	.L575
2389:.\main.c      **** 					    rf_mod[x+29] = y+55;
 11310              		.loc 1 2389 0
 11311 3e02 97F82F30 		ldrb	r3, [r7, #47]	@ zero_extendqisi2
 11312 3e06 1D33     		adds	r3, r3, #29
 11313 3e08 97F82E20 		ldrb	r2, [r7, #46]
 11314 3e0c 3732     		adds	r2, r2, #55
 11315 3e0e D1B2     		uxtb	r1, r2
 11316 3e10 994A     		ldr	r2, .L763+4
 11317 3e12 D154     		strb	r1, [r2, r3]
 11318              	.L575:
2382:.\main.c      **** 				    y=(rventa2.id[x/2]>>4)&0x0F;
 11319              		.loc 1 2382 0 discriminator 2
 11320 3e14 97F82F30 		ldrb	r3, [r7, #47]	@ zero_extendqisi2
 11321 3e18 0133     		adds	r3, r3, #1
 11322 3e1a 87F82F30 		strb	r3, [r7, #47]
 11323              	.L573:
2382:.\main.c      **** 				    y=(rventa2.id[x/2]>>4)&0x0F;
 11324              		.loc 1 2382 0 is_stmt 0 discriminator 1
 11325 3e1e 97F82F30 		ldrb	r3, [r7, #47]	@ zero_extendqisi2
 11326 3e22 0F2B     		cmp	r3, #15
 11327 3e24 C0D9     		bls	.L576
 11328              	.L572:
2390:.\main.c      **** 				    }
2391:.\main.c      **** 			    }               
2392:.\main.c      ****             }
2393:.\main.c      **** 			num_decimal2++;
 11329              		.loc 1 2393 0 is_stmt 1
 11330 3e26 954B     		ldr	r3, .L763+8
 11331 3e28 1B88     		ldrh	r3, [r3]
 11332 3e2a 0133     		adds	r3, r3, #1
 11333 3e2c 9AB2     		uxth	r2, r3
 11334 3e2e 934B     		ldr	r3, .L763+8
 11335 3e30 1A80     		strh	r2, [r3]	@ movhi
2394:.\main.c      **** 			id_venta[4]=(num_decimal2/1000)+48;
ARM GAS  C:\Users\RECEPC~1\AppData\Local\Temp\cc8qeTl3.s 			page 246


 11336              		.loc 1 2394 0
 11337 3e32 924B     		ldr	r3, .L763+8
 11338 3e34 1B88     		ldrh	r3, [r3]
 11339 3e36 924A     		ldr	r2, .L763+12
 11340 3e38 A2FB0323 		umull	r2, r3, r2, r3
 11341 3e3c 9B09     		lsrs	r3, r3, #6
 11342 3e3e 9BB2     		uxth	r3, r3
 11343 3e40 DBB2     		uxtb	r3, r3
 11344 3e42 3033     		adds	r3, r3, #48
 11345 3e44 DAB2     		uxtb	r2, r3
 11346 3e46 8F4B     		ldr	r3, .L763+16
 11347 3e48 1A71     		strb	r2, [r3, #4]
2395:.\main.c      **** 			id_venta[3]=((num_decimal2%1000)/100)+48;
 11348              		.loc 1 2395 0
 11349 3e4a 8C4B     		ldr	r3, .L763+8
 11350 3e4c 1B88     		ldrh	r3, [r3]
 11351 3e4e 8C4A     		ldr	r2, .L763+12
 11352 3e50 A2FB0312 		umull	r1, r2, r2, r3
 11353 3e54 9209     		lsrs	r2, r2, #6
 11354 3e56 4FF47A71 		mov	r1, #1000
 11355 3e5a 01FB02F2 		mul	r2, r1, r2
 11356 3e5e 9B1A     		subs	r3, r3, r2
 11357 3e60 9BB2     		uxth	r3, r3
 11358 3e62 894A     		ldr	r2, .L763+20
 11359 3e64 A2FB0323 		umull	r2, r3, r2, r3
 11360 3e68 5B09     		lsrs	r3, r3, #5
 11361 3e6a 9BB2     		uxth	r3, r3
 11362 3e6c DBB2     		uxtb	r3, r3
 11363 3e6e 3033     		adds	r3, r3, #48
 11364 3e70 DAB2     		uxtb	r2, r3
 11365 3e72 844B     		ldr	r3, .L763+16
 11366 3e74 DA70     		strb	r2, [r3, #3]
2396:.\main.c      **** 			id_venta[2]=(((num_decimal2%1000)%100)/10)+48;
 11367              		.loc 1 2396 0
 11368 3e76 814B     		ldr	r3, .L763+8
 11369 3e78 1B88     		ldrh	r3, [r3]
 11370 3e7a 814A     		ldr	r2, .L763+12
 11371 3e7c A2FB0312 		umull	r1, r2, r2, r3
 11372 3e80 9209     		lsrs	r2, r2, #6
 11373 3e82 4FF47A71 		mov	r1, #1000
 11374 3e86 01FB02F2 		mul	r2, r1, r2
 11375 3e8a 9B1A     		subs	r3, r3, r2
 11376 3e8c 9BB2     		uxth	r3, r3
 11377 3e8e 7E4A     		ldr	r2, .L763+20
 11378 3e90 A2FB0312 		umull	r1, r2, r2, r3
 11379 3e94 5209     		lsrs	r2, r2, #5
 11380 3e96 6421     		movs	r1, #100
 11381 3e98 01FB02F2 		mul	r2, r1, r2
 11382 3e9c 9B1A     		subs	r3, r3, r2
 11383 3e9e 9BB2     		uxth	r3, r3
 11384 3ea0 7A4A     		ldr	r2, .L763+24
 11385 3ea2 A2FB0323 		umull	r2, r3, r2, r3
 11386 3ea6 DB08     		lsrs	r3, r3, #3
 11387 3ea8 9BB2     		uxth	r3, r3
 11388 3eaa DBB2     		uxtb	r3, r3
 11389 3eac 3033     		adds	r3, r3, #48
 11390 3eae DAB2     		uxtb	r2, r3
ARM GAS  C:\Users\RECEPC~1\AppData\Local\Temp\cc8qeTl3.s 			page 247


 11391 3eb0 744B     		ldr	r3, .L763+16
 11392 3eb2 9A70     		strb	r2, [r3, #2]
2397:.\main.c      **** 			id_venta[1]=(((num_decimal2%1000)%100)%10)+48; 
 11393              		.loc 1 2397 0
 11394 3eb4 714B     		ldr	r3, .L763+8
 11395 3eb6 1B88     		ldrh	r3, [r3]
 11396 3eb8 714A     		ldr	r2, .L763+12
 11397 3eba A2FB0312 		umull	r1, r2, r2, r3
 11398 3ebe 9209     		lsrs	r2, r2, #6
 11399 3ec0 4FF47A71 		mov	r1, #1000
 11400 3ec4 01FB02F2 		mul	r2, r1, r2
 11401 3ec8 9B1A     		subs	r3, r3, r2
 11402 3eca 9BB2     		uxth	r3, r3
 11403 3ecc 6E4A     		ldr	r2, .L763+20
 11404 3ece A2FB0312 		umull	r1, r2, r2, r3
 11405 3ed2 5209     		lsrs	r2, r2, #5
 11406 3ed4 6421     		movs	r1, #100
 11407 3ed6 01FB02F2 		mul	r2, r1, r2
 11408 3eda 9B1A     		subs	r3, r3, r2
 11409 3edc 9AB2     		uxth	r2, r3
 11410 3ede 6B4B     		ldr	r3, .L763+24
 11411 3ee0 A3FB0213 		umull	r1, r3, r3, r2
 11412 3ee4 D908     		lsrs	r1, r3, #3
 11413 3ee6 0B46     		mov	r3, r1
 11414 3ee8 9B00     		lsls	r3, r3, #2
 11415 3eea 0B44     		add	r3, r3, r1
 11416 3eec 5B00     		lsls	r3, r3, #1
 11417 3eee D31A     		subs	r3, r2, r3
 11418 3ef0 9BB2     		uxth	r3, r3
 11419 3ef2 DBB2     		uxtb	r3, r3
 11420 3ef4 3033     		adds	r3, r3, #48
 11421 3ef6 DAB2     		uxtb	r2, r3
 11422 3ef8 624B     		ldr	r3, .L763+16
 11423 3efa 5A70     		strb	r2, [r3, #1]
2398:.\main.c      **** 			for(x=1;x<=7;x++){						//Id de Venta
 11424              		.loc 1 2398 0
 11425 3efc 0123     		movs	r3, #1
 11426 3efe 87F82F30 		strb	r3, [r7, #47]
 11427 3f02 0EE0     		b	.L577
 11428              	.L578:
2399:.\main.c      **** 				rf_mod[44+x]=id_venta[x];
 11429              		.loc 1 2399 0 discriminator 3
 11430 3f04 97F82F30 		ldrb	r3, [r7, #47]	@ zero_extendqisi2
 11431 3f08 2C33     		adds	r3, r3, #44
 11432 3f0a 97F82F20 		ldrb	r2, [r7, #47]	@ zero_extendqisi2
 11433 3f0e 5D49     		ldr	r1, .L763+16
 11434 3f10 8A5C     		ldrb	r2, [r1, r2]
 11435 3f12 D1B2     		uxtb	r1, r2
 11436 3f14 584A     		ldr	r2, .L763+4
 11437 3f16 D154     		strb	r1, [r2, r3]
2398:.\main.c      **** 			for(x=1;x<=7;x++){						//Id de Venta
 11438              		.loc 1 2398 0 discriminator 3
 11439 3f18 97F82F30 		ldrb	r3, [r7, #47]	@ zero_extendqisi2
 11440 3f1c 0133     		adds	r3, r3, #1
 11441 3f1e 87F82F30 		strb	r3, [r7, #47]
 11442              	.L577:
2398:.\main.c      **** 			for(x=1;x<=7;x++){						//Id de Venta
ARM GAS  C:\Users\RECEPC~1\AppData\Local\Temp\cc8qeTl3.s 			page 248


 11443              		.loc 1 2398 0 is_stmt 0 discriminator 1
 11444 3f22 97F82F30 		ldrb	r3, [r7, #47]	@ zero_extendqisi2
 11445 3f26 072B     		cmp	r3, #7
 11446 3f28 ECD9     		bls	.L578
2400:.\main.c      **** 			}
2401:.\main.c      **** 			for(x=1;x<=4;x++){						//Guarda Id venta
 11447              		.loc 1 2401 0 is_stmt 1
 11448 3f2a 0123     		movs	r3, #1
 11449 3f2c 87F82F30 		strb	r3, [r7, #47]
 11450 3f30 10E0     		b	.L579
 11451              	.L580:
2402:.\main.c      **** 				EEPROM_WriteByte(id_venta[x],x);
 11452              		.loc 1 2402 0 discriminator 3
 11453 3f32 97F82F30 		ldrb	r3, [r7, #47]	@ zero_extendqisi2
 11454 3f36 534A     		ldr	r2, .L763+16
 11455 3f38 D35C     		ldrb	r3, [r2, r3]
 11456 3f3a DAB2     		uxtb	r2, r3
 11457 3f3c 97F82F30 		ldrb	r3, [r7, #47]	@ zero_extendqisi2
 11458 3f40 9BB2     		uxth	r3, r3
 11459 3f42 1046     		mov	r0, r2
 11460 3f44 1946     		mov	r1, r3
 11461 3f46 FFF7FEFF 		bl	EEPROM_WriteByte
2401:.\main.c      **** 				EEPROM_WriteByte(id_venta[x],x);
 11462              		.loc 1 2401 0 discriminator 3
 11463 3f4a 97F82F30 		ldrb	r3, [r7, #47]	@ zero_extendqisi2
 11464 3f4e 0133     		adds	r3, r3, #1
 11465 3f50 87F82F30 		strb	r3, [r7, #47]
 11466              	.L579:
2401:.\main.c      **** 				EEPROM_WriteByte(id_venta[x],x);
 11467              		.loc 1 2401 0 is_stmt 0 discriminator 1
 11468 3f54 97F82F30 		ldrb	r3, [r7, #47]	@ zero_extendqisi2
 11469 3f58 042B     		cmp	r3, #4
 11470 3f5a EAD9     		bls	.L580
2403:.\main.c      **** 			}
2404:.\main.c      **** 			for(x=0;x<=6;x++){						//Km
 11471              		.loc 1 2404 0 is_stmt 1
 11472 3f5c 0023     		movs	r3, #0
 11473 3f5e 87F82F30 		strb	r3, [r7, #47]
 11474 3f62 12E0     		b	.L581
 11475              	.L582:
2405:.\main.c      **** 				rf_mod[52+x]=rventa2.km[x+1] + 48;
 11476              		.loc 1 2405 0 discriminator 3
 11477 3f64 97F82F30 		ldrb	r3, [r7, #47]	@ zero_extendqisi2
 11478 3f68 3433     		adds	r3, r3, #52
 11479 3f6a 97F82F20 		ldrb	r2, [r7, #47]	@ zero_extendqisi2
 11480 3f6e 0132     		adds	r2, r2, #1
 11481 3f70 4049     		ldr	r1, .L763
 11482 3f72 0A44     		add	r2, r2, r1
 11483 3f74 92F84320 		ldrb	r2, [r2, #67]	@ zero_extendqisi2
 11484 3f78 3032     		adds	r2, r2, #48
 11485 3f7a D1B2     		uxtb	r1, r2
 11486 3f7c 3E4A     		ldr	r2, .L763+4
 11487 3f7e D154     		strb	r1, [r2, r3]
2404:.\main.c      **** 				rf_mod[52+x]=rventa2.km[x+1] + 48;
 11488              		.loc 1 2404 0 discriminator 3
 11489 3f80 97F82F30 		ldrb	r3, [r7, #47]	@ zero_extendqisi2
 11490 3f84 0133     		adds	r3, r3, #1
ARM GAS  C:\Users\RECEPC~1\AppData\Local\Temp\cc8qeTl3.s 			page 249


 11491 3f86 87F82F30 		strb	r3, [r7, #47]
 11492              	.L581:
2404:.\main.c      **** 				rf_mod[52+x]=rventa2.km[x+1] + 48;
 11493              		.loc 1 2404 0 is_stmt 0 discriminator 1
 11494 3f8a 97F82F30 		ldrb	r3, [r7, #47]	@ zero_extendqisi2
 11495 3f8e 062B     		cmp	r3, #6
 11496 3f90 E8D9     		bls	.L582
2406:.\main.c      **** 			}				
2407:.\main.c      **** 			rf_mod[59]='*';
 11497              		.loc 1 2407 0 is_stmt 1
 11498 3f92 394B     		ldr	r3, .L763+4
 11499 3f94 2A22     		movs	r2, #42
 11500 3f96 83F83B20 		strb	r2, [r3, #59]
2408:.\main.c      **** 			PC_ClearRxBuffer();				
 11501              		.loc 1 2408 0
 11502 3f9a FFF7FEFF 		bl	PC_ClearRxBuffer
2409:.\main.c      **** 		    for(x=0;x<=59;x++){
 11503              		.loc 1 2409 0
 11504 3f9e 0023     		movs	r3, #0
 11505 3fa0 87F82F30 		strb	r3, [r7, #47]
 11506 3fa4 0BE0     		b	.L583
 11507              	.L584:
2410:.\main.c      **** 			   PC_PutChar(rf_mod[x]);
 11508              		.loc 1 2410 0 discriminator 3
 11509 3fa6 97F82F30 		ldrb	r3, [r7, #47]	@ zero_extendqisi2
 11510 3faa 334A     		ldr	r2, .L763+4
 11511 3fac D35C     		ldrb	r3, [r2, r3]	@ zero_extendqisi2
 11512 3fae 1846     		mov	r0, r3
 11513 3fb0 FFF7FEFF 		bl	PC_PutChar
2409:.\main.c      **** 		    for(x=0;x<=59;x++){
 11514              		.loc 1 2409 0 discriminator 3
 11515 3fb4 97F82F30 		ldrb	r3, [r7, #47]	@ zero_extendqisi2
 11516 3fb8 0133     		adds	r3, r3, #1
 11517 3fba 87F82F30 		strb	r3, [r7, #47]
 11518              	.L583:
2409:.\main.c      **** 		    for(x=0;x<=59;x++){
 11519              		.loc 1 2409 0 is_stmt 0 discriminator 1
 11520 3fbe 97F82F30 		ldrb	r3, [r7, #47]	@ zero_extendqisi2
 11521 3fc2 3B2B     		cmp	r3, #59
 11522 3fc4 EFD9     		bls	.L584
2411:.\main.c      **** 		    }            
2412:.\main.c      ****             PC_ClearRxBuffer();
 11523              		.loc 1 2412 0 is_stmt 1
 11524 3fc6 FFF7FEFF 		bl	PC_ClearRxBuffer
2413:.\main.c      **** 			CyDelay(300);
 11525              		.loc 1 2413 0
 11526 3fca 4FF49670 		mov	r0, #300
 11527 3fce FFF7FEFF 		bl	CyDelay
2414:.\main.c      ****             PC_ClearTxBuffer();				
 11528              		.loc 1 2414 0
 11529 3fd2 FFF7FEFF 		bl	PC_ClearTxBuffer
2415:.\main.c      ****             estado_tanqueando=0;				
 11530              		.loc 1 2415 0
 11531 3fd6 2E4B     		ldr	r3, .L763+28
 11532 3fd8 0022     		movs	r2, #0
 11533 3fda 1A70     		strb	r2, [r3]
2416:.\main.c      **** 			precio[0]=lado1.ppu[rventa2.producto-1][0];
ARM GAS  C:\Users\RECEPC~1\AppData\Local\Temp\cc8qeTl3.s 			page 250


 11534              		.loc 1 2416 0
 11535 3fdc 254B     		ldr	r3, .L763
 11536 3fde 5B7E     		ldrb	r3, [r3, #25]	@ zero_extendqisi2
 11537 3fe0 5A1E     		subs	r2, r3, #1
 11538 3fe2 2C49     		ldr	r1, .L763+32
 11539 3fe4 1346     		mov	r3, r2
 11540 3fe6 9B00     		lsls	r3, r3, #2
 11541 3fe8 1344     		add	r3, r3, r2
 11542 3fea 0B44     		add	r3, r3, r1
 11543 3fec 4833     		adds	r3, r3, #72
 11544 3fee 9B78     		ldrb	r3, [r3, #2]
 11545 3ff0 DBB2     		uxtb	r3, r3
 11546 3ff2 3B73     		strb	r3, [r7, #12]
2417:.\main.c      **** 			precio[1]=lado1.ppu[rventa2.producto-1][1];
 11547              		.loc 1 2417 0
 11548 3ff4 1F4B     		ldr	r3, .L763
 11549 3ff6 5B7E     		ldrb	r3, [r3, #25]	@ zero_extendqisi2
 11550 3ff8 5A1E     		subs	r2, r3, #1
 11551 3ffa 2649     		ldr	r1, .L763+32
 11552 3ffc 1346     		mov	r3, r2
 11553 3ffe 9B00     		lsls	r3, r3, #2
 11554 4000 1344     		add	r3, r3, r2
 11555 4002 0B44     		add	r3, r3, r1
 11556 4004 4933     		adds	r3, r3, #73
 11557 4006 9B78     		ldrb	r3, [r3, #2]
 11558 4008 DBB2     		uxtb	r3, r3
 11559 400a 7B73     		strb	r3, [r7, #13]
2418:.\main.c      **** 			precio[2]=lado1.ppu[rventa2.producto-1][2];
 11560              		.loc 1 2418 0
 11561 400c 194B     		ldr	r3, .L763
 11562 400e 5B7E     		ldrb	r3, [r3, #25]	@ zero_extendqisi2
 11563 4010 5A1E     		subs	r2, r3, #1
 11564 4012 2049     		ldr	r1, .L763+32
 11565 4014 1346     		mov	r3, r2
 11566 4016 9B00     		lsls	r3, r3, #2
 11567 4018 1344     		add	r3, r3, r2
 11568 401a 0B44     		add	r3, r3, r1
 11569 401c 4A33     		adds	r3, r3, #74
 11570 401e 9B78     		ldrb	r3, [r3, #2]
 11571 4020 DBB2     		uxtb	r3, r3
 11572 4022 BB73     		strb	r3, [r7, #14]
2419:.\main.c      **** 			precio[3]=lado1.ppu[rventa2.producto-1][3];
 11573              		.loc 1 2419 0
 11574 4024 134B     		ldr	r3, .L763
 11575 4026 5B7E     		ldrb	r3, [r3, #25]	@ zero_extendqisi2
 11576 4028 5A1E     		subs	r2, r3, #1
 11577 402a 1A49     		ldr	r1, .L763+32
 11578 402c 1346     		mov	r3, r2
 11579 402e 9B00     		lsls	r3, r3, #2
 11580 4030 1344     		add	r3, r3, r2
 11581 4032 0B44     		add	r3, r3, r1
 11582 4034 4B33     		adds	r3, r3, #75
 11583 4036 9B78     		ldrb	r3, [r3, #2]
 11584 4038 DBB2     		uxtb	r3, r3
 11585 403a FB73     		strb	r3, [r7, #15]
2420:.\main.c      **** 			precio[4]=lado1.ppu[rventa2.producto-1][4];
 11586              		.loc 1 2420 0
ARM GAS  C:\Users\RECEPC~1\AppData\Local\Temp\cc8qeTl3.s 			page 251


 11587 403c 0D4B     		ldr	r3, .L763
 11588 403e 5B7E     		ldrb	r3, [r3, #25]	@ zero_extendqisi2
 11589 4040 5A1E     		subs	r2, r3, #1
 11590 4042 1449     		ldr	r1, .L763+32
 11591 4044 1346     		mov	r3, r2
 11592 4046 9B00     		lsls	r3, r3, #2
 11593 4048 1344     		add	r3, r3, r2
 11594 404a 0B44     		add	r3, r3, r1
 11595 404c 4C33     		adds	r3, r3, #76
 11596 404e 9B78     		ldrb	r3, [r3, #2]
 11597 4050 DBB2     		uxtb	r3, r3
 11598 4052 3B74     		strb	r3, [r7, #16]
2421:.\main.c      **** 			cambiar_precio(lado2.dir,precio,rventa2.producto);
 11599              		.loc 1 2421 0
 11600 4054 104B     		ldr	r3, .L763+36
 11601 4056 1B78     		ldrb	r3, [r3]
 11602 4058 D9B2     		uxtb	r1, r3
 11603 405a 064B     		ldr	r3, .L763
 11604 405c 5B7E     		ldrb	r3, [r3, #25]	@ zero_extendqisi2
 11605 405e 07F10C02 		add	r2, r7, #12
 11606 4062 0846     		mov	r0, r1
 11607 4064 1146     		mov	r1, r2
 11608 4066 1A46     		mov	r2, r3
 11609 4068 FFF7FEFF 		bl	cambiar_precio
2422:.\main.c      ****         }
2423:.\main.c      ****   
2424:.\main.c      **** 		break;
 11610              		.loc 1 2424 0
 11611 406c 00F0FEBF 		b	.L131
 11612              	.L562:
 11613              		.loc 1 2424 0 is_stmt 0 discriminator 14
 11614 4070 00F0FCBF 		b	.L131
 11615              	.L764:
 11616              		.align	2
 11617              	.L763:
 11618 4074 00000000 		.word	rventa2
 11619 4078 00000000 		.word	rf_mod
 11620 407c 00000000 		.word	num_decimal2
 11621 4080 D34D6210 		.word	274877907
 11622 4084 00000000 		.word	id_venta
 11623 4088 1F85EB51 		.word	1374389535
 11624 408c CDCCCCCC 		.word	-858993459
 11625 4090 00000000 		.word	estado_tanqueando
 11626 4094 00000000 		.word	lado1
 11627 4098 00000000 		.word	lado2
 11628              	.L146:
2425:.\main.c      ****          
2426:.\main.c      ****         case 14:
2427:.\main.c      **** 	        if(LCD_1_GetRxBufferSize()==8){
 11629              		.loc 1 2427 0 is_stmt 1
 11630 409c FFF7FEFF 		bl	LCD_1_GetRxBufferSize
 11631 40a0 0346     		mov	r3, r0
 11632 40a2 082B     		cmp	r3, #8
 11633 40a4 40F00B81 		bne	.L585
2428:.\main.c      **** 	            if((LCD_1_rxBuffer[0]==0xAA) && (LCD_1_rxBuffer[6]==0xC3) && (LCD_1_rxBuffer[7]==0x3C)
 11634              		.loc 1 2428 0
 11635 40a8 A24B     		ldr	r3, .L765
ARM GAS  C:\Users\RECEPC~1\AppData\Local\Temp\cc8qeTl3.s 			page 252


 11636 40aa 1B78     		ldrb	r3, [r3]
 11637 40ac DBB2     		uxtb	r3, r3
 11638 40ae AA2B     		cmp	r3, #170
 11639 40b0 40F0FE80 		bne	.L586
 11640              		.loc 1 2428 0 is_stmt 0 discriminator 1
 11641 40b4 9F4B     		ldr	r3, .L765
 11642 40b6 9B79     		ldrb	r3, [r3, #6]
 11643 40b8 DBB2     		uxtb	r3, r3
 11644 40ba C32B     		cmp	r3, #195
 11645 40bc 40F0F880 		bne	.L586
 11646              		.loc 1 2428 0 discriminator 2
 11647 40c0 9C4B     		ldr	r3, .L765
 11648 40c2 DB79     		ldrb	r3, [r3, #7]
 11649 40c4 DBB2     		uxtb	r3, r3
 11650 40c6 3C2B     		cmp	r3, #60
 11651 40c8 40F0F280 		bne	.L586
2429:.\main.c      **** 	                if(count_teclas1<teclas1){
 11652              		.loc 1 2429 0 is_stmt 1
 11653 40cc 9A4B     		ldr	r3, .L765+4
 11654 40ce 1B78     		ldrb	r3, [r3]
 11655 40d0 DAB2     		uxtb	r2, r3
 11656 40d2 9A4B     		ldr	r3, .L765+8
 11657 40d4 1B78     		ldrb	r3, [r3]
 11658 40d6 DBB2     		uxtb	r3, r3
 11659 40d8 9A42     		cmp	r2, r3
 11660 40da 6CD2     		bcs	.L587
2430:.\main.c      **** 	                    if(LCD_1_rxBuffer[3]<=9){
 11661              		.loc 1 2430 0
 11662 40dc 954B     		ldr	r3, .L765
 11663 40de DB78     		ldrb	r3, [r3, #3]
 11664 40e0 DBB2     		uxtb	r3, r3
 11665 40e2 092B     		cmp	r3, #9
 11666 40e4 33D8     		bhi	.L588
2431:.\main.c      **** 	                        rventa1.password[count_teclas1+1]=LCD_1_rxBuffer[3]+0x30;
 11667              		.loc 1 2431 0
 11668 40e6 944B     		ldr	r3, .L765+4
 11669 40e8 1B78     		ldrb	r3, [r3]
 11670 40ea DBB2     		uxtb	r3, r3
 11671 40ec 0133     		adds	r3, r3, #1
 11672 40ee 914A     		ldr	r2, .L765
 11673 40f0 D278     		ldrb	r2, [r2, #3]
 11674 40f2 D2B2     		uxtb	r2, r2
 11675 40f4 3032     		adds	r2, r2, #48
 11676 40f6 D1B2     		uxtb	r1, r2
 11677 40f8 914A     		ldr	r2, .L765+12
 11678 40fa 1344     		add	r3, r3, r2
 11679 40fc 0A46     		mov	r2, r1
 11680 40fe 83F86420 		strb	r2, [r3, #100]
2432:.\main.c      **** 	                        write_LCD(1,'*', posy1, ((count_teclas1*(sizeletra1+1))+posx1), sizeletra1
 11681              		.loc 1 2432 0
 11682 4102 904B     		ldr	r3, .L765+16
 11683 4104 1B88     		ldrh	r3, [r3]	@ movhi
 11684 4106 9DB2     		uxth	r5, r3
 11685 4108 8B4B     		ldr	r3, .L765+4
 11686 410a 1B78     		ldrb	r3, [r3]
 11687 410c DBB2     		uxtb	r3, r3
 11688 410e 9BB2     		uxth	r3, r3
ARM GAS  C:\Users\RECEPC~1\AppData\Local\Temp\cc8qeTl3.s 			page 253


 11689 4110 8D4A     		ldr	r2, .L765+20
 11690 4112 1288     		ldrh	r2, [r2]	@ movhi
 11691 4114 92B2     		uxth	r2, r2
 11692 4116 0132     		adds	r2, r2, #1
 11693 4118 92B2     		uxth	r2, r2
 11694 411a 02FB03F3 		mul	r3, r2, r3
 11695 411e 9AB2     		uxth	r2, r3
 11696 4120 8A4B     		ldr	r3, .L765+24
 11697 4122 1B88     		ldrh	r3, [r3]	@ movhi
 11698 4124 9BB2     		uxth	r3, r3
 11699 4126 1344     		add	r3, r3, r2
 11700 4128 9CB2     		uxth	r4, r3
 11701 412a 874B     		ldr	r3, .L765+20
 11702 412c 1B88     		ldrh	r3, [r3]	@ movhi
 11703 412e 9BB2     		uxth	r3, r3
 11704 4130 DBB2     		uxtb	r3, r3
 11705 4132 0093     		str	r3, [sp]
 11706 4134 0120     		movs	r0, #1
 11707 4136 2A21     		movs	r1, #42
 11708 4138 2A46     		mov	r2, r5
 11709 413a 2346     		mov	r3, r4
 11710 413c FFF7FEFF 		bl	write_LCD
2433:.\main.c      **** 	                        count_teclas1++;                        
 11711              		.loc 1 2433 0
 11712 4140 7D4B     		ldr	r3, .L765+4
 11713 4142 1B78     		ldrb	r3, [r3]
 11714 4144 DBB2     		uxtb	r3, r3
 11715 4146 0133     		adds	r3, r3, #1
 11716 4148 DAB2     		uxtb	r2, r3
 11717 414a 7B4B     		ldr	r3, .L765+4
 11718 414c 1A70     		strb	r2, [r3]
 11719              	.L588:
2434:.\main.c      **** 	                    }
2435:.\main.c      **** 	                    if(LCD_1_rxBuffer[3]==0x0A){            //Comando de 0
 11720              		.loc 1 2435 0
 11721 414e 794B     		ldr	r3, .L765
 11722 4150 DB78     		ldrb	r3, [r3, #3]
 11723 4152 DBB2     		uxtb	r3, r3
 11724 4154 0A2B     		cmp	r3, #10
 11725 4156 2ED1     		bne	.L587
2436:.\main.c      **** 	                        rventa1.password[count_teclas1+1]=0x30;
 11726              		.loc 1 2436 0
 11727 4158 774B     		ldr	r3, .L765+4
 11728 415a 1B78     		ldrb	r3, [r3]
 11729 415c DBB2     		uxtb	r3, r3
 11730 415e 0133     		adds	r3, r3, #1
 11731 4160 774A     		ldr	r2, .L765+12
 11732 4162 1344     		add	r3, r3, r2
 11733 4164 3022     		movs	r2, #48
 11734 4166 83F86420 		strb	r2, [r3, #100]
2437:.\main.c      **** 	                        write_LCD(1,'*', posy1, ((count_teclas1*(sizeletra1+1))+posx1), sizeletra1
 11735              		.loc 1 2437 0
 11736 416a 764B     		ldr	r3, .L765+16
 11737 416c 1B88     		ldrh	r3, [r3]	@ movhi
 11738 416e 9DB2     		uxth	r5, r3
 11739 4170 714B     		ldr	r3, .L765+4
 11740 4172 1B78     		ldrb	r3, [r3]
ARM GAS  C:\Users\RECEPC~1\AppData\Local\Temp\cc8qeTl3.s 			page 254


 11741 4174 DBB2     		uxtb	r3, r3
 11742 4176 9BB2     		uxth	r3, r3
 11743 4178 734A     		ldr	r2, .L765+20
 11744 417a 1288     		ldrh	r2, [r2]	@ movhi
 11745 417c 92B2     		uxth	r2, r2
 11746 417e 0132     		adds	r2, r2, #1
 11747 4180 92B2     		uxth	r2, r2
 11748 4182 02FB03F3 		mul	r3, r2, r3
 11749 4186 9AB2     		uxth	r2, r3
 11750 4188 704B     		ldr	r3, .L765+24
 11751 418a 1B88     		ldrh	r3, [r3]	@ movhi
 11752 418c 9BB2     		uxth	r3, r3
 11753 418e 1344     		add	r3, r3, r2
 11754 4190 9CB2     		uxth	r4, r3
 11755 4192 6D4B     		ldr	r3, .L765+20
 11756 4194 1B88     		ldrh	r3, [r3]	@ movhi
 11757 4196 9BB2     		uxth	r3, r3
 11758 4198 DBB2     		uxtb	r3, r3
 11759 419a 0093     		str	r3, [sp]
 11760 419c 0120     		movs	r0, #1
 11761 419e 2A21     		movs	r1, #42
 11762 41a0 2A46     		mov	r2, r5
 11763 41a2 2346     		mov	r3, r4
 11764 41a4 FFF7FEFF 		bl	write_LCD
2438:.\main.c      **** 	                        count_teclas1++;                        
 11765              		.loc 1 2438 0
 11766 41a8 634B     		ldr	r3, .L765+4
 11767 41aa 1B78     		ldrb	r3, [r3]
 11768 41ac DBB2     		uxtb	r3, r3
 11769 41ae 0133     		adds	r3, r3, #1
 11770 41b0 DAB2     		uxtb	r2, r3
 11771 41b2 614B     		ldr	r3, .L765+4
 11772 41b4 1A70     		strb	r2, [r3]
 11773              	.L587:
2439:.\main.c      **** 	                    }                    
2440:.\main.c      **** 	                }
2441:.\main.c      **** 	                if(LCD_1_rxBuffer[3]==0x0B){                //Cancelar      
 11774              		.loc 1 2441 0
 11775 41b6 5F4B     		ldr	r3, .L765
 11776 41b8 DB78     		ldrb	r3, [r3, #3]
 11777 41ba DBB2     		uxtb	r3, r3
 11778 41bc 0B2B     		cmp	r3, #11
 11779 41be 2ED1     		bne	.L589
2442:.\main.c      **** 	                    if(teclas1==0){
 11780              		.loc 1 2442 0
 11781 41c0 5E4B     		ldr	r3, .L765+8
 11782 41c2 1B78     		ldrb	r3, [r3]
 11783 41c4 DBB2     		uxtb	r3, r3
 11784 41c6 002B     		cmp	r3, #0
 11785 41c8 03D1     		bne	.L590
2443:.\main.c      **** 	                        flujo_LCD1=0;
 11786              		.loc 1 2443 0
 11787 41ca 614B     		ldr	r3, .L765+28
 11788 41cc 0022     		movs	r2, #0
 11789 41ce 1A70     		strb	r2, [r3]
 11790 41d0 25E0     		b	.L589
 11791              	.L590:
ARM GAS  C:\Users\RECEPC~1\AppData\Local\Temp\cc8qeTl3.s 			page 255


2444:.\main.c      **** 	                    }
2445:.\main.c      **** 	                    else{
2446:.\main.c      **** 	                        count_teclas1--;                                        
 11792              		.loc 1 2446 0
 11793 41d2 594B     		ldr	r3, .L765+4
 11794 41d4 1B78     		ldrb	r3, [r3]
 11795 41d6 DBB2     		uxtb	r3, r3
 11796 41d8 013B     		subs	r3, r3, #1
 11797 41da DAB2     		uxtb	r2, r3
 11798 41dc 564B     		ldr	r3, .L765+4
 11799 41de 1A70     		strb	r2, [r3]
2447:.\main.c      **** 	                        write_LCD(1,0x20, posy1, ((count_teclas1*(sizeletra1+1))+posx1), sizeletra
 11800              		.loc 1 2447 0
 11801 41e0 584B     		ldr	r3, .L765+16
 11802 41e2 1B88     		ldrh	r3, [r3]	@ movhi
 11803 41e4 9DB2     		uxth	r5, r3
 11804 41e6 544B     		ldr	r3, .L765+4
 11805 41e8 1B78     		ldrb	r3, [r3]
 11806 41ea DBB2     		uxtb	r3, r3
 11807 41ec 9BB2     		uxth	r3, r3
 11808 41ee 564A     		ldr	r2, .L765+20
 11809 41f0 1288     		ldrh	r2, [r2]	@ movhi
 11810 41f2 92B2     		uxth	r2, r2
 11811 41f4 0132     		adds	r2, r2, #1
 11812 41f6 92B2     		uxth	r2, r2
 11813 41f8 02FB03F3 		mul	r3, r2, r3
 11814 41fc 9AB2     		uxth	r2, r3
 11815 41fe 534B     		ldr	r3, .L765+24
 11816 4200 1B88     		ldrh	r3, [r3]	@ movhi
 11817 4202 9BB2     		uxth	r3, r3
 11818 4204 1344     		add	r3, r3, r2
 11819 4206 9CB2     		uxth	r4, r3
 11820 4208 4F4B     		ldr	r3, .L765+20
 11821 420a 1B88     		ldrh	r3, [r3]	@ movhi
 11822 420c 9BB2     		uxth	r3, r3
 11823 420e DBB2     		uxtb	r3, r3
 11824 4210 0093     		str	r3, [sp]
 11825 4212 0120     		movs	r0, #1
 11826 4214 2021     		movs	r1, #32
 11827 4216 2A46     		mov	r2, r5
 11828 4218 2346     		mov	r3, r4
 11829 421a FFF7FEFF 		bl	write_LCD
 11830              	.L589:
2448:.\main.c      **** 	                    }
2449:.\main.c      **** 	                }
2450:.\main.c      **** 	                if(LCD_1_rxBuffer[3]==0x0C){                //Enter
 11831              		.loc 1 2450 0
 11832 421e 454B     		ldr	r3, .L765
 11833 4220 DB78     		ldrb	r3, [r3, #3]
 11834 4222 DBB2     		uxtb	r3, r3
 11835 4224 0C2B     		cmp	r3, #12
 11836 4226 43D1     		bne	.L586
2451:.\main.c      **** 	                    if(count_teclas1>=1){
 11837              		.loc 1 2451 0
 11838 4228 434B     		ldr	r3, .L765+4
 11839 422a 1B78     		ldrb	r3, [r3]
 11840 422c DBB2     		uxtb	r3, r3
ARM GAS  C:\Users\RECEPC~1\AppData\Local\Temp\cc8qeTl3.s 			page 256


 11841 422e 002B     		cmp	r3, #0
 11842 4230 3ED0     		beq	.L586
2452:.\main.c      **** 	                        rventa1.password[0]=count_teclas1;
 11843              		.loc 1 2452 0
 11844 4232 414B     		ldr	r3, .L765+4
 11845 4234 1B78     		ldrb	r3, [r3]
 11846 4236 DAB2     		uxtb	r2, r3
 11847 4238 414B     		ldr	r3, .L765+12
 11848 423a 83F86420 		strb	r2, [r3, #100]
2453:.\main.c      **** 							y=0;
 11849              		.loc 1 2453 0
 11850 423e 0023     		movs	r3, #0
 11851 4240 87F82E30 		strb	r3, [r7, #46]
2454:.\main.c      **** 							if(rventa1.password[0]==4){
 11852              		.loc 1 2454 0
 11853 4244 3E4B     		ldr	r3, .L765+12
 11854 4246 93F86430 		ldrb	r3, [r3, #100]	@ zero_extendqisi2
 11855 424a 042B     		cmp	r3, #4
 11856 424c 2DD1     		bne	.L591
2455:.\main.c      **** 								for(x=1;x<=4;x++){
 11857              		.loc 1 2455 0
 11858 424e 0123     		movs	r3, #1
 11859 4250 87F82F30 		strb	r3, [r7, #47]
 11860 4254 15E0     		b	.L592
 11861              	.L594:
2456:.\main.c      **** 									if(rventa1.password[x]==clave_config[x]){
 11862              		.loc 1 2456 0
 11863 4256 97F82F30 		ldrb	r3, [r7, #47]	@ zero_extendqisi2
 11864 425a 394A     		ldr	r2, .L765+12
 11865 425c 1344     		add	r3, r3, r2
 11866 425e 93F86420 		ldrb	r2, [r3, #100]	@ zero_extendqisi2
 11867 4262 97F82F30 		ldrb	r3, [r7, #47]	@ zero_extendqisi2
 11868 4266 3B49     		ldr	r1, .L765+32
 11869 4268 CB5C     		ldrb	r3, [r1, r3]	@ zero_extendqisi2
 11870 426a 9A42     		cmp	r2, r3
 11871 426c 04D1     		bne	.L593
2457:.\main.c      **** 										y++;
 11872              		.loc 1 2457 0
 11873 426e 97F82E30 		ldrb	r3, [r7, #46]	@ zero_extendqisi2
 11874 4272 0133     		adds	r3, r3, #1
 11875 4274 87F82E30 		strb	r3, [r7, #46]
 11876              	.L593:
2455:.\main.c      **** 								for(x=1;x<=4;x++){
 11877              		.loc 1 2455 0 discriminator 2
 11878 4278 97F82F30 		ldrb	r3, [r7, #47]	@ zero_extendqisi2
 11879 427c 0133     		adds	r3, r3, #1
 11880 427e 87F82F30 		strb	r3, [r7, #47]
 11881              	.L592:
2455:.\main.c      **** 								for(x=1;x<=4;x++){
 11882              		.loc 1 2455 0 is_stmt 0 discriminator 1
 11883 4282 97F82F30 		ldrb	r3, [r7, #47]	@ zero_extendqisi2
 11884 4286 042B     		cmp	r3, #4
 11885 4288 E5D9     		bls	.L594
2458:.\main.c      **** 									}
2459:.\main.c      **** 								}
2460:.\main.c      **** 								if(y==4){
 11886              		.loc 1 2460 0 is_stmt 1
ARM GAS  C:\Users\RECEPC~1\AppData\Local\Temp\cc8qeTl3.s 			page 257


 11887 428a 97F82E30 		ldrb	r3, [r7, #46]	@ zero_extendqisi2
 11888 428e 042B     		cmp	r3, #4
 11889 4290 07D1     		bne	.L595
2461:.\main.c      **** 			                        flujo_LCD1=15;
 11890              		.loc 1 2461 0
 11891 4292 2F4B     		ldr	r3, .L765+28
 11892 4294 0F22     		movs	r2, #15
 11893 4296 1A70     		strb	r2, [r3]
2462:.\main.c      **** 			                        set_imagen(1,93);								
 11894              		.loc 1 2462 0
 11895 4298 0120     		movs	r0, #1
 11896 429a 5D21     		movs	r1, #93
 11897 429c FFF7FEFF 		bl	set_imagen
 11898 42a0 06E0     		b	.L586
 11899              	.L595:
2463:.\main.c      **** 								}
2464:.\main.c      **** 								else{
2465:.\main.c      **** 			                        flujo_LCD1=0;							
 11900              		.loc 1 2465 0
 11901 42a2 2B4B     		ldr	r3, .L765+28
 11902 42a4 0022     		movs	r2, #0
 11903 42a6 1A70     		strb	r2, [r3]
 11904 42a8 02E0     		b	.L586
 11905              	.L591:
2466:.\main.c      **** 								}
2467:.\main.c      **** 							}
2468:.\main.c      **** 							else{
2469:.\main.c      **** 		                        flujo_LCD1=0;						
 11906              		.loc 1 2469 0
 11907 42aa 294B     		ldr	r3, .L765+28
 11908 42ac 0022     		movs	r2, #0
 11909 42ae 1A70     		strb	r2, [r3]
 11910              	.L586:
2470:.\main.c      **** 							}
2471:.\main.c      **** 	                    }
2472:.\main.c      **** 	                }
2473:.\main.c      **** 	            }
2474:.\main.c      **** 	            CyDelay(100);            //Caso 14 sin segunda posición
 11911              		.loc 1 2474 0
 11912 42b0 6420     		movs	r0, #100
 11913 42b2 FFF7FEFF 		bl	CyDelay
2475:.\main.c      **** 	            LCD_1_ClearRxBuffer();
 11914              		.loc 1 2475 0
 11915 42b6 FFF7FEFF 		bl	LCD_1_ClearRxBuffer
2476:.\main.c      **** 	        }         			
2477:.\main.c      **** 		break;
 11916              		.loc 1 2477 0
 11917 42ba 00F0D7BE 		b	.L131
 11918              	.L585:
 11919              		.loc 1 2477 0 is_stmt 0 discriminator 15
 11920 42be 00F0D5BE 		b	.L131
 11921              	.L147:
2478:.\main.c      ****             
2479:.\main.c      ****         case 15:
2480:.\main.c      **** 	        if(LCD_1_GetRxBufferSize()==8){
 11922              		.loc 1 2480 0 is_stmt 1
 11923 42c2 FFF7FEFF 		bl	LCD_1_GetRxBufferSize
ARM GAS  C:\Users\RECEPC~1\AppData\Local\Temp\cc8qeTl3.s 			page 258


 11924 42c6 0346     		mov	r3, r0
 11925 42c8 082B     		cmp	r3, #8
 11926 42ca 40F09880 		bne	.L597
2481:.\main.c      **** 	            if((LCD_1_rxBuffer[0]==0xAA) && (LCD_1_rxBuffer[6]==0xC3) && (LCD_1_rxBuffer[7]==0x3C)
 11927              		.loc 1 2481 0
 11928 42ce 194B     		ldr	r3, .L765
 11929 42d0 1B78     		ldrb	r3, [r3]
 11930 42d2 DBB2     		uxtb	r3, r3
 11931 42d4 AA2B     		cmp	r3, #170
 11932 42d6 40F09280 		bne	.L597
 11933              		.loc 1 2481 0 is_stmt 0 discriminator 1
 11934 42da 164B     		ldr	r3, .L765
 11935 42dc 9B79     		ldrb	r3, [r3, #6]
 11936 42de DBB2     		uxtb	r3, r3
 11937 42e0 C32B     		cmp	r3, #195
 11938 42e2 40F08C80 		bne	.L597
 11939              		.loc 1 2481 0 discriminator 2
 11940 42e6 134B     		ldr	r3, .L765
 11941 42e8 DB79     		ldrb	r3, [r3, #7]
 11942 42ea DBB2     		uxtb	r3, r3
 11943 42ec 3C2B     		cmp	r3, #60
 11944 42ee 40F08680 		bne	.L597
2482:.\main.c      **** 	                switch(LCD_1_rxBuffer[3]){
 11945              		.loc 1 2482 0 is_stmt 1
 11946 42f2 104B     		ldr	r3, .L765
 11947 42f4 DB78     		ldrb	r3, [r3, #3]
 11948 42f6 DBB2     		uxtb	r3, r3
 11949 42f8 B92B     		cmp	r3, #185
 11950 42fa 05D0     		beq	.L598
 11951 42fc BA2B     		cmp	r3, #186
 11952 42fe 59D0     		beq	.L599
 11953 4300 7E2B     		cmp	r3, #126
 11954 4302 74D0     		beq	.L600
2483:.\main.c      ****                         case 0xB9: //Reimpresion
2484:.\main.c      ****                         	rf_mod[0]='M';
2485:.\main.c      **** 			                rf_mod[1]='U';
2486:.\main.c      **** 			                rf_mod[2]='X';
2487:.\main.c      **** 			                rf_mod[3]='3';
2488:.\main.c      ****                             rf_mod[4]='*';
2489:.\main.c      **** 							PC_ClearRxBuffer();				
2490:.\main.c      **** 						    for(x=0;x<=4;x++){
2491:.\main.c      **** 							   PC_PutChar(rf_mod[x]);
2492:.\main.c      **** 						    }
2493:.\main.c      ****                             CyDelay(150);  
2494:.\main.c      **** 							set_imagen(1,0);
2495:.\main.c      **** 							flujo_LCD1=0;
2496:.\main.c      ****                             if(seleccion_pos == 1){
2497:.\main.c      **** 							    lado1.estado=libre;     //Fin de reimpresion  
2498:.\main.c      ****                             }
2499:.\main.c      ****                             if(seleccion_pos == 2){
2500:.\main.c      **** 							    lado2.estado=libre;     //Fin de reimpresion  
2501:.\main.c      ****                             }
2502:.\main.c      ****                         break;
2503:.\main.c      ****                             
2504:.\main.c      ****                         case 0xBA:                                       //Configuracion inicial   
2505:.\main.c      ****                             set_imagen(1,47);
2506:.\main.c      ****                             id_teclado1=5;
ARM GAS  C:\Users\RECEPC~1\AppData\Local\Temp\cc8qeTl3.s 			page 259


2507:.\main.c      **** 					        count_teclas1=0;							 //Inicia el contador de teclas	
2508:.\main.c      **** 					        id_coma1=',';	
2509:.\main.c      ****                             teclas1=4;              						//cantidad de teclas q puede digitar     
2510:.\main.c      **** 					        posx1=4;
2511:.\main.c      **** 					        posy1=3;
2512:.\main.c      **** 					        sizeletra1 = 1;	    
2513:.\main.c      ****                             flujo_LCD1 = 12;
2514:.\main.c      ****                         break;    
2515:.\main.c      ****                             
2516:.\main.c      **** 	                    case 0x7E:					//ir a menu
2517:.\main.c      **** 						  set_imagen(1,74);	
2518:.\main.c      **** 	                      flujo_LCD1=0;     
2519:.\main.c      **** 	                    break;		                            
2520:.\main.c      ****                     }
2521:.\main.c      ****                 }
2522:.\main.c      ****             }
2523:.\main.c      ****         break;
 11955              		.loc 1 2523 0
 11956 4304 00F0B2BE 		b	.L131
 11957              	.L598:
2484:.\main.c      **** 			                rf_mod[1]='U';
 11958              		.loc 1 2484 0
 11959 4308 134B     		ldr	r3, .L765+36
 11960 430a 4D22     		movs	r2, #77
 11961 430c 1A70     		strb	r2, [r3]
2485:.\main.c      **** 			                rf_mod[2]='X';
 11962              		.loc 1 2485 0
 11963 430e 124B     		ldr	r3, .L765+36
 11964 4310 5522     		movs	r2, #85
 11965 4312 5A70     		strb	r2, [r3, #1]
2486:.\main.c      **** 			                rf_mod[3]='3';
 11966              		.loc 1 2486 0
 11967 4314 104B     		ldr	r3, .L765+36
 11968 4316 5822     		movs	r2, #88
 11969 4318 9A70     		strb	r2, [r3, #2]
2487:.\main.c      ****                             rf_mod[4]='*';
 11970              		.loc 1 2487 0
 11971 431a 0F4B     		ldr	r3, .L765+36
 11972 431c 3322     		movs	r2, #51
 11973 431e DA70     		strb	r2, [r3, #3]
2488:.\main.c      **** 							PC_ClearRxBuffer();				
 11974              		.loc 1 2488 0
 11975 4320 0D4B     		ldr	r3, .L765+36
 11976 4322 2A22     		movs	r2, #42
 11977 4324 1A71     		strb	r2, [r3, #4]
2489:.\main.c      **** 						    for(x=0;x<=4;x++){
 11978              		.loc 1 2489 0
 11979 4326 FFF7FEFF 		bl	PC_ClearRxBuffer
2490:.\main.c      **** 							   PC_PutChar(rf_mod[x]);
 11980              		.loc 1 2490 0
 11981 432a 0023     		movs	r3, #0
 11982 432c 87F82F30 		strb	r3, [r7, #47]
 11983 4330 20E0     		b	.L601
 11984              	.L766:
 11985 4332 00BF     		.align	2
 11986              	.L765:
 11987 4334 00000000 		.word	LCD_1_rxBuffer
ARM GAS  C:\Users\RECEPC~1\AppData\Local\Temp\cc8qeTl3.s 			page 260


 11988 4338 00000000 		.word	count_teclas1
 11989 433c 00000000 		.word	teclas1
 11990 4340 00000000 		.word	rventa1
 11991 4344 00000000 		.word	posy1
 11992 4348 00000000 		.word	sizeletra1
 11993 434c 00000000 		.word	posx1
 11994 4350 00000000 		.word	flujo_LCD1
 11995 4354 00000000 		.word	clave_config
 11996 4358 00000000 		.word	rf_mod
 11997              	.L602:
2491:.\main.c      **** 						    }
 11998              		.loc 1 2491 0 discriminator 3
 11999 435c 97F82F30 		ldrb	r3, [r7, #47]	@ zero_extendqisi2
 12000 4360 B64A     		ldr	r2, .L767
 12001 4362 D35C     		ldrb	r3, [r2, r3]	@ zero_extendqisi2
 12002 4364 1846     		mov	r0, r3
 12003 4366 FFF7FEFF 		bl	PC_PutChar
2490:.\main.c      **** 							   PC_PutChar(rf_mod[x]);
 12004              		.loc 1 2490 0 discriminator 3
 12005 436a 97F82F30 		ldrb	r3, [r7, #47]	@ zero_extendqisi2
 12006 436e 0133     		adds	r3, r3, #1
 12007 4370 87F82F30 		strb	r3, [r7, #47]
 12008              	.L601:
2490:.\main.c      **** 							   PC_PutChar(rf_mod[x]);
 12009              		.loc 1 2490 0 is_stmt 0 discriminator 1
 12010 4374 97F82F30 		ldrb	r3, [r7, #47]	@ zero_extendqisi2
 12011 4378 042B     		cmp	r3, #4
 12012 437a EFD9     		bls	.L602
2493:.\main.c      **** 							set_imagen(1,0);
 12013              		.loc 1 2493 0 is_stmt 1
 12014 437c 9620     		movs	r0, #150
 12015 437e FFF7FEFF 		bl	CyDelay
2494:.\main.c      **** 							flujo_LCD1=0;
 12016              		.loc 1 2494 0
 12017 4382 0120     		movs	r0, #1
 12018 4384 0021     		movs	r1, #0
 12019 4386 FFF7FEFF 		bl	set_imagen
2495:.\main.c      ****                             if(seleccion_pos == 1){
 12020              		.loc 1 2495 0
 12021 438a AD4B     		ldr	r3, .L767+4
 12022 438c 0022     		movs	r2, #0
 12023 438e 1A70     		strb	r2, [r3]
2496:.\main.c      **** 							    lado1.estado=libre;     //Fin de reimpresion  
 12024              		.loc 1 2496 0
 12025 4390 AC4B     		ldr	r3, .L767+8
 12026 4392 1B78     		ldrb	r3, [r3]
 12027 4394 DBB2     		uxtb	r3, r3
 12028 4396 012B     		cmp	r3, #1
 12029 4398 02D1     		bne	.L603
2497:.\main.c      ****                             }
 12030              		.loc 1 2497 0
 12031 439a AB4B     		ldr	r3, .L767+12
 12032 439c 0122     		movs	r2, #1
 12033 439e 5A70     		strb	r2, [r3, #1]
 12034              	.L603:
2499:.\main.c      **** 							    lado2.estado=libre;     //Fin de reimpresion  
 12035              		.loc 1 2499 0
ARM GAS  C:\Users\RECEPC~1\AppData\Local\Temp\cc8qeTl3.s 			page 261


 12036 43a0 A84B     		ldr	r3, .L767+8
 12037 43a2 1B78     		ldrb	r3, [r3]
 12038 43a4 DBB2     		uxtb	r3, r3
 12039 43a6 022B     		cmp	r3, #2
 12040 43a8 03D1     		bne	.L604
2500:.\main.c      ****                             }
 12041              		.loc 1 2500 0
 12042 43aa A84B     		ldr	r3, .L767+16
 12043 43ac 0122     		movs	r2, #1
 12044 43ae 5A70     		strb	r2, [r3, #1]
2502:.\main.c      ****                             
 12045              		.loc 1 2502 0
 12046 43b0 25E0     		b	.L597
 12047              	.L604:
 12048 43b2 24E0     		b	.L597
 12049              	.L599:
2505:.\main.c      ****                             id_teclado1=5;
 12050              		.loc 1 2505 0
 12051 43b4 0120     		movs	r0, #1
 12052 43b6 2F21     		movs	r1, #47
 12053 43b8 FFF7FEFF 		bl	set_imagen
2506:.\main.c      **** 					        count_teclas1=0;							 //Inicia el contador de teclas	
 12054              		.loc 1 2506 0
 12055 43bc A44B     		ldr	r3, .L767+20
 12056 43be 0522     		movs	r2, #5
 12057 43c0 1A70     		strb	r2, [r3]
2507:.\main.c      **** 					        id_coma1=',';	
 12058              		.loc 1 2507 0
 12059 43c2 A44B     		ldr	r3, .L767+24
 12060 43c4 0022     		movs	r2, #0
 12061 43c6 1A70     		strb	r2, [r3]
2508:.\main.c      ****                             teclas1=4;              						//cantidad de teclas q puede digitar     
 12062              		.loc 1 2508 0
 12063 43c8 A34B     		ldr	r3, .L767+28
 12064 43ca 2C22     		movs	r2, #44
 12065 43cc 1A70     		strb	r2, [r3]
2509:.\main.c      **** 					        posx1=4;
 12066              		.loc 1 2509 0
 12067 43ce A34B     		ldr	r3, .L767+32
 12068 43d0 0422     		movs	r2, #4
 12069 43d2 1A70     		strb	r2, [r3]
2510:.\main.c      **** 					        posy1=3;
 12070              		.loc 1 2510 0
 12071 43d4 A24B     		ldr	r3, .L767+36
 12072 43d6 0422     		movs	r2, #4
 12073 43d8 1A80     		strh	r2, [r3]	@ movhi
2511:.\main.c      **** 					        sizeletra1 = 1;	    
 12074              		.loc 1 2511 0
 12075 43da A24B     		ldr	r3, .L767+40
 12076 43dc 0322     		movs	r2, #3
 12077 43de 1A80     		strh	r2, [r3]	@ movhi
2512:.\main.c      ****                             flujo_LCD1 = 12;
 12078              		.loc 1 2512 0
 12079 43e0 A14B     		ldr	r3, .L767+44
 12080 43e2 0122     		movs	r2, #1
 12081 43e4 1A80     		strh	r2, [r3]	@ movhi
2513:.\main.c      ****                         break;    
ARM GAS  C:\Users\RECEPC~1\AppData\Local\Temp\cc8qeTl3.s 			page 262


 12082              		.loc 1 2513 0
 12083 43e6 964B     		ldr	r3, .L767+4
 12084 43e8 0C22     		movs	r2, #12
 12085 43ea 1A70     		strb	r2, [r3]
2514:.\main.c      ****                             
 12086              		.loc 1 2514 0
 12087 43ec 07E0     		b	.L597
 12088              	.L600:
2517:.\main.c      **** 	                      flujo_LCD1=0;     
 12089              		.loc 1 2517 0
 12090 43ee 0120     		movs	r0, #1
 12091 43f0 4A21     		movs	r1, #74
 12092 43f2 FFF7FEFF 		bl	set_imagen
2518:.\main.c      **** 	                    break;		                            
 12093              		.loc 1 2518 0
 12094 43f6 924B     		ldr	r3, .L767+4
 12095 43f8 0022     		movs	r2, #0
 12096 43fa 1A70     		strb	r2, [r3]
2519:.\main.c      ****                     }
 12097              		.loc 1 2519 0
 12098 43fc 00BF     		nop
 12099              	.L597:
 12100              		.loc 1 2523 0 discriminator 16
 12101 43fe 00F035BE 		b	.L131
 12102              	.L148:
2524:.\main.c      ****               
2525:.\main.c      ****         case 16:
2526:.\main.c      **** 	        if(LCD_1_GetRxBufferSize()==8){
 12103              		.loc 1 2526 0
 12104 4402 FFF7FEFF 		bl	LCD_1_GetRxBufferSize
 12105 4406 0346     		mov	r3, r0
 12106 4408 082B     		cmp	r3, #8
 12107 440a 6FD1     		bne	.L605
2527:.\main.c      **** 	            if((LCD_1_rxBuffer[0]==0xAA) && (LCD_1_rxBuffer[6]==0xC3) && (LCD_1_rxBuffer[7]==0x3C)
 12108              		.loc 1 2527 0
 12109 440c 974B     		ldr	r3, .L767+48
 12110 440e 1B78     		ldrb	r3, [r3]
 12111 4410 DBB2     		uxtb	r3, r3
 12112 4412 AA2B     		cmp	r3, #170
 12113 4414 63D1     		bne	.L606
 12114              		.loc 1 2527 0 is_stmt 0 discriminator 1
 12115 4416 954B     		ldr	r3, .L767+48
 12116 4418 9B79     		ldrb	r3, [r3, #6]
 12117 441a DBB2     		uxtb	r3, r3
 12118 441c C32B     		cmp	r3, #195
 12119 441e 5ED1     		bne	.L606
 12120              		.loc 1 2527 0 discriminator 2
 12121 4420 924B     		ldr	r3, .L767+48
 12122 4422 DB79     		ldrb	r3, [r3, #7]
 12123 4424 DBB2     		uxtb	r3, r3
 12124 4426 3C2B     		cmp	r3, #60
 12125 4428 59D1     		bne	.L606
2528:.\main.c      **** 	                switch(LCD_1_rxBuffer[3]){
 12126              		.loc 1 2528 0 is_stmt 1
 12127 442a 904B     		ldr	r3, .L767+48
 12128 442c DB78     		ldrb	r3, [r3, #3]
 12129 442e DBB2     		uxtb	r3, r3
ARM GAS  C:\Users\RECEPC~1\AppData\Local\Temp\cc8qeTl3.s 			page 263


 12130 4430 802B     		cmp	r3, #128
 12131 4432 13D0     		beq	.L607
 12132 4434 802B     		cmp	r3, #128
 12133 4436 04DC     		bgt	.L608
 12134 4438 7E2B     		cmp	r3, #126
 12135 443a 48D0     		beq	.L609
 12136 443c 7F2B     		cmp	r3, #127
 12137 443e 05D0     		beq	.L610
 12138 4440 4DE0     		b	.L606
 12139              	.L608:
 12140 4442 812B     		cmp	r3, #129
 12141 4444 27D0     		beq	.L611
 12142 4446 C22B     		cmp	r3, #194
 12143 4448 2DD0     		beq	.L612
 12144 444a 48E0     		b	.L606
 12145              	.L610:
2529:.\main.c      ****                         case 0x7F:      //configurar productos                            
2530:.\main.c      ****                             set_imagen(1,88);                            
 12146              		.loc 1 2530 0
 12147 444c 0120     		movs	r0, #1
 12148 444e 5821     		movs	r1, #88
 12149 4450 FFF7FEFF 		bl	set_imagen
2531:.\main.c      ****                             flujo_LCD1 = 18;
 12150              		.loc 1 2531 0
 12151 4454 7A4B     		ldr	r3, .L767+4
 12152 4456 1222     		movs	r2, #18
 12153 4458 1A70     		strb	r2, [r3]
2532:.\main.c      ****                         break;
 12154              		.loc 1 2532 0
 12155 445a 40E0     		b	.L606
 12156              	.L607:
2533:.\main.c      ****                         case 0x80:      //configurar version de digitos                            
2534:.\main.c      ****                             set_imagen(1,100);
 12157              		.loc 1 2534 0
 12158 445c 0120     		movs	r0, #1
 12159 445e 6421     		movs	r1, #100
 12160 4460 FFF7FEFF 		bl	set_imagen
2535:.\main.c      ****                             id_teclado1 = 6;
 12161              		.loc 1 2535 0
 12162 4464 7A4B     		ldr	r3, .L767+20
 12163 4466 0622     		movs	r2, #6
 12164 4468 1A70     		strb	r2, [r3]
2536:.\main.c      **** 					        count_teclas1 = 0;							    //Inicia el contador de teclas	
 12165              		.loc 1 2536 0
 12166 446a 7A4B     		ldr	r3, .L767+24
 12167 446c 0022     		movs	r2, #0
 12168 446e 1A70     		strb	r2, [r3]
2537:.\main.c      **** 					        id_coma1=',';	
 12169              		.loc 1 2537 0
 12170 4470 794B     		ldr	r3, .L767+28
 12171 4472 2C22     		movs	r2, #44
 12172 4474 1A70     		strb	r2, [r3]
2538:.\main.c      ****                             teclas1=1;              						//cantidad de teclas q puede digitar     
 12173              		.loc 1 2538 0
 12174 4476 794B     		ldr	r3, .L767+32
 12175 4478 0122     		movs	r2, #1
 12176 447a 1A70     		strb	r2, [r3]
ARM GAS  C:\Users\RECEPC~1\AppData\Local\Temp\cc8qeTl3.s 			page 264


2539:.\main.c      **** 					        posx1=4;
 12177              		.loc 1 2539 0
 12178 447c 784B     		ldr	r3, .L767+36
 12179 447e 0422     		movs	r2, #4
 12180 4480 1A80     		strh	r2, [r3]	@ movhi
2540:.\main.c      **** 					        posy1=3;
 12181              		.loc 1 2540 0
 12182 4482 784B     		ldr	r3, .L767+40
 12183 4484 0322     		movs	r2, #3
 12184 4486 1A80     		strh	r2, [r3]	@ movhi
2541:.\main.c      **** 					        sizeletra1=1;  
 12185              		.loc 1 2541 0
 12186 4488 774B     		ldr	r3, .L767+44
 12187 448a 0122     		movs	r2, #1
 12188 448c 1A80     		strh	r2, [r3]	@ movhi
2542:.\main.c      ****                             flujo_LCD1 = 12;
 12189              		.loc 1 2542 0
 12190 448e 6C4B     		ldr	r3, .L767+4
 12191 4490 0C22     		movs	r2, #12
 12192 4492 1A70     		strb	r2, [r3]
2543:.\main.c      ****                         break;
 12193              		.loc 1 2543 0
 12194 4494 23E0     		b	.L606
 12195              	.L611:
2544:.\main.c      ****                         case 0x81:      //configurar ppux10,ppux1
2545:.\main.c      ****                             flujo_LCD1 = 17;
 12196              		.loc 1 2545 0
 12197 4496 6A4B     		ldr	r3, .L767+4
 12198 4498 1122     		movs	r2, #17
 12199 449a 1A70     		strb	r2, [r3]
2546:.\main.c      ****                             set_imagen(1,109);                        
 12200              		.loc 1 2546 0
 12201 449c 0120     		movs	r0, #1
 12202 449e 6D21     		movs	r1, #109
 12203 44a0 FFF7FEFF 		bl	set_imagen
2547:.\main.c      ****                         break;
 12204              		.loc 1 2547 0
 12205 44a4 1BE0     		b	.L606
 12206              	.L612:
2548:.\main.c      ****                         case 0xC2:      //id estacion   ahora datos ibutton                        
2549:.\main.c      ****                             set_imagen(1,110);                                
 12207              		.loc 1 2549 0
 12208 44a6 0120     		movs	r0, #1
 12209 44a8 6E21     		movs	r1, #110
 12210 44aa FFF7FEFF 		bl	set_imagen
2550:.\main.c      **** 					        posx1=4;
 12211              		.loc 1 2550 0
 12212 44ae 6C4B     		ldr	r3, .L767+36
 12213 44b0 0422     		movs	r2, #4
 12214 44b2 1A80     		strh	r2, [r3]	@ movhi
2551:.\main.c      **** 					        posy1=3;
 12215              		.loc 1 2551 0
 12216 44b4 6B4B     		ldr	r3, .L767+40
 12217 44b6 0322     		movs	r2, #3
 12218 44b8 1A80     		strh	r2, [r3]	@ movhi
2552:.\main.c      **** 					        sizeletra1=1;            
 12219              		.loc 1 2552 0
ARM GAS  C:\Users\RECEPC~1\AppData\Local\Temp\cc8qeTl3.s 			page 265


 12220 44ba 6B4B     		ldr	r3, .L767+44
 12221 44bc 0122     		movs	r2, #1
 12222 44be 1A80     		strh	r2, [r3]	@ movhi
2553:.\main.c      ****                             flujo_LCD1 = 11;
 12223              		.loc 1 2553 0
 12224 44c0 5F4B     		ldr	r3, .L767+4
 12225 44c2 0B22     		movs	r2, #11
 12226 44c4 1A70     		strb	r2, [r3]
2554:.\main.c      ****                             id_teclado1 = 10;
 12227              		.loc 1 2554 0
 12228 44c6 624B     		ldr	r3, .L767+20
 12229 44c8 0A22     		movs	r2, #10
 12230 44ca 1A70     		strb	r2, [r3]
2555:.\main.c      ****                         break;                             
 12231              		.loc 1 2555 0
 12232 44cc 07E0     		b	.L606
 12233              	.L609:
2556:.\main.c      **** 	                    case 0x7E:		//ir a menu
2557:.\main.c      **** 						  set_imagen(1,74);	
 12234              		.loc 1 2557 0
 12235 44ce 0120     		movs	r0, #1
 12236 44d0 4A21     		movs	r1, #74
 12237 44d2 FFF7FEFF 		bl	set_imagen
2558:.\main.c      **** 	                      flujo_LCD1=0;     
 12238              		.loc 1 2558 0
 12239 44d6 5A4B     		ldr	r3, .L767+4
 12240 44d8 0022     		movs	r2, #0
 12241 44da 1A70     		strb	r2, [r3]
2559:.\main.c      **** 	                    break;                                   
 12242              		.loc 1 2559 0
 12243 44dc 00BF     		nop
 12244              	.L606:
2560:.\main.c      ****                     }
2561:.\main.c      ****                 }
2562:.\main.c      ****                 CyDelay(100);            
 12245              		.loc 1 2562 0
 12246 44de 6420     		movs	r0, #100
 12247 44e0 FFF7FEFF 		bl	CyDelay
2563:.\main.c      **** 	            LCD_1_ClearRxBuffer();
 12248              		.loc 1 2563 0
 12249 44e4 FFF7FEFF 		bl	LCD_1_ClearRxBuffer
2564:.\main.c      ****             }            
2565:.\main.c      ****         break;    
 12250              		.loc 1 2565 0
 12251 44e8 00F0C0BD 		b	.L131
 12252              	.L605:
 12253              		.loc 1 2565 0 is_stmt 0 discriminator 18
 12254 44ec 00F0BEBD 		b	.L131
 12255              	.L149:
2566:.\main.c      ****             
2567:.\main.c      ****         case 17:
2568:.\main.c      **** 	        if(LCD_1_GetRxBufferSize()==8){
 12256              		.loc 1 2568 0 is_stmt 1
 12257 44f0 FFF7FEFF 		bl	LCD_1_GetRxBufferSize
 12258 44f4 0346     		mov	r3, r0
 12259 44f6 082B     		cmp	r3, #8
 12260 44f8 4BD1     		bne	.L613
ARM GAS  C:\Users\RECEPC~1\AppData\Local\Temp\cc8qeTl3.s 			page 266


2569:.\main.c      **** 	            if((LCD_1_rxBuffer[0]==0xAA) && (LCD_1_rxBuffer[6]==0xC3) && (LCD_1_rxBuffer[7]==0x3C)
 12261              		.loc 1 2569 0
 12262 44fa 5C4B     		ldr	r3, .L767+48
 12263 44fc 1B78     		ldrb	r3, [r3]
 12264 44fe DBB2     		uxtb	r3, r3
 12265 4500 AA2B     		cmp	r3, #170
 12266 4502 3FD1     		bne	.L614
 12267              		.loc 1 2569 0 is_stmt 0 discriminator 1
 12268 4504 594B     		ldr	r3, .L767+48
 12269 4506 9B79     		ldrb	r3, [r3, #6]
 12270 4508 DBB2     		uxtb	r3, r3
 12271 450a C32B     		cmp	r3, #195
 12272 450c 3AD1     		bne	.L614
 12273              		.loc 1 2569 0 discriminator 2
 12274 450e 574B     		ldr	r3, .L767+48
 12275 4510 DB79     		ldrb	r3, [r3, #7]
 12276 4512 DBB2     		uxtb	r3, r3
 12277 4514 3C2B     		cmp	r3, #60
 12278 4516 35D1     		bne	.L614
2570:.\main.c      **** 	                switch(LCD_1_rxBuffer[3]){
 12279              		.loc 1 2570 0 is_stmt 1
 12280 4518 544B     		ldr	r3, .L767+48
 12281 451a DB78     		ldrb	r3, [r3, #3]
 12282 451c DBB2     		uxtb	r3, r3
 12283 451e 8F2B     		cmp	r3, #143
 12284 4520 04D0     		beq	.L615
 12285 4522 902B     		cmp	r3, #144
 12286 4524 14D0     		beq	.L616
 12287 4526 7E2B     		cmp	r3, #126
 12288 4528 24D0     		beq	.L617
 12289 452a 2BE0     		b	.L614
 12290              	.L615:
2571:.\main.c      ****                         case 0x8f:  //X1
2572:.\main.c      **** 						    EEPROM_WriteByte(0x00,23);
 12291              		.loc 1 2572 0
 12292 452c 0020     		movs	r0, #0
 12293 452e 1721     		movs	r1, #23
 12294 4530 FFF7FEFF 		bl	EEPROM_WriteByte
2573:.\main.c      ****                         	flujo_LCD1 = 0;	
 12295              		.loc 1 2573 0
 12296 4534 424B     		ldr	r3, .L767+4
 12297 4536 0022     		movs	r2, #0
 12298 4538 1A70     		strb	r2, [r3]
2574:.\main.c      ****                         	set_imagen(1,60);
 12299              		.loc 1 2574 0
 12300 453a 0120     		movs	r0, #1
 12301 453c 3C21     		movs	r1, #60
 12302 453e FFF7FEFF 		bl	set_imagen
2575:.\main.c      ****                             CyDelay(200);
 12303              		.loc 1 2575 0
 12304 4542 C820     		movs	r0, #200
 12305 4544 FFF7FEFF 		bl	CyDelay
2576:.\main.c      **** 							lado1.estado=libre;                          
 12306              		.loc 1 2576 0
 12307 4548 3F4B     		ldr	r3, .L767+12
 12308 454a 0122     		movs	r2, #1
 12309 454c 5A70     		strb	r2, [r3, #1]
ARM GAS  C:\Users\RECEPC~1\AppData\Local\Temp\cc8qeTl3.s 			page 267


2577:.\main.c      ****                         break;
 12310              		.loc 1 2577 0
 12311 454e 19E0     		b	.L614
 12312              	.L616:
2578:.\main.c      ****                         case 0x90:  //X10
2579:.\main.c      **** 						    EEPROM_WriteByte(0x01,23);
 12313              		.loc 1 2579 0
 12314 4550 0120     		movs	r0, #1
 12315 4552 1721     		movs	r1, #23
 12316 4554 FFF7FEFF 		bl	EEPROM_WriteByte
2580:.\main.c      ****                         	flujo_LCD1=0;	
 12317              		.loc 1 2580 0
 12318 4558 394B     		ldr	r3, .L767+4
 12319 455a 0022     		movs	r2, #0
 12320 455c 1A70     		strb	r2, [r3]
2581:.\main.c      ****                         	set_imagen(1,60);
 12321              		.loc 1 2581 0
 12322 455e 0120     		movs	r0, #1
 12323 4560 3C21     		movs	r1, #60
 12324 4562 FFF7FEFF 		bl	set_imagen
2582:.\main.c      ****                             CyDelay(200);
 12325              		.loc 1 2582 0
 12326 4566 C820     		movs	r0, #200
 12327 4568 FFF7FEFF 		bl	CyDelay
2583:.\main.c      **** 							lado1.estado=libre;                           
 12328              		.loc 1 2583 0
 12329 456c 364B     		ldr	r3, .L767+12
 12330 456e 0122     		movs	r2, #1
 12331 4570 5A70     		strb	r2, [r3, #1]
2584:.\main.c      ****                         break;
 12332              		.loc 1 2584 0
 12333 4572 07E0     		b	.L614
 12334              	.L617:
2585:.\main.c      **** 	                    case 0x7E:	//ir a menu
2586:.\main.c      **** 						  set_imagen(1,74);	
 12335              		.loc 1 2586 0
 12336 4574 0120     		movs	r0, #1
 12337 4576 4A21     		movs	r1, #74
 12338 4578 FFF7FEFF 		bl	set_imagen
2587:.\main.c      **** 	                      flujo_LCD1=0;     
 12339              		.loc 1 2587 0
 12340 457c 304B     		ldr	r3, .L767+4
 12341 457e 0022     		movs	r2, #0
 12342 4580 1A70     		strb	r2, [r3]
2588:.\main.c      **** 	                    break;                         
 12343              		.loc 1 2588 0
 12344 4582 00BF     		nop
 12345              	.L614:
2589:.\main.c      ****                     }
2590:.\main.c      ****                 }
2591:.\main.c      ****                 CyDelay(100);            
 12346              		.loc 1 2591 0
 12347 4584 6420     		movs	r0, #100
 12348 4586 FFF7FEFF 		bl	CyDelay
2592:.\main.c      **** 	            LCD_1_ClearRxBuffer();
 12349              		.loc 1 2592 0
 12350 458a FFF7FEFF 		bl	LCD_1_ClearRxBuffer
ARM GAS  C:\Users\RECEPC~1\AppData\Local\Temp\cc8qeTl3.s 			page 268


2593:.\main.c      ****             }              
2594:.\main.c      ****         break;    
 12351              		.loc 1 2594 0
 12352 458e 00F06DBD 		b	.L131
 12353              	.L613:
 12354              		.loc 1 2594 0 is_stmt 0 discriminator 19
 12355 4592 00F06BBD 		b	.L131
 12356              	.L150:
2595:.\main.c      ****           
2596:.\main.c      ****         case 18:
2597:.\main.c      ****             if(seleccion_pos == 1){							   
 12357              		.loc 1 2597 0 is_stmt 1
 12358 4596 2B4B     		ldr	r3, .L767+8
 12359 4598 1B78     		ldrb	r3, [r3]
 12360 459a DBB2     		uxtb	r3, r3
 12361 459c 012B     		cmp	r3, #1
 12362 459e 40F03582 		bne	.L618
2598:.\main.c      ****     	        if(LCD_1_GetRxBufferSize()==8){
 12363              		.loc 1 2598 0
 12364 45a2 FFF7FEFF 		bl	LCD_1_GetRxBufferSize
 12365 45a6 0346     		mov	r3, r0
 12366 45a8 082B     		cmp	r3, #8
 12367 45aa 40F02F82 		bne	.L618
2599:.\main.c      ****     	            if((LCD_1_rxBuffer[0]==0xAA) && (LCD_1_rxBuffer[6]==0xC3) && (LCD_1_rxBuffer[7]==0
 12368              		.loc 1 2599 0
 12369 45ae 2F4B     		ldr	r3, .L767+48
 12370 45b0 1B78     		ldrb	r3, [r3]
 12371 45b2 DBB2     		uxtb	r3, r3
 12372 45b4 AA2B     		cmp	r3, #170
 12373 45b6 40F02482 		bne	.L619
 12374              		.loc 1 2599 0 is_stmt 0 discriminator 1
 12375 45ba 2C4B     		ldr	r3, .L767+48
 12376 45bc 9B79     		ldrb	r3, [r3, #6]
 12377 45be DBB2     		uxtb	r3, r3
 12378 45c0 C32B     		cmp	r3, #195
 12379 45c2 40F01E82 		bne	.L619
 12380              		.loc 1 2599 0 discriminator 2
 12381 45c6 294B     		ldr	r3, .L767+48
 12382 45c8 DB79     		ldrb	r3, [r3, #7]
 12383 45ca DBB2     		uxtb	r3, r3
 12384 45cc 3C2B     		cmp	r3, #60
 12385 45ce 40F01882 		bne	.L619
2600:.\main.c      ****     	                switch(LCD_1_rxBuffer[3]){
 12386              		.loc 1 2600 0 is_stmt 1
 12387 45d2 264B     		ldr	r3, .L767+48
 12388 45d4 DB78     		ldrb	r3, [r3, #3]
 12389 45d6 DBB2     		uxtb	r3, r3
 12390 45d8 7E3B     		subs	r3, r3, #126
 12391 45da 042B     		cmp	r3, #4
 12392 45dc 00F21182 		bhi	.L619
 12393 45e0 01A2     		adr	r2, .L621
 12394 45e2 52F823F0 		ldr	pc, [r2, r3, lsl #2]
 12395 45e6 00BF     		.p2align 2
 12396              	.L621:
 12397 45e8 35470000 		.word	.L620+1
 12398 45ec B5460000 		.word	.L622+1
 12399 45f0 FD450000 		.word	.L623+1
ARM GAS  C:\Users\RECEPC~1\AppData\Local\Temp\cc8qeTl3.s 			page 269


 12400 45f4 75460000 		.word	.L624+1
 12401 45f8 F5460000 		.word	.L625+1
 12402              		.p2align 1
 12403              	.L623:
2601:.\main.c      ****                             case 0x80:  //Producto 1
2602:.\main.c      ****                                 Producto=1;                                                    
 12404              		.loc 1 2602 0
 12405 45fc 1C4B     		ldr	r3, .L767+52
 12406 45fe 0122     		movs	r2, #1
 12407 4600 1A70     		strb	r2, [r3]
2603:.\main.c      ****                                 set_imagen(1,6);  
 12408              		.loc 1 2603 0
 12409 4602 0120     		movs	r0, #1
 12410 4604 0621     		movs	r1, #6
 12411 4606 FFF7FEFF 		bl	set_imagen
2604:.\main.c      ****                                 id_teclado1=7;
 12412              		.loc 1 2604 0
 12413 460a 114B     		ldr	r3, .L767+20
 12414 460c 0722     		movs	r2, #7
 12415 460e 1A70     		strb	r2, [r3]
2605:.\main.c      ****     					        count_teclas1=0;							    //Inicia el contador de teclas	
 12416              		.loc 1 2605 0
 12417 4610 104B     		ldr	r3, .L767+24
 12418 4612 0022     		movs	r2, #0
 12419 4614 1A70     		strb	r2, [r3]
2606:.\main.c      ****     					        id_coma1=',';	
 12420              		.loc 1 2606 0
 12421 4616 104B     		ldr	r3, .L767+28
 12422 4618 2C22     		movs	r2, #44
 12423 461a 1A70     		strb	r2, [r3]
2607:.\main.c      ****                                 teclas1=1;              						//cantidad de teclas q puede digitar 
 12424              		.loc 1 2607 0
 12425 461c 0F4B     		ldr	r3, .L767+32
 12426 461e 0122     		movs	r2, #1
 12427 4620 1A70     		strb	r2, [r3]
2608:.\main.c      ****     					        posx1=4;
 12428              		.loc 1 2608 0
 12429 4622 0F4B     		ldr	r3, .L767+36
 12430 4624 0422     		movs	r2, #4
 12431 4626 1A80     		strh	r2, [r3]	@ movhi
2609:.\main.c      ****     					        posy1=3;
 12432              		.loc 1 2609 0
 12433 4628 0E4B     		ldr	r3, .L767+40
 12434 462a 0322     		movs	r2, #3
 12435 462c 1A80     		strh	r2, [r3]	@ movhi
2610:.\main.c      ****     					        sizeletra1=1;  
 12436              		.loc 1 2610 0
 12437 462e 0E4B     		ldr	r3, .L767+44
 12438 4630 0122     		movs	r2, #1
 12439 4632 1A80     		strh	r2, [r3]	@ movhi
2611:.\main.c      ****                                 flujo_LCD1 = 12;
 12440              		.loc 1 2611 0
 12441 4634 024B     		ldr	r3, .L767+4
 12442 4636 0C22     		movs	r2, #12
 12443 4638 1A70     		strb	r2, [r3]
2612:.\main.c      ****                             break;
 12444              		.loc 1 2612 0
ARM GAS  C:\Users\RECEPC~1\AppData\Local\Temp\cc8qeTl3.s 			page 270


 12445 463a E2E1     		b	.L619
 12446              	.L768:
 12447              		.align	2
 12448              	.L767:
 12449 463c 00000000 		.word	rf_mod
 12450 4640 00000000 		.word	flujo_LCD1
 12451 4644 00000000 		.word	seleccion_pos
 12452 4648 00000000 		.word	lado1
 12453 464c 00000000 		.word	lado2
 12454 4650 00000000 		.word	id_teclado1
 12455 4654 00000000 		.word	count_teclas1
 12456 4658 00000000 		.word	id_coma1
 12457 465c 00000000 		.word	teclas1
 12458 4660 00000000 		.word	posx1
 12459 4664 00000000 		.word	posy1
 12460 4668 00000000 		.word	sizeletra1
 12461 466c 00000000 		.word	LCD_1_rxBuffer
 12462 4670 00000000 		.word	Producto
 12463              	.L624:
2613:.\main.c      ****                             case 0x81:  //Producto 2
2614:.\main.c      ****                                 Producto=2;                                                    
 12464              		.loc 1 2614 0
 12465 4674 B44B     		ldr	r3, .L769
 12466 4676 0222     		movs	r2, #2
 12467 4678 1A70     		strb	r2, [r3]
2615:.\main.c      ****                                 set_imagen(1,6);  
 12468              		.loc 1 2615 0
 12469 467a 0120     		movs	r0, #1
 12470 467c 0621     		movs	r1, #6
 12471 467e FFF7FEFF 		bl	set_imagen
2616:.\main.c      ****                                 id_teclado1=7;
 12472              		.loc 1 2616 0
 12473 4682 B24B     		ldr	r3, .L769+4
 12474 4684 0722     		movs	r2, #7
 12475 4686 1A70     		strb	r2, [r3]
2617:.\main.c      ****     					        count_teclas1=0;							    	
 12476              		.loc 1 2617 0
 12477 4688 B14B     		ldr	r3, .L769+8
 12478 468a 0022     		movs	r2, #0
 12479 468c 1A70     		strb	r2, [r3]
2618:.\main.c      ****     					        id_coma1=',';	
 12480              		.loc 1 2618 0
 12481 468e B14B     		ldr	r3, .L769+12
 12482 4690 2C22     		movs	r2, #44
 12483 4692 1A70     		strb	r2, [r3]
2619:.\main.c      ****                                 teclas1=1;              															
 12484              		.loc 1 2619 0
 12485 4694 B04B     		ldr	r3, .L769+16
 12486 4696 0122     		movs	r2, #1
 12487 4698 1A70     		strb	r2, [r3]
2620:.\main.c      ****     					        posx1=4;
 12488              		.loc 1 2620 0
 12489 469a B04B     		ldr	r3, .L769+20
 12490 469c 0422     		movs	r2, #4
 12491 469e 1A80     		strh	r2, [r3]	@ movhi
2621:.\main.c      ****     					        posy1=3;
 12492              		.loc 1 2621 0
ARM GAS  C:\Users\RECEPC~1\AppData\Local\Temp\cc8qeTl3.s 			page 271


 12493 46a0 AF4B     		ldr	r3, .L769+24
 12494 46a2 0322     		movs	r2, #3
 12495 46a4 1A80     		strh	r2, [r3]	@ movhi
2622:.\main.c      ****     					        sizeletra1=1;  
 12496              		.loc 1 2622 0
 12497 46a6 AF4B     		ldr	r3, .L769+28
 12498 46a8 0122     		movs	r2, #1
 12499 46aa 1A80     		strh	r2, [r3]	@ movhi
2623:.\main.c      ****                                 flujo_LCD1 = 12;
 12500              		.loc 1 2623 0
 12501 46ac AE4B     		ldr	r3, .L769+32
 12502 46ae 0C22     		movs	r2, #12
 12503 46b0 1A70     		strb	r2, [r3]
2624:.\main.c      ****                             break;                            
 12504              		.loc 1 2624 0
 12505 46b2 A6E1     		b	.L619
 12506              	.L622:
2625:.\main.c      ****                             case 0x7F:  //Producto 3
2626:.\main.c      ****                                 Producto=3;                                                    
 12507              		.loc 1 2626 0
 12508 46b4 A44B     		ldr	r3, .L769
 12509 46b6 0322     		movs	r2, #3
 12510 46b8 1A70     		strb	r2, [r3]
2627:.\main.c      ****                                 set_imagen(1,6);  
 12511              		.loc 1 2627 0
 12512 46ba 0120     		movs	r0, #1
 12513 46bc 0621     		movs	r1, #6
 12514 46be FFF7FEFF 		bl	set_imagen
2628:.\main.c      ****                                 id_teclado1=7;
 12515              		.loc 1 2628 0
 12516 46c2 A24B     		ldr	r3, .L769+4
 12517 46c4 0722     		movs	r2, #7
 12518 46c6 1A70     		strb	r2, [r3]
2629:.\main.c      ****     					        count_teclas1=0;							    
 12519              		.loc 1 2629 0
 12520 46c8 A14B     		ldr	r3, .L769+8
 12521 46ca 0022     		movs	r2, #0
 12522 46cc 1A70     		strb	r2, [r3]
2630:.\main.c      ****     					        id_coma1=',';	
 12523              		.loc 1 2630 0
 12524 46ce A14B     		ldr	r3, .L769+12
 12525 46d0 2C22     		movs	r2, #44
 12526 46d2 1A70     		strb	r2, [r3]
2631:.\main.c      ****                                 teclas1=1;              													
 12527              		.loc 1 2631 0
 12528 46d4 A04B     		ldr	r3, .L769+16
 12529 46d6 0122     		movs	r2, #1
 12530 46d8 1A70     		strb	r2, [r3]
2632:.\main.c      ****     					        posx1=4;
 12531              		.loc 1 2632 0
 12532 46da A04B     		ldr	r3, .L769+20
 12533 46dc 0422     		movs	r2, #4
 12534 46de 1A80     		strh	r2, [r3]	@ movhi
2633:.\main.c      ****     					        posy1=3;
 12535              		.loc 1 2633 0
 12536 46e0 9F4B     		ldr	r3, .L769+24
 12537 46e2 0322     		movs	r2, #3
ARM GAS  C:\Users\RECEPC~1\AppData\Local\Temp\cc8qeTl3.s 			page 272


 12538 46e4 1A80     		strh	r2, [r3]	@ movhi
2634:.\main.c      ****     					        sizeletra1=1;                      
 12539              		.loc 1 2634 0
 12540 46e6 9F4B     		ldr	r3, .L769+28
 12541 46e8 0122     		movs	r2, #1
 12542 46ea 1A80     		strh	r2, [r3]	@ movhi
2635:.\main.c      ****                                 flujo_LCD1 = 12;
 12543              		.loc 1 2635 0
 12544 46ec 9E4B     		ldr	r3, .L769+32
 12545 46ee 0C22     		movs	r2, #12
 12546 46f0 1A70     		strb	r2, [r3]
2636:.\main.c      ****                             break;                            
 12547              		.loc 1 2636 0
 12548 46f2 86E1     		b	.L619
 12549              	.L625:
2637:.\main.c      ****                             case 0x82:  //Producto 4
2638:.\main.c      ****                                 Producto=4;                                                   
 12550              		.loc 1 2638 0
 12551 46f4 944B     		ldr	r3, .L769
 12552 46f6 0422     		movs	r2, #4
 12553 46f8 1A70     		strb	r2, [r3]
2639:.\main.c      ****                                 set_imagen(1,6);  
 12554              		.loc 1 2639 0
 12555 46fa 0120     		movs	r0, #1
 12556 46fc 0621     		movs	r1, #6
 12557 46fe FFF7FEFF 		bl	set_imagen
2640:.\main.c      ****                                 id_teclado1=7;
 12558              		.loc 1 2640 0
 12559 4702 924B     		ldr	r3, .L769+4
 12560 4704 0722     		movs	r2, #7
 12561 4706 1A70     		strb	r2, [r3]
2641:.\main.c      ****     					        count_teclas1=0;							    	
 12562              		.loc 1 2641 0
 12563 4708 914B     		ldr	r3, .L769+8
 12564 470a 0022     		movs	r2, #0
 12565 470c 1A70     		strb	r2, [r3]
2642:.\main.c      ****     					        id_coma1=',';	
 12566              		.loc 1 2642 0
 12567 470e 914B     		ldr	r3, .L769+12
 12568 4710 2C22     		movs	r2, #44
 12569 4712 1A70     		strb	r2, [r3]
2643:.\main.c      ****                                 teclas1=1;              														
 12570              		.loc 1 2643 0
 12571 4714 904B     		ldr	r3, .L769+16
 12572 4716 0122     		movs	r2, #1
 12573 4718 1A70     		strb	r2, [r3]
2644:.\main.c      ****     					        posx1=4;
 12574              		.loc 1 2644 0
 12575 471a 904B     		ldr	r3, .L769+20
 12576 471c 0422     		movs	r2, #4
 12577 471e 1A80     		strh	r2, [r3]	@ movhi
2645:.\main.c      ****     					        posy1=3;
 12578              		.loc 1 2645 0
 12579 4720 8F4B     		ldr	r3, .L769+24
 12580 4722 0322     		movs	r2, #3
 12581 4724 1A80     		strh	r2, [r3]	@ movhi
2646:.\main.c      ****     					        sizeletra1=1;        
ARM GAS  C:\Users\RECEPC~1\AppData\Local\Temp\cc8qeTl3.s 			page 273


 12582              		.loc 1 2646 0
 12583 4726 8F4B     		ldr	r3, .L769+28
 12584 4728 0122     		movs	r2, #1
 12585 472a 1A80     		strh	r2, [r3]	@ movhi
2647:.\main.c      ****                                 flujo_LCD1 = 12;
 12586              		.loc 1 2647 0
 12587 472c 8E4B     		ldr	r3, .L769+32
 12588 472e 0C22     		movs	r2, #12
 12589 4730 1A70     		strb	r2, [r3]
2648:.\main.c      ****                             break;                     
 12590              		.loc 1 2648 0
 12591 4732 66E1     		b	.L619
 12592              	.L620:
2649:.\main.c      ****     	                    case 0x7E:	//Envía datos al Beagle de productos 
2650:.\main.c      ****                             	rf_mod[0]='M';
 12593              		.loc 1 2650 0
 12594 4734 8D4B     		ldr	r3, .L769+36
 12595 4736 4D22     		movs	r2, #77
 12596 4738 1A70     		strb	r2, [r3]
2651:.\main.c      ****     			                rf_mod[1]='U';
 12597              		.loc 1 2651 0
 12598 473a 8C4B     		ldr	r3, .L769+36
 12599 473c 5522     		movs	r2, #85
 12600 473e 5A70     		strb	r2, [r3, #1]
2652:.\main.c      ****     			                rf_mod[2]='X';
 12601              		.loc 1 2652 0
 12602 4740 8A4B     		ldr	r3, .L769+36
 12603 4742 5822     		movs	r2, #88
 12604 4744 9A70     		strb	r2, [r3, #2]
2653:.\main.c      ****     			                rf_mod[3]='4'; 
 12605              		.loc 1 2653 0
 12606 4746 894B     		ldr	r3, .L769+36
 12607 4748 3422     		movs	r2, #52
 12608 474a DA70     		strb	r2, [r3, #3]
2654:.\main.c      ****                                 y=4;
 12609              		.loc 1 2654 0
 12610 474c 0423     		movs	r3, #4
 12611 474e 87F82E30 		strb	r3, [r7, #46]
2655:.\main.c      ****                                 for(x=0;x<=2;x++){
 12612              		.loc 1 2655 0
 12613 4752 0023     		movs	r3, #0
 12614 4754 87F82F30 		strb	r3, [r7, #47]
 12615 4758 3CE0     		b	.L626
 12616              	.L634:
2656:.\main.c      ****                                     switch(lado1.grado[x][0]){
 12617              		.loc 1 2656 0
 12618 475a 97F82F30 		ldrb	r3, [r7, #47]	@ zero_extendqisi2
 12619 475e 844A     		ldr	r2, .L769+40
 12620 4760 1344     		add	r3, r3, r2
 12621 4762 93F85930 		ldrb	r3, [r3, #89]
 12622 4766 DBB2     		uxtb	r3, r3
 12623 4768 013B     		subs	r3, r3, #1
 12624 476a 032B     		cmp	r3, #3
 12625 476c 22D8     		bhi	.L627
 12626 476e 01A2     		adr	r2, .L629
 12627 4770 52F823F0 		ldr	pc, [r2, r3, lsl #2]
 12628              		.p2align 2
ARM GAS  C:\Users\RECEPC~1\AppData\Local\Temp\cc8qeTl3.s 			page 274


 12629              	.L629:
 12630 4774 85470000 		.word	.L628+1
 12631 4778 91470000 		.word	.L630+1
 12632 477c 9D470000 		.word	.L631+1
 12633 4780 A9470000 		.word	.L632+1
 12634              		.p2align 1
 12635              	.L628:
2657:.\main.c      ****                                     	case 1:
2658:.\main.c      ****                                     		rf_mod[y]='1';//Diesel
 12636              		.loc 1 2658 0
 12637 4784 97F82E30 		ldrb	r3, [r7, #46]	@ zero_extendqisi2
 12638 4788 784A     		ldr	r2, .L769+36
 12639 478a 3121     		movs	r1, #49
 12640 478c D154     		strb	r1, [r2, r3]
2659:.\main.c      ****                                     	break;
 12641              		.loc 1 2659 0
 12642 478e 17E0     		b	.L633
 12643              	.L630:
2660:.\main.c      ****                                     	case 2:
2661:.\main.c      ****                                     		rf_mod[y]='2';//Corriente
 12644              		.loc 1 2661 0
 12645 4790 97F82E30 		ldrb	r3, [r7, #46]	@ zero_extendqisi2
 12646 4794 754A     		ldr	r2, .L769+36
 12647 4796 3221     		movs	r1, #50
 12648 4798 D154     		strb	r1, [r2, r3]
2662:.\main.c      ****                                     	break;
 12649              		.loc 1 2662 0
 12650 479a 11E0     		b	.L633
 12651              	.L631:
2663:.\main.c      ****                                     	case 3:
2664:.\main.c      ****                                     		rf_mod[y]='3';//Extra
 12652              		.loc 1 2664 0
 12653 479c 97F82E30 		ldrb	r3, [r7, #46]	@ zero_extendqisi2
 12654 47a0 724A     		ldr	r2, .L769+36
 12655 47a2 3321     		movs	r1, #51
 12656 47a4 D154     		strb	r1, [r2, r3]
2665:.\main.c      ****                                     	break;
 12657              		.loc 1 2665 0
 12658 47a6 0BE0     		b	.L633
 12659              	.L632:
2666:.\main.c      ****                                     	case 4:
2667:.\main.c      ****                                     		rf_mod[y]='4';//Supremo diesel
 12660              		.loc 1 2667 0
 12661 47a8 97F82E30 		ldrb	r3, [r7, #46]	@ zero_extendqisi2
 12662 47ac 6F4A     		ldr	r2, .L769+36
 12663 47ae 3421     		movs	r1, #52
 12664 47b0 D154     		strb	r1, [r2, r3]
2668:.\main.c      ****                                     	break;
 12665              		.loc 1 2668 0
 12666 47b2 05E0     		b	.L633
 12667              	.L627:
2669:.\main.c      ****                                         default:
2670:.\main.c      ****                                             rf_mod[y]='0';
 12668              		.loc 1 2670 0
 12669 47b4 97F82E30 		ldrb	r3, [r7, #46]	@ zero_extendqisi2
 12670 47b8 6C4A     		ldr	r2, .L769+36
 12671 47ba 3021     		movs	r1, #48
ARM GAS  C:\Users\RECEPC~1\AppData\Local\Temp\cc8qeTl3.s 			page 275


 12672 47bc D154     		strb	r1, [r2, r3]
2671:.\main.c      ****                                         break;
 12673              		.loc 1 2671 0
 12674 47be 00BF     		nop
 12675              	.L633:
2672:.\main.c      ****                                     }                                                 
2673:.\main.c      ****                                     y++;                                
 12676              		.loc 1 2673 0 discriminator 2
 12677 47c0 97F82E30 		ldrb	r3, [r7, #46]	@ zero_extendqisi2
 12678 47c4 0133     		adds	r3, r3, #1
 12679 47c6 87F82E30 		strb	r3, [r7, #46]
2655:.\main.c      ****                                     switch(lado1.grado[x][0]){
 12680              		.loc 1 2655 0 discriminator 2
 12681 47ca 97F82F30 		ldrb	r3, [r7, #47]	@ zero_extendqisi2
 12682 47ce 0133     		adds	r3, r3, #1
 12683 47d0 87F82F30 		strb	r3, [r7, #47]
 12684              	.L626:
2655:.\main.c      ****                                     switch(lado1.grado[x][0]){
 12685              		.loc 1 2655 0 is_stmt 0 discriminator 1
 12686 47d4 97F82F30 		ldrb	r3, [r7, #47]	@ zero_extendqisi2
 12687 47d8 022B     		cmp	r3, #2
 12688 47da BED9     		bls	.L634
2674:.\main.c      ****                                 }  
2675:.\main.c      ****                                 if(producto1==0){
 12689              		.loc 1 2675 0 is_stmt 1
 12690 47dc 654B     		ldr	r3, .L769+44
 12691 47de 1B78     		ldrb	r3, [r3]	@ zero_extendqisi2
 12692 47e0 002B     		cmp	r3, #0
 12693 47e2 26D1     		bne	.L635
2676:.\main.c      ****                                     y=0;                                    
 12694              		.loc 1 2676 0
 12695 47e4 0023     		movs	r3, #0
 12696 47e6 87F82E30 		strb	r3, [r7, #46]
2677:.\main.c      ****                                     for(x=4;x<=6;x++){
 12697              		.loc 1 2677 0
 12698 47ea 0423     		movs	r3, #4
 12699 47ec 87F82F30 		strb	r3, [r7, #47]
 12700 47f0 1BE0     		b	.L636
 12701              	.L638:
2678:.\main.c      ****                                         if(rf_mod[x]=='1'){
 12702              		.loc 1 2678 0
 12703 47f2 97F82F30 		ldrb	r3, [r7, #47]	@ zero_extendqisi2
 12704 47f6 5D4A     		ldr	r2, .L769+36
 12705 47f8 D35C     		ldrb	r3, [r2, r3]	@ zero_extendqisi2
 12706 47fa 312B     		cmp	r3, #49
 12707 47fc 0BD1     		bne	.L637
2679:.\main.c      ****                                            rf_mod[x]='0';     
 12708              		.loc 1 2679 0
 12709 47fe 97F82F30 		ldrb	r3, [r7, #47]	@ zero_extendqisi2
 12710 4802 5A4A     		ldr	r2, .L769+36
 12711 4804 3021     		movs	r1, #48
 12712 4806 D154     		strb	r1, [r2, r3]
2680:.\main.c      ****                                             lado1.grado[y][0]=0;                                   
 12713              		.loc 1 2680 0
 12714 4808 97F82E30 		ldrb	r3, [r7, #46]	@ zero_extendqisi2
 12715 480c 584A     		ldr	r2, .L769+40
 12716 480e 1344     		add	r3, r3, r2
ARM GAS  C:\Users\RECEPC~1\AppData\Local\Temp\cc8qeTl3.s 			page 276


 12717 4810 0022     		movs	r2, #0
 12718 4812 83F85920 		strb	r2, [r3, #89]
 12719              	.L637:
2681:.\main.c      ****                                         }
2682:.\main.c      ****                                         y++;
 12720              		.loc 1 2682 0 discriminator 2
 12721 4816 97F82E30 		ldrb	r3, [r7, #46]	@ zero_extendqisi2
 12722 481a 0133     		adds	r3, r3, #1
 12723 481c 87F82E30 		strb	r3, [r7, #46]
2677:.\main.c      ****                                         if(rf_mod[x]=='1'){
 12724              		.loc 1 2677 0 discriminator 2
 12725 4820 97F82F30 		ldrb	r3, [r7, #47]	@ zero_extendqisi2
 12726 4824 0133     		adds	r3, r3, #1
 12727 4826 87F82F30 		strb	r3, [r7, #47]
 12728              	.L636:
2677:.\main.c      ****                                         if(rf_mod[x]=='1'){
 12729              		.loc 1 2677 0 is_stmt 0 discriminator 1
 12730 482a 97F82F30 		ldrb	r3, [r7, #47]	@ zero_extendqisi2
 12731 482e 062B     		cmp	r3, #6
 12732 4830 DFD9     		bls	.L638
 12733              	.L635:
2683:.\main.c      ****                                     }
2684:.\main.c      ****                                 }        
2685:.\main.c      ****                                 if(producto2==0){
 12734              		.loc 1 2685 0 is_stmt 1
 12735 4832 514B     		ldr	r3, .L769+48
 12736 4834 1B78     		ldrb	r3, [r3]	@ zero_extendqisi2
 12737 4836 002B     		cmp	r3, #0
 12738 4838 26D1     		bne	.L639
2686:.\main.c      ****                                     y=0;                                    
 12739              		.loc 1 2686 0
 12740 483a 0023     		movs	r3, #0
 12741 483c 87F82E30 		strb	r3, [r7, #46]
2687:.\main.c      ****                                     for(x=4;x<=6;x++){
 12742              		.loc 1 2687 0
 12743 4840 0423     		movs	r3, #4
 12744 4842 87F82F30 		strb	r3, [r7, #47]
 12745 4846 1BE0     		b	.L640
 12746              	.L642:
2688:.\main.c      ****                                         if(rf_mod[x]=='2'){
 12747              		.loc 1 2688 0
 12748 4848 97F82F30 		ldrb	r3, [r7, #47]	@ zero_extendqisi2
 12749 484c 474A     		ldr	r2, .L769+36
 12750 484e D35C     		ldrb	r3, [r2, r3]	@ zero_extendqisi2
 12751 4850 322B     		cmp	r3, #50
 12752 4852 0BD1     		bne	.L641
2689:.\main.c      ****                                            rf_mod[x]='0';     
 12753              		.loc 1 2689 0
 12754 4854 97F82F30 		ldrb	r3, [r7, #47]	@ zero_extendqisi2
 12755 4858 444A     		ldr	r2, .L769+36
 12756 485a 3021     		movs	r1, #48
 12757 485c D154     		strb	r1, [r2, r3]
2690:.\main.c      ****                                             lado1.grado[y][0]=0;                                   
 12758              		.loc 1 2690 0
 12759 485e 97F82E30 		ldrb	r3, [r7, #46]	@ zero_extendqisi2
 12760 4862 434A     		ldr	r2, .L769+40
 12761 4864 1344     		add	r3, r3, r2
ARM GAS  C:\Users\RECEPC~1\AppData\Local\Temp\cc8qeTl3.s 			page 277


 12762 4866 0022     		movs	r2, #0
 12763 4868 83F85920 		strb	r2, [r3, #89]
 12764              	.L641:
2691:.\main.c      ****                                         }
2692:.\main.c      ****                                         y++;
 12765              		.loc 1 2692 0 discriminator 2
 12766 486c 97F82E30 		ldrb	r3, [r7, #46]	@ zero_extendqisi2
 12767 4870 0133     		adds	r3, r3, #1
 12768 4872 87F82E30 		strb	r3, [r7, #46]
2687:.\main.c      ****                                         if(rf_mod[x]=='2'){
 12769              		.loc 1 2687 0 discriminator 2
 12770 4876 97F82F30 		ldrb	r3, [r7, #47]	@ zero_extendqisi2
 12771 487a 0133     		adds	r3, r3, #1
 12772 487c 87F82F30 		strb	r3, [r7, #47]
 12773              	.L640:
2687:.\main.c      ****                                         if(rf_mod[x]=='2'){
 12774              		.loc 1 2687 0 is_stmt 0 discriminator 1
 12775 4880 97F82F30 		ldrb	r3, [r7, #47]	@ zero_extendqisi2
 12776 4884 062B     		cmp	r3, #6
 12777 4886 DFD9     		bls	.L642
 12778              	.L639:
2693:.\main.c      ****                                     }
2694:.\main.c      ****                                 }     
2695:.\main.c      ****                                 if(producto3==0){
 12779              		.loc 1 2695 0 is_stmt 1
 12780 4888 3C4B     		ldr	r3, .L769+52
 12781 488a 1B78     		ldrb	r3, [r3]	@ zero_extendqisi2
 12782 488c 002B     		cmp	r3, #0
 12783 488e 26D1     		bne	.L643
2696:.\main.c      ****                                     y=0;                                    
 12784              		.loc 1 2696 0
 12785 4890 0023     		movs	r3, #0
 12786 4892 87F82E30 		strb	r3, [r7, #46]
2697:.\main.c      ****                                     for(x=4;x<=6;x++){
 12787              		.loc 1 2697 0
 12788 4896 0423     		movs	r3, #4
 12789 4898 87F82F30 		strb	r3, [r7, #47]
 12790 489c 1BE0     		b	.L644
 12791              	.L646:
2698:.\main.c      ****                                         if(rf_mod[x]=='3'){
 12792              		.loc 1 2698 0
 12793 489e 97F82F30 		ldrb	r3, [r7, #47]	@ zero_extendqisi2
 12794 48a2 324A     		ldr	r2, .L769+36
 12795 48a4 D35C     		ldrb	r3, [r2, r3]	@ zero_extendqisi2
 12796 48a6 332B     		cmp	r3, #51
 12797 48a8 0BD1     		bne	.L645
2699:.\main.c      ****                                            rf_mod[x]='0';     
 12798              		.loc 1 2699 0
 12799 48aa 97F82F30 		ldrb	r3, [r7, #47]	@ zero_extendqisi2
 12800 48ae 2F4A     		ldr	r2, .L769+36
 12801 48b0 3021     		movs	r1, #48
 12802 48b2 D154     		strb	r1, [r2, r3]
2700:.\main.c      ****                                             lado1.grado[y][0]=0;                                   
 12803              		.loc 1 2700 0
 12804 48b4 97F82E30 		ldrb	r3, [r7, #46]	@ zero_extendqisi2
 12805 48b8 2D4A     		ldr	r2, .L769+40
 12806 48ba 1344     		add	r3, r3, r2
ARM GAS  C:\Users\RECEPC~1\AppData\Local\Temp\cc8qeTl3.s 			page 278


 12807 48bc 0022     		movs	r2, #0
 12808 48be 83F85920 		strb	r2, [r3, #89]
 12809              	.L645:
2701:.\main.c      ****                                         }
2702:.\main.c      ****                                         y++;
 12810              		.loc 1 2702 0 discriminator 2
 12811 48c2 97F82E30 		ldrb	r3, [r7, #46]	@ zero_extendqisi2
 12812 48c6 0133     		adds	r3, r3, #1
 12813 48c8 87F82E30 		strb	r3, [r7, #46]
2697:.\main.c      ****                                         if(rf_mod[x]=='3'){
 12814              		.loc 1 2697 0 discriminator 2
 12815 48cc 97F82F30 		ldrb	r3, [r7, #47]	@ zero_extendqisi2
 12816 48d0 0133     		adds	r3, r3, #1
 12817 48d2 87F82F30 		strb	r3, [r7, #47]
 12818              	.L644:
2697:.\main.c      ****                                         if(rf_mod[x]=='3'){
 12819              		.loc 1 2697 0 is_stmt 0 discriminator 1
 12820 48d6 97F82F30 		ldrb	r3, [r7, #47]	@ zero_extendqisi2
 12821 48da 062B     		cmp	r3, #6
 12822 48dc DFD9     		bls	.L646
 12823              	.L643:
2703:.\main.c      ****                                     }
2704:.\main.c      ****                                 }
2705:.\main.c      ****                                 if(producto4==0){
 12824              		.loc 1 2705 0 is_stmt 1
 12825 48de 284B     		ldr	r3, .L769+56
 12826 48e0 1B78     		ldrb	r3, [r3]	@ zero_extendqisi2
 12827 48e2 002B     		cmp	r3, #0
 12828 48e4 26D1     		bne	.L647
2706:.\main.c      ****                                     y=0;                                    
 12829              		.loc 1 2706 0
 12830 48e6 0023     		movs	r3, #0
 12831 48e8 87F82E30 		strb	r3, [r7, #46]
2707:.\main.c      ****                                     for(x=4;x<=6;x++){
 12832              		.loc 1 2707 0
 12833 48ec 0423     		movs	r3, #4
 12834 48ee 87F82F30 		strb	r3, [r7, #47]
 12835 48f2 1BE0     		b	.L648
 12836              	.L650:
2708:.\main.c      ****                                         if(rf_mod[x]=='4'){
 12837              		.loc 1 2708 0
 12838 48f4 97F82F30 		ldrb	r3, [r7, #47]	@ zero_extendqisi2
 12839 48f8 1C4A     		ldr	r2, .L769+36
 12840 48fa D35C     		ldrb	r3, [r2, r3]	@ zero_extendqisi2
 12841 48fc 342B     		cmp	r3, #52
 12842 48fe 0BD1     		bne	.L649
2709:.\main.c      ****                                            rf_mod[x]='0';     
 12843              		.loc 1 2709 0
 12844 4900 97F82F30 		ldrb	r3, [r7, #47]	@ zero_extendqisi2
 12845 4904 194A     		ldr	r2, .L769+36
 12846 4906 3021     		movs	r1, #48
 12847 4908 D154     		strb	r1, [r2, r3]
2710:.\main.c      ****                                             lado1.grado[y][0]=0;                                   
 12848              		.loc 1 2710 0
 12849 490a 97F82E30 		ldrb	r3, [r7, #46]	@ zero_extendqisi2
 12850 490e 184A     		ldr	r2, .L769+40
 12851 4910 1344     		add	r3, r3, r2
ARM GAS  C:\Users\RECEPC~1\AppData\Local\Temp\cc8qeTl3.s 			page 279


 12852 4912 0022     		movs	r2, #0
 12853 4914 83F85920 		strb	r2, [r3, #89]
 12854              	.L649:
2711:.\main.c      ****                                         }
2712:.\main.c      ****                                         y++;
 12855              		.loc 1 2712 0 discriminator 2
 12856 4918 97F82E30 		ldrb	r3, [r7, #46]	@ zero_extendqisi2
 12857 491c 0133     		adds	r3, r3, #1
 12858 491e 87F82E30 		strb	r3, [r7, #46]
2707:.\main.c      ****                                         if(rf_mod[x]=='4'){
 12859              		.loc 1 2707 0 discriminator 2
 12860 4922 97F82F30 		ldrb	r3, [r7, #47]	@ zero_extendqisi2
 12861 4926 0133     		adds	r3, r3, #1
 12862 4928 87F82F30 		strb	r3, [r7, #47]
 12863              	.L648:
2707:.\main.c      ****                                         if(rf_mod[x]=='4'){
 12864              		.loc 1 2707 0 is_stmt 0 discriminator 1
 12865 492c 97F82F30 		ldrb	r3, [r7, #47]	@ zero_extendqisi2
 12866 4930 062B     		cmp	r3, #6
 12867 4932 DFD9     		bls	.L650
 12868              	.L647:
2713:.\main.c      ****                                     }
2714:.\main.c      ****                                 }                                                                  
2715:.\main.c      ****                                 rf_mod[7]='*';
 12869              		.loc 1 2715 0 is_stmt 1
 12870 4934 0D4B     		ldr	r3, .L769+36
 12871 4936 2A22     		movs	r2, #42
 12872 4938 DA71     		strb	r2, [r3, #7]
2716:.\main.c      ****     							PC_ClearRxBuffer();				
 12873              		.loc 1 2716 0
 12874 493a FFF7FEFF 		bl	PC_ClearRxBuffer
2717:.\main.c      ****     						    for(x=0;x<=7;x++){
 12875              		.loc 1 2717 0
 12876 493e 0023     		movs	r3, #0
 12877 4940 87F82F30 		strb	r3, [r7, #47]
 12878 4944 2AE0     		b	.L651
 12879              	.L770:
 12880 4946 00BF     		.align	2
 12881              	.L769:
 12882 4948 00000000 		.word	Producto
 12883 494c 00000000 		.word	id_teclado1
 12884 4950 00000000 		.word	count_teclas1
 12885 4954 00000000 		.word	id_coma1
 12886 4958 00000000 		.word	teclas1
 12887 495c 00000000 		.word	posx1
 12888 4960 00000000 		.word	posy1
 12889 4964 00000000 		.word	sizeletra1
 12890 4968 00000000 		.word	flujo_LCD1
 12891 496c 00000000 		.word	rf_mod
 12892 4970 00000000 		.word	lado1
 12893 4974 00000000 		.word	producto1
 12894 4978 00000000 		.word	producto2
 12895 497c 00000000 		.word	producto3
 12896 4980 00000000 		.word	producto4
 12897              	.L652:
2718:.\main.c      ****     							   PC_PutChar(rf_mod[x]);
 12898              		.loc 1 2718 0 discriminator 3
ARM GAS  C:\Users\RECEPC~1\AppData\Local\Temp\cc8qeTl3.s 			page 280


 12899 4984 97F82F30 		ldrb	r3, [r7, #47]	@ zero_extendqisi2
 12900 4988 BE4A     		ldr	r2, .L771
 12901 498a D35C     		ldrb	r3, [r2, r3]	@ zero_extendqisi2
 12902 498c 1846     		mov	r0, r3
 12903 498e FFF7FEFF 		bl	PC_PutChar
2717:.\main.c      ****     						    for(x=0;x<=7;x++){
 12904              		.loc 1 2717 0 discriminator 3
 12905 4992 97F82F30 		ldrb	r3, [r7, #47]	@ zero_extendqisi2
 12906 4996 0133     		adds	r3, r3, #1
 12907 4998 87F82F30 		strb	r3, [r7, #47]
 12908              	.L651:
2717:.\main.c      ****     						    for(x=0;x<=7;x++){
 12909              		.loc 1 2717 0 is_stmt 0 discriminator 1
 12910 499c 97F82F30 		ldrb	r3, [r7, #47]	@ zero_extendqisi2
 12911 49a0 072B     		cmp	r3, #7
 12912 49a2 EFD9     		bls	.L652
2719:.\main.c      ****     						    }                      
2720:.\main.c      ****                                 producto1=1;
 12913              		.loc 1 2720 0 is_stmt 1
 12914 49a4 B84B     		ldr	r3, .L771+4
 12915 49a6 0122     		movs	r2, #1
 12916 49a8 1A70     		strb	r2, [r3]
2721:.\main.c      ****                                 producto2=1;
 12917              		.loc 1 2721 0
 12918 49aa B84B     		ldr	r3, .L771+8
 12919 49ac 0122     		movs	r2, #1
 12920 49ae 1A70     		strb	r2, [r3]
2722:.\main.c      ****                                 producto3=1;
 12921              		.loc 1 2722 0
 12922 49b0 B74B     		ldr	r3, .L771+12
 12923 49b2 0122     		movs	r2, #1
 12924 49b4 1A70     		strb	r2, [r3]
2723:.\main.c      ****                                 producto4=1;                                
 12925              		.loc 1 2723 0
 12926 49b6 B74B     		ldr	r3, .L771+16
 12927 49b8 0122     		movs	r2, #1
 12928 49ba 1A70     		strb	r2, [r3]
2724:.\main.c      ****                                 EEPROM_WriteByte(lado1.grado[0][0],16);
 12929              		.loc 1 2724 0
 12930 49bc B64B     		ldr	r3, .L771+20
 12931 49be 93F85930 		ldrb	r3, [r3, #89]
 12932 49c2 DBB2     		uxtb	r3, r3
 12933 49c4 1846     		mov	r0, r3
 12934 49c6 1021     		movs	r1, #16
 12935 49c8 FFF7FEFF 		bl	EEPROM_WriteByte
2725:.\main.c      ****                                 EEPROM_WriteByte(lado1.grado[1][0],17);
 12936              		.loc 1 2725 0
 12937 49cc B24B     		ldr	r3, .L771+20
 12938 49ce 93F85A30 		ldrb	r3, [r3, #90]
 12939 49d2 DBB2     		uxtb	r3, r3
 12940 49d4 1846     		mov	r0, r3
 12941 49d6 1121     		movs	r1, #17
 12942 49d8 FFF7FEFF 		bl	EEPROM_WriteByte
2726:.\main.c      ****                                 EEPROM_WriteByte(lado1.grado[2][0],18);
 12943              		.loc 1 2726 0
 12944 49dc AE4B     		ldr	r3, .L771+20
 12945 49de 93F85B30 		ldrb	r3, [r3, #91]
ARM GAS  C:\Users\RECEPC~1\AppData\Local\Temp\cc8qeTl3.s 			page 281


 12946 49e2 DBB2     		uxtb	r3, r3
 12947 49e4 1846     		mov	r0, r3
 12948 49e6 1221     		movs	r1, #18
 12949 49e8 FFF7FEFF 		bl	EEPROM_WriteByte
2727:.\main.c      ****     						    set_imagen(1,74);	
 12950              		.loc 1 2727 0
 12951 49ec 0120     		movs	r0, #1
 12952 49ee 4A21     		movs	r1, #74
 12953 49f0 FFF7FEFF 		bl	set_imagen
2728:.\main.c      ****     	                        flujo_LCD1 = 0;    
 12954              		.loc 1 2728 0
 12955 49f4 A94B     		ldr	r3, .L771+24
 12956 49f6 0022     		movs	r2, #0
 12957 49f8 1A70     		strb	r2, [r3]
2729:.\main.c      ****     							lado1.estado=libre;  
 12958              		.loc 1 2729 0
 12959 49fa A74B     		ldr	r3, .L771+20
 12960 49fc 0122     		movs	r2, #1
 12961 49fe 5A70     		strb	r2, [r3, #1]
2730:.\main.c      ****     	                    break;                         
 12962              		.loc 1 2730 0
 12963 4a00 00BF     		nop
 12964              	.L619:
2731:.\main.c      ****                         }
2732:.\main.c      ****                     }
2733:.\main.c      ****                     CyDelay(100);            
 12965              		.loc 1 2733 0
 12966 4a02 6420     		movs	r0, #100
 12967 4a04 FFF7FEFF 		bl	CyDelay
2734:.\main.c      ****     	            LCD_1_ClearRxBuffer();
 12968              		.loc 1 2734 0
 12969 4a08 FFF7FEFF 		bl	LCD_1_ClearRxBuffer
 12970              	.L618:
2735:.\main.c      ****                 }   
2736:.\main.c      ****             }
2737:.\main.c      ****             if(seleccion_pos == 2){							   
 12971              		.loc 1 2737 0
 12972 4a0c A44B     		ldr	r3, .L771+28
 12973 4a0e 1B78     		ldrb	r3, [r3]
 12974 4a10 DBB2     		uxtb	r3, r3
 12975 4a12 022B     		cmp	r3, #2
 12976 4a14 40F01E82 		bne	.L653
2738:.\main.c      ****     	        if(LCD_1_GetRxBufferSize()==8){
 12977              		.loc 1 2738 0
 12978 4a18 FFF7FEFF 		bl	LCD_1_GetRxBufferSize
 12979 4a1c 0346     		mov	r3, r0
 12980 4a1e 082B     		cmp	r3, #8
 12981 4a20 40F01882 		bne	.L653
2739:.\main.c      ****     	            if((LCD_1_rxBuffer[0]==0xAA) && (LCD_1_rxBuffer[6]==0xC3) && (LCD_1_rxBuffer[7]==0
 12982              		.loc 1 2739 0
 12983 4a24 9F4B     		ldr	r3, .L771+32
 12984 4a26 1B78     		ldrb	r3, [r3]
 12985 4a28 DBB2     		uxtb	r3, r3
 12986 4a2a AA2B     		cmp	r3, #170
 12987 4a2c 40F00C82 		bne	.L654
 12988              		.loc 1 2739 0 is_stmt 0 discriminator 1
 12989 4a30 9C4B     		ldr	r3, .L771+32
ARM GAS  C:\Users\RECEPC~1\AppData\Local\Temp\cc8qeTl3.s 			page 282


 12990 4a32 9B79     		ldrb	r3, [r3, #6]
 12991 4a34 DBB2     		uxtb	r3, r3
 12992 4a36 C32B     		cmp	r3, #195
 12993 4a38 40F00682 		bne	.L654
 12994              		.loc 1 2739 0 discriminator 2
 12995 4a3c 994B     		ldr	r3, .L771+32
 12996 4a3e DB79     		ldrb	r3, [r3, #7]
 12997 4a40 DBB2     		uxtb	r3, r3
 12998 4a42 3C2B     		cmp	r3, #60
 12999 4a44 40F00082 		bne	.L654
2740:.\main.c      ****     	                switch(LCD_1_rxBuffer[3]){
 13000              		.loc 1 2740 0 is_stmt 1
 13001 4a48 964B     		ldr	r3, .L771+32
 13002 4a4a DB78     		ldrb	r3, [r3, #3]
 13003 4a4c DBB2     		uxtb	r3, r3
 13004 4a4e 7E3B     		subs	r3, r3, #126
 13005 4a50 042B     		cmp	r3, #4
 13006 4a52 00F2F981 		bhi	.L654
 13007 4a56 01A2     		adr	r2, .L656
 13008 4a58 52F823F0 		ldr	pc, [r2, r3, lsl #2]
 13009              		.p2align 2
 13010              	.L656:
 13011 4a5c 714B0000 		.word	.L655+1
 13012 4a60 F14A0000 		.word	.L657+1
 13013 4a64 714A0000 		.word	.L658+1
 13014 4a68 B14A0000 		.word	.L659+1
 13015 4a6c 314B0000 		.word	.L660+1
 13016              		.p2align 1
 13017              	.L658:
2741:.\main.c      ****                             case 0x80:  //Producto 1
2742:.\main.c      ****                                 Producto=1;                                                    
 13018              		.loc 1 2742 0
 13019 4a70 8D4B     		ldr	r3, .L771+36
 13020 4a72 0122     		movs	r2, #1
 13021 4a74 1A70     		strb	r2, [r3]
2743:.\main.c      ****                                 set_imagen(1,6);  
 13022              		.loc 1 2743 0
 13023 4a76 0120     		movs	r0, #1
 13024 4a78 0621     		movs	r1, #6
 13025 4a7a FFF7FEFF 		bl	set_imagen
2744:.\main.c      ****                                 id_teclado1=7;
 13026              		.loc 1 2744 0
 13027 4a7e 8B4B     		ldr	r3, .L771+40
 13028 4a80 0722     		movs	r2, #7
 13029 4a82 1A70     		strb	r2, [r3]
2745:.\main.c      ****     					        count_teclas1=0;							    //Inicia el contador de teclas	
 13030              		.loc 1 2745 0
 13031 4a84 8A4B     		ldr	r3, .L771+44
 13032 4a86 0022     		movs	r2, #0
 13033 4a88 1A70     		strb	r2, [r3]
2746:.\main.c      ****     					        id_coma1=',';	
 13034              		.loc 1 2746 0
 13035 4a8a 8A4B     		ldr	r3, .L771+48
 13036 4a8c 2C22     		movs	r2, #44
 13037 4a8e 1A70     		strb	r2, [r3]
2747:.\main.c      ****                                 teclas1=1;              						//cantidad de teclas q puede digitar 
 13038              		.loc 1 2747 0
ARM GAS  C:\Users\RECEPC~1\AppData\Local\Temp\cc8qeTl3.s 			page 283


 13039 4a90 894B     		ldr	r3, .L771+52
 13040 4a92 0122     		movs	r2, #1
 13041 4a94 1A70     		strb	r2, [r3]
2748:.\main.c      ****     					        posx1=4;
 13042              		.loc 1 2748 0
 13043 4a96 894B     		ldr	r3, .L771+56
 13044 4a98 0422     		movs	r2, #4
 13045 4a9a 1A80     		strh	r2, [r3]	@ movhi
2749:.\main.c      ****     					        posy1=3;
 13046              		.loc 1 2749 0
 13047 4a9c 884B     		ldr	r3, .L771+60
 13048 4a9e 0322     		movs	r2, #3
 13049 4aa0 1A80     		strh	r2, [r3]	@ movhi
2750:.\main.c      ****     					        sizeletra1=1;  
 13050              		.loc 1 2750 0
 13051 4aa2 884B     		ldr	r3, .L771+64
 13052 4aa4 0122     		movs	r2, #1
 13053 4aa6 1A80     		strh	r2, [r3]	@ movhi
2751:.\main.c      ****                                 flujo_LCD1 = 12;
 13054              		.loc 1 2751 0
 13055 4aa8 7C4B     		ldr	r3, .L771+24
 13056 4aaa 0C22     		movs	r2, #12
 13057 4aac 1A70     		strb	r2, [r3]
2752:.\main.c      ****                             break;
 13058              		.loc 1 2752 0
 13059 4aae CBE1     		b	.L654
 13060              	.L659:
2753:.\main.c      ****                             case 0x81:  //Producto 2
2754:.\main.c      ****                                 Producto=2;                                                    
 13061              		.loc 1 2754 0
 13062 4ab0 7D4B     		ldr	r3, .L771+36
 13063 4ab2 0222     		movs	r2, #2
 13064 4ab4 1A70     		strb	r2, [r3]
2755:.\main.c      ****                                 set_imagen(1,6);  
 13065              		.loc 1 2755 0
 13066 4ab6 0120     		movs	r0, #1
 13067 4ab8 0621     		movs	r1, #6
 13068 4aba FFF7FEFF 		bl	set_imagen
2756:.\main.c      ****                                 id_teclado1=7;
 13069              		.loc 1 2756 0
 13070 4abe 7B4B     		ldr	r3, .L771+40
 13071 4ac0 0722     		movs	r2, #7
 13072 4ac2 1A70     		strb	r2, [r3]
2757:.\main.c      ****     					        count_teclas1=0;							    	
 13073              		.loc 1 2757 0
 13074 4ac4 7A4B     		ldr	r3, .L771+44
 13075 4ac6 0022     		movs	r2, #0
 13076 4ac8 1A70     		strb	r2, [r3]
2758:.\main.c      ****     					        id_coma1=',';	
 13077              		.loc 1 2758 0
 13078 4aca 7A4B     		ldr	r3, .L771+48
 13079 4acc 2C22     		movs	r2, #44
 13080 4ace 1A70     		strb	r2, [r3]
2759:.\main.c      ****                                 teclas1=1;              															
 13081              		.loc 1 2759 0
 13082 4ad0 794B     		ldr	r3, .L771+52
 13083 4ad2 0122     		movs	r2, #1
ARM GAS  C:\Users\RECEPC~1\AppData\Local\Temp\cc8qeTl3.s 			page 284


 13084 4ad4 1A70     		strb	r2, [r3]
2760:.\main.c      ****     					        posx1=4;
 13085              		.loc 1 2760 0
 13086 4ad6 794B     		ldr	r3, .L771+56
 13087 4ad8 0422     		movs	r2, #4
 13088 4ada 1A80     		strh	r2, [r3]	@ movhi
2761:.\main.c      ****     					        posy1=3;
 13089              		.loc 1 2761 0
 13090 4adc 784B     		ldr	r3, .L771+60
 13091 4ade 0322     		movs	r2, #3
 13092 4ae0 1A80     		strh	r2, [r3]	@ movhi
2762:.\main.c      ****     					        sizeletra1=1;  
 13093              		.loc 1 2762 0
 13094 4ae2 784B     		ldr	r3, .L771+64
 13095 4ae4 0122     		movs	r2, #1
 13096 4ae6 1A80     		strh	r2, [r3]	@ movhi
2763:.\main.c      ****                                 flujo_LCD1 = 12;
 13097              		.loc 1 2763 0
 13098 4ae8 6C4B     		ldr	r3, .L771+24
 13099 4aea 0C22     		movs	r2, #12
 13100 4aec 1A70     		strb	r2, [r3]
2764:.\main.c      ****                             break;                            
 13101              		.loc 1 2764 0
 13102 4aee ABE1     		b	.L654
 13103              	.L657:
2765:.\main.c      ****                             case 0x7F:  //Producto 3
2766:.\main.c      ****                                 Producto=3;                                                    
 13104              		.loc 1 2766 0
 13105 4af0 6D4B     		ldr	r3, .L771+36
 13106 4af2 0322     		movs	r2, #3
 13107 4af4 1A70     		strb	r2, [r3]
2767:.\main.c      ****                                 set_imagen(1,6);  
 13108              		.loc 1 2767 0
 13109 4af6 0120     		movs	r0, #1
 13110 4af8 0621     		movs	r1, #6
 13111 4afa FFF7FEFF 		bl	set_imagen
2768:.\main.c      ****                                 id_teclado1=7;
 13112              		.loc 1 2768 0
 13113 4afe 6B4B     		ldr	r3, .L771+40
 13114 4b00 0722     		movs	r2, #7
 13115 4b02 1A70     		strb	r2, [r3]
2769:.\main.c      ****     					        count_teclas1=0;							    
 13116              		.loc 1 2769 0
 13117 4b04 6A4B     		ldr	r3, .L771+44
 13118 4b06 0022     		movs	r2, #0
 13119 4b08 1A70     		strb	r2, [r3]
2770:.\main.c      ****     					        id_coma1=',';	
 13120              		.loc 1 2770 0
 13121 4b0a 6A4B     		ldr	r3, .L771+48
 13122 4b0c 2C22     		movs	r2, #44
 13123 4b0e 1A70     		strb	r2, [r3]
2771:.\main.c      ****                                 teclas1=1;              													
 13124              		.loc 1 2771 0
 13125 4b10 694B     		ldr	r3, .L771+52
 13126 4b12 0122     		movs	r2, #1
 13127 4b14 1A70     		strb	r2, [r3]
2772:.\main.c      ****     					        posx1=4;
ARM GAS  C:\Users\RECEPC~1\AppData\Local\Temp\cc8qeTl3.s 			page 285


 13128              		.loc 1 2772 0
 13129 4b16 694B     		ldr	r3, .L771+56
 13130 4b18 0422     		movs	r2, #4
 13131 4b1a 1A80     		strh	r2, [r3]	@ movhi
2773:.\main.c      ****     					        posy1=3;
 13132              		.loc 1 2773 0
 13133 4b1c 684B     		ldr	r3, .L771+60
 13134 4b1e 0322     		movs	r2, #3
 13135 4b20 1A80     		strh	r2, [r3]	@ movhi
2774:.\main.c      ****     					        sizeletra1=1;                      
 13136              		.loc 1 2774 0
 13137 4b22 684B     		ldr	r3, .L771+64
 13138 4b24 0122     		movs	r2, #1
 13139 4b26 1A80     		strh	r2, [r3]	@ movhi
2775:.\main.c      ****                                 flujo_LCD1 = 12;
 13140              		.loc 1 2775 0
 13141 4b28 5C4B     		ldr	r3, .L771+24
 13142 4b2a 0C22     		movs	r2, #12
 13143 4b2c 1A70     		strb	r2, [r3]
2776:.\main.c      ****                             break;                            
 13144              		.loc 1 2776 0
 13145 4b2e 8BE1     		b	.L654
 13146              	.L660:
2777:.\main.c      ****                             case 0x82:  //Producto 4
2778:.\main.c      ****                                 Producto=4;                                                   
 13147              		.loc 1 2778 0
 13148 4b30 5D4B     		ldr	r3, .L771+36
 13149 4b32 0422     		movs	r2, #4
 13150 4b34 1A70     		strb	r2, [r3]
2779:.\main.c      ****                                 set_imagen(1,6);  
 13151              		.loc 1 2779 0
 13152 4b36 0120     		movs	r0, #1
 13153 4b38 0621     		movs	r1, #6
 13154 4b3a FFF7FEFF 		bl	set_imagen
2780:.\main.c      ****                                 id_teclado1=7;
 13155              		.loc 1 2780 0
 13156 4b3e 5B4B     		ldr	r3, .L771+40
 13157 4b40 0722     		movs	r2, #7
 13158 4b42 1A70     		strb	r2, [r3]
2781:.\main.c      ****     					        count_teclas1=0;							    	
 13159              		.loc 1 2781 0
 13160 4b44 5A4B     		ldr	r3, .L771+44
 13161 4b46 0022     		movs	r2, #0
 13162 4b48 1A70     		strb	r2, [r3]
2782:.\main.c      ****     					        id_coma1=',';	
 13163              		.loc 1 2782 0
 13164 4b4a 5A4B     		ldr	r3, .L771+48
 13165 4b4c 2C22     		movs	r2, #44
 13166 4b4e 1A70     		strb	r2, [r3]
2783:.\main.c      ****                                 teclas1=1;              														
 13167              		.loc 1 2783 0
 13168 4b50 594B     		ldr	r3, .L771+52
 13169 4b52 0122     		movs	r2, #1
 13170 4b54 1A70     		strb	r2, [r3]
2784:.\main.c      ****     					        posx1=4;
 13171              		.loc 1 2784 0
 13172 4b56 594B     		ldr	r3, .L771+56
ARM GAS  C:\Users\RECEPC~1\AppData\Local\Temp\cc8qeTl3.s 			page 286


 13173 4b58 0422     		movs	r2, #4
 13174 4b5a 1A80     		strh	r2, [r3]	@ movhi
2785:.\main.c      ****     					        posy1=3;
 13175              		.loc 1 2785 0
 13176 4b5c 584B     		ldr	r3, .L771+60
 13177 4b5e 0322     		movs	r2, #3
 13178 4b60 1A80     		strh	r2, [r3]	@ movhi
2786:.\main.c      ****     					        sizeletra1=1;        
 13179              		.loc 1 2786 0
 13180 4b62 584B     		ldr	r3, .L771+64
 13181 4b64 0122     		movs	r2, #1
 13182 4b66 1A80     		strh	r2, [r3]	@ movhi
2787:.\main.c      ****                                 flujo_LCD1 = 12;
 13183              		.loc 1 2787 0
 13184 4b68 4C4B     		ldr	r3, .L771+24
 13185 4b6a 0C22     		movs	r2, #12
 13186 4b6c 1A70     		strb	r2, [r3]
2788:.\main.c      ****                             break;                     
 13187              		.loc 1 2788 0
 13188 4b6e 6BE1     		b	.L654
 13189              	.L655:
2789:.\main.c      ****     	                    case 0x7E:	//Envía datos al Beagle de productos 
2790:.\main.c      ****                             	rf_mod[0]='M';
 13190              		.loc 1 2790 0
 13191 4b70 444B     		ldr	r3, .L771
 13192 4b72 4D22     		movs	r2, #77
 13193 4b74 1A70     		strb	r2, [r3]
2791:.\main.c      ****     			                rf_mod[1]='U';
 13194              		.loc 1 2791 0
 13195 4b76 434B     		ldr	r3, .L771
 13196 4b78 5522     		movs	r2, #85
 13197 4b7a 5A70     		strb	r2, [r3, #1]
2792:.\main.c      ****     			                rf_mod[2]='X';
 13198              		.loc 1 2792 0
 13199 4b7c 414B     		ldr	r3, .L771
 13200 4b7e 5822     		movs	r2, #88
 13201 4b80 9A70     		strb	r2, [r3, #2]
2793:.\main.c      ****     			                rf_mod[3]='4'; 
 13202              		.loc 1 2793 0
 13203 4b82 404B     		ldr	r3, .L771
 13204 4b84 3422     		movs	r2, #52
 13205 4b86 DA70     		strb	r2, [r3, #3]
2794:.\main.c      ****                                 y=4;
 13206              		.loc 1 2794 0
 13207 4b88 0423     		movs	r3, #4
 13208 4b8a 87F82E30 		strb	r3, [r7, #46]
2795:.\main.c      ****                                 for(x=0;x<=2;x++){
 13209              		.loc 1 2795 0
 13210 4b8e 0023     		movs	r3, #0
 13211 4b90 87F82F30 		strb	r3, [r7, #47]
 13212 4b94 3CE0     		b	.L661
 13213              	.L669:
2796:.\main.c      ****                                     switch(lado2.grado[x][0]){
 13214              		.loc 1 2796 0
 13215 4b96 97F82F30 		ldrb	r3, [r7, #47]	@ zero_extendqisi2
 13216 4b9a 4B4A     		ldr	r2, .L771+68
 13217 4b9c 1344     		add	r3, r3, r2
ARM GAS  C:\Users\RECEPC~1\AppData\Local\Temp\cc8qeTl3.s 			page 287


 13218 4b9e 93F85930 		ldrb	r3, [r3, #89]
 13219 4ba2 DBB2     		uxtb	r3, r3
 13220 4ba4 013B     		subs	r3, r3, #1
 13221 4ba6 032B     		cmp	r3, #3
 13222 4ba8 22D8     		bhi	.L662
 13223 4baa 01A2     		adr	r2, .L664
 13224 4bac 52F823F0 		ldr	pc, [r2, r3, lsl #2]
 13225              		.p2align 2
 13226              	.L664:
 13227 4bb0 C14B0000 		.word	.L663+1
 13228 4bb4 CD4B0000 		.word	.L665+1
 13229 4bb8 D94B0000 		.word	.L666+1
 13230 4bbc E54B0000 		.word	.L667+1
 13231              		.p2align 1
 13232              	.L663:
2797:.\main.c      ****                                     	case 1:
2798:.\main.c      ****                                     		rf_mod[y]='1';//Diesel
 13233              		.loc 1 2798 0
 13234 4bc0 97F82E30 		ldrb	r3, [r7, #46]	@ zero_extendqisi2
 13235 4bc4 2F4A     		ldr	r2, .L771
 13236 4bc6 3121     		movs	r1, #49
 13237 4bc8 D154     		strb	r1, [r2, r3]
2799:.\main.c      ****                                     	break;
 13238              		.loc 1 2799 0
 13239 4bca 17E0     		b	.L668
 13240              	.L665:
2800:.\main.c      ****                                     	case 2:
2801:.\main.c      ****                                     		rf_mod[y]='2';//Corriente
 13241              		.loc 1 2801 0
 13242 4bcc 97F82E30 		ldrb	r3, [r7, #46]	@ zero_extendqisi2
 13243 4bd0 2C4A     		ldr	r2, .L771
 13244 4bd2 3221     		movs	r1, #50
 13245 4bd4 D154     		strb	r1, [r2, r3]
2802:.\main.c      ****                                     	break;
 13246              		.loc 1 2802 0
 13247 4bd6 11E0     		b	.L668
 13248              	.L666:
2803:.\main.c      ****                                     	case 3:
2804:.\main.c      ****                                     		rf_mod[y]='3';//Extra
 13249              		.loc 1 2804 0
 13250 4bd8 97F82E30 		ldrb	r3, [r7, #46]	@ zero_extendqisi2
 13251 4bdc 294A     		ldr	r2, .L771
 13252 4bde 3321     		movs	r1, #51
 13253 4be0 D154     		strb	r1, [r2, r3]
2805:.\main.c      ****                                     	break;
 13254              		.loc 1 2805 0
 13255 4be2 0BE0     		b	.L668
 13256              	.L667:
2806:.\main.c      ****                                     	case 4:
2807:.\main.c      ****                                     		rf_mod[y]='4';//Supremo diesel
 13257              		.loc 1 2807 0
 13258 4be4 97F82E30 		ldrb	r3, [r7, #46]	@ zero_extendqisi2
 13259 4be8 264A     		ldr	r2, .L771
 13260 4bea 3421     		movs	r1, #52
 13261 4bec D154     		strb	r1, [r2, r3]
2808:.\main.c      ****                                     	break;
 13262              		.loc 1 2808 0
ARM GAS  C:\Users\RECEPC~1\AppData\Local\Temp\cc8qeTl3.s 			page 288


 13263 4bee 05E0     		b	.L668
 13264              	.L662:
2809:.\main.c      ****                                         default:
2810:.\main.c      ****                                             rf_mod[y]='0';
 13265              		.loc 1 2810 0
 13266 4bf0 97F82E30 		ldrb	r3, [r7, #46]	@ zero_extendqisi2
 13267 4bf4 234A     		ldr	r2, .L771
 13268 4bf6 3021     		movs	r1, #48
 13269 4bf8 D154     		strb	r1, [r2, r3]
2811:.\main.c      ****                                         break;
 13270              		.loc 1 2811 0
 13271 4bfa 00BF     		nop
 13272              	.L668:
2812:.\main.c      ****                                     }                                                 
2813:.\main.c      ****                                     y++;                                
 13273              		.loc 1 2813 0 discriminator 2
 13274 4bfc 97F82E30 		ldrb	r3, [r7, #46]	@ zero_extendqisi2
 13275 4c00 0133     		adds	r3, r3, #1
 13276 4c02 87F82E30 		strb	r3, [r7, #46]
2795:.\main.c      ****                                     switch(lado2.grado[x][0]){
 13277              		.loc 1 2795 0 discriminator 2
 13278 4c06 97F82F30 		ldrb	r3, [r7, #47]	@ zero_extendqisi2
 13279 4c0a 0133     		adds	r3, r3, #1
 13280 4c0c 87F82F30 		strb	r3, [r7, #47]
 13281              	.L661:
2795:.\main.c      ****                                     switch(lado2.grado[x][0]){
 13282              		.loc 1 2795 0 is_stmt 0 discriminator 1
 13283 4c10 97F82F30 		ldrb	r3, [r7, #47]	@ zero_extendqisi2
 13284 4c14 022B     		cmp	r3, #2
 13285 4c16 BED9     		bls	.L669
2814:.\main.c      ****                                 }  
2815:.\main.c      ****                                 if(producto1==0){
 13286              		.loc 1 2815 0 is_stmt 1
 13287 4c18 1B4B     		ldr	r3, .L771+4
 13288 4c1a 1B78     		ldrb	r3, [r3]	@ zero_extendqisi2
 13289 4c1c 002B     		cmp	r3, #0
 13290 4c1e 26D1     		bne	.L670
2816:.\main.c      ****                                     y=0;                                    
 13291              		.loc 1 2816 0
 13292 4c20 0023     		movs	r3, #0
 13293 4c22 87F82E30 		strb	r3, [r7, #46]
2817:.\main.c      ****                                     for(x=4;x<=6;x++){
 13294              		.loc 1 2817 0
 13295 4c26 0423     		movs	r3, #4
 13296 4c28 87F82F30 		strb	r3, [r7, #47]
 13297 4c2c 1BE0     		b	.L671
 13298              	.L673:
2818:.\main.c      ****                                         if(rf_mod[x]=='1'){
 13299              		.loc 1 2818 0
 13300 4c2e 97F82F30 		ldrb	r3, [r7, #47]	@ zero_extendqisi2
 13301 4c32 144A     		ldr	r2, .L771
 13302 4c34 D35C     		ldrb	r3, [r2, r3]	@ zero_extendqisi2
 13303 4c36 312B     		cmp	r3, #49
 13304 4c38 0BD1     		bne	.L672
2819:.\main.c      ****                                            rf_mod[x]='0';     
 13305              		.loc 1 2819 0
 13306 4c3a 97F82F30 		ldrb	r3, [r7, #47]	@ zero_extendqisi2
ARM GAS  C:\Users\RECEPC~1\AppData\Local\Temp\cc8qeTl3.s 			page 289


 13307 4c3e 114A     		ldr	r2, .L771
 13308 4c40 3021     		movs	r1, #48
 13309 4c42 D154     		strb	r1, [r2, r3]
2820:.\main.c      ****                                             lado2.grado[y][0]=0;                                   
 13310              		.loc 1 2820 0
 13311 4c44 97F82E30 		ldrb	r3, [r7, #46]	@ zero_extendqisi2
 13312 4c48 1F4A     		ldr	r2, .L771+68
 13313 4c4a 1344     		add	r3, r3, r2
 13314 4c4c 0022     		movs	r2, #0
 13315 4c4e 83F85920 		strb	r2, [r3, #89]
 13316              	.L672:
2821:.\main.c      ****                                         }
2822:.\main.c      ****                                         y++;
 13317              		.loc 1 2822 0 discriminator 2
 13318 4c52 97F82E30 		ldrb	r3, [r7, #46]	@ zero_extendqisi2
 13319 4c56 0133     		adds	r3, r3, #1
 13320 4c58 87F82E30 		strb	r3, [r7, #46]
2817:.\main.c      ****                                         if(rf_mod[x]=='1'){
 13321              		.loc 1 2817 0 discriminator 2
 13322 4c5c 97F82F30 		ldrb	r3, [r7, #47]	@ zero_extendqisi2
 13323 4c60 0133     		adds	r3, r3, #1
 13324 4c62 87F82F30 		strb	r3, [r7, #47]
 13325              	.L671:
2817:.\main.c      ****                                         if(rf_mod[x]=='1'){
 13326              		.loc 1 2817 0 is_stmt 0 discriminator 1
 13327 4c66 97F82F30 		ldrb	r3, [r7, #47]	@ zero_extendqisi2
 13328 4c6a 062B     		cmp	r3, #6
 13329 4c6c DFD9     		bls	.L673
 13330              	.L670:
2823:.\main.c      ****                                     }
2824:.\main.c      ****                                 }        
2825:.\main.c      ****                                 if(producto2==0){
 13331              		.loc 1 2825 0 is_stmt 1
 13332 4c6e 074B     		ldr	r3, .L771+8
 13333 4c70 1B78     		ldrb	r3, [r3]	@ zero_extendqisi2
 13334 4c72 002B     		cmp	r3, #0
 13335 4c74 4AD1     		bne	.L674
2826:.\main.c      ****                                     y=0;                                    
 13336              		.loc 1 2826 0
 13337 4c76 0023     		movs	r3, #0
 13338 4c78 87F82E30 		strb	r3, [r7, #46]
2827:.\main.c      ****                                     for(x=4;x<=6;x++){
 13339              		.loc 1 2827 0
 13340 4c7c 0423     		movs	r3, #4
 13341 4c7e 87F82F30 		strb	r3, [r7, #47]
 13342 4c82 3FE0     		b	.L675
 13343              	.L772:
 13344              		.align	2
 13345              	.L771:
 13346 4c84 00000000 		.word	rf_mod
 13347 4c88 00000000 		.word	producto1
 13348 4c8c 00000000 		.word	producto2
 13349 4c90 00000000 		.word	producto3
 13350 4c94 00000000 		.word	producto4
 13351 4c98 00000000 		.word	lado1
 13352 4c9c 00000000 		.word	flujo_LCD1
 13353 4ca0 00000000 		.word	seleccion_pos
ARM GAS  C:\Users\RECEPC~1\AppData\Local\Temp\cc8qeTl3.s 			page 290


 13354 4ca4 00000000 		.word	LCD_1_rxBuffer
 13355 4ca8 00000000 		.word	Producto
 13356 4cac 00000000 		.word	id_teclado1
 13357 4cb0 00000000 		.word	count_teclas1
 13358 4cb4 00000000 		.word	id_coma1
 13359 4cb8 00000000 		.word	teclas1
 13360 4cbc 00000000 		.word	posx1
 13361 4cc0 00000000 		.word	posy1
 13362 4cc4 00000000 		.word	sizeletra1
 13363 4cc8 00000000 		.word	lado2
 13364              	.L677:
2828:.\main.c      ****                                         if(rf_mod[x]=='2'){
 13365              		.loc 1 2828 0
 13366 4ccc 97F82F30 		ldrb	r3, [r7, #47]	@ zero_extendqisi2
 13367 4cd0 C54A     		ldr	r2, .L773
 13368 4cd2 D35C     		ldrb	r3, [r2, r3]	@ zero_extendqisi2
 13369 4cd4 322B     		cmp	r3, #50
 13370 4cd6 0BD1     		bne	.L676
2829:.\main.c      ****                                            rf_mod[x]='0';     
 13371              		.loc 1 2829 0
 13372 4cd8 97F82F30 		ldrb	r3, [r7, #47]	@ zero_extendqisi2
 13373 4cdc C24A     		ldr	r2, .L773
 13374 4cde 3021     		movs	r1, #48
 13375 4ce0 D154     		strb	r1, [r2, r3]
2830:.\main.c      ****                                             lado2.grado[y][0]=0;                                   
 13376              		.loc 1 2830 0
 13377 4ce2 97F82E30 		ldrb	r3, [r7, #46]	@ zero_extendqisi2
 13378 4ce6 C14A     		ldr	r2, .L773+4
 13379 4ce8 1344     		add	r3, r3, r2
 13380 4cea 0022     		movs	r2, #0
 13381 4cec 83F85920 		strb	r2, [r3, #89]
 13382              	.L676:
2831:.\main.c      ****                                         }
2832:.\main.c      ****                                         y++;
 13383              		.loc 1 2832 0 discriminator 2
 13384 4cf0 97F82E30 		ldrb	r3, [r7, #46]	@ zero_extendqisi2
 13385 4cf4 0133     		adds	r3, r3, #1
 13386 4cf6 87F82E30 		strb	r3, [r7, #46]
2827:.\main.c      ****                                         if(rf_mod[x]=='2'){
 13387              		.loc 1 2827 0 discriminator 2
 13388 4cfa 97F82F30 		ldrb	r3, [r7, #47]	@ zero_extendqisi2
 13389 4cfe 0133     		adds	r3, r3, #1
 13390 4d00 87F82F30 		strb	r3, [r7, #47]
 13391              	.L675:
2827:.\main.c      ****                                         if(rf_mod[x]=='2'){
 13392              		.loc 1 2827 0 is_stmt 0 discriminator 1
 13393 4d04 97F82F30 		ldrb	r3, [r7, #47]	@ zero_extendqisi2
 13394 4d08 062B     		cmp	r3, #6
 13395 4d0a DFD9     		bls	.L677
 13396              	.L674:
2833:.\main.c      ****                                     }
2834:.\main.c      ****                                 }     
2835:.\main.c      ****                                 if(producto3==0){
 13397              		.loc 1 2835 0 is_stmt 1
 13398 4d0c B84B     		ldr	r3, .L773+8
 13399 4d0e 1B78     		ldrb	r3, [r3]	@ zero_extendqisi2
 13400 4d10 002B     		cmp	r3, #0
ARM GAS  C:\Users\RECEPC~1\AppData\Local\Temp\cc8qeTl3.s 			page 291


 13401 4d12 26D1     		bne	.L678
2836:.\main.c      ****                                     y=0;                                    
 13402              		.loc 1 2836 0
 13403 4d14 0023     		movs	r3, #0
 13404 4d16 87F82E30 		strb	r3, [r7, #46]
2837:.\main.c      ****                                     for(x=4;x<=6;x++){
 13405              		.loc 1 2837 0
 13406 4d1a 0423     		movs	r3, #4
 13407 4d1c 87F82F30 		strb	r3, [r7, #47]
 13408 4d20 1BE0     		b	.L679
 13409              	.L681:
2838:.\main.c      ****                                         if(rf_mod[x]=='3'){
 13410              		.loc 1 2838 0
 13411 4d22 97F82F30 		ldrb	r3, [r7, #47]	@ zero_extendqisi2
 13412 4d26 B04A     		ldr	r2, .L773
 13413 4d28 D35C     		ldrb	r3, [r2, r3]	@ zero_extendqisi2
 13414 4d2a 332B     		cmp	r3, #51
 13415 4d2c 0BD1     		bne	.L680
2839:.\main.c      ****                                            rf_mod[x]='0';     
 13416              		.loc 1 2839 0
 13417 4d2e 97F82F30 		ldrb	r3, [r7, #47]	@ zero_extendqisi2
 13418 4d32 AD4A     		ldr	r2, .L773
 13419 4d34 3021     		movs	r1, #48
 13420 4d36 D154     		strb	r1, [r2, r3]
2840:.\main.c      ****                                             lado2.grado[y][0]=0;                                   
 13421              		.loc 1 2840 0
 13422 4d38 97F82E30 		ldrb	r3, [r7, #46]	@ zero_extendqisi2
 13423 4d3c AB4A     		ldr	r2, .L773+4
 13424 4d3e 1344     		add	r3, r3, r2
 13425 4d40 0022     		movs	r2, #0
 13426 4d42 83F85920 		strb	r2, [r3, #89]
 13427              	.L680:
2841:.\main.c      ****                                         }
2842:.\main.c      ****                                         y++;
 13428              		.loc 1 2842 0 discriminator 2
 13429 4d46 97F82E30 		ldrb	r3, [r7, #46]	@ zero_extendqisi2
 13430 4d4a 0133     		adds	r3, r3, #1
 13431 4d4c 87F82E30 		strb	r3, [r7, #46]
2837:.\main.c      ****                                         if(rf_mod[x]=='3'){
 13432              		.loc 1 2837 0 discriminator 2
 13433 4d50 97F82F30 		ldrb	r3, [r7, #47]	@ zero_extendqisi2
 13434 4d54 0133     		adds	r3, r3, #1
 13435 4d56 87F82F30 		strb	r3, [r7, #47]
 13436              	.L679:
2837:.\main.c      ****                                         if(rf_mod[x]=='3'){
 13437              		.loc 1 2837 0 is_stmt 0 discriminator 1
 13438 4d5a 97F82F30 		ldrb	r3, [r7, #47]	@ zero_extendqisi2
 13439 4d5e 062B     		cmp	r3, #6
 13440 4d60 DFD9     		bls	.L681
 13441              	.L678:
2843:.\main.c      ****                                     }
2844:.\main.c      ****                                 }
2845:.\main.c      ****                                 if(producto4==0){
 13442              		.loc 1 2845 0 is_stmt 1
 13443 4d62 A44B     		ldr	r3, .L773+12
 13444 4d64 1B78     		ldrb	r3, [r3]	@ zero_extendqisi2
 13445 4d66 002B     		cmp	r3, #0
ARM GAS  C:\Users\RECEPC~1\AppData\Local\Temp\cc8qeTl3.s 			page 292


 13446 4d68 26D1     		bne	.L682
2846:.\main.c      ****                                     y=0;                                    
 13447              		.loc 1 2846 0
 13448 4d6a 0023     		movs	r3, #0
 13449 4d6c 87F82E30 		strb	r3, [r7, #46]
2847:.\main.c      ****                                     for(x=4;x<=6;x++){
 13450              		.loc 1 2847 0
 13451 4d70 0423     		movs	r3, #4
 13452 4d72 87F82F30 		strb	r3, [r7, #47]
 13453 4d76 1BE0     		b	.L683
 13454              	.L685:
2848:.\main.c      ****                                         if(rf_mod[x]=='4'){
 13455              		.loc 1 2848 0
 13456 4d78 97F82F30 		ldrb	r3, [r7, #47]	@ zero_extendqisi2
 13457 4d7c 9A4A     		ldr	r2, .L773
 13458 4d7e D35C     		ldrb	r3, [r2, r3]	@ zero_extendqisi2
 13459 4d80 342B     		cmp	r3, #52
 13460 4d82 0BD1     		bne	.L684
2849:.\main.c      ****                                            rf_mod[x]='0';     
 13461              		.loc 1 2849 0
 13462 4d84 97F82F30 		ldrb	r3, [r7, #47]	@ zero_extendqisi2
 13463 4d88 974A     		ldr	r2, .L773
 13464 4d8a 3021     		movs	r1, #48
 13465 4d8c D154     		strb	r1, [r2, r3]
2850:.\main.c      ****                                             lado2.grado[y][0]=0;                                   
 13466              		.loc 1 2850 0
 13467 4d8e 97F82E30 		ldrb	r3, [r7, #46]	@ zero_extendqisi2
 13468 4d92 964A     		ldr	r2, .L773+4
 13469 4d94 1344     		add	r3, r3, r2
 13470 4d96 0022     		movs	r2, #0
 13471 4d98 83F85920 		strb	r2, [r3, #89]
 13472              	.L684:
2851:.\main.c      ****                                         }
2852:.\main.c      ****                                         y++;
 13473              		.loc 1 2852 0 discriminator 2
 13474 4d9c 97F82E30 		ldrb	r3, [r7, #46]	@ zero_extendqisi2
 13475 4da0 0133     		adds	r3, r3, #1
 13476 4da2 87F82E30 		strb	r3, [r7, #46]
2847:.\main.c      ****                                         if(rf_mod[x]=='4'){
 13477              		.loc 1 2847 0 discriminator 2
 13478 4da6 97F82F30 		ldrb	r3, [r7, #47]	@ zero_extendqisi2
 13479 4daa 0133     		adds	r3, r3, #1
 13480 4dac 87F82F30 		strb	r3, [r7, #47]
 13481              	.L683:
2847:.\main.c      ****                                         if(rf_mod[x]=='4'){
 13482              		.loc 1 2847 0 is_stmt 0 discriminator 1
 13483 4db0 97F82F30 		ldrb	r3, [r7, #47]	@ zero_extendqisi2
 13484 4db4 062B     		cmp	r3, #6
 13485 4db6 DFD9     		bls	.L685
 13486              	.L682:
2853:.\main.c      ****                                     }
2854:.\main.c      ****                                 }                                                                  
2855:.\main.c      ****                                 rf_mod[7]='*';
 13487              		.loc 1 2855 0 is_stmt 1
 13488 4db8 8B4B     		ldr	r3, .L773
 13489 4dba 2A22     		movs	r2, #42
 13490 4dbc DA71     		strb	r2, [r3, #7]
ARM GAS  C:\Users\RECEPC~1\AppData\Local\Temp\cc8qeTl3.s 			page 293


2856:.\main.c      ****     							PC_ClearRxBuffer();				
 13491              		.loc 1 2856 0
 13492 4dbe FFF7FEFF 		bl	PC_ClearRxBuffer
2857:.\main.c      ****     						    for(x=0;x<=7;x++){
 13493              		.loc 1 2857 0
 13494 4dc2 0023     		movs	r3, #0
 13495 4dc4 87F82F30 		strb	r3, [r7, #47]
 13496 4dc8 0BE0     		b	.L686
 13497              	.L687:
2858:.\main.c      ****     							   PC_PutChar(rf_mod[x]);
 13498              		.loc 1 2858 0 discriminator 3
 13499 4dca 97F82F30 		ldrb	r3, [r7, #47]	@ zero_extendqisi2
 13500 4dce 864A     		ldr	r2, .L773
 13501 4dd0 D35C     		ldrb	r3, [r2, r3]	@ zero_extendqisi2
 13502 4dd2 1846     		mov	r0, r3
 13503 4dd4 FFF7FEFF 		bl	PC_PutChar
2857:.\main.c      ****     						    for(x=0;x<=7;x++){
 13504              		.loc 1 2857 0 discriminator 3
 13505 4dd8 97F82F30 		ldrb	r3, [r7, #47]	@ zero_extendqisi2
 13506 4ddc 0133     		adds	r3, r3, #1
 13507 4dde 87F82F30 		strb	r3, [r7, #47]
 13508              	.L686:
2857:.\main.c      ****     						    for(x=0;x<=7;x++){
 13509              		.loc 1 2857 0 is_stmt 0 discriminator 1
 13510 4de2 97F82F30 		ldrb	r3, [r7, #47]	@ zero_extendqisi2
 13511 4de6 072B     		cmp	r3, #7
 13512 4de8 EFD9     		bls	.L687
2859:.\main.c      ****     						    }                      
2860:.\main.c      ****                                 producto1=1;
 13513              		.loc 1 2860 0 is_stmt 1
 13514 4dea 834B     		ldr	r3, .L773+16
 13515 4dec 0122     		movs	r2, #1
 13516 4dee 1A70     		strb	r2, [r3]
2861:.\main.c      ****                                 producto2=1;
 13517              		.loc 1 2861 0
 13518 4df0 824B     		ldr	r3, .L773+20
 13519 4df2 0122     		movs	r2, #1
 13520 4df4 1A70     		strb	r2, [r3]
2862:.\main.c      ****                                 producto3=1;
 13521              		.loc 1 2862 0
 13522 4df6 7E4B     		ldr	r3, .L773+8
 13523 4df8 0122     		movs	r2, #1
 13524 4dfa 1A70     		strb	r2, [r3]
2863:.\main.c      ****                                 producto4=1;                                
 13525              		.loc 1 2863 0
 13526 4dfc 7D4B     		ldr	r3, .L773+12
 13527 4dfe 0122     		movs	r2, #1
 13528 4e00 1A70     		strb	r2, [r3]
2864:.\main.c      ****                                 EEPROM_WriteByte(lado2.grado[0][0],16);
 13529              		.loc 1 2864 0
 13530 4e02 7A4B     		ldr	r3, .L773+4
 13531 4e04 93F85930 		ldrb	r3, [r3, #89]
 13532 4e08 DBB2     		uxtb	r3, r3
 13533 4e0a 1846     		mov	r0, r3
 13534 4e0c 1021     		movs	r1, #16
 13535 4e0e FFF7FEFF 		bl	EEPROM_WriteByte
2865:.\main.c      ****                                 EEPROM_WriteByte(lado2.grado[1][0],17);
ARM GAS  C:\Users\RECEPC~1\AppData\Local\Temp\cc8qeTl3.s 			page 294


 13536              		.loc 1 2865 0
 13537 4e12 764B     		ldr	r3, .L773+4
 13538 4e14 93F85A30 		ldrb	r3, [r3, #90]
 13539 4e18 DBB2     		uxtb	r3, r3
 13540 4e1a 1846     		mov	r0, r3
 13541 4e1c 1121     		movs	r1, #17
 13542 4e1e FFF7FEFF 		bl	EEPROM_WriteByte
2866:.\main.c      ****                                 EEPROM_WriteByte(lado2.grado[2][0],18);  // eeprom de productos
 13543              		.loc 1 2866 0
 13544 4e22 724B     		ldr	r3, .L773+4
 13545 4e24 93F85B30 		ldrb	r3, [r3, #91]
 13546 4e28 DBB2     		uxtb	r3, r3
 13547 4e2a 1846     		mov	r0, r3
 13548 4e2c 1221     		movs	r1, #18
 13549 4e2e FFF7FEFF 		bl	EEPROM_WriteByte
2867:.\main.c      ****     						    set_imagen(1,74);	
 13550              		.loc 1 2867 0
 13551 4e32 0120     		movs	r0, #1
 13552 4e34 4A21     		movs	r1, #74
 13553 4e36 FFF7FEFF 		bl	set_imagen
2868:.\main.c      ****     	                        flujo_LCD1 = 0;    
 13554              		.loc 1 2868 0
 13555 4e3a 714B     		ldr	r3, .L773+24
 13556 4e3c 0022     		movs	r2, #0
 13557 4e3e 1A70     		strb	r2, [r3]
2869:.\main.c      ****     							lado2.estado=libre;  
 13558              		.loc 1 2869 0
 13559 4e40 6A4B     		ldr	r3, .L773+4
 13560 4e42 0122     		movs	r2, #1
 13561 4e44 5A70     		strb	r2, [r3, #1]
2870:.\main.c      ****     	                    break;                         
 13562              		.loc 1 2870 0
 13563 4e46 00BF     		nop
 13564              	.L654:
2871:.\main.c      ****                         }
2872:.\main.c      ****                     }
2873:.\main.c      ****                     CyDelay(100);            
 13565              		.loc 1 2873 0
 13566 4e48 6420     		movs	r0, #100
 13567 4e4a FFF7FEFF 		bl	CyDelay
2874:.\main.c      ****     	            LCD_1_ClearRxBuffer();
 13568              		.loc 1 2874 0
 13569 4e4e FFF7FEFF 		bl	LCD_1_ClearRxBuffer
2875:.\main.c      ****                 }   
2876:.\main.c      ****             }
2877:.\main.c      ****         break;
 13570              		.loc 1 2877 0
 13571 4e52 0BE1     		b	.L131
 13572              	.L653:
 13573              		.loc 1 2877 0 is_stmt 0 discriminator 20
 13574 4e54 0AE1     		b	.L131
 13575              	.L151:
2878:.\main.c      ****             
2879:.\main.c      ****         case 19:
2880:.\main.c      **** 			rf_mod[0]='M';
 13576              		.loc 1 2880 0 is_stmt 1
 13577 4e56 644B     		ldr	r3, .L773
ARM GAS  C:\Users\RECEPC~1\AppData\Local\Temp\cc8qeTl3.s 			page 295


 13578 4e58 4D22     		movs	r2, #77
 13579 4e5a 1A70     		strb	r2, [r3]
2881:.\main.c      **** 			rf_mod[1]='U';
 13580              		.loc 1 2881 0
 13581 4e5c 624B     		ldr	r3, .L773
 13582 4e5e 5522     		movs	r2, #85
 13583 4e60 5A70     		strb	r2, [r3, #1]
2882:.\main.c      **** 			rf_mod[2]='X';
 13584              		.loc 1 2882 0
 13585 4e62 614B     		ldr	r3, .L773
 13586 4e64 5822     		movs	r2, #88
 13587 4e66 9A70     		strb	r2, [r3, #2]
2883:.\main.c      **** 			rf_mod[3]='5';  
 13588              		.loc 1 2883 0
 13589 4e68 5F4B     		ldr	r3, .L773
 13590 4e6a 3522     		movs	r2, #53
 13591 4e6c DA70     		strb	r2, [r3, #3]
2884:.\main.c      ****             if(seleccion_pos == 1){
 13592              		.loc 1 2884 0
 13593 4e6e 654B     		ldr	r3, .L773+28
 13594 4e70 1B78     		ldrb	r3, [r3]
 13595 4e72 DBB2     		uxtb	r3, r3
 13596 4e74 012B     		cmp	r3, #1
 13597 4e76 65D1     		bne	.L688
2885:.\main.c      **** 			    for(x=0;x<=15;x++){						//Serial				
 13598              		.loc 1 2885 0
 13599 4e78 0023     		movs	r3, #0
 13600 4e7a 87F82F30 		strb	r3, [r7, #47]
 13601 4e7e 3AE0     		b	.L689
 13602              	.L692:
2886:.\main.c      **** 				    y=(rventa1.id[x/2]>>4)&0x0F;
 13603              		.loc 1 2886 0
 13604 4e80 97F82F30 		ldrb	r3, [r7, #47]	@ zero_extendqisi2
 13605 4e84 5B08     		lsrs	r3, r3, #1
 13606 4e86 DBB2     		uxtb	r3, r3
 13607 4e88 1A46     		mov	r2, r3
 13608 4e8a 5F4B     		ldr	r3, .L773+32
 13609 4e8c 1344     		add	r3, r3, r2
 13610 4e8e 93F82330 		ldrb	r3, [r3, #35]	@ zero_extendqisi2
 13611 4e92 1B09     		lsrs	r3, r3, #4
 13612 4e94 87F82E30 		strb	r3, [r7, #46]
2887:.\main.c      **** 				    if((x%2)==0){
 13613              		.loc 1 2887 0
 13614 4e98 97F82F30 		ldrb	r3, [r7, #47]
 13615 4e9c 03F00103 		and	r3, r3, #1
 13616 4ea0 DBB2     		uxtb	r3, r3
 13617 4ea2 002B     		cmp	r3, #0
 13618 4ea4 0CD1     		bne	.L690
2888:.\main.c      **** 					    y=rventa1.id[x/2]&0x0F;
 13619              		.loc 1 2888 0
 13620 4ea6 97F82F30 		ldrb	r3, [r7, #47]	@ zero_extendqisi2
 13621 4eaa 5B08     		lsrs	r3, r3, #1
 13622 4eac DBB2     		uxtb	r3, r3
 13623 4eae 1A46     		mov	r2, r3
 13624 4eb0 554B     		ldr	r3, .L773+32
 13625 4eb2 1344     		add	r3, r3, r2
 13626 4eb4 93F82330 		ldrb	r3, [r3, #35]	@ zero_extendqisi2
ARM GAS  C:\Users\RECEPC~1\AppData\Local\Temp\cc8qeTl3.s 			page 296


 13627 4eb8 03F00F03 		and	r3, r3, #15
 13628 4ebc 87F82E30 		strb	r3, [r7, #46]
 13629              	.L690:
2889:.\main.c      **** 				    }
2890:.\main.c      **** 				    rf_mod[x+4] = y+48;
 13630              		.loc 1 2890 0
 13631 4ec0 97F82F30 		ldrb	r3, [r7, #47]	@ zero_extendqisi2
 13632 4ec4 0433     		adds	r3, r3, #4
 13633 4ec6 97F82E20 		ldrb	r2, [r7, #46]
 13634 4eca 3032     		adds	r2, r2, #48
 13635 4ecc D1B2     		uxtb	r1, r2
 13636 4ece 464A     		ldr	r2, .L773
 13637 4ed0 D154     		strb	r1, [r2, r3]
2891:.\main.c      **** 				    if(y>9){
 13638              		.loc 1 2891 0
 13639 4ed2 97F82E30 		ldrb	r3, [r7, #46]	@ zero_extendqisi2
 13640 4ed6 092B     		cmp	r3, #9
 13641 4ed8 08D9     		bls	.L691
2892:.\main.c      **** 					    rf_mod[x+4] = y+55;
 13642              		.loc 1 2892 0
 13643 4eda 97F82F30 		ldrb	r3, [r7, #47]	@ zero_extendqisi2
 13644 4ede 0433     		adds	r3, r3, #4
 13645 4ee0 97F82E20 		ldrb	r2, [r7, #46]
 13646 4ee4 3732     		adds	r2, r2, #55
 13647 4ee6 D1B2     		uxtb	r1, r2
 13648 4ee8 3F4A     		ldr	r2, .L773
 13649 4eea D154     		strb	r1, [r2, r3]
 13650              	.L691:
2885:.\main.c      **** 				    y=(rventa1.id[x/2]>>4)&0x0F;
 13651              		.loc 1 2885 0 discriminator 2
 13652 4eec 97F82F30 		ldrb	r3, [r7, #47]	@ zero_extendqisi2
 13653 4ef0 0133     		adds	r3, r3, #1
 13654 4ef2 87F82F30 		strb	r3, [r7, #47]
 13655              	.L689:
2885:.\main.c      **** 				    y=(rventa1.id[x/2]>>4)&0x0F;
 13656              		.loc 1 2885 0 is_stmt 0 discriminator 1
 13657 4ef6 97F82F30 		ldrb	r3, [r7, #47]	@ zero_extendqisi2
 13658 4efa 0F2B     		cmp	r3, #15
 13659 4efc C0D9     		bls	.L692
2893:.\main.c      **** 				    }
2894:.\main.c      **** 			    }            
2895:.\main.c      ****     			rf_mod[20]='*';					
 13660              		.loc 1 2895 0 is_stmt 1
 13661 4efe 3A4B     		ldr	r3, .L773
 13662 4f00 2A22     		movs	r2, #42
 13663 4f02 1A75     		strb	r2, [r3, #20]
2896:.\main.c      ****     			PC_ClearRxBuffer();
 13664              		.loc 1 2896 0
 13665 4f04 FFF7FEFF 		bl	PC_ClearRxBuffer
2897:.\main.c      ****                 for(x=0;x<=20;x++){
 13666              		.loc 1 2897 0
 13667 4f08 0023     		movs	r3, #0
 13668 4f0a 87F82F30 		strb	r3, [r7, #47]
 13669 4f0e 0BE0     		b	.L693
 13670              	.L694:
2898:.\main.c      ****     			    PC_PutChar(rf_mod[x]);
 13671              		.loc 1 2898 0 discriminator 3
ARM GAS  C:\Users\RECEPC~1\AppData\Local\Temp\cc8qeTl3.s 			page 297


 13672 4f10 97F82F30 		ldrb	r3, [r7, #47]	@ zero_extendqisi2
 13673 4f14 344A     		ldr	r2, .L773
 13674 4f16 D35C     		ldrb	r3, [r2, r3]	@ zero_extendqisi2
 13675 4f18 1846     		mov	r0, r3
 13676 4f1a FFF7FEFF 		bl	PC_PutChar
2897:.\main.c      ****                 for(x=0;x<=20;x++){
 13677              		.loc 1 2897 0 discriminator 3
 13678 4f1e 97F82F30 		ldrb	r3, [r7, #47]	@ zero_extendqisi2
 13679 4f22 0133     		adds	r3, r3, #1
 13680 4f24 87F82F30 		strb	r3, [r7, #47]
 13681              	.L693:
2897:.\main.c      ****                 for(x=0;x<=20;x++){
 13682              		.loc 1 2897 0 is_stmt 0 discriminator 1
 13683 4f28 97F82F30 		ldrb	r3, [r7, #47]	@ zero_extendqisi2
 13684 4f2c 142B     		cmp	r3, #20
 13685 4f2e EFD9     		bls	.L694
2899:.\main.c      ****     			}
2900:.\main.c      ****                 set_imagen(1,0);	
 13686              		.loc 1 2900 0 is_stmt 1
 13687 4f30 0120     		movs	r0, #1
 13688 4f32 0021     		movs	r1, #0
 13689 4f34 FFF7FEFF 		bl	set_imagen
2901:.\main.c      ****     	        flujo_LCD1 = 0;    
 13690              		.loc 1 2901 0
 13691 4f38 314B     		ldr	r3, .L773+24
 13692 4f3a 0022     		movs	r2, #0
 13693 4f3c 1A70     		strb	r2, [r3]
2902:.\main.c      ****     			lado1.estado=libre;            
 13694              		.loc 1 2902 0
 13695 4f3e 334B     		ldr	r3, .L773+36
 13696 4f40 0122     		movs	r2, #1
 13697 4f42 5A70     		strb	r2, [r3, #1]
 13698              	.L688:
2903:.\main.c      ****             }
2904:.\main.c      ****             if(seleccion_pos == 2){
 13699              		.loc 1 2904 0
 13700 4f44 2F4B     		ldr	r3, .L773+28
 13701 4f46 1B78     		ldrb	r3, [r3]
 13702 4f48 DBB2     		uxtb	r3, r3
 13703 4f4a 022B     		cmp	r3, #2
 13704 4f4c 7DD1     		bne	.L695
2905:.\main.c      **** 			    for(x=0;x<=15;x++){						//Serial				
 13705              		.loc 1 2905 0
 13706 4f4e 0023     		movs	r3, #0
 13707 4f50 87F82F30 		strb	r3, [r7, #47]
 13708 4f54 3AE0     		b	.L696
 13709              	.L699:
2906:.\main.c      **** 				    y=(rventa2.id[x/2]>>4)&0x0F;
 13710              		.loc 1 2906 0
 13711 4f56 97F82F30 		ldrb	r3, [r7, #47]	@ zero_extendqisi2
 13712 4f5a 5B08     		lsrs	r3, r3, #1
 13713 4f5c DBB2     		uxtb	r3, r3
 13714 4f5e 1A46     		mov	r2, r3
 13715 4f60 2B4B     		ldr	r3, .L773+40
 13716 4f62 1344     		add	r3, r3, r2
 13717 4f64 93F82330 		ldrb	r3, [r3, #35]	@ zero_extendqisi2
 13718 4f68 1B09     		lsrs	r3, r3, #4
ARM GAS  C:\Users\RECEPC~1\AppData\Local\Temp\cc8qeTl3.s 			page 298


 13719 4f6a 87F82E30 		strb	r3, [r7, #46]
2907:.\main.c      **** 				    if((x%2)==0){
 13720              		.loc 1 2907 0
 13721 4f6e 97F82F30 		ldrb	r3, [r7, #47]
 13722 4f72 03F00103 		and	r3, r3, #1
 13723 4f76 DBB2     		uxtb	r3, r3
 13724 4f78 002B     		cmp	r3, #0
 13725 4f7a 0CD1     		bne	.L697
2908:.\main.c      **** 					    y=rventa2.id[x/2]&0x0F;
 13726              		.loc 1 2908 0
 13727 4f7c 97F82F30 		ldrb	r3, [r7, #47]	@ zero_extendqisi2
 13728 4f80 5B08     		lsrs	r3, r3, #1
 13729 4f82 DBB2     		uxtb	r3, r3
 13730 4f84 1A46     		mov	r2, r3
 13731 4f86 224B     		ldr	r3, .L773+40
 13732 4f88 1344     		add	r3, r3, r2
 13733 4f8a 93F82330 		ldrb	r3, [r3, #35]	@ zero_extendqisi2
 13734 4f8e 03F00F03 		and	r3, r3, #15
 13735 4f92 87F82E30 		strb	r3, [r7, #46]
 13736              	.L697:
2909:.\main.c      **** 				    }
2910:.\main.c      **** 				    rf_mod[x+4] = y+48;
 13737              		.loc 1 2910 0
 13738 4f96 97F82F30 		ldrb	r3, [r7, #47]	@ zero_extendqisi2
 13739 4f9a 0433     		adds	r3, r3, #4
 13740 4f9c 97F82E20 		ldrb	r2, [r7, #46]
 13741 4fa0 3032     		adds	r2, r2, #48
 13742 4fa2 D1B2     		uxtb	r1, r2
 13743 4fa4 104A     		ldr	r2, .L773
 13744 4fa6 D154     		strb	r1, [r2, r3]
2911:.\main.c      **** 				    if(y>9){
 13745              		.loc 1 2911 0
 13746 4fa8 97F82E30 		ldrb	r3, [r7, #46]	@ zero_extendqisi2
 13747 4fac 092B     		cmp	r3, #9
 13748 4fae 08D9     		bls	.L698
2912:.\main.c      **** 					    rf_mod[x+4] = y+55;
 13749              		.loc 1 2912 0
 13750 4fb0 97F82F30 		ldrb	r3, [r7, #47]	@ zero_extendqisi2
 13751 4fb4 0433     		adds	r3, r3, #4
 13752 4fb6 97F82E20 		ldrb	r2, [r7, #46]
 13753 4fba 3732     		adds	r2, r2, #55
 13754 4fbc D1B2     		uxtb	r1, r2
 13755 4fbe 0A4A     		ldr	r2, .L773
 13756 4fc0 D154     		strb	r1, [r2, r3]
 13757              	.L698:
2905:.\main.c      **** 				    y=(rventa2.id[x/2]>>4)&0x0F;
 13758              		.loc 1 2905 0 discriminator 2
 13759 4fc2 97F82F30 		ldrb	r3, [r7, #47]	@ zero_extendqisi2
 13760 4fc6 0133     		adds	r3, r3, #1
 13761 4fc8 87F82F30 		strb	r3, [r7, #47]
 13762              	.L696:
2905:.\main.c      **** 				    y=(rventa2.id[x/2]>>4)&0x0F;
 13763              		.loc 1 2905 0 is_stmt 0 discriminator 1
 13764 4fcc 97F82F30 		ldrb	r3, [r7, #47]	@ zero_extendqisi2
 13765 4fd0 0F2B     		cmp	r3, #15
 13766 4fd2 C0D9     		bls	.L699
2913:.\main.c      **** 				    }
ARM GAS  C:\Users\RECEPC~1\AppData\Local\Temp\cc8qeTl3.s 			page 299


2914:.\main.c      **** 			    }            
2915:.\main.c      ****     			rf_mod[20]='*';					
 13767              		.loc 1 2915 0 is_stmt 1
 13768 4fd4 044B     		ldr	r3, .L773
 13769 4fd6 2A22     		movs	r2, #42
 13770 4fd8 1A75     		strb	r2, [r3, #20]
2916:.\main.c      ****     			PC_ClearRxBuffer();
 13771              		.loc 1 2916 0
 13772 4fda FFF7FEFF 		bl	PC_ClearRxBuffer
2917:.\main.c      ****                 for(x=0;x<=20;x++){
 13773              		.loc 1 2917 0
 13774 4fde 0023     		movs	r3, #0
 13775 4fe0 87F82F30 		strb	r3, [r7, #47]
 13776 4fe4 22E0     		b	.L700
 13777              	.L774:
 13778 4fe6 00BF     		.align	2
 13779              	.L773:
 13780 4fe8 00000000 		.word	rf_mod
 13781 4fec 00000000 		.word	lado2
 13782 4ff0 00000000 		.word	producto3
 13783 4ff4 00000000 		.word	producto4
 13784 4ff8 00000000 		.word	producto1
 13785 4ffc 00000000 		.word	producto2
 13786 5000 00000000 		.word	flujo_LCD1
 13787 5004 00000000 		.word	seleccion_pos
 13788 5008 00000000 		.word	rventa1
 13789 500c 00000000 		.word	lado1
 13790 5010 00000000 		.word	rventa2
 13791              	.L701:
2918:.\main.c      ****     			    PC_PutChar(rf_mod[x]);
 13792              		.loc 1 2918 0 discriminator 3
 13793 5014 97F82F30 		ldrb	r3, [r7, #47]	@ zero_extendqisi2
 13794 5018 164A     		ldr	r2, .L775
 13795 501a D35C     		ldrb	r3, [r2, r3]	@ zero_extendqisi2
 13796 501c 1846     		mov	r0, r3
 13797 501e FFF7FEFF 		bl	PC_PutChar
2917:.\main.c      ****                 for(x=0;x<=20;x++){
 13798              		.loc 1 2917 0 discriminator 3
 13799 5022 97F82F30 		ldrb	r3, [r7, #47]	@ zero_extendqisi2
 13800 5026 0133     		adds	r3, r3, #1
 13801 5028 87F82F30 		strb	r3, [r7, #47]
 13802              	.L700:
2917:.\main.c      ****                 for(x=0;x<=20;x++){
 13803              		.loc 1 2917 0 is_stmt 0 discriminator 1
 13804 502c 97F82F30 		ldrb	r3, [r7, #47]	@ zero_extendqisi2
 13805 5030 142B     		cmp	r3, #20
 13806 5032 EFD9     		bls	.L701
2919:.\main.c      ****     			}
2920:.\main.c      ****                 set_imagen(1,0);	
 13807              		.loc 1 2920 0 is_stmt 1
 13808 5034 0120     		movs	r0, #1
 13809 5036 0021     		movs	r1, #0
 13810 5038 FFF7FEFF 		bl	set_imagen
2921:.\main.c      ****     	        flujo_LCD1 = 0;    
 13811              		.loc 1 2921 0
 13812 503c 0E4B     		ldr	r3, .L775+4
 13813 503e 0022     		movs	r2, #0
ARM GAS  C:\Users\RECEPC~1\AppData\Local\Temp\cc8qeTl3.s 			page 300


 13814 5040 1A70     		strb	r2, [r3]
2922:.\main.c      ****     			lado2.estado=libre;            
 13815              		.loc 1 2922 0
 13816 5042 0E4B     		ldr	r3, .L775+8
 13817 5044 0122     		movs	r2, #1
 13818 5046 5A70     		strb	r2, [r3, #1]
2923:.\main.c      ****             }
2924:.\main.c      **** 		break;    
 13819              		.loc 1 2924 0
 13820 5048 10E0     		b	.L131
 13821              	.L695:
 13822              		.loc 1 2924 0 is_stmt 0 discriminator 21
 13823 504a 0FE0     		b	.L131
 13824              	.L154:
2925:.\main.c      ****         
2926:.\main.c      ****             
2927:.\main.c      ****         case 102:
2928:.\main.c      ****             
2929:.\main.c      ****             
2930:.\main.c      ****         break;
2931:.\main.c      ****             
2932:.\main.c      ****         case 100:  
2933:.\main.c      ****          if(count_protector>=4){
 13825              		.loc 1 2933 0 is_stmt 1
 13826 504c 0C4B     		ldr	r3, .L775+12
 13827 504e 1B78     		ldrb	r3, [r3]
 13828 5050 DBB2     		uxtb	r3, r3
 13829 5052 032B     		cmp	r3, #3
 13830 5054 09D9     		bls	.L702
2934:.\main.c      ****             flujo_LCD1=0;
 13831              		.loc 1 2934 0
 13832 5056 084B     		ldr	r3, .L775+4
 13833 5058 0022     		movs	r2, #0
 13834 505a 1A70     		strb	r2, [r3]
2935:.\main.c      ****             isr_3_Stop(); 
 13835              		.loc 1 2935 0
 13836 505c FFF7FEFF 		bl	isr_3_Stop
2936:.\main.c      ****             Timer_Animacion_Stop(); 
 13837              		.loc 1 2936 0
 13838 5060 FFF7FEFF 		bl	Timer_Animacion_Stop
2937:.\main.c      ****             count_protector=0;
 13839              		.loc 1 2937 0
 13840 5064 064B     		ldr	r3, .L775+12
 13841 5066 0022     		movs	r2, #0
 13842 5068 1A70     		strb	r2, [r3]
 13843              	.L702:
2938:.\main.c      ****          }            
2939:.\main.c      ****         break;
 13844              		.loc 1 2939 0 discriminator 23
 13845 506a 00BF     		nop
 13846              	.L131:
2940:.\main.c      ****             
2941:.\main.c      ****             
2942:.\main.c      ****             
2943:.\main.c      ****     }
2944:.\main.c      ****     }
 13847              		.loc 1 2944 0
ARM GAS  C:\Users\RECEPC~1\AppData\Local\Temp\cc8qeTl3.s 			page 301


 13848 506c 3037     		adds	r7, r7, #48
 13849              		.cfi_def_cfa_offset 16
 13850 506e BD46     		mov	sp, r7
 13851              		.cfi_def_cfa_register 13
 13852              		@ sp needed
 13853 5070 B0BD     		pop	{r4, r5, r7, pc}
 13854              	.L776:
 13855 5072 00BF     		.align	2
 13856              	.L775:
 13857 5074 00000000 		.word	rf_mod
 13858 5078 00000000 		.word	flujo_LCD1
 13859 507c 00000000 		.word	lado2
 13860 5080 00000000 		.word	count_protector
 13861              		.cfi_endproc
 13862              	.LFE70:
 13863              		.size	polling_LCD1, .-polling_LCD1
 13864              		.section	.text.polling_LCD2,"ax",%progbits
 13865              		.align	2
 13866              		.global	polling_LCD2
 13867              		.thumb
 13868              		.thumb_func
 13869              		.type	polling_LCD2, %function
 13870              	polling_LCD2:
 13871              	.LFB71:
2945:.\main.c      **** 
2946:.\main.c      **** 
2947:.\main.c      **** 
2948:.\main.c      **** /*
2949:.\main.c      **** ***************************************************************************************************
2950:.\main.c      **** *                                         void polling_LCD2(void)
2951:.\main.c      **** *
2952:.\main.c      **** * Description : 
2953:.\main.c      **** *               
2954:.\main.c      **** *
2955:.\main.c      **** * Argument(s) : none
2956:.\main.c      **** *
2957:.\main.c      **** * Return(s)   : none
2958:.\main.c      **** *
2959:.\main.c      **** * Caller(s)   : 
2960:.\main.c      **** *
2961:.\main.c      **** * Note(s)     : none.
2962:.\main.c      **** ***************************************************************************************************
2963:.\main.c      **** */
2964:.\main.c      **** 
2965:.\main.c      **** void polling_LCD2(void){ 
 13872              		.loc 1 2965 0
 13873              		.cfi_startproc
 13874              		@ args = 0, pretend = 0, frame = 0
 13875              		@ frame_needed = 1, uses_anonymous_args = 0
 13876              		@ link register save eliminated.
 13877 0000 80B4     		push	{r7}
 13878              		.cfi_def_cfa_offset 4
 13879              		.cfi_offset 7, -4
 13880 0002 00AF     		add	r7, sp, #0
 13881              		.cfi_def_cfa_register 7
2966:.\main.c      ****     
2967:.\main.c      ****     
ARM GAS  C:\Users\RECEPC~1\AppData\Local\Temp\cc8qeTl3.s 			page 302


2968:.\main.c      **** }
 13882              		.loc 1 2968 0
 13883 0004 BD46     		mov	sp, r7
 13884              		.cfi_def_cfa_register 13
 13885              		@ sp needed
 13886 0006 5DF8047B 		ldr	r7, [sp], #4
 13887              		.cfi_restore 7
 13888              		.cfi_def_cfa_offset 0
 13889 000a 7047     		bx	lr
 13890              		.cfi_endproc
 13891              	.LFE71:
 13892              		.size	polling_LCD2, .-polling_LCD2
 13893              		.section	.text.polling_wd,"ax",%progbits
 13894              		.align	2
 13895              		.global	polling_wd
 13896              		.thumb
 13897              		.thumb_func
 13898              		.type	polling_wd, %function
 13899              	polling_wd:
 13900              	.LFB72:
2969:.\main.c      **** 
2970:.\main.c      **** /*
2971:.\main.c      **** ***************************************************************************************************
2972:.\main.c      **** *                                        void polling_wd(void)
2973:.\main.c      **** *
2974:.\main.c      **** * Description : 
2975:.\main.c      **** *               
2976:.\main.c      **** *
2977:.\main.c      **** * Argument(s) : none
2978:.\main.c      **** *
2979:.\main.c      **** * Return(s)   : none
2980:.\main.c      **** *
2981:.\main.c      **** * Caller(s)   : 
2982:.\main.c      **** *
2983:.\main.c      **** * Note(s)     : none.
2984:.\main.c      **** ***************************************************************************************************
2985:.\main.c      **** */
2986:.\main.c      **** void polling_wd(void){
 13901              		.loc 1 2986 0
 13902              		.cfi_startproc
 13903              		@ args = 0, pretend = 0, frame = 0
 13904              		@ frame_needed = 1, uses_anonymous_args = 0
 13905              		@ link register save eliminated.
 13906 0000 80B4     		push	{r7}
 13907              		.cfi_def_cfa_offset 4
 13908              		.cfi_offset 7, -4
 13909 0002 00AF     		add	r7, sp, #0
 13910              		.cfi_def_cfa_register 7
2987:.\main.c      **** 
2988:.\main.c      **** }
 13911              		.loc 1 2988 0
 13912 0004 BD46     		mov	sp, r7
 13913              		.cfi_def_cfa_register 13
 13914              		@ sp needed
 13915 0006 5DF8047B 		ldr	r7, [sp], #4
 13916              		.cfi_restore 7
 13917              		.cfi_def_cfa_offset 0
ARM GAS  C:\Users\RECEPC~1\AppData\Local\Temp\cc8qeTl3.s 			page 303


 13918 000a 7047     		bx	lr
 13919              		.cfi_endproc
 13920              	.LFE72:
 13921              		.size	polling_wd, .-polling_wd
 13922              		.section	.text.animacion,"ax",%progbits
 13923              		.align	2
 13924              		.global	animacion
 13925              		.thumb
 13926              		.thumb_func
 13927              		.type	animacion, %function
 13928              	animacion:
 13929              	.LFB73:
2989:.\main.c      **** 
2990:.\main.c      **** /*
2991:.\main.c      **** ***************************************************************************************************
2992:.\main.c      **** *                                         CY_ISR(animacion)
2993:.\main.c      **** *
2994:.\main.c      **** * Description : 
2995:.\main.c      **** *               
2996:.\main.c      **** *
2997:.\main.c      **** * Argument(s) : none
2998:.\main.c      **** *
2999:.\main.c      **** * Return(s)   : none
3000:.\main.c      **** *
3001:.\main.c      **** * Caller(s)   : 
3002:.\main.c      **** *
3003:.\main.c      **** * Note(s)     : none.
3004:.\main.c      **** ***************************************************************************************************
3005:.\main.c      **** */
3006:.\main.c      **** CY_ISR(animacion){
 13930              		.loc 1 3006 0
 13931              		.cfi_startproc
 13932              		@ args = 0, pretend = 0, frame = 0
 13933              		@ frame_needed = 1, uses_anonymous_args = 0
 13934 0000 80B5     		push	{r7, lr}
 13935              		.cfi_def_cfa_offset 8
 13936              		.cfi_offset 7, -8
 13937              		.cfi_offset 14, -4
 13938 0002 00AF     		add	r7, sp, #0
 13939              		.cfi_def_cfa_register 7
3007:.\main.c      ****     Timer_Animacion_ReadStatusRegister();
 13940              		.loc 1 3007 0
 13941 0004 FFF7FEFF 		bl	Timer_Animacion_ReadStatusRegister
3008:.\main.c      ****     if(flujo_LCD1==1){
 13942              		.loc 1 3008 0
 13943 0008 184B     		ldr	r3, .L784
 13944 000a 1B78     		ldrb	r3, [r3]
 13945 000c DBB2     		uxtb	r3, r3
 13946 000e 012B     		cmp	r3, #1
 13947 0010 24D1     		bne	.L780
3009:.\main.c      ****         if(count_protector<=6){
 13948              		.loc 1 3009 0
 13949 0012 174B     		ldr	r3, .L784+4
 13950 0014 1B78     		ldrb	r3, [r3]
 13951 0016 DBB2     		uxtb	r3, r3
 13952 0018 062B     		cmp	r3, #6
 13953 001a 11D8     		bhi	.L781
ARM GAS  C:\Users\RECEPC~1\AppData\Local\Temp\cc8qeTl3.s 			page 304


3010:.\main.c      ****             count_protector++;
 13954              		.loc 1 3010 0
 13955 001c 144B     		ldr	r3, .L784+4
 13956 001e 1B78     		ldrb	r3, [r3]
 13957 0020 DBB2     		uxtb	r3, r3
 13958 0022 0133     		adds	r3, r3, #1
 13959 0024 DAB2     		uxtb	r2, r3
 13960 0026 124B     		ldr	r3, .L784+4
 13961 0028 1A70     		strb	r2, [r3]
3011:.\main.c      ****             set_imagen(1,(iprotector5+count_protector));  
 13962              		.loc 1 3011 0
 13963 002a 114B     		ldr	r3, .L784+4
 13964 002c 1B78     		ldrb	r3, [r3]
 13965 002e DBB2     		uxtb	r3, r3
 13966 0030 9BB2     		uxth	r3, r3
 13967 0032 1433     		adds	r3, r3, #20
 13968 0034 9BB2     		uxth	r3, r3
 13969 0036 0120     		movs	r0, #1
 13970 0038 1946     		mov	r1, r3
 13971 003a FFF7FEFF 		bl	set_imagen
 13972 003e 14E0     		b	.L779
 13973              	.L781:
3012:.\main.c      ****         }
3013:.\main.c      ****         else{
3014:.\main.c      ****            count_protector=0; 
 13974              		.loc 1 3014 0
 13975 0040 0B4B     		ldr	r3, .L784+4
 13976 0042 0022     		movs	r2, #0
 13977 0044 1A70     		strb	r2, [r3]
3015:.\main.c      ****            set_imagen(1,(iprotector5+count_protector));  
 13978              		.loc 1 3015 0
 13979 0046 0A4B     		ldr	r3, .L784+4
 13980 0048 1B78     		ldrb	r3, [r3]
 13981 004a DBB2     		uxtb	r3, r3
 13982 004c 9BB2     		uxth	r3, r3
 13983 004e 1433     		adds	r3, r3, #20
 13984 0050 9BB2     		uxth	r3, r3
 13985 0052 0120     		movs	r0, #1
 13986 0054 1946     		mov	r1, r3
 13987 0056 FFF7FEFF 		bl	set_imagen
 13988 005a 06E0     		b	.L779
 13989              	.L780:
3016:.\main.c      ****         }
3017:.\main.c      ****     }
3018:.\main.c      ****     else{
3019:.\main.c      ****         count_protector++;
 13990              		.loc 1 3019 0
 13991 005c 044B     		ldr	r3, .L784+4
 13992 005e 1B78     		ldrb	r3, [r3]
 13993 0060 DBB2     		uxtb	r3, r3
 13994 0062 0133     		adds	r3, r3, #1
 13995 0064 DAB2     		uxtb	r2, r3
 13996 0066 024B     		ldr	r3, .L784+4
 13997 0068 1A70     		strb	r2, [r3]
 13998              	.L779:
3020:.\main.c      ****     }
3021:.\main.c      **** }
ARM GAS  C:\Users\RECEPC~1\AppData\Local\Temp\cc8qeTl3.s 			page 305


 13999              		.loc 1 3021 0
 14000 006a 80BD     		pop	{r7, pc}
 14001              	.L785:
 14002              		.align	2
 14003              	.L784:
 14004 006c 00000000 		.word	flujo_LCD1
 14005 0070 00000000 		.word	count_protector
 14006              		.cfi_endproc
 14007              	.LFE73:
 14008              		.size	animacion, .-animacion
 14009              		.section	.text.animacion2,"ax",%progbits
 14010              		.align	2
 14011              		.global	animacion2
 14012              		.thumb
 14013              		.thumb_func
 14014              		.type	animacion2, %function
 14015              	animacion2:
 14016              	.LFB74:
3022:.\main.c      **** 
3023:.\main.c      **** /*
3024:.\main.c      **** ***************************************************************************************************
3025:.\main.c      **** *                                         CY_ISR(animacion)
3026:.\main.c      **** *
3027:.\main.c      **** * Description : 
3028:.\main.c      **** *               
3029:.\main.c      **** *
3030:.\main.c      **** * Argument(s) : none
3031:.\main.c      **** *
3032:.\main.c      **** * Return(s)   : none
3033:.\main.c      **** *
3034:.\main.c      **** * Caller(s)   : 
3035:.\main.c      **** *
3036:.\main.c      **** * Note(s)     : none.
3037:.\main.c      **** ***************************************************************************************************
3038:.\main.c      **** */
3039:.\main.c      **** CY_ISR(animacion2){
 14017              		.loc 1 3039 0
 14018              		.cfi_startproc
 14019              		@ args = 0, pretend = 0, frame = 0
 14020              		@ frame_needed = 1, uses_anonymous_args = 0
 14021 0000 80B5     		push	{r7, lr}
 14022              		.cfi_def_cfa_offset 8
 14023              		.cfi_offset 7, -8
 14024              		.cfi_offset 14, -4
 14025 0002 00AF     		add	r7, sp, #0
 14026              		.cfi_def_cfa_register 7
3040:.\main.c      ****     Timer_Animacion2_ReadStatusRegister();
 14027              		.loc 1 3040 0
 14028 0004 FFF7FEFF 		bl	Timer_Animacion2_ReadStatusRegister
3041:.\main.c      ****     if(flujo_LCD2==1){
 14029              		.loc 1 3041 0
 14030 0008 184B     		ldr	r3, .L791
 14031 000a 1B78     		ldrb	r3, [r3]
 14032 000c DBB2     		uxtb	r3, r3
 14033 000e 012B     		cmp	r3, #1
 14034 0010 24D1     		bne	.L787
3042:.\main.c      ****         if(count_protector2<=6){
ARM GAS  C:\Users\RECEPC~1\AppData\Local\Temp\cc8qeTl3.s 			page 306


 14035              		.loc 1 3042 0
 14036 0012 174B     		ldr	r3, .L791+4
 14037 0014 1B78     		ldrb	r3, [r3]
 14038 0016 DBB2     		uxtb	r3, r3
 14039 0018 062B     		cmp	r3, #6
 14040 001a 11D8     		bhi	.L788
3043:.\main.c      ****             count_protector2++;
 14041              		.loc 1 3043 0
 14042 001c 144B     		ldr	r3, .L791+4
 14043 001e 1B78     		ldrb	r3, [r3]
 14044 0020 DBB2     		uxtb	r3, r3
 14045 0022 0133     		adds	r3, r3, #1
 14046 0024 DAB2     		uxtb	r2, r3
 14047 0026 124B     		ldr	r3, .L791+4
 14048 0028 1A70     		strb	r2, [r3]
3044:.\main.c      ****             set_imagen(2,(iprotector5+count_protector2));  
 14049              		.loc 1 3044 0
 14050 002a 114B     		ldr	r3, .L791+4
 14051 002c 1B78     		ldrb	r3, [r3]
 14052 002e DBB2     		uxtb	r3, r3
 14053 0030 9BB2     		uxth	r3, r3
 14054 0032 1433     		adds	r3, r3, #20
 14055 0034 9BB2     		uxth	r3, r3
 14056 0036 0220     		movs	r0, #2
 14057 0038 1946     		mov	r1, r3
 14058 003a FFF7FEFF 		bl	set_imagen
 14059 003e 14E0     		b	.L786
 14060              	.L788:
3045:.\main.c      ****         }
3046:.\main.c      ****         else{
3047:.\main.c      ****            count_protector2=0; 
 14061              		.loc 1 3047 0
 14062 0040 0B4B     		ldr	r3, .L791+4
 14063 0042 0022     		movs	r2, #0
 14064 0044 1A70     		strb	r2, [r3]
3048:.\main.c      ****            set_imagen(2,(iprotector5+count_protector2));  
 14065              		.loc 1 3048 0
 14066 0046 0A4B     		ldr	r3, .L791+4
 14067 0048 1B78     		ldrb	r3, [r3]
 14068 004a DBB2     		uxtb	r3, r3
 14069 004c 9BB2     		uxth	r3, r3
 14070 004e 1433     		adds	r3, r3, #20
 14071 0050 9BB2     		uxth	r3, r3
 14072 0052 0220     		movs	r0, #2
 14073 0054 1946     		mov	r1, r3
 14074 0056 FFF7FEFF 		bl	set_imagen
 14075 005a 06E0     		b	.L786
 14076              	.L787:
3049:.\main.c      ****         }
3050:.\main.c      ****     }
3051:.\main.c      ****     else{
3052:.\main.c      ****         count_protector2++;
 14077              		.loc 1 3052 0
 14078 005c 044B     		ldr	r3, .L791+4
 14079 005e 1B78     		ldrb	r3, [r3]
 14080 0060 DBB2     		uxtb	r3, r3
 14081 0062 0133     		adds	r3, r3, #1
ARM GAS  C:\Users\RECEPC~1\AppData\Local\Temp\cc8qeTl3.s 			page 307


 14082 0064 DAB2     		uxtb	r2, r3
 14083 0066 024B     		ldr	r3, .L791+4
 14084 0068 1A70     		strb	r2, [r3]
 14085              	.L786:
3053:.\main.c      ****     }
3054:.\main.c      **** }
 14086              		.loc 1 3054 0
 14087 006a 80BD     		pop	{r7, pc}
 14088              	.L792:
 14089              		.align	2
 14090              	.L791:
 14091 006c 00000000 		.word	flujo_LCD2
 14092 0070 00000000 		.word	count_protector2
 14093              		.cfi_endproc
 14094              	.LFE74:
 14095              		.size	animacion2, .-animacion2
 14096              		.section	.text.modo_mux,"ax",%progbits
 14097              		.align	2
 14098              		.global	modo_mux
 14099              		.thumb
 14100              		.thumb_func
 14101              		.type	modo_mux, %function
 14102              	modo_mux:
 14103              	.LFB75:
3055:.\main.c      **** 
3056:.\main.c      **** /*
3057:.\main.c      **** ***************************************************************************************************
3058:.\main.c      **** *                                        CY_ISR(modo_mux)
3059:.\main.c      **** *
3060:.\main.c      **** * Description : 
3061:.\main.c      **** *               
3062:.\main.c      **** *
3063:.\main.c      **** * Argument(s) : none
3064:.\main.c      **** *
3065:.\main.c      **** * Return(s)   : none
3066:.\main.c      **** *
3067:.\main.c      **** * Caller(s)   : 
3068:.\main.c      **** *
3069:.\main.c      **** * Note(s)     : none.
3070:.\main.c      **** ***************************************************************************************************
3071:.\main.c      **** */
3072:.\main.c      **** CY_ISR(modo_mux){
 14104              		.loc 1 3072 0
 14105              		.cfi_startproc
 14106              		@ args = 0, pretend = 0, frame = 0
 14107              		@ frame_needed = 1, uses_anonymous_args = 0
 14108 0000 80B5     		push	{r7, lr}
 14109              		.cfi_def_cfa_offset 8
 14110              		.cfi_offset 7, -8
 14111              		.cfi_offset 14, -4
 14112 0002 00AF     		add	r7, sp, #0
 14113              		.cfi_def_cfa_register 7
3073:.\main.c      **** 	Timer_Modo_ReadStatusRegister();
 14114              		.loc 1 3073 0
 14115 0004 FFF7FEFF 		bl	Timer_Modo_ReadStatusRegister
3074:.\main.c      **** 	state_rf++;
 14116              		.loc 1 3074 0
ARM GAS  C:\Users\RECEPC~1\AppData\Local\Temp\cc8qeTl3.s 			page 308


 14117 0008 0F4B     		ldr	r3, .L796
 14118 000a 1B78     		ldrb	r3, [r3]	@ zero_extendqisi2
 14119 000c 0133     		adds	r3, r3, #1
 14120 000e DAB2     		uxtb	r2, r3
 14121 0010 0D4B     		ldr	r3, .L796
 14122 0012 1A70     		strb	r2, [r3]
3075:.\main.c      **** 	if(state_rf==15){
 14123              		.loc 1 3075 0
 14124 0014 0C4B     		ldr	r3, .L796
 14125 0016 1B78     		ldrb	r3, [r3]	@ zero_extendqisi2
 14126 0018 0F2B     		cmp	r3, #15
 14127 001a 14D1     		bne	.L793
3076:.\main.c      **** 		if((rventa1.autorizado!=100)&&(rventa2.autorizado!=100)){
 14128              		.loc 1 3076 0
 14129 001c 0B4B     		ldr	r3, .L796+4
 14130 001e 93F87030 		ldrb	r3, [r3, #112]	@ zero_extendqisi2
 14131 0022 642B     		cmp	r3, #100
 14132 0024 0CD0     		beq	.L795
 14133              		.loc 1 3076 0 is_stmt 0 discriminator 1
 14134 0026 0A4B     		ldr	r3, .L796+8
 14135 0028 93F87030 		ldrb	r3, [r3, #112]	@ zero_extendqisi2
 14136 002c 642B     		cmp	r3, #100
 14137 002e 07D0     		beq	.L795
3077:.\main.c      **** 			rventa1.autorizado=0;
 14138              		.loc 1 3077 0 is_stmt 1
 14139 0030 064B     		ldr	r3, .L796+4
 14140 0032 0022     		movs	r2, #0
 14141 0034 83F87020 		strb	r2, [r3, #112]
3078:.\main.c      **** 			rventa2.autorizado=0;
 14142              		.loc 1 3078 0
 14143 0038 054B     		ldr	r3, .L796+8
 14144 003a 0022     		movs	r2, #0
 14145 003c 83F87020 		strb	r2, [r3, #112]
 14146              	.L795:
3079:.\main.c      **** 		}	
3080:.\main.c      **** 		state_rf=0;
 14147              		.loc 1 3080 0
 14148 0040 014B     		ldr	r3, .L796
 14149 0042 0022     		movs	r2, #0
 14150 0044 1A70     		strb	r2, [r3]
 14151              	.L793:
3081:.\main.c      **** 	}
3082:.\main.c      **** }
 14152              		.loc 1 3082 0
 14153 0046 80BD     		pop	{r7, pc}
 14154              	.L797:
 14155              		.align	2
 14156              	.L796:
 14157 0048 00000000 		.word	state_rf
 14158 004c 00000000 		.word	rventa1
 14159 0050 00000000 		.word	rventa2
 14160              		.cfi_endproc
 14161              	.LFE75:
 14162              		.size	modo_mux, .-modo_mux
 14163              		.section	.text.insert_ppuInit,"ax",%progbits
 14164              		.align	2
 14165              		.global	insert_ppuInit
ARM GAS  C:\Users\RECEPC~1\AppData\Local\Temp\cc8qeTl3.s 			page 309


 14166              		.thumb
 14167              		.thumb_func
 14168              		.type	insert_ppuInit, %function
 14169              	insert_ppuInit:
 14170              	.LFB76:
3083:.\main.c      **** 
3084:.\main.c      **** /*
3085:.\main.c      **** ***************************************************************************************************
3086:.\main.c      **** *                                        insert_ppuInit(modo_init)
3087:.\main.c      **** *
3088:.\main.c      **** * Description : 
3089:.\main.c      **** *               
3090:.\main.c      **** *
3091:.\main.c      **** * Argument(s) : none
3092:.\main.c      **** *
3093:.\main.c      **** * Return(s)   : none
3094:.\main.c      **** *
3095:.\main.c      **** * Caller(s)   : 
3096:.\main.c      **** *
3097:.\main.c      **** * Note(s)     : none.
3098:.\main.c      **** ***************************************************************************************************
3099:.\main.c      **** */
3100:.\main.c      **** void insert_ppuInit(void){
 14171              		.loc 1 3100 0
 14172              		.cfi_startproc
 14173              		@ args = 0, pretend = 0, frame = 8
 14174              		@ frame_needed = 1, uses_anonymous_args = 0
 14175 0000 80B5     		push	{r7, lr}
 14176              		.cfi_def_cfa_offset 8
 14177              		.cfi_offset 7, -8
 14178              		.cfi_offset 14, -4
 14179 0002 82B0     		sub	sp, sp, #8
 14180              		.cfi_def_cfa_offset 16
 14181 0004 00AF     		add	r7, sp, #0
 14182              		.cfi_def_cfa_register 7
3101:.\main.c      ****     
3102:.\main.c      ****     //uint8 precio_mod[5];    
3103:.\main.c      ****     int x;    
3104:.\main.c      ****     
3105:.\main.c      ****   uint8 precio_mod[5];    
3106:.\main.c      **** 	precio_mod[0]=0;	
 14183              		.loc 1 3106 0
 14184 0006 0023     		movs	r3, #0
 14185 0008 3B70     		strb	r3, [r7]
3107:.\main.c      **** 	precio_mod[1]=0;
 14186              		.loc 1 3107 0
 14187 000a 0023     		movs	r3, #0
 14188 000c 7B70     		strb	r3, [r7, #1]
3108:.\main.c      **** 	precio_mod[2]=0;
 14189              		.loc 1 3108 0
 14190 000e 0023     		movs	r3, #0
 14191 0010 BB70     		strb	r3, [r7, #2]
3109:.\main.c      **** 	precio_mod[3]=2;
 14192              		.loc 1 3109 0
 14193 0012 0223     		movs	r3, #2
 14194 0014 FB70     		strb	r3, [r7, #3]
3110:.\main.c      ****     precio_mod[4]=0;
ARM GAS  C:\Users\RECEPC~1\AppData\Local\Temp\cc8qeTl3.s 			page 310


 14195              		.loc 1 3110 0
 14196 0016 0023     		movs	r3, #0
 14197 0018 3B71     		strb	r3, [r7, #4]
3111:.\main.c      ****     cambiar_precio(lado1.dir,precio_mod,1);                   
 14198              		.loc 1 3111 0
 14199 001a 064B     		ldr	r3, .L799
 14200 001c 1B78     		ldrb	r3, [r3]
 14201 001e DAB2     		uxtb	r2, r3
 14202 0020 3B46     		mov	r3, r7
 14203 0022 1046     		mov	r0, r2
 14204 0024 1946     		mov	r1, r3
 14205 0026 0122     		movs	r2, #1
 14206 0028 FFF7FEFF 		bl	cambiar_precio
3112:.\main.c      **** }
 14207              		.loc 1 3112 0
 14208 002c 0837     		adds	r7, r7, #8
 14209              		.cfi_def_cfa_offset 8
 14210 002e BD46     		mov	sp, r7
 14211              		.cfi_def_cfa_register 13
 14212              		@ sp needed
 14213 0030 80BD     		pop	{r7, pc}
 14214              	.L800:
 14215 0032 00BF     		.align	2
 14216              	.L799:
 14217 0034 00000000 		.word	lado1
 14218              		.cfi_endproc
 14219              	.LFE76:
 14220              		.size	insert_ppuInit, .-insert_ppuInit
 14221              		.section	.text.main,"ax",%progbits
 14222              		.align	2
 14223              		.global	main
 14224              		.thumb
 14225              		.thumb_func
 14226              		.type	main, %function
 14227              	main:
 14228              	.LFB77:
3113:.\main.c      **** 
3114:.\main.c      **** /*
3115:.\main.c      **** ***************************************************************************************************
3116:.\main.c      **** *                                         main( void )
3117:.\main.c      **** *
3118:.\main.c      **** * Description : 
3119:.\main.c      **** *               
3120:.\main.c      **** *
3121:.\main.c      **** * Argument(s) : none
3122:.\main.c      **** *
3123:.\main.c      **** * Return(s)   : none
3124:.\main.c      **** *
3125:.\main.c      **** * Caller(s)   : 
3126:.\main.c      **** *
3127:.\main.c      **** * Note(s)     : none.
3128:.\main.c      **** ***************************************************************************************************
3129:.\main.c      **** */
3130:.\main.c      **** int main(){ 
 14229              		.loc 1 3130 0
 14230              		.cfi_startproc
 14231              		@ args = 0, pretend = 0, frame = 0
ARM GAS  C:\Users\RECEPC~1\AppData\Local\Temp\cc8qeTl3.s 			page 311


 14232              		@ frame_needed = 1, uses_anonymous_args = 0
 14233 0000 80B5     		push	{r7, lr}
 14234              		.cfi_def_cfa_offset 8
 14235              		.cfi_offset 7, -8
 14236              		.cfi_offset 14, -4
 14237 0002 00AF     		add	r7, sp, #0
 14238              		.cfi_def_cfa_register 7
3131:.\main.c      ****     
3132:.\main.c      ****     init();
 14239              		.loc 1 3132 0
 14240 0004 FFF7FEFF 		bl	init
3133:.\main.c      ****     init_surt();    
 14241              		.loc 1 3133 0
 14242 0008 FFF7FEFF 		bl	init_surt
3134:.\main.c      ****     CyWdtStart(CYWDT_1024_TICKS,CYWDT_LPMODE_NOCHANGE);    
 14243              		.loc 1 3134 0
 14244 000c 0320     		movs	r0, #3
 14245 000e 0021     		movs	r1, #0
 14246 0010 FFF7FEFF 		bl	CyWdtStart
 14247              	.L805:
3135:.\main.c      ****     //insert_ppuInit();// 
3136:.\main.c      ****     for(;;){
3137:.\main.c      ****          //sin el sistema Mux Advance              		
3138:.\main.c      ****     		CyWdtClear();        
 14248              		.loc 1 3138 0
 14249 0014 FFF7FEFF 		bl	CyWdtClear
3139:.\main.c      ****            	polling_LCD1();
 14250              		.loc 1 3139 0
 14251 0018 FFF7FEFF 		bl	polling_LCD1
3140:.\main.c      ****     		CyWdtClear();  
 14252              		.loc 1 3140 0
 14253 001c FFF7FEFF 		bl	CyWdtClear
3141:.\main.c      ****             if(seleccion_pos ==1 || seleccion_pos ==0){                
 14254              		.loc 1 3141 0
 14255 0020 094B     		ldr	r3, .L806
 14256 0022 1B78     		ldrb	r3, [r3]
 14257 0024 DBB2     		uxtb	r3, r3
 14258 0026 012B     		cmp	r3, #1
 14259 0028 04D0     		beq	.L802
 14260              		.loc 1 3141 0 is_stmt 0 discriminator 1
 14261 002a 074B     		ldr	r3, .L806
 14262 002c 1B78     		ldrb	r3, [r3]
 14263 002e DBB2     		uxtb	r3, r3
 14264 0030 002B     		cmp	r3, #0
 14265 0032 01D1     		bne	.L803
 14266              	.L802:
3142:.\main.c      ****                 polling_rf();
 14267              		.loc 1 3142 0 is_stmt 1
 14268 0034 FFF7FEFF 		bl	polling_rf
 14269              	.L803:
3143:.\main.c      ****             }
3144:.\main.c      ****             if(seleccion_pos ==2){                
 14270              		.loc 1 3144 0
 14271 0038 034B     		ldr	r3, .L806
 14272 003a 1B78     		ldrb	r3, [r3]
 14273 003c DBB2     		uxtb	r3, r3
 14274 003e 022B     		cmp	r3, #2
ARM GAS  C:\Users\RECEPC~1\AppData\Local\Temp\cc8qeTl3.s 			page 312


 14275 0040 01D1     		bne	.L804
3145:.\main.c      ****                 polling_rf2();
 14276              		.loc 1 3145 0
 14277 0042 FFF7FEFF 		bl	polling_rf2
 14278              	.L804:
3146:.\main.c      ****             }
3147:.\main.c      ****          
3148:.\main.c      ****     }
 14279              		.loc 1 3148 0
 14280 0046 E5E7     		b	.L805
 14281              	.L807:
 14282              		.align	2
 14283              	.L806:
 14284 0048 00000000 		.word	seleccion_pos
 14285              		.cfi_endproc
 14286              	.LFE77:
 14287              		.size	main, .-main
 14288              		.text
 14289              	.Letext0:
 14290              		.file 2 "c:\\program files (x86)\\cypress\\psoc creator\\3.3\\psoc creator\\import\\gnu\\arm\\4.9.
 14291              		.file 3 "c:\\program files (x86)\\cypress\\psoc creator\\3.3\\psoc creator\\import\\gnu\\arm\\4.9.
 14292              		.file 4 "Generated_Source\\PSoC5/cytypes.h"
 14293              		.file 5 ".\\VariablesG.h"
 14294              		.file 6 "Generated_Source\\PSoC5/LCD_1.h"
 14295              		.file 7 "Generated_Source\\PSoC5/PC.h"
 14296              		.file 8 "Generated_Source\\PSoC5/core_cm3.h"
 14297              		.section	.debug_info,"",%progbits
 14298              	.Ldebug_info0:
 14299 0000 270D0000 		.4byte	0xd27
 14300 0004 0400     		.2byte	0x4
 14301 0006 00000000 		.4byte	.Ldebug_abbrev0
 14302 000a 04       		.byte	0x4
 14303 000b 01       		.uleb128 0x1
 14304 000c 5A030000 		.4byte	.LASF151
 14305 0010 01       		.byte	0x1
 14306 0011 A7060000 		.4byte	.LASF152
 14307 0015 5A000000 		.4byte	.LASF153
 14308 0019 00000000 		.4byte	.Ldebug_ranges0+0
 14309 001d 00000000 		.4byte	0
 14310 0021 00000000 		.4byte	.Ldebug_line0
 14311 0025 02       		.uleb128 0x2
 14312 0026 01       		.byte	0x1
 14313 0027 06       		.byte	0x6
 14314 0028 E6050000 		.4byte	.LASF0
 14315 002c 02       		.uleb128 0x2
 14316 002d 01       		.byte	0x1
 14317 002e 08       		.byte	0x8
 14318 002f 98050000 		.4byte	.LASF1
 14319 0033 02       		.uleb128 0x2
 14320 0034 02       		.byte	0x2
 14321 0035 05       		.byte	0x5
 14322 0036 84040000 		.4byte	.LASF2
 14323 003a 02       		.uleb128 0x2
 14324 003b 02       		.byte	0x2
 14325 003c 07       		.byte	0x7
 14326 003d FB050000 		.4byte	.LASF3
 14327 0041 03       		.uleb128 0x3
ARM GAS  C:\Users\RECEPC~1\AppData\Local\Temp\cc8qeTl3.s 			page 313


 14328 0042 CF000000 		.4byte	.LASF9
 14329 0046 02       		.byte	0x2
 14330 0047 3F       		.byte	0x3f
 14331 0048 4C000000 		.4byte	0x4c
 14332 004c 02       		.uleb128 0x2
 14333 004d 04       		.byte	0x4
 14334 004e 05       		.byte	0x5
 14335 004f 9A040000 		.4byte	.LASF4
 14336 0053 02       		.uleb128 0x2
 14337 0054 04       		.byte	0x4
 14338 0055 07       		.byte	0x7
 14339 0056 4D050000 		.4byte	.LASF5
 14340 005a 02       		.uleb128 0x2
 14341 005b 08       		.byte	0x8
 14342 005c 05       		.byte	0x5
 14343 005d 1C030000 		.4byte	.LASF6
 14344 0061 02       		.uleb128 0x2
 14345 0062 08       		.byte	0x8
 14346 0063 07       		.byte	0x7
 14347 0064 AA010000 		.4byte	.LASF7
 14348 0068 04       		.uleb128 0x4
 14349 0069 04       		.byte	0x4
 14350 006a 05       		.byte	0x5
 14351 006b 696E7400 		.ascii	"int\000"
 14352 006f 02       		.uleb128 0x2
 14353 0070 04       		.byte	0x4
 14354 0071 07       		.byte	0x7
 14355 0072 BA000000 		.4byte	.LASF8
 14356 0076 03       		.uleb128 0x3
 14357 0077 66050000 		.4byte	.LASF10
 14358 007b 03       		.byte	0x3
 14359 007c 2C       		.byte	0x2c
 14360 007d 41000000 		.4byte	0x41
 14361 0081 03       		.uleb128 0x3
 14362 0082 22060000 		.4byte	.LASF11
 14363 0086 04       		.byte	0x4
 14364 0087 B4       		.byte	0xb4
 14365 0088 2C000000 		.4byte	0x2c
 14366 008c 03       		.uleb128 0x3
 14367 008d 9B020000 		.4byte	.LASF12
 14368 0091 04       		.byte	0x4
 14369 0092 B5       		.byte	0xb5
 14370 0093 3A000000 		.4byte	0x3a
 14371 0097 02       		.uleb128 0x2
 14372 0098 04       		.byte	0x4
 14373 0099 04       		.byte	0x4
 14374 009a 5D010000 		.4byte	.LASF13
 14375 009e 02       		.uleb128 0x2
 14376 009f 08       		.byte	0x8
 14377 00a0 04       		.byte	0x4
 14378 00a1 28060000 		.4byte	.LASF14
 14379 00a5 02       		.uleb128 0x2
 14380 00a6 01       		.byte	0x1
 14381 00a7 08       		.byte	0x8
 14382 00a8 7A020000 		.4byte	.LASF15
 14383 00ac 05       		.uleb128 0x5
 14384 00ad 81000000 		.4byte	0x81
ARM GAS  C:\Users\RECEPC~1\AppData\Local\Temp\cc8qeTl3.s 			page 314


 14385 00b1 05       		.uleb128 0x5
 14386 00b2 8C000000 		.4byte	0x8c
 14387 00b6 02       		.uleb128 0x2
 14388 00b7 04       		.byte	0x4
 14389 00b8 07       		.byte	0x7
 14390 00b9 44050000 		.4byte	.LASF16
 14391 00bd 06       		.uleb128 0x6
 14392 00be A5000000 		.4byte	0xa5
 14393 00c2 CD000000 		.4byte	0xcd
 14394 00c6 07       		.uleb128 0x7
 14395 00c7 B6000000 		.4byte	0xb6
 14396 00cb 07       		.byte	0x7
 14397 00cc 00       		.byte	0
 14398 00cd 06       		.uleb128 0x6
 14399 00ce 81000000 		.4byte	0x81
 14400 00d2 DD000000 		.4byte	0xdd
 14401 00d6 07       		.uleb128 0x7
 14402 00d7 B6000000 		.4byte	0xb6
 14403 00db 03       		.byte	0x3
 14404 00dc 00       		.byte	0
 14405 00dd 02       		.uleb128 0x2
 14406 00de 08       		.byte	0x8
 14407 00df 04       		.byte	0x4
 14408 00e0 3E040000 		.4byte	.LASF17
 14409 00e4 08       		.uleb128 0x8
 14410 00e5 B0040000 		.4byte	.LASF22
 14411 00e9 5D       		.byte	0x5d
 14412 00ea 05       		.byte	0x5
 14413 00eb 5B       		.byte	0x5b
 14414 00ec 39010000 		.4byte	0x139
 14415 00f0 09       		.uleb128 0x9
 14416 00f1 64697200 		.ascii	"dir\000"
 14417 00f5 05       		.byte	0x5
 14418 00f6 5C       		.byte	0x5c
 14419 00f7 AC000000 		.4byte	0xac
 14420 00fb 00       		.byte	0
 14421 00fc 0A       		.uleb128 0xa
 14422 00fd 1D040000 		.4byte	.LASF18
 14423 0101 05       		.byte	0x5
 14424 0102 5D       		.byte	0x5d
 14425 0103 AC000000 		.4byte	0xac
 14426 0107 01       		.byte	0x1
 14427 0108 0A       		.uleb128 0xa
 14428 0109 D5020000 		.4byte	.LASF19
 14429 010d 05       		.byte	0x5
 14430 010e 5E       		.byte	0x5e
 14431 010f 4F010000 		.4byte	0x14f
 14432 0113 02       		.byte	0x2
 14433 0114 09       		.uleb128 0x9
 14434 0115 70707500 		.ascii	"ppu\000"
 14435 0119 05       		.byte	0x5
 14436 011a 5F       		.byte	0x5f
 14437 011b 6A010000 		.4byte	0x16a
 14438 011f 4A       		.byte	0x4a
 14439 0120 0A       		.uleb128 0xa
 14440 0121 64060000 		.4byte	.LASF20
 14441 0125 05       		.byte	0x5
ARM GAS  C:\Users\RECEPC~1\AppData\Local\Temp\cc8qeTl3.s 			page 315


 14442 0126 60       		.byte	0x60
 14443 0127 85010000 		.4byte	0x185
 14444 012b 59       		.byte	0x59
 14445 012c 0A       		.uleb128 0xa
 14446 012d 91020000 		.4byte	.LASF21
 14447 0131 05       		.byte	0x5
 14448 0132 61       		.byte	0x61
 14449 0133 AC000000 		.4byte	0xac
 14450 0137 5C       		.byte	0x5c
 14451 0138 00       		.byte	0
 14452 0139 06       		.uleb128 0x6
 14453 013a 81000000 		.4byte	0x81
 14454 013e 4F010000 		.4byte	0x14f
 14455 0142 07       		.uleb128 0x7
 14456 0143 B6000000 		.4byte	0xb6
 14457 0147 02       		.byte	0x2
 14458 0148 07       		.uleb128 0x7
 14459 0149 B6000000 		.4byte	0xb6
 14460 014d 17       		.byte	0x17
 14461 014e 00       		.byte	0
 14462 014f 05       		.uleb128 0x5
 14463 0150 39010000 		.4byte	0x139
 14464 0154 06       		.uleb128 0x6
 14465 0155 81000000 		.4byte	0x81
 14466 0159 6A010000 		.4byte	0x16a
 14467 015d 07       		.uleb128 0x7
 14468 015e B6000000 		.4byte	0xb6
 14469 0162 02       		.byte	0x2
 14470 0163 07       		.uleb128 0x7
 14471 0164 B6000000 		.4byte	0xb6
 14472 0168 04       		.byte	0x4
 14473 0169 00       		.byte	0
 14474 016a 05       		.uleb128 0x5
 14475 016b 54010000 		.4byte	0x154
 14476 016f 06       		.uleb128 0x6
 14477 0170 81000000 		.4byte	0x81
 14478 0174 85010000 		.4byte	0x185
 14479 0178 07       		.uleb128 0x7
 14480 0179 B6000000 		.4byte	0xb6
 14481 017d 02       		.byte	0x2
 14482 017e 07       		.uleb128 0x7
 14483 017f B6000000 		.4byte	0xb6
 14484 0183 00       		.byte	0
 14485 0184 00       		.byte	0
 14486 0185 05       		.uleb128 0x5
 14487 0186 6F010000 		.4byte	0x16f
 14488 018a 08       		.uleb128 0x8
 14489 018b 03040000 		.4byte	.LASF23
 14490 018f 76       		.byte	0x76
 14491 0190 05       		.byte	0x5
 14492 0191 72       		.byte	0x72
 14493 0192 79020000 		.4byte	0x279
 14494 0196 0A       		.uleb128 0xa
 14495 0197 1D010000 		.4byte	.LASF24
 14496 019b 05       		.byte	0x5
 14497 019c 73       		.byte	0x73
 14498 019d 81000000 		.4byte	0x81
ARM GAS  C:\Users\RECEPC~1\AppData\Local\Temp\cc8qeTl3.s 			page 316


 14499 01a1 00       		.byte	0
 14500 01a2 0A       		.uleb128 0xa
 14501 01a3 64060000 		.4byte	.LASF20
 14502 01a7 05       		.byte	0x5
 14503 01a8 74       		.byte	0x74
 14504 01a9 81000000 		.4byte	0x81
 14505 01ad 01       		.byte	0x1
 14506 01ae 09       		.uleb128 0x9
 14507 01af 70707500 		.ascii	"ppu\000"
 14508 01b3 05       		.byte	0x5
 14509 01b4 75       		.byte	0x75
 14510 01b5 79020000 		.4byte	0x279
 14511 01b9 02       		.byte	0x2
 14512 01ba 0A       		.uleb128 0xa
 14513 01bb 0A040000 		.4byte	.LASF25
 14514 01bf 05       		.byte	0x5
 14515 01c0 76       		.byte	0x76
 14516 01c1 89020000 		.4byte	0x289
 14517 01c5 07       		.byte	0x7
 14518 01c6 0A       		.uleb128 0xa
 14519 01c7 2A020000 		.4byte	.LASF26
 14520 01cb 05       		.byte	0x5
 14521 01cc 77       		.byte	0x77
 14522 01cd 89020000 		.4byte	0x289
 14523 01d1 10       		.byte	0x10
 14524 01d2 0A       		.uleb128 0xa
 14525 01d3 30030000 		.4byte	.LASF27
 14526 01d7 05       		.byte	0x5
 14527 01d8 78       		.byte	0x78
 14528 01d9 81000000 		.4byte	0x81
 14529 01dd 19       		.byte	0x19
 14530 01de 0A       		.uleb128 0xa
 14531 01df 49060000 		.4byte	.LASF28
 14532 01e3 05       		.byte	0x5
 14533 01e4 79       		.byte	0x79
 14534 01e5 81000000 		.4byte	0x81
 14535 01e9 1A       		.byte	0x1a
 14536 01ea 0A       		.uleb128 0xa
 14537 01eb 56010000 		.4byte	.LASF29
 14538 01ef 05       		.byte	0x5
 14539 01f0 7A       		.byte	0x7a
 14540 01f1 99020000 		.4byte	0x299
 14541 01f5 1B       		.byte	0x1b
 14542 01f6 09       		.uleb128 0x9
 14543 01f7 696400   		.ascii	"id\000"
 14544 01fa 05       		.byte	0x5
 14545 01fb 7B       		.byte	0x7b
 14546 01fc A9020000 		.4byte	0x2a9
 14547 0200 23       		.byte	0x23
 14548 0201 0A       		.uleb128 0xa
 14549 0202 C3020000 		.4byte	.LASF30
 14550 0206 05       		.byte	0x5
 14551 0207 7C       		.byte	0x7c
 14552 0208 A9020000 		.4byte	0x2a9
 14553 020c 33       		.byte	0x33
 14554 020d 09       		.uleb128 0x9
 14555 020e 6B6D00   		.ascii	"km\000"
ARM GAS  C:\Users\RECEPC~1\AppData\Local\Temp\cc8qeTl3.s 			page 317


 14556 0211 05       		.byte	0x5
 14557 0212 7D       		.byte	0x7d
 14558 0213 B9020000 		.4byte	0x2b9
 14559 0217 43       		.byte	0x43
 14560 0218 0A       		.uleb128 0xa
 14561 0219 F2010000 		.4byte	.LASF31
 14562 021d 05       		.byte	0x5
 14563 021e 7E       		.byte	0x7e
 14564 021f 89020000 		.4byte	0x289
 14565 0223 4E       		.byte	0x4e
 14566 0224 0A       		.uleb128 0xa
 14567 0225 A1010000 		.4byte	.LASF32
 14568 0229 05       		.byte	0x5
 14569 022a 7F       		.byte	0x7f
 14570 022b 81000000 		.4byte	0x81
 14571 022f 57       		.byte	0x57
 14572 0230 0A       		.uleb128 0xa
 14573 0231 B8020000 		.4byte	.LASF33
 14574 0235 05       		.byte	0x5
 14575 0236 80       		.byte	0x80
 14576 0237 81000000 		.4byte	0x81
 14577 023b 58       		.byte	0x58
 14578 023c 0A       		.uleb128 0xa
 14579 023d 53030000 		.4byte	.LASF34
 14580 0241 05       		.byte	0x5
 14581 0242 81       		.byte	0x81
 14582 0243 B9020000 		.4byte	0x2b9
 14583 0247 59       		.byte	0x59
 14584 0248 0A       		.uleb128 0xa
 14585 0249 00000000 		.4byte	.LASF35
 14586 024d 05       		.byte	0x5
 14587 024e 82       		.byte	0x82
 14588 024f B9020000 		.4byte	0x2b9
 14589 0253 64       		.byte	0x64
 14590 0254 0A       		.uleb128 0xa
 14591 0255 C9020000 		.4byte	.LASF36
 14592 0259 05       		.byte	0x5
 14593 025a 83       		.byte	0x83
 14594 025b 81000000 		.4byte	0x81
 14595 025f 6F       		.byte	0x6f
 14596 0260 0A       		.uleb128 0xa
 14597 0261 8D050000 		.4byte	.LASF37
 14598 0265 05       		.byte	0x5
 14599 0266 84       		.byte	0x84
 14600 0267 81000000 		.4byte	0x81
 14601 026b 70       		.byte	0x70
 14602 026c 0A       		.uleb128 0xa
 14603 026d 4A040000 		.4byte	.LASF38
 14604 0271 05       		.byte	0x5
 14605 0272 85       		.byte	0x85
 14606 0273 79020000 		.4byte	0x279
 14607 0277 71       		.byte	0x71
 14608 0278 00       		.byte	0
 14609 0279 06       		.uleb128 0x6
 14610 027a 81000000 		.4byte	0x81
 14611 027e 89020000 		.4byte	0x289
 14612 0282 07       		.uleb128 0x7
ARM GAS  C:\Users\RECEPC~1\AppData\Local\Temp\cc8qeTl3.s 			page 318


 14613 0283 B6000000 		.4byte	0xb6
 14614 0287 04       		.byte	0x4
 14615 0288 00       		.byte	0
 14616 0289 06       		.uleb128 0x6
 14617 028a 81000000 		.4byte	0x81
 14618 028e 99020000 		.4byte	0x299
 14619 0292 07       		.uleb128 0x7
 14620 0293 B6000000 		.4byte	0xb6
 14621 0297 08       		.byte	0x8
 14622 0298 00       		.byte	0
 14623 0299 06       		.uleb128 0x6
 14624 029a 81000000 		.4byte	0x81
 14625 029e A9020000 		.4byte	0x2a9
 14626 02a2 07       		.uleb128 0x7
 14627 02a3 B6000000 		.4byte	0xb6
 14628 02a7 07       		.byte	0x7
 14629 02a8 00       		.byte	0
 14630 02a9 06       		.uleb128 0x6
 14631 02aa 81000000 		.4byte	0x81
 14632 02ae B9020000 		.4byte	0x2b9
 14633 02b2 07       		.uleb128 0x7
 14634 02b3 B6000000 		.4byte	0xb6
 14635 02b7 0F       		.byte	0xf
 14636 02b8 00       		.byte	0
 14637 02b9 06       		.uleb128 0x6
 14638 02ba 81000000 		.4byte	0x81
 14639 02be C9020000 		.4byte	0x2c9
 14640 02c2 07       		.uleb128 0x7
 14641 02c3 B6000000 		.4byte	0xb6
 14642 02c7 0A       		.byte	0xa
 14643 02c8 00       		.byte	0
 14644 02c9 0B       		.uleb128 0xb
 14645 02ca 3F050000 		.4byte	.LASF44
 14646 02ce 01       		.byte	0x1
 14647 02cf 5A       		.byte	0x5a
 14648 02d0 00000000 		.4byte	.LFB63
 14649 02d4 D4010000 		.4byte	.LFE63-.LFB63
 14650 02d8 01       		.uleb128 0x1
 14651 02d9 9C       		.byte	0x9c
 14652 02da EB020000 		.4byte	0x2eb
 14653 02de 0C       		.uleb128 0xc
 14654 02df 7800     		.ascii	"x\000"
 14655 02e1 01       		.byte	0x1
 14656 02e2 5C       		.byte	0x5c
 14657 02e3 81000000 		.4byte	0x81
 14658 02e7 02       		.uleb128 0x2
 14659 02e8 91       		.byte	0x91
 14660 02e9 6F       		.sleb128 -17
 14661 02ea 00       		.byte	0
 14662 02eb 0D       		.uleb128 0xd
 14663 02ec 0C030000 		.4byte	.LASF154
 14664 02f0 01       		.byte	0x1
 14665 02f1 A4       		.byte	0xa4
 14666 02f2 81000000 		.4byte	0x81
 14667 02f6 00000000 		.4byte	.LFB64
 14668 02fa 84000000 		.4byte	.LFE64-.LFB64
 14669 02fe 01       		.uleb128 0x1
ARM GAS  C:\Users\RECEPC~1\AppData\Local\Temp\cc8qeTl3.s 			page 319


 14670 02ff 9C       		.byte	0x9c
 14671 0300 5A030000 		.4byte	0x35a
 14672 0304 0E       		.uleb128 0xe
 14673 0305 CF020000 		.4byte	.LASF39
 14674 0309 01       		.byte	0x1
 14675 030a A4       		.byte	0xa4
 14676 030b 5A030000 		.4byte	0x35a
 14677 030f 03       		.uleb128 0x3
 14678 0310 91       		.byte	0x91
 14679 0311 EC7D     		.sleb128 -276
 14680 0313 0E       		.uleb128 0xe
 14681 0314 F4030000 		.4byte	.LASF40
 14682 0318 01       		.byte	0x1
 14683 0319 A4       		.byte	0xa4
 14684 031a 8C000000 		.4byte	0x8c
 14685 031e 03       		.uleb128 0x3
 14686 031f 91       		.byte	0x91
 14687 0320 EA7D     		.sleb128 -278
 14688 0322 0F       		.uleb128 0xf
 14689 0323 7E010000 		.4byte	.LASF41
 14690 0327 01       		.byte	0x1
 14691 0328 A5       		.byte	0xa5
 14692 0329 81000000 		.4byte	0x81
 14693 032d 02       		.uleb128 0x2
 14694 032e 91       		.byte	0x91
 14695 032f 77       		.sleb128 -9
 14696 0330 0F       		.uleb128 0xf
 14697 0331 87010000 		.4byte	.LASF42
 14698 0335 01       		.byte	0x1
 14699 0336 A5       		.byte	0xa5
 14700 0337 81000000 		.4byte	0x81
 14701 033b 02       		.uleb128 0x2
 14702 033c 91       		.byte	0x91
 14703 033d 73       		.sleb128 -13
 14704 033e 0C       		.uleb128 0xc
 14705 033f 6900     		.ascii	"i\000"
 14706 0341 01       		.byte	0x1
 14707 0342 A6       		.byte	0xa6
 14708 0343 8C000000 		.4byte	0x8c
 14709 0347 02       		.uleb128 0x2
 14710 0348 91       		.byte	0x91
 14711 0349 74       		.sleb128 -12
 14712 034a 0F       		.uleb128 0xf
 14713 034b 8B020000 		.4byte	.LASF43
 14714 034f 01       		.byte	0x1
 14715 0350 A7       		.byte	0xa7
 14716 0351 60030000 		.4byte	0x360
 14717 0355 03       		.uleb128 0x3
 14718 0356 91       		.byte	0x91
 14719 0357 F07D     		.sleb128 -272
 14720 0359 00       		.byte	0
 14721 035a 10       		.uleb128 0x10
 14722 035b 04       		.byte	0x4
 14723 035c 81000000 		.4byte	0x81
 14724 0360 06       		.uleb128 0x6
 14725 0361 81000000 		.4byte	0x81
 14726 0365 70030000 		.4byte	0x370
ARM GAS  C:\Users\RECEPC~1\AppData\Local\Temp\cc8qeTl3.s 			page 320


 14727 0369 07       		.uleb128 0x7
 14728 036a B6000000 		.4byte	0xb6
 14729 036e FF       		.byte	0xff
 14730 036f 00       		.byte	0
 14731 0370 0B       		.uleb128 0xb
 14732 0371 F2050000 		.4byte	.LASF45
 14733 0375 01       		.byte	0x1
 14734 0376 D0       		.byte	0xd0
 14735 0377 00000000 		.4byte	.LFB65
 14736 037b 80000000 		.4byte	.LFE65-.LFB65
 14737 037f 01       		.uleb128 0x1
 14738 0380 9C       		.byte	0x9c
 14739 0381 A2030000 		.4byte	0x3a2
 14740 0385 11       		.uleb128 0x11
 14741 0386 6C636400 		.ascii	"lcd\000"
 14742 038a 01       		.byte	0x1
 14743 038b D0       		.byte	0xd0
 14744 038c 81000000 		.4byte	0x81
 14745 0390 02       		.uleb128 0x2
 14746 0391 91       		.byte	0x91
 14747 0392 77       		.sleb128 -9
 14748 0393 0E       		.uleb128 0xe
 14749 0394 37040000 		.4byte	.LASF46
 14750 0398 01       		.byte	0x1
 14751 0399 D0       		.byte	0xd0
 14752 039a 8C000000 		.4byte	0x8c
 14753 039e 02       		.uleb128 0x2
 14754 039f 91       		.byte	0x91
 14755 03a0 74       		.sleb128 -12
 14756 03a1 00       		.byte	0
 14757 03a2 0B       		.uleb128 0xb
 14758 03a3 B0000000 		.4byte	.LASF47
 14759 03a7 01       		.byte	0x1
 14760 03a8 F2       		.byte	0xf2
 14761 03a9 00000000 		.4byte	.LFB66
 14762 03ad 30030000 		.4byte	.LFE66-.LFB66
 14763 03b1 01       		.uleb128 0x1
 14764 03b2 9C       		.byte	0x9c
 14765 03b3 D3030000 		.4byte	0x3d3
 14766 03b7 0F       		.uleb128 0xf
 14767 03b8 1D040000 		.4byte	.LASF18
 14768 03bc 01       		.byte	0x1
 14769 03bd F3       		.byte	0xf3
 14770 03be 81000000 		.4byte	0x81
 14771 03c2 02       		.uleb128 0x2
 14772 03c3 91       		.byte	0x91
 14773 03c4 76       		.sleb128 -10
 14774 03c5 0C       		.uleb128 0xc
 14775 03c6 6F6B00   		.ascii	"ok\000"
 14776 03c9 01       		.byte	0x1
 14777 03ca F3       		.byte	0xf3
 14778 03cb 81000000 		.4byte	0x81
 14779 03cf 02       		.uleb128 0x2
 14780 03d0 91       		.byte	0x91
 14781 03d1 77       		.sleb128 -9
 14782 03d2 00       		.byte	0
 14783 03d3 12       		.uleb128 0x12
ARM GAS  C:\Users\RECEPC~1\AppData\Local\Temp\cc8qeTl3.s 			page 321


 14784 03d4 09000000 		.4byte	.LASF48
 14785 03d8 01       		.byte	0x1
 14786 03d9 8601     		.2byte	0x186
 14787 03db 00000000 		.4byte	.LFB67
 14788 03df 28050000 		.4byte	.LFE67-.LFB67
 14789 03e3 01       		.uleb128 0x1
 14790 03e4 9C       		.byte	0x9c
 14791 03e5 51040000 		.4byte	0x451
 14792 03e9 13       		.uleb128 0x13
 14793 03ea A2020000 		.4byte	.LASF49
 14794 03ee 01       		.byte	0x1
 14795 03ef 8701     		.2byte	0x187
 14796 03f1 8C000000 		.4byte	0x8c
 14797 03f5 02       		.uleb128 0x2
 14798 03f6 91       		.byte	0x91
 14799 03f7 70       		.sleb128 -16
 14800 03f8 13       		.uleb128 0x13
 14801 03f9 14000000 		.4byte	.LASF50
 14802 03fd 01       		.byte	0x1
 14803 03fe 8701     		.2byte	0x187
 14804 0400 8C000000 		.4byte	0x8c
 14805 0404 02       		.uleb128 0x2
 14806 0405 91       		.byte	0x91
 14807 0406 6E       		.sleb128 -18
 14808 0407 13       		.uleb128 0x13
 14809 0408 F4030000 		.4byte	.LASF40
 14810 040c 01       		.byte	0x1
 14811 040d 8701     		.2byte	0x187
 14812 040f 8C000000 		.4byte	0x8c
 14813 0413 02       		.uleb128 0x2
 14814 0414 91       		.byte	0x91
 14815 0415 76       		.sleb128 -10
 14816 0416 14       		.uleb128 0x14
 14817 0417 7800     		.ascii	"x\000"
 14818 0419 01       		.byte	0x1
 14819 041a 8701     		.2byte	0x187
 14820 041c 8C000000 		.4byte	0x8c
 14821 0420 02       		.uleb128 0x2
 14822 0421 91       		.byte	0x91
 14823 0422 74       		.sleb128 -12
 14824 0423 13       		.uleb128 0x13
 14825 0424 E2010000 		.4byte	.LASF51
 14826 0428 01       		.byte	0x1
 14827 0429 8701     		.2byte	0x187
 14828 042b 8C000000 		.4byte	0x8c
 14829 042f 02       		.uleb128 0x2
 14830 0430 91       		.byte	0x91
 14831 0431 72       		.sleb128 -14
 14832 0432 13       		.uleb128 0x13
 14833 0433 DE000000 		.4byte	.LASF52
 14834 0437 01       		.byte	0x1
 14835 0438 8801     		.2byte	0x188
 14836 043a 79020000 		.4byte	0x279
 14837 043e 02       		.uleb128 0x2
 14838 043f 91       		.byte	0x91
 14839 0440 68       		.sleb128 -24
 14840 0441 13       		.uleb128 0x13
ARM GAS  C:\Users\RECEPC~1\AppData\Local\Temp\cc8qeTl3.s 			page 322


 14841 0442 56010000 		.4byte	.LASF29
 14842 0446 01       		.byte	0x1
 14843 0447 8801     		.2byte	0x188
 14844 0449 99020000 		.4byte	0x299
 14845 044d 02       		.uleb128 0x2
 14846 044e 91       		.byte	0x91
 14847 044f 60       		.sleb128 -32
 14848 0450 00       		.byte	0
 14849 0451 12       		.uleb128 0x12
 14850 0452 85060000 		.4byte	.LASF53
 14851 0456 01       		.byte	0x1
 14852 0457 5502     		.2byte	0x255
 14853 0459 00000000 		.4byte	.LFB68
 14854 045d 2C050000 		.4byte	.LFE68-.LFB68
 14855 0461 01       		.uleb128 0x1
 14856 0462 9C       		.byte	0x9c
 14857 0463 CF040000 		.4byte	0x4cf
 14858 0467 13       		.uleb128 0x13
 14859 0468 A2020000 		.4byte	.LASF49
 14860 046c 01       		.byte	0x1
 14861 046d 5602     		.2byte	0x256
 14862 046f 8C000000 		.4byte	0x8c
 14863 0473 02       		.uleb128 0x2
 14864 0474 91       		.byte	0x91
 14865 0475 70       		.sleb128 -16
 14866 0476 13       		.uleb128 0x13
 14867 0477 14000000 		.4byte	.LASF50
 14868 047b 01       		.byte	0x1
 14869 047c 5602     		.2byte	0x256
 14870 047e 8C000000 		.4byte	0x8c
 14871 0482 02       		.uleb128 0x2
 14872 0483 91       		.byte	0x91
 14873 0484 6E       		.sleb128 -18
 14874 0485 13       		.uleb128 0x13
 14875 0486 F4030000 		.4byte	.LASF40
 14876 048a 01       		.byte	0x1
 14877 048b 5602     		.2byte	0x256
 14878 048d 8C000000 		.4byte	0x8c
 14879 0491 02       		.uleb128 0x2
 14880 0492 91       		.byte	0x91
 14881 0493 76       		.sleb128 -10
 14882 0494 14       		.uleb128 0x14
 14883 0495 7800     		.ascii	"x\000"
 14884 0497 01       		.byte	0x1
 14885 0498 5602     		.2byte	0x256
 14886 049a 8C000000 		.4byte	0x8c
 14887 049e 02       		.uleb128 0x2
 14888 049f 91       		.byte	0x91
 14889 04a0 74       		.sleb128 -12
 14890 04a1 13       		.uleb128 0x13
 14891 04a2 E2010000 		.4byte	.LASF51
 14892 04a6 01       		.byte	0x1
 14893 04a7 5602     		.2byte	0x256
 14894 04a9 8C000000 		.4byte	0x8c
 14895 04ad 02       		.uleb128 0x2
 14896 04ae 91       		.byte	0x91
 14897 04af 72       		.sleb128 -14
ARM GAS  C:\Users\RECEPC~1\AppData\Local\Temp\cc8qeTl3.s 			page 323


 14898 04b0 13       		.uleb128 0x13
 14899 04b1 DE000000 		.4byte	.LASF52
 14900 04b5 01       		.byte	0x1
 14901 04b6 5702     		.2byte	0x257
 14902 04b8 79020000 		.4byte	0x279
 14903 04bc 02       		.uleb128 0x2
 14904 04bd 91       		.byte	0x91
 14905 04be 68       		.sleb128 -24
 14906 04bf 13       		.uleb128 0x13
 14907 04c0 56010000 		.4byte	.LASF29
 14908 04c4 01       		.byte	0x1
 14909 04c5 5702     		.2byte	0x257
 14910 04c7 99020000 		.4byte	0x299
 14911 04cb 02       		.uleb128 0x2
 14912 04cc 91       		.byte	0x91
 14913 04cd 60       		.sleb128 -32
 14914 04ce 00       		.byte	0
 14915 04cf 15       		.uleb128 0x15
 14916 04d0 F8010000 		.4byte	.LASF57
 14917 04d4 01       		.byte	0x1
 14918 04d5 2403     		.2byte	0x324
 14919 04d7 00000000 		.4byte	.LFB69
 14920 04db 0C000000 		.4byte	.LFE69-.LFB69
 14921 04df 01       		.uleb128 0x1
 14922 04e0 9C       		.byte	0x9c
 14923 04e1 12       		.uleb128 0x12
 14924 04e2 39030000 		.4byte	.LASF54
 14925 04e6 01       		.byte	0x1
 14926 04e7 3C03     		.2byte	0x33c
 14927 04e9 00000000 		.4byte	.LFB70
 14928 04ed 84500000 		.4byte	.LFE70-.LFB70
 14929 04f1 01       		.uleb128 0x1
 14930 04f2 9C       		.byte	0x9c
 14931 04f3 69050000 		.4byte	0x569
 14932 04f7 14       		.uleb128 0x14
 14933 04f8 7800     		.ascii	"x\000"
 14934 04fa 01       		.byte	0x1
 14935 04fb 3D03     		.2byte	0x33d
 14936 04fd 81000000 		.4byte	0x81
 14937 0501 02       		.uleb128 0x2
 14938 0502 91       		.byte	0x91
 14939 0503 6F       		.sleb128 -17
 14940 0504 14       		.uleb128 0x14
 14941 0505 7900     		.ascii	"y\000"
 14942 0507 01       		.byte	0x1
 14943 0508 3D03     		.2byte	0x33d
 14944 050a 81000000 		.4byte	0x81
 14945 050e 02       		.uleb128 0x2
 14946 050f 91       		.byte	0x91
 14947 0510 6E       		.sleb128 -18
 14948 0511 14       		.uleb128 0x14
 14949 0512 61757800 		.ascii	"aux\000"
 14950 0516 01       		.byte	0x1
 14951 0517 3D03     		.2byte	0x33d
 14952 0519 69050000 		.4byte	0x569
 14953 051d 02       		.uleb128 0x2
 14954 051e 91       		.byte	0x91
ARM GAS  C:\Users\RECEPC~1\AppData\Local\Temp\cc8qeTl3.s 			page 324


 14955 051f 54       		.sleb128 -44
 14956 0520 13       		.uleb128 0x13
 14957 0521 DE000000 		.4byte	.LASF52
 14958 0525 01       		.byte	0x1
 14959 0526 3D03     		.2byte	0x33d
 14960 0528 79020000 		.4byte	0x279
 14961 052c 02       		.uleb128 0x2
 14962 052d 91       		.byte	0x91
 14963 052e 4C       		.sleb128 -52
 14964 052f 14       		.uleb128 0x14
 14965 0530 785F3100 		.ascii	"x_1\000"
 14966 0534 01       		.byte	0x1
 14967 0535 3D03     		.2byte	0x33d
 14968 0537 81000000 		.4byte	0x81
 14969 053b 02       		.uleb128 0x2
 14970 053c 91       		.byte	0x91
 14971 053d 6D       		.sleb128 -19
 14972 053e 16       		.uleb128 0x16
 14973 053f 52060000 		.4byte	.LASF64
 14974 0543 01       		.byte	0x1
 14975 0544 3D03     		.2byte	0x33d
 14976 0546 81000000 		.4byte	0x81
 14977 054a 13       		.uleb128 0x13
 14978 054b 5F050000 		.4byte	.LASF55
 14979 054f 01       		.byte	0x1
 14980 0550 3E03     		.2byte	0x33e
 14981 0552 BD000000 		.4byte	0xbd
 14982 0556 02       		.uleb128 0x2
 14983 0557 91       		.byte	0x91
 14984 0558 44       		.sleb128 -60
 14985 0559 13       		.uleb128 0x13
 14986 055a 1C000000 		.4byte	.LASF56
 14987 055e 01       		.byte	0x1
 14988 055f 3F03     		.2byte	0x33f
 14989 0561 9E000000 		.4byte	0x9e
 14990 0565 02       		.uleb128 0x2
 14991 0566 91       		.byte	0x91
 14992 0567 60       		.sleb128 -32
 14993 0568 00       		.byte	0
 14994 0569 06       		.uleb128 0x6
 14995 056a 81000000 		.4byte	0x81
 14996 056e 79050000 		.4byte	0x579
 14997 0572 07       		.uleb128 0x7
 14998 0573 B6000000 		.4byte	0xb6
 14999 0577 09       		.byte	0x9
 15000 0578 00       		.byte	0
 15001 0579 15       		.uleb128 0x15
 15002 057a 46030000 		.4byte	.LASF58
 15003 057e 01       		.byte	0x1
 15004 057f 950B     		.2byte	0xb95
 15005 0581 00000000 		.4byte	.LFB71
 15006 0585 0C000000 		.4byte	.LFE71-.LFB71
 15007 0589 01       		.uleb128 0x1
 15008 058a 9C       		.byte	0x9c
 15009 058b 15       		.uleb128 0x15
 15010 058c 53020000 		.4byte	.LASF59
 15011 0590 01       		.byte	0x1
ARM GAS  C:\Users\RECEPC~1\AppData\Local\Temp\cc8qeTl3.s 			page 325


 15012 0591 AA0B     		.2byte	0xbaa
 15013 0593 00000000 		.4byte	.LFB72
 15014 0597 0C000000 		.4byte	.LFE72-.LFB72
 15015 059b 01       		.uleb128 0x1
 15016 059c 9C       		.byte	0x9c
 15017 059d 17       		.uleb128 0x17
 15018 059e EF040000 		.4byte	.LASF60
 15019 05a2 01       		.byte	0x1
 15020 05a3 BE0B     		.2byte	0xbbe
 15021 05a5 00000000 		.4byte	.LFB73
 15022 05a9 74000000 		.4byte	.LFE73-.LFB73
 15023 05ad 01       		.uleb128 0x1
 15024 05ae 9C       		.byte	0x9c
 15025 05af 17       		.uleb128 0x17
 15026 05b0 20050000 		.4byte	.LASF61
 15027 05b4 01       		.byte	0x1
 15028 05b5 DF0B     		.2byte	0xbdf
 15029 05b7 00000000 		.4byte	.LFB74
 15030 05bb 74000000 		.4byte	.LFE74-.LFB74
 15031 05bf 01       		.uleb128 0x1
 15032 05c0 9C       		.byte	0x9c
 15033 05c1 17       		.uleb128 0x17
 15034 05c2 2E040000 		.4byte	.LASF62
 15035 05c6 01       		.byte	0x1
 15036 05c7 000C     		.2byte	0xc00
 15037 05c9 00000000 		.4byte	.LFB75
 15038 05cd 54000000 		.4byte	.LFE75-.LFB75
 15039 05d1 01       		.uleb128 0x1
 15040 05d2 9C       		.byte	0x9c
 15041 05d3 12       		.uleb128 0x12
 15042 05d4 11050000 		.4byte	.LASF63
 15043 05d8 01       		.byte	0x1
 15044 05d9 1C0C     		.2byte	0xc1c
 15045 05db 00000000 		.4byte	.LFB76
 15046 05df 38000000 		.4byte	.LFE76-.LFB76
 15047 05e3 01       		.uleb128 0x1
 15048 05e4 9C       		.byte	0x9c
 15049 05e5 03060000 		.4byte	0x603
 15050 05e9 18       		.uleb128 0x18
 15051 05ea 7800     		.ascii	"x\000"
 15052 05ec 01       		.byte	0x1
 15053 05ed 1F0C     		.2byte	0xc1f
 15054 05ef 68000000 		.4byte	0x68
 15055 05f3 13       		.uleb128 0x13
 15056 05f4 79040000 		.4byte	.LASF65
 15057 05f8 01       		.byte	0x1
 15058 05f9 210C     		.2byte	0xc21
 15059 05fb 79020000 		.4byte	0x279
 15060 05ff 02       		.uleb128 0x2
 15061 0600 91       		.byte	0x91
 15062 0601 70       		.sleb128 -16
 15063 0602 00       		.byte	0
 15064 0603 19       		.uleb128 0x19
 15065 0604 17060000 		.4byte	.LASF66
 15066 0608 01       		.byte	0x1
 15067 0609 3A0C     		.2byte	0xc3a
 15068 060b 68000000 		.4byte	0x68
ARM GAS  C:\Users\RECEPC~1\AppData\Local\Temp\cc8qeTl3.s 			page 326


 15069 060f 00000000 		.4byte	.LFB77
 15070 0613 4C000000 		.4byte	.LFE77-.LFB77
 15071 0617 01       		.uleb128 0x1
 15072 0618 9C       		.byte	0x9c
 15073 0619 1A       		.uleb128 0x1a
 15074 061a 39000000 		.4byte	.LASF67
 15075 061e 06       		.byte	0x6
 15076 061f 3E01     		.2byte	0x13e
 15077 0621 25060000 		.4byte	0x625
 15078 0625 05       		.uleb128 0x5
 15079 0626 99020000 		.4byte	0x299
 15080 062a 06       		.uleb128 0x6
 15081 062b 81000000 		.4byte	0x81
 15082 062f 3B060000 		.4byte	0x63b
 15083 0633 1B       		.uleb128 0x1b
 15084 0634 B6000000 		.4byte	0xb6
 15085 0638 DB05     		.2byte	0x5db
 15086 063a 00       		.byte	0
 15087 063b 1A       		.uleb128 0x1a
 15088 063c 8E040000 		.4byte	.LASF68
 15089 0640 07       		.byte	0x7
 15090 0641 3E01     		.2byte	0x13e
 15091 0643 47060000 		.4byte	0x647
 15092 0647 05       		.uleb128 0x5
 15093 0648 2A060000 		.4byte	0x62a
 15094 064c 1A       		.uleb128 0x1a
 15095 064d A3040000 		.4byte	.LASF69
 15096 0651 08       		.byte	0x8
 15097 0652 2A06     		.2byte	0x62a
 15098 0654 58060000 		.4byte	0x658
 15099 0658 05       		.uleb128 0x5
 15100 0659 76000000 		.4byte	0x76
 15101 065d 1C       		.uleb128 0x1c
 15102 065e EA020000 		.4byte	.LASF70
 15103 0662 05       		.byte	0x5
 15104 0663 42       		.byte	0x42
 15105 0664 AC000000 		.4byte	0xac
 15106 0668 05       		.uleb128 0x5
 15107 0669 03       		.byte	0x3
 15108 066a 00000000 		.4byte	count_teclas1
 15109 066e 1C       		.uleb128 0x1c
 15110 066f B9040000 		.4byte	.LASF71
 15111 0673 05       		.byte	0x5
 15112 0674 42       		.byte	0x42
 15113 0675 AC000000 		.4byte	0xac
 15114 0679 05       		.uleb128 0x5
 15115 067a 03       		.byte	0x3
 15116 067b 00000000 		.4byte	comas1
 15117 067f 1C       		.uleb128 0x1c
 15118 0680 C0040000 		.4byte	.LASF72
 15119 0684 05       		.byte	0x5
 15120 0685 42       		.byte	0x42
 15121 0686 AC000000 		.4byte	0xac
 15122 068a 05       		.uleb128 0x5
 15123 068b 03       		.byte	0x3
 15124 068c 00000000 		.4byte	comas2
 15125 0690 1C       		.uleb128 0x1c
ARM GAS  C:\Users\RECEPC~1\AppData\Local\Temp\cc8qeTl3.s 			page 327


 15126 0691 91000000 		.4byte	.LASF73
 15127 0695 05       		.byte	0x5
 15128 0696 42       		.byte	0x42
 15129 0697 AC000000 		.4byte	0xac
 15130 069b 05       		.uleb128 0x5
 15131 069c 03       		.byte	0x3
 15132 069d 00000000 		.4byte	id_coma1
 15133 06a1 1C       		.uleb128 0x1c
 15134 06a2 3B020000 		.4byte	.LASF74
 15135 06a6 05       		.byte	0x5
 15136 06a7 42       		.byte	0x42
 15137 06a8 AC000000 		.4byte	0xac
 15138 06ac 05       		.uleb128 0x5
 15139 06ad 03       		.byte	0x3
 15140 06ae 00000000 		.4byte	id_teclado1
 15141 06b2 1C       		.uleb128 0x1c
 15142 06b3 F8020000 		.4byte	.LASF75
 15143 06b7 05       		.byte	0x5
 15144 06b8 42       		.byte	0x42
 15145 06b9 AC000000 		.4byte	0xac
 15146 06bd 05       		.uleb128 0x5
 15147 06be 03       		.byte	0x3
 15148 06bf 00000000 		.4byte	count_teclas2
 15149 06c3 1C       		.uleb128 0x1c
 15150 06c4 9A000000 		.4byte	.LASF76
 15151 06c8 05       		.byte	0x5
 15152 06c9 42       		.byte	0x42
 15153 06ca AC000000 		.4byte	0xac
 15154 06ce 05       		.uleb128 0x5
 15155 06cf 03       		.byte	0x3
 15156 06d0 00000000 		.4byte	id_coma2
 15157 06d4 1C       		.uleb128 0x1c
 15158 06d5 47020000 		.4byte	.LASF77
 15159 06d9 05       		.byte	0x5
 15160 06da 42       		.byte	0x42
 15161 06db AC000000 		.4byte	0xac
 15162 06df 05       		.uleb128 0x5
 15163 06e0 03       		.byte	0x3
 15164 06e1 00000000 		.4byte	id_teclado2
 15165 06e5 1C       		.uleb128 0x1c
 15166 06e6 06030000 		.4byte	.LASF78
 15167 06ea 05       		.byte	0x5
 15168 06eb 43       		.byte	0x43
 15169 06ec B1000000 		.4byte	0xb1
 15170 06f0 05       		.uleb128 0x5
 15171 06f1 03       		.byte	0x3
 15172 06f2 00000000 		.4byte	posx1
 15173 06f6 1C       		.uleb128 0x1c
 15174 06f7 E8030000 		.4byte	.LASF79
 15175 06fb 05       		.byte	0x5
 15176 06fc 43       		.byte	0x43
 15177 06fd B1000000 		.4byte	0xb1
 15178 0701 05       		.uleb128 0x5
 15179 0702 03       		.byte	0x3
 15180 0703 00000000 		.4byte	posy1
 15181 0707 1C       		.uleb128 0x1c
 15182 0708 91060000 		.4byte	.LASF80
ARM GAS  C:\Users\RECEPC~1\AppData\Local\Temp\cc8qeTl3.s 			page 328


 15183 070c 05       		.byte	0x5
 15184 070d 43       		.byte	0x43
 15185 070e B1000000 		.4byte	0xb1
 15186 0712 05       		.uleb128 0x5
 15187 0713 03       		.byte	0x3
 15188 0714 00000000 		.4byte	sizeletra1
 15189 0718 1C       		.uleb128 0x1c
 15190 0719 2A030000 		.4byte	.LASF81
 15191 071d 05       		.byte	0x5
 15192 071e 43       		.byte	0x43
 15193 071f B1000000 		.4byte	0xb1
 15194 0723 05       		.uleb128 0x5
 15195 0724 03       		.byte	0x3
 15196 0725 00000000 		.4byte	posx2
 15197 0729 1C       		.uleb128 0x1c
 15198 072a EE030000 		.4byte	.LASF82
 15199 072e 05       		.byte	0x5
 15200 072f 43       		.byte	0x43
 15201 0730 B1000000 		.4byte	0xb1
 15202 0734 05       		.uleb128 0x5
 15203 0735 03       		.byte	0x3
 15204 0736 00000000 		.4byte	posy2
 15205 073a 1C       		.uleb128 0x1c
 15206 073b 9C060000 		.4byte	.LASF83
 15207 073f 05       		.byte	0x5
 15208 0740 43       		.byte	0x43
 15209 0741 B1000000 		.4byte	0xb1
 15210 0745 05       		.uleb128 0x5
 15211 0746 03       		.byte	0x3
 15212 0747 00000000 		.4byte	sizeletra2
 15213 074b 1C       		.uleb128 0x1c
 15214 074c FB000000 		.4byte	.LASF84
 15215 0750 05       		.byte	0x5
 15216 0751 44       		.byte	0x44
 15217 0752 AC000000 		.4byte	0xac
 15218 0756 05       		.uleb128 0x5
 15219 0757 03       		.byte	0x3
 15220 0758 00000000 		.4byte	teclas1
 15221 075c 1C       		.uleb128 0x1c
 15222 075d 03010000 		.4byte	.LASF85
 15223 0761 05       		.byte	0x5
 15224 0762 44       		.byte	0x44
 15225 0763 AC000000 		.4byte	0xac
 15226 0767 05       		.uleb128 0x5
 15227 0768 03       		.byte	0x3
 15228 0769 00000000 		.4byte	teclas2
 15229 076d 1C       		.uleb128 0x1c
 15230 076e 40010000 		.4byte	.LASF86
 15231 0772 05       		.byte	0x5
 15232 0773 45       		.byte	0x45
 15233 0774 AC000000 		.4byte	0xac
 15234 0778 05       		.uleb128 0x5
 15235 0779 03       		.byte	0x3
 15236 077a 00000000 		.4byte	flujo_LCD1
 15237 077e 1C       		.uleb128 0x1c
 15238 077f 4B010000 		.4byte	.LASF87
 15239 0783 05       		.byte	0x5
ARM GAS  C:\Users\RECEPC~1\AppData\Local\Temp\cc8qeTl3.s 			page 329


 15240 0784 45       		.byte	0x45
 15241 0785 AC000000 		.4byte	0xac
 15242 0789 05       		.uleb128 0x5
 15243 078a 03       		.byte	0x3
 15244 078b 00000000 		.4byte	flujo_LCD2
 15245 078f 1C       		.uleb128 0x1c
 15246 0790 05020000 		.4byte	.LASF88
 15247 0794 05       		.byte	0x5
 15248 0795 46       		.byte	0x46
 15249 0796 AC000000 		.4byte	0xac
 15250 079a 05       		.uleb128 0x5
 15251 079b 03       		.byte	0x3
 15252 079c 00000000 		.4byte	flujo_pos1
 15253 07a0 1C       		.uleb128 0x1c
 15254 07a1 10020000 		.4byte	.LASF89
 15255 07a5 05       		.byte	0x5
 15256 07a6 46       		.byte	0x46
 15257 07a7 AC000000 		.4byte	0xac
 15258 07ab 05       		.uleb128 0x5
 15259 07ac 03       		.byte	0x3
 15260 07ad 00000000 		.4byte	flujo_pos2
 15261 07b1 1C       		.uleb128 0x1c
 15262 07b2 D4010000 		.4byte	.LASF90
 15263 07b6 05       		.byte	0x5
 15264 07b7 47       		.byte	0x47
 15265 07b8 AC000000 		.4byte	0xac
 15266 07bc 05       		.uleb128 0x5
 15267 07bd 03       		.byte	0x3
 15268 07be 00000000 		.4byte	seleccion_pos
 15269 07c2 1C       		.uleb128 0x1c
 15270 07c3 A6050000 		.4byte	.LASF91
 15271 07c7 05       		.byte	0x5
 15272 07c8 48       		.byte	0x48
 15273 07c9 AC000000 		.4byte	0xac
 15274 07cd 05       		.uleb128 0x5
 15275 07ce 03       		.byte	0x3
 15276 07cf 00000000 		.4byte	flujo_pos
 15277 07d3 1C       		.uleb128 0x1c
 15278 07d4 C7010000 		.4byte	.LASF92
 15279 07d8 05       		.byte	0x5
 15280 07d9 49       		.byte	0x49
 15281 07da AC000000 		.4byte	0xac
 15282 07de 05       		.uleb128 0x5
 15283 07df 03       		.byte	0x3
 15284 07e0 00000000 		.4byte	venta_activa
 15285 07e4 1C       		.uleb128 0x1c
 15286 07e5 93010000 		.4byte	.LASF93
 15287 07e9 05       		.byte	0x5
 15288 07ea 49       		.byte	0x49
 15289 07eb AC000000 		.4byte	0xac
 15290 07ef 05       		.uleb128 0x5
 15291 07f0 03       		.byte	0x3
 15292 07f1 00000000 		.4byte	venta_activa2
 15293 07f5 06       		.uleb128 0x6
 15294 07f6 81000000 		.4byte	0x81
 15295 07fa 05080000 		.4byte	0x805
 15296 07fe 07       		.uleb128 0x7
ARM GAS  C:\Users\RECEPC~1\AppData\Local\Temp\cc8qeTl3.s 			page 330


 15297 07ff B6000000 		.4byte	0xb6
 15298 0803 1D       		.byte	0x1d
 15299 0804 00       		.byte	0
 15300 0805 1C       		.uleb128 0x1c
 15301 0806 11040000 		.4byte	.LASF94
 15302 080a 05       		.byte	0x5
 15303 080b 4A       		.byte	0x4a
 15304 080c 16080000 		.4byte	0x816
 15305 0810 05       		.uleb128 0x5
 15306 0811 03       		.byte	0x3
 15307 0812 00000000 		.4byte	Buffer_LCD1
 15308 0816 05       		.uleb128 0x5
 15309 0817 F5070000 		.4byte	0x7f5
 15310 081b 1C       		.uleb128 0x1c
 15311 081c 6E020000 		.4byte	.LASF95
 15312 0820 05       		.byte	0x5
 15313 0821 4B       		.byte	0x4b
 15314 0822 2C080000 		.4byte	0x82c
 15315 0826 05       		.uleb128 0x5
 15316 0827 03       		.byte	0x3
 15317 0828 00000000 		.4byte	Buffer_LCD2
 15318 082c 05       		.uleb128 0x5
 15319 082d F5070000 		.4byte	0x7f5
 15320 0831 1C       		.uleb128 0x1c
 15321 0832 63010000 		.4byte	.LASF96
 15322 0836 05       		.byte	0x5
 15323 0837 4C       		.byte	0x4c
 15324 0838 AC000000 		.4byte	0xac
 15325 083c 05       		.uleb128 0x5
 15326 083d 03       		.byte	0x3
 15327 083e 00000000 		.4byte	count_protector
 15328 0842 1C       		.uleb128 0x1c
 15329 0843 28000000 		.4byte	.LASF97
 15330 0847 05       		.byte	0x5
 15331 0848 4C       		.byte	0x4c
 15332 0849 AC000000 		.4byte	0xac
 15333 084d 05       		.uleb128 0x5
 15334 084e 03       		.byte	0x3
 15335 084f 00000000 		.4byte	count_protector2
 15336 0853 1C       		.uleb128 0x1c
 15337 0854 DD020000 		.4byte	.LASF98
 15338 0858 05       		.byte	0x5
 15339 0859 4D       		.byte	0x4d
 15340 085a 64080000 		.4byte	0x864
 15341 085e 05       		.uleb128 0x5
 15342 085f 03       		.byte	0x3
 15343 0860 00000000 		.4byte	password_lcd
 15344 0864 05       		.uleb128 0x5
 15345 0865 89020000 		.4byte	0x289
 15346 0869 1C       		.uleb128 0x1c
 15347 086a 57060000 		.4byte	.LASF99
 15348 086e 05       		.byte	0x5
 15349 086f 4E       		.byte	0x4e
 15350 0870 B1000000 		.4byte	0xb1
 15351 0874 05       		.uleb128 0x5
 15352 0875 03       		.byte	0x3
 15353 0876 00000000 		.4byte	imagen_grado
ARM GAS  C:\Users\RECEPC~1\AppData\Local\Temp\cc8qeTl3.s 			page 331


 15354 087a 06       		.uleb128 0x6
 15355 087b 8C000000 		.4byte	0x8c
 15356 087f 90080000 		.4byte	0x890
 15357 0883 07       		.uleb128 0x7
 15358 0884 B6000000 		.4byte	0xb6
 15359 0888 01       		.byte	0x1
 15360 0889 07       		.uleb128 0x7
 15361 088a B6000000 		.4byte	0xb6
 15362 088e 01       		.byte	0x1
 15363 088f 00       		.byte	0
 15364 0890 1C       		.uleb128 0x1c
 15365 0891 6E050000 		.4byte	.LASF100
 15366 0895 05       		.byte	0x5
 15367 0896 4F       		.byte	0x4f
 15368 0897 A1080000 		.4byte	0x8a1
 15369 089b 05       		.uleb128 0x5
 15370 089c 03       		.byte	0x3
 15371 089d 00000000 		.4byte	prox_caso
 15372 08a1 05       		.uleb128 0x5
 15373 08a2 7A080000 		.4byte	0x87a
 15374 08a6 06       		.uleb128 0x6
 15375 08a7 81000000 		.4byte	0x81
 15376 08ab B6080000 		.4byte	0x8b6
 15377 08af 07       		.uleb128 0x7
 15378 08b0 B6000000 		.4byte	0xb6
 15379 08b4 02       		.byte	0x2
 15380 08b5 00       		.byte	0
 15381 08b6 1C       		.uleb128 0x1c
 15382 08b7 7F020000 		.4byte	.LASF101
 15383 08bb 05       		.byte	0x5
 15384 08bc 50       		.byte	0x50
 15385 08bd C7080000 		.4byte	0x8c7
 15386 08c1 05       		.uleb128 0x5
 15387 08c2 03       		.byte	0x3
 15388 08c3 00000000 		.4byte	bloqueo_LCD
 15389 08c7 05       		.uleb128 0x5
 15390 08c8 A6080000 		.4byte	0x8a6
 15391 08cc 1C       		.uleb128 0x1c
 15392 08cd 3D060000 		.4byte	.LASF102
 15393 08d1 05       		.byte	0x5
 15394 08d2 51       		.byte	0x51
 15395 08d3 DD080000 		.4byte	0x8dd
 15396 08d7 05       		.uleb128 0x5
 15397 08d8 03       		.byte	0x3
 15398 08d9 00000000 		.4byte	id_estacion
 15399 08dd 05       		.uleb128 0x5
 15400 08de 79020000 		.4byte	0x279
 15401 08e2 1C       		.uleb128 0x1c
 15402 08e3 5E020000 		.4byte	.LASF103
 15403 08e7 05       		.byte	0x5
 15404 08e8 52       		.byte	0x52
 15405 08e9 F3080000 		.4byte	0x8f3
 15406 08ed 05       		.uleb128 0x5
 15407 08ee 03       		.byte	0x3
 15408 08ef 00000000 		.4byte	id_venta
 15409 08f3 05       		.uleb128 0x5
 15410 08f4 99020000 		.4byte	0x299
ARM GAS  C:\Users\RECEPC~1\AppData\Local\Temp\cc8qeTl3.s 			page 332


 15411 08f8 06       		.uleb128 0x6
 15412 08f9 81000000 		.4byte	0x81
 15413 08fd 08090000 		.4byte	0x908
 15414 0901 07       		.uleb128 0x7
 15415 0902 B6000000 		.4byte	0xb6
 15416 0906 C7       		.byte	0xc7
 15417 0907 00       		.byte	0
 15418 0908 1C       		.uleb128 0x1c
 15419 0909 2F060000 		.4byte	.LASF104
 15420 090d 05       		.byte	0x5
 15421 090e 53       		.byte	0x53
 15422 090f 19090000 		.4byte	0x919
 15423 0913 05       		.uleb128 0x5
 15424 0914 03       		.byte	0x3
 15425 0915 00000000 		.4byte	trama_totales
 15426 0919 05       		.uleb128 0x5
 15427 091a F8080000 		.4byte	0x8f8
 15428 091e 1C       		.uleb128 0x1c
 15429 091f 59040000 		.4byte	.LASF105
 15430 0923 05       		.byte	0x5
 15431 0924 57       		.byte	0x57
 15432 0925 AC000000 		.4byte	0xac
 15433 0929 05       		.uleb128 0x5
 15434 092a 03       		.byte	0x3
 15435 092b 00000000 		.4byte	ppux10
 15436 092f 06       		.uleb128 0x6
 15437 0930 81000000 		.4byte	0x81
 15438 0934 3F090000 		.4byte	0x93f
 15439 0938 07       		.uleb128 0x7
 15440 0939 B6000000 		.4byte	0xb6
 15441 093d 10       		.byte	0x10
 15442 093e 00       		.byte	0
 15443 093f 1C       		.uleb128 0x1c
 15444 0940 F9040000 		.4byte	.LASF106
 15445 0944 05       		.byte	0x5
 15446 0945 58       		.byte	0x58
 15447 0946 50090000 		.4byte	0x950
 15448 094a 05       		.uleb128 0x5
 15449 094b 03       		.byte	0x3
 15450 094c 00000000 		.4byte	nombre_pro1
 15451 0950 05       		.uleb128 0x5
 15452 0951 2F090000 		.4byte	0x92f
 15453 0955 1C       		.uleb128 0x1c
 15454 0956 DA050000 		.4byte	.LASF107
 15455 095a 05       		.byte	0x5
 15456 095b 58       		.byte	0x58
 15457 095c 66090000 		.4byte	0x966
 15458 0960 05       		.uleb128 0x5
 15459 0961 03       		.byte	0x3
 15460 0962 00000000 		.4byte	nombre_pro2
 15461 0966 05       		.uleb128 0x5
 15462 0967 2F090000 		.4byte	0x92f
 15463 096b 1C       		.uleb128 0x1c
 15464 096c 05050000 		.4byte	.LASF108
 15465 0970 05       		.byte	0x5
 15466 0971 58       		.byte	0x58
 15467 0972 7C090000 		.4byte	0x97c
ARM GAS  C:\Users\RECEPC~1\AppData\Local\Temp\cc8qeTl3.s 			page 333


 15468 0976 05       		.uleb128 0x5
 15469 0977 03       		.byte	0x3
 15470 0978 00000000 		.4byte	nombre_pro3
 15471 097c 05       		.uleb128 0x5
 15472 097d 2F090000 		.4byte	0x92f
 15473 0981 1C       		.uleb128 0x1c
 15474 0982 C7000000 		.4byte	.LASF109
 15475 0986 05       		.byte	0x5
 15476 0987 59       		.byte	0x59
 15477 0988 92090000 		.4byte	0x992
 15478 098c 05       		.uleb128 0x5
 15479 098d 03       		.byte	0x3
 15480 098e 00000000 		.4byte	version
 15481 0992 05       		.uleb128 0x5
 15482 0993 CD000000 		.4byte	0xcd
 15483 0997 1C       		.uleb128 0x1c
 15484 0998 C1010000 		.4byte	.LASF110
 15485 099c 05       		.byte	0x5
 15486 099d 63       		.byte	0x63
 15487 099e E4000000 		.4byte	0xe4
 15488 09a2 05       		.uleb128 0x5
 15489 09a3 03       		.byte	0x3
 15490 09a4 00000000 		.4byte	lado1
 15491 09a8 1C       		.uleb128 0x1c
 15492 09a9 B0050000 		.4byte	.LASF111
 15493 09ad 05       		.byte	0x5
 15494 09ae 64       		.byte	0x64
 15495 09af E4000000 		.4byte	0xe4
 15496 09b3 05       		.uleb128 0x5
 15497 09b4 03       		.byte	0x3
 15498 09b5 00000000 		.4byte	lado2
 15499 09b9 06       		.uleb128 0x6
 15500 09ba 81000000 		.4byte	0x81
 15501 09be C9090000 		.4byte	0x9c9
 15502 09c2 07       		.uleb128 0x7
 15503 09c3 B6000000 		.4byte	0xb6
 15504 09c7 20       		.byte	0x20
 15505 09c8 00       		.byte	0
 15506 09c9 1C       		.uleb128 0x1c
 15507 09ca 60040000 		.4byte	.LASF112
 15508 09ce 05       		.byte	0x5
 15509 09cf 68       		.byte	0x68
 15510 09d0 DA090000 		.4byte	0x9da
 15511 09d4 05       		.uleb128 0x5
 15512 09d5 03       		.byte	0x3
 15513 09d6 00000000 		.4byte	nombre
 15514 09da 05       		.uleb128 0x5
 15515 09db B9090000 		.4byte	0x9b9
 15516 09df 06       		.uleb128 0x6
 15517 09e0 81000000 		.4byte	0x81
 15518 09e4 EF090000 		.4byte	0x9ef
 15519 09e8 07       		.uleb128 0x7
 15520 09e9 B6000000 		.4byte	0xb6
 15521 09ed 0E       		.byte	0xe
 15522 09ee 00       		.byte	0
 15523 09ef 1D       		.uleb128 0x1d
 15524 09f0 6E697400 		.ascii	"nit\000"
ARM GAS  C:\Users\RECEPC~1\AppData\Local\Temp\cc8qeTl3.s 			page 334


 15525 09f4 05       		.byte	0x5
 15526 09f5 69       		.byte	0x69
 15527 09f6 000A0000 		.4byte	0xa00
 15528 09fa 05       		.uleb128 0x5
 15529 09fb 03       		.byte	0x3
 15530 09fc 00000000 		.4byte	nit
 15531 0a00 05       		.uleb128 0x5
 15532 0a01 DF090000 		.4byte	0x9df
 15533 0a05 06       		.uleb128 0x6
 15534 0a06 81000000 		.4byte	0x81
 15535 0a0a 150A0000 		.4byte	0xa15
 15536 0a0e 07       		.uleb128 0x7
 15537 0a0f B6000000 		.4byte	0xb6
 15538 0a13 13       		.byte	0x13
 15539 0a14 00       		.byte	0
 15540 0a15 1C       		.uleb128 0x1c
 15541 0a16 32020000 		.4byte	.LASF113
 15542 0a1a 05       		.byte	0x5
 15543 0a1b 6A       		.byte	0x6a
 15544 0a1c 260A0000 		.4byte	0xa26
 15545 0a20 05       		.uleb128 0x5
 15546 0a21 03       		.byte	0x3
 15547 0a22 00000000 		.4byte	telefono
 15548 0a26 05       		.uleb128 0x5
 15549 0a27 050A0000 		.4byte	0xa05
 15550 0a2b 1C       		.uleb128 0x1c
 15551 0a2c 36010000 		.4byte	.LASF114
 15552 0a30 05       		.byte	0x5
 15553 0a31 6B       		.byte	0x6b
 15554 0a32 3C0A0000 		.4byte	0xa3c
 15555 0a36 05       		.uleb128 0x5
 15556 0a37 03       		.byte	0x3
 15557 0a38 00000000 		.4byte	direccion
 15558 0a3c 05       		.uleb128 0x5
 15559 0a3d B9090000 		.4byte	0x9b9
 15560 0a41 06       		.uleb128 0x6
 15561 0a42 81000000 		.4byte	0x81
 15562 0a46 510A0000 		.4byte	0xa51
 15563 0a4a 07       		.uleb128 0x7
 15564 0a4b B6000000 		.4byte	0xb6
 15565 0a4f 1F       		.byte	0x1f
 15566 0a50 00       		.byte	0
 15567 0a51 1C       		.uleb128 0x1c
 15568 0a52 0B010000 		.4byte	.LASF115
 15569 0a56 05       		.byte	0x5
 15570 0a57 6C       		.byte	0x6c
 15571 0a58 620A0000 		.4byte	0xa62
 15572 0a5c 05       		.uleb128 0x5
 15573 0a5d 03       		.byte	0x3
 15574 0a5e 00000000 		.4byte	lema1
 15575 0a62 05       		.uleb128 0x5
 15576 0a63 410A0000 		.4byte	0xa41
 15577 0a67 1C       		.uleb128 0x1c
 15578 0a68 8D010000 		.4byte	.LASF116
 15579 0a6c 05       		.byte	0x5
 15580 0a6d 6D       		.byte	0x6d
 15581 0a6e 780A0000 		.4byte	0xa78
ARM GAS  C:\Users\RECEPC~1\AppData\Local\Temp\cc8qeTl3.s 			page 335


 15582 0a72 05       		.uleb128 0x5
 15583 0a73 03       		.byte	0x3
 15584 0a74 00000000 		.4byte	lema2
 15585 0a78 05       		.uleb128 0x5
 15586 0a79 410A0000 		.4byte	0xa41
 15587 0a7d 06       		.uleb128 0x6
 15588 0a7e 81000000 		.4byte	0x81
 15589 0a82 8D0A0000 		.4byte	0xa8d
 15590 0a86 07       		.uleb128 0x7
 15591 0a87 B6000000 		.4byte	0xb6
 15592 0a8b 01       		.byte	0x1
 15593 0a8c 00       		.byte	0
 15594 0a8d 1C       		.uleb128 0x1c
 15595 0a8e 71040000 		.4byte	.LASF117
 15596 0a92 05       		.byte	0x5
 15597 0a93 6E       		.byte	0x6e
 15598 0a94 9E0A0000 		.4byte	0xa9e
 15599 0a98 05       		.uleb128 0x5
 15600 0a99 03       		.byte	0x3
 15601 0a9a 00000000 		.4byte	id_logo
 15602 0a9e 05       		.uleb128 0x5
 15603 0a9f 7D0A0000 		.4byte	0xa7d
 15604 0aa3 1D       		.uleb128 0x1d
 15605 0aa4 6B6D00   		.ascii	"km\000"
 15606 0aa7 05       		.byte	0x5
 15607 0aa8 6F       		.byte	0x6f
 15608 0aa9 B30A0000 		.4byte	0xab3
 15609 0aad 05       		.uleb128 0x5
 15610 0aae 03       		.byte	0x3
 15611 0aaf 00000000 		.4byte	km
 15612 0ab3 05       		.uleb128 0x5
 15613 0ab4 7D0A0000 		.4byte	0xa7d
 15614 0ab8 1C       		.uleb128 0x1c
 15615 0ab9 1C060000 		.4byte	.LASF118
 15616 0abd 05       		.byte	0x5
 15617 0abe 70       		.byte	0x70
 15618 0abf A6080000 		.4byte	0x8a6
 15619 0ac3 05       		.uleb128 0x5
 15620 0ac4 03       		.byte	0x3
 15621 0ac5 00000000 		.4byte	fecha
 15622 0ac9 1C       		.uleb128 0x1c
 15623 0aca F6000000 		.4byte	.LASF119
 15624 0ace 05       		.byte	0x5
 15625 0acf 71       		.byte	0x71
 15626 0ad0 7D0A0000 		.4byte	0xa7d
 15627 0ad4 05       		.uleb128 0x5
 15628 0ad5 03       		.byte	0x3
 15629 0ad6 00000000 		.4byte	hora
 15630 0ada 1C       		.uleb128 0x1c
 15631 0adb 26010000 		.4byte	.LASF120
 15632 0adf 05       		.byte	0x5
 15633 0ae0 87       		.byte	0x87
 15634 0ae1 8A010000 		.4byte	0x18a
 15635 0ae5 05       		.uleb128 0x5
 15636 0ae6 03       		.byte	0x3
 15637 0ae7 00000000 		.4byte	rventa1
 15638 0aeb 1C       		.uleb128 0x1c
ARM GAS  C:\Users\RECEPC~1\AppData\Local\Temp\cc8qeTl3.s 			page 336


 15639 0aec 2E010000 		.4byte	.LASF121
 15640 0af0 05       		.byte	0x5
 15641 0af1 88       		.byte	0x88
 15642 0af2 8A010000 		.4byte	0x18a
 15643 0af6 05       		.uleb128 0x5
 15644 0af7 03       		.byte	0x3
 15645 0af8 00000000 		.4byte	rventa2
 15646 0afc 1C       		.uleb128 0x1c
 15647 0afd E5000000 		.4byte	.LASF122
 15648 0b01 05       		.byte	0x5
 15649 0b02 8D       		.byte	0x8d
 15650 0b03 81000000 		.4byte	0x81
 15651 0b07 05       		.uleb128 0x5
 15652 0b08 03       		.byte	0x3
 15653 0b09 00000000 		.4byte	ok_RF
 15654 0b0d 1C       		.uleb128 0x1c
 15655 0b0e B6050000 		.4byte	.LASF123
 15656 0b12 05       		.byte	0x5
 15657 0b13 8E       		.byte	0x8e
 15658 0b14 81000000 		.4byte	0x81
 15659 0b18 05       		.uleb128 0x5
 15660 0b19 03       		.byte	0x3
 15661 0b1a 00000000 		.4byte	ok_datosRF
 15662 0b1e 1C       		.uleb128 0x1c
 15663 0b1f 67020000 		.4byte	.LASF124
 15664 0b23 05       		.byte	0x5
 15665 0b24 8F       		.byte	0x8f
 15666 0b25 F8080000 		.4byte	0x8f8
 15667 0b29 05       		.uleb128 0x5
 15668 0b2a 03       		.byte	0x3
 15669 0b2b 00000000 		.4byte	rf_mod
 15670 0b2f 06       		.uleb128 0x6
 15671 0b30 81000000 		.4byte	0x81
 15672 0b34 3F0B0000 		.4byte	0xb3f
 15673 0b38 07       		.uleb128 0x7
 15674 0b39 B6000000 		.4byte	0xb6
 15675 0b3d 3F       		.byte	0x3f
 15676 0b3e 00       		.byte	0
 15677 0b3f 1C       		.uleb128 0x1c
 15678 0b40 73010000 		.4byte	.LASF125
 15679 0b44 05       		.byte	0x5
 15680 0b45 94       		.byte	0x94
 15681 0b46 2F0B0000 		.4byte	0xb2f
 15682 0b4a 05       		.uleb128 0x5
 15683 0b4b 03       		.byte	0x3
 15684 0b4c 00000000 		.4byte	buffer_i2c
 15685 0b50 1C       		.uleb128 0x1c
 15686 0b51 67040000 		.4byte	.LASF126
 15687 0b55 05       		.byte	0x5
 15688 0b56 99       		.byte	0x99
 15689 0b57 81000000 		.4byte	0x81
 15690 0b5b 05       		.uleb128 0x5
 15691 0b5c 03       		.byte	0x3
 15692 0b5d 00000000 		.4byte	crc_total
 15693 0b61 1C       		.uleb128 0x1c
 15694 0b62 AA020000 		.4byte	.LASF127
 15695 0b66 05       		.byte	0x5
ARM GAS  C:\Users\RECEPC~1\AppData\Local\Temp\cc8qeTl3.s 			page 337


 15696 0b67 9D       		.byte	0x9d
 15697 0b68 7D0A0000 		.4byte	0xa7d
 15698 0b6c 05       		.uleb128 0x5
 15699 0b6d 03       		.byte	0x3
 15700 0b6e 00000000 		.4byte	print1
 15701 0b72 1C       		.uleb128 0x1c
 15702 0b73 B1020000 		.4byte	.LASF128
 15703 0b77 05       		.byte	0x5
 15704 0b78 9E       		.byte	0x9e
 15705 0b79 7D0A0000 		.4byte	0xa7d
 15706 0b7d 05       		.uleb128 0x5
 15707 0b7e 03       		.byte	0x3
 15708 0b7f 00000000 		.4byte	print2
 15709 0b83 1C       		.uleb128 0x1c
 15710 0b84 B8020000 		.4byte	.LASF33
 15711 0b88 05       		.byte	0x5
 15712 0b89 A3       		.byte	0xa3
 15713 0b8a 81000000 		.4byte	0x81
 15714 0b8e 05       		.uleb128 0x5
 15715 0b8f 03       		.byte	0x3
 15716 0b90 00000000 		.4byte	tipo_venta
 15717 0b94 06       		.uleb128 0x6
 15718 0b95 81000000 		.4byte	0x81
 15719 0b99 A40B0000 		.4byte	0xba4
 15720 0b9d 07       		.uleb128 0x7
 15721 0b9e B6000000 		.4byte	0xb6
 15722 0ba2 19       		.byte	0x19
 15723 0ba3 00       		.byte	0
 15724 0ba4 1C       		.uleb128 0x1c
 15725 0ba5 EB010000 		.4byte	.LASF129
 15726 0ba9 01       		.byte	0x1
 15727 0baa 35       		.byte	0x35
 15728 0bab 940B0000 		.4byte	0xb94
 15729 0baf 05       		.uleb128 0x5
 15730 0bb0 03       		.byte	0x3
 15731 0bb1 00000000 		.4byte	letras
 15732 0bb5 1C       		.uleb128 0x1c
 15733 0bb6 CD050000 		.4byte	.LASF130
 15734 0bba 01       		.byte	0x1
 15735 0bbb 36       		.byte	0x36
 15736 0bbc 79020000 		.4byte	0x279
 15737 0bc0 05       		.uleb128 0x5
 15738 0bc1 03       		.byte	0x3
 15739 0bc2 00000000 		.4byte	clave_config
 15740 0bc6 06       		.uleb128 0x6
 15741 0bc7 81000000 		.4byte	0x81
 15742 0bcb D60B0000 		.4byte	0xbd6
 15743 0bcf 07       		.uleb128 0x7
 15744 0bd0 B6000000 		.4byte	0xb6
 15745 0bd4 11       		.byte	0x11
 15746 0bd5 00       		.byte	0
 15747 0bd6 1C       		.uleb128 0x1c
 15748 0bd7 D9000000 		.4byte	.LASF131
 15749 0bdb 01       		.byte	0x1
 15750 0bdc 37       		.byte	0x37
 15751 0bdd C60B0000 		.4byte	0xbc6
 15752 0be1 05       		.uleb128 0x5
ARM GAS  C:\Users\RECEPC~1\AppData\Local\Temp\cc8qeTl3.s 			page 338


 15753 0be2 03       		.byte	0x3
 15754 0be3 00000000 		.4byte	test
 15755 0be7 1C       		.uleb128 0x1c
 15756 0be8 A3000000 		.4byte	.LASF132
 15757 0bec 01       		.byte	0x1
 15758 0bed 38       		.byte	0x38
 15759 0bee 8C000000 		.4byte	0x8c
 15760 0bf2 05       		.uleb128 0x5
 15761 0bf3 03       		.byte	0x3
 15762 0bf4 00000000 		.4byte	num_decimal2
 15763 0bf8 1C       		.uleb128 0x1c
 15764 0bf9 24020000 		.4byte	.LASF133
 15765 0bfd 01       		.byte	0x1
 15766 0bfe 3C       		.byte	0x3c
 15767 0bff 99020000 		.4byte	0x299
 15768 0c03 05       		.uleb128 0x5
 15769 0c04 03       		.byte	0x3
 15770 0c05 00000000 		.4byte	idaux
 15771 0c09 1C       		.uleb128 0x1c
 15772 0c0a 1B020000 		.4byte	.LASF134
 15773 0c0e 01       		.byte	0x1
 15774 0c0f 3D       		.byte	0x3d
 15775 0c10 81000000 		.4byte	0x81
 15776 0c14 05       		.uleb128 0x5
 15777 0c15 03       		.byte	0x3
 15778 0c16 00000000 		.4byte	state_rf
 15779 0c1a 1C       		.uleb128 0x1c
 15780 0c1b 78050000 		.4byte	.LASF135
 15781 0c1f 01       		.byte	0x1
 15782 0c20 3E       		.byte	0x3e
 15783 0c21 8C000000 		.4byte	0x8c
 15784 0c25 05       		.uleb128 0x5
 15785 0c26 03       		.byte	0x3
 15786 0c27 00000000 		.4byte	timeout_autorizacion
 15787 0c2b 1C       		.uleb128 0x1c
 15788 0c2c 48000000 		.4byte	.LASF136
 15789 0c30 01       		.byte	0x1
 15790 0c31 3F       		.byte	0x3f
 15791 0c32 81000000 		.4byte	0x81
 15792 0c36 05       		.uleb128 0x5
 15793 0c37 03       		.byte	0x3
 15794 0c38 00000000 		.4byte	estado_tanqueando
 15795 0c3c 1C       		.uleb128 0x1c
 15796 0c3d 74060000 		.4byte	.LASF137
 15797 0c41 01       		.byte	0x1
 15798 0c42 40       		.byte	0x40
 15799 0c43 81000000 		.4byte	0x81
 15800 0c47 05       		.uleb128 0x5
 15801 0c48 03       		.byte	0x3
 15802 0c49 00000000 		.4byte	consulta_sistema
 15803 0c4d 1C       		.uleb128 0x1c
 15804 0c4e C1050000 		.4byte	.LASF138
 15805 0c52 01       		.byte	0x1
 15806 0c53 41       		.byte	0x41
 15807 0c54 CD000000 		.4byte	0xcd
 15808 0c58 05       		.uleb128 0x5
 15809 0c59 03       		.byte	0x3
ARM GAS  C:\Users\RECEPC~1\AppData\Local\Temp\cc8qeTl3.s 			page 339


 15810 0c5a 00000000 		.4byte	clave_local
 15811 0c5e 1C       		.uleb128 0x1c
 15812 0c5f 11010000 		.4byte	.LASF139
 15813 0c63 01       		.byte	0x1
 15814 0c64 42       		.byte	0x42
 15815 0c65 81000000 		.4byte	0x81
 15816 0c69 05       		.uleb128 0x5
 15817 0c6a 03       		.byte	0x3
 15818 0c6b 00000000 		.4byte	v_digitos_1
 15819 0c6f 1C       		.uleb128 0x1c
 15820 0c70 EB000000 		.4byte	.LASF140
 15821 0c74 01       		.byte	0x1
 15822 0c75 43       		.byte	0x43
 15823 0c76 81000000 		.4byte	0x81
 15824 0c7a 05       		.uleb128 0x5
 15825 0c7b 03       		.byte	0x3
 15826 0c7c 00000000 		.4byte	ppuinicial
 15827 0c80 1C       		.uleb128 0x1c
 15828 0c81 0E060000 		.4byte	.LASF141
 15829 0c85 01       		.byte	0x1
 15830 0c86 44       		.byte	0x44
 15831 0c87 81000000 		.4byte	0x81
 15832 0c8b 05       		.uleb128 0x5
 15833 0c8c 03       		.byte	0x3
 15834 0c8d 00000000 		.4byte	Producto
 15835 0c91 1C       		.uleb128 0x1c
 15836 0c92 24040000 		.4byte	.LASF142
 15837 0c96 01       		.byte	0x1
 15838 0c97 45       		.byte	0x45
 15839 0c98 CD000000 		.4byte	0xcd
 15840 0c9c 05       		.uleb128 0x5
 15841 0c9d 03       		.byte	0x3
 15842 0c9e 00000000 		.4byte	Productos
 15843 0ca2 1C       		.uleb128 0x1c
 15844 0ca3 C7040000 		.4byte	.LASF143
 15845 0ca7 01       		.byte	0x1
 15846 0ca8 46       		.byte	0x46
 15847 0ca9 81000000 		.4byte	0x81
 15848 0cad 05       		.uleb128 0x5
 15849 0cae 03       		.byte	0x3
 15850 0caf 00000000 		.4byte	producto1
 15851 0cb3 1C       		.uleb128 0x1c
 15852 0cb4 D1040000 		.4byte	.LASF144
 15853 0cb8 01       		.byte	0x1
 15854 0cb9 46       		.byte	0x46
 15855 0cba 81000000 		.4byte	0x81
 15856 0cbe 05       		.uleb128 0x5
 15857 0cbf 03       		.byte	0x3
 15858 0cc0 00000000 		.4byte	producto2
 15859 0cc4 1C       		.uleb128 0x1c
 15860 0cc5 DB040000 		.4byte	.LASF145
 15861 0cc9 01       		.byte	0x1
 15862 0cca 46       		.byte	0x46
 15863 0ccb 81000000 		.4byte	0x81
 15864 0ccf 05       		.uleb128 0x5
 15865 0cd0 03       		.byte	0x3
 15866 0cd1 00000000 		.4byte	producto3
ARM GAS  C:\Users\RECEPC~1\AppData\Local\Temp\cc8qeTl3.s 			page 340


 15867 0cd5 1C       		.uleb128 0x1c
 15868 0cd6 E5040000 		.4byte	.LASF146
 15869 0cda 01       		.byte	0x1
 15870 0cdb 46       		.byte	0x46
 15871 0cdc 81000000 		.4byte	0x81
 15872 0ce0 05       		.uleb128 0x5
 15873 0ce1 03       		.byte	0x3
 15874 0ce2 00000000 		.4byte	producto4
 15875 0ce6 1C       		.uleb128 0x1c
 15876 0ce7 35050000 		.4byte	.LASF147
 15877 0ceb 01       		.byte	0x1
 15878 0cec 47       		.byte	0x47
 15879 0ced 81000000 		.4byte	0x81
 15880 0cf1 05       		.uleb128 0x5
 15881 0cf2 03       		.byte	0x3
 15882 0cf3 00000000 		.4byte	status1LP
 15883 0cf7 1C       		.uleb128 0x1c
 15884 0cf8 F9030000 		.4byte	.LASF148
 15885 0cfc 01       		.byte	0x1
 15886 0cfd 47       		.byte	0x47
 15887 0cfe 81000000 		.4byte	0x81
 15888 0d02 05       		.uleb128 0x5
 15889 0d03 03       		.byte	0x3
 15890 0d04 00000000 		.4byte	status2LP
 15891 0d08 1C       		.uleb128 0x1c
 15892 0d09 6A060000 		.4byte	.LASF149
 15893 0d0d 01       		.byte	0x1
 15894 0d0e 47       		.byte	0x47
 15895 0d0f 81000000 		.4byte	0x81
 15896 0d13 05       		.uleb128 0x5
 15897 0d14 03       		.byte	0x3
 15898 0d15 00000000 		.4byte	status1st
 15899 0d19 1C       		.uleb128 0x1c
 15900 0d1a 2B050000 		.4byte	.LASF150
 15901 0d1e 01       		.byte	0x1
 15902 0d1f 47       		.byte	0x47
 15903 0d20 81000000 		.4byte	0x81
 15904 0d24 05       		.uleb128 0x5
 15905 0d25 03       		.byte	0x3
 15906 0d26 00000000 		.4byte	status2st
 15907 0d2a 00       		.byte	0
 15908              		.section	.debug_abbrev,"",%progbits
 15909              	.Ldebug_abbrev0:
 15910 0000 01       		.uleb128 0x1
 15911 0001 11       		.uleb128 0x11
 15912 0002 01       		.byte	0x1
 15913 0003 25       		.uleb128 0x25
 15914 0004 0E       		.uleb128 0xe
 15915 0005 13       		.uleb128 0x13
 15916 0006 0B       		.uleb128 0xb
 15917 0007 03       		.uleb128 0x3
 15918 0008 0E       		.uleb128 0xe
 15919 0009 1B       		.uleb128 0x1b
 15920 000a 0E       		.uleb128 0xe
 15921 000b 55       		.uleb128 0x55
 15922 000c 17       		.uleb128 0x17
 15923 000d 11       		.uleb128 0x11
ARM GAS  C:\Users\RECEPC~1\AppData\Local\Temp\cc8qeTl3.s 			page 341


 15924 000e 01       		.uleb128 0x1
 15925 000f 10       		.uleb128 0x10
 15926 0010 17       		.uleb128 0x17
 15927 0011 00       		.byte	0
 15928 0012 00       		.byte	0
 15929 0013 02       		.uleb128 0x2
 15930 0014 24       		.uleb128 0x24
 15931 0015 00       		.byte	0
 15932 0016 0B       		.uleb128 0xb
 15933 0017 0B       		.uleb128 0xb
 15934 0018 3E       		.uleb128 0x3e
 15935 0019 0B       		.uleb128 0xb
 15936 001a 03       		.uleb128 0x3
 15937 001b 0E       		.uleb128 0xe
 15938 001c 00       		.byte	0
 15939 001d 00       		.byte	0
 15940 001e 03       		.uleb128 0x3
 15941 001f 16       		.uleb128 0x16
 15942 0020 00       		.byte	0
 15943 0021 03       		.uleb128 0x3
 15944 0022 0E       		.uleb128 0xe
 15945 0023 3A       		.uleb128 0x3a
 15946 0024 0B       		.uleb128 0xb
 15947 0025 3B       		.uleb128 0x3b
 15948 0026 0B       		.uleb128 0xb
 15949 0027 49       		.uleb128 0x49
 15950 0028 13       		.uleb128 0x13
 15951 0029 00       		.byte	0
 15952 002a 00       		.byte	0
 15953 002b 04       		.uleb128 0x4
 15954 002c 24       		.uleb128 0x24
 15955 002d 00       		.byte	0
 15956 002e 0B       		.uleb128 0xb
 15957 002f 0B       		.uleb128 0xb
 15958 0030 3E       		.uleb128 0x3e
 15959 0031 0B       		.uleb128 0xb
 15960 0032 03       		.uleb128 0x3
 15961 0033 08       		.uleb128 0x8
 15962 0034 00       		.byte	0
 15963 0035 00       		.byte	0
 15964 0036 05       		.uleb128 0x5
 15965 0037 35       		.uleb128 0x35
 15966 0038 00       		.byte	0
 15967 0039 49       		.uleb128 0x49
 15968 003a 13       		.uleb128 0x13
 15969 003b 00       		.byte	0
 15970 003c 00       		.byte	0
 15971 003d 06       		.uleb128 0x6
 15972 003e 01       		.uleb128 0x1
 15973 003f 01       		.byte	0x1
 15974 0040 49       		.uleb128 0x49
 15975 0041 13       		.uleb128 0x13
 15976 0042 01       		.uleb128 0x1
 15977 0043 13       		.uleb128 0x13
 15978 0044 00       		.byte	0
 15979 0045 00       		.byte	0
 15980 0046 07       		.uleb128 0x7
ARM GAS  C:\Users\RECEPC~1\AppData\Local\Temp\cc8qeTl3.s 			page 342


 15981 0047 21       		.uleb128 0x21
 15982 0048 00       		.byte	0
 15983 0049 49       		.uleb128 0x49
 15984 004a 13       		.uleb128 0x13
 15985 004b 2F       		.uleb128 0x2f
 15986 004c 0B       		.uleb128 0xb
 15987 004d 00       		.byte	0
 15988 004e 00       		.byte	0
 15989 004f 08       		.uleb128 0x8
 15990 0050 13       		.uleb128 0x13
 15991 0051 01       		.byte	0x1
 15992 0052 03       		.uleb128 0x3
 15993 0053 0E       		.uleb128 0xe
 15994 0054 0B       		.uleb128 0xb
 15995 0055 0B       		.uleb128 0xb
 15996 0056 3A       		.uleb128 0x3a
 15997 0057 0B       		.uleb128 0xb
 15998 0058 3B       		.uleb128 0x3b
 15999 0059 0B       		.uleb128 0xb
 16000 005a 01       		.uleb128 0x1
 16001 005b 13       		.uleb128 0x13
 16002 005c 00       		.byte	0
 16003 005d 00       		.byte	0
 16004 005e 09       		.uleb128 0x9
 16005 005f 0D       		.uleb128 0xd
 16006 0060 00       		.byte	0
 16007 0061 03       		.uleb128 0x3
 16008 0062 08       		.uleb128 0x8
 16009 0063 3A       		.uleb128 0x3a
 16010 0064 0B       		.uleb128 0xb
 16011 0065 3B       		.uleb128 0x3b
 16012 0066 0B       		.uleb128 0xb
 16013 0067 49       		.uleb128 0x49
 16014 0068 13       		.uleb128 0x13
 16015 0069 38       		.uleb128 0x38
 16016 006a 0B       		.uleb128 0xb
 16017 006b 00       		.byte	0
 16018 006c 00       		.byte	0
 16019 006d 0A       		.uleb128 0xa
 16020 006e 0D       		.uleb128 0xd
 16021 006f 00       		.byte	0
 16022 0070 03       		.uleb128 0x3
 16023 0071 0E       		.uleb128 0xe
 16024 0072 3A       		.uleb128 0x3a
 16025 0073 0B       		.uleb128 0xb
 16026 0074 3B       		.uleb128 0x3b
 16027 0075 0B       		.uleb128 0xb
 16028 0076 49       		.uleb128 0x49
 16029 0077 13       		.uleb128 0x13
 16030 0078 38       		.uleb128 0x38
 16031 0079 0B       		.uleb128 0xb
 16032 007a 00       		.byte	0
 16033 007b 00       		.byte	0
 16034 007c 0B       		.uleb128 0xb
 16035 007d 2E       		.uleb128 0x2e
 16036 007e 01       		.byte	0x1
 16037 007f 3F       		.uleb128 0x3f
ARM GAS  C:\Users\RECEPC~1\AppData\Local\Temp\cc8qeTl3.s 			page 343


 16038 0080 19       		.uleb128 0x19
 16039 0081 03       		.uleb128 0x3
 16040 0082 0E       		.uleb128 0xe
 16041 0083 3A       		.uleb128 0x3a
 16042 0084 0B       		.uleb128 0xb
 16043 0085 3B       		.uleb128 0x3b
 16044 0086 0B       		.uleb128 0xb
 16045 0087 27       		.uleb128 0x27
 16046 0088 19       		.uleb128 0x19
 16047 0089 11       		.uleb128 0x11
 16048 008a 01       		.uleb128 0x1
 16049 008b 12       		.uleb128 0x12
 16050 008c 06       		.uleb128 0x6
 16051 008d 40       		.uleb128 0x40
 16052 008e 18       		.uleb128 0x18
 16053 008f 9642     		.uleb128 0x2116
 16054 0091 19       		.uleb128 0x19
 16055 0092 01       		.uleb128 0x1
 16056 0093 13       		.uleb128 0x13
 16057 0094 00       		.byte	0
 16058 0095 00       		.byte	0
 16059 0096 0C       		.uleb128 0xc
 16060 0097 34       		.uleb128 0x34
 16061 0098 00       		.byte	0
 16062 0099 03       		.uleb128 0x3
 16063 009a 08       		.uleb128 0x8
 16064 009b 3A       		.uleb128 0x3a
 16065 009c 0B       		.uleb128 0xb
 16066 009d 3B       		.uleb128 0x3b
 16067 009e 0B       		.uleb128 0xb
 16068 009f 49       		.uleb128 0x49
 16069 00a0 13       		.uleb128 0x13
 16070 00a1 02       		.uleb128 0x2
 16071 00a2 18       		.uleb128 0x18
 16072 00a3 00       		.byte	0
 16073 00a4 00       		.byte	0
 16074 00a5 0D       		.uleb128 0xd
 16075 00a6 2E       		.uleb128 0x2e
 16076 00a7 01       		.byte	0x1
 16077 00a8 3F       		.uleb128 0x3f
 16078 00a9 19       		.uleb128 0x19
 16079 00aa 03       		.uleb128 0x3
 16080 00ab 0E       		.uleb128 0xe
 16081 00ac 3A       		.uleb128 0x3a
 16082 00ad 0B       		.uleb128 0xb
 16083 00ae 3B       		.uleb128 0x3b
 16084 00af 0B       		.uleb128 0xb
 16085 00b0 27       		.uleb128 0x27
 16086 00b1 19       		.uleb128 0x19
 16087 00b2 49       		.uleb128 0x49
 16088 00b3 13       		.uleb128 0x13
 16089 00b4 11       		.uleb128 0x11
 16090 00b5 01       		.uleb128 0x1
 16091 00b6 12       		.uleb128 0x12
 16092 00b7 06       		.uleb128 0x6
 16093 00b8 40       		.uleb128 0x40
 16094 00b9 18       		.uleb128 0x18
ARM GAS  C:\Users\RECEPC~1\AppData\Local\Temp\cc8qeTl3.s 			page 344


 16095 00ba 9642     		.uleb128 0x2116
 16096 00bc 19       		.uleb128 0x19
 16097 00bd 01       		.uleb128 0x1
 16098 00be 13       		.uleb128 0x13
 16099 00bf 00       		.byte	0
 16100 00c0 00       		.byte	0
 16101 00c1 0E       		.uleb128 0xe
 16102 00c2 05       		.uleb128 0x5
 16103 00c3 00       		.byte	0
 16104 00c4 03       		.uleb128 0x3
 16105 00c5 0E       		.uleb128 0xe
 16106 00c6 3A       		.uleb128 0x3a
 16107 00c7 0B       		.uleb128 0xb
 16108 00c8 3B       		.uleb128 0x3b
 16109 00c9 0B       		.uleb128 0xb
 16110 00ca 49       		.uleb128 0x49
 16111 00cb 13       		.uleb128 0x13
 16112 00cc 02       		.uleb128 0x2
 16113 00cd 18       		.uleb128 0x18
 16114 00ce 00       		.byte	0
 16115 00cf 00       		.byte	0
 16116 00d0 0F       		.uleb128 0xf
 16117 00d1 34       		.uleb128 0x34
 16118 00d2 00       		.byte	0
 16119 00d3 03       		.uleb128 0x3
 16120 00d4 0E       		.uleb128 0xe
 16121 00d5 3A       		.uleb128 0x3a
 16122 00d6 0B       		.uleb128 0xb
 16123 00d7 3B       		.uleb128 0x3b
 16124 00d8 0B       		.uleb128 0xb
 16125 00d9 49       		.uleb128 0x49
 16126 00da 13       		.uleb128 0x13
 16127 00db 02       		.uleb128 0x2
 16128 00dc 18       		.uleb128 0x18
 16129 00dd 00       		.byte	0
 16130 00de 00       		.byte	0
 16131 00df 10       		.uleb128 0x10
 16132 00e0 0F       		.uleb128 0xf
 16133 00e1 00       		.byte	0
 16134 00e2 0B       		.uleb128 0xb
 16135 00e3 0B       		.uleb128 0xb
 16136 00e4 49       		.uleb128 0x49
 16137 00e5 13       		.uleb128 0x13
 16138 00e6 00       		.byte	0
 16139 00e7 00       		.byte	0
 16140 00e8 11       		.uleb128 0x11
 16141 00e9 05       		.uleb128 0x5
 16142 00ea 00       		.byte	0
 16143 00eb 03       		.uleb128 0x3
 16144 00ec 08       		.uleb128 0x8
 16145 00ed 3A       		.uleb128 0x3a
 16146 00ee 0B       		.uleb128 0xb
 16147 00ef 3B       		.uleb128 0x3b
 16148 00f0 0B       		.uleb128 0xb
 16149 00f1 49       		.uleb128 0x49
 16150 00f2 13       		.uleb128 0x13
 16151 00f3 02       		.uleb128 0x2
ARM GAS  C:\Users\RECEPC~1\AppData\Local\Temp\cc8qeTl3.s 			page 345


 16152 00f4 18       		.uleb128 0x18
 16153 00f5 00       		.byte	0
 16154 00f6 00       		.byte	0
 16155 00f7 12       		.uleb128 0x12
 16156 00f8 2E       		.uleb128 0x2e
 16157 00f9 01       		.byte	0x1
 16158 00fa 3F       		.uleb128 0x3f
 16159 00fb 19       		.uleb128 0x19
 16160 00fc 03       		.uleb128 0x3
 16161 00fd 0E       		.uleb128 0xe
 16162 00fe 3A       		.uleb128 0x3a
 16163 00ff 0B       		.uleb128 0xb
 16164 0100 3B       		.uleb128 0x3b
 16165 0101 05       		.uleb128 0x5
 16166 0102 27       		.uleb128 0x27
 16167 0103 19       		.uleb128 0x19
 16168 0104 11       		.uleb128 0x11
 16169 0105 01       		.uleb128 0x1
 16170 0106 12       		.uleb128 0x12
 16171 0107 06       		.uleb128 0x6
 16172 0108 40       		.uleb128 0x40
 16173 0109 18       		.uleb128 0x18
 16174 010a 9642     		.uleb128 0x2116
 16175 010c 19       		.uleb128 0x19
 16176 010d 01       		.uleb128 0x1
 16177 010e 13       		.uleb128 0x13
 16178 010f 00       		.byte	0
 16179 0110 00       		.byte	0
 16180 0111 13       		.uleb128 0x13
 16181 0112 34       		.uleb128 0x34
 16182 0113 00       		.byte	0
 16183 0114 03       		.uleb128 0x3
 16184 0115 0E       		.uleb128 0xe
 16185 0116 3A       		.uleb128 0x3a
 16186 0117 0B       		.uleb128 0xb
 16187 0118 3B       		.uleb128 0x3b
 16188 0119 05       		.uleb128 0x5
 16189 011a 49       		.uleb128 0x49
 16190 011b 13       		.uleb128 0x13
 16191 011c 02       		.uleb128 0x2
 16192 011d 18       		.uleb128 0x18
 16193 011e 00       		.byte	0
 16194 011f 00       		.byte	0
 16195 0120 14       		.uleb128 0x14
 16196 0121 34       		.uleb128 0x34
 16197 0122 00       		.byte	0
 16198 0123 03       		.uleb128 0x3
 16199 0124 08       		.uleb128 0x8
 16200 0125 3A       		.uleb128 0x3a
 16201 0126 0B       		.uleb128 0xb
 16202 0127 3B       		.uleb128 0x3b
 16203 0128 05       		.uleb128 0x5
 16204 0129 49       		.uleb128 0x49
 16205 012a 13       		.uleb128 0x13
 16206 012b 02       		.uleb128 0x2
 16207 012c 18       		.uleb128 0x18
 16208 012d 00       		.byte	0
ARM GAS  C:\Users\RECEPC~1\AppData\Local\Temp\cc8qeTl3.s 			page 346


 16209 012e 00       		.byte	0
 16210 012f 15       		.uleb128 0x15
 16211 0130 2E       		.uleb128 0x2e
 16212 0131 00       		.byte	0
 16213 0132 3F       		.uleb128 0x3f
 16214 0133 19       		.uleb128 0x19
 16215 0134 03       		.uleb128 0x3
 16216 0135 0E       		.uleb128 0xe
 16217 0136 3A       		.uleb128 0x3a
 16218 0137 0B       		.uleb128 0xb
 16219 0138 3B       		.uleb128 0x3b
 16220 0139 05       		.uleb128 0x5
 16221 013a 27       		.uleb128 0x27
 16222 013b 19       		.uleb128 0x19
 16223 013c 11       		.uleb128 0x11
 16224 013d 01       		.uleb128 0x1
 16225 013e 12       		.uleb128 0x12
 16226 013f 06       		.uleb128 0x6
 16227 0140 40       		.uleb128 0x40
 16228 0141 18       		.uleb128 0x18
 16229 0142 9742     		.uleb128 0x2117
 16230 0144 19       		.uleb128 0x19
 16231 0145 00       		.byte	0
 16232 0146 00       		.byte	0
 16233 0147 16       		.uleb128 0x16
 16234 0148 34       		.uleb128 0x34
 16235 0149 00       		.byte	0
 16236 014a 03       		.uleb128 0x3
 16237 014b 0E       		.uleb128 0xe
 16238 014c 3A       		.uleb128 0x3a
 16239 014d 0B       		.uleb128 0xb
 16240 014e 3B       		.uleb128 0x3b
 16241 014f 05       		.uleb128 0x5
 16242 0150 49       		.uleb128 0x49
 16243 0151 13       		.uleb128 0x13
 16244 0152 00       		.byte	0
 16245 0153 00       		.byte	0
 16246 0154 17       		.uleb128 0x17
 16247 0155 2E       		.uleb128 0x2e
 16248 0156 00       		.byte	0
 16249 0157 3F       		.uleb128 0x3f
 16250 0158 19       		.uleb128 0x19
 16251 0159 03       		.uleb128 0x3
 16252 015a 0E       		.uleb128 0xe
 16253 015b 3A       		.uleb128 0x3a
 16254 015c 0B       		.uleb128 0xb
 16255 015d 3B       		.uleb128 0x3b
 16256 015e 05       		.uleb128 0x5
 16257 015f 27       		.uleb128 0x27
 16258 0160 19       		.uleb128 0x19
 16259 0161 11       		.uleb128 0x11
 16260 0162 01       		.uleb128 0x1
 16261 0163 12       		.uleb128 0x12
 16262 0164 06       		.uleb128 0x6
 16263 0165 40       		.uleb128 0x40
 16264 0166 18       		.uleb128 0x18
 16265 0167 9642     		.uleb128 0x2116
ARM GAS  C:\Users\RECEPC~1\AppData\Local\Temp\cc8qeTl3.s 			page 347


 16266 0169 19       		.uleb128 0x19
 16267 016a 00       		.byte	0
 16268 016b 00       		.byte	0
 16269 016c 18       		.uleb128 0x18
 16270 016d 34       		.uleb128 0x34
 16271 016e 00       		.byte	0
 16272 016f 03       		.uleb128 0x3
 16273 0170 08       		.uleb128 0x8
 16274 0171 3A       		.uleb128 0x3a
 16275 0172 0B       		.uleb128 0xb
 16276 0173 3B       		.uleb128 0x3b
 16277 0174 05       		.uleb128 0x5
 16278 0175 49       		.uleb128 0x49
 16279 0176 13       		.uleb128 0x13
 16280 0177 00       		.byte	0
 16281 0178 00       		.byte	0
 16282 0179 19       		.uleb128 0x19
 16283 017a 2E       		.uleb128 0x2e
 16284 017b 00       		.byte	0
 16285 017c 3F       		.uleb128 0x3f
 16286 017d 19       		.uleb128 0x19
 16287 017e 03       		.uleb128 0x3
 16288 017f 0E       		.uleb128 0xe
 16289 0180 3A       		.uleb128 0x3a
 16290 0181 0B       		.uleb128 0xb
 16291 0182 3B       		.uleb128 0x3b
 16292 0183 05       		.uleb128 0x5
 16293 0184 49       		.uleb128 0x49
 16294 0185 13       		.uleb128 0x13
 16295 0186 11       		.uleb128 0x11
 16296 0187 01       		.uleb128 0x1
 16297 0188 12       		.uleb128 0x12
 16298 0189 06       		.uleb128 0x6
 16299 018a 40       		.uleb128 0x40
 16300 018b 18       		.uleb128 0x18
 16301 018c 9642     		.uleb128 0x2116
 16302 018e 19       		.uleb128 0x19
 16303 018f 00       		.byte	0
 16304 0190 00       		.byte	0
 16305 0191 1A       		.uleb128 0x1a
 16306 0192 34       		.uleb128 0x34
 16307 0193 00       		.byte	0
 16308 0194 03       		.uleb128 0x3
 16309 0195 0E       		.uleb128 0xe
 16310 0196 3A       		.uleb128 0x3a
 16311 0197 0B       		.uleb128 0xb
 16312 0198 3B       		.uleb128 0x3b
 16313 0199 05       		.uleb128 0x5
 16314 019a 49       		.uleb128 0x49
 16315 019b 13       		.uleb128 0x13
 16316 019c 3F       		.uleb128 0x3f
 16317 019d 19       		.uleb128 0x19
 16318 019e 3C       		.uleb128 0x3c
 16319 019f 19       		.uleb128 0x19
 16320 01a0 00       		.byte	0
 16321 01a1 00       		.byte	0
 16322 01a2 1B       		.uleb128 0x1b
ARM GAS  C:\Users\RECEPC~1\AppData\Local\Temp\cc8qeTl3.s 			page 348


 16323 01a3 21       		.uleb128 0x21
 16324 01a4 00       		.byte	0
 16325 01a5 49       		.uleb128 0x49
 16326 01a6 13       		.uleb128 0x13
 16327 01a7 2F       		.uleb128 0x2f
 16328 01a8 05       		.uleb128 0x5
 16329 01a9 00       		.byte	0
 16330 01aa 00       		.byte	0
 16331 01ab 1C       		.uleb128 0x1c
 16332 01ac 34       		.uleb128 0x34
 16333 01ad 00       		.byte	0
 16334 01ae 03       		.uleb128 0x3
 16335 01af 0E       		.uleb128 0xe
 16336 01b0 3A       		.uleb128 0x3a
 16337 01b1 0B       		.uleb128 0xb
 16338 01b2 3B       		.uleb128 0x3b
 16339 01b3 0B       		.uleb128 0xb
 16340 01b4 49       		.uleb128 0x49
 16341 01b5 13       		.uleb128 0x13
 16342 01b6 3F       		.uleb128 0x3f
 16343 01b7 19       		.uleb128 0x19
 16344 01b8 02       		.uleb128 0x2
 16345 01b9 18       		.uleb128 0x18
 16346 01ba 00       		.byte	0
 16347 01bb 00       		.byte	0
 16348 01bc 1D       		.uleb128 0x1d
 16349 01bd 34       		.uleb128 0x34
 16350 01be 00       		.byte	0
 16351 01bf 03       		.uleb128 0x3
 16352 01c0 08       		.uleb128 0x8
 16353 01c1 3A       		.uleb128 0x3a
 16354 01c2 0B       		.uleb128 0xb
 16355 01c3 3B       		.uleb128 0x3b
 16356 01c4 0B       		.uleb128 0xb
 16357 01c5 49       		.uleb128 0x49
 16358 01c6 13       		.uleb128 0x13
 16359 01c7 3F       		.uleb128 0x3f
 16360 01c8 19       		.uleb128 0x19
 16361 01c9 02       		.uleb128 0x2
 16362 01ca 18       		.uleb128 0x18
 16363 01cb 00       		.byte	0
 16364 01cc 00       		.byte	0
 16365 01cd 00       		.byte	0
 16366              		.section	.debug_aranges,"",%progbits
 16367 0000 8C000000 		.4byte	0x8c
 16368 0004 0200     		.2byte	0x2
 16369 0006 00000000 		.4byte	.Ldebug_info0
 16370 000a 04       		.byte	0x4
 16371 000b 00       		.byte	0
 16372 000c 0000     		.2byte	0
 16373 000e 0000     		.2byte	0
 16374 0010 00000000 		.4byte	.LFB63
 16375 0014 D4010000 		.4byte	.LFE63-.LFB63
 16376 0018 00000000 		.4byte	.LFB64
 16377 001c 84000000 		.4byte	.LFE64-.LFB64
 16378 0020 00000000 		.4byte	.LFB65
 16379 0024 80000000 		.4byte	.LFE65-.LFB65
ARM GAS  C:\Users\RECEPC~1\AppData\Local\Temp\cc8qeTl3.s 			page 349


 16380 0028 00000000 		.4byte	.LFB66
 16381 002c 30030000 		.4byte	.LFE66-.LFB66
 16382 0030 00000000 		.4byte	.LFB67
 16383 0034 28050000 		.4byte	.LFE67-.LFB67
 16384 0038 00000000 		.4byte	.LFB68
 16385 003c 2C050000 		.4byte	.LFE68-.LFB68
 16386 0040 00000000 		.4byte	.LFB69
 16387 0044 0C000000 		.4byte	.LFE69-.LFB69
 16388 0048 00000000 		.4byte	.LFB70
 16389 004c 84500000 		.4byte	.LFE70-.LFB70
 16390 0050 00000000 		.4byte	.LFB71
 16391 0054 0C000000 		.4byte	.LFE71-.LFB71
 16392 0058 00000000 		.4byte	.LFB72
 16393 005c 0C000000 		.4byte	.LFE72-.LFB72
 16394 0060 00000000 		.4byte	.LFB73
 16395 0064 74000000 		.4byte	.LFE73-.LFB73
 16396 0068 00000000 		.4byte	.LFB74
 16397 006c 74000000 		.4byte	.LFE74-.LFB74
 16398 0070 00000000 		.4byte	.LFB75
 16399 0074 54000000 		.4byte	.LFE75-.LFB75
 16400 0078 00000000 		.4byte	.LFB76
 16401 007c 38000000 		.4byte	.LFE76-.LFB76
 16402 0080 00000000 		.4byte	.LFB77
 16403 0084 4C000000 		.4byte	.LFE77-.LFB77
 16404 0088 00000000 		.4byte	0
 16405 008c 00000000 		.4byte	0
 16406              		.section	.debug_ranges,"",%progbits
 16407              	.Ldebug_ranges0:
 16408 0000 00000000 		.4byte	.LFB63
 16409 0004 D4010000 		.4byte	.LFE63
 16410 0008 00000000 		.4byte	.LFB64
 16411 000c 84000000 		.4byte	.LFE64
 16412 0010 00000000 		.4byte	.LFB65
 16413 0014 80000000 		.4byte	.LFE65
 16414 0018 00000000 		.4byte	.LFB66
 16415 001c 30030000 		.4byte	.LFE66
 16416 0020 00000000 		.4byte	.LFB67
 16417 0024 28050000 		.4byte	.LFE67
 16418 0028 00000000 		.4byte	.LFB68
 16419 002c 2C050000 		.4byte	.LFE68
 16420 0030 00000000 		.4byte	.LFB69
 16421 0034 0C000000 		.4byte	.LFE69
 16422 0038 00000000 		.4byte	.LFB70
 16423 003c 84500000 		.4byte	.LFE70
 16424 0040 00000000 		.4byte	.LFB71
 16425 0044 0C000000 		.4byte	.LFE71
 16426 0048 00000000 		.4byte	.LFB72
 16427 004c 0C000000 		.4byte	.LFE72
 16428 0050 00000000 		.4byte	.LFB73
 16429 0054 74000000 		.4byte	.LFE73
 16430 0058 00000000 		.4byte	.LFB74
 16431 005c 74000000 		.4byte	.LFE74
 16432 0060 00000000 		.4byte	.LFB75
 16433 0064 54000000 		.4byte	.LFE75
 16434 0068 00000000 		.4byte	.LFB76
 16435 006c 38000000 		.4byte	.LFE76
 16436 0070 00000000 		.4byte	.LFB77
ARM GAS  C:\Users\RECEPC~1\AppData\Local\Temp\cc8qeTl3.s 			page 350


 16437 0074 4C000000 		.4byte	.LFE77
 16438 0078 00000000 		.4byte	0
 16439 007c 00000000 		.4byte	0
 16440              		.section	.debug_line,"",%progbits
 16441              	.Ldebug_line0:
 16442 0000 0A140000 		.section	.debug_str,"MS",%progbits,1
 16442      02006E01 
 16442      00000201 
 16442      FB0E0D00 
 16442      01010101 
 16443              	.LASF35:
 16444 0000 70617373 		.ascii	"password\000"
 16444      776F7264 
 16444      00
 16445              	.LASF48:
 16446 0009 706F6C6C 		.ascii	"polling_rf\000"
 16446      696E675F 
 16446      726600
 16447              	.LASF50:
 16448 0014 73746174 		.ascii	"status2\000"
 16448      75733200 
 16449              	.LASF56:
 16450 001c 6E756D5F 		.ascii	"num_decimal\000"
 16450      64656369 
 16450      6D616C00 
 16451              	.LASF97:
 16452 0028 636F756E 		.ascii	"count_protector2\000"
 16452      745F7072 
 16452      6F746563 
 16452      746F7232 
 16452      00
 16453              	.LASF67:
 16454 0039 4C43445F 		.ascii	"LCD_1_rxBuffer\000"
 16454      315F7278 
 16454      42756666 
 16454      657200
 16455              	.LASF136:
 16456 0048 65737461 		.ascii	"estado_tanqueando\000"
 16456      646F5F74 
 16456      616E7175 
 16456      65616E64 
 16456      6F00
 16457              	.LASF153:
 16458 005a 433A5C55 		.ascii	"C:\\Users\\Recepcion\\Documents\\Prueba_GRPFleet\\B"
 16458      73657273 
 16458      5C526563 
 16458      65706369 
 16458      6F6E5C44 
 16459 0088 42422E63 		.ascii	"BB.cydsn\000"
 16459      7964736E 
 16459      00
 16460              	.LASF73:
 16461 0091 69645F63 		.ascii	"id_coma1\000"
 16461      6F6D6131 
 16461      00
 16462              	.LASF76:
 16463 009a 69645F63 		.ascii	"id_coma2\000"
ARM GAS  C:\Users\RECEPC~1\AppData\Local\Temp\cc8qeTl3.s 			page 351


 16463      6F6D6132 
 16463      00
 16464              	.LASF132:
 16465 00a3 6E756D5F 		.ascii	"num_decimal2\000"
 16465      64656369 
 16465      6D616C32 
 16465      00
 16466              	.LASF47:
 16467 00b0 696E6974 		.ascii	"init_surt\000"
 16467      5F737572 
 16467      7400
 16468              	.LASF8:
 16469 00ba 756E7369 		.ascii	"unsigned int\000"
 16469      676E6564 
 16469      20696E74 
 16469      00
 16470              	.LASF109:
 16471 00c7 76657273 		.ascii	"version\000"
 16471      696F6E00 
 16472              	.LASF9:
 16473 00cf 5F5F696E 		.ascii	"__int32_t\000"
 16473      7433325F 
 16473      7400
 16474              	.LASF131:
 16475 00d9 74657374 		.ascii	"test\000"
 16475      00
 16476              	.LASF52:
 16477 00de 70726563 		.ascii	"precio\000"
 16477      696F00
 16478              	.LASF122:
 16479 00e5 6F6B5F52 		.ascii	"ok_RF\000"
 16479      4600
 16480              	.LASF140:
 16481 00eb 70707569 		.ascii	"ppuinicial\000"
 16481      6E696369 
 16481      616C00
 16482              	.LASF119:
 16483 00f6 686F7261 		.ascii	"hora\000"
 16483      00
 16484              	.LASF84:
 16485 00fb 7465636C 		.ascii	"teclas1\000"
 16485      61733100 
 16486              	.LASF85:
 16487 0103 7465636C 		.ascii	"teclas2\000"
 16487      61733200 
 16488              	.LASF115:
 16489 010b 6C656D61 		.ascii	"lema1\000"
 16489      3100
 16490              	.LASF139:
 16491 0111 765F6469 		.ascii	"v_digitos_1\000"
 16491      6769746F 
 16491      735F3100 
 16492              	.LASF24:
 16493 011d 706F7369 		.ascii	"posicion\000"
 16493      63696F6E 
 16493      00
 16494              	.LASF120:
ARM GAS  C:\Users\RECEPC~1\AppData\Local\Temp\cc8qeTl3.s 			page 352


 16495 0126 7276656E 		.ascii	"rventa1\000"
 16495      74613100 
 16496              	.LASF121:
 16497 012e 7276656E 		.ascii	"rventa2\000"
 16497      74613200 
 16498              	.LASF114:
 16499 0136 64697265 		.ascii	"direccion\000"
 16499      6363696F 
 16499      6E00
 16500              	.LASF86:
 16501 0140 666C756A 		.ascii	"flujo_LCD1\000"
 16501      6F5F4C43 
 16501      443100
 16502              	.LASF87:
 16503 014b 666C756A 		.ascii	"flujo_LCD2\000"
 16503      6F5F4C43 
 16503      443200
 16504              	.LASF29:
 16505 0156 70726573 		.ascii	"preset\000"
 16505      657400
 16506              	.LASF13:
 16507 015d 666C6F61 		.ascii	"float\000"
 16507      7400
 16508              	.LASF96:
 16509 0163 636F756E 		.ascii	"count_protector\000"
 16509      745F7072 
 16509      6F746563 
 16509      746F7200 
 16510              	.LASF125:
 16511 0173 62756666 		.ascii	"buffer_i2c\000"
 16511      65725F69 
 16511      326300
 16512              	.LASF41:
 16513 017e 63686563 		.ascii	"checksum\000"
 16513      6B73756D 
 16513      00
 16514              	.LASF42:
 16515 0187 696E6465 		.ascii	"index\000"
 16515      7800
 16516              	.LASF116:
 16517 018d 6C656D61 		.ascii	"lema2\000"
 16517      3200
 16518              	.LASF93:
 16519 0193 76656E74 		.ascii	"venta_activa2\000"
 16519      615F6163 
 16519      74697661 
 16519      3200
 16520              	.LASF32:
 16521 01a1 696D7072 		.ascii	"imprimir\000"
 16521      696D6972 
 16521      00
 16522              	.LASF7:
 16523 01aa 6C6F6E67 		.ascii	"long long unsigned int\000"
 16523      206C6F6E 
 16523      6720756E 
 16523      7369676E 
 16523      65642069 
ARM GAS  C:\Users\RECEPC~1\AppData\Local\Temp\cc8qeTl3.s 			page 353


 16524              	.LASF110:
 16525 01c1 6C61646F 		.ascii	"lado1\000"
 16525      3100
 16526              	.LASF92:
 16527 01c7 76656E74 		.ascii	"venta_activa\000"
 16527      615F6163 
 16527      74697661 
 16527      00
 16528              	.LASF90:
 16529 01d4 73656C65 		.ascii	"seleccion_pos\000"
 16529      6363696F 
 16529      6E5F706F 
 16529      7300
 16530              	.LASF51:
 16531 01e2 745F7072 		.ascii	"t_preset\000"
 16531      65736574 
 16531      00
 16532              	.LASF129:
 16533 01eb 6C657472 		.ascii	"letras\000"
 16533      617300
 16534              	.LASF31:
 16535 01f2 706C6163 		.ascii	"placa\000"
 16535      6100
 16536              	.LASF57:
 16537 01f8 706F6C6C 		.ascii	"polling_surt\000"
 16537      696E675F 
 16537      73757274 
 16537      00
 16538              	.LASF88:
 16539 0205 666C756A 		.ascii	"flujo_pos1\000"
 16539      6F5F706F 
 16539      733100
 16540              	.LASF89:
 16541 0210 666C756A 		.ascii	"flujo_pos2\000"
 16541      6F5F706F 
 16541      733200
 16542              	.LASF134:
 16543 021b 73746174 		.ascii	"state_rf\000"
 16543      655F7266 
 16543      00
 16544              	.LASF133:
 16545 0224 69646175 		.ascii	"idaux\000"
 16545      7800
 16546              	.LASF26:
 16547 022a 766F6C75 		.ascii	"volumen\000"
 16547      6D656E00 
 16548              	.LASF113:
 16549 0232 74656C65 		.ascii	"telefono\000"
 16549      666F6E6F 
 16549      00
 16550              	.LASF74:
 16551 023b 69645F74 		.ascii	"id_teclado1\000"
 16551      65636C61 
 16551      646F3100 
 16552              	.LASF77:
 16553 0247 69645F74 		.ascii	"id_teclado2\000"
 16553      65636C61 
ARM GAS  C:\Users\RECEPC~1\AppData\Local\Temp\cc8qeTl3.s 			page 354


 16553      646F3200 
 16554              	.LASF59:
 16555 0253 706F6C6C 		.ascii	"polling_wd\000"
 16555      696E675F 
 16555      776400
 16556              	.LASF103:
 16557 025e 69645F76 		.ascii	"id_venta\000"
 16557      656E7461 
 16557      00
 16558              	.LASF124:
 16559 0267 72665F6D 		.ascii	"rf_mod\000"
 16559      6F6400
 16560              	.LASF95:
 16561 026e 42756666 		.ascii	"Buffer_LCD2\000"
 16561      65725F4C 
 16561      43443200 
 16562              	.LASF15:
 16563 027a 63686172 		.ascii	"char\000"
 16563      00
 16564              	.LASF101:
 16565 027f 626C6F71 		.ascii	"bloqueo_LCD\000"
 16565      75656F5F 
 16565      4C434400 
 16566              	.LASF43:
 16567 028b 7461626C 		.ascii	"table\000"
 16567      6500
 16568              	.LASF21:
 16569 0291 6D616E67 		.ascii	"mangueras\000"
 16569      75657261 
 16569      7300
 16570              	.LASF12:
 16571 029b 75696E74 		.ascii	"uint16\000"
 16571      313600
 16572              	.LASF49:
 16573 02a2 73746174 		.ascii	"status1\000"
 16573      75733100 
 16574              	.LASF127:
 16575 02aa 7072696E 		.ascii	"print1\000"
 16575      743100
 16576              	.LASF128:
 16577 02b1 7072696E 		.ascii	"print2\000"
 16577      743200
 16578              	.LASF33:
 16579 02b8 7469706F 		.ascii	"tipo_venta\000"
 16579      5F76656E 
 16579      746100
 16580              	.LASF30:
 16581 02c3 69645F65 		.ascii	"id_ef\000"
 16581      6600
 16582              	.LASF36:
 16583 02c9 7475726E 		.ascii	"turno\000"
 16583      6F00
 16584              	.LASF39:
 16585 02cf 6461746F 		.ascii	"datos\000"
 16585      7300
 16586              	.LASF19:
 16587 02d5 746F7461 		.ascii	"totales\000"
ARM GAS  C:\Users\RECEPC~1\AppData\Local\Temp\cc8qeTl3.s 			page 355


 16587      6C657300 
 16588              	.LASF98:
 16589 02dd 70617373 		.ascii	"password_lcd\000"
 16589      776F7264 
 16589      5F6C6364 
 16589      00
 16590              	.LASF70:
 16591 02ea 636F756E 		.ascii	"count_teclas1\000"
 16591      745F7465 
 16591      636C6173 
 16591      3100
 16592              	.LASF75:
 16593 02f8 636F756E 		.ascii	"count_teclas2\000"
 16593      745F7465 
 16593      636C6173 
 16593      3200
 16594              	.LASF78:
 16595 0306 706F7378 		.ascii	"posx1\000"
 16595      3100
 16596              	.LASF154:
 16597 030c 76657269 		.ascii	"verificar_check\000"
 16597      66696361 
 16597      725F6368 
 16597      65636B00 
 16598              	.LASF6:
 16599 031c 6C6F6E67 		.ascii	"long long int\000"
 16599      206C6F6E 
 16599      6720696E 
 16599      7400
 16600              	.LASF81:
 16601 032a 706F7378 		.ascii	"posx2\000"
 16601      3200
 16602              	.LASF27:
 16603 0330 70726F64 		.ascii	"producto\000"
 16603      7563746F 
 16603      00
 16604              	.LASF54:
 16605 0339 706F6C6C 		.ascii	"polling_LCD1\000"
 16605      696E675F 
 16605      4C434431 
 16605      00
 16606              	.LASF58:
 16607 0346 706F6C6C 		.ascii	"polling_LCD2\000"
 16607      696E675F 
 16607      4C434432 
 16607      00
 16608              	.LASF34:
 16609 0353 63656475 		.ascii	"cedula\000"
 16609      6C6100
 16610              	.LASF151:
 16611 035a 474E5520 		.ascii	"GNU C 4.9.3 20150303 (release) [ARM/embedded-4_9-br"
 16611      4320342E 
 16611      392E3320 
 16611      32303135 
 16611      30333033 
 16612 038d 616E6368 		.ascii	"anch revision 221220] -mcpu=cortex-m3 -mthumb -g -O"
 16612      20726576 
ARM GAS  C:\Users\RECEPC~1\AppData\Local\Temp\cc8qeTl3.s 			page 356


 16612      6973696F 
 16612      6E203232 
 16612      31323230 
 16613 03c0 30202D66 		.ascii	"0 -ffunction-sections -ffat-lto-objects\000"
 16613      66756E63 
 16613      74696F6E 
 16613      2D736563 
 16613      74696F6E 
 16614              	.LASF79:
 16615 03e8 706F7379 		.ascii	"posy1\000"
 16615      3100
 16616              	.LASF82:
 16617 03ee 706F7379 		.ascii	"posy2\000"
 16617      3200
 16618              	.LASF40:
 16619 03f4 73697A65 		.ascii	"size\000"
 16619      00
 16620              	.LASF148:
 16621 03f9 73746174 		.ascii	"status2LP\000"
 16621      7573324C 
 16621      5000
 16622              	.LASF23:
 16623 0403 72656369 		.ascii	"recibo\000"
 16623      626F00
 16624              	.LASF25:
 16625 040a 64696E65 		.ascii	"dinero\000"
 16625      726F00
 16626              	.LASF94:
 16627 0411 42756666 		.ascii	"Buffer_LCD1\000"
 16627      65725F4C 
 16627      43443100 
 16628              	.LASF18:
 16629 041d 65737461 		.ascii	"estado\000"
 16629      646F00
 16630              	.LASF142:
 16631 0424 50726F64 		.ascii	"Productos\000"
 16631      7563746F 
 16631      7300
 16632              	.LASF62:
 16633 042e 6D6F646F 		.ascii	"modo_mux\000"
 16633      5F6D7578 
 16633      00
 16634              	.LASF46:
 16635 0437 696D6167 		.ascii	"imagen\000"
 16635      656E00
 16636              	.LASF17:
 16637 043e 6C6F6E67 		.ascii	"long double\000"
 16637      20646F75 
 16637      626C6500 
 16638              	.LASF38:
 16639 044a 70617373 		.ascii	"password_local\000"
 16639      776F7264 
 16639      5F6C6F63 
 16639      616C00
 16640              	.LASF105:
 16641 0459 70707578 		.ascii	"ppux10\000"
 16641      313000
ARM GAS  C:\Users\RECEPC~1\AppData\Local\Temp\cc8qeTl3.s 			page 357


 16642              	.LASF112:
 16643 0460 6E6F6D62 		.ascii	"nombre\000"
 16643      726500
 16644              	.LASF126:
 16645 0467 6372635F 		.ascii	"crc_total\000"
 16645      746F7461 
 16645      6C00
 16646              	.LASF117:
 16647 0471 69645F6C 		.ascii	"id_logo\000"
 16647      6F676F00 
 16648              	.LASF65:
 16649 0479 70726563 		.ascii	"precio_mod\000"
 16649      696F5F6D 
 16649      6F6400
 16650              	.LASF2:
 16651 0484 73686F72 		.ascii	"short int\000"
 16651      7420696E 
 16651      7400
 16652              	.LASF68:
 16653 048e 50435F72 		.ascii	"PC_rxBuffer\000"
 16653      78427566 
 16653      66657200 
 16654              	.LASF4:
 16655 049a 6C6F6E67 		.ascii	"long int\000"
 16655      20696E74 
 16655      00
 16656              	.LASF69:
 16657 04a3 49544D5F 		.ascii	"ITM_RxBuffer\000"
 16657      52784275 
 16657      66666572 
 16657      00
 16658              	.LASF22:
 16659 04b0 73757274 		.ascii	"surtidor\000"
 16659      69646F72 
 16659      00
 16660              	.LASF71:
 16661 04b9 636F6D61 		.ascii	"comas1\000"
 16661      733100
 16662              	.LASF72:
 16663 04c0 636F6D61 		.ascii	"comas2\000"
 16663      733200
 16664              	.LASF143:
 16665 04c7 70726F64 		.ascii	"producto1\000"
 16665      7563746F 
 16665      3100
 16666              	.LASF144:
 16667 04d1 70726F64 		.ascii	"producto2\000"
 16667      7563746F 
 16667      3200
 16668              	.LASF145:
 16669 04db 70726F64 		.ascii	"producto3\000"
 16669      7563746F 
 16669      3300
 16670              	.LASF146:
 16671 04e5 70726F64 		.ascii	"producto4\000"
 16671      7563746F 
 16671      3400
ARM GAS  C:\Users\RECEPC~1\AppData\Local\Temp\cc8qeTl3.s 			page 358


 16672              	.LASF60:
 16673 04ef 616E696D 		.ascii	"animacion\000"
 16673      6163696F 
 16673      6E00
 16674              	.LASF106:
 16675 04f9 6E6F6D62 		.ascii	"nombre_pro1\000"
 16675      72655F70 
 16675      726F3100 
 16676              	.LASF108:
 16677 0505 6E6F6D62 		.ascii	"nombre_pro3\000"
 16677      72655F70 
 16677      726F3300 
 16678              	.LASF63:
 16679 0511 696E7365 		.ascii	"insert_ppuInit\000"
 16679      72745F70 
 16679      7075496E 
 16679      697400
 16680              	.LASF61:
 16681 0520 616E696D 		.ascii	"animacion2\000"
 16681      6163696F 
 16681      6E3200
 16682              	.LASF150:
 16683 052b 73746174 		.ascii	"status2st\000"
 16683      75733273 
 16683      7400
 16684              	.LASF147:
 16685 0535 73746174 		.ascii	"status1LP\000"
 16685      7573314C 
 16685      5000
 16686              	.LASF44:
 16687 053f 696E6974 		.ascii	"init\000"
 16687      00
 16688              	.LASF16:
 16689 0544 73697A65 		.ascii	"sizetype\000"
 16689      74797065 
 16689      00
 16690              	.LASF5:
 16691 054d 6C6F6E67 		.ascii	"long unsigned int\000"
 16691      20756E73 
 16691      69676E65 
 16691      6420696E 
 16691      7400
 16692              	.LASF55:
 16693 055f 6E756D65 		.ascii	"numero\000"
 16693      726F00
 16694              	.LASF10:
 16695 0566 696E7433 		.ascii	"int32_t\000"
 16695      325F7400 
 16696              	.LASF100:
 16697 056e 70726F78 		.ascii	"prox_caso\000"
 16697      5F636173 
 16697      6F00
 16698              	.LASF135:
 16699 0578 74696D65 		.ascii	"timeout_autorizacion\000"
 16699      6F75745F 
 16699      6175746F 
 16699      72697A61 
ARM GAS  C:\Users\RECEPC~1\AppData\Local\Temp\cc8qeTl3.s 			page 359


 16699      63696F6E 
 16700              	.LASF37:
 16701 058d 6175746F 		.ascii	"autorizado\000"
 16701      72697A61 
 16701      646F00
 16702              	.LASF1:
 16703 0598 756E7369 		.ascii	"unsigned char\000"
 16703      676E6564 
 16703      20636861 
 16703      7200
 16704              	.LASF91:
 16705 05a6 666C756A 		.ascii	"flujo_pos\000"
 16705      6F5F706F 
 16705      7300
 16706              	.LASF111:
 16707 05b0 6C61646F 		.ascii	"lado2\000"
 16707      3200
 16708              	.LASF123:
 16709 05b6 6F6B5F64 		.ascii	"ok_datosRF\000"
 16709      61746F73 
 16709      524600
 16710              	.LASF138:
 16711 05c1 636C6176 		.ascii	"clave_local\000"
 16711      655F6C6F 
 16711      63616C00 
 16712              	.LASF130:
 16713 05cd 636C6176 		.ascii	"clave_config\000"
 16713      655F636F 
 16713      6E666967 
 16713      00
 16714              	.LASF107:
 16715 05da 6E6F6D62 		.ascii	"nombre_pro2\000"
 16715      72655F70 
 16715      726F3200 
 16716              	.LASF0:
 16717 05e6 7369676E 		.ascii	"signed char\000"
 16717      65642063 
 16717      68617200 
 16718              	.LASF45:
 16719 05f2 6572726F 		.ascii	"error_op\000"
 16719      725F6F70 
 16719      00
 16720              	.LASF3:
 16721 05fb 73686F72 		.ascii	"short unsigned int\000"
 16721      7420756E 
 16721      7369676E 
 16721      65642069 
 16721      6E7400
 16722              	.LASF141:
 16723 060e 50726F64 		.ascii	"Producto\000"
 16723      7563746F 
 16723      00
 16724              	.LASF66:
 16725 0617 6D61696E 		.ascii	"main\000"
 16725      00
 16726              	.LASF118:
 16727 061c 66656368 		.ascii	"fecha\000"
ARM GAS  C:\Users\RECEPC~1\AppData\Local\Temp\cc8qeTl3.s 			page 360


 16727      6100
 16728              	.LASF11:
 16729 0622 75696E74 		.ascii	"uint8\000"
 16729      3800
 16730              	.LASF14:
 16731 0628 646F7562 		.ascii	"double\000"
 16731      6C6500
 16732              	.LASF104:
 16733 062f 7472616D 		.ascii	"trama_totales\000"
 16733      615F746F 
 16733      74616C65 
 16733      7300
 16734              	.LASF102:
 16735 063d 69645F65 		.ascii	"id_estacion\000"
 16735      73746163 
 16735      696F6E00 
 16736              	.LASF28:
 16737 0649 6D616E67 		.ascii	"manguera\000"
 16737      75657261 
 16737      00
 16738              	.LASF64:
 16739 0652 78617578 		.ascii	"xaux\000"
 16739      00
 16740              	.LASF99:
 16741 0657 696D6167 		.ascii	"imagen_grado\000"
 16741      656E5F67 
 16741      7261646F 
 16741      00
 16742              	.LASF20:
 16743 0664 67726164 		.ascii	"grado\000"
 16743      6F00
 16744              	.LASF149:
 16745 066a 73746174 		.ascii	"status1st\000"
 16745      75733173 
 16745      7400
 16746              	.LASF137:
 16747 0674 636F6E73 		.ascii	"consulta_sistema\000"
 16747      756C7461 
 16747      5F736973 
 16747      74656D61 
 16747      00
 16748              	.LASF53:
 16749 0685 706F6C6C 		.ascii	"polling_rf2\000"
 16749      696E675F 
 16749      72663200 
 16750              	.LASF80:
 16751 0691 73697A65 		.ascii	"sizeletra1\000"
 16751      6C657472 
 16751      613100
 16752              	.LASF83:
 16753 069c 73697A65 		.ascii	"sizeletra2\000"
 16753      6C657472 
 16753      613200
 16754              	.LASF152:
 16755 06a7 2E5C6D61 		.ascii	".\\main.c\000"
 16755      696E2E63 
 16755      00
ARM GAS  C:\Users\RECEPC~1\AppData\Local\Temp\cc8qeTl3.s 			page 361


 16756              		.ident	"GCC: (GNU Tools for ARM Embedded Processors) 4.9.3 20150303 (release) [ARM/embedded-4_9-br
