ARM GAS  C:\Users\RECEPC~1\AppData\Local\Temp\ccU7e2eq.s 			page 1


   1              		.syntax unified
   2              		.cpu cortex-m3
   3              		.fpu softvfp
   4              		.eabi_attribute 20, 1
   5              		.eabi_attribute 21, 1
   6              		.eabi_attribute 23, 3
   7              		.eabi_attribute 24, 1
   8              		.eabi_attribute 25, 1
   9              		.eabi_attribute 26, 1
  10              		.eabi_attribute 30, 6
  11              		.eabi_attribute 34, 1
  12              		.eabi_attribute 18, 4
  13              		.thumb
  14              		.file	"main.c"
  15              		.text
  16              	.Ltext0:
  17              		.cfi_sections	.debug_frame
  18              		.comm	count_teclas1,1,1
  19              		.comm	comas1,1,1
  20              		.comm	comas2,1,1
  21              		.comm	id_coma1,1,1
  22              		.comm	id_teclado1,1,1
  23              		.comm	count_teclas2,1,1
  24              		.comm	id_coma2,1,1
  25              		.comm	id_teclado2,1,1
  26              		.comm	posx1,2,2
  27              		.comm	posy1,2,2
  28              		.comm	sizeletra1,2,2
  29              		.comm	posx2,2,2
  30              		.comm	posy2,2,2
  31              		.comm	sizeletra2,2,2
  32              		.comm	teclas1,1,1
  33              		.comm	teclas2,1,1
  34              		.comm	flujo_LCD1,1,1
  35              		.comm	flujo_LCD2,1,1
  36              		.comm	flujo_pos1,1,1
  37              		.comm	flujo_pos2,1,1
  38              		.comm	seleccion_pos,1,1
  39              		.comm	flujo_pos,1,1
  40              		.comm	venta_activa,1,1
  41              		.comm	venta_activa2,1,1
  42              		.comm	Buffer_LCD1,30,4
  43              		.comm	Buffer_LCD2,30,4
  44              		.comm	count_protector,1,1
  45              		.comm	count_protector2,1,1
  46              		.comm	password_lcd,9,4
  47              		.comm	imagen_grado,2,2
  48              		.comm	prox_caso,8,4
  49              		.comm	bloqueo_LCD,3,4
  50              		.comm	id_estacion,5,4
  51              		.comm	id_venta,8,4
  52              		.comm	trama_totales,200,4
  53              		.comm	ppux10,1,1
  54              		.comm	nombre_pro1,17,4
  55              		.comm	nombre_pro2,17,4
  56              		.comm	nombre_pro3,17,4
  57              		.comm	version,4,4
ARM GAS  C:\Users\RECEPC~1\AppData\Local\Temp\ccU7e2eq.s 			page 2


  58              		.comm	kmscreen,1,1
  59              		.comm	pantallas,1,1
  60              		.comm	efectivo,1,1
  61              		.comm	lado1,93,4
  62              		.comm	lado2,93,4
  63              		.comm	lado3,93,4
  64              		.comm	lado4,93,4
  65              		.comm	nombre,33,4
  66              		.comm	nit,15,4
  67              		.comm	telefono,20,4
  68              		.comm	direccion,33,4
  69              		.comm	lema1,32,4
  70              		.comm	lema2,32,4
  71              		.comm	id_logo,2,4
  72              		.comm	km,2,4
  73              		.comm	fecha,3,4
  74              		.comm	hora,2,4
  75              		.comm	rventa1,118,4
  76              		.comm	rventa2,118,4
  77              		.comm	ok_RF,1,1
  78              		.comm	ok_datosRF,1,1
  79              		.comm	rf_mod,200,4
  80              		.comm	buffer_i2c,64,4
  81              		.comm	crc_total,1,1
  82              		.comm	print1,2,4
  83              		.comm	print2,2,4
  84              		.comm	tipo_venta,1,1
  85              		.global	letras
  86              		.data
  87              		.align	2
  88              		.type	letras, %object
  89              		.size	letras, 26
  90              	letras:
  91 0000 25       		.byte	37
  92 0001 42       		.byte	66
  93 0002 31       		.byte	49
  94 0003 27       		.byte	39
  95 0004 1D       		.byte	29
  96 0005 28       		.byte	40
  97 0006 29       		.byte	41
  98 0007 2A       		.byte	42
  99 0008 22       		.byte	34
 100 0009 2B       		.byte	43
 101 000a 2C       		.byte	44
 102 000b 2D       		.byte	45
 103 000c 35       		.byte	53
 104 000d 34       		.byte	52
 105 000e 23       		.byte	35
 106 000f 24       		.byte	36
 107 0010 1B       		.byte	27
 108 0011 1E       		.byte	30
 109 0012 26       		.byte	38
 110 0013 1F       		.byte	31
 111 0014 21       		.byte	33
 112 0015 32       		.byte	50
 113 0016 1C       		.byte	28
 114 0017 30       		.byte	48
ARM GAS  C:\Users\RECEPC~1\AppData\Local\Temp\ccU7e2eq.s 			page 3


 115 0018 20       		.byte	32
 116 0019 2F       		.byte	47
 117              		.global	clave_config
 118 001a 0000     		.align	2
 119              		.type	clave_config, %object
 120              		.size	clave_config, 5
 121              	clave_config:
 122 001c 30323431 		.ascii	"02412"
 122      32
 123              		.global	test
 124 0021 000000   		.align	2
 125              		.type	test, %object
 126              		.size	test, 18
 127              	test:
 128 0024 54657374 		.ascii	"Test de Impresora\000"
 128      20646520 
 128      496D7072 
 128      65736F72 
 128      6100
 129              		.comm	num_decimal2,2,2
 130              		.comm	idaux,8,4
 131              		.comm	state_rf,1,1
 132              		.comm	timeout_autorizacion,2,2
 133              		.comm	estado_tanqueando,1,1
 134              		.global	consulta_sistema
 135              		.type	consulta_sistema, %object
 136              		.size	consulta_sistema, 1
 137              	consulta_sistema:
 138 0036 01       		.byte	1
 139              		.global	clave_local
 140 0037 00       		.align	2
 141              		.type	clave_local, %object
 142              		.size	clave_local, 4
 143              	clave_local:
 144 0038 39       		.byte	57
 145 0039 36       		.byte	54
 146 003a 33       		.byte	51
 147 003b 31       		.byte	49
 148              		.comm	v_digitos_1,1,1
 149              		.global	ppuinicial
 150              		.bss
 151              		.type	ppuinicial, %object
 152              		.size	ppuinicial, 1
 153              	ppuinicial:
 154 0000 00       		.space	1
 155              		.comm	Producto,1,1
 156              		.comm	Productos,4,4
 157              		.global	producto1
 158              		.data
 159              		.type	producto1, %object
 160              		.size	producto1, 1
 161              	producto1:
 162 003c 01       		.byte	1
 163              		.global	producto2
 164              		.type	producto2, %object
 165              		.size	producto2, 1
 166              	producto2:
ARM GAS  C:\Users\RECEPC~1\AppData\Local\Temp\ccU7e2eq.s 			page 4


 167 003d 01       		.byte	1
 168              		.global	producto3
 169              		.type	producto3, %object
 170              		.size	producto3, 1
 171              	producto3:
 172 003e 01       		.byte	1
 173              		.global	producto4
 174              		.type	producto4, %object
 175              		.size	producto4, 1
 176              	producto4:
 177 003f 01       		.byte	1
 178              		.comm	status1LP,1,1
 179              		.comm	status2LP,1,1
 180              		.comm	status1st,1,1
 181              		.comm	status2st,1,1
 182              		.section	.text.init,"ax",%progbits
 183              		.align	2
 184              		.global	init
 185              		.thumb
 186              		.thumb_func
 187              		.type	init, %function
 188              	init:
 189              	.LFB63:
 190              		.file 1 ".\\main.c"
   1:.\main.c      **** /*
   2:.\main.c      **** ***************************************************************************************************
   3:.\main.c      **** *                                           GRP550M CODE2
   4:.\main.c      **** *
   5:.\main.c      **** *                             (c) Copyright 2013; Sistemas Insepet LTDA
   6:.\main.c      **** *
   7:.\main.c      **** *               All rights reserved.  Protected by international copyright laws.
   8:.\main.c      **** *               Knowledge of the source code may NOT be used to develop a similar product.
   9:.\main.c      **** *               Please help us continue to provide the Embedded community with the finest
  10:.\main.c      **** *               software available.  Your honesty is greatly appreciated.
  11:.\main.c      **** ***************************************************************************************************
  12:.\main.c      **** */
  13:.\main.c      **** 
  14:.\main.c      **** /*
  15:.\main.c      **** ***************************************************************************************************
  16:.\main.c      **** *
  17:.\main.c      **** *                                               GRP550M CODE
  18:.\main.c      **** *
  19:.\main.c      **** *                                             CYPRESS PSoC5LP
  20:.\main.c      **** *                                                with the
  21:.\main.c      **** *                                            CY8C5969AXI-LP035
  22:.\main.c      **** *
  23:.\main.c      **** * Filename      : main.c
  24:.\main.c      **** * Version       : V2.00
  25:.\main.c      **** * Programmer(s) : 
  26:.\main.c      ****                   
  27:.\main.c      **** ***************************************************************************************************
  28:.\main.c      **** */
  29:.\main.c      **** 
  30:.\main.c      **** /*
  31:.\main.c      **** ***************************************************************************************************
  32:.\main.c      **** *                                             INCLUDE FILES
  33:.\main.c      **** ***************************************************************************************************
ARM GAS  C:\Users\RECEPC~1\AppData\Local\Temp\ccU7e2eq.s 			page 5


  34:.\main.c      **** */
  35:.\main.c      **** 
  36:.\main.c      **** #include <device.h>
  37:.\main.c      **** #include <math.h>
  38:.\main.c      **** #include <stdio.h>
  39:.\main.c      **** #include <stdlib.h>
  40:.\main.c      **** #include <string.h>
  41:.\main.c      **** #include "Protocolo.h"
  42:.\main.c      **** #include "VariablesG.h"
  43:.\main.c      **** #include "Print.h"
  44:.\main.c      **** #include "LCD.h"
  45:.\main.c      **** #include "ibutton.h"
  46:.\main.c      **** #include "i2c.h"
  47:.\main.c      **** 
  48:.\main.c      **** /*
  49:.\main.c      **** ***************************************************************************************************
  50:.\main.c      **** *                                             DECLARACION DE FUNCIONES
  51:.\main.c      **** ***************************************************************************************************
  52:.\main.c      **** */
  53:.\main.c      **** uint8 letras[26]={0x25,0x42,0x31,0x27,0x1D,0x28,0x29,0x2A,0x22,0x2B,0x2C,0x2D,0x35,0x34,0x23,0x24,0
  54:.\main.c      **** uint8 clave_config[5]="02412";
  55:.\main.c      **** uint8 test[18]="Test de Impresora";
  56:.\main.c      **** uint16 num_decimal2;
  57:.\main.c      **** CY_ISR(animacion);
  58:.\main.c      **** CY_ISR(animacion2);
  59:.\main.c      **** CY_ISR(modo_mux);
  60:.\main.c      **** uint8  idaux[8];
  61:.\main.c      **** uint8  state_rf;
  62:.\main.c      **** uint16 timeout_autorizacion;
  63:.\main.c      **** uint8  estado_tanqueando; 
  64:.\main.c      **** uint8  consulta_sistema=1;
  65:.\main.c      **** uint8  clave_local[4]={'9','6','3','1'};
  66:.\main.c      **** uint8  v_digitos_1;
  67:.\main.c      **** uint8  ppuinicial=0;
  68:.\main.c      **** uint8  Producto;
  69:.\main.c      **** uint8  Productos[4];// el buffer es para guardar los tipos de combustible
  70:.\main.c      **** uint8  producto1=1,producto2=1,producto3=1,producto4=1;
  71:.\main.c      **** uint8  status1LP,status2LP,status1st,status2st; 
  72:.\main.c      **** 
  73:.\main.c      **** 
  74:.\main.c      **** /*
  75:.\main.c      **** ***************************************************************************************************
  76:.\main.c      **** *                                         init( void )
  77:.\main.c      **** *
  78:.\main.c      **** * Description : 
  79:.\main.c      **** *               
  80:.\main.c      **** *
  81:.\main.c      **** * Argument(s) : none
  82:.\main.c      **** *
  83:.\main.c      **** * Return(s)   : none
  84:.\main.c      **** *
  85:.\main.c      **** * Caller(s)   : 
  86:.\main.c      **** *
  87:.\main.c      **** * Note(s)     : none.
  88:.\main.c      **** ***************************************************************************************************
  89:.\main.c      **** */ 
  90:.\main.c      **** void init(void){
ARM GAS  C:\Users\RECEPC~1\AppData\Local\Temp\ccU7e2eq.s 			page 6


 191              		.loc 1 90 0
 192              		.cfi_startproc
 193              		@ args = 0, pretend = 0, frame = 8
 194              		@ frame_needed = 1, uses_anonymous_args = 0
 195 0000 90B5     		push	{r4, r7, lr}
 196              		.cfi_def_cfa_offset 12
 197              		.cfi_offset 4, -12
 198              		.cfi_offset 7, -8
 199              		.cfi_offset 14, -4
 200 0002 83B0     		sub	sp, sp, #12
 201              		.cfi_def_cfa_offset 24
 202 0004 00AF     		add	r7, sp, #0
 203              		.cfi_def_cfa_register 7
  91:.\main.c      ****     timeout_autorizacion=0;
 204              		.loc 1 91 0
 205 0006 7A4B     		ldr	r3, .L6
 206 0008 0022     		movs	r2, #0
 207 000a 1A80     		strh	r2, [r3]	@ movhi
  92:.\main.c      **** 	uint8 x;
  93:.\main.c      ****     CyGlobalIntEnable;
 208              		.loc 1 93 0
 209              	@ 93 ".\main.c" 1
 210 000c 62B6     		CPSIE   i
 211              	@ 0 "" 2
  94:.\main.c      **** 	PC_Start();
 212              		.loc 1 94 0
 213              		.thumb
 214 000e FFF7FEFF 		bl	PC_Start
  95:.\main.c      ****     I2C_1_Start();
 215              		.loc 1 95 0
 216 0012 FFF7FEFF 		bl	I2C_1_Start
  96:.\main.c      ****     Surtidor_Start();
 217              		.loc 1 96 0
 218 0016 FFF7FEFF 		bl	Surtidor_Start
  97:.\main.c      ****     LCD_1_Start();
 219              		.loc 1 97 0
 220 001a FFF7FEFF 		bl	LCD_1_Start
  98:.\main.c      ****     LCD_2_Start();   	
 221              		.loc 1 98 0
 222 001e FFF7FEFF 		bl	LCD_2_Start
  99:.\main.c      **** 	EEPROM_Start();
 223              		.loc 1 99 0
 224 0022 FFF7FEFF 		bl	EEPROM_Start
 100:.\main.c      **** 
 101:.\main.c      **** 	/***********Iniciacion de variables***************/
 102:.\main.c      **** 	lado1.grado[0][0]=0;
 225              		.loc 1 102 0
 226 0026 734B     		ldr	r3, .L6+4
 227 0028 0022     		movs	r2, #0
 228 002a 83F85920 		strb	r2, [r3, #89]
 103:.\main.c      **** 	lado1.grado[1][0]=0;
 229              		.loc 1 103 0
 230 002e 714B     		ldr	r3, .L6+4
 231 0030 0022     		movs	r2, #0
 232 0032 83F85A20 		strb	r2, [r3, #90]
 104:.\main.c      **** 	lado1.grado[2][0]=0;
 233              		.loc 1 104 0
ARM GAS  C:\Users\RECEPC~1\AppData\Local\Temp\ccU7e2eq.s 			page 7


 234 0036 6F4B     		ldr	r3, .L6+4
 235 0038 0022     		movs	r2, #0
 236 003a 83F85B20 		strb	r2, [r3, #91]
 105:.\main.c      **** 	lado2.grado[0][0]=0;
 237              		.loc 1 105 0
 238 003e 6E4B     		ldr	r3, .L6+8
 239 0040 0022     		movs	r2, #0
 240 0042 83F85920 		strb	r2, [r3, #89]
 106:.\main.c      **** 	lado2.grado[1][0]=0;
 241              		.loc 1 106 0
 242 0046 6C4B     		ldr	r3, .L6+8
 243 0048 0022     		movs	r2, #0
 244 004a 83F85A20 		strb	r2, [r3, #90]
 107:.\main.c      **** 	lado2.grado[2][0]=0;
 245              		.loc 1 107 0
 246 004e 6A4B     		ldr	r3, .L6+8
 247 0050 0022     		movs	r2, #0
 248 0052 83F85B20 		strb	r2, [r3, #91]
 108:.\main.c      ****     for(x=0; x<=15; x++){
 249              		.loc 1 108 0
 250 0056 0023     		movs	r3, #0
 251 0058 FB71     		strb	r3, [r7, #7]
 252 005a 08E0     		b	.L2
 253              	.L3:
 109:.\main.c      ****         rventa1.id_ef[x]= 1;
 254              		.loc 1 109 0 discriminator 3
 255 005c FB79     		ldrb	r3, [r7, #7]	@ zero_extendqisi2
 256 005e 674A     		ldr	r2, .L6+12
 257 0060 1344     		add	r3, r3, r2
 258 0062 0122     		movs	r2, #1
 259 0064 83F83320 		strb	r2, [r3, #51]
 108:.\main.c      ****     for(x=0; x<=15; x++){
 260              		.loc 1 108 0 discriminator 3
 261 0068 FB79     		ldrb	r3, [r7, #7]	@ zero_extendqisi2
 262 006a 0133     		adds	r3, r3, #1
 263 006c FB71     		strb	r3, [r7, #7]
 264              	.L2:
 108:.\main.c      ****     for(x=0; x<=15; x++){
 265              		.loc 1 108 0 is_stmt 0 discriminator 1
 266 006e FB79     		ldrb	r3, [r7, #7]	@ zero_extendqisi2
 267 0070 0F2B     		cmp	r3, #15
 268 0072 F3D9     		bls	.L3
 110:.\main.c      ****     }
 111:.\main.c      **** 
 112:.\main.c      ****     CyDelay(5);
 269              		.loc 1 112 0 is_stmt 1
 270 0074 0520     		movs	r0, #5
 271 0076 FFF7FEFF 		bl	CyDelay
 113:.\main.c      **** 	/******************Lectura de EEPROM*************/
 114:.\main.c      **** 	
 115:.\main.c      **** 	for(x=13;x<=14;x++){									//Logo
 272              		.loc 1 115 0
 273 007a 0D23     		movs	r3, #13
 274 007c FB71     		strb	r3, [r7, #7]
 275 007e 0EE0     		b	.L4
 276              	.L5:
 116:.\main.c      **** 		id_logo[x-13]=EEPROM_ReadByte(x);
ARM GAS  C:\Users\RECEPC~1\AppData\Local\Temp\ccU7e2eq.s 			page 8


 277              		.loc 1 116 0 discriminator 3
 278 0080 FB79     		ldrb	r3, [r7, #7]	@ zero_extendqisi2
 279 0082 A3F10D04 		sub	r4, r3, #13
 280 0086 FB79     		ldrb	r3, [r7, #7]	@ zero_extendqisi2
 281 0088 9BB2     		uxth	r3, r3
 282 008a 1846     		mov	r0, r3
 283 008c FFF7FEFF 		bl	EEPROM_ReadByte
 284 0090 0346     		mov	r3, r0
 285 0092 1A46     		mov	r2, r3
 286 0094 5A4B     		ldr	r3, .L6+16
 287 0096 1A55     		strb	r2, [r3, r4]
 115:.\main.c      **** 		id_logo[x-13]=EEPROM_ReadByte(x);
 288              		.loc 1 115 0 discriminator 3
 289 0098 FB79     		ldrb	r3, [r7, #7]	@ zero_extendqisi2
 290 009a 0133     		adds	r3, r3, #1
 291 009c FB71     		strb	r3, [r7, #7]
 292              	.L4:
 115:.\main.c      **** 		id_logo[x-13]=EEPROM_ReadByte(x);
 293              		.loc 1 115 0 is_stmt 0 discriminator 1
 294 009e FB79     		ldrb	r3, [r7, #7]	@ zero_extendqisi2
 295 00a0 0E2B     		cmp	r3, #14
 296 00a2 EDD9     		bls	.L5
 117:.\main.c      **** 	}
 118:.\main.c      **** 	lado1.mangueras=EEPROM_ReadByte(15);					//Numero de grados y codigo de cada uno 1
 297              		.loc 1 118 0 is_stmt 1
 298 00a4 0F20     		movs	r0, #15
 299 00a6 FFF7FEFF 		bl	EEPROM_ReadByte
 300 00aa 0346     		mov	r3, r0
 301 00ac 1A46     		mov	r2, r3
 302 00ae 514B     		ldr	r3, .L6+4
 303 00b0 83F85C20 		strb	r2, [r3, #92]
 119:.\main.c      **** 	lado1.grado[0][0]=EEPROM_ReadByte(16);
 304              		.loc 1 119 0
 305 00b4 1020     		movs	r0, #16
 306 00b6 FFF7FEFF 		bl	EEPROM_ReadByte
 307 00ba 0346     		mov	r3, r0
 308 00bc 1A46     		mov	r2, r3
 309 00be 4D4B     		ldr	r3, .L6+4
 310 00c0 83F85920 		strb	r2, [r3, #89]
 120:.\main.c      **** 	lado1.grado[1][0]=EEPROM_ReadByte(17);
 311              		.loc 1 120 0
 312 00c4 1120     		movs	r0, #17
 313 00c6 FFF7FEFF 		bl	EEPROM_ReadByte
 314 00ca 0346     		mov	r3, r0
 315 00cc 1A46     		mov	r2, r3
 316 00ce 494B     		ldr	r3, .L6+4
 317 00d0 83F85A20 		strb	r2, [r3, #90]
 121:.\main.c      **** 	lado1.grado[2][0]=EEPROM_ReadByte(18);
 318              		.loc 1 121 0
 319 00d4 1220     		movs	r0, #18
 320 00d6 FFF7FEFF 		bl	EEPROM_ReadByte
 321 00da 0346     		mov	r3, r0
 322 00dc 1A46     		mov	r2, r3
 323 00de 454B     		ldr	r3, .L6+4
 324 00e0 83F85B20 		strb	r2, [r3, #91]
 122:.\main.c      **** 	
 123:.\main.c      **** 	lado2.mangueras=EEPROM_ReadByte(19);					//Numero de grados y codigo de cada uno 1
ARM GAS  C:\Users\RECEPC~1\AppData\Local\Temp\ccU7e2eq.s 			page 9


 325              		.loc 1 123 0
 326 00e4 1320     		movs	r0, #19
 327 00e6 FFF7FEFF 		bl	EEPROM_ReadByte
 328 00ea 0346     		mov	r3, r0
 329 00ec 1A46     		mov	r2, r3
 330 00ee 424B     		ldr	r3, .L6+8
 331 00f0 83F85C20 		strb	r2, [r3, #92]
 124:.\main.c      **** 	lado2.grado[0][0]=EEPROM_ReadByte(20);
 332              		.loc 1 124 0
 333 00f4 1420     		movs	r0, #20
 334 00f6 FFF7FEFF 		bl	EEPROM_ReadByte
 335 00fa 0346     		mov	r3, r0
 336 00fc 1A46     		mov	r2, r3
 337 00fe 3E4B     		ldr	r3, .L6+8
 338 0100 83F85920 		strb	r2, [r3, #89]
 125:.\main.c      **** 	lado2.grado[1][0]=EEPROM_ReadByte(21);
 339              		.loc 1 125 0
 340 0104 1520     		movs	r0, #21
 341 0106 FFF7FEFF 		bl	EEPROM_ReadByte
 342 010a 0346     		mov	r3, r0
 343 010c 1A46     		mov	r2, r3
 344 010e 3A4B     		ldr	r3, .L6+8
 345 0110 83F85A20 		strb	r2, [r3, #90]
 126:.\main.c      **** 	lado2.grado[2][0]=EEPROM_ReadByte(22);	
 346              		.loc 1 126 0
 347 0114 1620     		movs	r0, #22
 348 0116 FFF7FEFF 		bl	EEPROM_ReadByte
 349 011a 0346     		mov	r3, r0
 350 011c 1A46     		mov	r2, r3
 351 011e 364B     		ldr	r3, .L6+8
 352 0120 83F85B20 		strb	r2, [r3, #91]
 127:.\main.c      **** 	
 128:.\main.c      **** 	ppux10=EEPROM_ReadByte(23);								//PPU X10
 353              		.loc 1 128 0
 354 0124 1720     		movs	r0, #23
 355 0126 FFF7FEFF 		bl	EEPROM_ReadByte
 356 012a 0346     		mov	r3, r0
 357 012c 1A46     		mov	r2, r3
 358 012e 354B     		ldr	r3, .L6+20
 359 0130 1A70     		strb	r2, [r3]
 129:.\main.c      ****     
 130:.\main.c      ****     lado1.dir=EEPROM_ReadByte(26);							//Lado A
 360              		.loc 1 130 0
 361 0132 1A20     		movs	r0, #26
 362 0134 FFF7FEFF 		bl	EEPROM_ReadByte
 363 0138 0346     		mov	r3, r0
 364 013a 1A46     		mov	r2, r3
 365 013c 2D4B     		ldr	r3, .L6+4
 366 013e 1A70     		strb	r2, [r3]
 131:.\main.c      **** 	lado2.dir=EEPROM_ReadByte(28);							//Lado B
 367              		.loc 1 131 0
 368 0140 1C20     		movs	r0, #28
 369 0142 FFF7FEFF 		bl	EEPROM_ReadByte
 370 0146 0346     		mov	r3, r0
 371 0148 1A46     		mov	r2, r3
 372 014a 2B4B     		ldr	r3, .L6+8
 373 014c 1A70     		strb	r2, [r3]
ARM GAS  C:\Users\RECEPC~1\AppData\Local\Temp\ccU7e2eq.s 			page 10


 132:.\main.c      ****     lado3.dir=EEPROM_ReadByte(27);							//Lado C
 374              		.loc 1 132 0
 375 014e 1B20     		movs	r0, #27
 376 0150 FFF7FEFF 		bl	EEPROM_ReadByte
 377 0154 0346     		mov	r3, r0
 378 0156 1A46     		mov	r2, r3
 379 0158 2B4B     		ldr	r3, .L6+24
 380 015a 1A70     		strb	r2, [r3]
 133:.\main.c      ****     lado4.dir=EEPROM_ReadByte(29);							//Lado D
 381              		.loc 1 133 0
 382 015c 1D20     		movs	r0, #29
 383 015e FFF7FEFF 		bl	EEPROM_ReadByte
 384 0162 0346     		mov	r3, r0
 385 0164 1A46     		mov	r2, r3
 386 0166 294B     		ldr	r3, .L6+28
 387 0168 1A70     		strb	r2, [r3]
 134:.\main.c      **** 
 135:.\main.c      **** 	version[1]=EEPROM_ReadByte(30);							//Version de digitos y decimales
 388              		.loc 1 135 0
 389 016a 1E20     		movs	r0, #30
 390 016c FFF7FEFF 		bl	EEPROM_ReadByte
 391 0170 0346     		mov	r3, r0
 392 0172 1A46     		mov	r2, r3
 393 0174 264B     		ldr	r3, .L6+32
 394 0176 5A70     		strb	r2, [r3, #1]
 136:.\main.c      **** 	version[2]=EEPROM_ReadByte(31);
 395              		.loc 1 136 0
 396 0178 1F20     		movs	r0, #31
 397 017a FFF7FEFF 		bl	EEPROM_ReadByte
 398 017e 0346     		mov	r3, r0
 399 0180 1A46     		mov	r2, r3
 400 0182 234B     		ldr	r3, .L6+32
 401 0184 9A70     		strb	r2, [r3, #2]
 137:.\main.c      **** 	version[3]=EEPROM_ReadByte(32);
 402              		.loc 1 137 0
 403 0186 2020     		movs	r0, #32
 404 0188 FFF7FEFF 		bl	EEPROM_ReadByte
 405 018c 0346     		mov	r3, r0
 406 018e 1A46     		mov	r2, r3
 407 0190 1F4B     		ldr	r3, .L6+32
 408 0192 DA70     		strb	r2, [r3, #3]
 138:.\main.c      **** 		 	
 139:.\main.c      ****     pantallas =EEPROM_ReadByte(33);
 409              		.loc 1 139 0
 410 0194 2120     		movs	r0, #33
 411 0196 FFF7FEFF 		bl	EEPROM_ReadByte
 412 019a 0346     		mov	r3, r0
 413 019c 1A46     		mov	r2, r3
 414 019e 1D4B     		ldr	r3, .L6+36
 415 01a0 1A70     		strb	r2, [r3]
 140:.\main.c      ****     kmscreen  =EEPROM_ReadByte(34);
 416              		.loc 1 140 0
 417 01a2 2220     		movs	r0, #34
 418 01a4 FFF7FEFF 		bl	EEPROM_ReadByte
 419 01a8 0346     		mov	r3, r0
 420 01aa 1A46     		mov	r2, r3
 421 01ac 1A4B     		ldr	r3, .L6+40
ARM GAS  C:\Users\RECEPC~1\AppData\Local\Temp\ccU7e2eq.s 			page 11


 422 01ae 1A70     		strb	r2, [r3]
 141:.\main.c      ****     efectivo  =EEPROM_ReadByte(35);
 423              		.loc 1 141 0
 424 01b0 2320     		movs	r0, #35
 425 01b2 FFF7FEFF 		bl	EEPROM_ReadByte
 426 01b6 0346     		mov	r3, r0
 427 01b8 1A46     		mov	r2, r3
 428 01ba 184B     		ldr	r3, .L6+44
 429 01bc 1A70     		strb	r2, [r3]
 142:.\main.c      ****     
 143:.\main.c      ****     lado1.estado=libre;
 430              		.loc 1 143 0
 431 01be 0D4B     		ldr	r3, .L6+4
 432 01c0 0122     		movs	r2, #1
 433 01c2 5A70     		strb	r2, [r3, #1]
 144:.\main.c      ****     lado2.estado=libre;
 434              		.loc 1 144 0
 435 01c4 0C4B     		ldr	r3, .L6+8
 436 01c6 0122     		movs	r2, #1
 437 01c8 5A70     		strb	r2, [r3, #1]
 145:.\main.c      ****     estado_tanqueando=0;
 438              		.loc 1 145 0
 439 01ca 154B     		ldr	r3, .L6+48
 440 01cc 0022     		movs	r2, #0
 441 01ce 1A70     		strb	r2, [r3]
 146:.\main.c      **** 	version[2]=0;
 442              		.loc 1 146 0
 443 01d0 0F4B     		ldr	r3, .L6+32
 444 01d2 0022     		movs	r2, #0
 445 01d4 9A70     		strb	r2, [r3, #2]
 147:.\main.c      **** 	version[3]=3;
 446              		.loc 1 147 0
 447 01d6 0E4B     		ldr	r3, .L6+32
 448 01d8 0322     		movs	r2, #3
 449 01da DA70     		strb	r2, [r3, #3]
 148:.\main.c      ****     flujo_LCD1 = 0;
 450              		.loc 1 148 0
 451 01dc 114B     		ldr	r3, .L6+52
 452 01de 0022     		movs	r2, #0
 453 01e0 1A70     		strb	r2, [r3]
 149:.\main.c      ****     CyDelay(5);	
 454              		.loc 1 149 0
 455 01e2 0520     		movs	r0, #5
 456 01e4 FFF7FEFF 		bl	CyDelay
 150:.\main.c      ****     
 151:.\main.c      **** }
 457              		.loc 1 151 0
 458 01e8 0C37     		adds	r7, r7, #12
 459              		.cfi_def_cfa_offset 12
 460 01ea BD46     		mov	sp, r7
 461              		.cfi_def_cfa_register 13
 462              		@ sp needed
 463 01ec 90BD     		pop	{r4, r7, pc}
 464              	.L7:
 465 01ee 00BF     		.align	2
 466              	.L6:
 467 01f0 00000000 		.word	timeout_autorizacion
ARM GAS  C:\Users\RECEPC~1\AppData\Local\Temp\ccU7e2eq.s 			page 12


 468 01f4 00000000 		.word	lado1
 469 01f8 00000000 		.word	lado2
 470 01fc 00000000 		.word	rventa1
 471 0200 00000000 		.word	id_logo
 472 0204 00000000 		.word	ppux10
 473 0208 00000000 		.word	lado3
 474 020c 00000000 		.word	lado4
 475 0210 00000000 		.word	version
 476 0214 00000000 		.word	pantallas
 477 0218 00000000 		.word	kmscreen
 478 021c 00000000 		.word	efectivo
 479 0220 00000000 		.word	estado_tanqueando
 480 0224 00000000 		.word	flujo_LCD1
 481              		.cfi_endproc
 482              	.LFE63:
 483              		.size	init, .-init
 484              		.section	.rodata
 485              		.align	2
 486              	.LC0:
 487 0000 00       		.byte	0
 488 0001 5E       		.byte	94
 489 0002 BC       		.byte	-68
 490 0003 E2       		.byte	-30
 491 0004 61       		.byte	97
 492 0005 3F       		.byte	63
 493 0006 DD       		.byte	-35
 494 0007 83       		.byte	-125
 495 0008 C2       		.byte	-62
 496 0009 9C       		.byte	-100
 497 000a 7E       		.byte	126
 498 000b 20       		.byte	32
 499 000c A3       		.byte	-93
 500 000d FD       		.byte	-3
 501 000e 1F       		.byte	31
 502 000f 41       		.byte	65
 503 0010 9D       		.byte	-99
 504 0011 C3       		.byte	-61
 505 0012 21       		.byte	33
 506 0013 7F       		.byte	127
 507 0014 FC       		.byte	-4
 508 0015 A2       		.byte	-94
 509 0016 40       		.byte	64
 510 0017 1E       		.byte	30
 511 0018 5F       		.byte	95
 512 0019 01       		.byte	1
 513 001a E3       		.byte	-29
 514 001b BD       		.byte	-67
 515 001c 3E       		.byte	62
 516 001d 60       		.byte	96
 517 001e 82       		.byte	-126
 518 001f DC       		.byte	-36
 519 0020 23       		.byte	35
 520 0021 7D       		.byte	125
 521 0022 9F       		.byte	-97
 522 0023 C1       		.byte	-63
 523 0024 42       		.byte	66
 524 0025 1C       		.byte	28
ARM GAS  C:\Users\RECEPC~1\AppData\Local\Temp\ccU7e2eq.s 			page 13


 525 0026 FE       		.byte	-2
 526 0027 A0       		.byte	-96
 527 0028 E1       		.byte	-31
 528 0029 BF       		.byte	-65
 529 002a 5D       		.byte	93
 530 002b 03       		.byte	3
 531 002c 80       		.byte	-128
 532 002d DE       		.byte	-34
 533 002e 3C       		.byte	60
 534 002f 62       		.byte	98
 535 0030 BE       		.byte	-66
 536 0031 E0       		.byte	-32
 537 0032 02       		.byte	2
 538 0033 5C       		.byte	92
 539 0034 DF       		.byte	-33
 540 0035 81       		.byte	-127
 541 0036 63       		.byte	99
 542 0037 3D       		.byte	61
 543 0038 7C       		.byte	124
 544 0039 22       		.byte	34
 545 003a C0       		.byte	-64
 546 003b 9E       		.byte	-98
 547 003c 1D       		.byte	29
 548 003d 43       		.byte	67
 549 003e A1       		.byte	-95
 550 003f FF       		.byte	-1
 551 0040 46       		.byte	70
 552 0041 18       		.byte	24
 553 0042 FA       		.byte	-6
 554 0043 A4       		.byte	-92
 555 0044 27       		.byte	39
 556 0045 79       		.byte	121
 557 0046 9B       		.byte	-101
 558 0047 C5       		.byte	-59
 559 0048 84       		.byte	-124
 560 0049 DA       		.byte	-38
 561 004a 38       		.byte	56
 562 004b 66       		.byte	102
 563 004c E5       		.byte	-27
 564 004d BB       		.byte	-69
 565 004e 59       		.byte	89
 566 004f 07       		.byte	7
 567 0050 DB       		.byte	-37
 568 0051 85       		.byte	-123
 569 0052 67       		.byte	103
 570 0053 39       		.byte	57
 571 0054 BA       		.byte	-70
 572 0055 E4       		.byte	-28
 573 0056 06       		.byte	6
 574 0057 58       		.byte	88
 575 0058 19       		.byte	25
 576 0059 47       		.byte	71
 577 005a A5       		.byte	-91
 578 005b FB       		.byte	-5
 579 005c 78       		.byte	120
 580 005d 26       		.byte	38
 581 005e C4       		.byte	-60
ARM GAS  C:\Users\RECEPC~1\AppData\Local\Temp\ccU7e2eq.s 			page 14


 582 005f 9A       		.byte	-102
 583 0060 65       		.byte	101
 584 0061 3B       		.byte	59
 585 0062 D9       		.byte	-39
 586 0063 87       		.byte	-121
 587 0064 04       		.byte	4
 588 0065 5A       		.byte	90
 589 0066 B8       		.byte	-72
 590 0067 E6       		.byte	-26
 591 0068 A7       		.byte	-89
 592 0069 F9       		.byte	-7
 593 006a 1B       		.byte	27
 594 006b 45       		.byte	69
 595 006c C6       		.byte	-58
 596 006d 98       		.byte	-104
 597 006e 7A       		.byte	122
 598 006f 24       		.byte	36
 599 0070 F8       		.byte	-8
 600 0071 A6       		.byte	-90
 601 0072 44       		.byte	68
 602 0073 1A       		.byte	26
 603 0074 99       		.byte	-103
 604 0075 C7       		.byte	-57
 605 0076 25       		.byte	37
 606 0077 7B       		.byte	123
 607 0078 3A       		.byte	58
 608 0079 64       		.byte	100
 609 007a 86       		.byte	-122
 610 007b D8       		.byte	-40
 611 007c 5B       		.byte	91
 612 007d 05       		.byte	5
 613 007e E7       		.byte	-25
 614 007f B9       		.byte	-71
 615 0080 8C       		.byte	-116
 616 0081 D2       		.byte	-46
 617 0082 30       		.byte	48
 618 0083 6E       		.byte	110
 619 0084 ED       		.byte	-19
 620 0085 B3       		.byte	-77
 621 0086 51       		.byte	81
 622 0087 0F       		.byte	15
 623 0088 4E       		.byte	78
 624 0089 10       		.byte	16
 625 008a F2       		.byte	-14
 626 008b AC       		.byte	-84
 627 008c 2F       		.byte	47
 628 008d 71       		.byte	113
 629 008e 93       		.byte	-109
 630 008f CD       		.byte	-51
 631 0090 11       		.byte	17
 632 0091 4F       		.byte	79
 633 0092 AD       		.byte	-83
 634 0093 F3       		.byte	-13
 635 0094 70       		.byte	112
 636 0095 2E       		.byte	46
 637 0096 CC       		.byte	-52
 638 0097 92       		.byte	-110
ARM GAS  C:\Users\RECEPC~1\AppData\Local\Temp\ccU7e2eq.s 			page 15


 639 0098 D3       		.byte	-45
 640 0099 8D       		.byte	-115
 641 009a 6F       		.byte	111
 642 009b 31       		.byte	49
 643 009c B2       		.byte	-78
 644 009d EC       		.byte	-20
 645 009e 0E       		.byte	14
 646 009f 50       		.byte	80
 647 00a0 AF       		.byte	-81
 648 00a1 F1       		.byte	-15
 649 00a2 13       		.byte	19
 650 00a3 4D       		.byte	77
 651 00a4 CE       		.byte	-50
 652 00a5 90       		.byte	-112
 653 00a6 72       		.byte	114
 654 00a7 2C       		.byte	44
 655 00a8 6D       		.byte	109
 656 00a9 33       		.byte	51
 657 00aa D1       		.byte	-47
 658 00ab 8F       		.byte	-113
 659 00ac 0C       		.byte	12
 660 00ad 52       		.byte	82
 661 00ae B0       		.byte	-80
 662 00af EE       		.byte	-18
 663 00b0 32       		.byte	50
 664 00b1 6C       		.byte	108
 665 00b2 8E       		.byte	-114
 666 00b3 D0       		.byte	-48
 667 00b4 53       		.byte	83
 668 00b5 0D       		.byte	13
 669 00b6 EF       		.byte	-17
 670 00b7 B1       		.byte	-79
 671 00b8 F0       		.byte	-16
 672 00b9 AE       		.byte	-82
 673 00ba 4C       		.byte	76
 674 00bb 12       		.byte	18
 675 00bc 91       		.byte	-111
 676 00bd CF       		.byte	-49
 677 00be 2D       		.byte	45
 678 00bf 73       		.byte	115
 679 00c0 CA       		.byte	-54
 680 00c1 94       		.byte	-108
 681 00c2 76       		.byte	118
 682 00c3 28       		.byte	40
 683 00c4 AB       		.byte	-85
 684 00c5 F5       		.byte	-11
 685 00c6 17       		.byte	23
 686 00c7 49       		.byte	73
 687 00c8 08       		.byte	8
 688 00c9 56       		.byte	86
 689 00ca B4       		.byte	-76
 690 00cb EA       		.byte	-22
 691 00cc 69       		.byte	105
 692 00cd 37       		.byte	55
 693 00ce D5       		.byte	-43
 694 00cf 8B       		.byte	-117
 695 00d0 57       		.byte	87
ARM GAS  C:\Users\RECEPC~1\AppData\Local\Temp\ccU7e2eq.s 			page 16


 696 00d1 09       		.byte	9
 697 00d2 EB       		.byte	-21
 698 00d3 B5       		.byte	-75
 699 00d4 36       		.byte	54
 700 00d5 68       		.byte	104
 701 00d6 8A       		.byte	-118
 702 00d7 D4       		.byte	-44
 703 00d8 95       		.byte	-107
 704 00d9 CB       		.byte	-53
 705 00da 29       		.byte	41
 706 00db 77       		.byte	119
 707 00dc F4       		.byte	-12
 708 00dd AA       		.byte	-86
 709 00de 48       		.byte	72
 710 00df 16       		.byte	22
 711 00e0 E9       		.byte	-23
 712 00e1 B7       		.byte	-73
 713 00e2 55       		.byte	85
 714 00e3 0B       		.byte	11
 715 00e4 88       		.byte	-120
 716 00e5 D6       		.byte	-42
 717 00e6 34       		.byte	52
 718 00e7 6A       		.byte	106
 719 00e8 2B       		.byte	43
 720 00e9 75       		.byte	117
 721 00ea 97       		.byte	-105
 722 00eb C9       		.byte	-55
 723 00ec 4A       		.byte	74
 724 00ed 14       		.byte	20
 725 00ee F6       		.byte	-10
 726 00ef A8       		.byte	-88
 727 00f0 74       		.byte	116
 728 00f1 2A       		.byte	42
 729 00f2 C8       		.byte	-56
 730 00f3 96       		.byte	-106
 731 00f4 15       		.byte	21
 732 00f5 4B       		.byte	75
 733 00f6 A9       		.byte	-87
 734 00f7 F7       		.byte	-9
 735 00f8 B6       		.byte	-74
 736 00f9 E8       		.byte	-24
 737 00fa 0A       		.byte	10
 738 00fb 54       		.byte	84
 739 00fc D7       		.byte	-41
 740 00fd 89       		.byte	-119
 741 00fe 6B       		.byte	107
 742 00ff 35       		.byte	53
 743              		.section	.text.verificar_check,"ax",%progbits
 744              		.align	2
 745              		.global	verificar_check
 746              		.thumb
 747              		.thumb_func
 748              		.type	verificar_check, %function
 749              	verificar_check:
 750              	.LFB64:
 152:.\main.c      **** 
 153:.\main.c      **** 
ARM GAS  C:\Users\RECEPC~1\AppData\Local\Temp\ccU7e2eq.s 			page 17


 154:.\main.c      **** /*
 155:.\main.c      **** ***************************************************************************************************
 156:.\main.c      **** *                             uint8 verificar_check(uint8 *datos, uint16 size)
 157:.\main.c      **** *
 158:.\main.c      **** * Description : calcula el checksum
 159:.\main.c      **** *               
 160:.\main.c      **** 
 161:.\main.c      **** ***************************************************************************************************
 162:.\main.c      **** */
 163:.\main.c      **** uint8 verificar_check(uint8 *datos, uint16 size){
 751              		.loc 1 163 0
 752              		.cfi_startproc
 753              		@ args = 0, pretend = 0, frame = 272
 754              		@ frame_needed = 1, uses_anonymous_args = 0
 755 0000 80B5     		push	{r7, lr}
 756              		.cfi_def_cfa_offset 8
 757              		.cfi_offset 7, -8
 758              		.cfi_offset 14, -4
 759 0002 C4B0     		sub	sp, sp, #272
 760              		.cfi_def_cfa_offset 280
 761 0004 00AF     		add	r7, sp, #0
 762              		.cfi_def_cfa_register 7
 763 0006 3B1D     		adds	r3, r7, #4
 764 0008 1860     		str	r0, [r3]
 765 000a 0A46     		mov	r2, r1
 766 000c BB1C     		adds	r3, r7, #2
 767 000e 1A80     		strh	r2, [r3]	@ movhi
 164:.\main.c      **** 	uint8 checksum,index;
 165:.\main.c      **** 	uint16 i;
 166:.\main.c      ****     uint8 table[256] = { 
 768              		.loc 1 166 0
 769 0010 07F10803 		add	r3, r7, #8
 770 0014 1A4A     		ldr	r2, .L12
 771 0016 1946     		mov	r1, r3
 772 0018 4FF48073 		mov	r3, #256
 773 001c 0846     		mov	r0, r1
 774 001e 1146     		mov	r1, r2
 775 0020 1A46     		mov	r2, r3
 776 0022 FFF7FEFF 		bl	memcpy
 167:.\main.c      ****     0, 94,188,226, 97, 63,221,131,194,156,126, 32,163,253, 31, 65,
 168:.\main.c      ****     157,195, 33,127,252,162, 64, 30, 95,  1,227,189, 62, 96,130,220,
 169:.\main.c      ****     35,125,159,193, 66, 28,254,160,225,191, 93,  3,128,222, 60, 98,
 170:.\main.c      ****     190,224,  2, 92,223,129, 99, 61,124, 34,192,158, 29, 67,161,255,
 171:.\main.c      ****     70, 24,250,164, 39,121,155,197,132,218, 56,102,229,187, 89,  7,
 172:.\main.c      ****     219,133,103, 57,186,228,  6, 88, 25, 71,165,251,120, 38,196,154,
 173:.\main.c      ****     101, 59,217,135,  4, 90,184,230,167,249, 27, 69,198,152,122, 36,
 174:.\main.c      ****     248,166, 68, 26,153,199, 37,123, 58,100,134,216, 91,  5,231,185,
 175:.\main.c      ****     140,210, 48,110,237,179, 81, 15, 78, 16,242,172, 47,113,147,205,
 176:.\main.c      ****     17, 79,173,243,112, 46,204,146,211,141,111, 49,178,236, 14, 80,
 177:.\main.c      ****     175,241, 19, 77,206,144,114, 44,109, 51,209,143, 12, 82,176,238,
 178:.\main.c      ****     50,108,142,208, 83, 13,239,177,240,174, 76, 18,145,207, 45,115,
 179:.\main.c      ****     202,148,118, 40,171,245, 23, 73,  8, 86,180,234,105, 55,213,139,
 180:.\main.c      ****     87,  9,235,181, 54,104,138,212,149,203, 41,119,244,170, 72, 22,
 181:.\main.c      ****     233,183, 85, 11,136,214, 52,106, 43,117,151,201, 74, 20,246,168,
 182:.\main.c      ****     116, 42,200,150, 21, 75,169,247,182,232, 10, 84,215,137,107, 53};	
 183:.\main.c      **** 	checksum=0;
 777              		.loc 1 183 0
ARM GAS  C:\Users\RECEPC~1\AppData\Local\Temp\ccU7e2eq.s 			page 18


 778 0026 0023     		movs	r3, #0
 779 0028 87F80F31 		strb	r3, [r7, #271]
 184:.\main.c      **** 	for(i=0;i<(size-1);i++){
 780              		.loc 1 184 0
 781 002c 0023     		movs	r3, #0
 782 002e A7F80C31 		strh	r3, [r7, #268]	@ movhi
 783 0032 16E0     		b	.L9
 784              	.L10:
 185:.\main.c      **** 		index = (uint8)(checksum ^ datos[i]);
 785              		.loc 1 185 0 discriminator 3
 786 0034 B7F80C31 		ldrh	r3, [r7, #268]
 787 0038 3A1D     		adds	r2, r7, #4
 788 003a 1268     		ldr	r2, [r2]
 789 003c 1344     		add	r3, r3, r2
 790 003e 1A78     		ldrb	r2, [r3]	@ zero_extendqisi2
 791 0040 97F80F31 		ldrb	r3, [r7, #271]
 792 0044 5340     		eors	r3, r3, r2
 793 0046 87F80B31 		strb	r3, [r7, #267]
 186:.\main.c      **** 		checksum = table[index];				
 794              		.loc 1 186 0 discriminator 3
 795 004a 97F80B31 		ldrb	r3, [r7, #267]	@ zero_extendqisi2
 796 004e 07F10802 		add	r2, r7, #8
 797 0052 D35C     		ldrb	r3, [r2, r3]
 798 0054 87F80F31 		strb	r3, [r7, #271]
 184:.\main.c      **** 	for(i=0;i<(size-1);i++){
 799              		.loc 1 184 0 discriminator 3
 800 0058 B7F80C31 		ldrh	r3, [r7, #268]
 801 005c 0133     		adds	r3, r3, #1
 802 005e A7F80C31 		strh	r3, [r7, #268]	@ movhi
 803              	.L9:
 184:.\main.c      **** 	for(i=0;i<(size-1);i++){
 804              		.loc 1 184 0 is_stmt 0 discriminator 1
 805 0062 B7F80C21 		ldrh	r2, [r7, #268]
 806 0066 BB1C     		adds	r3, r7, #2
 807 0068 1B88     		ldrh	r3, [r3]
 808 006a 013B     		subs	r3, r3, #1
 809 006c 9A42     		cmp	r2, r3
 810 006e E1DB     		blt	.L10
 187:.\main.c      **** 	}
 188:.\main.c      **** 	return checksum;
 811              		.loc 1 188 0 is_stmt 1
 812 0070 97F80F31 		ldrb	r3, [r7, #271]	@ zero_extendqisi2
 189:.\main.c      **** }
 813              		.loc 1 189 0
 814 0074 1846     		mov	r0, r3
 815 0076 07F58877 		add	r7, r7, #272
 816              		.cfi_def_cfa_offset 8
 817 007a BD46     		mov	sp, r7
 818              		.cfi_def_cfa_register 13
 819              		@ sp needed
 820 007c 80BD     		pop	{r7, pc}
 821              	.L13:
 822 007e 00BF     		.align	2
 823              	.L12:
 824 0080 00000000 		.word	.LC0
 825              		.cfi_endproc
 826              	.LFE64:
ARM GAS  C:\Users\RECEPC~1\AppData\Local\Temp\ccU7e2eq.s 			page 19


 827              		.size	verificar_check, .-verificar_check
 828              		.section	.text.error_op,"ax",%progbits
 829              		.align	2
 830              		.global	error_op
 831              		.thumb
 832              		.thumb_func
 833              		.type	error_op, %function
 834              	error_op:
 835              	.LFB65:
 190:.\main.c      **** 
 191:.\main.c      **** /*
 192:.\main.c      **** ***************************************************************************************************
 193:.\main.c      **** *                                         void error_op()
 194:.\main.c      **** *
 195:.\main.c      **** * Description : Muestra en la pantalla el mensaje de operación incorrecta y regresa al inicio del 
 196:.\main.c      **** *               
 197:.\main.c      **** *
 198:.\main.c      **** * Argument(s) : uint8 lcd, para elegir cual pantalla entra en esta función
 199:.\main.c      **** *
 200:.\main.c      **** * Return(s)   : none
 201:.\main.c      **** *
 202:.\main.c      **** * Caller(s)   : Desde cualquier momento de la operacion donde ocurra un error por parte del usuario
 203:.\main.c      **** *
 204:.\main.c      **** * Note(s)     : none.
 205:.\main.c      **** ***************************************************************************************************
 206:.\main.c      **** */
 207:.\main.c      **** void error_op(uint8 lcd, uint16 imagen){
 836              		.loc 1 207 0
 837              		.cfi_startproc
 838              		@ args = 0, pretend = 0, frame = 8
 839              		@ frame_needed = 1, uses_anonymous_args = 0
 840 0000 80B5     		push	{r7, lr}
 841              		.cfi_def_cfa_offset 8
 842              		.cfi_offset 7, -8
 843              		.cfi_offset 14, -4
 844 0002 82B0     		sub	sp, sp, #8
 845              		.cfi_def_cfa_offset 16
 846 0004 00AF     		add	r7, sp, #0
 847              		.cfi_def_cfa_register 7
 848 0006 0346     		mov	r3, r0
 849 0008 0A46     		mov	r2, r1
 850 000a FB71     		strb	r3, [r7, #7]
 851 000c 1346     		mov	r3, r2	@ movhi
 852 000e BB80     		strh	r3, [r7, #4]	@ movhi
 208:.\main.c      **** 	if(lcd== 1 || lcd == 3){
 853              		.loc 1 208 0
 854 0010 FB79     		ldrb	r3, [r7, #7]	@ zero_extendqisi2
 855 0012 012B     		cmp	r3, #1
 856 0014 02D0     		beq	.L15
 857              		.loc 1 208 0 is_stmt 0 discriminator 1
 858 0016 FB79     		ldrb	r3, [r7, #7]	@ zero_extendqisi2
 859 0018 032B     		cmp	r3, #3
 860 001a 12D1     		bne	.L16
 861              	.L15:
 209:.\main.c      **** 	   set_imagen(1,imagen);
 862              		.loc 1 209 0 is_stmt 1
 863 001c BB88     		ldrh	r3, [r7, #4]
ARM GAS  C:\Users\RECEPC~1\AppData\Local\Temp\ccU7e2eq.s 			page 20


 864 001e 0120     		movs	r0, #1
 865 0020 1946     		mov	r1, r3
 866 0022 FFF7FEFF 		bl	set_imagen
 210:.\main.c      **** 	   flujo_LCD1=100;
 867              		.loc 1 210 0
 868 0026 134B     		ldr	r3, .L19
 869 0028 6422     		movs	r2, #100
 870 002a 1A70     		strb	r2, [r3]
 211:.\main.c      **** 	   count_protector=1;
 871              		.loc 1 211 0
 872 002c 124B     		ldr	r3, .L19+4
 873 002e 0122     		movs	r2, #1
 874 0030 1A70     		strb	r2, [r3]
 212:.\main.c      ****        lado1.estado=libre;       
 875              		.loc 1 212 0
 876 0032 124B     		ldr	r3, .L19+8
 877 0034 0122     		movs	r2, #1
 878 0036 5A70     		strb	r2, [r3, #1]
 213:.\main.c      **** 	   isr_3_StartEx(animacion);  
 879              		.loc 1 213 0
 880 0038 1148     		ldr	r0, .L19+12
 881 003a FFF7FEFF 		bl	isr_3_StartEx
 214:.\main.c      **** 	   Timer_Animacion_Start();
 882              		.loc 1 214 0
 883 003e FFF7FEFF 		bl	Timer_Animacion_Start
 884              	.L16:
 215:.\main.c      **** 	}
 216:.\main.c      **** 	if(lcd== 2 || lcd == 4){
 885              		.loc 1 216 0
 886 0042 FB79     		ldrb	r3, [r7, #7]	@ zero_extendqisi2
 887 0044 022B     		cmp	r3, #2
 888 0046 02D0     		beq	.L17
 889              		.loc 1 216 0 is_stmt 0 discriminator 1
 890 0048 FB79     		ldrb	r3, [r7, #7]	@ zero_extendqisi2
 891 004a 042B     		cmp	r3, #4
 892 004c 0FD1     		bne	.L14
 893              	.L17:
 217:.\main.c      **** 	    set_imagen(2,imagen);
 894              		.loc 1 217 0 is_stmt 1
 895 004e BB88     		ldrh	r3, [r7, #4]
 896 0050 0220     		movs	r0, #2
 897 0052 1946     		mov	r1, r3
 898 0054 FFF7FEFF 		bl	set_imagen
 218:.\main.c      **** 	    flujo_LCD2=100;
 899              		.loc 1 218 0
 900 0058 0A4B     		ldr	r3, .L19+16
 901 005a 6422     		movs	r2, #100
 902 005c 1A70     		strb	r2, [r3]
 219:.\main.c      **** 		count_protector2=1;
 903              		.loc 1 219 0
 904 005e 0A4B     		ldr	r3, .L19+20
 905 0060 0122     		movs	r2, #1
 906 0062 1A70     		strb	r2, [r3]
 220:.\main.c      **** 	    isr_4_StartEx(animacion2);  
 907              		.loc 1 220 0
 908 0064 0948     		ldr	r0, .L19+24
 909 0066 FFF7FEFF 		bl	isr_4_StartEx
ARM GAS  C:\Users\RECEPC~1\AppData\Local\Temp\ccU7e2eq.s 			page 21


 221:.\main.c      **** 	    Timer_Animacion2_Start();	
 910              		.loc 1 221 0
 911 006a FFF7FEFF 		bl	Timer_Animacion2_Start
 912              	.L14:
 222:.\main.c      **** 	}
 223:.\main.c      **** }
 913              		.loc 1 223 0
 914 006e 0837     		adds	r7, r7, #8
 915              		.cfi_def_cfa_offset 8
 916 0070 BD46     		mov	sp, r7
 917              		.cfi_def_cfa_register 13
 918              		@ sp needed
 919 0072 80BD     		pop	{r7, pc}
 920              	.L20:
 921              		.align	2
 922              	.L19:
 923 0074 00000000 		.word	flujo_LCD1
 924 0078 00000000 		.word	count_protector
 925 007c 00000000 		.word	lado1
 926 0080 00000000 		.word	animacion
 927 0084 00000000 		.word	flujo_LCD2
 928 0088 00000000 		.word	count_protector2
 929 008c 00000000 		.word	animacion2
 930              		.cfi_endproc
 931              	.LFE65:
 932              		.size	error_op, .-error_op
 933              		.section	.text.init_surt,"ax",%progbits
 934              		.align	2
 935              		.global	init_surt
 936              		.thumb
 937              		.thumb_func
 938              		.type	init_surt, %function
 939              	init_surt:
 940              	.LFB66:
 224:.\main.c      **** 
 225:.\main.c      **** /*
 226:.\main.c      **** ***************************************************************************************************
 227:.\main.c      **** *                                         init_surt( void )
 228:.\main.c      **** *
 229:.\main.c      **** * Description : Busca las posiciones del surtidor y las graba en lado.lado1.dir y lado.lado2.dir
 230:.\main.c      **** *               
 231:.\main.c      **** *
 232:.\main.c      **** * Argument(s) : none
 233:.\main.c      **** *
 234:.\main.c      **** * Return(s)   : none
 235:.\main.c      **** *
 236:.\main.c      **** * Caller(s)   : main()
 237:.\main.c      **** *
 238:.\main.c      **** * Note(s)     : Falta generar codigo para los casos 1 y 2
 239:.\main.c      **** ***************************************************************************************************
 240:.\main.c      **** */
 241:.\main.c      **** void init_surt(void){
 941              		.loc 1 241 0
 942              		.cfi_startproc
 943              		@ args = 0, pretend = 0, frame = 8
 944              		@ frame_needed = 1, uses_anonymous_args = 0
 945 0000 80B5     		push	{r7, lr}
ARM GAS  C:\Users\RECEPC~1\AppData\Local\Temp\ccU7e2eq.s 			page 22


 946              		.cfi_def_cfa_offset 8
 947              		.cfi_offset 7, -8
 948              		.cfi_offset 14, -4
 949 0002 82B0     		sub	sp, sp, #8
 950              		.cfi_def_cfa_offset 16
 951 0004 00AF     		add	r7, sp, #0
 952              		.cfi_def_cfa_register 7
 242:.\main.c      **** 	uint8 estado, ok=0;
 953              		.loc 1 242 0
 954 0006 0023     		movs	r3, #0
 955 0008 FB71     		strb	r3, [r7, #7]
 243:.\main.c      **** 	while(ok<=1){
 956              		.loc 1 243 0
 957 000a 80E1     		b	.L22
 958              	.L51:
 244:.\main.c      **** 		ok=0;
 959              		.loc 1 244 0
 960 000c 0023     		movs	r3, #0
 961 000e FB71     		strb	r3, [r7, #7]
 245:.\main.c      **** 		if((lado1.dir==0xFF)||(lado2.dir==0xFF)){
 962              		.loc 1 245 0
 963 0010 C24B     		ldr	r3, .L52
 964 0012 1B78     		ldrb	r3, [r3]
 965 0014 DBB2     		uxtb	r3, r3
 966 0016 FF2B     		cmp	r3, #255
 967 0018 04D0     		beq	.L23
 968              		.loc 1 245 0 is_stmt 0 discriminator 1
 969 001a C14B     		ldr	r3, .L52+4
 970 001c 1B78     		ldrb	r3, [r3]
 971 001e DBB2     		uxtb	r3, r3
 972 0020 FF2B     		cmp	r3, #255
 973 0022 58D1     		bne	.L24
 974              	.L23:
 246:.\main.c      **** 			while(ver_pos()==0){};
 975              		.loc 1 246 0 is_stmt 1
 976 0024 00BF     		nop
 977              	.L25:
 978              		.loc 1 246 0 is_stmt 0 discriminator 1
 979 0026 FFF7FEFF 		bl	ver_pos
 980 002a 0346     		mov	r3, r0
 981 002c 002B     		cmp	r3, #0
 982 002e FAD0     		beq	.L25
 247:.\main.c      **** 		    while(totales(lado1.dir, lado1.mangueras)==0);			
 983              		.loc 1 247 0 is_stmt 1
 984 0030 00BF     		nop
 985              	.L26:
 986              		.loc 1 247 0 is_stmt 0 discriminator 1
 987 0032 BA4B     		ldr	r3, .L52
 988 0034 1B78     		ldrb	r3, [r3]
 989 0036 DAB2     		uxtb	r2, r3
 990 0038 B84B     		ldr	r3, .L52
 991 003a 93F85C30 		ldrb	r3, [r3, #92]
 992 003e DBB2     		uxtb	r3, r3
 993 0040 1046     		mov	r0, r2
 994 0042 1946     		mov	r1, r3
 995 0044 FFF7FEFF 		bl	totales
 996 0048 0346     		mov	r3, r0
ARM GAS  C:\Users\RECEPC~1\AppData\Local\Temp\ccU7e2eq.s 			page 23


 997 004a 002B     		cmp	r3, #0
 998 004c F1D0     		beq	.L26
 248:.\main.c      **** 			CyDelay(50);	
 999              		.loc 1 248 0 is_stmt 1
 1000 004e 3220     		movs	r0, #50
 1001 0050 FFF7FEFF 		bl	CyDelay
 249:.\main.c      **** 			while(totales(lado2.dir, lado2.mangueras)==0);
 1002              		.loc 1 249 0
 1003 0054 00BF     		nop
 1004              	.L27:
 1005              		.loc 1 249 0 is_stmt 0 discriminator 1
 1006 0056 B24B     		ldr	r3, .L52+4
 1007 0058 1B78     		ldrb	r3, [r3]
 1008 005a DAB2     		uxtb	r2, r3
 1009 005c B04B     		ldr	r3, .L52+4
 1010 005e 93F85C30 		ldrb	r3, [r3, #92]
 1011 0062 DBB2     		uxtb	r3, r3
 1012 0064 1046     		mov	r0, r2
 1013 0066 1946     		mov	r1, r3
 1014 0068 FFF7FEFF 		bl	totales
 1015 006c 0346     		mov	r3, r0
 1016 006e 002B     		cmp	r3, #0
 1017 0070 F1D0     		beq	.L27
 250:.\main.c      **** 			CyDelay(50);	
 1018              		.loc 1 250 0 is_stmt 1
 1019 0072 3220     		movs	r0, #50
 1020 0074 FFF7FEFF 		bl	CyDelay
 251:.\main.c      **** 			if(EEPROM_WriteByte(lado1.dir, 26)==CYRET_SUCCESS){
 1021              		.loc 1 251 0
 1022 0078 A84B     		ldr	r3, .L52
 1023 007a 1B78     		ldrb	r3, [r3]
 1024 007c DBB2     		uxtb	r3, r3
 1025 007e 1846     		mov	r0, r3
 1026 0080 1A21     		movs	r1, #26
 1027 0082 FFF7FEFF 		bl	EEPROM_WriteByte
 1028 0086 0346     		mov	r3, r0
 1029 0088 002B     		cmp	r3, #0
 1030 008a 04D1     		bne	.L28
 252:.\main.c      **** 				set_imagen(1,60);								
 1031              		.loc 1 252 0
 1032 008c 0120     		movs	r0, #1
 1033 008e 3C21     		movs	r1, #60
 1034 0090 FFF7FEFF 		bl	set_imagen
 1035 0094 03E0     		b	.L29
 1036              	.L28:
 253:.\main.c      **** 			}
 254:.\main.c      **** 			else{
 255:.\main.c      **** 				set_imagen(1,85);
 1037              		.loc 1 255 0
 1038 0096 0120     		movs	r0, #1
 1039 0098 5521     		movs	r1, #85
 1040 009a FFF7FEFF 		bl	set_imagen
 1041              	.L29:
 256:.\main.c      **** 			}
 257:.\main.c      **** 			if(EEPROM_WriteByte(lado2.dir, 28)==CYRET_SUCCESS){
 1042              		.loc 1 257 0
 1043 009e A04B     		ldr	r3, .L52+4
ARM GAS  C:\Users\RECEPC~1\AppData\Local\Temp\ccU7e2eq.s 			page 24


 1044 00a0 1B78     		ldrb	r3, [r3]
 1045 00a2 DBB2     		uxtb	r3, r3
 1046 00a4 1846     		mov	r0, r3
 1047 00a6 1C21     		movs	r1, #28
 1048 00a8 FFF7FEFF 		bl	EEPROM_WriteByte
 1049 00ac 0346     		mov	r3, r0
 1050 00ae 002B     		cmp	r3, #0
 1051 00b0 04D1     		bne	.L30
 258:.\main.c      **** 				set_imagen(2,60);								
 1052              		.loc 1 258 0
 1053 00b2 0220     		movs	r0, #2
 1054 00b4 3C21     		movs	r1, #60
 1055 00b6 FFF7FEFF 		bl	set_imagen
 1056 00ba 03E0     		b	.L31
 1057              	.L30:
 259:.\main.c      **** 			}
 260:.\main.c      **** 			else{
 261:.\main.c      **** 				set_imagen(2,85);
 1058              		.loc 1 261 0
 1059 00bc 0220     		movs	r0, #2
 1060 00be 5521     		movs	r1, #85
 1061 00c0 FFF7FEFF 		bl	set_imagen
 1062              	.L31:
 262:.\main.c      **** 			}
 263:.\main.c      **** 			flujo_LCD2=0;
 1063              		.loc 1 263 0
 1064 00c4 974B     		ldr	r3, .L52+8
 1065 00c6 0022     		movs	r2, #0
 1066 00c8 1A70     		strb	r2, [r3]
 264:.\main.c      **** 			flujo_LCD1=0;			
 1067              		.loc 1 264 0
 1068 00ca 974B     		ldr	r3, .L52+12
 1069 00cc 0022     		movs	r2, #0
 1070 00ce 1A70     		strb	r2, [r3]
 265:.\main.c      **** 			ok=1;	
 1071              		.loc 1 265 0
 1072 00d0 0123     		movs	r3, #1
 1073 00d2 FB71     		strb	r3, [r7, #7]
 1074 00d4 1BE1     		b	.L22
 1075              	.L24:
 266:.\main.c      **** 		}
 267:.\main.c      **** 		else{
 268:.\main.c      **** 			estado=get_estado(lado1.dir);										
 1076              		.loc 1 268 0
 1077 00d6 914B     		ldr	r3, .L52
 1078 00d8 1B78     		ldrb	r3, [r3]
 1079 00da DBB2     		uxtb	r3, r3
 1080 00dc 1846     		mov	r0, r3
 1081 00de FFF7FEFF 		bl	get_estado
 1082 00e2 0346     		mov	r3, r0
 1083 00e4 BB71     		strb	r3, [r7, #6]
 269:.\main.c      **** 			switch(estado){
 1084              		.loc 1 269 0
 1085 00e6 BB79     		ldrb	r3, [r7, #6]	@ zero_extendqisi2
 1086 00e8 0C2B     		cmp	r3, #12
 1087 00ea 7ED8     		bhi	.L32
 1088 00ec 01A2     		adr	r2, .L34
ARM GAS  C:\Users\RECEPC~1\AppData\Local\Temp\ccU7e2eq.s 			page 25


 1089 00ee 52F823F0 		ldr	pc, [r2, r3, lsl #2]
 1090 00f2 00BF     		.p2align 2
 1091              	.L34:
 1092 00f4 29010000 		.word	.L33+1
 1093 00f8 EB010000 		.word	.L32+1
 1094 00fc EB010000 		.word	.L32+1
 1095 0100 EB010000 		.word	.L32+1
 1096 0104 EB010000 		.word	.L32+1
 1097 0108 EB010000 		.word	.L32+1
 1098 010c 31010000 		.word	.L35+1
 1099 0110 6D010000 		.word	.L36+1
 1100 0114 97010000 		.word	.L37+1
 1101 0118 AB010000 		.word	.L38+1
 1102 011c C7010000 		.word	.L39+1
 1103 0120 B9010000 		.word	.L40+1
 1104 0124 D5010000 		.word	.L41+1
 1105              		.p2align 1
 1106              	.L33:
 270:.\main.c      **** 		         case 0:                     
 271:.\main.c      **** 					lado1.dir=0xFF;
 1107              		.loc 1 271 0
 1108 0128 7C4B     		ldr	r3, .L52
 1109 012a FF22     		movs	r2, #255
 1110 012c 1A70     		strb	r2, [r3]
 272:.\main.c      **** 				 break;	
 1111              		.loc 1 272 0
 1112 012e 5CE0     		b	.L32
 1113              	.L35:
 273:.\main.c      **** 			
 274:.\main.c      **** 				case 0x06:
 275:.\main.c      **** 					venta(lado1.dir);
 1114              		.loc 1 275 0
 1115 0130 7A4B     		ldr	r3, .L52
 1116 0132 1B78     		ldrb	r3, [r3]
 1117 0134 DBB2     		uxtb	r3, r3
 1118 0136 1846     		mov	r0, r3
 1119 0138 FFF7FEFF 		bl	venta
 276:.\main.c      **** 					CyDelay(50);	
 1120              		.loc 1 276 0
 1121 013c 3220     		movs	r0, #50
 1122 013e FFF7FEFF 		bl	CyDelay
 277:.\main.c      **** 					totales(lado1.dir, lado1.mangueras);
 1123              		.loc 1 277 0
 1124 0142 764B     		ldr	r3, .L52
 1125 0144 1B78     		ldrb	r3, [r3]
 1126 0146 DAB2     		uxtb	r2, r3
 1127 0148 744B     		ldr	r3, .L52
 1128 014a 93F85C30 		ldrb	r3, [r3, #92]
 1129 014e DBB2     		uxtb	r3, r3
 1130 0150 1046     		mov	r0, r2
 1131 0152 1946     		mov	r1, r3
 1132 0154 FFF7FEFF 		bl	totales
 278:.\main.c      **** 					CyDelay(50);	
 1133              		.loc 1 278 0
 1134 0158 3220     		movs	r0, #50
 1135 015a FFF7FEFF 		bl	CyDelay
 279:.\main.c      **** 					flujo_LCD1=0;					
ARM GAS  C:\Users\RECEPC~1\AppData\Local\Temp\ccU7e2eq.s 			page 26


 1136              		.loc 1 279 0
 1137 015e 724B     		ldr	r3, .L52+12
 1138 0160 0022     		movs	r2, #0
 1139 0162 1A70     		strb	r2, [r3]
 280:.\main.c      **** 					ok++;
 1140              		.loc 1 280 0
 1141 0164 FB79     		ldrb	r3, [r7, #7]	@ zero_extendqisi2
 1142 0166 0133     		adds	r3, r3, #1
 1143 0168 FB71     		strb	r3, [r7, #7]
 281:.\main.c      **** 				break;
 1144              		.loc 1 281 0
 1145 016a 3EE0     		b	.L32
 1146              	.L36:
 282:.\main.c      **** 					
 283:.\main.c      **** 				case 0x07:	
 284:.\main.c      **** 					totales(lado1.dir, lado1.mangueras);
 1147              		.loc 1 284 0
 1148 016c 6B4B     		ldr	r3, .L52
 1149 016e 1B78     		ldrb	r3, [r3]
 1150 0170 DAB2     		uxtb	r2, r3
 1151 0172 6A4B     		ldr	r3, .L52
 1152 0174 93F85C30 		ldrb	r3, [r3, #92]
 1153 0178 DBB2     		uxtb	r3, r3
 1154 017a 1046     		mov	r0, r2
 1155 017c 1946     		mov	r1, r3
 1156 017e FFF7FEFF 		bl	totales
 285:.\main.c      **** 					CyDelay(50);	
 1157              		.loc 1 285 0
 1158 0182 3220     		movs	r0, #50
 1159 0184 FFF7FEFF 		bl	CyDelay
 286:.\main.c      **** 					flujo_LCD1=0;					
 1160              		.loc 1 286 0
 1161 0188 674B     		ldr	r3, .L52+12
 1162 018a 0022     		movs	r2, #0
 1163 018c 1A70     		strb	r2, [r3]
 287:.\main.c      **** 					ok++;
 1164              		.loc 1 287 0
 1165 018e FB79     		ldrb	r3, [r7, #7]	@ zero_extendqisi2
 1166 0190 0133     		adds	r3, r3, #1
 1167 0192 FB71     		strb	r3, [r7, #7]
 288:.\main.c      **** 				break;
 1168              		.loc 1 288 0
 1169 0194 29E0     		b	.L32
 1170              	.L37:
 289:.\main.c      **** 				
 290:.\main.c      **** 				case 0x08:
 291:.\main.c      **** 			     	flujo_LCD1=8;
 1171              		.loc 1 291 0
 1172 0196 644B     		ldr	r3, .L52+12
 1173 0198 0822     		movs	r2, #8
 1174 019a 1A70     		strb	r2, [r3]
 292:.\main.c      ****                     seleccion_pos = 1;
 1175              		.loc 1 292 0
 1176 019c 634B     		ldr	r3, .L52+16
 1177 019e 0122     		movs	r2, #1
 1178 01a0 1A70     		strb	r2, [r3]
 293:.\main.c      **** 					ok++;
ARM GAS  C:\Users\RECEPC~1\AppData\Local\Temp\ccU7e2eq.s 			page 27


 1179              		.loc 1 293 0
 1180 01a2 FB79     		ldrb	r3, [r7, #7]	@ zero_extendqisi2
 1181 01a4 0133     		adds	r3, r3, #1
 1182 01a6 FB71     		strb	r3, [r7, #7]
 294:.\main.c      **** 				break;
 1183              		.loc 1 294 0
 1184 01a8 1FE0     		b	.L32
 1185              	.L38:
 295:.\main.c      **** 					
 296:.\main.c      **** 				case 0x09:
 297:.\main.c      **** 			     	flujo_LCD1=11;
 1186              		.loc 1 297 0
 1187 01aa 5F4B     		ldr	r3, .L52+12
 1188 01ac 0B22     		movs	r2, #11
 1189 01ae 1A70     		strb	r2, [r3]
 298:.\main.c      **** 					ok++;
 1190              		.loc 1 298 0
 1191 01b0 FB79     		ldrb	r3, [r7, #7]	@ zero_extendqisi2
 1192 01b2 0133     		adds	r3, r3, #1
 1193 01b4 FB71     		strb	r3, [r7, #7]
 299:.\main.c      **** 				break;
 1194              		.loc 1 299 0
 1195 01b6 18E0     		b	.L32
 1196              	.L40:
 300:.\main.c      **** 				
 301:.\main.c      **** 		         case 0x0B:                     //Termino venta
 302:.\main.c      **** 					flujo_LCD1=12;
 1197              		.loc 1 302 0
 1198 01b8 5B4B     		ldr	r3, .L52+12
 1199 01ba 0C22     		movs	r2, #12
 1200 01bc 1A70     		strb	r2, [r3]
 303:.\main.c      **** 					ok++;
 1201              		.loc 1 303 0
 1202 01be FB79     		ldrb	r3, [r7, #7]	@ zero_extendqisi2
 1203 01c0 0133     		adds	r3, r3, #1
 1204 01c2 FB71     		strb	r3, [r7, #7]
 304:.\main.c      **** 				 break;	
 1205              		.loc 1 304 0
 1206 01c4 11E0     		b	.L32
 1207              	.L39:
 305:.\main.c      **** 					
 306:.\main.c      **** 		         case 0x0A:						//Termino venta
 307:.\main.c      **** 					flujo_LCD1=12;
 1208              		.loc 1 307 0
 1209 01c6 584B     		ldr	r3, .L52+12
 1210 01c8 0C22     		movs	r2, #12
 1211 01ca 1A70     		strb	r2, [r3]
 308:.\main.c      **** 					ok++;
 1212              		.loc 1 308 0
 1213 01cc FB79     		ldrb	r3, [r7, #7]	@ zero_extendqisi2
 1214 01ce 0133     		adds	r3, r3, #1
 1215 01d0 FB71     		strb	r3, [r7, #7]
 309:.\main.c      **** 				 break;
 1216              		.loc 1 309 0
 1217 01d2 0AE0     		b	.L32
 1218              	.L41:
 310:.\main.c      **** 					
ARM GAS  C:\Users\RECEPC~1\AppData\Local\Temp\ccU7e2eq.s 			page 28


 311:.\main.c      **** 		         case 0x0C:						//Bloqueado por surtiendo al iniciar
 312:.\main.c      **** 			     	flujo_LCD1=11;
 1219              		.loc 1 312 0
 1220 01d4 544B     		ldr	r3, .L52+12
 1221 01d6 0B22     		movs	r2, #11
 1222 01d8 1A70     		strb	r2, [r3]
 313:.\main.c      **** 				 	set_imagen(1,8);
 1223              		.loc 1 313 0
 1224 01da 0120     		movs	r0, #1
 1225 01dc 0821     		movs	r1, #8
 1226 01de FFF7FEFF 		bl	set_imagen
 314:.\main.c      **** 					ok++;
 1227              		.loc 1 314 0
 1228 01e2 FB79     		ldrb	r3, [r7, #7]	@ zero_extendqisi2
 1229 01e4 0133     		adds	r3, r3, #1
 1230 01e6 FB71     		strb	r3, [r7, #7]
 315:.\main.c      **** 				 break;					
 1231              		.loc 1 315 0
 1232 01e8 00BF     		nop
 1233              	.L32:
 316:.\main.c      **** 					
 317:.\main.c      **** 			}
 318:.\main.c      **** 			estado=get_estado(lado2.dir);										
 1234              		.loc 1 318 0
 1235 01ea 4D4B     		ldr	r3, .L52+4
 1236 01ec 1B78     		ldrb	r3, [r3]
 1237 01ee DBB2     		uxtb	r3, r3
 1238 01f0 1846     		mov	r0, r3
 1239 01f2 FFF7FEFF 		bl	get_estado
 1240 01f6 0346     		mov	r3, r0
 1241 01f8 BB71     		strb	r3, [r7, #6]
 319:.\main.c      **** 			switch(estado){
 1242              		.loc 1 319 0
 1243 01fa BB79     		ldrb	r3, [r7, #6]	@ zero_extendqisi2
 1244 01fc 0C2B     		cmp	r3, #12
 1245 01fe 00F28680 		bhi	.L22
 1246 0202 01A2     		adr	r2, .L43
 1247 0204 52F823F0 		ldr	pc, [r2, r3, lsl #2]
 1248              		.p2align 2
 1249              	.L43:
 1250 0208 3D020000 		.word	.L42+1
 1251 020c 0F030000 		.word	.L22+1
 1252 0210 0F030000 		.word	.L22+1
 1253 0214 0F030000 		.word	.L22+1
 1254 0218 0F030000 		.word	.L22+1
 1255 021c 0F030000 		.word	.L22+1
 1256 0220 45020000 		.word	.L44+1
 1257 0224 81020000 		.word	.L45+1
 1258 0228 AB020000 		.word	.L46+1
 1259 022c C7020000 		.word	.L47+1
 1260 0230 EB020000 		.word	.L48+1
 1261 0234 DD020000 		.word	.L49+1
 1262 0238 F9020000 		.word	.L50+1
 1263              		.p2align 1
 1264              	.L42:
 320:.\main.c      **** 		         case 0:                     
 321:.\main.c      **** 					lado2.dir=0xFF;
ARM GAS  C:\Users\RECEPC~1\AppData\Local\Temp\ccU7e2eq.s 			page 29


 1265              		.loc 1 321 0
 1266 023c 384B     		ldr	r3, .L52+4
 1267 023e FF22     		movs	r2, #255
 1268 0240 1A70     		strb	r2, [r3]
 322:.\main.c      **** 				 break;	
 1269              		.loc 1 322 0
 1270 0242 64E0     		b	.L22
 1271              	.L44:
 323:.\main.c      **** 			
 324:.\main.c      **** 				case 0x06:
 325:.\main.c      **** 					venta(lado2.dir);
 1272              		.loc 1 325 0
 1273 0244 364B     		ldr	r3, .L52+4
 1274 0246 1B78     		ldrb	r3, [r3]
 1275 0248 DBB2     		uxtb	r3, r3
 1276 024a 1846     		mov	r0, r3
 1277 024c FFF7FEFF 		bl	venta
 326:.\main.c      **** 					CyDelay(50);		
 1278              		.loc 1 326 0
 1279 0250 3220     		movs	r0, #50
 1280 0252 FFF7FEFF 		bl	CyDelay
 327:.\main.c      **** 					totales(lado2.dir, lado2.mangueras);
 1281              		.loc 1 327 0
 1282 0256 324B     		ldr	r3, .L52+4
 1283 0258 1B78     		ldrb	r3, [r3]
 1284 025a DAB2     		uxtb	r2, r3
 1285 025c 304B     		ldr	r3, .L52+4
 1286 025e 93F85C30 		ldrb	r3, [r3, #92]
 1287 0262 DBB2     		uxtb	r3, r3
 1288 0264 1046     		mov	r0, r2
 1289 0266 1946     		mov	r1, r3
 1290 0268 FFF7FEFF 		bl	totales
 328:.\main.c      **** 					CyDelay(50);	
 1291              		.loc 1 328 0
 1292 026c 3220     		movs	r0, #50
 1293 026e FFF7FEFF 		bl	CyDelay
 329:.\main.c      **** 					flujo_LCD2=0;				
 1294              		.loc 1 329 0
 1295 0272 2C4B     		ldr	r3, .L52+8
 1296 0274 0022     		movs	r2, #0
 1297 0276 1A70     		strb	r2, [r3]
 330:.\main.c      **** 					ok++;
 1298              		.loc 1 330 0
 1299 0278 FB79     		ldrb	r3, [r7, #7]	@ zero_extendqisi2
 1300 027a 0133     		adds	r3, r3, #1
 1301 027c FB71     		strb	r3, [r7, #7]
 331:.\main.c      **** 				break;
 1302              		.loc 1 331 0
 1303 027e 46E0     		b	.L22
 1304              	.L45:
 332:.\main.c      **** 					
 333:.\main.c      **** 				case 0x07:	
 334:.\main.c      **** 					totales(lado2.dir, lado2.mangueras);
 1305              		.loc 1 334 0
 1306 0280 274B     		ldr	r3, .L52+4
 1307 0282 1B78     		ldrb	r3, [r3]
 1308 0284 DAB2     		uxtb	r2, r3
ARM GAS  C:\Users\RECEPC~1\AppData\Local\Temp\ccU7e2eq.s 			page 30


 1309 0286 264B     		ldr	r3, .L52+4
 1310 0288 93F85C30 		ldrb	r3, [r3, #92]
 1311 028c DBB2     		uxtb	r3, r3
 1312 028e 1046     		mov	r0, r2
 1313 0290 1946     		mov	r1, r3
 1314 0292 FFF7FEFF 		bl	totales
 335:.\main.c      **** 					CyDelay(50);	
 1315              		.loc 1 335 0
 1316 0296 3220     		movs	r0, #50
 1317 0298 FFF7FEFF 		bl	CyDelay
 336:.\main.c      **** 					flujo_LCD2=0;					
 1318              		.loc 1 336 0
 1319 029c 214B     		ldr	r3, .L52+8
 1320 029e 0022     		movs	r2, #0
 1321 02a0 1A70     		strb	r2, [r3]
 337:.\main.c      **** 					ok++;
 1322              		.loc 1 337 0
 1323 02a2 FB79     		ldrb	r3, [r7, #7]	@ zero_extendqisi2
 1324 02a4 0133     		adds	r3, r3, #1
 1325 02a6 FB71     		strb	r3, [r7, #7]
 338:.\main.c      **** 				break;
 1326              		.loc 1 338 0
 1327 02a8 31E0     		b	.L22
 1328              	.L46:
 339:.\main.c      **** 				
 340:.\main.c      **** 				case 0x08:
 341:.\main.c      **** 			     	flujo_LCD2=8;
 1329              		.loc 1 341 0
 1330 02aa 1E4B     		ldr	r3, .L52+8
 1331 02ac 0822     		movs	r2, #8
 1332 02ae 1A70     		strb	r2, [r3]
 342:.\main.c      ****                     seleccion_pos =2;
 1333              		.loc 1 342 0
 1334 02b0 1E4B     		ldr	r3, .L52+16
 1335 02b2 0222     		movs	r2, #2
 1336 02b4 1A70     		strb	r2, [r3]
 343:.\main.c      **** 				 	set_imagen(2,8);
 1337              		.loc 1 343 0
 1338 02b6 0220     		movs	r0, #2
 1339 02b8 0821     		movs	r1, #8
 1340 02ba FFF7FEFF 		bl	set_imagen
 344:.\main.c      **** 					ok++;
 1341              		.loc 1 344 0
 1342 02be FB79     		ldrb	r3, [r7, #7]	@ zero_extendqisi2
 1343 02c0 0133     		adds	r3, r3, #1
 1344 02c2 FB71     		strb	r3, [r7, #7]
 345:.\main.c      **** 				break;
 1345              		.loc 1 345 0
 1346 02c4 23E0     		b	.L22
 1347              	.L47:
 346:.\main.c      **** 					
 347:.\main.c      **** 				case 0x09:
 348:.\main.c      **** 			     	flujo_LCD2=11;
 1348              		.loc 1 348 0
 1349 02c6 174B     		ldr	r3, .L52+8
 1350 02c8 0B22     		movs	r2, #11
 1351 02ca 1A70     		strb	r2, [r3]
ARM GAS  C:\Users\RECEPC~1\AppData\Local\Temp\ccU7e2eq.s 			page 31


 349:.\main.c      **** 				 	set_imagen(2,8);
 1352              		.loc 1 349 0
 1353 02cc 0220     		movs	r0, #2
 1354 02ce 0821     		movs	r1, #8
 1355 02d0 FFF7FEFF 		bl	set_imagen
 350:.\main.c      **** 					ok++;
 1356              		.loc 1 350 0
 1357 02d4 FB79     		ldrb	r3, [r7, #7]	@ zero_extendqisi2
 1358 02d6 0133     		adds	r3, r3, #1
 1359 02d8 FB71     		strb	r3, [r7, #7]
 351:.\main.c      **** 				break;
 1360              		.loc 1 351 0
 1361 02da 18E0     		b	.L22
 1362              	.L49:
 352:.\main.c      **** 				
 353:.\main.c      **** 		         case 0x0B:                     //Termino venta
 354:.\main.c      **** 					flujo_LCD2=12;
 1363              		.loc 1 354 0
 1364 02dc 114B     		ldr	r3, .L52+8
 1365 02de 0C22     		movs	r2, #12
 1366 02e0 1A70     		strb	r2, [r3]
 355:.\main.c      **** 					ok++;
 1367              		.loc 1 355 0
 1368 02e2 FB79     		ldrb	r3, [r7, #7]	@ zero_extendqisi2
 1369 02e4 0133     		adds	r3, r3, #1
 1370 02e6 FB71     		strb	r3, [r7, #7]
 356:.\main.c      **** 				 break;	
 1371              		.loc 1 356 0
 1372 02e8 11E0     		b	.L22
 1373              	.L48:
 357:.\main.c      **** 					
 358:.\main.c      **** 		         case 0x0A:						//Termino venta
 359:.\main.c      **** 					flujo_LCD2=12;
 1374              		.loc 1 359 0
 1375 02ea 0E4B     		ldr	r3, .L52+8
 1376 02ec 0C22     		movs	r2, #12
 1377 02ee 1A70     		strb	r2, [r3]
 360:.\main.c      **** 					ok++;
 1378              		.loc 1 360 0
 1379 02f0 FB79     		ldrb	r3, [r7, #7]	@ zero_extendqisi2
 1380 02f2 0133     		adds	r3, r3, #1
 1381 02f4 FB71     		strb	r3, [r7, #7]
 361:.\main.c      **** 				 break;
 1382              		.loc 1 361 0
 1383 02f6 0AE0     		b	.L22
 1384              	.L50:
 362:.\main.c      **** 					
 363:.\main.c      **** 		         case 0x0C:						//Bloqueado por surtiendo al iniciar
 364:.\main.c      **** 			     	flujo_LCD2=11;
 1385              		.loc 1 364 0
 1386 02f8 0A4B     		ldr	r3, .L52+8
 1387 02fa 0B22     		movs	r2, #11
 1388 02fc 1A70     		strb	r2, [r3]
 365:.\main.c      **** 				 	set_imagen(2,8);
 1389              		.loc 1 365 0
 1390 02fe 0220     		movs	r0, #2
 1391 0300 0821     		movs	r1, #8
ARM GAS  C:\Users\RECEPC~1\AppData\Local\Temp\ccU7e2eq.s 			page 32


 1392 0302 FFF7FEFF 		bl	set_imagen
 366:.\main.c      **** 					ok++;
 1393              		.loc 1 366 0
 1394 0306 FB79     		ldrb	r3, [r7, #7]	@ zero_extendqisi2
 1395 0308 0133     		adds	r3, r3, #1
 1396 030a FB71     		strb	r3, [r7, #7]
 367:.\main.c      **** 				 break;										
 1397              		.loc 1 367 0
 1398 030c 00BF     		nop
 1399              	.L22:
 243:.\main.c      **** 		ok=0;
 1400              		.loc 1 243 0
 1401 030e FB79     		ldrb	r3, [r7, #7]	@ zero_extendqisi2
 1402 0310 012B     		cmp	r3, #1
 1403 0312 7FF67BAE 		bls	.L51
 368:.\main.c      **** 			}			
 369:.\main.c      **** 		}
 370:.\main.c      **** 	}
 371:.\main.c      **** }
 1404              		.loc 1 371 0
 1405 0316 0837     		adds	r7, r7, #8
 1406              		.cfi_def_cfa_offset 8
 1407 0318 BD46     		mov	sp, r7
 1408              		.cfi_def_cfa_register 13
 1409              		@ sp needed
 1410 031a 80BD     		pop	{r7, pc}
 1411              	.L53:
 1412              		.align	2
 1413              	.L52:
 1414 031c 00000000 		.word	lado1
 1415 0320 00000000 		.word	lado2
 1416 0324 00000000 		.word	flujo_LCD2
 1417 0328 00000000 		.word	flujo_LCD1
 1418 032c 00000000 		.word	seleccion_pos
 1419              		.cfi_endproc
 1420              	.LFE66:
 1421              		.size	init_surt, .-init_surt
 1422              		.section	.text.polling_rf,"ax",%progbits
 1423              		.align	2
 1424              		.global	polling_rf
 1425              		.thumb
 1426              		.thumb_func
 1427              		.type	polling_rf, %function
 1428              	polling_rf:
 1429              	.LFB67:
 372:.\main.c      **** 
 373:.\main.c      **** /*
 374:.\main.c      **** ***************************************************************************************************
 375:.\main.c      **** *                                         uint8 polling_rf(void)
 376:.\main.c      **** *
 377:.\main.c      **** * Description : 
 378:.\main.c      **** *               
 379:.\main.c      **** *
 380:.\main.c      **** * Argument(s) : none
 381:.\main.c      **** *
 382:.\main.c      **** * Return(s)   : none
 383:.\main.c      **** *
ARM GAS  C:\Users\RECEPC~1\AppData\Local\Temp\ccU7e2eq.s 			page 33


 384:.\main.c      **** * Caller(s)   : 
 385:.\main.c      **** *
 386:.\main.c      **** * Note(s)     : none.
 387:.\main.c      **** ***************************************************************************************************
 388:.\main.c      **** */
 389:.\main.c      **** void polling_rf(void){
 1430              		.loc 1 389 0
 1431              		.cfi_startproc
 1432              		@ args = 0, pretend = 0, frame = 24
 1433              		@ frame_needed = 1, uses_anonymous_args = 0
 1434 0000 80B5     		push	{r7, lr}
 1435              		.cfi_def_cfa_offset 8
 1436              		.cfi_offset 7, -8
 1437              		.cfi_offset 14, -4
 1438 0002 86B0     		sub	sp, sp, #24
 1439              		.cfi_def_cfa_offset 32
 1440 0004 00AF     		add	r7, sp, #0
 1441              		.cfi_def_cfa_register 7
 390:.\main.c      **** 	uint16 status1, status2,size,x,t_preset;
 391:.\main.c      **** 	uint8  precio[5],preset[8];
 392:.\main.c      ****     
 393:.\main.c      **** 	if(PC_GetRxBufferSize()>=6){
 1442              		.loc 1 393 0
 1443 0006 FFF7FEFF 		bl	PC_GetRxBufferSize
 1444 000a 0346     		mov	r3, r0
 1445 000c 052B     		cmp	r3, #5
 1446 000e 40F28C85 		bls	.L54
 394:.\main.c      **** 		status1=PC_GetRxBufferSize();
 1447              		.loc 1 394 0
 1448 0012 FFF7FEFF 		bl	PC_GetRxBufferSize
 1449 0016 0346     		mov	r3, r0
 1450 0018 3B82     		strh	r3, [r7, #16]	@ movhi
 395:.\main.c      **** 		CyDelay(10);
 1451              		.loc 1 395 0
 1452 001a 0A20     		movs	r0, #10
 1453 001c FFF7FEFF 		bl	CyDelay
 396:.\main.c      **** 		status2=PC_GetRxBufferSize();
 1454              		.loc 1 396 0
 1455 0020 FFF7FEFF 		bl	PC_GetRxBufferSize
 1456 0024 0346     		mov	r3, r0
 1457 0026 FB81     		strh	r3, [r7, #14]	@ movhi
 397:.\main.c      **** 		if(status1==status2){		
 1458              		.loc 1 397 0
 1459 0028 3A8A     		ldrh	r2, [r7, #16]
 1460 002a FB89     		ldrh	r3, [r7, #14]
 1461 002c 9A42     		cmp	r2, r3
 1462 002e 40F07C85 		bne	.L54
 398:.\main.c      **** 			if((PC_rxBuffer[0]=='B')&&(PC_rxBuffer[1]=='B')&&(PC_rxBuffer[2]=='B')){
 1463              		.loc 1 398 0
 1464 0032 AB4B     		ldr	r3, .L108
 1465 0034 1B78     		ldrb	r3, [r3]
 1466 0036 DBB2     		uxtb	r3, r3
 1467 0038 422B     		cmp	r3, #66
 1468 003a 40F06E85 		bne	.L56
 1469              		.loc 1 398 0 is_stmt 0 discriminator 1
 1470 003e A84B     		ldr	r3, .L108
 1471 0040 5B78     		ldrb	r3, [r3, #1]
ARM GAS  C:\Users\RECEPC~1\AppData\Local\Temp\ccU7e2eq.s 			page 34


 1472 0042 DBB2     		uxtb	r3, r3
 1473 0044 422B     		cmp	r3, #66
 1474 0046 40F06885 		bne	.L56
 1475              		.loc 1 398 0 discriminator 2
 1476 004a A54B     		ldr	r3, .L108
 1477 004c 9B78     		ldrb	r3, [r3, #2]
 1478 004e DBB2     		uxtb	r3, r3
 1479 0050 422B     		cmp	r3, #66
 1480 0052 40F06285 		bne	.L56
 399:.\main.c      **** 				ok_datosRF=0;   
 1481              		.loc 1 399 0 is_stmt 1
 1482 0056 A34B     		ldr	r3, .L108+4
 1483 0058 0022     		movs	r2, #0
 1484 005a 1A70     		strb	r2, [r3]
 400:.\main.c      **** 				switch(PC_rxBuffer[3]){
 1485              		.loc 1 400 0
 1486 005c A04B     		ldr	r3, .L108
 1487 005e DB78     		ldrb	r3, [r3, #3]
 1488 0060 DBB2     		uxtb	r3, r3
 1489 0062 303B     		subs	r3, r3, #48
 1490 0064 152B     		cmp	r3, #21
 1491 0066 00F24485 		bhi	.L57
 1492 006a 01A2     		adr	r2, .L59
 1493 006c 52F823F0 		ldr	pc, [r2, r3, lsl #2]
 1494              		.p2align 2
 1495              	.L59:
 1496 0070 C9000000 		.word	.L58+1
 1497 0074 45080000 		.word	.L60+1
 1498 0078 F30A0000 		.word	.L57+1
 1499 007c 11090000 		.word	.L61+1
 1500 0080 F30A0000 		.word	.L57+1
 1501 0084 F30A0000 		.word	.L57+1
 1502 0088 F30A0000 		.word	.L57+1
 1503 008c F30A0000 		.word	.L57+1
 1504 0090 F30A0000 		.word	.L57+1
 1505 0094 F30A0000 		.word	.L57+1
 1506 0098 F30A0000 		.word	.L57+1
 1507 009c F30A0000 		.word	.L57+1
 1508 00a0 F30A0000 		.word	.L57+1
 1509 00a4 F30A0000 		.word	.L57+1
 1510 00a8 F30A0000 		.word	.L57+1
 1511 00ac F30A0000 		.word	.L57+1
 1512 00b0 F30A0000 		.word	.L57+1
 1513 00b4 F30A0000 		.word	.L57+1
 1514 00b8 F30A0000 		.word	.L57+1
 1515 00bc F30A0000 		.word	.L57+1
 1516 00c0 F30A0000 		.word	.L57+1
 1517 00c4 B7080000 		.word	.L62+1
 1518              		.p2align 1
 1519              	.L58:
 401:.\main.c      **** 					case cautorizar:
 402:.\main.c      ****                     if(PC_rxBuffer[4]=='1'){
 1520              		.loc 1 402 0
 1521 00c8 854B     		ldr	r3, .L108
 1522 00ca 1B79     		ldrb	r3, [r3, #4]
 1523 00cc DBB2     		uxtb	r3, r3
 1524 00ce 312B     		cmp	r3, #49
ARM GAS  C:\Users\RECEPC~1\AppData\Local\Temp\ccU7e2eq.s 			page 35


 1525 00d0 40F0DA81 		bne	.L63
 403:.\main.c      ****                     PC_rxBuffer[3] = 0;
 1526              		.loc 1 403 0
 1527 00d4 824B     		ldr	r3, .L108
 1528 00d6 0022     		movs	r2, #0
 1529 00d8 DA70     		strb	r2, [r3, #3]
 404:.\main.c      **** 						if(PC_rxBuffer[5]=='N'){			//No autorizo el servidor		
 1530              		.loc 1 404 0
 1531 00da 814B     		ldr	r3, .L108
 1532 00dc 5B79     		ldrb	r3, [r3, #5]
 1533 00de DBB2     		uxtb	r3, r3
 1534 00e0 4E2B     		cmp	r3, #78
 1535 00e2 0BD1     		bne	.L64
 405:.\main.c      **** 							error_op((PC_rxBuffer[4] & 0x0F),28);
 1536              		.loc 1 405 0
 1537 00e4 7E4B     		ldr	r3, .L108
 1538 00e6 1B79     		ldrb	r3, [r3, #4]
 1539 00e8 DBB2     		uxtb	r3, r3
 1540 00ea 03F00F03 		and	r3, r3, #15
 1541 00ee DBB2     		uxtb	r3, r3
 1542 00f0 1846     		mov	r0, r3
 1543 00f2 1C21     		movs	r1, #28
 1544 00f4 FFF7FEFF 		bl	error_op
 406:.\main.c      **** 							break;
 1545              		.loc 1 406 0
 1546 00f8 00F0FBBC 		b	.L57
 1547              	.L64:
 407:.\main.c      **** 						}
 408:.\main.c      **** 						if(PC_rxBuffer[10]=='F'){		//Cambia precio
 1548              		.loc 1 408 0
 1549 00fc 784B     		ldr	r3, .L108
 1550 00fe 9B7A     		ldrb	r3, [r3, #10]
 1551 0100 DBB2     		uxtb	r3, r3
 1552 0102 462B     		cmp	r3, #70
 1553 0104 7ED1     		bne	.L65
 409:.\main.c      ****                             precio[0]=lado1.ppu[rventa1.manguera-1][0]&0x0f;	
 1554              		.loc 1 409 0
 1555 0106 784B     		ldr	r3, .L108+8
 1556 0108 9B7E     		ldrb	r3, [r3, #26]	@ zero_extendqisi2
 1557 010a 5A1E     		subs	r2, r3, #1
 1558 010c 7749     		ldr	r1, .L108+12
 1559 010e 1346     		mov	r3, r2
 1560 0110 9B00     		lsls	r3, r3, #2
 1561 0112 1344     		add	r3, r3, r2
 1562 0114 0B44     		add	r3, r3, r1
 1563 0116 4833     		adds	r3, r3, #72
 1564 0118 9B78     		ldrb	r3, [r3, #2]
 1565 011a DBB2     		uxtb	r3, r3
 1566 011c 03F00F03 		and	r3, r3, #15
 1567 0120 DBB2     		uxtb	r3, r3
 1568 0122 3B72     		strb	r3, [r7, #8]
 410:.\main.c      ****     						precio[1]=lado1.ppu[rventa1.manguera-1][1]&0x0f;
 1569              		.loc 1 410 0
 1570 0124 704B     		ldr	r3, .L108+8
 1571 0126 9B7E     		ldrb	r3, [r3, #26]	@ zero_extendqisi2
 1572 0128 5A1E     		subs	r2, r3, #1
 1573 012a 7049     		ldr	r1, .L108+12
ARM GAS  C:\Users\RECEPC~1\AppData\Local\Temp\ccU7e2eq.s 			page 36


 1574 012c 1346     		mov	r3, r2
 1575 012e 9B00     		lsls	r3, r3, #2
 1576 0130 1344     		add	r3, r3, r2
 1577 0132 0B44     		add	r3, r3, r1
 1578 0134 4933     		adds	r3, r3, #73
 1579 0136 9B78     		ldrb	r3, [r3, #2]
 1580 0138 DBB2     		uxtb	r3, r3
 1581 013a 03F00F03 		and	r3, r3, #15
 1582 013e DBB2     		uxtb	r3, r3
 1583 0140 7B72     		strb	r3, [r7, #9]
 411:.\main.c      ****     						precio[2]=lado1.ppu[rventa1.manguera-1][2]&0x0f;
 1584              		.loc 1 411 0
 1585 0142 694B     		ldr	r3, .L108+8
 1586 0144 9B7E     		ldrb	r3, [r3, #26]	@ zero_extendqisi2
 1587 0146 5A1E     		subs	r2, r3, #1
 1588 0148 6849     		ldr	r1, .L108+12
 1589 014a 1346     		mov	r3, r2
 1590 014c 9B00     		lsls	r3, r3, #2
 1591 014e 1344     		add	r3, r3, r2
 1592 0150 0B44     		add	r3, r3, r1
 1593 0152 4A33     		adds	r3, r3, #74
 1594 0154 9B78     		ldrb	r3, [r3, #2]
 1595 0156 DBB2     		uxtb	r3, r3
 1596 0158 03F00F03 		and	r3, r3, #15
 1597 015c DBB2     		uxtb	r3, r3
 1598 015e BB72     		strb	r3, [r7, #10]
 412:.\main.c      ****     						precio[3]=lado1.ppu[rventa1.manguera-1][3]&0x0f;
 1599              		.loc 1 412 0
 1600 0160 614B     		ldr	r3, .L108+8
 1601 0162 9B7E     		ldrb	r3, [r3, #26]	@ zero_extendqisi2
 1602 0164 5A1E     		subs	r2, r3, #1
 1603 0166 6149     		ldr	r1, .L108+12
 1604 0168 1346     		mov	r3, r2
 1605 016a 9B00     		lsls	r3, r3, #2
 1606 016c 1344     		add	r3, r3, r2
 1607 016e 0B44     		add	r3, r3, r1
 1608 0170 4B33     		adds	r3, r3, #75
 1609 0172 9B78     		ldrb	r3, [r3, #2]
 1610 0174 DBB2     		uxtb	r3, r3
 1611 0176 03F00F03 		and	r3, r3, #15
 1612 017a DBB2     		uxtb	r3, r3
 1613 017c FB72     		strb	r3, [r7, #11]
 413:.\main.c      ****     						precio[4]=lado1.ppu[rventa1.manguera-1][4]&0x0f;
 1614              		.loc 1 413 0
 1615 017e 5A4B     		ldr	r3, .L108+8
 1616 0180 9B7E     		ldrb	r3, [r3, #26]	@ zero_extendqisi2
 1617 0182 5A1E     		subs	r2, r3, #1
 1618 0184 5949     		ldr	r1, .L108+12
 1619 0186 1346     		mov	r3, r2
 1620 0188 9B00     		lsls	r3, r3, #2
 1621 018a 1344     		add	r3, r3, r2
 1622 018c 0B44     		add	r3, r3, r1
 1623 018e 4C33     		adds	r3, r3, #76
 1624 0190 9B78     		ldrb	r3, [r3, #2]
 1625 0192 DBB2     		uxtb	r3, r3
 1626 0194 03F00F03 		and	r3, r3, #15
 1627 0198 DBB2     		uxtb	r3, r3
ARM GAS  C:\Users\RECEPC~1\AppData\Local\Temp\ccU7e2eq.s 			page 37


 1628 019a 3B73     		strb	r3, [r7, #12]
 414:.\main.c      ****                         	if(cambiar_precio((lado1.dir & 0x0F),precio,rventa1.manguera)==0){
 1629              		.loc 1 414 0
 1630 019c 534B     		ldr	r3, .L108+12
 1631 019e 1B78     		ldrb	r3, [r3]
 1632 01a0 DBB2     		uxtb	r3, r3
 1633 01a2 03F00F03 		and	r3, r3, #15
 1634 01a6 D9B2     		uxtb	r1, r3
 1635 01a8 4F4B     		ldr	r3, .L108+8
 1636 01aa 9B7E     		ldrb	r3, [r3, #26]	@ zero_extendqisi2
 1637 01ac 07F10802 		add	r2, r7, #8
 1638 01b0 0846     		mov	r0, r1
 1639 01b2 1146     		mov	r1, r2
 1640 01b4 1A46     		mov	r2, r3
 1641 01b6 FFF7FEFF 		bl	cambiar_precio
 1642 01ba 0346     		mov	r3, r0
 1643 01bc 002B     		cmp	r3, #0
 1644 01be 40F09B80 		bne	.L66
 415:.\main.c      **** 								rf_mod[0]='M';
 1645              		.loc 1 415 0
 1646 01c2 4B4B     		ldr	r3, .L108+16
 1647 01c4 4D22     		movs	r2, #77
 1648 01c6 1A70     		strb	r2, [r3]
 416:.\main.c      **** 								rf_mod[1]='U';
 1649              		.loc 1 416 0
 1650 01c8 494B     		ldr	r3, .L108+16
 1651 01ca 5522     		movs	r2, #85
 1652 01cc 5A70     		strb	r2, [r3, #1]
 417:.\main.c      **** 								rf_mod[2]='X';
 1653              		.loc 1 417 0
 1654 01ce 484B     		ldr	r3, .L108+16
 1655 01d0 5822     		movs	r2, #88
 1656 01d2 9A70     		strb	r2, [r3, #2]
 418:.\main.c      **** 								rf_mod[3]=creset;
 1657              		.loc 1 418 0
 1658 01d4 464B     		ldr	r3, .L108+16
 1659 01d6 4522     		movs	r2, #69
 1660 01d8 DA70     		strb	r2, [r3, #3]
 419:.\main.c      **** 								rf_mod[4]=cautorizar;
 1661              		.loc 1 419 0
 1662 01da 454B     		ldr	r3, .L108+16
 1663 01dc 3022     		movs	r2, #48
 1664 01de 1A71     		strb	r2, [r3, #4]
 420:.\main.c      **** 								rf_mod[5]=PC_rxBuffer[4];
 1665              		.loc 1 420 0
 1666 01e0 3F4B     		ldr	r3, .L108
 1667 01e2 1B79     		ldrb	r3, [r3, #4]
 1668 01e4 DAB2     		uxtb	r2, r3
 1669 01e6 424B     		ldr	r3, .L108+16
 1670 01e8 5A71     		strb	r2, [r3, #5]
 421:.\main.c      **** 								rf_mod[6]='1';
 1671              		.loc 1 421 0
 1672 01ea 414B     		ldr	r3, .L108+16
 1673 01ec 3122     		movs	r2, #49
 1674 01ee 9A71     		strb	r2, [r3, #6]
 422:.\main.c      **** 								rf_mod[7]='*';
 1675              		.loc 1 422 0
ARM GAS  C:\Users\RECEPC~1\AppData\Local\Temp\ccU7e2eq.s 			page 38


 1676 01f0 3F4B     		ldr	r3, .L108+16
 1677 01f2 2A22     		movs	r2, #42
 1678 01f4 DA71     		strb	r2, [r3, #7]
 423:.\main.c      **** 								size=8;
 1679              		.loc 1 423 0
 1680 01f6 0823     		movs	r3, #8
 1681 01f8 FB82     		strh	r3, [r7, #22]	@ movhi
 424:.\main.c      **** 								ok_datosRF=1;
 1682              		.loc 1 424 0
 1683 01fa 3A4B     		ldr	r3, .L108+4
 1684 01fc 0122     		movs	r2, #1
 1685 01fe 1A70     		strb	r2, [r3]
 425:.\main.c      **** 								break;
 1686              		.loc 1 425 0
 1687 0200 00F077BC 		b	.L57
 1688              	.L65:
 426:.\main.c      **** 							}                                                      
 427:.\main.c      ****   						}
 428:.\main.c      ****                         else{
 429:.\main.c      **** 							totales(lado1.dir, lado1.mangueras);
 1689              		.loc 1 429 0
 1690 0204 394B     		ldr	r3, .L108+12
 1691 0206 1B78     		ldrb	r3, [r3]
 1692 0208 DAB2     		uxtb	r2, r3
 1693 020a 384B     		ldr	r3, .L108+12
 1694 020c 93F85C30 		ldrb	r3, [r3, #92]
 1695 0210 DBB2     		uxtb	r3, r3
 1696 0212 1046     		mov	r0, r2
 1697 0214 1946     		mov	r1, r3
 1698 0216 FFF7FEFF 		bl	totales
 430:.\main.c      ****                             if(ppux10==1){
 1699              		.loc 1 430 0
 1700 021a 364B     		ldr	r3, .L108+20
 1701 021c 1B78     		ldrb	r3, [r3]
 1702 021e DBB2     		uxtb	r3, r3
 1703 0220 012B     		cmp	r3, #1
 1704 0222 11D1     		bne	.L67
 431:.\main.c      ****     							precio[4]=PC_rxBuffer[9];	
 1705              		.loc 1 431 0
 1706 0224 2E4B     		ldr	r3, .L108
 1707 0226 5B7A     		ldrb	r3, [r3, #9]
 1708 0228 DBB2     		uxtb	r3, r3
 1709 022a 3B73     		strb	r3, [r7, #12]
 432:.\main.c      ****     							precio[3]=PC_rxBuffer[8];
 1710              		.loc 1 432 0
 1711 022c 2C4B     		ldr	r3, .L108
 1712 022e 1B7A     		ldrb	r3, [r3, #8]
 1713 0230 DBB2     		uxtb	r3, r3
 1714 0232 FB72     		strb	r3, [r7, #11]
 433:.\main.c      ****     							precio[2]=PC_rxBuffer[7];
 1715              		.loc 1 433 0
 1716 0234 2A4B     		ldr	r3, .L108
 1717 0236 DB79     		ldrb	r3, [r3, #7]
 1718 0238 DBB2     		uxtb	r3, r3
 1719 023a BB72     		strb	r3, [r7, #10]
 434:.\main.c      ****     							precio[1]=PC_rxBuffer[6];
 1720              		.loc 1 434 0
ARM GAS  C:\Users\RECEPC~1\AppData\Local\Temp\ccU7e2eq.s 			page 39


 1721 023c 284B     		ldr	r3, .L108
 1722 023e 9B79     		ldrb	r3, [r3, #6]
 1723 0240 DBB2     		uxtb	r3, r3
 1724 0242 7B72     		strb	r3, [r7, #9]
 435:.\main.c      ****     							precio[0]=0;			
 1725              		.loc 1 435 0
 1726 0244 0023     		movs	r3, #0
 1727 0246 3B72     		strb	r3, [r7, #8]
 1728              	.L67:
 436:.\main.c      ****                             }
 437:.\main.c      ****                             if(ppux10==0){
 1729              		.loc 1 437 0
 1730 0248 2A4B     		ldr	r3, .L108+20
 1731 024a 1B78     		ldrb	r3, [r3]
 1732 024c DBB2     		uxtb	r3, r3
 1733 024e 002B     		cmp	r3, #0
 1734 0250 13D1     		bne	.L68
 438:.\main.c      ****     							precio[4]=PC_rxBuffer[10];	
 1735              		.loc 1 438 0
 1736 0252 234B     		ldr	r3, .L108
 1737 0254 9B7A     		ldrb	r3, [r3, #10]
 1738 0256 DBB2     		uxtb	r3, r3
 1739 0258 3B73     		strb	r3, [r7, #12]
 439:.\main.c      ****     							precio[3]=PC_rxBuffer[9];
 1740              		.loc 1 439 0
 1741 025a 214B     		ldr	r3, .L108
 1742 025c 5B7A     		ldrb	r3, [r3, #9]
 1743 025e DBB2     		uxtb	r3, r3
 1744 0260 FB72     		strb	r3, [r7, #11]
 440:.\main.c      ****     							precio[2]=PC_rxBuffer[8];
 1745              		.loc 1 440 0
 1746 0262 1F4B     		ldr	r3, .L108
 1747 0264 1B7A     		ldrb	r3, [r3, #8]
 1748 0266 DBB2     		uxtb	r3, r3
 1749 0268 BB72     		strb	r3, [r7, #10]
 441:.\main.c      ****     							precio[1]=PC_rxBuffer[7];
 1750              		.loc 1 441 0
 1751 026a 1D4B     		ldr	r3, .L108
 1752 026c DB79     		ldrb	r3, [r3, #7]
 1753 026e DBB2     		uxtb	r3, r3
 1754 0270 7B72     		strb	r3, [r7, #9]
 442:.\main.c      ****     							precio[0]=PC_rxBuffer[6];                            
 1755              		.loc 1 442 0
 1756 0272 1B4B     		ldr	r3, .L108
 1757 0274 9B79     		ldrb	r3, [r3, #6]
 1758 0276 DBB2     		uxtb	r3, r3
 1759 0278 3B72     		strb	r3, [r7, #8]
 1760              	.L68:
 443:.\main.c      ****                             }
 444:.\main.c      **** 							if(cambiar_precio((lado1.dir & 0x0F),precio,rventa1.manguera)==0){
 1761              		.loc 1 444 0
 1762 027a 1C4B     		ldr	r3, .L108+12
 1763 027c 1B78     		ldrb	r3, [r3]
 1764 027e DBB2     		uxtb	r3, r3
 1765 0280 03F00F03 		and	r3, r3, #15
 1766 0284 D9B2     		uxtb	r1, r3
 1767 0286 184B     		ldr	r3, .L108+8
ARM GAS  C:\Users\RECEPC~1\AppData\Local\Temp\ccU7e2eq.s 			page 40


 1768 0288 9B7E     		ldrb	r3, [r3, #26]	@ zero_extendqisi2
 1769 028a 07F10802 		add	r2, r7, #8
 1770 028e 0846     		mov	r0, r1
 1771 0290 1146     		mov	r1, r2
 1772 0292 1A46     		mov	r2, r3
 1773 0294 FFF7FEFF 		bl	cambiar_precio
 1774 0298 0346     		mov	r3, r0
 1775 029a 002B     		cmp	r3, #0
 1776 029c 2CD1     		bne	.L66
 445:.\main.c      **** 								rf_mod[0]='M';
 1777              		.loc 1 445 0
 1778 029e 144B     		ldr	r3, .L108+16
 1779 02a0 4D22     		movs	r2, #77
 1780 02a2 1A70     		strb	r2, [r3]
 446:.\main.c      **** 								rf_mod[1]='U';
 1781              		.loc 1 446 0
 1782 02a4 124B     		ldr	r3, .L108+16
 1783 02a6 5522     		movs	r2, #85
 1784 02a8 5A70     		strb	r2, [r3, #1]
 447:.\main.c      **** 								rf_mod[2]='X';
 1785              		.loc 1 447 0
 1786 02aa 114B     		ldr	r3, .L108+16
 1787 02ac 5822     		movs	r2, #88
 1788 02ae 9A70     		strb	r2, [r3, #2]
 448:.\main.c      **** 								rf_mod[3]=creset;
 1789              		.loc 1 448 0
 1790 02b0 0F4B     		ldr	r3, .L108+16
 1791 02b2 4522     		movs	r2, #69
 1792 02b4 DA70     		strb	r2, [r3, #3]
 449:.\main.c      **** 								rf_mod[4]=cautorizar;
 1793              		.loc 1 449 0
 1794 02b6 0E4B     		ldr	r3, .L108+16
 1795 02b8 3022     		movs	r2, #48
 1796 02ba 1A71     		strb	r2, [r3, #4]
 450:.\main.c      **** 								rf_mod[5]=PC_rxBuffer[4];
 1797              		.loc 1 450 0
 1798 02bc 084B     		ldr	r3, .L108
 1799 02be 1B79     		ldrb	r3, [r3, #4]
 1800 02c0 DAB2     		uxtb	r2, r3
 1801 02c2 0B4B     		ldr	r3, .L108+16
 1802 02c4 5A71     		strb	r2, [r3, #5]
 451:.\main.c      **** 								rf_mod[6]='1';
 1803              		.loc 1 451 0
 1804 02c6 0A4B     		ldr	r3, .L108+16
 1805 02c8 3122     		movs	r2, #49
 1806 02ca 9A71     		strb	r2, [r3, #6]
 452:.\main.c      **** 								rf_mod[7]='*';
 1807              		.loc 1 452 0
 1808 02cc 084B     		ldr	r3, .L108+16
 1809 02ce 2A22     		movs	r2, #42
 1810 02d0 DA71     		strb	r2, [r3, #7]
 453:.\main.c      **** 								size=8;
 1811              		.loc 1 453 0
 1812 02d2 0823     		movs	r3, #8
 1813 02d4 FB82     		strh	r3, [r7, #22]	@ movhi
 454:.\main.c      **** 								ok_datosRF=1;
 1814              		.loc 1 454 0
ARM GAS  C:\Users\RECEPC~1\AppData\Local\Temp\ccU7e2eq.s 			page 41


 1815 02d6 034B     		ldr	r3, .L108+4
 1816 02d8 0122     		movs	r2, #1
 1817 02da 1A70     		strb	r2, [r3]
 455:.\main.c      **** 								break;
 1818              		.loc 1 455 0
 1819 02dc 00F009BC 		b	.L57
 1820              	.L109:
 1821              		.align	2
 1822              	.L108:
 1823 02e0 00000000 		.word	PC_rxBuffer
 1824 02e4 00000000 		.word	ok_datosRF
 1825 02e8 00000000 		.word	rventa1
 1826 02ec 00000000 		.word	lado1
 1827 02f0 00000000 		.word	rf_mod
 1828 02f4 00000000 		.word	ppux10
 1829              	.L66:
 456:.\main.c      **** 							}
 457:.\main.c      ****                         }
 458:.\main.c      **** 						preset[1]=PC_rxBuffer[17];				//Preset
 1830              		.loc 1 458 0
 1831 02f8 AF4B     		ldr	r3, .L110
 1832 02fa 5B7C     		ldrb	r3, [r3, #17]
 1833 02fc DBB2     		uxtb	r3, r3
 1834 02fe 7B70     		strb	r3, [r7, #1]
 459:.\main.c      **** 						if(PC_rxBuffer[17]!=','){
 1835              		.loc 1 459 0
 1836 0300 AD4B     		ldr	r3, .L110
 1837 0302 5B7C     		ldrb	r3, [r3, #17]
 1838 0304 DBB2     		uxtb	r3, r3
 1839 0306 2C2B     		cmp	r3, #44
 1840 0308 06D0     		beq	.L69
 460:.\main.c      **** 							preset[1]=PC_rxBuffer[17] & 0x0F;
 1841              		.loc 1 460 0
 1842 030a AB4B     		ldr	r3, .L110
 1843 030c 5B7C     		ldrb	r3, [r3, #17]
 1844 030e DBB2     		uxtb	r3, r3
 1845 0310 03F00F03 		and	r3, r3, #15
 1846 0314 DBB2     		uxtb	r3, r3
 1847 0316 7B70     		strb	r3, [r7, #1]
 1848              	.L69:
 461:.\main.c      **** 						}
 462:.\main.c      **** 						preset[2]=PC_rxBuffer[16];
 1849              		.loc 1 462 0
 1850 0318 A74B     		ldr	r3, .L110
 1851 031a 1B7C     		ldrb	r3, [r3, #16]
 1852 031c DBB2     		uxtb	r3, r3
 1853 031e BB70     		strb	r3, [r7, #2]
 463:.\main.c      **** 						if(PC_rxBuffer[16]!=','){
 1854              		.loc 1 463 0
 1855 0320 A54B     		ldr	r3, .L110
 1856 0322 1B7C     		ldrb	r3, [r3, #16]
 1857 0324 DBB2     		uxtb	r3, r3
 1858 0326 2C2B     		cmp	r3, #44
 1859 0328 06D0     		beq	.L70
 464:.\main.c      **** 							preset[2]=PC_rxBuffer[16] & 0x0F;
 1860              		.loc 1 464 0
 1861 032a A34B     		ldr	r3, .L110
ARM GAS  C:\Users\RECEPC~1\AppData\Local\Temp\ccU7e2eq.s 			page 42


 1862 032c 1B7C     		ldrb	r3, [r3, #16]
 1863 032e DBB2     		uxtb	r3, r3
 1864 0330 03F00F03 		and	r3, r3, #15
 1865 0334 DBB2     		uxtb	r3, r3
 1866 0336 BB70     		strb	r3, [r7, #2]
 1867              	.L70:
 465:.\main.c      **** 						}
 466:.\main.c      **** 						preset[3]=PC_rxBuffer[15];
 1868              		.loc 1 466 0
 1869 0338 9F4B     		ldr	r3, .L110
 1870 033a DB7B     		ldrb	r3, [r3, #15]
 1871 033c DBB2     		uxtb	r3, r3
 1872 033e FB70     		strb	r3, [r7, #3]
 467:.\main.c      **** 						if(PC_rxBuffer[15]!=','){
 1873              		.loc 1 467 0
 1874 0340 9D4B     		ldr	r3, .L110
 1875 0342 DB7B     		ldrb	r3, [r3, #15]
 1876 0344 DBB2     		uxtb	r3, r3
 1877 0346 2C2B     		cmp	r3, #44
 1878 0348 06D0     		beq	.L71
 468:.\main.c      **** 							preset[3]=PC_rxBuffer[15] & 0x0F;
 1879              		.loc 1 468 0
 1880 034a 9B4B     		ldr	r3, .L110
 1881 034c DB7B     		ldrb	r3, [r3, #15]
 1882 034e DBB2     		uxtb	r3, r3
 1883 0350 03F00F03 		and	r3, r3, #15
 1884 0354 DBB2     		uxtb	r3, r3
 1885 0356 FB70     		strb	r3, [r7, #3]
 1886              	.L71:
 469:.\main.c      **** 						}
 470:.\main.c      **** 						preset[4]=PC_rxBuffer[14];
 1887              		.loc 1 470 0
 1888 0358 974B     		ldr	r3, .L110
 1889 035a 9B7B     		ldrb	r3, [r3, #14]
 1890 035c DBB2     		uxtb	r3, r3
 1891 035e 3B71     		strb	r3, [r7, #4]
 471:.\main.c      **** 						if(PC_rxBuffer[14]!=','){
 1892              		.loc 1 471 0
 1893 0360 954B     		ldr	r3, .L110
 1894 0362 9B7B     		ldrb	r3, [r3, #14]
 1895 0364 DBB2     		uxtb	r3, r3
 1896 0366 2C2B     		cmp	r3, #44
 1897 0368 06D0     		beq	.L72
 472:.\main.c      **** 							preset[4]=PC_rxBuffer[14] & 0x0F;
 1898              		.loc 1 472 0
 1899 036a 934B     		ldr	r3, .L110
 1900 036c 9B7B     		ldrb	r3, [r3, #14]
 1901 036e DBB2     		uxtb	r3, r3
 1902 0370 03F00F03 		and	r3, r3, #15
 1903 0374 DBB2     		uxtb	r3, r3
 1904 0376 3B71     		strb	r3, [r7, #4]
 1905              	.L72:
 473:.\main.c      **** 						}
 474:.\main.c      **** 						preset[5]=PC_rxBuffer[13];
 1906              		.loc 1 474 0
 1907 0378 8F4B     		ldr	r3, .L110
 1908 037a 5B7B     		ldrb	r3, [r3, #13]
ARM GAS  C:\Users\RECEPC~1\AppData\Local\Temp\ccU7e2eq.s 			page 43


 1909 037c DBB2     		uxtb	r3, r3
 1910 037e 7B71     		strb	r3, [r7, #5]
 475:.\main.c      **** 						if(PC_rxBuffer[13]!=','){
 1911              		.loc 1 475 0
 1912 0380 8D4B     		ldr	r3, .L110
 1913 0382 5B7B     		ldrb	r3, [r3, #13]
 1914 0384 DBB2     		uxtb	r3, r3
 1915 0386 2C2B     		cmp	r3, #44
 1916 0388 06D0     		beq	.L73
 476:.\main.c      **** 							preset[5]=PC_rxBuffer[13] & 0x0F;
 1917              		.loc 1 476 0
 1918 038a 8B4B     		ldr	r3, .L110
 1919 038c 5B7B     		ldrb	r3, [r3, #13]
 1920 038e DBB2     		uxtb	r3, r3
 1921 0390 03F00F03 		and	r3, r3, #15
 1922 0394 DBB2     		uxtb	r3, r3
 1923 0396 7B71     		strb	r3, [r7, #5]
 1924              	.L73:
 477:.\main.c      **** 						}
 478:.\main.c      **** 						preset[6]=PC_rxBuffer[12];
 1925              		.loc 1 478 0
 1926 0398 874B     		ldr	r3, .L110
 1927 039a 1B7B     		ldrb	r3, [r3, #12]
 1928 039c DBB2     		uxtb	r3, r3
 1929 039e BB71     		strb	r3, [r7, #6]
 479:.\main.c      **** 						if(PC_rxBuffer[12]!=','){
 1930              		.loc 1 479 0
 1931 03a0 854B     		ldr	r3, .L110
 1932 03a2 1B7B     		ldrb	r3, [r3, #12]
 1933 03a4 DBB2     		uxtb	r3, r3
 1934 03a6 2C2B     		cmp	r3, #44
 1935 03a8 06D0     		beq	.L74
 480:.\main.c      **** 							preset[6]=PC_rxBuffer[12] & 0x0F;
 1936              		.loc 1 480 0
 1937 03aa 834B     		ldr	r3, .L110
 1938 03ac 1B7B     		ldrb	r3, [r3, #12]
 1939 03ae DBB2     		uxtb	r3, r3
 1940 03b0 03F00F03 		and	r3, r3, #15
 1941 03b4 DBB2     		uxtb	r3, r3
 1942 03b6 BB71     		strb	r3, [r7, #6]
 1943              	.L74:
 481:.\main.c      **** 						}
 482:.\main.c      **** 						preset[7]=PC_rxBuffer[11];
 1944              		.loc 1 482 0
 1945 03b8 7F4B     		ldr	r3, .L110
 1946 03ba DB7A     		ldrb	r3, [r3, #11]
 1947 03bc DBB2     		uxtb	r3, r3
 1948 03be FB71     		strb	r3, [r7, #7]
 483:.\main.c      **** 						if(PC_rxBuffer[11]!=','){
 1949              		.loc 1 483 0
 1950 03c0 7D4B     		ldr	r3, .L110
 1951 03c2 DB7A     		ldrb	r3, [r3, #11]
 1952 03c4 DBB2     		uxtb	r3, r3
 1953 03c6 2C2B     		cmp	r3, #44
 1954 03c8 06D0     		beq	.L75
 484:.\main.c      **** 							preset[7]=PC_rxBuffer[11] & 0x0F;
 1955              		.loc 1 484 0
ARM GAS  C:\Users\RECEPC~1\AppData\Local\Temp\ccU7e2eq.s 			page 44


 1956 03ca 7B4B     		ldr	r3, .L110
 1957 03cc DB7A     		ldrb	r3, [r3, #11]
 1958 03ce DBB2     		uxtb	r3, r3
 1959 03d0 03F00F03 		and	r3, r3, #15
 1960 03d4 DBB2     		uxtb	r3, r3
 1961 03d6 FB71     		strb	r3, [r7, #7]
 1962              	.L75:
 485:.\main.c      **** 						}
 486:.\main.c      **** 						t_preset=PC_rxBuffer[18];
 1963              		.loc 1 486 0
 1964 03d8 774B     		ldr	r3, .L110
 1965 03da 9B7C     		ldrb	r3, [r3, #18]
 1966 03dc DBB2     		uxtb	r3, r3
 1967 03de 7B82     		strh	r3, [r7, #18]	@ movhi
 487:.\main.c      **** 						if(t_preset=='1'){
 1968              		.loc 1 487 0
 1969 03e0 7B8A     		ldrh	r3, [r7, #18]
 1970 03e2 312B     		cmp	r3, #49
 1971 03e4 02D1     		bne	.L76
 488:.\main.c      **** 							t_preset=2;
 1972              		.loc 1 488 0
 1973 03e6 0223     		movs	r3, #2
 1974 03e8 7B82     		strh	r3, [r7, #18]	@ movhi
 1975 03ea 01E0     		b	.L77
 1976              	.L76:
 489:.\main.c      **** 						}
 490:.\main.c      **** 						else{
 491:.\main.c      **** 							t_preset=1;
 1977              		.loc 1 491 0
 1978 03ec 0123     		movs	r3, #1
 1979 03ee 7B82     		strh	r3, [r7, #18]	@ movhi
 1980              	.L77:
 492:.\main.c      **** 						}
 493:.\main.c      **** 						if(programar((lado1.dir & 0x0F),rventa1.manguera,preset,t_preset)==1){		//Programar
 1981              		.loc 1 493 0
 1982 03f0 724B     		ldr	r3, .L110+4
 1983 03f2 1B78     		ldrb	r3, [r3]
 1984 03f4 DBB2     		uxtb	r3, r3
 1985 03f6 03F00F03 		and	r3, r3, #15
 1986 03fa D8B2     		uxtb	r0, r3
 1987 03fc 704B     		ldr	r3, .L110+8
 1988 03fe 997E     		ldrb	r1, [r3, #26]	@ zero_extendqisi2
 1989 0400 7B8A     		ldrh	r3, [r7, #18]	@ movhi
 1990 0402 DBB2     		uxtb	r3, r3
 1991 0404 3A46     		mov	r2, r7
 1992 0406 FFF7FEFF 		bl	programar
 1993 040a 0346     		mov	r3, r0
 1994 040c 012B     		cmp	r3, #1
 1995 040e 1BD1     		bne	.L78
 494:.\main.c      ****                             if(ppuinicial==0){                          
 495:.\main.c      **** //                                for(x=0;x<=4;x++){
 496:.\main.c      **** //                            	    precio[x]=lado1.ppu[0][x];	    
 497:.\main.c      **** //                                }
 498:.\main.c      **** //                                cambiar_precio(lado1.dir,precio,1);    
 499:.\main.c      **** //                                for(x=0;x<=4;x++){
 500:.\main.c      **** //                            	    precio[x]=lado1.ppu[1][x];	    
 501:.\main.c      **** //                                }    
ARM GAS  C:\Users\RECEPC~1\AppData\Local\Temp\ccU7e2eq.s 			page 45


 502:.\main.c      **** //                                cambiar_precio(lado1.dir,precio,2);
 503:.\main.c      **** //                                for(x=0;x<=4;x++){
 504:.\main.c      **** //                            	    precio[x]=lado1.ppu[2][x];	    
 505:.\main.c      **** //                                }
 506:.\main.c      **** //                                cambiar_precio(lado1.dir,precio,3);       
 507:.\main.c      ****                             }
 508:.\main.c      ****                             CyDelay(10);
 1996              		.loc 1 508 0
 1997 0410 0A20     		movs	r0, #10
 1998 0412 FFF7FEFF 		bl	CyDelay
 509:.\main.c      **** 							Surtidor_PutChar(0x10|(lado1.dir & 0x0F));							
 1999              		.loc 1 509 0
 2000 0416 694B     		ldr	r3, .L110+4
 2001 0418 1B78     		ldrb	r3, [r3]
 2002 041a DBB2     		uxtb	r3, r3
 2003 041c DBB2     		uxtb	r3, r3
 2004 041e 03F00F03 		and	r3, r3, #15
 2005 0422 DBB2     		uxtb	r3, r3
 2006 0424 43F01003 		orr	r3, r3, #16
 2007 0428 DBB2     		uxtb	r3, r3
 2008 042a DBB2     		uxtb	r3, r3
 2009 042c 1846     		mov	r0, r3
 2010 042e FFF7FEFF 		bl	Surtidor_PutChar
 510:.\main.c      **** 							lado1.estado=tanqueo;
 2011              		.loc 1 510 0
 2012 0432 624B     		ldr	r3, .L110+4
 2013 0434 0622     		movs	r2, #6
 2014 0436 5A70     		strb	r2, [r3, #1]
 511:.\main.c      **** 							flujo_LCD1=8;
 2015              		.loc 1 511 0
 2016 0438 624B     		ldr	r3, .L110+12
 2017 043a 0822     		movs	r2, #8
 2018 043c 1A70     		strb	r2, [r3]
 512:.\main.c      **** 							set_imagen(1,8);
 2019              		.loc 1 512 0
 2020 043e 0120     		movs	r0, #1
 2021 0440 0821     		movs	r1, #8
 2022 0442 FFF7FEFF 		bl	set_imagen
 2023 0446 FCE1     		b	.L80
 2024              	.L78:
 513:.\main.c      **** 						}
 514:.\main.c      **** 						else{
 515:.\main.c      **** 							rf_mod[0]='M';
 2025              		.loc 1 515 0
 2026 0448 5F4B     		ldr	r3, .L110+16
 2027 044a 4D22     		movs	r2, #77
 2028 044c 1A70     		strb	r2, [r3]
 516:.\main.c      **** 							rf_mod[1]='U';
 2029              		.loc 1 516 0
 2030 044e 5E4B     		ldr	r3, .L110+16
 2031 0450 5522     		movs	r2, #85
 2032 0452 5A70     		strb	r2, [r3, #1]
 517:.\main.c      **** 							rf_mod[2]='X';
 2033              		.loc 1 517 0
 2034 0454 5C4B     		ldr	r3, .L110+16
 2035 0456 5822     		movs	r2, #88
 2036 0458 9A70     		strb	r2, [r3, #2]
ARM GAS  C:\Users\RECEPC~1\AppData\Local\Temp\ccU7e2eq.s 			page 46


 518:.\main.c      **** 							rf_mod[3]=creset;
 2037              		.loc 1 518 0
 2038 045a 5B4B     		ldr	r3, .L110+16
 2039 045c 4522     		movs	r2, #69
 2040 045e DA70     		strb	r2, [r3, #3]
 519:.\main.c      **** 							rf_mod[4]=cautorizar;
 2041              		.loc 1 519 0
 2042 0460 594B     		ldr	r3, .L110+16
 2043 0462 3022     		movs	r2, #48
 2044 0464 1A71     		strb	r2, [r3, #4]
 520:.\main.c      **** 							rf_mod[5]=PC_rxBuffer[4];
 2045              		.loc 1 520 0
 2046 0466 544B     		ldr	r3, .L110
 2047 0468 1B79     		ldrb	r3, [r3, #4]
 2048 046a DAB2     		uxtb	r2, r3
 2049 046c 564B     		ldr	r3, .L110+16
 2050 046e 5A71     		strb	r2, [r3, #5]
 521:.\main.c      **** 							rf_mod[6]='2';
 2051              		.loc 1 521 0
 2052 0470 554B     		ldr	r3, .L110+16
 2053 0472 3222     		movs	r2, #50
 2054 0474 9A71     		strb	r2, [r3, #6]
 522:.\main.c      **** 							rf_mod[7]='*';
 2055              		.loc 1 522 0
 2056 0476 544B     		ldr	r3, .L110+16
 2057 0478 2A22     		movs	r2, #42
 2058 047a DA71     		strb	r2, [r3, #7]
 523:.\main.c      **** 							size=8;
 2059              		.loc 1 523 0
 2060 047c 0823     		movs	r3, #8
 2061 047e FB82     		strh	r3, [r7, #22]	@ movhi
 524:.\main.c      **** 							ok_datosRF=1;							
 2062              		.loc 1 524 0
 2063 0480 524B     		ldr	r3, .L110+20
 2064 0482 0122     		movs	r2, #1
 2065 0484 1A70     		strb	r2, [r3]
 525:.\main.c      **** 						}
 526:.\main.c      ****                     }else{                        
 527:.\main.c      ****                         PC_rxBuffer[3] = 0;
 528:.\main.c      ****     						if(PC_rxBuffer[5]=='N'){			//No autorizo el servidor		
 529:.\main.c      ****     							error_op((PC_rxBuffer[4] & 0x0F),28);
 530:.\main.c      ****     							break;
 531:.\main.c      ****     						}
 532:.\main.c      ****     						if(PC_rxBuffer[10]=='F'){		//Cambia precio
 533:.\main.c      ****                                 precio[0]=lado2.ppu[rventa2.manguera-1][0]&0x0f;	
 534:.\main.c      ****         						precio[1]=lado2.ppu[rventa2.manguera-1][1]&0x0f;
 535:.\main.c      ****         						precio[2]=lado2.ppu[rventa2.manguera-1][2]&0x0f;
 536:.\main.c      ****         						precio[3]=lado2.ppu[rventa2.manguera-1][3]&0x0f;
 537:.\main.c      ****         						precio[4]=lado2.ppu[rventa2.manguera-1][4]&0x0f;
 538:.\main.c      ****                             	if(cambiar_precio((lado2.dir & 0x0F),precio,rventa2.manguera)==0){
 539:.\main.c      ****     								rf_mod[0]='M';
 540:.\main.c      ****     								rf_mod[1]='U';
 541:.\main.c      ****     								rf_mod[2]='X';
 542:.\main.c      ****     								rf_mod[3]=creset;
 543:.\main.c      ****     								rf_mod[4]=cautorizar;
 544:.\main.c      ****     								rf_mod[5]=PC_rxBuffer[4];
 545:.\main.c      ****     								rf_mod[6]='1';
ARM GAS  C:\Users\RECEPC~1\AppData\Local\Temp\ccU7e2eq.s 			page 47


 546:.\main.c      ****     								rf_mod[7]='*';
 547:.\main.c      ****     								size=8;
 548:.\main.c      ****     								ok_datosRF=1;
 549:.\main.c      ****     								break;
 550:.\main.c      ****     							}                                                      
 551:.\main.c      ****       						}
 552:.\main.c      ****                             else{
 553:.\main.c      ****     							totales(lado2.dir, lado2.mangueras);
 554:.\main.c      ****                                 if(ppux10==1){
 555:.\main.c      ****         							precio[4]=PC_rxBuffer[9];	
 556:.\main.c      ****         							precio[3]=PC_rxBuffer[8];
 557:.\main.c      ****         							precio[2]=PC_rxBuffer[7];
 558:.\main.c      ****         							precio[1]=PC_rxBuffer[6];
 559:.\main.c      ****         							precio[0]=0;			
 560:.\main.c      ****                                 }
 561:.\main.c      ****                                 if(ppux10==0){
 562:.\main.c      ****         							precio[4]=PC_rxBuffer[10];	
 563:.\main.c      ****         							precio[3]=PC_rxBuffer[9];
 564:.\main.c      ****         							precio[2]=PC_rxBuffer[8];
 565:.\main.c      ****         							precio[1]=PC_rxBuffer[7];
 566:.\main.c      ****         							precio[0]=PC_rxBuffer[6];                            
 567:.\main.c      ****                                 }
 568:.\main.c      ****     							if(cambiar_precio((lado2.dir & 0x0F),precio,rventa2.manguera)==0){
 569:.\main.c      ****     								rf_mod[0]='M';
 570:.\main.c      ****     								rf_mod[1]='U';
 571:.\main.c      ****     								rf_mod[2]='X';
 572:.\main.c      ****     								rf_mod[3]=creset;
 573:.\main.c      ****     								rf_mod[4]=cautorizar;
 574:.\main.c      ****     								rf_mod[5]=PC_rxBuffer[4];
 575:.\main.c      ****     								rf_mod[6]='1';
 576:.\main.c      ****     								rf_mod[7]='*';
 577:.\main.c      ****     								size=8;
 578:.\main.c      ****     								ok_datosRF=1;
 579:.\main.c      ****     								break;
 580:.\main.c      ****     							}
 581:.\main.c      ****                             }
 582:.\main.c      ****     						preset[1]=PC_rxBuffer[17];				//Preset
 583:.\main.c      ****     						if(PC_rxBuffer[17]!=','){
 584:.\main.c      ****     							preset[1]=PC_rxBuffer[17] & 0x0F;
 585:.\main.c      ****     						}
 586:.\main.c      ****     						preset[2]=PC_rxBuffer[16];
 587:.\main.c      ****     						if(PC_rxBuffer[16]!=','){
 588:.\main.c      ****     							preset[2]=PC_rxBuffer[16] & 0x0F;
 589:.\main.c      ****     						}
 590:.\main.c      ****     						preset[3]=PC_rxBuffer[15];
 591:.\main.c      ****     						if(PC_rxBuffer[15]!=','){
 592:.\main.c      ****     							preset[3]=PC_rxBuffer[15] & 0x0F;
 593:.\main.c      ****     						}
 594:.\main.c      ****     						preset[4]=PC_rxBuffer[14];
 595:.\main.c      ****     						if(PC_rxBuffer[14]!=','){
 596:.\main.c      ****     							preset[4]=PC_rxBuffer[14] & 0x0F;
 597:.\main.c      ****     						}
 598:.\main.c      ****     						preset[5]=PC_rxBuffer[13];
 599:.\main.c      ****     						if(PC_rxBuffer[13]!=','){
 600:.\main.c      ****     							preset[5]=PC_rxBuffer[13] & 0x0F;
 601:.\main.c      ****     						}
 602:.\main.c      ****     						preset[6]=PC_rxBuffer[12];
ARM GAS  C:\Users\RECEPC~1\AppData\Local\Temp\ccU7e2eq.s 			page 48


 603:.\main.c      ****     						if(PC_rxBuffer[12]!=','){
 604:.\main.c      ****     							preset[6]=PC_rxBuffer[12] & 0x0F;
 605:.\main.c      ****     						}
 606:.\main.c      ****     						preset[7]=PC_rxBuffer[11];
 607:.\main.c      ****     						if(PC_rxBuffer[11]!=','){
 608:.\main.c      ****     							preset[7]=PC_rxBuffer[11] & 0x0F;
 609:.\main.c      ****     						}
 610:.\main.c      ****     						t_preset=PC_rxBuffer[18];
 611:.\main.c      ****     						if(t_preset=='1'){
 612:.\main.c      ****     							t_preset=2;
 613:.\main.c      ****     						}
 614:.\main.c      ****     						else{
 615:.\main.c      ****     							t_preset=1;
 616:.\main.c      ****     						}
 617:.\main.c      ****     						if(programar((lado2.dir & 0x0F),rventa2.manguera,preset,t_preset)==1){		//Programar
 618:.\main.c      ****                                 if(ppuinicial==0){                          
 619:.\main.c      ****     //                                for(x=0;x<=4;x++){
 620:.\main.c      ****     //                            	    precio[x]=lado1.ppu[0][x];	    
 621:.\main.c      ****     //                                }
 622:.\main.c      ****     //                                cambiar_precio(lado1.dir,precio,1);    
 623:.\main.c      ****     //                                for(x=0;x<=4;x++){
 624:.\main.c      ****     //                            	    precio[x]=lado1.ppu[1][x];	    
 625:.\main.c      ****     //                                }    
 626:.\main.c      ****     //                                cambiar_precio(lado1.dir,precio,2);
 627:.\main.c      ****     //                                for(x=0;x<=4;x++){
 628:.\main.c      ****     //                            	    precio[x]=lado1.ppu[2][x];	    
 629:.\main.c      ****     //                                }
 630:.\main.c      ****     //                                cambiar_precio(lado1.dir,precio,3);       
 631:.\main.c      ****                                 }
 632:.\main.c      ****                                 CyDelay(10);
 633:.\main.c      ****     							Surtidor_PutChar(0x10|(lado2.dir & 0x0F));							
 634:.\main.c      ****     							lado2.estado=tanqueo;
 635:.\main.c      ****     							flujo_LCD1=8;
 636:.\main.c      ****     							set_imagen(1,8);
 637:.\main.c      ****     						}
 638:.\main.c      ****     						else{
 639:.\main.c      ****     							rf_mod[0]='M';
 640:.\main.c      ****     							rf_mod[1]='U';
 641:.\main.c      ****     							rf_mod[2]='X';
 642:.\main.c      ****     							rf_mod[3]=creset;
 643:.\main.c      ****     							rf_mod[4]=cautorizar;
 644:.\main.c      ****     							rf_mod[5]=PC_rxBuffer[4];
 645:.\main.c      ****     							rf_mod[6]='2';
 646:.\main.c      ****     							rf_mod[7]='*';
 647:.\main.c      ****     							size=8;
 648:.\main.c      ****     							ok_datosRF=1;							
 649:.\main.c      ****     						}                    
 650:.\main.c      ****                     }
 651:.\main.c      **** 					break;
 2066              		.loc 1 651 0
 2067 0486 34E3     		b	.L57
 2068              	.L63:
 527:.\main.c      ****     						if(PC_rxBuffer[5]=='N'){			//No autorizo el servidor		
 2069              		.loc 1 527 0
 2070 0488 4B4B     		ldr	r3, .L110
 2071 048a 0022     		movs	r2, #0
 2072 048c DA70     		strb	r2, [r3, #3]
ARM GAS  C:\Users\RECEPC~1\AppData\Local\Temp\ccU7e2eq.s 			page 49


 528:.\main.c      ****     							error_op((PC_rxBuffer[4] & 0x0F),28);
 2073              		.loc 1 528 0
 2074 048e 4A4B     		ldr	r3, .L110
 2075 0490 5B79     		ldrb	r3, [r3, #5]
 2076 0492 DBB2     		uxtb	r3, r3
 2077 0494 4E2B     		cmp	r3, #78
 2078 0496 0AD1     		bne	.L81
 529:.\main.c      ****     							break;
 2079              		.loc 1 529 0
 2080 0498 474B     		ldr	r3, .L110
 2081 049a 1B79     		ldrb	r3, [r3, #4]
 2082 049c DBB2     		uxtb	r3, r3
 2083 049e 03F00F03 		and	r3, r3, #15
 2084 04a2 DBB2     		uxtb	r3, r3
 2085 04a4 1846     		mov	r0, r3
 2086 04a6 1C21     		movs	r1, #28
 2087 04a8 FFF7FEFF 		bl	error_op
 530:.\main.c      ****     						}
 2088              		.loc 1 530 0
 2089 04ac 21E3     		b	.L57
 2090              	.L81:
 532:.\main.c      ****                                 precio[0]=lado2.ppu[rventa2.manguera-1][0]&0x0f;	
 2091              		.loc 1 532 0
 2092 04ae 424B     		ldr	r3, .L110
 2093 04b0 9B7A     		ldrb	r3, [r3, #10]
 2094 04b2 DBB2     		uxtb	r3, r3
 2095 04b4 462B     		cmp	r3, #70
 2096 04b6 40F08F80 		bne	.L82
 533:.\main.c      ****         						precio[1]=lado2.ppu[rventa2.manguera-1][1]&0x0f;
 2097              		.loc 1 533 0
 2098 04ba 454B     		ldr	r3, .L110+24
 2099 04bc 9B7E     		ldrb	r3, [r3, #26]	@ zero_extendqisi2
 2100 04be 5A1E     		subs	r2, r3, #1
 2101 04c0 4449     		ldr	r1, .L110+28
 2102 04c2 1346     		mov	r3, r2
 2103 04c4 9B00     		lsls	r3, r3, #2
 2104 04c6 1344     		add	r3, r3, r2
 2105 04c8 0B44     		add	r3, r3, r1
 2106 04ca 4833     		adds	r3, r3, #72
 2107 04cc 9B78     		ldrb	r3, [r3, #2]
 2108 04ce DBB2     		uxtb	r3, r3
 2109 04d0 03F00F03 		and	r3, r3, #15
 2110 04d4 DBB2     		uxtb	r3, r3
 2111 04d6 3B72     		strb	r3, [r7, #8]
 534:.\main.c      ****         						precio[2]=lado2.ppu[rventa2.manguera-1][2]&0x0f;
 2112              		.loc 1 534 0
 2113 04d8 3D4B     		ldr	r3, .L110+24
 2114 04da 9B7E     		ldrb	r3, [r3, #26]	@ zero_extendqisi2
 2115 04dc 5A1E     		subs	r2, r3, #1
 2116 04de 3D49     		ldr	r1, .L110+28
 2117 04e0 1346     		mov	r3, r2
 2118 04e2 9B00     		lsls	r3, r3, #2
 2119 04e4 1344     		add	r3, r3, r2
 2120 04e6 0B44     		add	r3, r3, r1
 2121 04e8 4933     		adds	r3, r3, #73
 2122 04ea 9B78     		ldrb	r3, [r3, #2]
 2123 04ec DBB2     		uxtb	r3, r3
ARM GAS  C:\Users\RECEPC~1\AppData\Local\Temp\ccU7e2eq.s 			page 50


 2124 04ee 03F00F03 		and	r3, r3, #15
 2125 04f2 DBB2     		uxtb	r3, r3
 2126 04f4 7B72     		strb	r3, [r7, #9]
 535:.\main.c      ****         						precio[3]=lado2.ppu[rventa2.manguera-1][3]&0x0f;
 2127              		.loc 1 535 0
 2128 04f6 364B     		ldr	r3, .L110+24
 2129 04f8 9B7E     		ldrb	r3, [r3, #26]	@ zero_extendqisi2
 2130 04fa 5A1E     		subs	r2, r3, #1
 2131 04fc 3549     		ldr	r1, .L110+28
 2132 04fe 1346     		mov	r3, r2
 2133 0500 9B00     		lsls	r3, r3, #2
 2134 0502 1344     		add	r3, r3, r2
 2135 0504 0B44     		add	r3, r3, r1
 2136 0506 4A33     		adds	r3, r3, #74
 2137 0508 9B78     		ldrb	r3, [r3, #2]
 2138 050a DBB2     		uxtb	r3, r3
 2139 050c 03F00F03 		and	r3, r3, #15
 2140 0510 DBB2     		uxtb	r3, r3
 2141 0512 BB72     		strb	r3, [r7, #10]
 536:.\main.c      ****         						precio[4]=lado2.ppu[rventa2.manguera-1][4]&0x0f;
 2142              		.loc 1 536 0
 2143 0514 2E4B     		ldr	r3, .L110+24
 2144 0516 9B7E     		ldrb	r3, [r3, #26]	@ zero_extendqisi2
 2145 0518 5A1E     		subs	r2, r3, #1
 2146 051a 2E49     		ldr	r1, .L110+28
 2147 051c 1346     		mov	r3, r2
 2148 051e 9B00     		lsls	r3, r3, #2
 2149 0520 1344     		add	r3, r3, r2
 2150 0522 0B44     		add	r3, r3, r1
 2151 0524 4B33     		adds	r3, r3, #75
 2152 0526 9B78     		ldrb	r3, [r3, #2]
 2153 0528 DBB2     		uxtb	r3, r3
 2154 052a 03F00F03 		and	r3, r3, #15
 2155 052e DBB2     		uxtb	r3, r3
 2156 0530 FB72     		strb	r3, [r7, #11]
 537:.\main.c      ****                             	if(cambiar_precio((lado2.dir & 0x0F),precio,rventa2.manguera)==0){
 2157              		.loc 1 537 0
 2158 0532 274B     		ldr	r3, .L110+24
 2159 0534 9B7E     		ldrb	r3, [r3, #26]	@ zero_extendqisi2
 2160 0536 5A1E     		subs	r2, r3, #1
 2161 0538 2649     		ldr	r1, .L110+28
 2162 053a 1346     		mov	r3, r2
 2163 053c 9B00     		lsls	r3, r3, #2
 2164 053e 1344     		add	r3, r3, r2
 2165 0540 0B44     		add	r3, r3, r1
 2166 0542 4C33     		adds	r3, r3, #76
 2167 0544 9B78     		ldrb	r3, [r3, #2]
 2168 0546 DBB2     		uxtb	r3, r3
 2169 0548 03F00F03 		and	r3, r3, #15
 2170 054c DBB2     		uxtb	r3, r3
 2171 054e 3B73     		strb	r3, [r7, #12]
 538:.\main.c      ****     								rf_mod[0]='M';
 2172              		.loc 1 538 0
 2173 0550 204B     		ldr	r3, .L110+28
 2174 0552 1B78     		ldrb	r3, [r3]
 2175 0554 DBB2     		uxtb	r3, r3
 2176 0556 03F00F03 		and	r3, r3, #15
ARM GAS  C:\Users\RECEPC~1\AppData\Local\Temp\ccU7e2eq.s 			page 51


 2177 055a D9B2     		uxtb	r1, r3
 2178 055c 1C4B     		ldr	r3, .L110+24
 2179 055e 9B7E     		ldrb	r3, [r3, #26]	@ zero_extendqisi2
 2180 0560 07F10802 		add	r2, r7, #8
 2181 0564 0846     		mov	r0, r1
 2182 0566 1146     		mov	r1, r2
 2183 0568 1A46     		mov	r2, r3
 2184 056a FFF7FEFF 		bl	cambiar_precio
 2185 056e 0346     		mov	r3, r0
 2186 0570 002B     		cmp	r3, #0
 2187 0572 40F09E80 		bne	.L83
 539:.\main.c      ****     								rf_mod[1]='U';
 2188              		.loc 1 539 0
 2189 0576 144B     		ldr	r3, .L110+16
 2190 0578 4D22     		movs	r2, #77
 2191 057a 1A70     		strb	r2, [r3]
 540:.\main.c      ****     								rf_mod[2]='X';
 2192              		.loc 1 540 0
 2193 057c 124B     		ldr	r3, .L110+16
 2194 057e 5522     		movs	r2, #85
 2195 0580 5A70     		strb	r2, [r3, #1]
 541:.\main.c      ****     								rf_mod[3]=creset;
 2196              		.loc 1 541 0
 2197 0582 114B     		ldr	r3, .L110+16
 2198 0584 5822     		movs	r2, #88
 2199 0586 9A70     		strb	r2, [r3, #2]
 542:.\main.c      ****     								rf_mod[4]=cautorizar;
 2200              		.loc 1 542 0
 2201 0588 0F4B     		ldr	r3, .L110+16
 2202 058a 4522     		movs	r2, #69
 2203 058c DA70     		strb	r2, [r3, #3]
 543:.\main.c      ****     								rf_mod[5]=PC_rxBuffer[4];
 2204              		.loc 1 543 0
 2205 058e 0E4B     		ldr	r3, .L110+16
 2206 0590 3022     		movs	r2, #48
 2207 0592 1A71     		strb	r2, [r3, #4]
 544:.\main.c      ****     								rf_mod[6]='1';
 2208              		.loc 1 544 0
 2209 0594 084B     		ldr	r3, .L110
 2210 0596 1B79     		ldrb	r3, [r3, #4]
 2211 0598 DAB2     		uxtb	r2, r3
 2212 059a 0B4B     		ldr	r3, .L110+16
 2213 059c 5A71     		strb	r2, [r3, #5]
 545:.\main.c      ****     								rf_mod[7]='*';
 2214              		.loc 1 545 0
 2215 059e 0A4B     		ldr	r3, .L110+16
 2216 05a0 3122     		movs	r2, #49
 2217 05a2 9A71     		strb	r2, [r3, #6]
 546:.\main.c      ****     								size=8;
 2218              		.loc 1 546 0
 2219 05a4 084B     		ldr	r3, .L110+16
 2220 05a6 2A22     		movs	r2, #42
 2221 05a8 DA71     		strb	r2, [r3, #7]
 547:.\main.c      ****     								ok_datosRF=1;
 2222              		.loc 1 547 0
 2223 05aa 0823     		movs	r3, #8
 2224 05ac FB82     		strh	r3, [r7, #22]	@ movhi
ARM GAS  C:\Users\RECEPC~1\AppData\Local\Temp\ccU7e2eq.s 			page 52


 548:.\main.c      ****     								break;
 2225              		.loc 1 548 0
 2226 05ae 074B     		ldr	r3, .L110+20
 2227 05b0 0122     		movs	r2, #1
 2228 05b2 1A70     		strb	r2, [r3]
 549:.\main.c      ****     							}                                                      
 2229              		.loc 1 549 0
 2230 05b4 9DE2     		b	.L57
 2231              	.L111:
 2232 05b6 00BF     		.align	2
 2233              	.L110:
 2234 05b8 00000000 		.word	PC_rxBuffer
 2235 05bc 00000000 		.word	lado1
 2236 05c0 00000000 		.word	rventa1
 2237 05c4 00000000 		.word	flujo_LCD1
 2238 05c8 00000000 		.word	rf_mod
 2239 05cc 00000000 		.word	ok_datosRF
 2240 05d0 00000000 		.word	rventa2
 2241 05d4 00000000 		.word	lado2
 2242              	.L82:
 553:.\main.c      ****                                 if(ppux10==1){
 2243              		.loc 1 553 0
 2244 05d8 AE4B     		ldr	r3, .L112
 2245 05da 1B78     		ldrb	r3, [r3]
 2246 05dc DAB2     		uxtb	r2, r3
 2247 05de AD4B     		ldr	r3, .L112
 2248 05e0 93F85C30 		ldrb	r3, [r3, #92]
 2249 05e4 DBB2     		uxtb	r3, r3
 2250 05e6 1046     		mov	r0, r2
 2251 05e8 1946     		mov	r1, r3
 2252 05ea FFF7FEFF 		bl	totales
 554:.\main.c      ****         							precio[4]=PC_rxBuffer[9];	
 2253              		.loc 1 554 0
 2254 05ee AA4B     		ldr	r3, .L112+4
 2255 05f0 1B78     		ldrb	r3, [r3]
 2256 05f2 DBB2     		uxtb	r3, r3
 2257 05f4 012B     		cmp	r3, #1
 2258 05f6 11D1     		bne	.L84
 555:.\main.c      ****         							precio[3]=PC_rxBuffer[8];
 2259              		.loc 1 555 0
 2260 05f8 A84B     		ldr	r3, .L112+8
 2261 05fa 5B7A     		ldrb	r3, [r3, #9]
 2262 05fc DBB2     		uxtb	r3, r3
 2263 05fe 3B73     		strb	r3, [r7, #12]
 556:.\main.c      ****         							precio[2]=PC_rxBuffer[7];
 2264              		.loc 1 556 0
 2265 0600 A64B     		ldr	r3, .L112+8
 2266 0602 1B7A     		ldrb	r3, [r3, #8]
 2267 0604 DBB2     		uxtb	r3, r3
 2268 0606 FB72     		strb	r3, [r7, #11]
 557:.\main.c      ****         							precio[1]=PC_rxBuffer[6];
 2269              		.loc 1 557 0
 2270 0608 A44B     		ldr	r3, .L112+8
 2271 060a DB79     		ldrb	r3, [r3, #7]
 2272 060c DBB2     		uxtb	r3, r3
 2273 060e BB72     		strb	r3, [r7, #10]
 558:.\main.c      ****         							precio[0]=0;			
ARM GAS  C:\Users\RECEPC~1\AppData\Local\Temp\ccU7e2eq.s 			page 53


 2274              		.loc 1 558 0
 2275 0610 A24B     		ldr	r3, .L112+8
 2276 0612 9B79     		ldrb	r3, [r3, #6]
 2277 0614 DBB2     		uxtb	r3, r3
 2278 0616 7B72     		strb	r3, [r7, #9]
 559:.\main.c      ****                                 }
 2279              		.loc 1 559 0
 2280 0618 0023     		movs	r3, #0
 2281 061a 3B72     		strb	r3, [r7, #8]
 2282              	.L84:
 561:.\main.c      ****         							precio[4]=PC_rxBuffer[10];	
 2283              		.loc 1 561 0
 2284 061c 9E4B     		ldr	r3, .L112+4
 2285 061e 1B78     		ldrb	r3, [r3]
 2286 0620 DBB2     		uxtb	r3, r3
 2287 0622 002B     		cmp	r3, #0
 2288 0624 13D1     		bne	.L85
 562:.\main.c      ****         							precio[3]=PC_rxBuffer[9];
 2289              		.loc 1 562 0
 2290 0626 9D4B     		ldr	r3, .L112+8
 2291 0628 9B7A     		ldrb	r3, [r3, #10]
 2292 062a DBB2     		uxtb	r3, r3
 2293 062c 3B73     		strb	r3, [r7, #12]
 563:.\main.c      ****         							precio[2]=PC_rxBuffer[8];
 2294              		.loc 1 563 0
 2295 062e 9B4B     		ldr	r3, .L112+8
 2296 0630 5B7A     		ldrb	r3, [r3, #9]
 2297 0632 DBB2     		uxtb	r3, r3
 2298 0634 FB72     		strb	r3, [r7, #11]
 564:.\main.c      ****         							precio[1]=PC_rxBuffer[7];
 2299              		.loc 1 564 0
 2300 0636 994B     		ldr	r3, .L112+8
 2301 0638 1B7A     		ldrb	r3, [r3, #8]
 2302 063a DBB2     		uxtb	r3, r3
 2303 063c BB72     		strb	r3, [r7, #10]
 565:.\main.c      ****         							precio[0]=PC_rxBuffer[6];                            
 2304              		.loc 1 565 0
 2305 063e 974B     		ldr	r3, .L112+8
 2306 0640 DB79     		ldrb	r3, [r3, #7]
 2307 0642 DBB2     		uxtb	r3, r3
 2308 0644 7B72     		strb	r3, [r7, #9]
 566:.\main.c      ****                                 }
 2309              		.loc 1 566 0
 2310 0646 954B     		ldr	r3, .L112+8
 2311 0648 9B79     		ldrb	r3, [r3, #6]
 2312 064a DBB2     		uxtb	r3, r3
 2313 064c 3B72     		strb	r3, [r7, #8]
 2314              	.L85:
 568:.\main.c      ****     								rf_mod[0]='M';
 2315              		.loc 1 568 0
 2316 064e 914B     		ldr	r3, .L112
 2317 0650 1B78     		ldrb	r3, [r3]
 2318 0652 DBB2     		uxtb	r3, r3
 2319 0654 03F00F03 		and	r3, r3, #15
 2320 0658 D9B2     		uxtb	r1, r3
 2321 065a 914B     		ldr	r3, .L112+12
 2322 065c 9B7E     		ldrb	r3, [r3, #26]	@ zero_extendqisi2
ARM GAS  C:\Users\RECEPC~1\AppData\Local\Temp\ccU7e2eq.s 			page 54


 2323 065e 07F10802 		add	r2, r7, #8
 2324 0662 0846     		mov	r0, r1
 2325 0664 1146     		mov	r1, r2
 2326 0666 1A46     		mov	r2, r3
 2327 0668 FFF7FEFF 		bl	cambiar_precio
 2328 066c 0346     		mov	r3, r0
 2329 066e 002B     		cmp	r3, #0
 2330 0670 1FD1     		bne	.L83
 569:.\main.c      ****     								rf_mod[1]='U';
 2331              		.loc 1 569 0
 2332 0672 8C4B     		ldr	r3, .L112+16
 2333 0674 4D22     		movs	r2, #77
 2334 0676 1A70     		strb	r2, [r3]
 570:.\main.c      ****     								rf_mod[2]='X';
 2335              		.loc 1 570 0
 2336 0678 8A4B     		ldr	r3, .L112+16
 2337 067a 5522     		movs	r2, #85
 2338 067c 5A70     		strb	r2, [r3, #1]
 571:.\main.c      ****     								rf_mod[3]=creset;
 2339              		.loc 1 571 0
 2340 067e 894B     		ldr	r3, .L112+16
 2341 0680 5822     		movs	r2, #88
 2342 0682 9A70     		strb	r2, [r3, #2]
 572:.\main.c      ****     								rf_mod[4]=cautorizar;
 2343              		.loc 1 572 0
 2344 0684 874B     		ldr	r3, .L112+16
 2345 0686 4522     		movs	r2, #69
 2346 0688 DA70     		strb	r2, [r3, #3]
 573:.\main.c      ****     								rf_mod[5]=PC_rxBuffer[4];
 2347              		.loc 1 573 0
 2348 068a 864B     		ldr	r3, .L112+16
 2349 068c 3022     		movs	r2, #48
 2350 068e 1A71     		strb	r2, [r3, #4]
 574:.\main.c      ****     								rf_mod[6]='1';
 2351              		.loc 1 574 0
 2352 0690 824B     		ldr	r3, .L112+8
 2353 0692 1B79     		ldrb	r3, [r3, #4]
 2354 0694 DAB2     		uxtb	r2, r3
 2355 0696 834B     		ldr	r3, .L112+16
 2356 0698 5A71     		strb	r2, [r3, #5]
 575:.\main.c      ****     								rf_mod[7]='*';
 2357              		.loc 1 575 0
 2358 069a 824B     		ldr	r3, .L112+16
 2359 069c 3122     		movs	r2, #49
 2360 069e 9A71     		strb	r2, [r3, #6]
 576:.\main.c      ****     								size=8;
 2361              		.loc 1 576 0
 2362 06a0 804B     		ldr	r3, .L112+16
 2363 06a2 2A22     		movs	r2, #42
 2364 06a4 DA71     		strb	r2, [r3, #7]
 577:.\main.c      ****     								ok_datosRF=1;
 2365              		.loc 1 577 0
 2366 06a6 0823     		movs	r3, #8
 2367 06a8 FB82     		strh	r3, [r7, #22]	@ movhi
 578:.\main.c      ****     								break;
 2368              		.loc 1 578 0
 2369 06aa 7F4B     		ldr	r3, .L112+20
ARM GAS  C:\Users\RECEPC~1\AppData\Local\Temp\ccU7e2eq.s 			page 55


 2370 06ac 0122     		movs	r2, #1
 2371 06ae 1A70     		strb	r2, [r3]
 579:.\main.c      ****     							}
 2372              		.loc 1 579 0
 2373 06b0 1FE2     		b	.L57
 2374              	.L83:
 582:.\main.c      ****     						if(PC_rxBuffer[17]!=','){
 2375              		.loc 1 582 0
 2376 06b2 7A4B     		ldr	r3, .L112+8
 2377 06b4 5B7C     		ldrb	r3, [r3, #17]
 2378 06b6 DBB2     		uxtb	r3, r3
 2379 06b8 7B70     		strb	r3, [r7, #1]
 583:.\main.c      ****     							preset[1]=PC_rxBuffer[17] & 0x0F;
 2380              		.loc 1 583 0
 2381 06ba 784B     		ldr	r3, .L112+8
 2382 06bc 5B7C     		ldrb	r3, [r3, #17]
 2383 06be DBB2     		uxtb	r3, r3
 2384 06c0 2C2B     		cmp	r3, #44
 2385 06c2 06D0     		beq	.L86
 584:.\main.c      ****     						}
 2386              		.loc 1 584 0
 2387 06c4 754B     		ldr	r3, .L112+8
 2388 06c6 5B7C     		ldrb	r3, [r3, #17]
 2389 06c8 DBB2     		uxtb	r3, r3
 2390 06ca 03F00F03 		and	r3, r3, #15
 2391 06ce DBB2     		uxtb	r3, r3
 2392 06d0 7B70     		strb	r3, [r7, #1]
 2393              	.L86:
 586:.\main.c      ****     						if(PC_rxBuffer[16]!=','){
 2394              		.loc 1 586 0
 2395 06d2 724B     		ldr	r3, .L112+8
 2396 06d4 1B7C     		ldrb	r3, [r3, #16]
 2397 06d6 DBB2     		uxtb	r3, r3
 2398 06d8 BB70     		strb	r3, [r7, #2]
 587:.\main.c      ****     							preset[2]=PC_rxBuffer[16] & 0x0F;
 2399              		.loc 1 587 0
 2400 06da 704B     		ldr	r3, .L112+8
 2401 06dc 1B7C     		ldrb	r3, [r3, #16]
 2402 06de DBB2     		uxtb	r3, r3
 2403 06e0 2C2B     		cmp	r3, #44
 2404 06e2 06D0     		beq	.L87
 588:.\main.c      ****     						}
 2405              		.loc 1 588 0
 2406 06e4 6D4B     		ldr	r3, .L112+8
 2407 06e6 1B7C     		ldrb	r3, [r3, #16]
 2408 06e8 DBB2     		uxtb	r3, r3
 2409 06ea 03F00F03 		and	r3, r3, #15
 2410 06ee DBB2     		uxtb	r3, r3
 2411 06f0 BB70     		strb	r3, [r7, #2]
 2412              	.L87:
 590:.\main.c      ****     						if(PC_rxBuffer[15]!=','){
 2413              		.loc 1 590 0
 2414 06f2 6A4B     		ldr	r3, .L112+8
 2415 06f4 DB7B     		ldrb	r3, [r3, #15]
 2416 06f6 DBB2     		uxtb	r3, r3
 2417 06f8 FB70     		strb	r3, [r7, #3]
 591:.\main.c      ****     							preset[3]=PC_rxBuffer[15] & 0x0F;
ARM GAS  C:\Users\RECEPC~1\AppData\Local\Temp\ccU7e2eq.s 			page 56


 2418              		.loc 1 591 0
 2419 06fa 684B     		ldr	r3, .L112+8
 2420 06fc DB7B     		ldrb	r3, [r3, #15]
 2421 06fe DBB2     		uxtb	r3, r3
 2422 0700 2C2B     		cmp	r3, #44
 2423 0702 06D0     		beq	.L88
 592:.\main.c      ****     						}
 2424              		.loc 1 592 0
 2425 0704 654B     		ldr	r3, .L112+8
 2426 0706 DB7B     		ldrb	r3, [r3, #15]
 2427 0708 DBB2     		uxtb	r3, r3
 2428 070a 03F00F03 		and	r3, r3, #15
 2429 070e DBB2     		uxtb	r3, r3
 2430 0710 FB70     		strb	r3, [r7, #3]
 2431              	.L88:
 594:.\main.c      ****     						if(PC_rxBuffer[14]!=','){
 2432              		.loc 1 594 0
 2433 0712 624B     		ldr	r3, .L112+8
 2434 0714 9B7B     		ldrb	r3, [r3, #14]
 2435 0716 DBB2     		uxtb	r3, r3
 2436 0718 3B71     		strb	r3, [r7, #4]
 595:.\main.c      ****     							preset[4]=PC_rxBuffer[14] & 0x0F;
 2437              		.loc 1 595 0
 2438 071a 604B     		ldr	r3, .L112+8
 2439 071c 9B7B     		ldrb	r3, [r3, #14]
 2440 071e DBB2     		uxtb	r3, r3
 2441 0720 2C2B     		cmp	r3, #44
 2442 0722 06D0     		beq	.L89
 596:.\main.c      ****     						}
 2443              		.loc 1 596 0
 2444 0724 5D4B     		ldr	r3, .L112+8
 2445 0726 9B7B     		ldrb	r3, [r3, #14]
 2446 0728 DBB2     		uxtb	r3, r3
 2447 072a 03F00F03 		and	r3, r3, #15
 2448 072e DBB2     		uxtb	r3, r3
 2449 0730 3B71     		strb	r3, [r7, #4]
 2450              	.L89:
 598:.\main.c      ****     						if(PC_rxBuffer[13]!=','){
 2451              		.loc 1 598 0
 2452 0732 5A4B     		ldr	r3, .L112+8
 2453 0734 5B7B     		ldrb	r3, [r3, #13]
 2454 0736 DBB2     		uxtb	r3, r3
 2455 0738 7B71     		strb	r3, [r7, #5]
 599:.\main.c      ****     							preset[5]=PC_rxBuffer[13] & 0x0F;
 2456              		.loc 1 599 0
 2457 073a 584B     		ldr	r3, .L112+8
 2458 073c 5B7B     		ldrb	r3, [r3, #13]
 2459 073e DBB2     		uxtb	r3, r3
 2460 0740 2C2B     		cmp	r3, #44
 2461 0742 06D0     		beq	.L90
 600:.\main.c      ****     						}
 2462              		.loc 1 600 0
 2463 0744 554B     		ldr	r3, .L112+8
 2464 0746 5B7B     		ldrb	r3, [r3, #13]
 2465 0748 DBB2     		uxtb	r3, r3
 2466 074a 03F00F03 		and	r3, r3, #15
 2467 074e DBB2     		uxtb	r3, r3
ARM GAS  C:\Users\RECEPC~1\AppData\Local\Temp\ccU7e2eq.s 			page 57


 2468 0750 7B71     		strb	r3, [r7, #5]
 2469              	.L90:
 602:.\main.c      ****     						if(PC_rxBuffer[12]!=','){
 2470              		.loc 1 602 0
 2471 0752 524B     		ldr	r3, .L112+8
 2472 0754 1B7B     		ldrb	r3, [r3, #12]
 2473 0756 DBB2     		uxtb	r3, r3
 2474 0758 BB71     		strb	r3, [r7, #6]
 603:.\main.c      ****     							preset[6]=PC_rxBuffer[12] & 0x0F;
 2475              		.loc 1 603 0
 2476 075a 504B     		ldr	r3, .L112+8
 2477 075c 1B7B     		ldrb	r3, [r3, #12]
 2478 075e DBB2     		uxtb	r3, r3
 2479 0760 2C2B     		cmp	r3, #44
 2480 0762 06D0     		beq	.L91
 604:.\main.c      ****     						}
 2481              		.loc 1 604 0
 2482 0764 4D4B     		ldr	r3, .L112+8
 2483 0766 1B7B     		ldrb	r3, [r3, #12]
 2484 0768 DBB2     		uxtb	r3, r3
 2485 076a 03F00F03 		and	r3, r3, #15
 2486 076e DBB2     		uxtb	r3, r3
 2487 0770 BB71     		strb	r3, [r7, #6]
 2488              	.L91:
 606:.\main.c      ****     						if(PC_rxBuffer[11]!=','){
 2489              		.loc 1 606 0
 2490 0772 4A4B     		ldr	r3, .L112+8
 2491 0774 DB7A     		ldrb	r3, [r3, #11]
 2492 0776 DBB2     		uxtb	r3, r3
 2493 0778 FB71     		strb	r3, [r7, #7]
 607:.\main.c      ****     							preset[7]=PC_rxBuffer[11] & 0x0F;
 2494              		.loc 1 607 0
 2495 077a 484B     		ldr	r3, .L112+8
 2496 077c DB7A     		ldrb	r3, [r3, #11]
 2497 077e DBB2     		uxtb	r3, r3
 2498 0780 2C2B     		cmp	r3, #44
 2499 0782 06D0     		beq	.L92
 608:.\main.c      ****     						}
 2500              		.loc 1 608 0
 2501 0784 454B     		ldr	r3, .L112+8
 2502 0786 DB7A     		ldrb	r3, [r3, #11]
 2503 0788 DBB2     		uxtb	r3, r3
 2504 078a 03F00F03 		and	r3, r3, #15
 2505 078e DBB2     		uxtb	r3, r3
 2506 0790 FB71     		strb	r3, [r7, #7]
 2507              	.L92:
 610:.\main.c      ****     						if(t_preset=='1'){
 2508              		.loc 1 610 0
 2509 0792 424B     		ldr	r3, .L112+8
 2510 0794 9B7C     		ldrb	r3, [r3, #18]
 2511 0796 DBB2     		uxtb	r3, r3
 2512 0798 7B82     		strh	r3, [r7, #18]	@ movhi
 611:.\main.c      ****     							t_preset=2;
 2513              		.loc 1 611 0
 2514 079a 7B8A     		ldrh	r3, [r7, #18]
 2515 079c 312B     		cmp	r3, #49
 2516 079e 02D1     		bne	.L93
ARM GAS  C:\Users\RECEPC~1\AppData\Local\Temp\ccU7e2eq.s 			page 58


 612:.\main.c      ****     						}
 2517              		.loc 1 612 0
 2518 07a0 0223     		movs	r3, #2
 2519 07a2 7B82     		strh	r3, [r7, #18]	@ movhi
 2520 07a4 01E0     		b	.L94
 2521              	.L93:
 615:.\main.c      ****     						}
 2522              		.loc 1 615 0
 2523 07a6 0123     		movs	r3, #1
 2524 07a8 7B82     		strh	r3, [r7, #18]	@ movhi
 2525              	.L94:
 617:.\main.c      ****                                 if(ppuinicial==0){                          
 2526              		.loc 1 617 0
 2527 07aa 3A4B     		ldr	r3, .L112
 2528 07ac 1B78     		ldrb	r3, [r3]
 2529 07ae DBB2     		uxtb	r3, r3
 2530 07b0 03F00F03 		and	r3, r3, #15
 2531 07b4 D8B2     		uxtb	r0, r3
 2532 07b6 3A4B     		ldr	r3, .L112+12
 2533 07b8 997E     		ldrb	r1, [r3, #26]	@ zero_extendqisi2
 2534 07ba 7B8A     		ldrh	r3, [r7, #18]	@ movhi
 2535 07bc DBB2     		uxtb	r3, r3
 2536 07be 3A46     		mov	r2, r7
 2537 07c0 FFF7FEFF 		bl	programar
 2538 07c4 0346     		mov	r3, r0
 2539 07c6 012B     		cmp	r3, #1
 2540 07c8 1BD1     		bne	.L95
 632:.\main.c      ****     							Surtidor_PutChar(0x10|(lado2.dir & 0x0F));							
 2541              		.loc 1 632 0
 2542 07ca 0A20     		movs	r0, #10
 2543 07cc FFF7FEFF 		bl	CyDelay
 633:.\main.c      ****     							lado2.estado=tanqueo;
 2544              		.loc 1 633 0
 2545 07d0 304B     		ldr	r3, .L112
 2546 07d2 1B78     		ldrb	r3, [r3]
 2547 07d4 DBB2     		uxtb	r3, r3
 2548 07d6 DBB2     		uxtb	r3, r3
 2549 07d8 03F00F03 		and	r3, r3, #15
 2550 07dc DBB2     		uxtb	r3, r3
 2551 07de 43F01003 		orr	r3, r3, #16
 2552 07e2 DBB2     		uxtb	r3, r3
 2553 07e4 DBB2     		uxtb	r3, r3
 2554 07e6 1846     		mov	r0, r3
 2555 07e8 FFF7FEFF 		bl	Surtidor_PutChar
 634:.\main.c      ****     							flujo_LCD1=8;
 2556              		.loc 1 634 0
 2557 07ec 294B     		ldr	r3, .L112
 2558 07ee 0622     		movs	r2, #6
 2559 07f0 5A70     		strb	r2, [r3, #1]
 635:.\main.c      ****     							set_imagen(1,8);
 2560              		.loc 1 635 0
 2561 07f2 2E4B     		ldr	r3, .L112+24
 2562 07f4 0822     		movs	r2, #8
 2563 07f6 1A70     		strb	r2, [r3]
 636:.\main.c      ****     						}
 2564              		.loc 1 636 0
 2565 07f8 0120     		movs	r0, #1
ARM GAS  C:\Users\RECEPC~1\AppData\Local\Temp\ccU7e2eq.s 			page 59


 2566 07fa 0821     		movs	r1, #8
 2567 07fc FFF7FEFF 		bl	set_imagen
 2568 0800 1FE0     		b	.L80
 2569              	.L95:
 639:.\main.c      ****     							rf_mod[1]='U';
 2570              		.loc 1 639 0
 2571 0802 284B     		ldr	r3, .L112+16
 2572 0804 4D22     		movs	r2, #77
 2573 0806 1A70     		strb	r2, [r3]
 640:.\main.c      ****     							rf_mod[2]='X';
 2574              		.loc 1 640 0
 2575 0808 264B     		ldr	r3, .L112+16
 2576 080a 5522     		movs	r2, #85
 2577 080c 5A70     		strb	r2, [r3, #1]
 641:.\main.c      ****     							rf_mod[3]=creset;
 2578              		.loc 1 641 0
 2579 080e 254B     		ldr	r3, .L112+16
 2580 0810 5822     		movs	r2, #88
 2581 0812 9A70     		strb	r2, [r3, #2]
 642:.\main.c      ****     							rf_mod[4]=cautorizar;
 2582              		.loc 1 642 0
 2583 0814 234B     		ldr	r3, .L112+16
 2584 0816 4522     		movs	r2, #69
 2585 0818 DA70     		strb	r2, [r3, #3]
 643:.\main.c      ****     							rf_mod[5]=PC_rxBuffer[4];
 2586              		.loc 1 643 0
 2587 081a 224B     		ldr	r3, .L112+16
 2588 081c 3022     		movs	r2, #48
 2589 081e 1A71     		strb	r2, [r3, #4]
 644:.\main.c      ****     							rf_mod[6]='2';
 2590              		.loc 1 644 0
 2591 0820 1E4B     		ldr	r3, .L112+8
 2592 0822 1B79     		ldrb	r3, [r3, #4]
 2593 0824 DAB2     		uxtb	r2, r3
 2594 0826 1F4B     		ldr	r3, .L112+16
 2595 0828 5A71     		strb	r2, [r3, #5]
 645:.\main.c      ****     							rf_mod[7]='*';
 2596              		.loc 1 645 0
 2597 082a 1E4B     		ldr	r3, .L112+16
 2598 082c 3222     		movs	r2, #50
 2599 082e 9A71     		strb	r2, [r3, #6]
 646:.\main.c      ****     							size=8;
 2600              		.loc 1 646 0
 2601 0830 1C4B     		ldr	r3, .L112+16
 2602 0832 2A22     		movs	r2, #42
 2603 0834 DA71     		strb	r2, [r3, #7]
 647:.\main.c      ****     							ok_datosRF=1;							
 2604              		.loc 1 647 0
 2605 0836 0823     		movs	r3, #8
 2606 0838 FB82     		strh	r3, [r7, #22]	@ movhi
 648:.\main.c      ****     						}                    
 2607              		.loc 1 648 0
 2608 083a 1B4B     		ldr	r3, .L112+20
 2609 083c 0122     		movs	r2, #1
 2610 083e 1A70     		strb	r2, [r3]
 2611              		.loc 1 651 0
 2612 0840 57E1     		b	.L57
ARM GAS  C:\Users\RECEPC~1\AppData\Local\Temp\ccU7e2eq.s 			page 60


 2613              	.L80:
 2614              		.loc 1 651 0 is_stmt 0 discriminator 1
 2615 0842 56E1     		b	.L57
 2616              	.L60:
 652:.\main.c      **** 					
 653:.\main.c      **** 					case cimprimir:
 654:.\main.c      **** 						set_imagen(1,55);					
 2617              		.loc 1 654 0 is_stmt 1
 2618 0844 0120     		movs	r0, #1
 2619 0846 3721     		movs	r1, #55
 2620 0848 FFF7FEFF 		bl	set_imagen
 655:.\main.c      **** 						if(lado1.dir==(lado1.dir & 0x0F)){
 2621              		.loc 1 655 0
 2622 084c 184B     		ldr	r3, .L112+28
 2623 084e 1B78     		ldrb	r3, [r3]
 2624 0850 DBB2     		uxtb	r3, r3
 2625 0852 1A46     		mov	r2, r3
 2626 0854 164B     		ldr	r3, .L112+28
 2627 0856 1B78     		ldrb	r3, [r3]
 2628 0858 DBB2     		uxtb	r3, r3
 2629 085a 03F00F03 		and	r3, r3, #15
 2630 085e 9A42     		cmp	r2, r3
 2631 0860 06D1     		bne	.L96
 656:.\main.c      **** 							lado1.estado=libre;
 2632              		.loc 1 656 0
 2633 0862 134B     		ldr	r3, .L112+28
 2634 0864 0122     		movs	r2, #1
 2635 0866 5A70     		strb	r2, [r3, #1]
 657:.\main.c      **** 							flujo_LCD1=0;
 2636              		.loc 1 657 0
 2637 0868 104B     		ldr	r3, .L112+24
 2638 086a 0022     		movs	r2, #0
 2639 086c 1A70     		strb	r2, [r3]
 2640 086e 21E0     		b	.L97
 2641              	.L96:
 658:.\main.c      **** 						}
 659:.\main.c      **** 						else if(lado2.dir==(PC_rxBuffer[4] & 0x0F)){
 2642              		.loc 1 659 0
 2643 0870 084B     		ldr	r3, .L112
 2644 0872 1B78     		ldrb	r3, [r3]
 2645 0874 DBB2     		uxtb	r3, r3
 2646 0876 1A46     		mov	r2, r3
 2647 0878 084B     		ldr	r3, .L112+8
 2648 087a 1B79     		ldrb	r3, [r3, #4]
 2649 087c DBB2     		uxtb	r3, r3
 2650 087e 03F00F03 		and	r3, r3, #15
 2651 0882 9A42     		cmp	r2, r3
 2652 0884 16D1     		bne	.L97
 660:.\main.c      **** 							lado2.estado=libre;
 2653              		.loc 1 660 0
 2654 0886 034B     		ldr	r3, .L112
 2655 0888 0122     		movs	r2, #1
 2656 088a 5A70     		strb	r2, [r3, #1]
 661:.\main.c      **** 							flujo_LCD1=0;
 2657              		.loc 1 661 0
 2658 088c 074B     		ldr	r3, .L112+24
 2659 088e 0022     		movs	r2, #0
ARM GAS  C:\Users\RECEPC~1\AppData\Local\Temp\ccU7e2eq.s 			page 61


 2660 0890 1A70     		strb	r2, [r3]
 662:.\main.c      **** 						}						
 663:.\main.c      **** 					break;
 2661              		.loc 1 663 0
 2662 0892 2EE1     		b	.L57
 2663              	.L113:
 2664              		.align	2
 2665              	.L112:
 2666 0894 00000000 		.word	lado2
 2667 0898 00000000 		.word	ppux10
 2668 089c 00000000 		.word	PC_rxBuffer
 2669 08a0 00000000 		.word	rventa2
 2670 08a4 00000000 		.word	rf_mod
 2671 08a8 00000000 		.word	ok_datosRF
 2672 08ac 00000000 		.word	flujo_LCD1
 2673 08b0 00000000 		.word	lado1
 2674              	.L97:
 2675 08b4 1DE1     		b	.L57
 2676              	.L62:
 664:.\main.c      **** 					
 665:.\main.c      **** 					case creset:                                   
 666:.\main.c      ****     						switch(PC_rxBuffer[5]){
 2677              		.loc 1 666 0
 2678 08b6 9E4B     		ldr	r3, .L114
 2679 08b8 5B79     		ldrb	r3, [r3, #5]
 2680 08ba DBB2     		uxtb	r3, r3
 2681 08bc 313B     		subs	r3, r3, #49
 2682 08be 032B     		cmp	r3, #3
 2683 08c0 00F21681 		bhi	.L106
 2684 08c4 01A2     		adr	r2, .L100
 2685 08c6 52F823F0 		ldr	pc, [r2, r3, lsl #2]
 2686 08ca 00BF     		.p2align 2
 2687              	.L100:
 2688 08cc DD080000 		.word	.L99+1
 2689 08d0 ED080000 		.word	.L101+1
 2690 08d4 FD080000 		.word	.L102+1
 2691 08d8 0D090000 		.word	.L107+1
 2692              		.p2align 1
 2693              	.L99:
 667:.\main.c      ****     							case '1':														
 668:.\main.c      ****     								lado1.estado=libre;
 2694              		.loc 1 668 0
 2695 08dc 954B     		ldr	r3, .L114+4
 2696 08de 0122     		movs	r2, #1
 2697 08e0 5A70     		strb	r2, [r3, #1]
 669:.\main.c      ****     								error_op(1,28);					 //Error de id					
 2698              		.loc 1 669 0
 2699 08e2 0120     		movs	r0, #1
 2700 08e4 1C21     		movs	r1, #28
 2701 08e6 FFF7FEFF 		bl	error_op
 670:.\main.c      ****     							break;
 2702              		.loc 1 670 0
 2703 08ea 10E0     		b	.L98
 2704              	.L101:
 671:.\main.c      ****     								
 672:.\main.c      ****     							case '2':
 673:.\main.c      ****     								lado1.estado=libre;
ARM GAS  C:\Users\RECEPC~1\AppData\Local\Temp\ccU7e2eq.s 			page 62


 2705              		.loc 1 673 0
 2706 08ec 914B     		ldr	r3, .L114+4
 2707 08ee 0122     		movs	r2, #1
 2708 08f0 5A70     		strb	r2, [r3, #1]
 674:.\main.c      ****     								error_op(1,12);					//Gracias por su compra
 2709              		.loc 1 674 0
 2710 08f2 0120     		movs	r0, #1
 2711 08f4 0C21     		movs	r1, #12
 2712 08f6 FFF7FEFF 		bl	error_op
 675:.\main.c      ****     							break;
 2713              		.loc 1 675 0
 2714 08fa 08E0     		b	.L98
 2715              	.L102:
 676:.\main.c      ****     								
 677:.\main.c      ****     							case '3':
 678:.\main.c      ****     								lado1.estado=libre;
 2716              		.loc 1 678 0
 2717 08fc 8D4B     		ldr	r3, .L114+4
 2718 08fe 0122     		movs	r2, #1
 2719 0900 5A70     		strb	r2, [r3, #1]
 679:.\main.c      ****     								error_op(1,12);					//Error de Operacion //85
 2720              		.loc 1 679 0
 2721 0902 0120     		movs	r0, #1
 2722 0904 0C21     		movs	r1, #12
 2723 0906 FFF7FEFF 		bl	error_op
 680:.\main.c      ****     							break;
 2724              		.loc 1 680 0
 2725 090a 00E0     		b	.L98
 2726              	.L107:
 681:.\main.c      ****     								
 682:.\main.c      ****     							case '4':
 683:.\main.c      **** //    								lado1.estado=libre;//
 684:.\main.c      **** //    								error_op(1,12);		//			//Fin Corte
 685:.\main.c      ****     							break;								
 2727              		.loc 1 685 0
 2728 090c 00BF     		nop
 2729              	.L98:
 686:.\main.c      ****     								
 687:.\main.c      ****     						}                        
 688:.\main.c      **** 					break;
 2730              		.loc 1 688 0 discriminator 2
 2731 090e EFE0     		b	.L106
 2732              	.L61:
 689:.\main.c      ****                     case cconfigurar:
 690:.\main.c      ****                         lado1.mangueras   = PC_rxBuffer[4]-48; //Numero de mangueras
 2733              		.loc 1 690 0
 2734 0910 874B     		ldr	r3, .L114
 2735 0912 1B79     		ldrb	r3, [r3, #4]
 2736 0914 DBB2     		uxtb	r3, r3
 2737 0916 303B     		subs	r3, r3, #48
 2738 0918 DAB2     		uxtb	r2, r3
 2739 091a 864B     		ldr	r3, .L114+4
 2740 091c 83F85C20 		strb	r2, [r3, #92]
 691:.\main.c      ****                         lado1.grado[0][0] = PC_rxBuffer[5]-48;
 2741              		.loc 1 691 0
 2742 0920 834B     		ldr	r3, .L114
 2743 0922 5B79     		ldrb	r3, [r3, #5]
ARM GAS  C:\Users\RECEPC~1\AppData\Local\Temp\ccU7e2eq.s 			page 63


 2744 0924 DBB2     		uxtb	r3, r3
 2745 0926 303B     		subs	r3, r3, #48
 2746 0928 DAB2     		uxtb	r2, r3
 2747 092a 824B     		ldr	r3, .L114+4
 2748 092c 83F85920 		strb	r2, [r3, #89]
 692:.\main.c      ****                         lado1.grado[1][0] = PC_rxBuffer[6]-48; //Grados
 2749              		.loc 1 692 0
 2750 0930 7F4B     		ldr	r3, .L114
 2751 0932 9B79     		ldrb	r3, [r3, #6]
 2752 0934 DBB2     		uxtb	r3, r3
 2753 0936 303B     		subs	r3, r3, #48
 2754 0938 DAB2     		uxtb	r2, r3
 2755 093a 7E4B     		ldr	r3, .L114+4
 2756 093c 83F85A20 		strb	r2, [r3, #90]
 693:.\main.c      ****                         lado1.grado[2][0] = PC_rxBuffer[7]-48;
 2757              		.loc 1 693 0
 2758 0940 7B4B     		ldr	r3, .L114
 2759 0942 DB79     		ldrb	r3, [r3, #7]
 2760 0944 DBB2     		uxtb	r3, r3
 2761 0946 303B     		subs	r3, r3, #48
 2762 0948 DAB2     		uxtb	r2, r3
 2763 094a 7A4B     		ldr	r3, .L114+4
 2764 094c 83F85B20 		strb	r2, [r3, #91]
 694:.\main.c      ****                         lado2.mangueras   = PC_rxBuffer[8]-48;
 2765              		.loc 1 694 0
 2766 0950 774B     		ldr	r3, .L114
 2767 0952 1B7A     		ldrb	r3, [r3, #8]
 2768 0954 DBB2     		uxtb	r3, r3
 2769 0956 303B     		subs	r3, r3, #48
 2770 0958 DAB2     		uxtb	r2, r3
 2771 095a 774B     		ldr	r3, .L114+8
 2772 095c 83F85C20 		strb	r2, [r3, #92]
 695:.\main.c      ****                         lado2.grado[0][0] = PC_rxBuffer[9]-48;
 2773              		.loc 1 695 0
 2774 0960 734B     		ldr	r3, .L114
 2775 0962 5B7A     		ldrb	r3, [r3, #9]
 2776 0964 DBB2     		uxtb	r3, r3
 2777 0966 303B     		subs	r3, r3, #48
 2778 0968 DAB2     		uxtb	r2, r3
 2779 096a 734B     		ldr	r3, .L114+8
 2780 096c 83F85920 		strb	r2, [r3, #89]
 696:.\main.c      ****                         lado2.grado[1][0] = PC_rxBuffer[10]-48;
 2781              		.loc 1 696 0
 2782 0970 6F4B     		ldr	r3, .L114
 2783 0972 9B7A     		ldrb	r3, [r3, #10]
 2784 0974 DBB2     		uxtb	r3, r3
 2785 0976 303B     		subs	r3, r3, #48
 2786 0978 DAB2     		uxtb	r2, r3
 2787 097a 6F4B     		ldr	r3, .L114+8
 2788 097c 83F85A20 		strb	r2, [r3, #90]
 697:.\main.c      ****                         lado2.grado[2][0] = PC_rxBuffer[11]-48;
 2789              		.loc 1 697 0
 2790 0980 6B4B     		ldr	r3, .L114
 2791 0982 DB7A     		ldrb	r3, [r3, #11]
 2792 0984 DBB2     		uxtb	r3, r3
 2793 0986 303B     		subs	r3, r3, #48
 2794 0988 DAB2     		uxtb	r2, r3
ARM GAS  C:\Users\RECEPC~1\AppData\Local\Temp\ccU7e2eq.s 			page 64


 2795 098a 6B4B     		ldr	r3, .L114+8
 2796 098c 83F85B20 		strb	r2, [r3, #91]
 698:.\main.c      ****                         version[1]    = PC_rxBuffer[12]-48;	//Version surtidor
 2797              		.loc 1 698 0
 2798 0990 674B     		ldr	r3, .L114
 2799 0992 1B7B     		ldrb	r3, [r3, #12]
 2800 0994 DBB2     		uxtb	r3, r3
 2801 0996 303B     		subs	r3, r3, #48
 2802 0998 DAB2     		uxtb	r2, r3
 2803 099a 684B     		ldr	r3, .L114+12
 2804 099c 5A70     		strb	r2, [r3, #1]
 699:.\main.c      ****                     	version[2]    = PC_rxBuffer[13]-48; //Decimales dinero
 2805              		.loc 1 699 0
 2806 099e 644B     		ldr	r3, .L114
 2807 09a0 5B7B     		ldrb	r3, [r3, #13]
 2808 09a2 DBB2     		uxtb	r3, r3
 2809 09a4 303B     		subs	r3, r3, #48
 2810 09a6 DAB2     		uxtb	r2, r3
 2811 09a8 644B     		ldr	r3, .L114+12
 2812 09aa 9A70     		strb	r2, [r3, #2]
 700:.\main.c      ****                     	version[3]    = PC_rxBuffer[14]-48; //Decimales volumen
 2813              		.loc 1 700 0
 2814 09ac 604B     		ldr	r3, .L114
 2815 09ae 9B7B     		ldrb	r3, [r3, #14]
 2816 09b0 DBB2     		uxtb	r3, r3
 2817 09b2 303B     		subs	r3, r3, #48
 2818 09b4 DAB2     		uxtb	r2, r3
 2819 09b6 614B     		ldr	r3, .L114+12
 2820 09b8 DA70     		strb	r2, [r3, #3]
 701:.\main.c      ****                         ppux10        = PC_rxBuffer[15]-48; //ppux10  
 2821              		.loc 1 701 0
 2822 09ba 5D4B     		ldr	r3, .L114
 2823 09bc DB7B     		ldrb	r3, [r3, #15]
 2824 09be DBB2     		uxtb	r3, r3
 2825 09c0 303B     		subs	r3, r3, #48
 2826 09c2 DAB2     		uxtb	r2, r3
 2827 09c4 5E4B     		ldr	r3, .L114+16
 2828 09c6 1A70     		strb	r2, [r3]
 702:.\main.c      ****                         pantallas     = PC_rxBuffer[16]-48; //pantallas por pos  
 2829              		.loc 1 702 0
 2830 09c8 594B     		ldr	r3, .L114
 2831 09ca 1B7C     		ldrb	r3, [r3, #16]
 2832 09cc DBB2     		uxtb	r3, r3
 2833 09ce 303B     		subs	r3, r3, #48
 2834 09d0 DAB2     		uxtb	r2, r3
 2835 09d2 5C4B     		ldr	r3, .L114+20
 2836 09d4 1A70     		strb	r2, [r3]
 703:.\main.c      ****                         kmscreen      = PC_rxBuffer[17]-48; //solicita pantalla de kilometraje   
 2837              		.loc 1 703 0
 2838 09d6 564B     		ldr	r3, .L114
 2839 09d8 5B7C     		ldrb	r3, [r3, #17]
 2840 09da DBB2     		uxtb	r3, r3
 2841 09dc 303B     		subs	r3, r3, #48
 2842 09de DAB2     		uxtb	r2, r3
 2843 09e0 594B     		ldr	r3, .L114+24
 2844 09e2 1A70     		strb	r2, [r3]
 704:.\main.c      ****                         efectivo      = PC_rxBuffer[18]-48; //solicita pantalla de efectivo   
ARM GAS  C:\Users\RECEPC~1\AppData\Local\Temp\ccU7e2eq.s 			page 65


 2845              		.loc 1 704 0
 2846 09e4 524B     		ldr	r3, .L114
 2847 09e6 9B7C     		ldrb	r3, [r3, #18]
 2848 09e8 DBB2     		uxtb	r3, r3
 2849 09ea 303B     		subs	r3, r3, #48
 2850 09ec DAB2     		uxtb	r2, r3
 2851 09ee 574B     		ldr	r3, .L114+28
 2852 09f0 1A70     		strb	r2, [r3]
 705:.\main.c      ****                         
 706:.\main.c      ****                         EEPROM_WriteByte(lado1.mangueras,15);  //Almacena configuraciones en MUX
 2853              		.loc 1 706 0
 2854 09f2 504B     		ldr	r3, .L114+4
 2855 09f4 93F85C30 		ldrb	r3, [r3, #92]
 2856 09f8 DBB2     		uxtb	r3, r3
 2857 09fa 1846     		mov	r0, r3
 2858 09fc 0F21     		movs	r1, #15
 2859 09fe FFF7FEFF 		bl	EEPROM_WriteByte
 707:.\main.c      ****                         EEPROM_WriteByte(lado1.grado[0][0],16);
 2860              		.loc 1 707 0
 2861 0a02 4C4B     		ldr	r3, .L114+4
 2862 0a04 93F85930 		ldrb	r3, [r3, #89]
 2863 0a08 DBB2     		uxtb	r3, r3
 2864 0a0a 1846     		mov	r0, r3
 2865 0a0c 1021     		movs	r1, #16
 2866 0a0e FFF7FEFF 		bl	EEPROM_WriteByte
 708:.\main.c      ****                         EEPROM_WriteByte(lado1.grado[1][0],17);
 2867              		.loc 1 708 0
 2868 0a12 484B     		ldr	r3, .L114+4
 2869 0a14 93F85A30 		ldrb	r3, [r3, #90]
 2870 0a18 DBB2     		uxtb	r3, r3
 2871 0a1a 1846     		mov	r0, r3
 2872 0a1c 1121     		movs	r1, #17
 2873 0a1e FFF7FEFF 		bl	EEPROM_WriteByte
 709:.\main.c      ****                         EEPROM_WriteByte(lado1.grado[2][0],18);
 2874              		.loc 1 709 0
 2875 0a22 444B     		ldr	r3, .L114+4
 2876 0a24 93F85B30 		ldrb	r3, [r3, #91]
 2877 0a28 DBB2     		uxtb	r3, r3
 2878 0a2a 1846     		mov	r0, r3
 2879 0a2c 1221     		movs	r1, #18
 2880 0a2e FFF7FEFF 		bl	EEPROM_WriteByte
 710:.\main.c      ****                         EEPROM_WriteByte(lado2.mangueras,19);
 2881              		.loc 1 710 0
 2882 0a32 414B     		ldr	r3, .L114+8
 2883 0a34 93F85C30 		ldrb	r3, [r3, #92]
 2884 0a38 DBB2     		uxtb	r3, r3
 2885 0a3a 1846     		mov	r0, r3
 2886 0a3c 1321     		movs	r1, #19
 2887 0a3e FFF7FEFF 		bl	EEPROM_WriteByte
 711:.\main.c      ****                         EEPROM_WriteByte(lado2.grado[0][0],20);
 2888              		.loc 1 711 0
 2889 0a42 3D4B     		ldr	r3, .L114+8
 2890 0a44 93F85930 		ldrb	r3, [r3, #89]
 2891 0a48 DBB2     		uxtb	r3, r3
 2892 0a4a 1846     		mov	r0, r3
 2893 0a4c 1421     		movs	r1, #20
 2894 0a4e FFF7FEFF 		bl	EEPROM_WriteByte
ARM GAS  C:\Users\RECEPC~1\AppData\Local\Temp\ccU7e2eq.s 			page 66


 712:.\main.c      ****                         EEPROM_WriteByte(lado2.grado[1][0],21);
 2895              		.loc 1 712 0
 2896 0a52 394B     		ldr	r3, .L114+8
 2897 0a54 93F85A30 		ldrb	r3, [r3, #90]
 2898 0a58 DBB2     		uxtb	r3, r3
 2899 0a5a 1846     		mov	r0, r3
 2900 0a5c 1521     		movs	r1, #21
 2901 0a5e FFF7FEFF 		bl	EEPROM_WriteByte
 713:.\main.c      ****                         EEPROM_WriteByte(lado2.grado[2][0],22);
 2902              		.loc 1 713 0
 2903 0a62 354B     		ldr	r3, .L114+8
 2904 0a64 93F85B30 		ldrb	r3, [r3, #91]
 2905 0a68 DBB2     		uxtb	r3, r3
 2906 0a6a 1846     		mov	r0, r3
 2907 0a6c 1621     		movs	r1, #22
 2908 0a6e FFF7FEFF 		bl	EEPROM_WriteByte
 714:.\main.c      ****                         EEPROM_WriteByte(ppux10,23);
 2909              		.loc 1 714 0
 2910 0a72 334B     		ldr	r3, .L114+16
 2911 0a74 1B78     		ldrb	r3, [r3]
 2912 0a76 DBB2     		uxtb	r3, r3
 2913 0a78 1846     		mov	r0, r3
 2914 0a7a 1721     		movs	r1, #23
 2915 0a7c FFF7FEFF 		bl	EEPROM_WriteByte
 715:.\main.c      ****                         EEPROM_WriteByte(version[1],30);
 2916              		.loc 1 715 0
 2917 0a80 2E4B     		ldr	r3, .L114+12
 2918 0a82 5B78     		ldrb	r3, [r3, #1]
 2919 0a84 DBB2     		uxtb	r3, r3
 2920 0a86 1846     		mov	r0, r3
 2921 0a88 1E21     		movs	r1, #30
 2922 0a8a FFF7FEFF 		bl	EEPROM_WriteByte
 716:.\main.c      ****                         EEPROM_WriteByte(version[2],31);
 2923              		.loc 1 716 0
 2924 0a8e 2B4B     		ldr	r3, .L114+12
 2925 0a90 9B78     		ldrb	r3, [r3, #2]
 2926 0a92 DBB2     		uxtb	r3, r3
 2927 0a94 1846     		mov	r0, r3
 2928 0a96 1F21     		movs	r1, #31
 2929 0a98 FFF7FEFF 		bl	EEPROM_WriteByte
 717:.\main.c      ****                         EEPROM_WriteByte(version[3],32);
 2930              		.loc 1 717 0
 2931 0a9c 274B     		ldr	r3, .L114+12
 2932 0a9e DB78     		ldrb	r3, [r3, #3]
 2933 0aa0 DBB2     		uxtb	r3, r3
 2934 0aa2 1846     		mov	r0, r3
 2935 0aa4 2021     		movs	r1, #32
 2936 0aa6 FFF7FEFF 		bl	EEPROM_WriteByte
 718:.\main.c      ****                         EEPROM_WriteByte(pantallas,33);
 2937              		.loc 1 718 0
 2938 0aaa 264B     		ldr	r3, .L114+20
 2939 0aac 1B78     		ldrb	r3, [r3]
 2940 0aae DBB2     		uxtb	r3, r3
 2941 0ab0 1846     		mov	r0, r3
 2942 0ab2 2121     		movs	r1, #33
 2943 0ab4 FFF7FEFF 		bl	EEPROM_WriteByte
 719:.\main.c      ****                         EEPROM_WriteByte(kmscreen,34);
ARM GAS  C:\Users\RECEPC~1\AppData\Local\Temp\ccU7e2eq.s 			page 67


 2944              		.loc 1 719 0
 2945 0ab8 234B     		ldr	r3, .L114+24
 2946 0aba 1B78     		ldrb	r3, [r3]
 2947 0abc DBB2     		uxtb	r3, r3
 2948 0abe 1846     		mov	r0, r3
 2949 0ac0 2221     		movs	r1, #34
 2950 0ac2 FFF7FEFF 		bl	EEPROM_WriteByte
 720:.\main.c      ****                         EEPROM_WriteByte(efectivo,35);
 2951              		.loc 1 720 0
 2952 0ac6 214B     		ldr	r3, .L114+28
 2953 0ac8 1B78     		ldrb	r3, [r3]
 2954 0aca DBB2     		uxtb	r3, r3
 2955 0acc 1846     		mov	r0, r3
 2956 0ace 2321     		movs	r1, #35
 2957 0ad0 FFF7FEFF 		bl	EEPROM_WriteByte
 721:.\main.c      ****                         set_imagen(1,60); 
 2958              		.loc 1 721 0
 2959 0ad4 0120     		movs	r0, #1
 2960 0ad6 3C21     		movs	r1, #60
 2961 0ad8 FFF7FEFF 		bl	set_imagen
 722:.\main.c      ****                         CyDelay(500);
 2962              		.loc 1 722 0
 2963 0adc 4FF4FA70 		mov	r0, #500
 2964 0ae0 FFF7FEFF 		bl	CyDelay
 723:.\main.c      ****                         init();
 2965              		.loc 1 723 0
 2966 0ae4 FFF7FEFF 		bl	init
 724:.\main.c      ****                         flujo_LCD1 = 0;                        
 2967              		.loc 1 724 0
 2968 0ae8 194B     		ldr	r3, .L114+32
 2969 0aea 0022     		movs	r2, #0
 2970 0aec 1A70     		strb	r2, [r3]
 725:.\main.c      ****                     break;
 2971              		.loc 1 725 0
 2972 0aee 00E0     		b	.L57
 2973              	.L106:
 688:.\main.c      ****                     case cconfigurar:
 2974              		.loc 1 688 0
 2975 0af0 00BF     		nop
 2976              	.L57:
 726:.\main.c      **** 				}
 727:.\main.c      **** 				if(ok_datosRF==1){
 2977              		.loc 1 727 0
 2978 0af2 184B     		ldr	r3, .L114+36
 2979 0af4 1B78     		ldrb	r3, [r3]	@ zero_extendqisi2
 2980 0af6 012B     		cmp	r3, #1
 2981 0af8 0FD1     		bne	.L56
 728:.\main.c      **** 				    for(x=0;x<size;x++){
 2982              		.loc 1 728 0
 2983 0afa 0023     		movs	r3, #0
 2984 0afc BB82     		strh	r3, [r7, #20]	@ movhi
 2985 0afe 08E0     		b	.L104
 2986              	.L105:
 729:.\main.c      **** 					   PC_PutChar(rf_mod[x]);
 2987              		.loc 1 729 0 discriminator 3
 2988 0b00 BB8A     		ldrh	r3, [r7, #20]
 2989 0b02 154A     		ldr	r2, .L114+40
ARM GAS  C:\Users\RECEPC~1\AppData\Local\Temp\ccU7e2eq.s 			page 68


 2990 0b04 D35C     		ldrb	r3, [r2, r3]	@ zero_extendqisi2
 2991 0b06 1846     		mov	r0, r3
 2992 0b08 FFF7FEFF 		bl	PC_PutChar
 728:.\main.c      **** 				    for(x=0;x<size;x++){
 2993              		.loc 1 728 0 discriminator 3
 2994 0b0c BB8A     		ldrh	r3, [r7, #20]
 2995 0b0e 0133     		adds	r3, r3, #1
 2996 0b10 BB82     		strh	r3, [r7, #20]	@ movhi
 2997              	.L104:
 728:.\main.c      **** 				    for(x=0;x<size;x++){
 2998              		.loc 1 728 0 is_stmt 0 discriminator 1
 2999 0b12 BA8A     		ldrh	r2, [r7, #20]
 3000 0b14 FB8A     		ldrh	r3, [r7, #22]
 3001 0b16 9A42     		cmp	r2, r3
 3002 0b18 F2D3     		bcc	.L105
 3003              	.L56:
 730:.\main.c      **** 				    }	               
 731:.\main.c      **** 				}
 732:.\main.c      **** 			}
 733:.\main.c      **** 			PC_ClearRxBuffer();
 3004              		.loc 1 733 0 is_stmt 1
 3005 0b1a FFF7FEFF 		bl	PC_ClearRxBuffer
 734:.\main.c      ****             Surtidor_ClearRxBuffer();
 3006              		.loc 1 734 0
 3007 0b1e FFF7FEFF 		bl	Surtidor_ClearRxBuffer
 735:.\main.c      **** 			status1=0;
 3008              		.loc 1 735 0
 3009 0b22 0023     		movs	r3, #0
 3010 0b24 3B82     		strh	r3, [r7, #16]	@ movhi
 736:.\main.c      **** 			status2=0;			
 3011              		.loc 1 736 0
 3012 0b26 0023     		movs	r3, #0
 3013 0b28 FB81     		strh	r3, [r7, #14]	@ movhi
 3014              	.L54:
 737:.\main.c      **** 		}		
 738:.\main.c      **** 	}	
 739:.\main.c      **** }
 3015              		.loc 1 739 0
 3016 0b2a 1837     		adds	r7, r7, #24
 3017              		.cfi_def_cfa_offset 8
 3018 0b2c BD46     		mov	sp, r7
 3019              		.cfi_def_cfa_register 13
 3020              		@ sp needed
 3021 0b2e 80BD     		pop	{r7, pc}
 3022              	.L115:
 3023              		.align	2
 3024              	.L114:
 3025 0b30 00000000 		.word	PC_rxBuffer
 3026 0b34 00000000 		.word	lado1
 3027 0b38 00000000 		.word	lado2
 3028 0b3c 00000000 		.word	version
 3029 0b40 00000000 		.word	ppux10
 3030 0b44 00000000 		.word	pantallas
 3031 0b48 00000000 		.word	kmscreen
 3032 0b4c 00000000 		.word	efectivo
 3033 0b50 00000000 		.word	flujo_LCD1
 3034 0b54 00000000 		.word	ok_datosRF
ARM GAS  C:\Users\RECEPC~1\AppData\Local\Temp\ccU7e2eq.s 			page 69


 3035 0b58 00000000 		.word	rf_mod
 3036              		.cfi_endproc
 3037              	.LFE67:
 3038              		.size	polling_rf, .-polling_rf
 3039              		.section	.text.polling_surt,"ax",%progbits
 3040              		.align	2
 3041              		.global	polling_surt
 3042              		.thumb
 3043              		.thumb_func
 3044              		.type	polling_surt, %function
 3045              	polling_surt:
 3046              	.LFB68:
 740:.\main.c      **** 
 741:.\main.c      **** 
 742:.\main.c      **** 
 743:.\main.c      **** /*
 744:.\main.c      **** ***************************************************************************************************
 745:.\main.c      **** *                                         uint8 polling_surt(void)
 746:.\main.c      **** *
 747:.\main.c      **** * Description : 
 748:.\main.c      **** *               
 749:.\main.c      **** *
 750:.\main.c      **** * Argument(s) : none
 751:.\main.c      **** *
 752:.\main.c      **** * Return(s)   : none
 753:.\main.c      **** *
 754:.\main.c      **** * Caller(s)   : 
 755:.\main.c      **** *
 756:.\main.c      **** * Note(s)     : none.
 757:.\main.c      **** ***************************************************************************************************
 758:.\main.c      **** */
 759:.\main.c      **** 
 760:.\main.c      **** void polling_surt(void){
 3047              		.loc 1 760 0
 3048              		.cfi_startproc
 3049              		@ args = 0, pretend = 0, frame = 0
 3050              		@ frame_needed = 1, uses_anonymous_args = 0
 3051              		@ link register save eliminated.
 3052 0000 80B4     		push	{r7}
 3053              		.cfi_def_cfa_offset 4
 3054              		.cfi_offset 7, -4
 3055 0002 00AF     		add	r7, sp, #0
 3056              		.cfi_def_cfa_register 7
 761:.\main.c      **** 	         
 762:.\main.c      ****             
 763:.\main.c      **** }
 3057              		.loc 1 763 0
 3058 0004 BD46     		mov	sp, r7
 3059              		.cfi_def_cfa_register 13
 3060              		@ sp needed
 3061 0006 5DF8047B 		ldr	r7, [sp], #4
 3062              		.cfi_restore 7
 3063              		.cfi_def_cfa_offset 0
 3064 000a 7047     		bx	lr
 3065              		.cfi_endproc
 3066              	.LFE68:
 3067              		.size	polling_surt, .-polling_surt
ARM GAS  C:\Users\RECEPC~1\AppData\Local\Temp\ccU7e2eq.s 			page 70


 3068              		.global	__aeabi_dcmpge
 3069              		.global	__aeabi_dcmple
 3070              		.global	__aeabi_dcmpgt
 3071              		.section	.text.polling_LCD1,"ax",%progbits
 3072              		.align	2
 3073              		.global	polling_LCD1
 3074              		.thumb
 3075              		.thumb_func
 3076              		.type	polling_LCD1, %function
 3077              	polling_LCD1:
 3078              	.LFB69:
 764:.\main.c      **** 
 765:.\main.c      **** 
 766:.\main.c      **** 
 767:.\main.c      **** /*
 768:.\main.c      **** ***************************************************************************************************
 769:.\main.c      **** *                                         void polling_LCD1(void)
 770:.\main.c      **** *
 771:.\main.c      **** * Description : 
 772:.\main.c      **** *               
 773:.\main.c      **** *
 774:.\main.c      **** * Argument(s) : none
 775:.\main.c      **** *
 776:.\main.c      **** * Return(s)   : none
 777:.\main.c      **** *
 778:.\main.c      **** * Caller(s)   : 
 779:.\main.c      **** *
 780:.\main.c      **** * Note(s)     : none.
 781:.\main.c      **** ***************************************************************************************************
 782:.\main.c      **** */
 783:.\main.c      **** 
 784:.\main.c      **** void polling_LCD1(void){
 3079              		.loc 1 784 0
 3080              		.cfi_startproc
 3081              		@ args = 0, pretend = 0, frame = 48
 3082              		@ frame_needed = 1, uses_anonymous_args = 0
 3083 0000 B0B5     		push	{r4, r5, r7, lr}
 3084              		.cfi_def_cfa_offset 16
 3085              		.cfi_offset 4, -16
 3086              		.cfi_offset 5, -12
 3087              		.cfi_offset 7, -8
 3088              		.cfi_offset 14, -4
 3089 0002 8EB0     		sub	sp, sp, #56
 3090              		.cfi_def_cfa_offset 72
 3091 0004 02AF     		add	r7, sp, #8
 3092              		.cfi_def_cfa 7, 64
 785:.\main.c      ****     uint8 x,y,aux[10],precio[5],x_1;
 786:.\main.c      **** 	char numero[8];
 787:.\main.c      **** 	double num_decimal;   
 788:.\main.c      ****     switch(flujo_LCD1){
 3093              		.loc 1 788 0
 3094 0006 CD4B     		ldr	r3, .L653
 3095 0008 1B78     		ldrb	r3, [r3]
 3096 000a DBB2     		uxtb	r3, r3
 3097 000c 662B     		cmp	r3, #102
 3098 000e 04F2ED84 		bhi	.L117
 3099 0012 01A2     		adr	r2, .L120
ARM GAS  C:\Users\RECEPC~1\AppData\Local\Temp\ccU7e2eq.s 			page 71


 3100 0014 52F823F0 		ldr	pc, [r2, r3, lsl #2]
 3101              		.p2align 2
 3102              	.L120:
 3103 0018 B5010000 		.word	.L119+1
 3104 001c 09030000 		.word	.L121+1
 3105 0020 0B040000 		.word	.L122+1
 3106 0024 07090000 		.word	.L123+1
 3107 0028 D9090000 		.word	.L124+1
 3108 002c A50D0000 		.word	.L125+1
 3109 0030 490F0000 		.word	.L126+1
 3110 0034 ED490000 		.word	.L117+1
 3111 0038 55100000 		.word	.L127+1
 3112 003c E5120000 		.word	.L128+1
 3113 0040 ED490000 		.word	.L117+1
 3114 0044 791C0000 		.word	.L129+1
 3115 0048 631F0000 		.word	.L130+1
 3116 004c 01360000 		.word	.L131+1
 3117 0050 65410000 		.word	.L132+1
 3118 0054 87430000 		.word	.L133+1
 3119 0058 C1440000 		.word	.L134+1
 3120 005c 63470000 		.word	.L135+1
 3121 0060 ED490000 		.word	.L117+1
 3122 0064 05480000 		.word	.L136+1
 3123 0068 71030000 		.word	.L137+1
 3124 006c CF010000 		.word	.L138+1
 3125 0070 ED490000 		.word	.L117+1
 3126 0074 ED490000 		.word	.L117+1
 3127 0078 ED490000 		.word	.L117+1
 3128 007c ED490000 		.word	.L117+1
 3129 0080 ED490000 		.word	.L117+1
 3130 0084 ED490000 		.word	.L117+1
 3131 0088 ED490000 		.word	.L117+1
 3132 008c ED490000 		.word	.L117+1
 3133 0090 ED490000 		.word	.L117+1
 3134 0094 ED490000 		.word	.L117+1
 3135 0098 ED490000 		.word	.L117+1
 3136 009c ED490000 		.word	.L117+1
 3137 00a0 ED490000 		.word	.L117+1
 3138 00a4 ED490000 		.word	.L117+1
 3139 00a8 ED490000 		.word	.L117+1
 3140 00ac ED490000 		.word	.L117+1
 3141 00b0 ED490000 		.word	.L117+1
 3142 00b4 ED490000 		.word	.L117+1
 3143 00b8 ED490000 		.word	.L117+1
 3144 00bc ED490000 		.word	.L117+1
 3145 00c0 ED490000 		.word	.L117+1
 3146 00c4 ED490000 		.word	.L117+1
 3147 00c8 ED490000 		.word	.L117+1
 3148 00cc ED490000 		.word	.L117+1
 3149 00d0 ED490000 		.word	.L117+1
 3150 00d4 ED490000 		.word	.L117+1
 3151 00d8 ED490000 		.word	.L117+1
 3152 00dc ED490000 		.word	.L117+1
 3153 00e0 ED490000 		.word	.L117+1
 3154 00e4 ED490000 		.word	.L117+1
 3155 00e8 ED490000 		.word	.L117+1
 3156 00ec ED490000 		.word	.L117+1
ARM GAS  C:\Users\RECEPC~1\AppData\Local\Temp\ccU7e2eq.s 			page 72


 3157 00f0 ED490000 		.word	.L117+1
 3158 00f4 ED490000 		.word	.L117+1
 3159 00f8 ED490000 		.word	.L117+1
 3160 00fc ED490000 		.word	.L117+1
 3161 0100 ED490000 		.word	.L117+1
 3162 0104 ED490000 		.word	.L117+1
 3163 0108 ED490000 		.word	.L117+1
 3164 010c ED490000 		.word	.L117+1
 3165 0110 ED490000 		.word	.L117+1
 3166 0114 ED490000 		.word	.L117+1
 3167 0118 ED490000 		.word	.L117+1
 3168 011c ED490000 		.word	.L117+1
 3169 0120 ED490000 		.word	.L117+1
 3170 0124 ED490000 		.word	.L117+1
 3171 0128 ED490000 		.word	.L117+1
 3172 012c ED490000 		.word	.L117+1
 3173 0130 ED490000 		.word	.L117+1
 3174 0134 ED490000 		.word	.L117+1
 3175 0138 ED490000 		.word	.L117+1
 3176 013c ED490000 		.word	.L117+1
 3177 0140 ED490000 		.word	.L117+1
 3178 0144 ED490000 		.word	.L117+1
 3179 0148 ED490000 		.word	.L117+1
 3180 014c ED490000 		.word	.L117+1
 3181 0150 ED490000 		.word	.L117+1
 3182 0154 ED490000 		.word	.L117+1
 3183 0158 ED490000 		.word	.L117+1
 3184 015c ED490000 		.word	.L117+1
 3185 0160 ED490000 		.word	.L117+1
 3186 0164 ED490000 		.word	.L117+1
 3187 0168 ED490000 		.word	.L117+1
 3188 016c ED490000 		.word	.L117+1
 3189 0170 ED490000 		.word	.L117+1
 3190 0174 ED490000 		.word	.L117+1
 3191 0178 ED490000 		.word	.L117+1
 3192 017c ED490000 		.word	.L117+1
 3193 0180 ED490000 		.word	.L117+1
 3194 0184 ED490000 		.word	.L117+1
 3195 0188 ED490000 		.word	.L117+1
 3196 018c ED490000 		.word	.L117+1
 3197 0190 ED490000 		.word	.L117+1
 3198 0194 ED490000 		.word	.L117+1
 3199 0198 ED490000 		.word	.L117+1
 3200 019c ED490000 		.word	.L117+1
 3201 01a0 ED490000 		.word	.L117+1
 3202 01a4 ED490000 		.word	.L117+1
 3203 01a8 CD490000 		.word	.L139+1
 3204 01ac ED490000 		.word	.L117+1
 3205 01b0 ED490000 		.word	.L117+1
 3206              		.p2align 1
 3207              	.L119:
 789:.\main.c      ****         case 0:
 790:.\main.c      ****          isr_3_StartEx(animacion); 
 3208              		.loc 1 790 0
 3209 01b4 6248     		ldr	r0, .L653+4
 3210 01b6 FFF7FEFF 		bl	isr_3_StartEx
 791:.\main.c      ****          Timer_Animacion_Start();
ARM GAS  C:\Users\RECEPC~1\AppData\Local\Temp\ccU7e2eq.s 			page 73


 3211              		.loc 1 791 0
 3212 01ba FFF7FEFF 		bl	Timer_Animacion_Start
 792:.\main.c      ****          count_protector=0;
 3213              		.loc 1 792 0
 3214 01be 614B     		ldr	r3, .L653+8
 3215 01c0 0022     		movs	r2, #0
 3216 01c2 1A70     		strb	r2, [r3]
 793:.\main.c      ****          flujo_LCD1=21;	       
 3217              		.loc 1 793 0
 3218 01c4 5D4B     		ldr	r3, .L653
 3219 01c6 1522     		movs	r2, #21
 3220 01c8 1A70     		strb	r2, [r3]
 794:.\main.c      ****         break;
 3221              		.loc 1 794 0
 3222 01ca 04F00FBC 		b	.L117
 3223              	.L138:
 795:.\main.c      ****         
 796:.\main.c      ****         case 21:
 797:.\main.c      **** //            set_imagen(1,27);                 //Pasa a pantalla de tipo de venta viejo:5
 798:.\main.c      **** //            tipo_venta = 0;
 799:.\main.c      **** //            id_teclado1 = 8;
 800:.\main.c      **** //            flujo_LCD1 = 11;             
 801:.\main.c      ****                 if(touch_present(1)==1){
 3224              		.loc 1 801 0
 3225 01ce 0120     		movs	r0, #1
 3226 01d0 FFF7FEFF 		bl	touch_present
 3227 01d4 0346     		mov	r3, r0
 3228 01d6 012B     		cmp	r3, #1
 3229 01d8 70D1     		bne	.L141
 802:.\main.c      ****                     if(touch_write(1,0x33)){
 3230              		.loc 1 802 0
 3231 01da 0120     		movs	r0, #1
 3232 01dc 3321     		movs	r1, #51
 3233 01de FFF7FEFF 		bl	touch_write
 3234 01e2 0346     		mov	r3, r0
 3235 01e4 002B     		cmp	r3, #0
 3236 01e6 69D0     		beq	.L141
 803:.\main.c      ****     	                for(x=0;x<=7;x++){
 3237              		.loc 1 803 0
 3238 01e8 0023     		movs	r3, #0
 3239 01ea 87F82F30 		strb	r3, [r7, #47]
 3240 01ee 1CE0     		b	.L142
 3241              	.L143:
 804:.\main.c      ****     	                    rventa1.id[x]=touch_read_byte(1);
 3242              		.loc 1 804 0 discriminator 3
 3243 01f0 97F82F40 		ldrb	r4, [r7, #47]	@ zero_extendqisi2
 3244 01f4 0120     		movs	r0, #1
 3245 01f6 FFF7FEFF 		bl	touch_read_byte
 3246 01fa 0346     		mov	r3, r0
 3247 01fc 1A46     		mov	r2, r3
 3248 01fe 524B     		ldr	r3, .L653+12
 3249 0200 2344     		add	r3, r3, r4
 3250 0202 83F82320 		strb	r2, [r3, #35]
 805:.\main.c      ****                             rventa2.id[x]=rventa1.id[x];
 3251              		.loc 1 805 0 discriminator 3
 3252 0206 97F82F30 		ldrb	r3, [r7, #47]	@ zero_extendqisi2
 3253 020a 97F82F20 		ldrb	r2, [r7, #47]	@ zero_extendqisi2
ARM GAS  C:\Users\RECEPC~1\AppData\Local\Temp\ccU7e2eq.s 			page 74


 3254 020e 4E49     		ldr	r1, .L653+12
 3255 0210 0A44     		add	r2, r2, r1
 3256 0212 92F82310 		ldrb	r1, [r2, #35]	@ zero_extendqisi2
 3257 0216 4D4A     		ldr	r2, .L653+16
 3258 0218 1344     		add	r3, r3, r2
 3259 021a 0A46     		mov	r2, r1
 3260 021c 83F82320 		strb	r2, [r3, #35]
 803:.\main.c      ****     	                for(x=0;x<=7;x++){
 3261              		.loc 1 803 0 discriminator 3
 3262 0220 97F82F30 		ldrb	r3, [r7, #47]	@ zero_extendqisi2
 3263 0224 0133     		adds	r3, r3, #1
 3264 0226 87F82F30 		strb	r3, [r7, #47]
 3265              	.L142:
 803:.\main.c      ****     	                for(x=0;x<=7;x++){
 3266              		.loc 1 803 0 is_stmt 0 discriminator 1
 3267 022a 97F82F30 		ldrb	r3, [r7, #47]	@ zero_extendqisi2
 3268 022e 072B     		cmp	r3, #7
 3269 0230 DED9     		bls	.L143
 806:.\main.c      ****     	                }
 807:.\main.c      ****     				    crc_total=0;
 3270              		.loc 1 807 0 is_stmt 1
 3271 0232 474B     		ldr	r3, .L653+20
 3272 0234 0022     		movs	r2, #0
 3273 0236 1A70     		strb	r2, [r3]
 808:.\main.c      ****     				    for(x=0;x<7;x++){
 3274              		.loc 1 808 0
 3275 0238 0023     		movs	r3, #0
 3276 023a 87F82F30 		strb	r3, [r7, #47]
 3277 023e 14E0     		b	.L144
 3278              	.L145:
 809:.\main.c      ****     				 	    crc_total=crc_check(crc_total,rventa1.id[x]);
 3279              		.loc 1 809 0 discriminator 3
 3280 0240 434B     		ldr	r3, .L653+20
 3281 0242 1978     		ldrb	r1, [r3]	@ zero_extendqisi2
 3282 0244 97F82F30 		ldrb	r3, [r7, #47]	@ zero_extendqisi2
 3283 0248 3F4A     		ldr	r2, .L653+12
 3284 024a 1344     		add	r3, r3, r2
 3285 024c 93F82330 		ldrb	r3, [r3, #35]	@ zero_extendqisi2
 3286 0250 0846     		mov	r0, r1
 3287 0252 1946     		mov	r1, r3
 3288 0254 FFF7FEFF 		bl	crc_check
 3289 0258 0346     		mov	r3, r0
 3290 025a 1A46     		mov	r2, r3
 3291 025c 3C4B     		ldr	r3, .L653+20
 3292 025e 1A70     		strb	r2, [r3]
 808:.\main.c      ****     				    for(x=0;x<7;x++){
 3293              		.loc 1 808 0 discriminator 3
 3294 0260 97F82F30 		ldrb	r3, [r7, #47]	@ zero_extendqisi2
 3295 0264 0133     		adds	r3, r3, #1
 3296 0266 87F82F30 		strb	r3, [r7, #47]
 3297              	.L144:
 808:.\main.c      ****     				    for(x=0;x<7;x++){
 3298              		.loc 1 808 0 is_stmt 0 discriminator 1
 3299 026a 97F82F30 		ldrb	r3, [r7, #47]	@ zero_extendqisi2
 3300 026e 062B     		cmp	r3, #6
 3301 0270 E6D9     		bls	.L145
 810:.\main.c      ****     				    }					
ARM GAS  C:\Users\RECEPC~1\AppData\Local\Temp\ccU7e2eq.s 			page 75


 811:.\main.c      ****     				    if(crc_total==rventa1.id[7]){
 3302              		.loc 1 811 0 is_stmt 1
 3303 0272 354B     		ldr	r3, .L653+12
 3304 0274 93F82A20 		ldrb	r2, [r3, #42]	@ zero_extendqisi2
 3305 0278 354B     		ldr	r3, .L653+20
 3306 027a 1B78     		ldrb	r3, [r3]	@ zero_extendqisi2
 3307 027c 9A42     		cmp	r2, r3
 3308 027e 1DD1     		bne	.L141
 812:.\main.c      ****     		                set_imagen(1,19);
 3309              		.loc 1 812 0
 3310 0280 0120     		movs	r0, #1
 3311 0282 1321     		movs	r1, #19
 3312 0284 FFF7FEFF 		bl	set_imagen
 813:.\main.c      ****     		                CyDelay(500);					 				 
 3313              		.loc 1 813 0
 3314 0288 4FF4FA70 		mov	r0, #500
 3315 028c FFF7FEFF 		bl	CyDelay
 814:.\main.c      ****     					    count_teclas1=0;							//Inicia el contador de teclas						    
 3316              		.loc 1 814 0
 3317 0290 304B     		ldr	r3, .L653+24
 3318 0292 0022     		movs	r2, #0
 3319 0294 1A70     		strb	r2, [r3]
 815:.\main.c      ****     					    teclas1=10;
 3320              		.loc 1 815 0
 3321 0296 304B     		ldr	r3, .L653+28
 3322 0298 0A22     		movs	r2, #10
 3323 029a 1A70     		strb	r2, [r3]
 816:.\main.c      ****     					    posx1=2;
 3324              		.loc 1 816 0
 3325 029c 2F4B     		ldr	r3, .L653+32
 3326 029e 0222     		movs	r2, #2
 3327 02a0 1A80     		strh	r2, [r3]	@ movhi
 817:.\main.c      ****     					    posy1=3;
 3328              		.loc 1 817 0
 3329 02a2 2F4B     		ldr	r3, .L653+36
 3330 02a4 0322     		movs	r2, #3
 3331 02a6 1A80     		strh	r2, [r3]	@ movhi
 818:.\main.c      ****     					    sizeletra1=1;	 
 3332              		.loc 1 818 0
 3333 02a8 2E4B     		ldr	r3, .L653+40
 3334 02aa 0122     		movs	r2, #1
 3335 02ac 1A80     		strh	r2, [r3]	@ movhi
 819:.\main.c      ****                             flujo_LCD1 = 20;
 3336              		.loc 1 819 0
 3337 02ae 234B     		ldr	r3, .L653
 3338 02b0 1422     		movs	r2, #20
 3339 02b2 1A70     		strb	r2, [r3]
 820:.\main.c      ****                             set_imagen(1,46);
 3340              		.loc 1 820 0
 3341 02b4 0120     		movs	r0, #1
 3342 02b6 2E21     		movs	r1, #46
 3343 02b8 FFF7FEFF 		bl	set_imagen
 3344              	.L141:
 821:.\main.c      ****     					    	
 822:.\main.c      ****     				    }
 823:.\main.c      ****                     }
 824:.\main.c      ****                 }  
ARM GAS  C:\Users\RECEPC~1\AppData\Local\Temp\ccU7e2eq.s 			page 76


 825:.\main.c      ****                    
 826:.\main.c      ****             
 827:.\main.c      ****             if(LCD_1_GetRxBufferSize()==8){
 3345              		.loc 1 827 0
 3346 02bc FFF7FEFF 		bl	LCD_1_GetRxBufferSize
 3347 02c0 0346     		mov	r3, r0
 3348 02c2 082B     		cmp	r3, #8
 3349 02c4 1ED1     		bne	.L146
 828:.\main.c      ****                 if((LCD_1_rxBuffer[0]==0xAA) && (LCD_1_rxBuffer[6]==0xC3) && (LCD_1_rxBuffer[7]==0x
 3350              		.loc 1 828 0
 3351 02c6 284B     		ldr	r3, .L653+44
 3352 02c8 1B78     		ldrb	r3, [r3]
 3353 02ca DBB2     		uxtb	r3, r3
 3354 02cc AA2B     		cmp	r3, #170
 3355 02ce 12D1     		bne	.L147
 3356              		.loc 1 828 0 is_stmt 0 discriminator 1
 3357 02d0 254B     		ldr	r3, .L653+44
 3358 02d2 9B79     		ldrb	r3, [r3, #6]
 3359 02d4 DBB2     		uxtb	r3, r3
 3360 02d6 C32B     		cmp	r3, #195
 3361 02d8 0DD1     		bne	.L147
 3362              		.loc 1 828 0 discriminator 2
 3363 02da 234B     		ldr	r3, .L653+44
 3364 02dc DB79     		ldrb	r3, [r3, #7]
 3365 02de DBB2     		uxtb	r3, r3
 3366 02e0 3C2B     		cmp	r3, #60
 3367 02e2 08D1     		bne	.L147
 829:.\main.c      ****                     switch(LCD_1_rxBuffer[3]){
 3368              		.loc 1 829 0 is_stmt 1
 3369 02e4 204B     		ldr	r3, .L653+44
 3370 02e6 DB78     		ldrb	r3, [r3, #3]
 3371 02e8 DBB2     		uxtb	r3, r3
 3372 02ea 3B2B     		cmp	r3, #59
 3373 02ec 03D1     		bne	.L147
 830:.\main.c      ****                         case 0x3B:
 831:.\main.c      ****                             flujo_LCD1=0; 
 3374              		.loc 1 831 0
 3375 02ee 134B     		ldr	r3, .L653
 3376 02f0 0022     		movs	r2, #0
 3377 02f2 1A70     		strb	r2, [r3]
 832:.\main.c      ****                         break; 
 3378              		.loc 1 832 0
 3379 02f4 00BF     		nop
 3380              	.L147:
 833:.\main.c      ****                     }
 834:.\main.c      ****                 }
 835:.\main.c      ****                 CyDelay(100);            
 3381              		.loc 1 835 0
 3382 02f6 6420     		movs	r0, #100
 3383 02f8 FFF7FEFF 		bl	CyDelay
 836:.\main.c      ****                 LCD_1_ClearRxBuffer();            
 3384              		.loc 1 836 0
 3385 02fc FFF7FEFF 		bl	LCD_1_ClearRxBuffer
 837:.\main.c      ****         }
 838:.\main.c      ****         break;
 3386              		.loc 1 838 0
 3387 0300 04F074BB 		b	.L117
ARM GAS  C:\Users\RECEPC~1\AppData\Local\Temp\ccU7e2eq.s 			page 77


 3388              	.L146:
 3389 0304 04F072BB 		b	.L117
 3390              	.L121:
 839:.\main.c      ****         
 840:.\main.c      ****         case 1:
 841:.\main.c      ****          if(LCD_1_GetRxBufferSize()==8){ 
 3391              		.loc 1 841 0
 3392 0308 FFF7FEFF 		bl	LCD_1_GetRxBufferSize
 3393 030c 0346     		mov	r3, r0
 3394 030e 082B     		cmp	r3, #8
 3395 0310 11D1     		bne	.L149
 842:.\main.c      ****              isr_3_Stop(); 
 3396              		.loc 1 842 0
 3397 0312 FFF7FEFF 		bl	isr_3_Stop
 843:.\main.c      ****              Timer_Animacion_Stop();
 3398              		.loc 1 843 0
 3399 0316 FFF7FEFF 		bl	Timer_Animacion_Stop
 844:.\main.c      ****              set_imagen(1,46);				//Muestra imagen de inicio GRP700
 3400              		.loc 1 844 0
 3401 031a 0120     		movs	r0, #1
 3402 031c 2E21     		movs	r1, #46
 3403 031e FFF7FEFF 		bl	set_imagen
 845:.\main.c      **** 	         flujo_LCD1 = 20;	         
 3404              		.loc 1 845 0
 3405 0322 064B     		ldr	r3, .L653
 3406 0324 1422     		movs	r2, #20
 3407 0326 1A70     		strb	r2, [r3]
 846:.\main.c      ****              LCD_1_ClearRxBuffer();	
 3408              		.loc 1 846 0
 3409 0328 FFF7FEFF 		bl	LCD_1_ClearRxBuffer
 847:.\main.c      ****              seleccion_pos = 0;
 3410              		.loc 1 847 0
 3411 032c 0F4B     		ldr	r3, .L653+48
 3412 032e 0022     		movs	r2, #0
 3413 0330 1A70     		strb	r2, [r3]
 848:.\main.c      ****          }
 849:.\main.c      ****         break;
 3414              		.loc 1 849 0
 3415 0332 04F05BBB 		b	.L117
 3416              	.L149:
 3417              		.loc 1 849 0 is_stmt 0 discriminator 2
 3418 0336 04F059BB 		b	.L117
 3419              	.L654:
 3420 033a 00BF     		.align	2
 3421              	.L653:
 3422 033c 00000000 		.word	flujo_LCD1
 3423 0340 00000000 		.word	animacion
 3424 0344 00000000 		.word	count_protector
 3425 0348 00000000 		.word	rventa1
 3426 034c 00000000 		.word	rventa2
 3427 0350 00000000 		.word	crc_total
 3428 0354 00000000 		.word	count_teclas1
 3429 0358 00000000 		.word	teclas1
 3430 035c 00000000 		.word	posx1
 3431 0360 00000000 		.word	posy1
 3432 0364 00000000 		.word	sizeletra1
 3433 0368 00000000 		.word	LCD_1_rxBuffer
ARM GAS  C:\Users\RECEPC~1\AppData\Local\Temp\ccU7e2eq.s 			page 78


 3434 036c 00000000 		.word	seleccion_pos
 3435              	.L137:
 850:.\main.c      ****         
 851:.\main.c      ****         case 20:        
 852:.\main.c      **** 	    if(LCD_1_GetRxBufferSize()==8){
 3436              		.loc 1 852 0 is_stmt 1
 3437 0370 FFF7FEFF 		bl	LCD_1_GetRxBufferSize
 3438 0374 0346     		mov	r3, r0
 3439 0376 082B     		cmp	r3, #8
 3440 0378 45D1     		bne	.L150
 853:.\main.c      ****             if((LCD_1_rxBuffer[0]==0xAA) && (LCD_1_rxBuffer[6]==0xC3) && (LCD_1_rxBuffer[7]==0x3C))
 3441              		.loc 1 853 0
 3442 037a BC4B     		ldr	r3, .L655
 3443 037c 1B78     		ldrb	r3, [r3]
 3444 037e DBB2     		uxtb	r3, r3
 3445 0380 AA2B     		cmp	r3, #170
 3446 0382 39D1     		bne	.L151
 3447              		.loc 1 853 0 is_stmt 0 discriminator 1
 3448 0384 B94B     		ldr	r3, .L655
 3449 0386 9B79     		ldrb	r3, [r3, #6]
 3450 0388 DBB2     		uxtb	r3, r3
 3451 038a C32B     		cmp	r3, #195
 3452 038c 34D1     		bne	.L151
 3453              		.loc 1 853 0 discriminator 2
 3454 038e B74B     		ldr	r3, .L655
 3455 0390 DB79     		ldrb	r3, [r3, #7]
 3456 0392 DBB2     		uxtb	r3, r3
 3457 0394 3C2B     		cmp	r3, #60
 3458 0396 2FD1     		bne	.L151
 854:.\main.c      ****                 switch(LCD_1_rxBuffer[3]){
 3459              		.loc 1 854 0 is_stmt 1
 3460 0398 B44B     		ldr	r3, .L655
 3461 039a DB78     		ldrb	r3, [r3, #3]
 3462 039c DBB2     		uxtb	r3, r3
 3463 039e 572B     		cmp	r3, #87
 3464 03a0 11D0     		beq	.L152
 3465 03a2 942B     		cmp	r3, #148
 3466 03a4 1DD0     		beq	.L153
 3467 03a6 562B     		cmp	r3, #86
 3468 03a8 26D1     		bne	.L151
 855:.\main.c      **** 			        case 0x56:						        //POS A                                                         
 856:.\main.c      ****                         set_imagen(1,36);           //Inicio opciones GRP 700 POS A
 3469              		.loc 1 856 0
 3470 03aa 0120     		movs	r0, #1
 3471 03ac 2421     		movs	r1, #36
 3472 03ae FFF7FEFF 		bl	set_imagen
 857:.\main.c      ****                         seleccion_pos = 1;
 3473              		.loc 1 857 0
 3474 03b2 AF4B     		ldr	r3, .L655+4
 3475 03b4 0122     		movs	r2, #1
 3476 03b6 1A70     		strb	r2, [r3]
 858:.\main.c      ****                         flujo_LCD1    = 12;  
 3477              		.loc 1 858 0
 3478 03b8 AE4B     		ldr	r3, .L655+8
 3479 03ba 0C22     		movs	r2, #12
 3480 03bc 1A70     		strb	r2, [r3]
 859:.\main.c      ****                         id_teclado1   = 8;
ARM GAS  C:\Users\RECEPC~1\AppData\Local\Temp\ccU7e2eq.s 			page 79


 3481              		.loc 1 859 0
 3482 03be AE4B     		ldr	r3, .L655+12
 3483 03c0 0822     		movs	r2, #8
 3484 03c2 1A70     		strb	r2, [r3]
 860:.\main.c      **** 				    break;
 3485              		.loc 1 860 0
 3486 03c4 18E0     		b	.L151
 3487              	.L152:
 861:.\main.c      ****                         		       
 862:.\main.c      **** 				    case 0x57:  				            //POS B                                                        
 863:.\main.c      ****                         set_imagen(1,36);           //Inicio opciones GRP 700
 3488              		.loc 1 863 0
 3489 03c6 0120     		movs	r0, #1
 3490 03c8 2421     		movs	r1, #36
 3491 03ca FFF7FEFF 		bl	set_imagen
 864:.\main.c      **** 				        seleccion_pos = 2;
 3492              		.loc 1 864 0
 3493 03ce A84B     		ldr	r3, .L655+4
 3494 03d0 0222     		movs	r2, #2
 3495 03d2 1A70     		strb	r2, [r3]
 865:.\main.c      ****                         flujo_LCD1    = 12;  
 3496              		.loc 1 865 0
 3497 03d4 A74B     		ldr	r3, .L655+8
 3498 03d6 0C22     		movs	r2, #12
 3499 03d8 1A70     		strb	r2, [r3]
 866:.\main.c      ****                         id_teclado1   = 8;
 3500              		.loc 1 866 0
 3501 03da A74B     		ldr	r3, .L655+12
 3502 03dc 0822     		movs	r2, #8
 3503 03de 1A70     		strb	r2, [r3]
 867:.\main.c      **** 				    break;
 3504              		.loc 1 867 0
 3505 03e0 0AE0     		b	.L151
 3506              	.L153:
 868:.\main.c      ****                     
 869:.\main.c      ****                     case 0x94:  				            //POS B                                            
 870:.\main.c      ****                         set_imagen(1,114);
 3507              		.loc 1 870 0
 3508 03e2 0120     		movs	r0, #1
 3509 03e4 7221     		movs	r1, #114
 3510 03e6 FFF7FEFF 		bl	set_imagen
 871:.\main.c      ****                         seleccion_pos = 1;
 3511              		.loc 1 871 0
 3512 03ea A14B     		ldr	r3, .L655+4
 3513 03ec 0122     		movs	r2, #1
 3514 03ee 1A70     		strb	r2, [r3]
 872:.\main.c      ****                         flujo_LCD1 = 15;
 3515              		.loc 1 872 0
 3516 03f0 A04B     		ldr	r3, .L655+8
 3517 03f2 0F22     		movs	r2, #15
 3518 03f4 1A70     		strb	r2, [r3]
 873:.\main.c      **** 				    break;
 3519              		.loc 1 873 0
 3520 03f6 00BF     		nop
 3521              	.L151:
 874:.\main.c      ****                                                
 875:.\main.c      **** 			    }                                                            
ARM GAS  C:\Users\RECEPC~1\AppData\Local\Temp\ccU7e2eq.s 			page 80


 876:.\main.c      **** 		    }
 877:.\main.c      ****             CyDelay(100);
 3522              		.loc 1 877 0
 3523 03f8 6420     		movs	r0, #100
 3524 03fa FFF7FEFF 		bl	CyDelay
 878:.\main.c      **** 		    LCD_1_ClearRxBuffer();
 3525              		.loc 1 878 0
 3526 03fe FFF7FEFF 		bl	LCD_1_ClearRxBuffer
 879:.\main.c      **** 	    }                                        
 880:.\main.c      ****         break;
 3527              		.loc 1 880 0
 3528 0402 04F0F3BA 		b	.L117
 3529              	.L150:
 3530              		.loc 1 880 0 is_stmt 0 discriminator 3
 3531 0406 04F0F1BA 		b	.L117
 3532              	.L122:
 881:.\main.c      ****         
 882:.\main.c      ****         case 2:
 883:.\main.c      **** 	        if(LCD_1_GetRxBufferSize()==8){
 3533              		.loc 1 883 0 is_stmt 1
 3534 040a FFF7FEFF 		bl	LCD_1_GetRxBufferSize
 3535 040e 0346     		mov	r3, r0
 3536 0410 082B     		cmp	r3, #8
 3537 0412 40F07682 		bne	.L155
 884:.\main.c      **** 	            if((LCD_1_rxBuffer[0]==0xAA) && (LCD_1_rxBuffer[6]==0xC3) && (LCD_1_rxBuffer[7]==0x3C)
 3538              		.loc 1 884 0
 3539 0416 954B     		ldr	r3, .L655
 3540 0418 1B78     		ldrb	r3, [r3]
 3541 041a DBB2     		uxtb	r3, r3
 3542 041c AA2B     		cmp	r3, #170
 3543 041e 40F06982 		bne	.L156
 3544              		.loc 1 884 0 is_stmt 0 discriminator 1
 3545 0422 924B     		ldr	r3, .L655
 3546 0424 9B79     		ldrb	r3, [r3, #6]
 3547 0426 DBB2     		uxtb	r3, r3
 3548 0428 C32B     		cmp	r3, #195
 3549 042a 40F06382 		bne	.L156
 3550              		.loc 1 884 0 discriminator 2
 3551 042e 8F4B     		ldr	r3, .L655
 3552 0430 DB79     		ldrb	r3, [r3, #7]
 3553 0432 DBB2     		uxtb	r3, r3
 3554 0434 3C2B     		cmp	r3, #60
 3555 0436 40F05D82 		bne	.L156
 885:.\main.c      ****                     switch(LCD_1_rxBuffer[3]){
 3556              		.loc 1 885 0 is_stmt 1
 3557 043a 8C4B     		ldr	r3, .L655
 3558 043c DB78     		ldrb	r3, [r3, #3]
 3559 043e DBB2     		uxtb	r3, r3
 3560 0440 592B     		cmp	r3, #89
 3561 0442 1AD0     		beq	.L157
 3562 0444 592B     		cmp	r3, #89
 3563 0446 02DC     		bgt	.L158
 3564 0448 452B     		cmp	r3, #69
 3565 044a 0ED0     		beq	.L159
 3566 044c 52E2     		b	.L156
 3567              	.L158:
 3568 044e 5C2B     		cmp	r3, #92
ARM GAS  C:\Users\RECEPC~1\AppData\Local\Temp\ccU7e2eq.s 			page 81


 3569 0450 03D0     		beq	.L160
 3570 0452 7E2B     		cmp	r3, #126
 3571 0454 00F04682 		beq	.L161
 3572 0458 4CE2     		b	.L156
 3573              	.L160:
 886:.\main.c      **** 	                    case 0x5C:                                  //Venta							
 887:.\main.c      **** 							set_imagen(1,73);
 3574              		.loc 1 887 0
 3575 045a 0120     		movs	r0, #1
 3576 045c 4921     		movs	r1, #73
 3577 045e FFF7FEFF 		bl	set_imagen
 888:.\main.c      ****                             flujo_LCD1 = 3;
 3578              		.loc 1 888 0
 3579 0462 844B     		ldr	r3, .L655+8
 3580 0464 0322     		movs	r2, #3
 3581 0466 1A70     		strb	r2, [r3]
 889:.\main.c      **** 	                    break;                
 3582              		.loc 1 889 0
 3583 0468 44E2     		b	.L156
 3584              	.L159:
 890:.\main.c      **** 	                    
 891:.\main.c      **** 	                    case 0x45:								    //Otras opciones
 892:.\main.c      ****                             set_imagen(1,114);
 3585              		.loc 1 892 0
 3586 046a 0120     		movs	r0, #1
 3587 046c 7221     		movs	r1, #114
 3588 046e FFF7FEFF 		bl	set_imagen
 893:.\main.c      ****                             flujo_LCD1 = 15;
 3589              		.loc 1 893 0
 3590 0472 804B     		ldr	r3, .L655+8
 3591 0474 0F22     		movs	r2, #15
 3592 0476 1A70     		strb	r2, [r3]
 894:.\main.c      **** 	                    break; 
 3593              		.loc 1 894 0
 3594 0478 3CE2     		b	.L156
 3595              	.L157:
 895:.\main.c      **** 
 896:.\main.c      **** 	                    case 0x59:									//Corte
 897:.\main.c      **** 							set_imagen(1,57);
 3596              		.loc 1 897 0
 3597 047a 0120     		movs	r0, #1
 3598 047c 3921     		movs	r1, #57
 3599 047e FFF7FEFF 		bl	set_imagen
 898:.\main.c      **** 							rf_mod[0]='M';
 3600              		.loc 1 898 0
 3601 0482 7E4B     		ldr	r3, .L655+16
 3602 0484 4D22     		movs	r2, #77
 3603 0486 1A70     		strb	r2, [r3]
 899:.\main.c      **** 							rf_mod[1]='U';
 3604              		.loc 1 899 0
 3605 0488 7C4B     		ldr	r3, .L655+16
 3606 048a 5522     		movs	r2, #85
 3607 048c 5A70     		strb	r2, [r3, #1]
 900:.\main.c      **** 							rf_mod[2]='X';
 3608              		.loc 1 900 0
 3609 048e 7B4B     		ldr	r3, .L655+16
 3610 0490 5822     		movs	r2, #88
ARM GAS  C:\Users\RECEPC~1\AppData\Local\Temp\ccU7e2eq.s 			page 82


 3611 0492 9A70     		strb	r2, [r3, #2]
 901:.\main.c      **** 							rf_mod[3]='2';
 3612              		.loc 1 901 0
 3613 0494 794B     		ldr	r3, .L655+16
 3614 0496 3222     		movs	r2, #50
 3615 0498 DA70     		strb	r2, [r3, #3]
 902:.\main.c      ****                             if(seleccion_pos == 1){
 3616              		.loc 1 902 0
 3617 049a 754B     		ldr	r3, .L655+4
 3618 049c 1B78     		ldrb	r3, [r3]
 3619 049e DBB2     		uxtb	r3, r3
 3620 04a0 012B     		cmp	r3, #1
 3621 04a2 40F01181 		bne	.L162
 903:.\main.c      ****                                 totales(lado1.dir, lado1.mangueras);
 3622              		.loc 1 903 0
 3623 04a6 764B     		ldr	r3, .L655+20
 3624 04a8 1B78     		ldrb	r3, [r3]
 3625 04aa DAB2     		uxtb	r2, r3
 3626 04ac 744B     		ldr	r3, .L655+20
 3627 04ae 93F85C30 		ldrb	r3, [r3, #92]
 3628 04b2 DBB2     		uxtb	r3, r3
 3629 04b4 1046     		mov	r0, r2
 3630 04b6 1946     		mov	r1, r3
 3631 04b8 FFF7FEFF 		bl	totales
 904:.\main.c      ****                                 CyDelay(50);  
 3632              		.loc 1 904 0
 3633 04bc 3220     		movs	r0, #50
 3634 04be FFF7FEFF 		bl	CyDelay
 905:.\main.c      ****                                 x_1=4;
 3635              		.loc 1 905 0
 3636 04c2 0423     		movs	r3, #4
 3637 04c4 87F82D30 		strb	r3, [r7, #45]
 906:.\main.c      ****                                 for(x=0;x<=11;x++){     //volumen_pro1 
 3638              		.loc 1 906 0
 3639 04c8 0023     		movs	r3, #0
 3640 04ca 87F82F30 		strb	r3, [r7, #47]
 3641 04ce 18E0     		b	.L163
 3642              	.L164:
 907:.\main.c      ****                                     rf_mod[x_1]=(lado1.totales[0][x]&0X0F)+48;
 3643              		.loc 1 907 0 discriminator 3
 3644 04d0 97F82D30 		ldrb	r3, [r7, #45]	@ zero_extendqisi2
 3645 04d4 97F82F20 		ldrb	r2, [r7, #47]	@ zero_extendqisi2
 3646 04d8 6949     		ldr	r1, .L655+20
 3647 04da 0A44     		add	r2, r2, r1
 3648 04dc 9278     		ldrb	r2, [r2, #2]
 3649 04de D2B2     		uxtb	r2, r2
 3650 04e0 02F00F02 		and	r2, r2, #15
 3651 04e4 D2B2     		uxtb	r2, r2
 3652 04e6 3032     		adds	r2, r2, #48
 3653 04e8 D1B2     		uxtb	r1, r2
 3654 04ea 644A     		ldr	r2, .L655+16
 3655 04ec D154     		strb	r1, [r2, r3]
 908:.\main.c      ****                                     x_1++;
 3656              		.loc 1 908 0 discriminator 3
 3657 04ee 97F82D30 		ldrb	r3, [r7, #45]	@ zero_extendqisi2
 3658 04f2 0133     		adds	r3, r3, #1
 3659 04f4 87F82D30 		strb	r3, [r7, #45]
ARM GAS  C:\Users\RECEPC~1\AppData\Local\Temp\ccU7e2eq.s 			page 83


 906:.\main.c      ****                                 for(x=0;x<=11;x++){     //volumen_pro1 
 3660              		.loc 1 906 0 discriminator 3
 3661 04f8 97F82F30 		ldrb	r3, [r7, #47]	@ zero_extendqisi2
 3662 04fc 0133     		adds	r3, r3, #1
 3663 04fe 87F82F30 		strb	r3, [r7, #47]
 3664              	.L163:
 906:.\main.c      ****                                 for(x=0;x<=11;x++){     //volumen_pro1 
 3665              		.loc 1 906 0 is_stmt 0 discriminator 1
 3666 0502 97F82F30 		ldrb	r3, [r7, #47]	@ zero_extendqisi2
 3667 0506 0B2B     		cmp	r3, #11
 3668 0508 E2D9     		bls	.L164
 909:.\main.c      ****                                 }
 910:.\main.c      ****                                 for(x=12;x<=23;x++){    //dinero_pro1
 3669              		.loc 1 910 0 is_stmt 1
 3670 050a 0C23     		movs	r3, #12
 3671 050c 87F82F30 		strb	r3, [r7, #47]
 3672 0510 18E0     		b	.L165
 3673              	.L166:
 911:.\main.c      ****                                     rf_mod[x_1]=(lado1.totales[0][x]&0X0F)+48;
 3674              		.loc 1 911 0 discriminator 3
 3675 0512 97F82D30 		ldrb	r3, [r7, #45]	@ zero_extendqisi2
 3676 0516 97F82F20 		ldrb	r2, [r7, #47]	@ zero_extendqisi2
 3677 051a 5949     		ldr	r1, .L655+20
 3678 051c 0A44     		add	r2, r2, r1
 3679 051e 9278     		ldrb	r2, [r2, #2]
 3680 0520 D2B2     		uxtb	r2, r2
 3681 0522 02F00F02 		and	r2, r2, #15
 3682 0526 D2B2     		uxtb	r2, r2
 3683 0528 3032     		adds	r2, r2, #48
 3684 052a D1B2     		uxtb	r1, r2
 3685 052c 534A     		ldr	r2, .L655+16
 3686 052e D154     		strb	r1, [r2, r3]
 912:.\main.c      ****                                     x_1++;
 3687              		.loc 1 912 0 discriminator 3
 3688 0530 97F82D30 		ldrb	r3, [r7, #45]	@ zero_extendqisi2
 3689 0534 0133     		adds	r3, r3, #1
 3690 0536 87F82D30 		strb	r3, [r7, #45]
 910:.\main.c      ****                                     rf_mod[x_1]=(lado1.totales[0][x]&0X0F)+48;
 3691              		.loc 1 910 0 discriminator 3
 3692 053a 97F82F30 		ldrb	r3, [r7, #47]	@ zero_extendqisi2
 3693 053e 0133     		adds	r3, r3, #1
 3694 0540 87F82F30 		strb	r3, [r7, #47]
 3695              	.L165:
 910:.\main.c      ****                                     rf_mod[x_1]=(lado1.totales[0][x]&0X0F)+48;
 3696              		.loc 1 910 0 is_stmt 0 discriminator 1
 3697 0544 97F82F30 		ldrb	r3, [r7, #47]	@ zero_extendqisi2
 3698 0548 172B     		cmp	r3, #23
 3699 054a E2D9     		bls	.L166
 913:.\main.c      ****                                 }           
 914:.\main.c      ****                                 for(x=0;x<=11;x++){     //volumen_pro2     
 3700              		.loc 1 914 0 is_stmt 1
 3701 054c 0023     		movs	r3, #0
 3702 054e 87F82F30 		strb	r3, [r7, #47]
 3703 0552 18E0     		b	.L167
 3704              	.L168:
 915:.\main.c      ****                                     rf_mod[x_1]=(lado1.totales[1][x]&0X0F)+48;
 3705              		.loc 1 915 0 discriminator 3
ARM GAS  C:\Users\RECEPC~1\AppData\Local\Temp\ccU7e2eq.s 			page 84


 3706 0554 97F82D30 		ldrb	r3, [r7, #45]	@ zero_extendqisi2
 3707 0558 97F82F20 		ldrb	r2, [r7, #47]	@ zero_extendqisi2
 3708 055c 4849     		ldr	r1, .L655+20
 3709 055e 0A44     		add	r2, r2, r1
 3710 0560 927E     		ldrb	r2, [r2, #26]
 3711 0562 D2B2     		uxtb	r2, r2
 3712 0564 02F00F02 		and	r2, r2, #15
 3713 0568 D2B2     		uxtb	r2, r2
 3714 056a 3032     		adds	r2, r2, #48
 3715 056c D1B2     		uxtb	r1, r2
 3716 056e 434A     		ldr	r2, .L655+16
 3717 0570 D154     		strb	r1, [r2, r3]
 916:.\main.c      ****                                     x_1++;
 3718              		.loc 1 916 0 discriminator 3
 3719 0572 97F82D30 		ldrb	r3, [r7, #45]	@ zero_extendqisi2
 3720 0576 0133     		adds	r3, r3, #1
 3721 0578 87F82D30 		strb	r3, [r7, #45]
 914:.\main.c      ****                                     rf_mod[x_1]=(lado1.totales[1][x]&0X0F)+48;
 3722              		.loc 1 914 0 discriminator 3
 3723 057c 97F82F30 		ldrb	r3, [r7, #47]	@ zero_extendqisi2
 3724 0580 0133     		adds	r3, r3, #1
 3725 0582 87F82F30 		strb	r3, [r7, #47]
 3726              	.L167:
 914:.\main.c      ****                                     rf_mod[x_1]=(lado1.totales[1][x]&0X0F)+48;
 3727              		.loc 1 914 0 is_stmt 0 discriminator 1
 3728 0586 97F82F30 		ldrb	r3, [r7, #47]	@ zero_extendqisi2
 3729 058a 0B2B     		cmp	r3, #11
 3730 058c E2D9     		bls	.L168
 917:.\main.c      ****                                 }
 918:.\main.c      ****                                 for(x=12;x<=23;x++){    //dinero_pro2    
 3731              		.loc 1 918 0 is_stmt 1
 3732 058e 0C23     		movs	r3, #12
 3733 0590 87F82F30 		strb	r3, [r7, #47]
 3734 0594 18E0     		b	.L169
 3735              	.L170:
 919:.\main.c      ****                                     rf_mod[x_1]=(lado1.totales[1][x]&0X0F)+48;
 3736              		.loc 1 919 0 discriminator 3
 3737 0596 97F82D30 		ldrb	r3, [r7, #45]	@ zero_extendqisi2
 3738 059a 97F82F20 		ldrb	r2, [r7, #47]	@ zero_extendqisi2
 3739 059e 3849     		ldr	r1, .L655+20
 3740 05a0 0A44     		add	r2, r2, r1
 3741 05a2 927E     		ldrb	r2, [r2, #26]
 3742 05a4 D2B2     		uxtb	r2, r2
 3743 05a6 02F00F02 		and	r2, r2, #15
 3744 05aa D2B2     		uxtb	r2, r2
 3745 05ac 3032     		adds	r2, r2, #48
 3746 05ae D1B2     		uxtb	r1, r2
 3747 05b0 324A     		ldr	r2, .L655+16
 3748 05b2 D154     		strb	r1, [r2, r3]
 920:.\main.c      ****                                     x_1++;
 3749              		.loc 1 920 0 discriminator 3
 3750 05b4 97F82D30 		ldrb	r3, [r7, #45]	@ zero_extendqisi2
 3751 05b8 0133     		adds	r3, r3, #1
 3752 05ba 87F82D30 		strb	r3, [r7, #45]
 918:.\main.c      ****                                     rf_mod[x_1]=(lado1.totales[1][x]&0X0F)+48;
 3753              		.loc 1 918 0 discriminator 3
 3754 05be 97F82F30 		ldrb	r3, [r7, #47]	@ zero_extendqisi2
ARM GAS  C:\Users\RECEPC~1\AppData\Local\Temp\ccU7e2eq.s 			page 85


 3755 05c2 0133     		adds	r3, r3, #1
 3756 05c4 87F82F30 		strb	r3, [r7, #47]
 3757              	.L169:
 918:.\main.c      ****                                     rf_mod[x_1]=(lado1.totales[1][x]&0X0F)+48;
 3758              		.loc 1 918 0 is_stmt 0 discriminator 1
 3759 05c8 97F82F30 		ldrb	r3, [r7, #47]	@ zero_extendqisi2
 3760 05cc 172B     		cmp	r3, #23
 3761 05ce E2D9     		bls	.L170
 921:.\main.c      ****                                 }           
 922:.\main.c      ****                                 for(x=0;x<=11;x++){     //volumen_pro3   
 3762              		.loc 1 922 0 is_stmt 1
 3763 05d0 0023     		movs	r3, #0
 3764 05d2 87F82F30 		strb	r3, [r7, #47]
 3765 05d6 19E0     		b	.L171
 3766              	.L172:
 923:.\main.c      ****                                     rf_mod[x_1]=(lado1.totales[2][x]&0X0F)+48;
 3767              		.loc 1 923 0 discriminator 3
 3768 05d8 97F82D30 		ldrb	r3, [r7, #45]	@ zero_extendqisi2
 3769 05dc 97F82F20 		ldrb	r2, [r7, #47]	@ zero_extendqisi2
 3770 05e0 2749     		ldr	r1, .L655+20
 3771 05e2 0A44     		add	r2, r2, r1
 3772 05e4 92F83220 		ldrb	r2, [r2, #50]
 3773 05e8 D2B2     		uxtb	r2, r2
 3774 05ea 02F00F02 		and	r2, r2, #15
 3775 05ee D2B2     		uxtb	r2, r2
 3776 05f0 3032     		adds	r2, r2, #48
 3777 05f2 D1B2     		uxtb	r1, r2
 3778 05f4 214A     		ldr	r2, .L655+16
 3779 05f6 D154     		strb	r1, [r2, r3]
 924:.\main.c      ****                                     x_1++;
 3780              		.loc 1 924 0 discriminator 3
 3781 05f8 97F82D30 		ldrb	r3, [r7, #45]	@ zero_extendqisi2
 3782 05fc 0133     		adds	r3, r3, #1
 3783 05fe 87F82D30 		strb	r3, [r7, #45]
 922:.\main.c      ****                                     rf_mod[x_1]=(lado1.totales[2][x]&0X0F)+48;
 3784              		.loc 1 922 0 discriminator 3
 3785 0602 97F82F30 		ldrb	r3, [r7, #47]	@ zero_extendqisi2
 3786 0606 0133     		adds	r3, r3, #1
 3787 0608 87F82F30 		strb	r3, [r7, #47]
 3788              	.L171:
 922:.\main.c      ****                                     rf_mod[x_1]=(lado1.totales[2][x]&0X0F)+48;
 3789              		.loc 1 922 0 is_stmt 0 discriminator 1
 3790 060c 97F82F30 		ldrb	r3, [r7, #47]	@ zero_extendqisi2
 3791 0610 0B2B     		cmp	r3, #11
 3792 0612 E1D9     		bls	.L172
 925:.\main.c      ****                                 }
 926:.\main.c      ****                                 for(x=12;x<=23;x++){    //dinero_pro3    
 3793              		.loc 1 926 0 is_stmt 1
 3794 0614 0C23     		movs	r3, #12
 3795 0616 87F82F30 		strb	r3, [r7, #47]
 3796 061a 19E0     		b	.L173
 3797              	.L174:
 927:.\main.c      ****                                     rf_mod[x_1]=(lado1.totales[2][x]&0X0F)+48;
 3798              		.loc 1 927 0 discriminator 3
 3799 061c 97F82D30 		ldrb	r3, [r7, #45]	@ zero_extendqisi2
 3800 0620 97F82F20 		ldrb	r2, [r7, #47]	@ zero_extendqisi2
 3801 0624 1649     		ldr	r1, .L655+20
ARM GAS  C:\Users\RECEPC~1\AppData\Local\Temp\ccU7e2eq.s 			page 86


 3802 0626 0A44     		add	r2, r2, r1
 3803 0628 92F83220 		ldrb	r2, [r2, #50]
 3804 062c D2B2     		uxtb	r2, r2
 3805 062e 02F00F02 		and	r2, r2, #15
 3806 0632 D2B2     		uxtb	r2, r2
 3807 0634 3032     		adds	r2, r2, #48
 3808 0636 D1B2     		uxtb	r1, r2
 3809 0638 104A     		ldr	r2, .L655+16
 3810 063a D154     		strb	r1, [r2, r3]
 928:.\main.c      ****                                     x_1++;
 3811              		.loc 1 928 0 discriminator 3
 3812 063c 97F82D30 		ldrb	r3, [r7, #45]	@ zero_extendqisi2
 3813 0640 0133     		adds	r3, r3, #1
 3814 0642 87F82D30 		strb	r3, [r7, #45]
 926:.\main.c      ****                                     rf_mod[x_1]=(lado1.totales[2][x]&0X0F)+48;
 3815              		.loc 1 926 0 discriminator 3
 3816 0646 97F82F30 		ldrb	r3, [r7, #47]	@ zero_extendqisi2
 3817 064a 0133     		adds	r3, r3, #1
 3818 064c 87F82F30 		strb	r3, [r7, #47]
 3819              	.L173:
 926:.\main.c      ****                                     rf_mod[x_1]=(lado1.totales[2][x]&0X0F)+48;
 3820              		.loc 1 926 0 is_stmt 0 discriminator 1
 3821 0650 97F82F30 		ldrb	r3, [r7, #47]	@ zero_extendqisi2
 3822 0654 172B     		cmp	r3, #23
 3823 0656 E1D9     		bls	.L174
 929:.\main.c      ****                                 }
 930:.\main.c      ****                                 rf_mod[75]='*';                            
 3824              		.loc 1 930 0 is_stmt 1
 3825 0658 084B     		ldr	r3, .L655+16
 3826 065a 2A22     		movs	r2, #42
 3827 065c 83F84B20 		strb	r2, [r3, #75]
 931:.\main.c      ****                                 PC_ClearRxBuffer();
 3828              		.loc 1 931 0
 3829 0660 FFF7FEFF 		bl	PC_ClearRxBuffer
 932:.\main.c      ****     						    for(x=0;x<=75;x++){
 3830              		.loc 1 932 0
 3831 0664 0023     		movs	r3, #0
 3832 0666 87F82F30 		strb	r3, [r7, #47]
 3833 066a 17E0     		b	.L175
 3834              	.L656:
 3835              		.align	2
 3836              	.L655:
 3837 066c 00000000 		.word	LCD_1_rxBuffer
 3838 0670 00000000 		.word	seleccion_pos
 3839 0674 00000000 		.word	flujo_LCD1
 3840 0678 00000000 		.word	id_teclado1
 3841 067c 00000000 		.word	rf_mod
 3842 0680 00000000 		.word	lado1
 3843              	.L176:
 933:.\main.c      ****     							   PC_PutChar(rf_mod[x]);
 3844              		.loc 1 933 0 discriminator 3
 3845 0684 97F82F30 		ldrb	r3, [r7, #47]	@ zero_extendqisi2
 3846 0688 CB4A     		ldr	r2, .L657
 3847 068a D35C     		ldrb	r3, [r2, r3]	@ zero_extendqisi2
 3848 068c 1846     		mov	r0, r3
 3849 068e FFF7FEFF 		bl	PC_PutChar
 932:.\main.c      ****     						    for(x=0;x<=75;x++){
ARM GAS  C:\Users\RECEPC~1\AppData\Local\Temp\ccU7e2eq.s 			page 87


 3850              		.loc 1 932 0 discriminator 3
 3851 0692 97F82F30 		ldrb	r3, [r7, #47]	@ zero_extendqisi2
 3852 0696 0133     		adds	r3, r3, #1
 3853 0698 87F82F30 		strb	r3, [r7, #47]
 3854              	.L175:
 932:.\main.c      ****     						    for(x=0;x<=75;x++){
 3855              		.loc 1 932 0 is_stmt 0 discriminator 1
 3856 069c 97F82F30 		ldrb	r3, [r7, #47]	@ zero_extendqisi2
 3857 06a0 4B2B     		cmp	r3, #75
 3858 06a2 EFD9     		bls	.L176
 934:.\main.c      ****     						    }                                 
 935:.\main.c      ****     							CyDelay(250);                
 3859              		.loc 1 935 0 is_stmt 1
 3860 06a4 FA20     		movs	r0, #250
 3861 06a6 FFF7FEFF 		bl	CyDelay
 936:.\main.c      ****     							if(PC_GetRxBufferSize()>=2){
 3862              		.loc 1 936 0
 3863 06aa FFF7FEFF 		bl	PC_GetRxBufferSize
 3864 06ae 0346     		mov	r3, r0
 3865 06b0 012B     		cmp	r3, #1
 3866 06b2 09D9     		bls	.L162
 937:.\main.c      ****  							        set_imagen(1,74);
 3867              		.loc 1 937 0
 3868 06b4 0120     		movs	r0, #1
 3869 06b6 4A21     		movs	r1, #74
 3870 06b8 FFF7FEFF 		bl	set_imagen
 938:.\main.c      **** 							        flujo_LCD1=0;
 3871              		.loc 1 938 0
 3872 06bc BF4B     		ldr	r3, .L657+4
 3873 06be 0022     		movs	r2, #0
 3874 06c0 1A70     		strb	r2, [r3]
 939:.\main.c      **** 							        lado1.estado=libre;     //Fin de reimpresion                                        
 3875              		.loc 1 939 0
 3876 06c2 BF4B     		ldr	r3, .L657+8
 3877 06c4 0122     		movs	r2, #1
 3878 06c6 5A70     		strb	r2, [r3, #1]
 3879              	.L162:
 940:.\main.c      **** 							    }
 941:.\main.c      ****                             }
 942:.\main.c      ****                 			if(seleccion_pos == 2){
 3880              		.loc 1 942 0
 3881 06c8 BE4B     		ldr	r3, .L657+12
 3882 06ca 1B78     		ldrb	r3, [r3]
 3883 06cc DBB2     		uxtb	r3, r3
 3884 06ce 022B     		cmp	r3, #2
 3885 06d0 40F00581 		bne	.L177
 943:.\main.c      ****                                 totales(lado2.dir, lado2.mangueras);
 3886              		.loc 1 943 0
 3887 06d4 BC4B     		ldr	r3, .L657+16
 3888 06d6 1B78     		ldrb	r3, [r3]
 3889 06d8 DAB2     		uxtb	r2, r3
 3890 06da BB4B     		ldr	r3, .L657+16
 3891 06dc 93F85C30 		ldrb	r3, [r3, #92]
 3892 06e0 DBB2     		uxtb	r3, r3
 3893 06e2 1046     		mov	r0, r2
 3894 06e4 1946     		mov	r1, r3
 3895 06e6 FFF7FEFF 		bl	totales
ARM GAS  C:\Users\RECEPC~1\AppData\Local\Temp\ccU7e2eq.s 			page 88


 944:.\main.c      ****                                 CyDelay(50);  
 3896              		.loc 1 944 0
 3897 06ea 3220     		movs	r0, #50
 3898 06ec FFF7FEFF 		bl	CyDelay
 945:.\main.c      ****                                 x_1=4;
 3899              		.loc 1 945 0
 3900 06f0 0423     		movs	r3, #4
 3901 06f2 87F82D30 		strb	r3, [r7, #45]
 946:.\main.c      ****                                 for(x=0;x<=11;x++){     //volumen_pro1 
 3902              		.loc 1 946 0
 3903 06f6 0023     		movs	r3, #0
 3904 06f8 87F82F30 		strb	r3, [r7, #47]
 3905 06fc 18E0     		b	.L178
 3906              	.L179:
 947:.\main.c      ****                                     rf_mod[x_1]=(lado2.totales[0][x]&0X0F)+48;
 3907              		.loc 1 947 0 discriminator 3
 3908 06fe 97F82D30 		ldrb	r3, [r7, #45]	@ zero_extendqisi2
 3909 0702 97F82F20 		ldrb	r2, [r7, #47]	@ zero_extendqisi2
 3910 0706 B049     		ldr	r1, .L657+16
 3911 0708 0A44     		add	r2, r2, r1
 3912 070a 9278     		ldrb	r2, [r2, #2]
 3913 070c D2B2     		uxtb	r2, r2
 3914 070e 02F00F02 		and	r2, r2, #15
 3915 0712 D2B2     		uxtb	r2, r2
 3916 0714 3032     		adds	r2, r2, #48
 3917 0716 D1B2     		uxtb	r1, r2
 3918 0718 A74A     		ldr	r2, .L657
 3919 071a D154     		strb	r1, [r2, r3]
 948:.\main.c      ****                                     x_1++;
 3920              		.loc 1 948 0 discriminator 3
 3921 071c 97F82D30 		ldrb	r3, [r7, #45]	@ zero_extendqisi2
 3922 0720 0133     		adds	r3, r3, #1
 3923 0722 87F82D30 		strb	r3, [r7, #45]
 946:.\main.c      ****                                 for(x=0;x<=11;x++){     //volumen_pro1 
 3924              		.loc 1 946 0 discriminator 3
 3925 0726 97F82F30 		ldrb	r3, [r7, #47]	@ zero_extendqisi2
 3926 072a 0133     		adds	r3, r3, #1
 3927 072c 87F82F30 		strb	r3, [r7, #47]
 3928              	.L178:
 946:.\main.c      ****                                 for(x=0;x<=11;x++){     //volumen_pro1 
 3929              		.loc 1 946 0 is_stmt 0 discriminator 1
 3930 0730 97F82F30 		ldrb	r3, [r7, #47]	@ zero_extendqisi2
 3931 0734 0B2B     		cmp	r3, #11
 3932 0736 E2D9     		bls	.L179
 949:.\main.c      ****                                 }
 950:.\main.c      ****                                 for(x=12;x<=23;x++){    //dinero_pro1
 3933              		.loc 1 950 0 is_stmt 1
 3934 0738 0C23     		movs	r3, #12
 3935 073a 87F82F30 		strb	r3, [r7, #47]
 3936 073e 18E0     		b	.L180
 3937              	.L181:
 951:.\main.c      ****                                     rf_mod[x_1]=(lado2.totales[0][x]&0X0F)+48;
 3938              		.loc 1 951 0 discriminator 3
 3939 0740 97F82D30 		ldrb	r3, [r7, #45]	@ zero_extendqisi2
 3940 0744 97F82F20 		ldrb	r2, [r7, #47]	@ zero_extendqisi2
 3941 0748 9F49     		ldr	r1, .L657+16
 3942 074a 0A44     		add	r2, r2, r1
ARM GAS  C:\Users\RECEPC~1\AppData\Local\Temp\ccU7e2eq.s 			page 89


 3943 074c 9278     		ldrb	r2, [r2, #2]
 3944 074e D2B2     		uxtb	r2, r2
 3945 0750 02F00F02 		and	r2, r2, #15
 3946 0754 D2B2     		uxtb	r2, r2
 3947 0756 3032     		adds	r2, r2, #48
 3948 0758 D1B2     		uxtb	r1, r2
 3949 075a 974A     		ldr	r2, .L657
 3950 075c D154     		strb	r1, [r2, r3]
 952:.\main.c      ****                                     x_1++;
 3951              		.loc 1 952 0 discriminator 3
 3952 075e 97F82D30 		ldrb	r3, [r7, #45]	@ zero_extendqisi2
 3953 0762 0133     		adds	r3, r3, #1
 3954 0764 87F82D30 		strb	r3, [r7, #45]
 950:.\main.c      ****                                     rf_mod[x_1]=(lado2.totales[0][x]&0X0F)+48;
 3955              		.loc 1 950 0 discriminator 3
 3956 0768 97F82F30 		ldrb	r3, [r7, #47]	@ zero_extendqisi2
 3957 076c 0133     		adds	r3, r3, #1
 3958 076e 87F82F30 		strb	r3, [r7, #47]
 3959              	.L180:
 950:.\main.c      ****                                     rf_mod[x_1]=(lado2.totales[0][x]&0X0F)+48;
 3960              		.loc 1 950 0 is_stmt 0 discriminator 1
 3961 0772 97F82F30 		ldrb	r3, [r7, #47]	@ zero_extendqisi2
 3962 0776 172B     		cmp	r3, #23
 3963 0778 E2D9     		bls	.L181
 953:.\main.c      ****                                 }           
 954:.\main.c      ****                                 for(x=0;x<=11;x++){     //volumen_pro2     
 3964              		.loc 1 954 0 is_stmt 1
 3965 077a 0023     		movs	r3, #0
 3966 077c 87F82F30 		strb	r3, [r7, #47]
 3967 0780 18E0     		b	.L182
 3968              	.L183:
 955:.\main.c      ****                                     rf_mod[x_1]=(lado2.totales[1][x]&0X0F)+48;
 3969              		.loc 1 955 0 discriminator 3
 3970 0782 97F82D30 		ldrb	r3, [r7, #45]	@ zero_extendqisi2
 3971 0786 97F82F20 		ldrb	r2, [r7, #47]	@ zero_extendqisi2
 3972 078a 8F49     		ldr	r1, .L657+16
 3973 078c 0A44     		add	r2, r2, r1
 3974 078e 927E     		ldrb	r2, [r2, #26]
 3975 0790 D2B2     		uxtb	r2, r2
 3976 0792 02F00F02 		and	r2, r2, #15
 3977 0796 D2B2     		uxtb	r2, r2
 3978 0798 3032     		adds	r2, r2, #48
 3979 079a D1B2     		uxtb	r1, r2
 3980 079c 864A     		ldr	r2, .L657
 3981 079e D154     		strb	r1, [r2, r3]
 956:.\main.c      ****                                     x_1++;
 3982              		.loc 1 956 0 discriminator 3
 3983 07a0 97F82D30 		ldrb	r3, [r7, #45]	@ zero_extendqisi2
 3984 07a4 0133     		adds	r3, r3, #1
 3985 07a6 87F82D30 		strb	r3, [r7, #45]
 954:.\main.c      ****                                     rf_mod[x_1]=(lado2.totales[1][x]&0X0F)+48;
 3986              		.loc 1 954 0 discriminator 3
 3987 07aa 97F82F30 		ldrb	r3, [r7, #47]	@ zero_extendqisi2
 3988 07ae 0133     		adds	r3, r3, #1
 3989 07b0 87F82F30 		strb	r3, [r7, #47]
 3990              	.L182:
 954:.\main.c      ****                                     rf_mod[x_1]=(lado2.totales[1][x]&0X0F)+48;
ARM GAS  C:\Users\RECEPC~1\AppData\Local\Temp\ccU7e2eq.s 			page 90


 3991              		.loc 1 954 0 is_stmt 0 discriminator 1
 3992 07b4 97F82F30 		ldrb	r3, [r7, #47]	@ zero_extendqisi2
 3993 07b8 0B2B     		cmp	r3, #11
 3994 07ba E2D9     		bls	.L183
 957:.\main.c      ****                                 }
 958:.\main.c      ****                                 for(x=12;x<=23;x++){    //dinero_pro2    
 3995              		.loc 1 958 0 is_stmt 1
 3996 07bc 0C23     		movs	r3, #12
 3997 07be 87F82F30 		strb	r3, [r7, #47]
 3998 07c2 18E0     		b	.L184
 3999              	.L185:
 959:.\main.c      ****                                     rf_mod[x_1]=(lado2.totales[1][x]&0X0F)+48;
 4000              		.loc 1 959 0 discriminator 3
 4001 07c4 97F82D30 		ldrb	r3, [r7, #45]	@ zero_extendqisi2
 4002 07c8 97F82F20 		ldrb	r2, [r7, #47]	@ zero_extendqisi2
 4003 07cc 7E49     		ldr	r1, .L657+16
 4004 07ce 0A44     		add	r2, r2, r1
 4005 07d0 927E     		ldrb	r2, [r2, #26]
 4006 07d2 D2B2     		uxtb	r2, r2
 4007 07d4 02F00F02 		and	r2, r2, #15
 4008 07d8 D2B2     		uxtb	r2, r2
 4009 07da 3032     		adds	r2, r2, #48
 4010 07dc D1B2     		uxtb	r1, r2
 4011 07de 764A     		ldr	r2, .L657
 4012 07e0 D154     		strb	r1, [r2, r3]
 960:.\main.c      ****                                     x_1++;
 4013              		.loc 1 960 0 discriminator 3
 4014 07e2 97F82D30 		ldrb	r3, [r7, #45]	@ zero_extendqisi2
 4015 07e6 0133     		adds	r3, r3, #1
 4016 07e8 87F82D30 		strb	r3, [r7, #45]
 958:.\main.c      ****                                     rf_mod[x_1]=(lado2.totales[1][x]&0X0F)+48;
 4017              		.loc 1 958 0 discriminator 3
 4018 07ec 97F82F30 		ldrb	r3, [r7, #47]	@ zero_extendqisi2
 4019 07f0 0133     		adds	r3, r3, #1
 4020 07f2 87F82F30 		strb	r3, [r7, #47]
 4021              	.L184:
 958:.\main.c      ****                                     rf_mod[x_1]=(lado2.totales[1][x]&0X0F)+48;
 4022              		.loc 1 958 0 is_stmt 0 discriminator 1
 4023 07f6 97F82F30 		ldrb	r3, [r7, #47]	@ zero_extendqisi2
 4024 07fa 172B     		cmp	r3, #23
 4025 07fc E2D9     		bls	.L185
 961:.\main.c      ****                                 }           
 962:.\main.c      ****                                 for(x=0;x<=11;x++){     //volumen_pro3   
 4026              		.loc 1 962 0 is_stmt 1
 4027 07fe 0023     		movs	r3, #0
 4028 0800 87F82F30 		strb	r3, [r7, #47]
 4029 0804 19E0     		b	.L186
 4030              	.L187:
 963:.\main.c      ****                                     rf_mod[x_1]=(lado2.totales[2][x]&0X0F)+48;
 4031              		.loc 1 963 0 discriminator 3
 4032 0806 97F82D30 		ldrb	r3, [r7, #45]	@ zero_extendqisi2
 4033 080a 97F82F20 		ldrb	r2, [r7, #47]	@ zero_extendqisi2
 4034 080e 6E49     		ldr	r1, .L657+16
 4035 0810 0A44     		add	r2, r2, r1
 4036 0812 92F83220 		ldrb	r2, [r2, #50]
 4037 0816 D2B2     		uxtb	r2, r2
 4038 0818 02F00F02 		and	r2, r2, #15
ARM GAS  C:\Users\RECEPC~1\AppData\Local\Temp\ccU7e2eq.s 			page 91


 4039 081c D2B2     		uxtb	r2, r2
 4040 081e 3032     		adds	r2, r2, #48
 4041 0820 D1B2     		uxtb	r1, r2
 4042 0822 654A     		ldr	r2, .L657
 4043 0824 D154     		strb	r1, [r2, r3]
 964:.\main.c      ****                                     x_1++;
 4044              		.loc 1 964 0 discriminator 3
 4045 0826 97F82D30 		ldrb	r3, [r7, #45]	@ zero_extendqisi2
 4046 082a 0133     		adds	r3, r3, #1
 4047 082c 87F82D30 		strb	r3, [r7, #45]
 962:.\main.c      ****                                     rf_mod[x_1]=(lado2.totales[2][x]&0X0F)+48;
 4048              		.loc 1 962 0 discriminator 3
 4049 0830 97F82F30 		ldrb	r3, [r7, #47]	@ zero_extendqisi2
 4050 0834 0133     		adds	r3, r3, #1
 4051 0836 87F82F30 		strb	r3, [r7, #47]
 4052              	.L186:
 962:.\main.c      ****                                     rf_mod[x_1]=(lado2.totales[2][x]&0X0F)+48;
 4053              		.loc 1 962 0 is_stmt 0 discriminator 1
 4054 083a 97F82F30 		ldrb	r3, [r7, #47]	@ zero_extendqisi2
 4055 083e 0B2B     		cmp	r3, #11
 4056 0840 E1D9     		bls	.L187
 965:.\main.c      ****                                 }
 966:.\main.c      ****                                 for(x=12;x<=23;x++){    //dinero_pro3    
 4057              		.loc 1 966 0 is_stmt 1
 4058 0842 0C23     		movs	r3, #12
 4059 0844 87F82F30 		strb	r3, [r7, #47]
 4060 0848 19E0     		b	.L188
 4061              	.L189:
 967:.\main.c      ****                                     rf_mod[x_1]=(lado2.totales[2][x]&0X0F)+48;
 4062              		.loc 1 967 0 discriminator 3
 4063 084a 97F82D30 		ldrb	r3, [r7, #45]	@ zero_extendqisi2
 4064 084e 97F82F20 		ldrb	r2, [r7, #47]	@ zero_extendqisi2
 4065 0852 5D49     		ldr	r1, .L657+16
 4066 0854 0A44     		add	r2, r2, r1
 4067 0856 92F83220 		ldrb	r2, [r2, #50]
 4068 085a D2B2     		uxtb	r2, r2
 4069 085c 02F00F02 		and	r2, r2, #15
 4070 0860 D2B2     		uxtb	r2, r2
 4071 0862 3032     		adds	r2, r2, #48
 4072 0864 D1B2     		uxtb	r1, r2
 4073 0866 544A     		ldr	r2, .L657
 4074 0868 D154     		strb	r1, [r2, r3]
 968:.\main.c      ****                                     x_1++;
 4075              		.loc 1 968 0 discriminator 3
 4076 086a 97F82D30 		ldrb	r3, [r7, #45]	@ zero_extendqisi2
 4077 086e 0133     		adds	r3, r3, #1
 4078 0870 87F82D30 		strb	r3, [r7, #45]
 966:.\main.c      ****                                     rf_mod[x_1]=(lado2.totales[2][x]&0X0F)+48;
 4079              		.loc 1 966 0 discriminator 3
 4080 0874 97F82F30 		ldrb	r3, [r7, #47]	@ zero_extendqisi2
 4081 0878 0133     		adds	r3, r3, #1
 4082 087a 87F82F30 		strb	r3, [r7, #47]
 4083              	.L188:
 966:.\main.c      ****                                     rf_mod[x_1]=(lado2.totales[2][x]&0X0F)+48;
 4084              		.loc 1 966 0 is_stmt 0 discriminator 1
 4085 087e 97F82F30 		ldrb	r3, [r7, #47]	@ zero_extendqisi2
 4086 0882 172B     		cmp	r3, #23
ARM GAS  C:\Users\RECEPC~1\AppData\Local\Temp\ccU7e2eq.s 			page 92


 4087 0884 E1D9     		bls	.L189
 969:.\main.c      ****                                 }
 970:.\main.c      ****                                 rf_mod[75]='*';                            
 4088              		.loc 1 970 0 is_stmt 1
 4089 0886 4C4B     		ldr	r3, .L657
 4090 0888 2A22     		movs	r2, #42
 4091 088a 83F84B20 		strb	r2, [r3, #75]
 971:.\main.c      ****                                 PC_ClearRxBuffer();
 4092              		.loc 1 971 0
 4093 088e FFF7FEFF 		bl	PC_ClearRxBuffer
 972:.\main.c      ****     						    for(x=0;x<=75;x++){
 4094              		.loc 1 972 0
 4095 0892 0023     		movs	r3, #0
 4096 0894 87F82F30 		strb	r3, [r7, #47]
 4097 0898 0BE0     		b	.L190
 4098              	.L191:
 973:.\main.c      ****     							   PC_PutChar(rf_mod[x]);
 4099              		.loc 1 973 0 discriminator 3
 4100 089a 97F82F30 		ldrb	r3, [r7, #47]	@ zero_extendqisi2
 4101 089e 464A     		ldr	r2, .L657
 4102 08a0 D35C     		ldrb	r3, [r2, r3]	@ zero_extendqisi2
 4103 08a2 1846     		mov	r0, r3
 4104 08a4 FFF7FEFF 		bl	PC_PutChar
 972:.\main.c      ****     						    for(x=0;x<=75;x++){
 4105              		.loc 1 972 0 discriminator 3
 4106 08a8 97F82F30 		ldrb	r3, [r7, #47]	@ zero_extendqisi2
 4107 08ac 0133     		adds	r3, r3, #1
 4108 08ae 87F82F30 		strb	r3, [r7, #47]
 4109              	.L190:
 972:.\main.c      ****     						    for(x=0;x<=75;x++){
 4110              		.loc 1 972 0 is_stmt 0 discriminator 1
 4111 08b2 97F82F30 		ldrb	r3, [r7, #47]	@ zero_extendqisi2
 4112 08b6 4B2B     		cmp	r3, #75
 4113 08b8 EFD9     		bls	.L191
 974:.\main.c      ****     						    }                                 
 975:.\main.c      ****     							CyDelay(250);                
 4114              		.loc 1 975 0 is_stmt 1
 4115 08ba FA20     		movs	r0, #250
 4116 08bc FFF7FEFF 		bl	CyDelay
 976:.\main.c      ****     							if(PC_GetRxBufferSize()>=2){
 4117              		.loc 1 976 0
 4118 08c0 FFF7FEFF 		bl	PC_GetRxBufferSize
 4119 08c4 0346     		mov	r3, r0
 4120 08c6 012B     		cmp	r3, #1
 4121 08c8 09D9     		bls	.L177
 977:.\main.c      ****  							        set_imagen(1,74);
 4122              		.loc 1 977 0
 4123 08ca 0120     		movs	r0, #1
 4124 08cc 4A21     		movs	r1, #74
 4125 08ce FFF7FEFF 		bl	set_imagen
 978:.\main.c      **** 							        flujo_LCD1=0;
 4126              		.loc 1 978 0
 4127 08d2 3A4B     		ldr	r3, .L657+4
 4128 08d4 0022     		movs	r2, #0
 4129 08d6 1A70     		strb	r2, [r3]
 979:.\main.c      **** 							        lado2.estado=libre;     //Fin de reimpresion                                        
 4130              		.loc 1 979 0
ARM GAS  C:\Users\RECEPC~1\AppData\Local\Temp\ccU7e2eq.s 			page 93


 4131 08d8 3B4B     		ldr	r3, .L657+16
 4132 08da 0122     		movs	r2, #1
 4133 08dc 5A70     		strb	r2, [r3, #1]
 4134              	.L177:
 980:.\main.c      **** 							    }
 981:.\main.c      ****                             }                			                                
 982:.\main.c      **** 							PC_ClearRxBuffer();                                                                         
 4135              		.loc 1 982 0
 4136 08de FFF7FEFF 		bl	PC_ClearRxBuffer
 983:.\main.c      **** 	                    break;					
 4137              		.loc 1 983 0
 4138 08e2 07E0     		b	.L156
 4139              	.L161:
 984:.\main.c      **** 						
 985:.\main.c      **** 	                    case 0x7E:									//ir a menu
 986:.\main.c      **** 						  set_imagen(1,74);	
 4140              		.loc 1 986 0
 4141 08e4 0120     		movs	r0, #1
 4142 08e6 4A21     		movs	r1, #74
 4143 08e8 FFF7FEFF 		bl	set_imagen
 987:.\main.c      **** 	                      flujo_LCD1=0;     
 4144              		.loc 1 987 0
 4145 08ec 334B     		ldr	r3, .L657+4
 4146 08ee 0022     		movs	r2, #0
 4147 08f0 1A70     		strb	r2, [r3]
 988:.\main.c      **** 	                    break;					
 4148              		.loc 1 988 0
 4149 08f2 00BF     		nop
 4150              	.L156:
 989:.\main.c      **** 	                }
 990:.\main.c      **** 	            }
 991:.\main.c      **** 	            CyDelay(100);
 4151              		.loc 1 991 0
 4152 08f4 6420     		movs	r0, #100
 4153 08f6 FFF7FEFF 		bl	CyDelay
 992:.\main.c      **** 	            LCD_1_ClearRxBuffer();
 4154              		.loc 1 992 0
 4155 08fa FFF7FEFF 		bl	LCD_1_ClearRxBuffer
 993:.\main.c      **** 	        }				
 994:.\main.c      **** 		break;
 4156              		.loc 1 994 0
 4157 08fe 04F075B8 		b	.L117
 4158              	.L155:
 4159              		.loc 1 994 0 is_stmt 0 discriminator 4
 4160 0902 04F073B8 		b	.L117
 4161              	.L123:
 995:.\main.c      ****             
 996:.\main.c      ****          case 3:     
 997:.\main.c      ****          if(LCD_1_GetRxBufferSize()==8){
 4162              		.loc 1 997 0 is_stmt 1
 4163 0906 FFF7FEFF 		bl	LCD_1_GetRxBufferSize
 4164 090a 0346     		mov	r3, r0
 4165 090c 082B     		cmp	r3, #8
 4166 090e 50D1     		bne	.L192
 998:.\main.c      ****             if((LCD_1_rxBuffer[0]==0xAA) && (LCD_1_rxBuffer[6]==0xC3) && (LCD_1_rxBuffer[7]==0x3C))
 4167              		.loc 1 998 0
 4168 0910 2E4B     		ldr	r3, .L657+20
ARM GAS  C:\Users\RECEPC~1\AppData\Local\Temp\ccU7e2eq.s 			page 94


 4169 0912 1B78     		ldrb	r3, [r3]
 4170 0914 DBB2     		uxtb	r3, r3
 4171 0916 AA2B     		cmp	r3, #170
 4172 0918 44D1     		bne	.L193
 4173              		.loc 1 998 0 is_stmt 0 discriminator 1
 4174 091a 2C4B     		ldr	r3, .L657+20
 4175 091c 9B79     		ldrb	r3, [r3, #6]
 4176 091e DBB2     		uxtb	r3, r3
 4177 0920 C32B     		cmp	r3, #195
 4178 0922 3FD1     		bne	.L193
 4179              		.loc 1 998 0 discriminator 2
 4180 0924 294B     		ldr	r3, .L657+20
 4181 0926 DB79     		ldrb	r3, [r3, #7]
 4182 0928 DBB2     		uxtb	r3, r3
 4183 092a 3C2B     		cmp	r3, #60
 4184 092c 3AD1     		bne	.L193
 999:.\main.c      ****                 switch(LCD_1_rxBuffer[3]){
 4185              		.loc 1 999 0 is_stmt 1
 4186 092e 274B     		ldr	r3, .L657+20
 4187 0930 DB78     		ldrb	r3, [r3, #3]
 4188 0932 DBB2     		uxtb	r3, r3
 4189 0934 5F2B     		cmp	r3, #95
 4190 0936 09D0     		beq	.L194
 4191 0938 5F2B     		cmp	r3, #95
 4192 093a 02DC     		bgt	.L195
 4193 093c 5E2B     		cmp	r3, #94
 4194 093e 13D0     		beq	.L196
 4195 0940 30E0     		b	.L193
 4196              	.L195:
 4197 0942 7E2B     		cmp	r3, #126
 4198 0944 1ED0     		beq	.L197
 4199 0946 942B     		cmp	r3, #148
 4200 0948 24D0     		beq	.L198
 4201 094a 2BE0     		b	.L193
 4202              	.L194:
1000:.\main.c      ****                     case 0x5F:							//Sin ID	                                                     
1001:.\main.c      ****                       set_imagen(1,18);                 //Pasa a pantalla de tipo de venta viejo:5
 4203              		.loc 1 1001 0
 4204 094c 0120     		movs	r0, #1
 4205 094e 1221     		movs	r1, #18
 4206 0950 FFF7FEFF 		bl	set_imagen
1002:.\main.c      ****                       tipo_venta = 0;
 4207              		.loc 1 1002 0
 4208 0954 1E4B     		ldr	r3, .L657+24
 4209 0956 0022     		movs	r2, #0
 4210 0958 1A70     		strb	r2, [r3]
1003:.\main.c      ****                       id_teclado1 = 8;
 4211              		.loc 1 1003 0
 4212 095a 1E4B     		ldr	r3, .L657+28
 4213 095c 0822     		movs	r2, #8
 4214 095e 1A70     		strb	r2, [r3]
1004:.\main.c      ****                       flujo_LCD1 = 11;                 // viejo: 4
 4215              		.loc 1 1004 0
 4216 0960 164B     		ldr	r3, .L657+4
 4217 0962 0B22     		movs	r2, #11
 4218 0964 1A70     		strb	r2, [r3]
1005:.\main.c      ****                     break;
ARM GAS  C:\Users\RECEPC~1\AppData\Local\Temp\ccU7e2eq.s 			page 95


 4219              		.loc 1 1005 0
 4220 0966 1DE0     		b	.L193
 4221              	.L196:
1006:.\main.c      ****                     
1007:.\main.c      ****                     case 0x5E:  						//Con ID                                         
1008:.\main.c      ****                       set_imagen(1,18);
 4222              		.loc 1 1008 0
 4223 0968 0120     		movs	r0, #1
 4224 096a 1221     		movs	r1, #18
 4225 096c FFF7FEFF 		bl	set_imagen
1009:.\main.c      ****                       tipo_venta = 1;
 4226              		.loc 1 1009 0
 4227 0970 174B     		ldr	r3, .L657+24
 4228 0972 0122     		movs	r2, #1
 4229 0974 1A70     		strb	r2, [r3]
1010:.\main.c      ****                       flujo_LCD1 = 11;
 4230              		.loc 1 1010 0
 4231 0976 114B     		ldr	r3, .L657+4
 4232 0978 0B22     		movs	r2, #11
 4233 097a 1A70     		strb	r2, [r3]
1011:.\main.c      ****                       id_teclado1 = 0;
 4234              		.loc 1 1011 0
 4235 097c 154B     		ldr	r3, .L657+28
 4236 097e 0022     		movs	r2, #0
 4237 0980 1A70     		strb	r2, [r3]
1012:.\main.c      ****                     break;	
 4238              		.loc 1 1012 0
 4239 0982 0FE0     		b	.L193
 4240              	.L197:
1013:.\main.c      **** 
1014:.\main.c      ****                     case 0x7E:						    //ir a menu
1015:.\main.c      **** 					  set_imagen(1,74);	
 4241              		.loc 1 1015 0
 4242 0984 0120     		movs	r0, #1
 4243 0986 4A21     		movs	r1, #74
 4244 0988 FFF7FEFF 		bl	set_imagen
1016:.\main.c      ****                       flujo_LCD1 = 0;     
 4245              		.loc 1 1016 0
 4246 098c 0B4B     		ldr	r3, .L657+4
 4247 098e 0022     		movs	r2, #0
 4248 0990 1A70     		strb	r2, [r3]
1017:.\main.c      ****                     break;	
 4249              		.loc 1 1017 0
 4250 0992 07E0     		b	.L193
 4251              	.L198:
1018:.\main.c      ****                     
1019:.\main.c      ****                     case 0x94:
1020:.\main.c      ****                         set_imagen(1,99); //Regreso a pantalla de opcion de venta
 4252              		.loc 1 1020 0
 4253 0994 0120     		movs	r0, #1
 4254 0996 6321     		movs	r1, #99
 4255 0998 FFF7FEFF 		bl	set_imagen
1021:.\main.c      ****                         flujo_LCD1 = 1;
 4256              		.loc 1 1021 0
 4257 099c 074B     		ldr	r3, .L657+4
 4258 099e 0122     		movs	r2, #1
 4259 09a0 1A70     		strb	r2, [r3]
ARM GAS  C:\Users\RECEPC~1\AppData\Local\Temp\ccU7e2eq.s 			page 96


1022:.\main.c      ****                     break;
 4260              		.loc 1 1022 0
 4261 09a2 00BF     		nop
 4262              	.L193:
1023:.\main.c      ****                 }
1024:.\main.c      ****             }
1025:.\main.c      ****             CyDelay(100);
 4263              		.loc 1 1025 0
 4264 09a4 6420     		movs	r0, #100
 4265 09a6 FFF7FEFF 		bl	CyDelay
1026:.\main.c      ****             LCD_1_ClearRxBuffer();
 4266              		.loc 1 1026 0
 4267 09aa FFF7FEFF 		bl	LCD_1_ClearRxBuffer
1027:.\main.c      ****         }        
1028:.\main.c      ****         break;    
 4268              		.loc 1 1028 0
 4269 09ae 04F01DB8 		b	.L117
 4270              	.L192:
 4271              		.loc 1 1028 0 is_stmt 0 discriminator 5
 4272 09b2 04F01BB8 		b	.L117
 4273              	.L658:
 4274 09b6 00BF     		.align	2
 4275              	.L657:
 4276 09b8 00000000 		.word	rf_mod
 4277 09bc 00000000 		.word	flujo_LCD1
 4278 09c0 00000000 		.word	lado1
 4279 09c4 00000000 		.word	seleccion_pos
 4280 09c8 00000000 		.word	lado2
 4281 09cc 00000000 		.word	LCD_1_rxBuffer
 4282 09d0 00000000 		.word	tipo_venta
 4283 09d4 00000000 		.word	id_teclado1
 4284              	.L124:
1029:.\main.c      ****             
1030:.\main.c      ****         case 4:
1031:.\main.c      ****          if(LCD_1_GetRxBufferSize()==8){
 4285              		.loc 1 1031 0 is_stmt 1
 4286 09d8 FFF7FEFF 		bl	LCD_1_GetRxBufferSize
 4287 09dc 0346     		mov	r3, r0
 4288 09de 082B     		cmp	r3, #8
 4289 09e0 40F0DE81 		bne	.L199
1032:.\main.c      ****             if((LCD_1_rxBuffer[0]==0xAA) && (LCD_1_rxBuffer[6]==0xC3) && (LCD_1_rxBuffer[7]==0x3C))
 4290              		.loc 1 1032 0
 4291 09e4 BD4B     		ldr	r3, .L659
 4292 09e6 1B78     		ldrb	r3, [r3]
 4293 09e8 DBB2     		uxtb	r3, r3
 4294 09ea AA2B     		cmp	r3, #170
 4295 09ec 40F0D181 		bne	.L200
 4296              		.loc 1 1032 0 is_stmt 0 discriminator 1
 4297 09f0 BA4B     		ldr	r3, .L659
 4298 09f2 9B79     		ldrb	r3, [r3, #6]
 4299 09f4 DBB2     		uxtb	r3, r3
 4300 09f6 C32B     		cmp	r3, #195
 4301 09f8 40F0CB81 		bne	.L200
 4302              		.loc 1 1032 0 discriminator 2
 4303 09fc B74B     		ldr	r3, .L659
 4304 09fe DB79     		ldrb	r3, [r3, #7]
 4305 0a00 DBB2     		uxtb	r3, r3
ARM GAS  C:\Users\RECEPC~1\AppData\Local\Temp\ccU7e2eq.s 			page 97


 4306 0a02 3C2B     		cmp	r3, #60
 4307 0a04 40F0C581 		bne	.L200
1033:.\main.c      ****                 switch(LCD_1_rxBuffer[3]){
 4308              		.loc 1 1033 0 is_stmt 1
 4309 0a08 B44B     		ldr	r3, .L659
 4310 0a0a DB78     		ldrb	r3, [r3, #3]
 4311 0a0c DBB2     		uxtb	r3, r3
 4312 0a0e 3B2B     		cmp	r3, #59
 4313 0a10 00F0B381 		beq	.L201
 4314 0a14 3B2B     		cmp	r3, #59
 4315 0a16 05DC     		bgt	.L202
 4316 0a18 0F2B     		cmp	r3, #15
 4317 0a1a 0AD0     		beq	.L203
 4318 0a1c 102B     		cmp	r3, #16
 4319 0a1e 00F09280 		beq	.L204
 4320 0a22 B6E1     		b	.L200
 4321              	.L202:
 4322 0a24 432B     		cmp	r3, #67
 4323 0a26 00F01881 		beq	.L205
 4324 0a2a 7E2B     		cmp	r3, #126
 4325 0a2c 00F0A981 		beq	.L206
 4326 0a30 AFE1     		b	.L200
 4327              	.L203:
1034:.\main.c      ****                     case 0x0F:                               	//$
1035:.\main.c      ****                     if(seleccion_pos == 1){
 4328              		.loc 1 1035 0
 4329 0a32 AB4B     		ldr	r3, .L659+4
 4330 0a34 1B78     		ldrb	r3, [r3]
 4331 0a36 DBB2     		uxtb	r3, r3
 4332 0a38 012B     		cmp	r3, #1
 4333 0a3a 3ED1     		bne	.L207
1036:.\main.c      **** 					  for(x=0;x<=7;x++){
 4334              		.loc 1 1036 0
 4335 0a3c 0023     		movs	r3, #0
 4336 0a3e 87F82F30 		strb	r3, [r7, #47]
 4337 0a42 0AE0     		b	.L208
 4338              	.L209:
1037:.\main.c      **** 					 	rventa1.preset[x]=0;
 4339              		.loc 1 1037 0 discriminator 3
 4340 0a44 97F82F30 		ldrb	r3, [r7, #47]	@ zero_extendqisi2
 4341 0a48 A64A     		ldr	r2, .L659+8
 4342 0a4a 1344     		add	r3, r3, r2
 4343 0a4c 0022     		movs	r2, #0
 4344 0a4e DA76     		strb	r2, [r3, #27]
1036:.\main.c      **** 					  for(x=0;x<=7;x++){
 4345              		.loc 1 1036 0 discriminator 3
 4346 0a50 97F82F30 		ldrb	r3, [r7, #47]	@ zero_extendqisi2
 4347 0a54 0133     		adds	r3, r3, #1
 4348 0a56 87F82F30 		strb	r3, [r7, #47]
 4349              	.L208:
1036:.\main.c      **** 					  for(x=0;x<=7;x++){
 4350              		.loc 1 1036 0 is_stmt 0 discriminator 1
 4351 0a5a 97F82F30 		ldrb	r3, [r7, #47]	@ zero_extendqisi2
 4352 0a5e 072B     		cmp	r3, #7
 4353 0a60 F0D9     		bls	.L209
1038:.\main.c      **** 					  }					                      
1039:.\main.c      **** 					  count_teclas1=0;							//Inicia el contador de teclas	
ARM GAS  C:\Users\RECEPC~1\AppData\Local\Temp\ccU7e2eq.s 			page 98


 4354              		.loc 1 1039 0 is_stmt 1
 4355 0a62 A14B     		ldr	r3, .L659+12
 4356 0a64 0022     		movs	r2, #0
 4357 0a66 1A70     		strb	r2, [r3]
1040:.\main.c      **** 					  id_teclado1=1;
 4358              		.loc 1 1040 0
 4359 0a68 A04B     		ldr	r3, .L659+16
 4360 0a6a 0122     		movs	r2, #1
 4361 0a6c 1A70     		strb	r2, [r3]
1041:.\main.c      **** 					  id_coma1=',';	
 4362              		.loc 1 1041 0
 4363 0a6e A04B     		ldr	r3, .L659+20
 4364 0a70 2C22     		movs	r2, #44
 4365 0a72 1A70     		strb	r2, [r3]
1042:.\main.c      ****                       teclas1=version[1]; 						//cantidad de teclas q puede digitar
 4366              		.loc 1 1042 0
 4367 0a74 9F4B     		ldr	r3, .L659+24
 4368 0a76 5B78     		ldrb	r3, [r3, #1]
 4369 0a78 DAB2     		uxtb	r2, r3
 4370 0a7a 9F4B     		ldr	r3, .L659+28
 4371 0a7c 1A70     		strb	r2, [r3]
1043:.\main.c      **** 					  rventa1.preset[0]=1;
 4372              		.loc 1 1043 0
 4373 0a7e 994B     		ldr	r3, .L659+8
 4374 0a80 0122     		movs	r2, #1
 4375 0a82 DA76     		strb	r2, [r3, #27]
1044:.\main.c      ****                       comas1=0;									
 4376              		.loc 1 1044 0
 4377 0a84 9D4B     		ldr	r3, .L659+32
 4378 0a86 0022     		movs	r2, #0
 4379 0a88 1A70     		strb	r2, [r3]
1045:.\main.c      ****                       set_imagen(1,6); 
 4380              		.loc 1 1045 0
 4381 0a8a 0120     		movs	r0, #1
 4382 0a8c 0621     		movs	r1, #6
 4383 0a8e FFF7FEFF 		bl	set_imagen
1046:.\main.c      **** 					  posx1=4;
 4384              		.loc 1 1046 0
 4385 0a92 9B4B     		ldr	r3, .L659+36
 4386 0a94 0422     		movs	r2, #4
 4387 0a96 1A80     		strh	r2, [r3]	@ movhi
1047:.\main.c      **** 					  posy1=3;
 4388              		.loc 1 1047 0
 4389 0a98 9A4B     		ldr	r3, .L659+40
 4390 0a9a 0322     		movs	r2, #3
 4391 0a9c 1A80     		strh	r2, [r3]	@ movhi
1048:.\main.c      **** 					  sizeletra1=1;	
 4392              		.loc 1 1048 0
 4393 0a9e 9A4B     		ldr	r3, .L659+44
 4394 0aa0 0122     		movs	r2, #1
 4395 0aa2 1A80     		strh	r2, [r3]	@ movhi
1049:.\main.c      **** 					  write_LCD(1,'$', 3, 4, 1);
 4396              		.loc 1 1049 0
 4397 0aa4 0123     		movs	r3, #1
 4398 0aa6 0093     		str	r3, [sp]
 4399 0aa8 0120     		movs	r0, #1
 4400 0aaa 2421     		movs	r1, #36
ARM GAS  C:\Users\RECEPC~1\AppData\Local\Temp\ccU7e2eq.s 			page 99


 4401 0aac 0322     		movs	r2, #3
 4402 0aae 0423     		movs	r3, #4
 4403 0ab0 FFF7FEFF 		bl	write_LCD
1050:.\main.c      ****                       flujo_LCD1 = 12; 
 4404              		.loc 1 1050 0
 4405 0ab4 954B     		ldr	r3, .L659+48
 4406 0ab6 0C22     		movs	r2, #12
 4407 0ab8 1A70     		strb	r2, [r3]
 4408              	.L207:
1051:.\main.c      ****                     }
1052:.\main.c      ****                     if(seleccion_pos == 2){
 4409              		.loc 1 1052 0
 4410 0aba 894B     		ldr	r3, .L659+4
 4411 0abc 1B78     		ldrb	r3, [r3]
 4412 0abe DBB2     		uxtb	r3, r3
 4413 0ac0 022B     		cmp	r3, #2
 4414 0ac2 3FD1     		bne	.L210
1053:.\main.c      **** 					  for(x=0;x<=7;x++){
 4415              		.loc 1 1053 0
 4416 0ac4 0023     		movs	r3, #0
 4417 0ac6 87F82F30 		strb	r3, [r7, #47]
 4418 0aca 0AE0     		b	.L211
 4419              	.L212:
1054:.\main.c      **** 					 	rventa2.preset[x]=0;
 4420              		.loc 1 1054 0 discriminator 3
 4421 0acc 97F82F30 		ldrb	r3, [r7, #47]	@ zero_extendqisi2
 4422 0ad0 8F4A     		ldr	r2, .L659+52
 4423 0ad2 1344     		add	r3, r3, r2
 4424 0ad4 0022     		movs	r2, #0
 4425 0ad6 DA76     		strb	r2, [r3, #27]
1053:.\main.c      **** 					  for(x=0;x<=7;x++){
 4426              		.loc 1 1053 0 discriminator 3
 4427 0ad8 97F82F30 		ldrb	r3, [r7, #47]	@ zero_extendqisi2
 4428 0adc 0133     		adds	r3, r3, #1
 4429 0ade 87F82F30 		strb	r3, [r7, #47]
 4430              	.L211:
1053:.\main.c      **** 					  for(x=0;x<=7;x++){
 4431              		.loc 1 1053 0 is_stmt 0 discriminator 1
 4432 0ae2 97F82F30 		ldrb	r3, [r7, #47]	@ zero_extendqisi2
 4433 0ae6 072B     		cmp	r3, #7
 4434 0ae8 F0D9     		bls	.L212
1055:.\main.c      **** 					  }					                      
1056:.\main.c      **** 					  count_teclas1=0;							//Inicia el contador de teclas	
 4435              		.loc 1 1056 0 is_stmt 1
 4436 0aea 7F4B     		ldr	r3, .L659+12
 4437 0aec 0022     		movs	r2, #0
 4438 0aee 1A70     		strb	r2, [r3]
1057:.\main.c      **** 					  id_teclado1=1;
 4439              		.loc 1 1057 0
 4440 0af0 7E4B     		ldr	r3, .L659+16
 4441 0af2 0122     		movs	r2, #1
 4442 0af4 1A70     		strb	r2, [r3]
1058:.\main.c      **** 					  id_coma1=',';	
 4443              		.loc 1 1058 0
 4444 0af6 7E4B     		ldr	r3, .L659+20
 4445 0af8 2C22     		movs	r2, #44
 4446 0afa 1A70     		strb	r2, [r3]
ARM GAS  C:\Users\RECEPC~1\AppData\Local\Temp\ccU7e2eq.s 			page 100


1059:.\main.c      ****                       teclas1=version[1]; 						//cantidad de teclas q puede digitar
 4447              		.loc 1 1059 0
 4448 0afc 7D4B     		ldr	r3, .L659+24
 4449 0afe 5B78     		ldrb	r3, [r3, #1]
 4450 0b00 DAB2     		uxtb	r2, r3
 4451 0b02 7D4B     		ldr	r3, .L659+28
 4452 0b04 1A70     		strb	r2, [r3]
1060:.\main.c      **** 					  rventa2.preset[0]=1;
 4453              		.loc 1 1060 0
 4454 0b06 824B     		ldr	r3, .L659+52
 4455 0b08 0122     		movs	r2, #1
 4456 0b0a DA76     		strb	r2, [r3, #27]
1061:.\main.c      ****                       comas1=0;									
 4457              		.loc 1 1061 0
 4458 0b0c 7B4B     		ldr	r3, .L659+32
 4459 0b0e 0022     		movs	r2, #0
 4460 0b10 1A70     		strb	r2, [r3]
1062:.\main.c      ****                       set_imagen(1,6); 
 4461              		.loc 1 1062 0
 4462 0b12 0120     		movs	r0, #1
 4463 0b14 0621     		movs	r1, #6
 4464 0b16 FFF7FEFF 		bl	set_imagen
1063:.\main.c      **** 					  posx1=4;
 4465              		.loc 1 1063 0
 4466 0b1a 794B     		ldr	r3, .L659+36
 4467 0b1c 0422     		movs	r2, #4
 4468 0b1e 1A80     		strh	r2, [r3]	@ movhi
1064:.\main.c      **** 					  posy1=3;
 4469              		.loc 1 1064 0
 4470 0b20 784B     		ldr	r3, .L659+40
 4471 0b22 0322     		movs	r2, #3
 4472 0b24 1A80     		strh	r2, [r3]	@ movhi
1065:.\main.c      **** 					  sizeletra1=1;	
 4473              		.loc 1 1065 0
 4474 0b26 784B     		ldr	r3, .L659+44
 4475 0b28 0122     		movs	r2, #1
 4476 0b2a 1A80     		strh	r2, [r3]	@ movhi
1066:.\main.c      **** 					  write_LCD(1,'$', 3, 4, 1);
 4477              		.loc 1 1066 0
 4478 0b2c 0123     		movs	r3, #1
 4479 0b2e 0093     		str	r3, [sp]
 4480 0b30 0120     		movs	r0, #1
 4481 0b32 2421     		movs	r1, #36
 4482 0b34 0322     		movs	r2, #3
 4483 0b36 0423     		movs	r3, #4
 4484 0b38 FFF7FEFF 		bl	write_LCD
1067:.\main.c      ****                       flujo_LCD1 = 12; 
 4485              		.loc 1 1067 0
 4486 0b3c 734B     		ldr	r3, .L659+48
 4487 0b3e 0C22     		movs	r2, #12
 4488 0b40 1A70     		strb	r2, [r3]
1068:.\main.c      ****                     }
1069:.\main.c      ****                     break;
 4489              		.loc 1 1069 0
 4490 0b42 26E1     		b	.L200
 4491              	.L210:
 4492 0b44 25E1     		b	.L200
ARM GAS  C:\Users\RECEPC~1\AppData\Local\Temp\ccU7e2eq.s 			page 101


 4493              	.L204:
1070:.\main.c      ****                     
1071:.\main.c      ****                     case 0x10: 									//L 
1072:.\main.c      ****                     if(seleccion_pos == 1){
 4494              		.loc 1 1072 0
 4495 0b46 664B     		ldr	r3, .L659+4
 4496 0b48 1B78     		ldrb	r3, [r3]
 4497 0b4a DBB2     		uxtb	r3, r3
 4498 0b4c 012B     		cmp	r3, #1
 4499 0b4e 3ED1     		bne	.L213
1073:.\main.c      **** 					  for(x=0;x<=7;x++){
 4500              		.loc 1 1073 0
 4501 0b50 0023     		movs	r3, #0
 4502 0b52 87F82F30 		strb	r3, [r7, #47]
 4503 0b56 0AE0     		b	.L214
 4504              	.L215:
1074:.\main.c      **** 					 	rventa1.preset[x]=0;
 4505              		.loc 1 1074 0 discriminator 3
 4506 0b58 97F82F30 		ldrb	r3, [r7, #47]	@ zero_extendqisi2
 4507 0b5c 614A     		ldr	r2, .L659+8
 4508 0b5e 1344     		add	r3, r3, r2
 4509 0b60 0022     		movs	r2, #0
 4510 0b62 DA76     		strb	r2, [r3, #27]
1073:.\main.c      **** 					  for(x=0;x<=7;x++){
 4511              		.loc 1 1073 0 discriminator 3
 4512 0b64 97F82F30 		ldrb	r3, [r7, #47]	@ zero_extendqisi2
 4513 0b68 0133     		adds	r3, r3, #1
 4514 0b6a 87F82F30 		strb	r3, [r7, #47]
 4515              	.L214:
1073:.\main.c      **** 					  for(x=0;x<=7;x++){
 4516              		.loc 1 1073 0 is_stmt 0 discriminator 1
 4517 0b6e 97F82F30 		ldrb	r3, [r7, #47]	@ zero_extendqisi2
 4518 0b72 072B     		cmp	r3, #7
 4519 0b74 F0D9     		bls	.L215
1075:.\main.c      **** 					  }						                      
1076:.\main.c      **** 					  count_teclas1=0;							//Inicia el contador de teclas	
 4520              		.loc 1 1076 0 is_stmt 1
 4521 0b76 5C4B     		ldr	r3, .L659+12
 4522 0b78 0022     		movs	r2, #0
 4523 0b7a 1A70     		strb	r2, [r3]
1077:.\main.c      **** 					  id_teclado1=1;
 4524              		.loc 1 1077 0
 4525 0b7c 5B4B     		ldr	r3, .L659+16
 4526 0b7e 0122     		movs	r2, #1
 4527 0b80 1A70     		strb	r2, [r3]
1078:.\main.c      **** 					  id_coma1=',';	
 4528              		.loc 1 1078 0
 4529 0b82 5B4B     		ldr	r3, .L659+20
 4530 0b84 2C22     		movs	r2, #44
 4531 0b86 1A70     		strb	r2, [r3]
1079:.\main.c      ****                       teclas1=version[1]; 
 4532              		.loc 1 1079 0
 4533 0b88 5A4B     		ldr	r3, .L659+24
 4534 0b8a 5B78     		ldrb	r3, [r3, #1]
 4535 0b8c DAB2     		uxtb	r2, r3
 4536 0b8e 5A4B     		ldr	r3, .L659+28
 4537 0b90 1A70     		strb	r2, [r3]
ARM GAS  C:\Users\RECEPC~1\AppData\Local\Temp\ccU7e2eq.s 			page 102


1080:.\main.c      **** 					  rventa1.preset[0]=2;
 4538              		.loc 1 1080 0
 4539 0b92 544B     		ldr	r3, .L659+8
 4540 0b94 0222     		movs	r2, #2
 4541 0b96 DA76     		strb	r2, [r3, #27]
1081:.\main.c      ****                       comas1=0;									
 4542              		.loc 1 1081 0
 4543 0b98 584B     		ldr	r3, .L659+32
 4544 0b9a 0022     		movs	r2, #0
 4545 0b9c 1A70     		strb	r2, [r3]
1082:.\main.c      ****                       set_imagen(1,13); 
 4546              		.loc 1 1082 0
 4547 0b9e 0120     		movs	r0, #1
 4548 0ba0 0D21     		movs	r1, #13
 4549 0ba2 FFF7FEFF 		bl	set_imagen
1083:.\main.c      **** 					  posx1=4;
 4550              		.loc 1 1083 0
 4551 0ba6 564B     		ldr	r3, .L659+36
 4552 0ba8 0422     		movs	r2, #4
 4553 0baa 1A80     		strh	r2, [r3]	@ movhi
1084:.\main.c      **** 					  posy1=3;
 4554              		.loc 1 1084 0
 4555 0bac 554B     		ldr	r3, .L659+40
 4556 0bae 0322     		movs	r2, #3
 4557 0bb0 1A80     		strh	r2, [r3]	@ movhi
1085:.\main.c      **** 					  sizeletra1=1;					
 4558              		.loc 1 1085 0
 4559 0bb2 554B     		ldr	r3, .L659+44
 4560 0bb4 0122     		movs	r2, #1
 4561 0bb6 1A80     		strh	r2, [r3]	@ movhi
1086:.\main.c      **** 					  write_LCD(1,'L', 3, 4, 1);
 4562              		.loc 1 1086 0
 4563 0bb8 0123     		movs	r3, #1
 4564 0bba 0093     		str	r3, [sp]
 4565 0bbc 0120     		movs	r0, #1
 4566 0bbe 4C21     		movs	r1, #76
 4567 0bc0 0322     		movs	r2, #3
 4568 0bc2 0423     		movs	r3, #4
 4569 0bc4 FFF7FEFF 		bl	write_LCD
1087:.\main.c      ****                       flujo_LCD1=12; 
 4570              		.loc 1 1087 0
 4571 0bc8 504B     		ldr	r3, .L659+48
 4572 0bca 0C22     		movs	r2, #12
 4573 0bcc 1A70     		strb	r2, [r3]
 4574              	.L213:
1088:.\main.c      ****                     }
1089:.\main.c      ****                     if(seleccion_pos == 2){
 4575              		.loc 1 1089 0
 4576 0bce 444B     		ldr	r3, .L659+4
 4577 0bd0 1B78     		ldrb	r3, [r3]
 4578 0bd2 DBB2     		uxtb	r3, r3
 4579 0bd4 022B     		cmp	r3, #2
 4580 0bd6 3FD1     		bne	.L216
1090:.\main.c      **** 					  for(x=0;x<=7;x++){
 4581              		.loc 1 1090 0
 4582 0bd8 0023     		movs	r3, #0
 4583 0bda 87F82F30 		strb	r3, [r7, #47]
ARM GAS  C:\Users\RECEPC~1\AppData\Local\Temp\ccU7e2eq.s 			page 103


 4584 0bde 0AE0     		b	.L217
 4585              	.L218:
1091:.\main.c      **** 					 	rventa1.preset[x]=0;
 4586              		.loc 1 1091 0 discriminator 3
 4587 0be0 97F82F30 		ldrb	r3, [r7, #47]	@ zero_extendqisi2
 4588 0be4 3F4A     		ldr	r2, .L659+8
 4589 0be6 1344     		add	r3, r3, r2
 4590 0be8 0022     		movs	r2, #0
 4591 0bea DA76     		strb	r2, [r3, #27]
1090:.\main.c      **** 					  for(x=0;x<=7;x++){
 4592              		.loc 1 1090 0 discriminator 3
 4593 0bec 97F82F30 		ldrb	r3, [r7, #47]	@ zero_extendqisi2
 4594 0bf0 0133     		adds	r3, r3, #1
 4595 0bf2 87F82F30 		strb	r3, [r7, #47]
 4596              	.L217:
1090:.\main.c      **** 					  for(x=0;x<=7;x++){
 4597              		.loc 1 1090 0 is_stmt 0 discriminator 1
 4598 0bf6 97F82F30 		ldrb	r3, [r7, #47]	@ zero_extendqisi2
 4599 0bfa 072B     		cmp	r3, #7
 4600 0bfc F0D9     		bls	.L218
1092:.\main.c      **** 					  }						                      
1093:.\main.c      **** 					  count_teclas1=0;							//Inicia el contador de teclas	
 4601              		.loc 1 1093 0 is_stmt 1
 4602 0bfe 3A4B     		ldr	r3, .L659+12
 4603 0c00 0022     		movs	r2, #0
 4604 0c02 1A70     		strb	r2, [r3]
1094:.\main.c      **** 					  id_teclado1=1;
 4605              		.loc 1 1094 0
 4606 0c04 394B     		ldr	r3, .L659+16
 4607 0c06 0122     		movs	r2, #1
 4608 0c08 1A70     		strb	r2, [r3]
1095:.\main.c      **** 					  id_coma1=',';	
 4609              		.loc 1 1095 0
 4610 0c0a 394B     		ldr	r3, .L659+20
 4611 0c0c 2C22     		movs	r2, #44
 4612 0c0e 1A70     		strb	r2, [r3]
1096:.\main.c      ****                       teclas1=version[1]; 
 4613              		.loc 1 1096 0
 4614 0c10 384B     		ldr	r3, .L659+24
 4615 0c12 5B78     		ldrb	r3, [r3, #1]
 4616 0c14 DAB2     		uxtb	r2, r3
 4617 0c16 384B     		ldr	r3, .L659+28
 4618 0c18 1A70     		strb	r2, [r3]
1097:.\main.c      **** 					  rventa2.preset[0]=2;
 4619              		.loc 1 1097 0
 4620 0c1a 3D4B     		ldr	r3, .L659+52
 4621 0c1c 0222     		movs	r2, #2
 4622 0c1e DA76     		strb	r2, [r3, #27]
1098:.\main.c      ****                       comas1=0;									
 4623              		.loc 1 1098 0
 4624 0c20 364B     		ldr	r3, .L659+32
 4625 0c22 0022     		movs	r2, #0
 4626 0c24 1A70     		strb	r2, [r3]
1099:.\main.c      ****                       set_imagen(1,13); 
 4627              		.loc 1 1099 0
 4628 0c26 0120     		movs	r0, #1
 4629 0c28 0D21     		movs	r1, #13
ARM GAS  C:\Users\RECEPC~1\AppData\Local\Temp\ccU7e2eq.s 			page 104


 4630 0c2a FFF7FEFF 		bl	set_imagen
1100:.\main.c      **** 					  posx1=4;
 4631              		.loc 1 1100 0
 4632 0c2e 344B     		ldr	r3, .L659+36
 4633 0c30 0422     		movs	r2, #4
 4634 0c32 1A80     		strh	r2, [r3]	@ movhi
1101:.\main.c      **** 					  posy1=3;
 4635              		.loc 1 1101 0
 4636 0c34 334B     		ldr	r3, .L659+40
 4637 0c36 0322     		movs	r2, #3
 4638 0c38 1A80     		strh	r2, [r3]	@ movhi
1102:.\main.c      **** 					  sizeletra1=1;					
 4639              		.loc 1 1102 0
 4640 0c3a 334B     		ldr	r3, .L659+44
 4641 0c3c 0122     		movs	r2, #1
 4642 0c3e 1A80     		strh	r2, [r3]	@ movhi
1103:.\main.c      **** 					  write_LCD(1,'L', 3, 4, 1);
 4643              		.loc 1 1103 0
 4644 0c40 0123     		movs	r3, #1
 4645 0c42 0093     		str	r3, [sp]
 4646 0c44 0120     		movs	r0, #1
 4647 0c46 4C21     		movs	r1, #76
 4648 0c48 0322     		movs	r2, #3
 4649 0c4a 0423     		movs	r3, #4
 4650 0c4c FFF7FEFF 		bl	write_LCD
1104:.\main.c      ****                       flujo_LCD1=12; 
 4651              		.loc 1 1104 0
 4652 0c50 2E4B     		ldr	r3, .L659+48
 4653 0c52 0C22     		movs	r2, #12
 4654 0c54 1A70     		strb	r2, [r3]
1105:.\main.c      ****                     }
1106:.\main.c      ****                     break;
 4655              		.loc 1 1106 0
 4656 0c56 9CE0     		b	.L200
 4657              	.L216:
 4658 0c58 9BE0     		b	.L200
 4659              	.L205:
1107:.\main.c      ****                     
1108:.\main.c      ****                     case 0x43:  								//Full 
1109:.\main.c      ****                     if(seleccion_pos == 1){
 4660              		.loc 1 1109 0
 4661 0c5a 214B     		ldr	r3, .L659+4
 4662 0c5c 1B78     		ldrb	r3, [r3]
 4663 0c5e DBB2     		uxtb	r3, r3
 4664 0c60 012B     		cmp	r3, #1
 4665 0c62 32D1     		bne	.L219
1110:.\main.c      **** 					  for(x=0;x<=7;x++){
 4666              		.loc 1 1110 0
 4667 0c64 0023     		movs	r3, #0
 4668 0c66 87F82F30 		strb	r3, [r7, #47]
 4669 0c6a 0AE0     		b	.L220
 4670              	.L221:
1111:.\main.c      **** 					 	rventa1.preset[x]=0;
 4671              		.loc 1 1111 0 discriminator 3
 4672 0c6c 97F82F30 		ldrb	r3, [r7, #47]	@ zero_extendqisi2
 4673 0c70 1C4A     		ldr	r2, .L659+8
 4674 0c72 1344     		add	r3, r3, r2
ARM GAS  C:\Users\RECEPC~1\AppData\Local\Temp\ccU7e2eq.s 			page 105


 4675 0c74 0022     		movs	r2, #0
 4676 0c76 DA76     		strb	r2, [r3, #27]
1110:.\main.c      **** 					  for(x=0;x<=7;x++){
 4677              		.loc 1 1110 0 discriminator 3
 4678 0c78 97F82F30 		ldrb	r3, [r7, #47]	@ zero_extendqisi2
 4679 0c7c 0133     		adds	r3, r3, #1
 4680 0c7e 87F82F30 		strb	r3, [r7, #47]
 4681              	.L220:
1110:.\main.c      **** 					  for(x=0;x<=7;x++){
 4682              		.loc 1 1110 0 is_stmt 0 discriminator 1
 4683 0c82 97F82F30 		ldrb	r3, [r7, #47]	@ zero_extendqisi2
 4684 0c86 072B     		cmp	r3, #7
 4685 0c88 F0D9     		bls	.L221
1112:.\main.c      **** 					  }
1113:.\main.c      ****                       rventa1.preset[0]=3;					
 4686              		.loc 1 1113 0 is_stmt 1
 4687 0c8a 164B     		ldr	r3, .L659+8
 4688 0c8c 0322     		movs	r2, #3
 4689 0c8e DA76     		strb	r2, [r3, #27]
1114:.\main.c      **** 					  for(x=5;x<=7;x++){
 4690              		.loc 1 1114 0
 4691 0c90 0523     		movs	r3, #5
 4692 0c92 87F82F30 		strb	r3, [r7, #47]
 4693 0c96 0AE0     		b	.L222
 4694              	.L223:
1115:.\main.c      **** 						rventa1.preset[x]=9;		
 4695              		.loc 1 1115 0 discriminator 3
 4696 0c98 97F82F30 		ldrb	r3, [r7, #47]	@ zero_extendqisi2
 4697 0c9c 114A     		ldr	r2, .L659+8
 4698 0c9e 1344     		add	r3, r3, r2
 4699 0ca0 0922     		movs	r2, #9
 4700 0ca2 DA76     		strb	r2, [r3, #27]
1114:.\main.c      **** 					  for(x=5;x<=7;x++){
 4701              		.loc 1 1114 0 discriminator 3
 4702 0ca4 97F82F30 		ldrb	r3, [r7, #47]	@ zero_extendqisi2
 4703 0ca8 0133     		adds	r3, r3, #1
 4704 0caa 87F82F30 		strb	r3, [r7, #47]
 4705              	.L222:
1114:.\main.c      **** 					  for(x=5;x<=7;x++){
 4706              		.loc 1 1114 0 is_stmt 0 discriminator 1
 4707 0cae 97F82F30 		ldrb	r3, [r7, #47]	@ zero_extendqisi2
 4708 0cb2 072B     		cmp	r3, #7
 4709 0cb4 F0D9     		bls	.L223
1116:.\main.c      **** 					  }								                                     
1117:.\main.c      **** 		              set_imagen(1,7);
 4710              		.loc 1 1117 0 is_stmt 1
 4711 0cb6 0120     		movs	r0, #1
 4712 0cb8 0721     		movs	r1, #7
 4713 0cba FFF7FEFF 		bl	set_imagen
1118:.\main.c      **** 					  lado1.estado=espera;
 4714              		.loc 1 1118 0
 4715 0cbe 154B     		ldr	r3, .L659+56
 4716 0cc0 0222     		movs	r2, #2
 4717 0cc2 5A70     		strb	r2, [r3, #1]
1119:.\main.c      ****                       flujo_LCD1 = 6;  
 4718              		.loc 1 1119 0
 4719 0cc4 114B     		ldr	r3, .L659+48
ARM GAS  C:\Users\RECEPC~1\AppData\Local\Temp\ccU7e2eq.s 			page 106


 4720 0cc6 0622     		movs	r2, #6
 4721 0cc8 1A70     		strb	r2, [r3]
 4722              	.L219:
1120:.\main.c      ****                     }
1121:.\main.c      ****                     if(seleccion_pos == 2){
 4723              		.loc 1 1121 0
 4724 0cca 054B     		ldr	r3, .L659+4
 4725 0ccc 1B78     		ldrb	r3, [r3]
 4726 0cce DBB2     		uxtb	r3, r3
 4727 0cd0 022B     		cmp	r3, #2
 4728 0cd2 51D1     		bne	.L224
1122:.\main.c      **** 					  for(x=0;x<=7;x++){
 4729              		.loc 1 1122 0
 4730 0cd4 0023     		movs	r3, #0
 4731 0cd6 87F82F30 		strb	r3, [r7, #47]
 4732 0cda 28E0     		b	.L225
 4733              	.L660:
 4734              		.align	2
 4735              	.L659:
 4736 0cdc 00000000 		.word	LCD_1_rxBuffer
 4737 0ce0 00000000 		.word	seleccion_pos
 4738 0ce4 00000000 		.word	rventa1
 4739 0ce8 00000000 		.word	count_teclas1
 4740 0cec 00000000 		.word	id_teclado1
 4741 0cf0 00000000 		.word	id_coma1
 4742 0cf4 00000000 		.word	version
 4743 0cf8 00000000 		.word	teclas1
 4744 0cfc 00000000 		.word	comas1
 4745 0d00 00000000 		.word	posx1
 4746 0d04 00000000 		.word	posy1
 4747 0d08 00000000 		.word	sizeletra1
 4748 0d0c 00000000 		.word	flujo_LCD1
 4749 0d10 00000000 		.word	rventa2
 4750 0d14 00000000 		.word	lado1
 4751              	.L226:
1123:.\main.c      **** 					 	rventa2.preset[x]=0;
 4752              		.loc 1 1123 0 discriminator 3
 4753 0d18 97F82F30 		ldrb	r3, [r7, #47]	@ zero_extendqisi2
 4754 0d1c C34A     		ldr	r2, .L661
 4755 0d1e 1344     		add	r3, r3, r2
 4756 0d20 0022     		movs	r2, #0
 4757 0d22 DA76     		strb	r2, [r3, #27]
1122:.\main.c      **** 					  for(x=0;x<=7;x++){
 4758              		.loc 1 1122 0 discriminator 3
 4759 0d24 97F82F30 		ldrb	r3, [r7, #47]	@ zero_extendqisi2
 4760 0d28 0133     		adds	r3, r3, #1
 4761 0d2a 87F82F30 		strb	r3, [r7, #47]
 4762              	.L225:
1122:.\main.c      **** 					  for(x=0;x<=7;x++){
 4763              		.loc 1 1122 0 is_stmt 0 discriminator 1
 4764 0d2e 97F82F30 		ldrb	r3, [r7, #47]	@ zero_extendqisi2
 4765 0d32 072B     		cmp	r3, #7
 4766 0d34 F0D9     		bls	.L226
1124:.\main.c      **** 					  }
1125:.\main.c      ****                       rventa1.preset[0]=3;					
 4767              		.loc 1 1125 0 is_stmt 1
 4768 0d36 BE4B     		ldr	r3, .L661+4
ARM GAS  C:\Users\RECEPC~1\AppData\Local\Temp\ccU7e2eq.s 			page 107


 4769 0d38 0322     		movs	r2, #3
 4770 0d3a DA76     		strb	r2, [r3, #27]
1126:.\main.c      **** 					  for(x=5;x<=7;x++){
 4771              		.loc 1 1126 0
 4772 0d3c 0523     		movs	r3, #5
 4773 0d3e 87F82F30 		strb	r3, [r7, #47]
 4774 0d42 0AE0     		b	.L227
 4775              	.L228:
1127:.\main.c      **** 						rventa2.preset[x]=9;		
 4776              		.loc 1 1127 0 discriminator 3
 4777 0d44 97F82F30 		ldrb	r3, [r7, #47]	@ zero_extendqisi2
 4778 0d48 B84A     		ldr	r2, .L661
 4779 0d4a 1344     		add	r3, r3, r2
 4780 0d4c 0922     		movs	r2, #9
 4781 0d4e DA76     		strb	r2, [r3, #27]
1126:.\main.c      **** 					  for(x=5;x<=7;x++){
 4782              		.loc 1 1126 0 discriminator 3
 4783 0d50 97F82F30 		ldrb	r3, [r7, #47]	@ zero_extendqisi2
 4784 0d54 0133     		adds	r3, r3, #1
 4785 0d56 87F82F30 		strb	r3, [r7, #47]
 4786              	.L227:
1126:.\main.c      **** 					  for(x=5;x<=7;x++){
 4787              		.loc 1 1126 0 is_stmt 0 discriminator 1
 4788 0d5a 97F82F30 		ldrb	r3, [r7, #47]	@ zero_extendqisi2
 4789 0d5e 072B     		cmp	r3, #7
 4790 0d60 F0D9     		bls	.L228
1128:.\main.c      **** 					  }								                                     
1129:.\main.c      **** 		              set_imagen(1,7);
 4791              		.loc 1 1129 0 is_stmt 1
 4792 0d62 0120     		movs	r0, #1
 4793 0d64 0721     		movs	r1, #7
 4794 0d66 FFF7FEFF 		bl	set_imagen
1130:.\main.c      **** 					  lado2.estado=espera;
 4795              		.loc 1 1130 0
 4796 0d6a B24B     		ldr	r3, .L661+8
 4797 0d6c 0222     		movs	r2, #2
 4798 0d6e 5A70     		strb	r2, [r3, #1]
1131:.\main.c      ****                       flujo_LCD1 = 6;  
 4799              		.loc 1 1131 0
 4800 0d70 B14B     		ldr	r3, .L661+12
 4801 0d72 0622     		movs	r2, #6
 4802 0d74 1A70     		strb	r2, [r3]
1132:.\main.c      ****                     }
1133:.\main.c      ****                     break;
 4803              		.loc 1 1133 0
 4804 0d76 0CE0     		b	.L200
 4805              	.L224:
 4806 0d78 0BE0     		b	.L200
 4807              	.L201:
1134:.\main.c      ****                     
1135:.\main.c      ****                     case 0x3B:                                //Cancel                     
1136:.\main.c      ****                       flujo_LCD1=0;
 4808              		.loc 1 1136 0
 4809 0d7a AF4B     		ldr	r3, .L661+12
 4810 0d7c 0022     		movs	r2, #0
 4811 0d7e 1A70     		strb	r2, [r3]
1137:.\main.c      ****                     break;     
ARM GAS  C:\Users\RECEPC~1\AppData\Local\Temp\ccU7e2eq.s 			page 108


 4812              		.loc 1 1137 0
 4813 0d80 07E0     		b	.L200
 4814              	.L206:
1138:.\main.c      ****                     
1139:.\main.c      ****                     case 0x7E:                                //Símbolo de inicio                 
1140:.\main.c      ****                         set_imagen(1,74);	
 4815              		.loc 1 1140 0
 4816 0d82 0120     		movs	r0, #1
 4817 0d84 4A21     		movs	r1, #74
 4818 0d86 FFF7FEFF 		bl	set_imagen
1141:.\main.c      ****                         flujo_LCD1=0;
 4819              		.loc 1 1141 0
 4820 0d8a AB4B     		ldr	r3, .L661+12
 4821 0d8c 0022     		movs	r2, #0
 4822 0d8e 1A70     		strb	r2, [r3]
1142:.\main.c      ****                     break;
 4823              		.loc 1 1142 0
 4824 0d90 00BF     		nop
 4825              	.L200:
1143:.\main.c      ****                 }
1144:.\main.c      ****             }
1145:.\main.c      ****             CyDelay(100);            
 4826              		.loc 1 1145 0
 4827 0d92 6420     		movs	r0, #100
 4828 0d94 FFF7FEFF 		bl	CyDelay
1146:.\main.c      ****             LCD_1_ClearRxBuffer();
 4829              		.loc 1 1146 0
 4830 0d98 FFF7FEFF 		bl	LCD_1_ClearRxBuffer
1147:.\main.c      ****          } 
1148:.\main.c      ****         break;
 4831              		.loc 1 1148 0
 4832 0d9c 03F026BE 		b	.L117
 4833              	.L199:
 4834              		.loc 1 1148 0 is_stmt 0 discriminator 6
 4835 0da0 03F024BE 		b	.L117
 4836              	.L125:
1149:.\main.c      ****         
1150:.\main.c      ****         case 5:
1151:.\main.c      ****         if(seleccion_pos == 1){
 4837              		.loc 1 1151 0 is_stmt 1
 4838 0da4 A54B     		ldr	r3, .L661+16
 4839 0da6 1B78     		ldrb	r3, [r3]
 4840 0da8 DBB2     		uxtb	r3, r3
 4841 0daa 012B     		cmp	r3, #1
 4842 0dac 61D1     		bne	.L229
1152:.\main.c      ****     		CyDelay(50);
 4843              		.loc 1 1152 0
 4844 0dae 3220     		movs	r0, #50
 4845 0db0 FFF7FEFF 		bl	CyDelay
1153:.\main.c      ****             if(LCD_1_GetRxBufferSize()==8){
 4846              		.loc 1 1153 0
 4847 0db4 FFF7FEFF 		bl	LCD_1_GetRxBufferSize
 4848 0db8 0346     		mov	r3, r0
 4849 0dba 082B     		cmp	r3, #8
 4850 0dbc 1AD1     		bne	.L230
1154:.\main.c      ****                 if((LCD_1_rxBuffer[0]==0xAA) && (LCD_1_rxBuffer[6]==0xC3) && (LCD_1_rxBuffer[7]==0x
 4851              		.loc 1 1154 0
ARM GAS  C:\Users\RECEPC~1\AppData\Local\Temp\ccU7e2eq.s 			page 109


 4852 0dbe A04B     		ldr	r3, .L661+20
 4853 0dc0 1B78     		ldrb	r3, [r3]
 4854 0dc2 DBB2     		uxtb	r3, r3
 4855 0dc4 AA2B     		cmp	r3, #170
 4856 0dc6 11D1     		bne	.L231
 4857              		.loc 1 1154 0 is_stmt 0 discriminator 1
 4858 0dc8 9D4B     		ldr	r3, .L661+20
 4859 0dca 9B79     		ldrb	r3, [r3, #6]
 4860 0dcc DBB2     		uxtb	r3, r3
 4861 0dce C32B     		cmp	r3, #195
 4862 0dd0 0CD1     		bne	.L231
 4863              		.loc 1 1154 0 discriminator 2
 4864 0dd2 9B4B     		ldr	r3, .L661+20
 4865 0dd4 DB79     		ldrb	r3, [r3, #7]
 4866 0dd6 DBB2     		uxtb	r3, r3
 4867 0dd8 3C2B     		cmp	r3, #60
 4868 0dda 07D1     		bne	.L231
1155:.\main.c      ****                     if(LCD_1_rxBuffer[3]==0x7E){					//Cancel
 4869              		.loc 1 1155 0 is_stmt 1
 4870 0ddc 984B     		ldr	r3, .L661+20
 4871 0dde DB78     		ldrb	r3, [r3, #3]
 4872 0de0 DBB2     		uxtb	r3, r3
 4873 0de2 7E2B     		cmp	r3, #126
 4874 0de4 02D1     		bne	.L231
1156:.\main.c      ****     					flujo_LCD1=0;
 4875              		.loc 1 1156 0
 4876 0de6 944B     		ldr	r3, .L661+12
 4877 0de8 0022     		movs	r2, #0
 4878 0dea 1A70     		strb	r2, [r3]
 4879              	.L231:
1157:.\main.c      ****                     }												
1158:.\main.c      ****     			}                       
1159:.\main.c      ****                 LCD_1_ClearRxBuffer();
 4880              		.loc 1 1159 0
 4881 0dec FFF7FEFF 		bl	LCD_1_ClearRxBuffer
1160:.\main.c      ****     			break;
 4882              		.loc 1 1160 0
 4883 0df0 03F0FCBD 		b	.L117
 4884              	.L230:
1161:.\main.c      ****     		}
1162:.\main.c      ****             x=get_estado(lado1.dir);
 4885              		.loc 1 1162 0
 4886 0df4 934B     		ldr	r3, .L661+24
 4887 0df6 1B78     		ldrb	r3, [r3]
 4888 0df8 DBB2     		uxtb	r3, r3
 4889 0dfa 1846     		mov	r0, r3
 4890 0dfc FFF7FEFF 		bl	get_estado
 4891 0e00 0346     		mov	r3, r0
 4892 0e02 87F82F30 		strb	r3, [r7, #47]
1163:.\main.c      ****             if(x==7){								//Espera a que este en listo el equipo	
 4893              		.loc 1 1163 0
 4894 0e06 97F82F30 		ldrb	r3, [r7, #47]	@ zero_extendqisi2
 4895 0e0a 072B     		cmp	r3, #7
 4896 0e0c 06D1     		bne	.L232
1164:.\main.c      ****     		    flujo_LCD1=6;
 4897              		.loc 1 1164 0
 4898 0e0e 8A4B     		ldr	r3, .L661+12
ARM GAS  C:\Users\RECEPC~1\AppData\Local\Temp\ccU7e2eq.s 			page 110


 4899 0e10 0622     		movs	r2, #6
 4900 0e12 1A70     		strb	r2, [r3]
1165:.\main.c      ****                 CyDelay(50);
 4901              		.loc 1 1165 0
 4902 0e14 3220     		movs	r0, #50
 4903 0e16 FFF7FEFF 		bl	CyDelay
 4904 0e1a 2AE0     		b	.L229
 4905              	.L232:
1166:.\main.c      ****             }
1167:.\main.c      ****             else if(x==0){
 4906              		.loc 1 1167 0
 4907 0e1c 97F82F30 		ldrb	r3, [r7, #47]	@ zero_extendqisi2
 4908 0e20 002B     		cmp	r3, #0
 4909 0e22 0ED1     		bne	.L233
1168:.\main.c      ****     			CyDelay(50);
 4910              		.loc 1 1168 0
 4911 0e24 3220     		movs	r0, #50
 4912 0e26 FFF7FEFF 		bl	CyDelay
1169:.\main.c      ****     			programar(lado1.dir,1,aux,2);
 4913              		.loc 1 1169 0
 4914 0e2a 864B     		ldr	r3, .L661+24
 4915 0e2c 1B78     		ldrb	r3, [r3]
 4916 0e2e DAB2     		uxtb	r2, r3
 4917 0e30 07F11403 		add	r3, r7, #20
 4918 0e34 1046     		mov	r0, r2
 4919 0e36 0121     		movs	r1, #1
 4920 0e38 1A46     		mov	r2, r3
 4921 0e3a 0223     		movs	r3, #2
 4922 0e3c FFF7FEFF 		bl	programar
 4923 0e40 17E0     		b	.L229
 4924              	.L233:
1170:.\main.c      ****             }
1171:.\main.c      ****             else if(x==0x0C){
 4925              		.loc 1 1171 0
 4926 0e42 97F82F30 		ldrb	r3, [r7, #47]	@ zero_extendqisi2
 4927 0e46 0C2B     		cmp	r3, #12
 4928 0e48 04D1     		bne	.L234
1172:.\main.c      ****                 error_op(1,85);
 4929              		.loc 1 1172 0
 4930 0e4a 0120     		movs	r0, #1
 4931 0e4c 5521     		movs	r1, #85
 4932 0e4e FFF7FEFF 		bl	error_op
 4933 0e52 0EE0     		b	.L229
 4934              	.L234:
1173:.\main.c      ****             }
1174:.\main.c      ****     		else if(x==0x0B){                   //Termino venta
 4935              		.loc 1 1174 0
 4936 0e54 97F82F30 		ldrb	r3, [r7, #47]	@ zero_extendqisi2
 4937 0e58 0B2B     		cmp	r3, #11
 4938 0e5a 03D1     		bne	.L235
1175:.\main.c      ****     			flujo_LCD1=13;
 4939              		.loc 1 1175 0
 4940 0e5c 764B     		ldr	r3, .L661+12
 4941 0e5e 0D22     		movs	r2, #13
 4942 0e60 1A70     		strb	r2, [r3]
 4943 0e62 06E0     		b	.L229
 4944              	.L235:
ARM GAS  C:\Users\RECEPC~1\AppData\Local\Temp\ccU7e2eq.s 			page 111


1176:.\main.c      ****             }						
1177:.\main.c      ****     		else if(x==0x0A){					//Termino venta
 4945              		.loc 1 1177 0
 4946 0e64 97F82F30 		ldrb	r3, [r7, #47]	@ zero_extendqisi2
 4947 0e68 0A2B     		cmp	r3, #10
 4948 0e6a 02D1     		bne	.L229
1178:.\main.c      ****     			flujo_LCD1=13;
 4949              		.loc 1 1178 0
 4950 0e6c 724B     		ldr	r3, .L661+12
 4951 0e6e 0D22     		movs	r2, #13
 4952 0e70 1A70     		strb	r2, [r3]
 4953              	.L229:
1179:.\main.c      ****     		}  
1180:.\main.c      ****         }
1181:.\main.c      ****         if(seleccion_pos == 2){
 4954              		.loc 1 1181 0
 4955 0e72 724B     		ldr	r3, .L661+16
 4956 0e74 1B78     		ldrb	r3, [r3]
 4957 0e76 DBB2     		uxtb	r3, r3
 4958 0e78 022B     		cmp	r3, #2
 4959 0e7a 63D1     		bne	.L236
1182:.\main.c      ****     		CyDelay(50);
 4960              		.loc 1 1182 0
 4961 0e7c 3220     		movs	r0, #50
 4962 0e7e FFF7FEFF 		bl	CyDelay
1183:.\main.c      ****             if(LCD_1_GetRxBufferSize()==8){
 4963              		.loc 1 1183 0
 4964 0e82 FFF7FEFF 		bl	LCD_1_GetRxBufferSize
 4965 0e86 0346     		mov	r3, r0
 4966 0e88 082B     		cmp	r3, #8
 4967 0e8a 1AD1     		bne	.L237
1184:.\main.c      ****                 if((LCD_1_rxBuffer[0]==0xAA) && (LCD_1_rxBuffer[6]==0xC3) && (LCD_1_rxBuffer[7]==0x
 4968              		.loc 1 1184 0
 4969 0e8c 6C4B     		ldr	r3, .L661+20
 4970 0e8e 1B78     		ldrb	r3, [r3]
 4971 0e90 DBB2     		uxtb	r3, r3
 4972 0e92 AA2B     		cmp	r3, #170
 4973 0e94 11D1     		bne	.L238
 4974              		.loc 1 1184 0 is_stmt 0 discriminator 1
 4975 0e96 6A4B     		ldr	r3, .L661+20
 4976 0e98 9B79     		ldrb	r3, [r3, #6]
 4977 0e9a DBB2     		uxtb	r3, r3
 4978 0e9c C32B     		cmp	r3, #195
 4979 0e9e 0CD1     		bne	.L238
 4980              		.loc 1 1184 0 discriminator 2
 4981 0ea0 674B     		ldr	r3, .L661+20
 4982 0ea2 DB79     		ldrb	r3, [r3, #7]
 4983 0ea4 DBB2     		uxtb	r3, r3
 4984 0ea6 3C2B     		cmp	r3, #60
 4985 0ea8 07D1     		bne	.L238
1185:.\main.c      ****                     if(LCD_1_rxBuffer[3]==0x7E){					//Cancel
 4986              		.loc 1 1185 0 is_stmt 1
 4987 0eaa 654B     		ldr	r3, .L661+20
 4988 0eac DB78     		ldrb	r3, [r3, #3]
 4989 0eae DBB2     		uxtb	r3, r3
 4990 0eb0 7E2B     		cmp	r3, #126
 4991 0eb2 02D1     		bne	.L238
ARM GAS  C:\Users\RECEPC~1\AppData\Local\Temp\ccU7e2eq.s 			page 112


1186:.\main.c      ****     					flujo_LCD1=0;
 4992              		.loc 1 1186 0
 4993 0eb4 604B     		ldr	r3, .L661+12
 4994 0eb6 0022     		movs	r2, #0
 4995 0eb8 1A70     		strb	r2, [r3]
 4996              	.L238:
1187:.\main.c      ****                     }												
1188:.\main.c      ****     			}                       
1189:.\main.c      ****                 LCD_1_ClearRxBuffer();
 4997              		.loc 1 1189 0
 4998 0eba FFF7FEFF 		bl	LCD_1_ClearRxBuffer
1190:.\main.c      ****     			break;
 4999              		.loc 1 1190 0
 5000 0ebe 03F095BD 		b	.L117
 5001              	.L237:
1191:.\main.c      ****     		}
1192:.\main.c      ****             x=get_estado(lado2.dir);
 5002              		.loc 1 1192 0
 5003 0ec2 5C4B     		ldr	r3, .L661+8
 5004 0ec4 1B78     		ldrb	r3, [r3]
 5005 0ec6 DBB2     		uxtb	r3, r3
 5006 0ec8 1846     		mov	r0, r3
 5007 0eca FFF7FEFF 		bl	get_estado
 5008 0ece 0346     		mov	r3, r0
 5009 0ed0 87F82F30 		strb	r3, [r7, #47]
1193:.\main.c      ****             if(x==7){								//Espera a que este en listo el equipo	
 5010              		.loc 1 1193 0
 5011 0ed4 97F82F30 		ldrb	r3, [r7, #47]	@ zero_extendqisi2
 5012 0ed8 072B     		cmp	r3, #7
 5013 0eda 06D1     		bne	.L239
1194:.\main.c      ****     		    flujo_LCD1=6;
 5014              		.loc 1 1194 0
 5015 0edc 564B     		ldr	r3, .L661+12
 5016 0ede 0622     		movs	r2, #6
 5017 0ee0 1A70     		strb	r2, [r3]
1195:.\main.c      ****                 CyDelay(50);
 5018              		.loc 1 1195 0
 5019 0ee2 3220     		movs	r0, #50
 5020 0ee4 FFF7FEFF 		bl	CyDelay
 5021 0ee8 2CE0     		b	.L236
 5022              	.L239:
1196:.\main.c      ****             }
1197:.\main.c      ****             else if(x==0){
 5023              		.loc 1 1197 0
 5024 0eea 97F82F30 		ldrb	r3, [r7, #47]	@ zero_extendqisi2
 5025 0eee 002B     		cmp	r3, #0
 5026 0ef0 0ED1     		bne	.L240
1198:.\main.c      ****     			CyDelay(50);
 5027              		.loc 1 1198 0
 5028 0ef2 3220     		movs	r0, #50
 5029 0ef4 FFF7FEFF 		bl	CyDelay
1199:.\main.c      ****     			programar(lado2.dir,1,aux,2);
 5030              		.loc 1 1199 0
 5031 0ef8 4E4B     		ldr	r3, .L661+8
 5032 0efa 1B78     		ldrb	r3, [r3]
 5033 0efc DAB2     		uxtb	r2, r3
 5034 0efe 07F11403 		add	r3, r7, #20
ARM GAS  C:\Users\RECEPC~1\AppData\Local\Temp\ccU7e2eq.s 			page 113


 5035 0f02 1046     		mov	r0, r2
 5036 0f04 0121     		movs	r1, #1
 5037 0f06 1A46     		mov	r2, r3
 5038 0f08 0223     		movs	r3, #2
 5039 0f0a FFF7FEFF 		bl	programar
 5040 0f0e 19E0     		b	.L236
 5041              	.L240:
1200:.\main.c      ****             }
1201:.\main.c      ****             else if(x==0x0C){
 5042              		.loc 1 1201 0
 5043 0f10 97F82F30 		ldrb	r3, [r7, #47]	@ zero_extendqisi2
 5044 0f14 0C2B     		cmp	r3, #12
 5045 0f16 04D1     		bne	.L241
1202:.\main.c      ****                 error_op(1,85);
 5046              		.loc 1 1202 0
 5047 0f18 0120     		movs	r0, #1
 5048 0f1a 5521     		movs	r1, #85
 5049 0f1c FFF7FEFF 		bl	error_op
 5050 0f20 10E0     		b	.L236
 5051              	.L241:
1203:.\main.c      ****             }
1204:.\main.c      ****     		else if(x==0x0B){                   //Termino venta
 5052              		.loc 1 1204 0
 5053 0f22 97F82F30 		ldrb	r3, [r7, #47]	@ zero_extendqisi2
 5054 0f26 0B2B     		cmp	r3, #11
 5055 0f28 03D1     		bne	.L242
1205:.\main.c      ****     			flujo_LCD1=13;
 5056              		.loc 1 1205 0
 5057 0f2a 434B     		ldr	r3, .L661+12
 5058 0f2c 0D22     		movs	r2, #13
 5059 0f2e 1A70     		strb	r2, [r3]
 5060 0f30 08E0     		b	.L236
 5061              	.L242:
1206:.\main.c      ****             }						
1207:.\main.c      ****     		else if(x==0x0A){					//Termino venta
 5062              		.loc 1 1207 0
 5063 0f32 97F82F30 		ldrb	r3, [r7, #47]	@ zero_extendqisi2
 5064 0f36 0A2B     		cmp	r3, #10
 5065 0f38 04D1     		bne	.L236
1208:.\main.c      ****     			flujo_LCD1=13;
 5066              		.loc 1 1208 0
 5067 0f3a 3F4B     		ldr	r3, .L661+12
 5068 0f3c 0D22     		movs	r2, #13
 5069 0f3e 1A70     		strb	r2, [r3]
1209:.\main.c      ****     		}  
1210:.\main.c      ****         }
1211:.\main.c      ****         break;
 5070              		.loc 1 1211 0
 5071 0f40 03F054BD 		b	.L117
 5072              	.L236:
 5073              		.loc 1 1211 0 is_stmt 0 discriminator 7
 5074 0f44 03F052BD 		b	.L117
 5075              	.L126:
1212:.\main.c      ****         
1213:.\main.c      ****          case 6:
1214:.\main.c      ****         if(seleccion_pos == 1){
 5076              		.loc 1 1214 0 is_stmt 1
ARM GAS  C:\Users\RECEPC~1\AppData\Local\Temp\ccU7e2eq.s 			page 114


 5077 0f48 3C4B     		ldr	r3, .L661+16
 5078 0f4a 1B78     		ldrb	r3, [r3]
 5079 0f4c DBB2     		uxtb	r3, r3
 5080 0f4e 012B     		cmp	r3, #1
 5081 0f50 31D1     		bne	.L243
1215:.\main.c      ****     		CyDelay(10);
 5082              		.loc 1 1215 0
 5083 0f52 0A20     		movs	r0, #10
 5084 0f54 FFF7FEFF 		bl	CyDelay
1216:.\main.c      ****     		rventa1.manguera=estado_ex(lado1.dir);
 5085              		.loc 1 1216 0
 5086 0f58 3A4B     		ldr	r3, .L661+24
 5087 0f5a 1B78     		ldrb	r3, [r3]
 5088 0f5c DBB2     		uxtb	r3, r3
 5089 0f5e 1846     		mov	r0, r3
 5090 0f60 FFF7FEFF 		bl	estado_ex
 5091 0f64 0346     		mov	r3, r0
 5092 0f66 1A46     		mov	r2, r3
 5093 0f68 314B     		ldr	r3, .L661+4
 5094 0f6a 9A76     		strb	r2, [r3, #26]
1217:.\main.c      ****     		if(rventa1.manguera!=0){			 
 5095              		.loc 1 1217 0
 5096 0f6c 304B     		ldr	r3, .L661+4
 5097 0f6e 9B7E     		ldrb	r3, [r3, #26]	@ zero_extendqisi2
 5098 0f70 002B     		cmp	r3, #0
 5099 0f72 20D0     		beq	.L243
1218:.\main.c      ****                 CyDelay(20);            
 5100              		.loc 1 1218 0
 5101 0f74 1420     		movs	r0, #20
 5102 0f76 FFF7FEFF 		bl	CyDelay
1219:.\main.c      ****     		    if(get_estado(lado1.dir)==7){   
 5103              		.loc 1 1219 0
 5104 0f7a 324B     		ldr	r3, .L661+24
 5105 0f7c 1B78     		ldrb	r3, [r3]
 5106 0f7e DBB2     		uxtb	r3, r3
 5107 0f80 1846     		mov	r0, r3
 5108 0f82 FFF7FEFF 		bl	get_estado
 5109 0f86 0346     		mov	r3, r0
 5110 0f88 072B     		cmp	r3, #7
 5111 0f8a 14D1     		bne	.L243
1220:.\main.c      ****                     isr_3_StartEx(animacion);  
 5112              		.loc 1 1220 0
 5113 0f8c 2E48     		ldr	r0, .L661+28
 5114 0f8e FFF7FEFF 		bl	isr_3_StartEx
1221:.\main.c      **** 	                Timer_Animacion_Start(); 
 5115              		.loc 1 1221 0
 5116 0f92 FFF7FEFF 		bl	Timer_Animacion_Start
1222:.\main.c      ****                     count_protector=0;
 5117              		.loc 1 1222 0
 5118 0f96 2D4B     		ldr	r3, .L661+32
 5119 0f98 0022     		movs	r2, #0
 5120 0f9a 1A70     		strb	r2, [r3]
1223:.\main.c      ****                     timeout_autorizacion=0;
 5121              		.loc 1 1223 0
 5122 0f9c 2C4B     		ldr	r3, .L661+36
 5123 0f9e 0022     		movs	r2, #0
 5124 0fa0 1A80     		strh	r2, [r3]	@ movhi
ARM GAS  C:\Users\RECEPC~1\AppData\Local\Temp\ccU7e2eq.s 			page 115


1224:.\main.c      ****     			    lado1.estado=listo;
 5125              		.loc 1 1224 0
 5126 0fa2 284B     		ldr	r3, .L661+24
 5127 0fa4 0422     		movs	r2, #4
 5128 0fa6 5A70     		strb	r2, [r3, #1]
1225:.\main.c      ****                     set_imagen(1,57);                                
 5129              		.loc 1 1225 0
 5130 0fa8 0120     		movs	r0, #1
 5131 0faa 3921     		movs	r1, #57
 5132 0fac FFF7FEFF 		bl	set_imagen
1226:.\main.c      ****                     flujo_LCD1 = 9; 
 5133              		.loc 1 1226 0
 5134 0fb0 214B     		ldr	r3, .L661+12
 5135 0fb2 0922     		movs	r2, #9
 5136 0fb4 1A70     		strb	r2, [r3]
 5137              	.L243:
1227:.\main.c      ****     		    }
1228:.\main.c      ****     		}
1229:.\main.c      ****         }
1230:.\main.c      ****         if(seleccion_pos == 2){
 5138              		.loc 1 1230 0
 5139 0fb6 214B     		ldr	r3, .L661+16
 5140 0fb8 1B78     		ldrb	r3, [r3]
 5141 0fba DBB2     		uxtb	r3, r3
 5142 0fbc 022B     		cmp	r3, #2
 5143 0fbe 33D1     		bne	.L244
1231:.\main.c      ****     		CyDelay(10);
 5144              		.loc 1 1231 0
 5145 0fc0 0A20     		movs	r0, #10
 5146 0fc2 FFF7FEFF 		bl	CyDelay
1232:.\main.c      ****     		rventa2.manguera=estado_ex(lado2.dir);
 5147              		.loc 1 1232 0
 5148 0fc6 1B4B     		ldr	r3, .L661+8
 5149 0fc8 1B78     		ldrb	r3, [r3]
 5150 0fca DBB2     		uxtb	r3, r3
 5151 0fcc 1846     		mov	r0, r3
 5152 0fce FFF7FEFF 		bl	estado_ex
 5153 0fd2 0346     		mov	r3, r0
 5154 0fd4 1A46     		mov	r2, r3
 5155 0fd6 154B     		ldr	r3, .L661
 5156 0fd8 9A76     		strb	r2, [r3, #26]
1233:.\main.c      ****     		if(rventa2.manguera!=0){			 
 5157              		.loc 1 1233 0
 5158 0fda 144B     		ldr	r3, .L661
 5159 0fdc 9B7E     		ldrb	r3, [r3, #26]	@ zero_extendqisi2
 5160 0fde 002B     		cmp	r3, #0
 5161 0fe0 22D0     		beq	.L244
1234:.\main.c      ****                 CyDelay(20);            
 5162              		.loc 1 1234 0
 5163 0fe2 1420     		movs	r0, #20
 5164 0fe4 FFF7FEFF 		bl	CyDelay
1235:.\main.c      ****     		    if(get_estado(lado2.dir)==7){
 5165              		.loc 1 1235 0
 5166 0fe8 124B     		ldr	r3, .L661+8
 5167 0fea 1B78     		ldrb	r3, [r3]
 5168 0fec DBB2     		uxtb	r3, r3
 5169 0fee 1846     		mov	r0, r3
ARM GAS  C:\Users\RECEPC~1\AppData\Local\Temp\ccU7e2eq.s 			page 116


 5170 0ff0 FFF7FEFF 		bl	get_estado
 5171 0ff4 0346     		mov	r3, r0
 5172 0ff6 072B     		cmp	r3, #7
 5173 0ff8 16D1     		bne	.L244
1236:.\main.c      ****                     isr_3_StartEx(animacion);  
 5174              		.loc 1 1236 0
 5175 0ffa 1348     		ldr	r0, .L661+28
 5176 0ffc FFF7FEFF 		bl	isr_3_StartEx
1237:.\main.c      **** 	                Timer_Animacion_Start(); 
 5177              		.loc 1 1237 0
 5178 1000 FFF7FEFF 		bl	Timer_Animacion_Start
1238:.\main.c      ****                     count_protector=0;
 5179              		.loc 1 1238 0
 5180 1004 114B     		ldr	r3, .L661+32
 5181 1006 0022     		movs	r2, #0
 5182 1008 1A70     		strb	r2, [r3]
1239:.\main.c      ****                     timeout_autorizacion=0;
 5183              		.loc 1 1239 0
 5184 100a 114B     		ldr	r3, .L661+36
 5185 100c 0022     		movs	r2, #0
 5186 100e 1A80     		strh	r2, [r3]	@ movhi
1240:.\main.c      ****     			    lado2.estado=listo;
 5187              		.loc 1 1240 0
 5188 1010 084B     		ldr	r3, .L661+8
 5189 1012 0422     		movs	r2, #4
 5190 1014 5A70     		strb	r2, [r3, #1]
1241:.\main.c      ****                     set_imagen(1,57);                                
 5191              		.loc 1 1241 0
 5192 1016 0120     		movs	r0, #1
 5193 1018 3921     		movs	r1, #57
 5194 101a FFF7FEFF 		bl	set_imagen
1242:.\main.c      ****                     flujo_LCD1 = 9;                    
 5195              		.loc 1 1242 0
 5196 101e 064B     		ldr	r3, .L661+12
 5197 1020 0922     		movs	r2, #9
 5198 1022 1A70     		strb	r2, [r3]
1243:.\main.c      ****     		    }
1244:.\main.c      ****     		}
1245:.\main.c      ****         }
1246:.\main.c      ****         break;
 5199              		.loc 1 1246 0
 5200 1024 03F0E2BC 		b	.L117
 5201              	.L244:
 5202              		.loc 1 1246 0 is_stmt 0 discriminator 8
 5203 1028 03F0E0BC 		b	.L117
 5204              	.L662:
 5205              		.align	2
 5206              	.L661:
 5207 102c 00000000 		.word	rventa2
 5208 1030 00000000 		.word	rventa1
 5209 1034 00000000 		.word	lado2
 5210 1038 00000000 		.word	flujo_LCD1
 5211 103c 00000000 		.word	seleccion_pos
 5212 1040 00000000 		.word	LCD_1_rxBuffer
 5213 1044 00000000 		.word	lado1
 5214 1048 00000000 		.word	animacion
 5215 104c 00000000 		.word	count_protector
ARM GAS  C:\Users\RECEPC~1\AppData\Local\Temp\ccU7e2eq.s 			page 117


 5216 1050 00000000 		.word	timeout_autorizacion
 5217              	.L127:
1247:.\main.c      ****         
1248:.\main.c      ****         case 8:        
1249:.\main.c      **** 		 CyDelay(50);
 5218              		.loc 1 1249 0 is_stmt 1
 5219 1054 3220     		movs	r0, #50
 5220 1056 FFF7FEFF 		bl	CyDelay
1250:.\main.c      ****         if(seleccion_pos == 1){
 5221              		.loc 1 1250 0
 5222 105a AF4B     		ldr	r3, .L663
 5223 105c 1B78     		ldrb	r3, [r3]
 5224 105e DBB2     		uxtb	r3, r3
 5225 1060 012B     		cmp	r3, #1
 5226 1062 40F09B80 		bne	.L245
1251:.\main.c      **** 		 switch(get_estado(lado1.dir)){
 5227              		.loc 1 1251 0
 5228 1066 AD4B     		ldr	r3, .L663+4
 5229 1068 1B78     		ldrb	r3, [r3]
 5230 106a DBB2     		uxtb	r3, r3
 5231 106c 1846     		mov	r0, r3
 5232 106e FFF7FEFF 		bl	get_estado
 5233 1072 0346     		mov	r3, r0
 5234 1074 0A2B     		cmp	r3, #10
 5235 1076 32D0     		beq	.L246
 5236 1078 0B2B     		cmp	r3, #11
 5237 107a 02D0     		beq	.L247
 5238 107c 062B     		cmp	r3, #6
 5239 107e 59D0     		beq	.L248
 5240 1080 8CE0     		b	.L245
 5241              	.L247:
1252:.\main.c      **** 	         case 0x0B:                     //Termino venta
1253:.\main.c      **** 				CyDelay(100);
 5242              		.loc 1 1253 0
 5243 1082 6420     		movs	r0, #100
 5244 1084 FFF7FEFF 		bl	CyDelay
1254:.\main.c      **** 				for(x=0;x<=8;x++){
 5245              		.loc 1 1254 0
 5246 1088 0023     		movs	r3, #0
 5247 108a 87F82F30 		strb	r3, [r7, #47]
 5248 108e 10E0     		b	.L249
 5249              	.L250:
1255:.\main.c      **** 					rventa1.dinero[x]=0;
 5250              		.loc 1 1255 0 discriminator 3
 5251 1090 97F82F30 		ldrb	r3, [r7, #47]	@ zero_extendqisi2
 5252 1094 A24A     		ldr	r2, .L663+8
 5253 1096 1344     		add	r3, r3, r2
 5254 1098 0022     		movs	r2, #0
 5255 109a DA71     		strb	r2, [r3, #7]
1256:.\main.c      **** 					rventa1.volumen[x]=0;
 5256              		.loc 1 1256 0 discriminator 3
 5257 109c 97F82F30 		ldrb	r3, [r7, #47]	@ zero_extendqisi2
 5258 10a0 9F4A     		ldr	r2, .L663+8
 5259 10a2 1344     		add	r3, r3, r2
 5260 10a4 0022     		movs	r2, #0
 5261 10a6 1A74     		strb	r2, [r3, #16]
1254:.\main.c      **** 				for(x=0;x<=8;x++){
ARM GAS  C:\Users\RECEPC~1\AppData\Local\Temp\ccU7e2eq.s 			page 118


 5262              		.loc 1 1254 0 discriminator 3
 5263 10a8 97F82F30 		ldrb	r3, [r7, #47]	@ zero_extendqisi2
 5264 10ac 0133     		adds	r3, r3, #1
 5265 10ae 87F82F30 		strb	r3, [r7, #47]
 5266              	.L249:
1254:.\main.c      **** 				for(x=0;x<=8;x++){
 5267              		.loc 1 1254 0 is_stmt 0 discriminator 1
 5268 10b2 97F82F30 		ldrb	r3, [r7, #47]	@ zero_extendqisi2
 5269 10b6 082B     		cmp	r3, #8
 5270 10b8 EAD9     		bls	.L250
1257:.\main.c      **** 				}					
1258:.\main.c      **** 				if(venta(lado1.dir)==1){
 5271              		.loc 1 1258 0 is_stmt 1
 5272 10ba 984B     		ldr	r3, .L663+4
 5273 10bc 1B78     		ldrb	r3, [r3]
 5274 10be DBB2     		uxtb	r3, r3
 5275 10c0 1846     		mov	r0, r3
 5276 10c2 FFF7FEFF 		bl	venta
 5277 10c6 0346     		mov	r3, r0
 5278 10c8 012B     		cmp	r3, #1
 5279 10ca 07D1     		bne	.L251
1259:.\main.c      **** 					flujo_LCD1 = 13;
 5280              		.loc 1 1259 0
 5281 10cc 954B     		ldr	r3, .L663+12
 5282 10ce 0D22     		movs	r2, #13
 5283 10d0 1A70     		strb	r2, [r3]
1260:.\main.c      **** 					set_imagen(1,57);
 5284              		.loc 1 1260 0
 5285 10d2 0120     		movs	r0, #1
 5286 10d4 3921     		movs	r1, #57
 5287 10d6 FFF7FEFF 		bl	set_imagen
1261:.\main.c      **** 				}	
1262:.\main.c      **** 			 break;	
 5288              		.loc 1 1262 0
 5289 10da 5FE0     		b	.L245
 5290              	.L251:
 5291 10dc 5EE0     		b	.L245
 5292              	.L246:
1263:.\main.c      **** 				
1264:.\main.c      **** 	         case 0x0A:						//Termino venta
1265:.\main.c      **** 				for(x=0;x<=8;x++){
 5293              		.loc 1 1265 0
 5294 10de 0023     		movs	r3, #0
 5295 10e0 87F82F30 		strb	r3, [r7, #47]
 5296 10e4 10E0     		b	.L252
 5297              	.L253:
1266:.\main.c      **** 					rventa1.dinero[x]=0;
 5298              		.loc 1 1266 0 discriminator 3
 5299 10e6 97F82F30 		ldrb	r3, [r7, #47]	@ zero_extendqisi2
 5300 10ea 8D4A     		ldr	r2, .L663+8
 5301 10ec 1344     		add	r3, r3, r2
 5302 10ee 0022     		movs	r2, #0
 5303 10f0 DA71     		strb	r2, [r3, #7]
1267:.\main.c      **** 					rventa1.volumen[x]=0;
 5304              		.loc 1 1267 0 discriminator 3
 5305 10f2 97F82F30 		ldrb	r3, [r7, #47]	@ zero_extendqisi2
 5306 10f6 8A4A     		ldr	r2, .L663+8
ARM GAS  C:\Users\RECEPC~1\AppData\Local\Temp\ccU7e2eq.s 			page 119


 5307 10f8 1344     		add	r3, r3, r2
 5308 10fa 0022     		movs	r2, #0
 5309 10fc 1A74     		strb	r2, [r3, #16]
1265:.\main.c      **** 					rventa1.dinero[x]=0;
 5310              		.loc 1 1265 0 discriminator 3
 5311 10fe 97F82F30 		ldrb	r3, [r7, #47]	@ zero_extendqisi2
 5312 1102 0133     		adds	r3, r3, #1
 5313 1104 87F82F30 		strb	r3, [r7, #47]
 5314              	.L252:
1265:.\main.c      **** 					rventa1.dinero[x]=0;
 5315              		.loc 1 1265 0 is_stmt 0 discriminator 1
 5316 1108 97F82F30 		ldrb	r3, [r7, #47]	@ zero_extendqisi2
 5317 110c 082B     		cmp	r3, #8
 5318 110e EAD9     		bls	.L253
1268:.\main.c      **** 				}				
1269:.\main.c      **** 				if(venta(lado1.dir)==1){
 5319              		.loc 1 1269 0 is_stmt 1
 5320 1110 824B     		ldr	r3, .L663+4
 5321 1112 1B78     		ldrb	r3, [r3]
 5322 1114 DBB2     		uxtb	r3, r3
 5323 1116 1846     		mov	r0, r3
 5324 1118 FFF7FEFF 		bl	venta
 5325 111c 0346     		mov	r3, r0
 5326 111e 012B     		cmp	r3, #1
 5327 1120 07D1     		bne	.L254
1270:.\main.c      **** 					flujo_LCD1 = 13;
 5328              		.loc 1 1270 0
 5329 1122 804B     		ldr	r3, .L663+12
 5330 1124 0D22     		movs	r2, #13
 5331 1126 1A70     		strb	r2, [r3]
1271:.\main.c      **** 					set_imagen(1,57);
 5332              		.loc 1 1271 0
 5333 1128 0120     		movs	r0, #1
 5334 112a 3921     		movs	r1, #57
 5335 112c FFF7FEFF 		bl	set_imagen
1272:.\main.c      **** 				}	
1273:.\main.c      **** 			 break;
 5336              		.loc 1 1273 0
 5337 1130 34E0     		b	.L245
 5338              	.L254:
 5339 1132 33E0     		b	.L245
 5340              	.L248:
1274:.\main.c      **** 
1275:.\main.c      **** 	         case 0x06:                     //No hizo venta
1276:.\main.c      **** 				for(x=0;x<=8;x++){
 5341              		.loc 1 1276 0
 5342 1134 0023     		movs	r3, #0
 5343 1136 87F82F30 		strb	r3, [r7, #47]
 5344 113a 10E0     		b	.L255
 5345              	.L256:
1277:.\main.c      **** 					rventa1.dinero[x]=0;
 5346              		.loc 1 1277 0 discriminator 3
 5347 113c 97F82F30 		ldrb	r3, [r7, #47]	@ zero_extendqisi2
 5348 1140 774A     		ldr	r2, .L663+8
 5349 1142 1344     		add	r3, r3, r2
 5350 1144 0022     		movs	r2, #0
 5351 1146 DA71     		strb	r2, [r3, #7]
ARM GAS  C:\Users\RECEPC~1\AppData\Local\Temp\ccU7e2eq.s 			page 120


1278:.\main.c      **** 					rventa1.volumen[x]=0;
 5352              		.loc 1 1278 0 discriminator 3
 5353 1148 97F82F30 		ldrb	r3, [r7, #47]	@ zero_extendqisi2
 5354 114c 744A     		ldr	r2, .L663+8
 5355 114e 1344     		add	r3, r3, r2
 5356 1150 0022     		movs	r2, #0
 5357 1152 1A74     		strb	r2, [r3, #16]
1276:.\main.c      **** 					rventa1.dinero[x]=0;
 5358              		.loc 1 1276 0 discriminator 3
 5359 1154 97F82F30 		ldrb	r3, [r7, #47]	@ zero_extendqisi2
 5360 1158 0133     		adds	r3, r3, #1
 5361 115a 87F82F30 		strb	r3, [r7, #47]
 5362              	.L255:
1276:.\main.c      **** 					rventa1.dinero[x]=0;
 5363              		.loc 1 1276 0 is_stmt 0 discriminator 1
 5364 115e 97F82F30 		ldrb	r3, [r7, #47]	@ zero_extendqisi2
 5365 1162 082B     		cmp	r3, #8
 5366 1164 EAD9     		bls	.L256
1279:.\main.c      **** 				}
1280:.\main.c      **** 				for(x=0;x<=4;x++){
 5367              		.loc 1 1280 0 is_stmt 1
 5368 1166 0023     		movs	r3, #0
 5369 1168 87F82F30 		strb	r3, [r7, #47]
 5370 116c 0AE0     		b	.L257
 5371              	.L258:
1281:.\main.c      **** 					rventa1.ppu[x]=0;
 5372              		.loc 1 1281 0 discriminator 3
 5373 116e 97F82F30 		ldrb	r3, [r7, #47]	@ zero_extendqisi2
 5374 1172 6B4A     		ldr	r2, .L663+8
 5375 1174 1344     		add	r3, r3, r2
 5376 1176 0022     		movs	r2, #0
 5377 1178 9A70     		strb	r2, [r3, #2]
1280:.\main.c      **** 					rventa1.ppu[x]=0;
 5378              		.loc 1 1280 0 discriminator 3
 5379 117a 97F82F30 		ldrb	r3, [r7, #47]	@ zero_extendqisi2
 5380 117e 0133     		adds	r3, r3, #1
 5381 1180 87F82F30 		strb	r3, [r7, #47]
 5382              	.L257:
1280:.\main.c      **** 					rventa1.ppu[x]=0;
 5383              		.loc 1 1280 0 is_stmt 0 discriminator 1
 5384 1184 97F82F30 		ldrb	r3, [r7, #47]	@ zero_extendqisi2
 5385 1188 042B     		cmp	r3, #4
 5386 118a F0D9     		bls	.L258
1282:.\main.c      **** 				}				
1283:.\main.c      **** 				flujo_LCD1 = 13;
 5387              		.loc 1 1283 0 is_stmt 1
 5388 118c 654B     		ldr	r3, .L663+12
 5389 118e 0D22     		movs	r2, #13
 5390 1190 1A70     		strb	r2, [r3]
1284:.\main.c      **** 				set_imagen(1,57);		
 5391              		.loc 1 1284 0
 5392 1192 0120     		movs	r0, #1
 5393 1194 3921     		movs	r1, #57
 5394 1196 FFF7FEFF 		bl	set_imagen
1285:.\main.c      **** 			 break;				 	
 5395              		.loc 1 1285 0
 5396 119a 00BF     		nop
ARM GAS  C:\Users\RECEPC~1\AppData\Local\Temp\ccU7e2eq.s 			page 121


 5397              	.L245:
1286:.\main.c      ****          }	
1287:.\main.c      ****         }
1288:.\main.c      ****         if(seleccion_pos == 2){
 5398              		.loc 1 1288 0
 5399 119c 5E4B     		ldr	r3, .L663
 5400 119e 1B78     		ldrb	r3, [r3]
 5401 11a0 DBB2     		uxtb	r3, r3
 5402 11a2 022B     		cmp	r3, #2
 5403 11a4 40F09C80 		bne	.L259
1289:.\main.c      **** 		 switch(get_estado(lado2.dir)){
 5404              		.loc 1 1289 0
 5405 11a8 5F4B     		ldr	r3, .L663+16
 5406 11aa 1B78     		ldrb	r3, [r3]
 5407 11ac DBB2     		uxtb	r3, r3
 5408 11ae 1846     		mov	r0, r3
 5409 11b0 FFF7FEFF 		bl	get_estado
 5410 11b4 0346     		mov	r3, r0
 5411 11b6 0A2B     		cmp	r3, #10
 5412 11b8 33D0     		beq	.L260
 5413 11ba 0B2B     		cmp	r3, #11
 5414 11bc 03D0     		beq	.L261
 5415 11be 062B     		cmp	r3, #6
 5416 11c0 5AD0     		beq	.L262
1290:.\main.c      **** 	         case 0x0B:                     //Termino venta
1291:.\main.c      **** 				CyDelay(100);
1292:.\main.c      **** 				for(x=0;x<=8;x++){
1293:.\main.c      **** 					rventa2.dinero[x]=0;
1294:.\main.c      **** 					rventa2.volumen[x]=0;
1295:.\main.c      **** 				}					
1296:.\main.c      **** 				if(venta(lado2.dir)==1){
1297:.\main.c      **** 					flujo_LCD1 = 13;
1298:.\main.c      **** 					set_imagen(1,57);
1299:.\main.c      **** 				}	
1300:.\main.c      **** 			 break;	
1301:.\main.c      **** 				
1302:.\main.c      **** 	         case 0x0A:						//Termino venta
1303:.\main.c      **** 				for(x=0;x<=8;x++){
1304:.\main.c      **** 					rventa2.dinero[x]=0;
1305:.\main.c      **** 					rventa2.volumen[x]=0;
1306:.\main.c      **** 				}				
1307:.\main.c      **** 				if(venta(lado2.dir)==1){
1308:.\main.c      **** 					flujo_LCD1 = 13;
1309:.\main.c      **** 					set_imagen(1,57);
1310:.\main.c      **** 				}	
1311:.\main.c      **** 			 break;
1312:.\main.c      **** 
1313:.\main.c      **** 	         case 0x06:                     //No hizo venta
1314:.\main.c      **** 				for(x=0;x<=8;x++){
1315:.\main.c      **** 					rventa2.dinero[x]=0;
1316:.\main.c      **** 					rventa2.volumen[x]=0;
1317:.\main.c      **** 				}
1318:.\main.c      **** 				for(x=0;x<=4;x++){
1319:.\main.c      **** 					rventa2.ppu[x]=0;
1320:.\main.c      **** 				}				
1321:.\main.c      **** 				flujo_LCD1 = 13;
1322:.\main.c      **** 				set_imagen(1,57);		
ARM GAS  C:\Users\RECEPC~1\AppData\Local\Temp\ccU7e2eq.s 			page 122


1323:.\main.c      **** 			 break;				 	
1324:.\main.c      ****          }	
1325:.\main.c      ****         }
1326:.\main.c      **** 		break;
 5417              		.loc 1 1326 0
 5418 11c2 03F013BC 		b	.L117
 5419              	.L261:
1291:.\main.c      **** 				for(x=0;x<=8;x++){
 5420              		.loc 1 1291 0
 5421 11c6 6420     		movs	r0, #100
 5422 11c8 FFF7FEFF 		bl	CyDelay
1292:.\main.c      **** 					rventa2.dinero[x]=0;
 5423              		.loc 1 1292 0
 5424 11cc 0023     		movs	r3, #0
 5425 11ce 87F82F30 		strb	r3, [r7, #47]
 5426 11d2 10E0     		b	.L263
 5427              	.L264:
1293:.\main.c      **** 					rventa2.volumen[x]=0;
 5428              		.loc 1 1293 0 discriminator 3
 5429 11d4 97F82F30 		ldrb	r3, [r7, #47]	@ zero_extendqisi2
 5430 11d8 544A     		ldr	r2, .L663+20
 5431 11da 1344     		add	r3, r3, r2
 5432 11dc 0022     		movs	r2, #0
 5433 11de DA71     		strb	r2, [r3, #7]
1294:.\main.c      **** 				}					
 5434              		.loc 1 1294 0 discriminator 3
 5435 11e0 97F82F30 		ldrb	r3, [r7, #47]	@ zero_extendqisi2
 5436 11e4 514A     		ldr	r2, .L663+20
 5437 11e6 1344     		add	r3, r3, r2
 5438 11e8 0022     		movs	r2, #0
 5439 11ea 1A74     		strb	r2, [r3, #16]
1292:.\main.c      **** 					rventa2.dinero[x]=0;
 5440              		.loc 1 1292 0 discriminator 3
 5441 11ec 97F82F30 		ldrb	r3, [r7, #47]	@ zero_extendqisi2
 5442 11f0 0133     		adds	r3, r3, #1
 5443 11f2 87F82F30 		strb	r3, [r7, #47]
 5444              	.L263:
1292:.\main.c      **** 					rventa2.dinero[x]=0;
 5445              		.loc 1 1292 0 is_stmt 0 discriminator 1
 5446 11f6 97F82F30 		ldrb	r3, [r7, #47]	@ zero_extendqisi2
 5447 11fa 082B     		cmp	r3, #8
 5448 11fc EAD9     		bls	.L264
1296:.\main.c      **** 					flujo_LCD1 = 13;
 5449              		.loc 1 1296 0 is_stmt 1
 5450 11fe 4A4B     		ldr	r3, .L663+16
 5451 1200 1B78     		ldrb	r3, [r3]
 5452 1202 DBB2     		uxtb	r3, r3
 5453 1204 1846     		mov	r0, r3
 5454 1206 FFF7FEFF 		bl	venta
 5455 120a 0346     		mov	r3, r0
 5456 120c 012B     		cmp	r3, #1
 5457 120e 07D1     		bne	.L265
1297:.\main.c      **** 					set_imagen(1,57);
 5458              		.loc 1 1297 0
 5459 1210 444B     		ldr	r3, .L663+12
 5460 1212 0D22     		movs	r2, #13
 5461 1214 1A70     		strb	r2, [r3]
ARM GAS  C:\Users\RECEPC~1\AppData\Local\Temp\ccU7e2eq.s 			page 123


1298:.\main.c      **** 				}	
 5462              		.loc 1 1298 0
 5463 1216 0120     		movs	r0, #1
 5464 1218 3921     		movs	r1, #57
 5465 121a FFF7FEFF 		bl	set_imagen
1300:.\main.c      **** 				
 5466              		.loc 1 1300 0
 5467 121e 5FE0     		b	.L259
 5468              	.L265:
 5469 1220 5EE0     		b	.L259
 5470              	.L260:
1303:.\main.c      **** 					rventa2.dinero[x]=0;
 5471              		.loc 1 1303 0
 5472 1222 0023     		movs	r3, #0
 5473 1224 87F82F30 		strb	r3, [r7, #47]
 5474 1228 10E0     		b	.L266
 5475              	.L267:
1304:.\main.c      **** 					rventa2.volumen[x]=0;
 5476              		.loc 1 1304 0 discriminator 3
 5477 122a 97F82F30 		ldrb	r3, [r7, #47]	@ zero_extendqisi2
 5478 122e 3F4A     		ldr	r2, .L663+20
 5479 1230 1344     		add	r3, r3, r2
 5480 1232 0022     		movs	r2, #0
 5481 1234 DA71     		strb	r2, [r3, #7]
1305:.\main.c      **** 				}				
 5482              		.loc 1 1305 0 discriminator 3
 5483 1236 97F82F30 		ldrb	r3, [r7, #47]	@ zero_extendqisi2
 5484 123a 3C4A     		ldr	r2, .L663+20
 5485 123c 1344     		add	r3, r3, r2
 5486 123e 0022     		movs	r2, #0
 5487 1240 1A74     		strb	r2, [r3, #16]
1303:.\main.c      **** 					rventa2.dinero[x]=0;
 5488              		.loc 1 1303 0 discriminator 3
 5489 1242 97F82F30 		ldrb	r3, [r7, #47]	@ zero_extendqisi2
 5490 1246 0133     		adds	r3, r3, #1
 5491 1248 87F82F30 		strb	r3, [r7, #47]
 5492              	.L266:
1303:.\main.c      **** 					rventa2.dinero[x]=0;
 5493              		.loc 1 1303 0 is_stmt 0 discriminator 1
 5494 124c 97F82F30 		ldrb	r3, [r7, #47]	@ zero_extendqisi2
 5495 1250 082B     		cmp	r3, #8
 5496 1252 EAD9     		bls	.L267
1307:.\main.c      **** 					flujo_LCD1 = 13;
 5497              		.loc 1 1307 0 is_stmt 1
 5498 1254 344B     		ldr	r3, .L663+16
 5499 1256 1B78     		ldrb	r3, [r3]
 5500 1258 DBB2     		uxtb	r3, r3
 5501 125a 1846     		mov	r0, r3
 5502 125c FFF7FEFF 		bl	venta
 5503 1260 0346     		mov	r3, r0
 5504 1262 012B     		cmp	r3, #1
 5505 1264 07D1     		bne	.L268
1308:.\main.c      **** 					set_imagen(1,57);
 5506              		.loc 1 1308 0
 5507 1266 2F4B     		ldr	r3, .L663+12
 5508 1268 0D22     		movs	r2, #13
 5509 126a 1A70     		strb	r2, [r3]
ARM GAS  C:\Users\RECEPC~1\AppData\Local\Temp\ccU7e2eq.s 			page 124


1309:.\main.c      **** 				}	
 5510              		.loc 1 1309 0
 5511 126c 0120     		movs	r0, #1
 5512 126e 3921     		movs	r1, #57
 5513 1270 FFF7FEFF 		bl	set_imagen
1311:.\main.c      **** 
 5514              		.loc 1 1311 0
 5515 1274 34E0     		b	.L259
 5516              	.L268:
1311:.\main.c      **** 
 5517              		.loc 1 1311 0 is_stmt 0 discriminator 10
 5518 1276 33E0     		b	.L259
 5519              	.L262:
1314:.\main.c      **** 					rventa2.dinero[x]=0;
 5520              		.loc 1 1314 0 is_stmt 1
 5521 1278 0023     		movs	r3, #0
 5522 127a 87F82F30 		strb	r3, [r7, #47]
 5523 127e 10E0     		b	.L269
 5524              	.L270:
1315:.\main.c      **** 					rventa2.volumen[x]=0;
 5525              		.loc 1 1315 0 discriminator 3
 5526 1280 97F82F30 		ldrb	r3, [r7, #47]	@ zero_extendqisi2
 5527 1284 294A     		ldr	r2, .L663+20
 5528 1286 1344     		add	r3, r3, r2
 5529 1288 0022     		movs	r2, #0
 5530 128a DA71     		strb	r2, [r3, #7]
1316:.\main.c      **** 				}
 5531              		.loc 1 1316 0 discriminator 3
 5532 128c 97F82F30 		ldrb	r3, [r7, #47]	@ zero_extendqisi2
 5533 1290 264A     		ldr	r2, .L663+20
 5534 1292 1344     		add	r3, r3, r2
 5535 1294 0022     		movs	r2, #0
 5536 1296 1A74     		strb	r2, [r3, #16]
1314:.\main.c      **** 					rventa2.dinero[x]=0;
 5537              		.loc 1 1314 0 discriminator 3
 5538 1298 97F82F30 		ldrb	r3, [r7, #47]	@ zero_extendqisi2
 5539 129c 0133     		adds	r3, r3, #1
 5540 129e 87F82F30 		strb	r3, [r7, #47]
 5541              	.L269:
1314:.\main.c      **** 					rventa2.dinero[x]=0;
 5542              		.loc 1 1314 0 is_stmt 0 discriminator 1
 5543 12a2 97F82F30 		ldrb	r3, [r7, #47]	@ zero_extendqisi2
 5544 12a6 082B     		cmp	r3, #8
 5545 12a8 EAD9     		bls	.L270
1318:.\main.c      **** 					rventa2.ppu[x]=0;
 5546              		.loc 1 1318 0 is_stmt 1
 5547 12aa 0023     		movs	r3, #0
 5548 12ac 87F82F30 		strb	r3, [r7, #47]
 5549 12b0 0AE0     		b	.L271
 5550              	.L272:
1319:.\main.c      **** 				}				
 5551              		.loc 1 1319 0 discriminator 3
 5552 12b2 97F82F30 		ldrb	r3, [r7, #47]	@ zero_extendqisi2
 5553 12b6 1D4A     		ldr	r2, .L663+20
 5554 12b8 1344     		add	r3, r3, r2
 5555 12ba 0022     		movs	r2, #0
 5556 12bc 9A70     		strb	r2, [r3, #2]
ARM GAS  C:\Users\RECEPC~1\AppData\Local\Temp\ccU7e2eq.s 			page 125


1318:.\main.c      **** 					rventa2.ppu[x]=0;
 5557              		.loc 1 1318 0 discriminator 3
 5558 12be 97F82F30 		ldrb	r3, [r7, #47]	@ zero_extendqisi2
 5559 12c2 0133     		adds	r3, r3, #1
 5560 12c4 87F82F30 		strb	r3, [r7, #47]
 5561              	.L271:
1318:.\main.c      **** 					rventa2.ppu[x]=0;
 5562              		.loc 1 1318 0 is_stmt 0 discriminator 1
 5563 12c8 97F82F30 		ldrb	r3, [r7, #47]	@ zero_extendqisi2
 5564 12cc 042B     		cmp	r3, #4
 5565 12ce F0D9     		bls	.L272
1321:.\main.c      **** 				set_imagen(1,57);		
 5566              		.loc 1 1321 0 is_stmt 1
 5567 12d0 144B     		ldr	r3, .L663+12
 5568 12d2 0D22     		movs	r2, #13
 5569 12d4 1A70     		strb	r2, [r3]
1322:.\main.c      **** 			 break;				 	
 5570              		.loc 1 1322 0
 5571 12d6 0120     		movs	r0, #1
 5572 12d8 3921     		movs	r1, #57
 5573 12da FFF7FEFF 		bl	set_imagen
1323:.\main.c      ****          }	
 5574              		.loc 1 1323 0
 5575 12de 00BF     		nop
 5576              	.L259:
 5577              		.loc 1 1326 0 discriminator 9
 5578 12e0 03F084BB 		b	.L117
 5579              	.L128:
1327:.\main.c      ****         
1328:.\main.c      ****         case 9:
1329:.\main.c      **** 			rf_mod[0]='M';
 5580              		.loc 1 1329 0
 5581 12e4 124B     		ldr	r3, .L663+24
 5582 12e6 4D22     		movs	r2, #77
 5583 12e8 1A70     		strb	r2, [r3]
1330:.\main.c      **** 			rf_mod[1]='U';
 5584              		.loc 1 1330 0
 5585 12ea 114B     		ldr	r3, .L663+24
 5586 12ec 5522     		movs	r2, #85
 5587 12ee 5A70     		strb	r2, [r3, #1]
1331:.\main.c      **** 			rf_mod[2]='X';
 5588              		.loc 1 1331 0
 5589 12f0 0F4B     		ldr	r3, .L663+24
 5590 12f2 5822     		movs	r2, #88
 5591 12f4 9A70     		strb	r2, [r3, #2]
1332:.\main.c      **** 			rf_mod[3]='0';
 5592              		.loc 1 1332 0
 5593 12f6 0E4B     		ldr	r3, .L663+24
 5594 12f8 3022     		movs	r2, #48
 5595 12fa DA70     		strb	r2, [r3, #3]
1333:.\main.c      ****             if(seleccion_pos == 1){
 5596              		.loc 1 1333 0
 5597 12fc 064B     		ldr	r3, .L663
 5598 12fe 1B78     		ldrb	r3, [r3]
 5599 1300 DBB2     		uxtb	r3, r3
 5600 1302 012B     		cmp	r3, #1
 5601 1304 40F03182 		bne	.L273
ARM GAS  C:\Users\RECEPC~1\AppData\Local\Temp\ccU7e2eq.s 			page 126


1334:.\main.c      ****                 if (tipo_venta == 1){
 5602              		.loc 1 1334 0
 5603 1308 0A4B     		ldr	r3, .L663+28
 5604 130a 1B78     		ldrb	r3, [r3]	@ zero_extendqisi2
 5605 130c 012B     		cmp	r3, #1
 5606 130e 52D1     		bne	.L274
1335:.\main.c      ****     			    for(x=0;x<=15;x++){						//Serial				
 5607              		.loc 1 1335 0
 5608 1310 0023     		movs	r3, #0
 5609 1312 87F82F30 		strb	r3, [r7, #47]
 5610 1316 4AE0     		b	.L275
 5611              	.L664:
 5612              		.align	2
 5613              	.L663:
 5614 1318 00000000 		.word	seleccion_pos
 5615 131c 00000000 		.word	lado1
 5616 1320 00000000 		.word	rventa1
 5617 1324 00000000 		.word	flujo_LCD1
 5618 1328 00000000 		.word	lado2
 5619 132c 00000000 		.word	rventa2
 5620 1330 00000000 		.word	rf_mod
 5621 1334 00000000 		.word	tipo_venta
 5622              	.L278:
1336:.\main.c      ****     				    y=(rventa1.id[x/2]>>4)&0x0F;
 5623              		.loc 1 1336 0
 5624 1338 97F82F30 		ldrb	r3, [r7, #47]	@ zero_extendqisi2
 5625 133c 5B08     		lsrs	r3, r3, #1
 5626 133e DBB2     		uxtb	r3, r3
 5627 1340 1A46     		mov	r2, r3
 5628 1342 214B     		ldr	r3, .L665
 5629 1344 1344     		add	r3, r3, r2
 5630 1346 93F82330 		ldrb	r3, [r3, #35]	@ zero_extendqisi2
 5631 134a 1B09     		lsrs	r3, r3, #4
 5632 134c 87F82E30 		strb	r3, [r7, #46]
1337:.\main.c      ****     				    if((x%2)==0){
 5633              		.loc 1 1337 0
 5634 1350 97F82F30 		ldrb	r3, [r7, #47]
 5635 1354 03F00103 		and	r3, r3, #1
 5636 1358 DBB2     		uxtb	r3, r3
 5637 135a 002B     		cmp	r3, #0
 5638 135c 0CD1     		bne	.L276
1338:.\main.c      ****     					    y=rventa1.id[x/2]&0x0F;
 5639              		.loc 1 1338 0
 5640 135e 97F82F30 		ldrb	r3, [r7, #47]	@ zero_extendqisi2
 5641 1362 5B08     		lsrs	r3, r3, #1
 5642 1364 DBB2     		uxtb	r3, r3
 5643 1366 1A46     		mov	r2, r3
 5644 1368 174B     		ldr	r3, .L665
 5645 136a 1344     		add	r3, r3, r2
 5646 136c 93F82330 		ldrb	r3, [r3, #35]	@ zero_extendqisi2
 5647 1370 03F00F03 		and	r3, r3, #15
 5648 1374 87F82E30 		strb	r3, [r7, #46]
 5649              	.L276:
1339:.\main.c      ****     				    }
1340:.\main.c      ****     				    rf_mod[x+4] = y+48;
 5650              		.loc 1 1340 0
 5651 1378 97F82F30 		ldrb	r3, [r7, #47]	@ zero_extendqisi2
ARM GAS  C:\Users\RECEPC~1\AppData\Local\Temp\ccU7e2eq.s 			page 127


 5652 137c 0433     		adds	r3, r3, #4
 5653 137e 97F82E20 		ldrb	r2, [r7, #46]
 5654 1382 3032     		adds	r2, r2, #48
 5655 1384 D1B2     		uxtb	r1, r2
 5656 1386 114A     		ldr	r2, .L665+4
 5657 1388 D154     		strb	r1, [r2, r3]
1341:.\main.c      ****     				    if(y>9){
 5658              		.loc 1 1341 0
 5659 138a 97F82E30 		ldrb	r3, [r7, #46]	@ zero_extendqisi2
 5660 138e 092B     		cmp	r3, #9
 5661 1390 08D9     		bls	.L277
1342:.\main.c      ****     					    rf_mod[x+4] = y+55;
 5662              		.loc 1 1342 0
 5663 1392 97F82F30 		ldrb	r3, [r7, #47]	@ zero_extendqisi2
 5664 1396 0433     		adds	r3, r3, #4
 5665 1398 97F82E20 		ldrb	r2, [r7, #46]
 5666 139c 3732     		adds	r2, r2, #55
 5667 139e D1B2     		uxtb	r1, r2
 5668 13a0 0A4A     		ldr	r2, .L665+4
 5669 13a2 D154     		strb	r1, [r2, r3]
 5670              	.L277:
1335:.\main.c      ****     				    y=(rventa1.id[x/2]>>4)&0x0F;
 5671              		.loc 1 1335 0 discriminator 2
 5672 13a4 97F82F30 		ldrb	r3, [r7, #47]	@ zero_extendqisi2
 5673 13a8 0133     		adds	r3, r3, #1
 5674 13aa 87F82F30 		strb	r3, [r7, #47]
 5675              	.L275:
1335:.\main.c      ****     				    y=(rventa1.id[x/2]>>4)&0x0F;
 5676              		.loc 1 1335 0 is_stmt 0 discriminator 1
 5677 13ae 97F82F30 		ldrb	r3, [r7, #47]	@ zero_extendqisi2
 5678 13b2 0F2B     		cmp	r3, #15
 5679 13b4 C0D9     		bls	.L278
 5680              	.L274:
1343:.\main.c      ****     				    }
1344:.\main.c      ****     			    }                
1345:.\main.c      ****                 }
1346:.\main.c      ****                 if(tipo_venta == 0){
 5681              		.loc 1 1346 0 is_stmt 1
 5682 13b6 064B     		ldr	r3, .L665+8
 5683 13b8 1B78     		ldrb	r3, [r3]	@ zero_extendqisi2
 5684 13ba 002B     		cmp	r3, #0
 5685 13bc 49D1     		bne	.L279
1347:.\main.c      ****                     for(x=0;x<=15;x++){						//Serial				
 5686              		.loc 1 1347 0
 5687 13be 0023     		movs	r3, #0
 5688 13c0 87F82F30 		strb	r3, [r7, #47]
 5689 13c4 41E0     		b	.L280
 5690              	.L666:
 5691 13c6 00BF     		.align	2
 5692              	.L665:
 5693 13c8 00000000 		.word	rventa1
 5694 13cc 00000000 		.word	rf_mod
 5695 13d0 00000000 		.word	tipo_venta
 5696              	.L283:
1348:.\main.c      ****     				    y=(rventa1.id[x/2]>>4)&0x0F;
 5697              		.loc 1 1348 0
 5698 13d4 97F82F30 		ldrb	r3, [r7, #47]	@ zero_extendqisi2
ARM GAS  C:\Users\RECEPC~1\AppData\Local\Temp\ccU7e2eq.s 			page 128


 5699 13d8 5B08     		lsrs	r3, r3, #1
 5700 13da DBB2     		uxtb	r3, r3
 5701 13dc 1A46     		mov	r2, r3
 5702 13de B54B     		ldr	r3, .L667
 5703 13e0 1344     		add	r3, r3, r2
 5704 13e2 93F82330 		ldrb	r3, [r3, #35]	@ zero_extendqisi2
 5705 13e6 1B09     		lsrs	r3, r3, #4
 5706 13e8 87F82E30 		strb	r3, [r7, #46]
1349:.\main.c      ****     				    if((x%2)==0){
 5707              		.loc 1 1349 0
 5708 13ec 97F82F30 		ldrb	r3, [r7, #47]
 5709 13f0 03F00103 		and	r3, r3, #1
 5710 13f4 DBB2     		uxtb	r3, r3
 5711 13f6 002B     		cmp	r3, #0
 5712 13f8 0CD1     		bne	.L281
1350:.\main.c      ****     					    y=rventa1.id[x/2]&0x0F;
 5713              		.loc 1 1350 0
 5714 13fa 97F82F30 		ldrb	r3, [r7, #47]	@ zero_extendqisi2
 5715 13fe 5B08     		lsrs	r3, r3, #1
 5716 1400 DBB2     		uxtb	r3, r3
 5717 1402 1A46     		mov	r2, r3
 5718 1404 AB4B     		ldr	r3, .L667
 5719 1406 1344     		add	r3, r3, r2
 5720 1408 93F82330 		ldrb	r3, [r3, #35]	@ zero_extendqisi2
 5721 140c 03F00F03 		and	r3, r3, #15
 5722 1410 87F82E30 		strb	r3, [r7, #46]
 5723              	.L281:
1351:.\main.c      ****     				    }
1352:.\main.c      ****     				    rf_mod[x+4] = y+48;
 5724              		.loc 1 1352 0
 5725 1414 97F82F30 		ldrb	r3, [r7, #47]	@ zero_extendqisi2
 5726 1418 0433     		adds	r3, r3, #4
 5727 141a 97F82E20 		ldrb	r2, [r7, #46]
 5728 141e 3032     		adds	r2, r2, #48
 5729 1420 D1B2     		uxtb	r1, r2
 5730 1422 A54A     		ldr	r2, .L667+4
 5731 1424 D154     		strb	r1, [r2, r3]
1353:.\main.c      ****     				    if(y>9){
 5732              		.loc 1 1353 0
 5733 1426 97F82E30 		ldrb	r3, [r7, #46]	@ zero_extendqisi2
 5734 142a 092B     		cmp	r3, #9
 5735 142c 08D9     		bls	.L282
1354:.\main.c      ****     					    rf_mod[x+4] = y+55;
 5736              		.loc 1 1354 0
 5737 142e 97F82F30 		ldrb	r3, [r7, #47]	@ zero_extendqisi2
 5738 1432 0433     		adds	r3, r3, #4
 5739 1434 97F82E20 		ldrb	r2, [r7, #46]
 5740 1438 3732     		adds	r2, r2, #55
 5741 143a D1B2     		uxtb	r1, r2
 5742 143c 9E4A     		ldr	r2, .L667+4
 5743 143e D154     		strb	r1, [r2, r3]
 5744              	.L282:
1347:.\main.c      ****     				    y=(rventa1.id[x/2]>>4)&0x0F;
 5745              		.loc 1 1347 0 discriminator 2
 5746 1440 97F82F30 		ldrb	r3, [r7, #47]	@ zero_extendqisi2
 5747 1444 0133     		adds	r3, r3, #1
 5748 1446 87F82F30 		strb	r3, [r7, #47]
ARM GAS  C:\Users\RECEPC~1\AppData\Local\Temp\ccU7e2eq.s 			page 129


 5749              	.L280:
1347:.\main.c      ****     				    y=(rventa1.id[x/2]>>4)&0x0F;
 5750              		.loc 1 1347 0 is_stmt 0 discriminator 1
 5751 144a 97F82F30 		ldrb	r3, [r7, #47]	@ zero_extendqisi2
 5752 144e 0F2B     		cmp	r3, #15
 5753 1450 C0D9     		bls	.L283
 5754              	.L279:
1355:.\main.c      ****     				    }
1356:.\main.c      ****     			    }
1357:.\main.c      ****                 }
1358:.\main.c      ****     			rf_mod[20]=(lado1.grado[rventa1.manguera-1][0])+48;			//Id Producto
 5755              		.loc 1 1358 0 is_stmt 1
 5756 1452 984B     		ldr	r3, .L667
 5757 1454 9B7E     		ldrb	r3, [r3, #26]	@ zero_extendqisi2
 5758 1456 013B     		subs	r3, r3, #1
 5759 1458 984A     		ldr	r2, .L667+8
 5760 145a 1344     		add	r3, r3, r2
 5761 145c 93F85930 		ldrb	r3, [r3, #89]
 5762 1460 DBB2     		uxtb	r3, r3
 5763 1462 3033     		adds	r3, r3, #48
 5764 1464 DAB2     		uxtb	r2, r3
 5765 1466 944B     		ldr	r3, .L667+4
 5766 1468 1A75     		strb	r2, [r3, #20]
1359:.\main.c      ****                 if(tipo_venta == 0){
 5767              		.loc 1 1359 0
 5768 146a 954B     		ldr	r3, .L667+12
 5769 146c 1B78     		ldrb	r3, [r3]	@ zero_extendqisi2
 5770 146e 002B     		cmp	r3, #0
 5771 1470 13D1     		bne	.L284
1360:.\main.c      ****                     rf_mod[21]= id_estacion[4];								    //Id vehiculo
 5772              		.loc 1 1360 0
 5773 1472 944B     		ldr	r3, .L667+16
 5774 1474 1B79     		ldrb	r3, [r3, #4]
 5775 1476 DAB2     		uxtb	r2, r3
 5776 1478 8F4B     		ldr	r3, .L667+4
 5777 147a 5A75     		strb	r2, [r3, #21]
1361:.\main.c      ****     			    rf_mod[22]= id_estacion[3];
 5778              		.loc 1 1361 0
 5779 147c 914B     		ldr	r3, .L667+16
 5780 147e DB78     		ldrb	r3, [r3, #3]
 5781 1480 DAB2     		uxtb	r2, r3
 5782 1482 8D4B     		ldr	r3, .L667+4
 5783 1484 9A75     		strb	r2, [r3, #22]
1362:.\main.c      ****     			    rf_mod[23]= id_estacion[2];
 5784              		.loc 1 1362 0
 5785 1486 8F4B     		ldr	r3, .L667+16
 5786 1488 9B78     		ldrb	r3, [r3, #2]
 5787 148a DAB2     		uxtb	r2, r3
 5788 148c 8A4B     		ldr	r3, .L667+4
 5789 148e DA75     		strb	r2, [r3, #23]
1363:.\main.c      ****     			    rf_mod[24]= id_estacion[1];  
 5790              		.loc 1 1363 0
 5791 1490 8C4B     		ldr	r3, .L667+16
 5792 1492 5B78     		ldrb	r3, [r3, #1]
 5793 1494 DAB2     		uxtb	r2, r3
 5794 1496 884B     		ldr	r3, .L667+4
 5795 1498 1A76     		strb	r2, [r3, #24]
ARM GAS  C:\Users\RECEPC~1\AppData\Local\Temp\ccU7e2eq.s 			page 130


 5796              	.L284:
1364:.\main.c      ****                 }
1365:.\main.c      ****     			if(tipo_venta == 1){
 5797              		.loc 1 1365 0
 5798 149a 894B     		ldr	r3, .L667+12
 5799 149c 1B78     		ldrb	r3, [r3]	@ zero_extendqisi2
 5800 149e 012B     		cmp	r3, #1
 5801 14a0 0BD1     		bne	.L285
1366:.\main.c      ****                     rf_mod[21]= '0';								    //Id Estación
 5802              		.loc 1 1366 0
 5803 14a2 854B     		ldr	r3, .L667+4
 5804 14a4 3022     		movs	r2, #48
 5805 14a6 5A75     		strb	r2, [r3, #21]
1367:.\main.c      ****     			    rf_mod[22]= '0';
 5806              		.loc 1 1367 0
 5807 14a8 834B     		ldr	r3, .L667+4
 5808 14aa 3022     		movs	r2, #48
 5809 14ac 9A75     		strb	r2, [r3, #22]
1368:.\main.c      ****     			    rf_mod[23]= '0';
 5810              		.loc 1 1368 0
 5811 14ae 824B     		ldr	r3, .L667+4
 5812 14b0 3022     		movs	r2, #48
 5813 14b2 DA75     		strb	r2, [r3, #23]
1369:.\main.c      ****     			    rf_mod[24]= '0';  
 5814              		.loc 1 1369 0
 5815 14b4 804B     		ldr	r3, .L667+4
 5816 14b6 3022     		movs	r2, #48
 5817 14b8 1A76     		strb	r2, [r3, #24]
 5818              	.L285:
1370:.\main.c      ****                 } 
1371:.\main.c      ****                 
1372:.\main.c      ****                 if(ppux10==0){
 5819              		.loc 1 1372 0
 5820 14ba 834B     		ldr	r3, .L667+20
 5821 14bc 1B78     		ldrb	r3, [r3]
 5822 14be DBB2     		uxtb	r3, r3
 5823 14c0 002B     		cmp	r3, #0
 5824 14c2 59D1     		bne	.L286
1373:.\main.c      ****         			rf_mod[25]=(lado1.ppu[rventa1.manguera-1][4]&0x0F)+0x30;		//PPU
 5825              		.loc 1 1373 0
 5826 14c4 7B4B     		ldr	r3, .L667
 5827 14c6 9B7E     		ldrb	r3, [r3, #26]	@ zero_extendqisi2
 5828 14c8 5A1E     		subs	r2, r3, #1
 5829 14ca 7C49     		ldr	r1, .L667+8
 5830 14cc 1346     		mov	r3, r2
 5831 14ce 9B00     		lsls	r3, r3, #2
 5832 14d0 1344     		add	r3, r3, r2
 5833 14d2 0B44     		add	r3, r3, r1
 5834 14d4 4C33     		adds	r3, r3, #76
 5835 14d6 9B78     		ldrb	r3, [r3, #2]
 5836 14d8 DBB2     		uxtb	r3, r3
 5837 14da 03F00F03 		and	r3, r3, #15
 5838 14de DBB2     		uxtb	r3, r3
 5839 14e0 3033     		adds	r3, r3, #48
 5840 14e2 DAB2     		uxtb	r2, r3
 5841 14e4 744B     		ldr	r3, .L667+4
 5842 14e6 5A76     		strb	r2, [r3, #25]
ARM GAS  C:\Users\RECEPC~1\AppData\Local\Temp\ccU7e2eq.s 			page 131


1374:.\main.c      ****         			rf_mod[26]=(lado1.ppu[rventa1.manguera-1][3]&0x0F)+0x30;
 5843              		.loc 1 1374 0
 5844 14e8 724B     		ldr	r3, .L667
 5845 14ea 9B7E     		ldrb	r3, [r3, #26]	@ zero_extendqisi2
 5846 14ec 5A1E     		subs	r2, r3, #1
 5847 14ee 7349     		ldr	r1, .L667+8
 5848 14f0 1346     		mov	r3, r2
 5849 14f2 9B00     		lsls	r3, r3, #2
 5850 14f4 1344     		add	r3, r3, r2
 5851 14f6 0B44     		add	r3, r3, r1
 5852 14f8 4B33     		adds	r3, r3, #75
 5853 14fa 9B78     		ldrb	r3, [r3, #2]
 5854 14fc DBB2     		uxtb	r3, r3
 5855 14fe 03F00F03 		and	r3, r3, #15
 5856 1502 DBB2     		uxtb	r3, r3
 5857 1504 3033     		adds	r3, r3, #48
 5858 1506 DAB2     		uxtb	r2, r3
 5859 1508 6B4B     		ldr	r3, .L667+4
 5860 150a 9A76     		strb	r2, [r3, #26]
1375:.\main.c      ****         			rf_mod[27]=(lado1.ppu[rventa1.manguera-1][2]&0x0F)+0x30;
 5861              		.loc 1 1375 0
 5862 150c 694B     		ldr	r3, .L667
 5863 150e 9B7E     		ldrb	r3, [r3, #26]	@ zero_extendqisi2
 5864 1510 5A1E     		subs	r2, r3, #1
 5865 1512 6A49     		ldr	r1, .L667+8
 5866 1514 1346     		mov	r3, r2
 5867 1516 9B00     		lsls	r3, r3, #2
 5868 1518 1344     		add	r3, r3, r2
 5869 151a 0B44     		add	r3, r3, r1
 5870 151c 4A33     		adds	r3, r3, #74
 5871 151e 9B78     		ldrb	r3, [r3, #2]
 5872 1520 DBB2     		uxtb	r3, r3
 5873 1522 03F00F03 		and	r3, r3, #15
 5874 1526 DBB2     		uxtb	r3, r3
 5875 1528 3033     		adds	r3, r3, #48
 5876 152a DAB2     		uxtb	r2, r3
 5877 152c 624B     		ldr	r3, .L667+4
 5878 152e DA76     		strb	r2, [r3, #27]
1376:.\main.c      ****         			rf_mod[28]=(lado1.ppu[rventa1.manguera-1][1]&0x0F)+0x30;
 5879              		.loc 1 1376 0
 5880 1530 604B     		ldr	r3, .L667
 5881 1532 9B7E     		ldrb	r3, [r3, #26]	@ zero_extendqisi2
 5882 1534 5A1E     		subs	r2, r3, #1
 5883 1536 6149     		ldr	r1, .L667+8
 5884 1538 1346     		mov	r3, r2
 5885 153a 9B00     		lsls	r3, r3, #2
 5886 153c 1344     		add	r3, r3, r2
 5887 153e 0B44     		add	r3, r3, r1
 5888 1540 4933     		adds	r3, r3, #73
 5889 1542 9B78     		ldrb	r3, [r3, #2]
 5890 1544 DBB2     		uxtb	r3, r3
 5891 1546 03F00F03 		and	r3, r3, #15
 5892 154a DBB2     		uxtb	r3, r3
 5893 154c 3033     		adds	r3, r3, #48
 5894 154e DAB2     		uxtb	r2, r3
 5895 1550 594B     		ldr	r3, .L667+4
 5896 1552 1A77     		strb	r2, [r3, #28]
ARM GAS  C:\Users\RECEPC~1\AppData\Local\Temp\ccU7e2eq.s 			page 132


1377:.\main.c      ****         			rf_mod[29]=(lado1.ppu[rventa1.manguera-1][0]&0x0F)+0x30;
 5897              		.loc 1 1377 0
 5898 1554 574B     		ldr	r3, .L667
 5899 1556 9B7E     		ldrb	r3, [r3, #26]	@ zero_extendqisi2
 5900 1558 5A1E     		subs	r2, r3, #1
 5901 155a 5849     		ldr	r1, .L667+8
 5902 155c 1346     		mov	r3, r2
 5903 155e 9B00     		lsls	r3, r3, #2
 5904 1560 1344     		add	r3, r3, r2
 5905 1562 0B44     		add	r3, r3, r1
 5906 1564 4833     		adds	r3, r3, #72
 5907 1566 9B78     		ldrb	r3, [r3, #2]
 5908 1568 DBB2     		uxtb	r3, r3
 5909 156a 03F00F03 		and	r3, r3, #15
 5910 156e DBB2     		uxtb	r3, r3
 5911 1570 3033     		adds	r3, r3, #48
 5912 1572 DAB2     		uxtb	r2, r3
 5913 1574 504B     		ldr	r3, .L667+4
 5914 1576 5A77     		strb	r2, [r3, #29]
 5915              	.L286:
1378:.\main.c      ****                 }
1379:.\main.c      ****                 if(ppux10==1){
 5916              		.loc 1 1379 0
 5917 1578 534B     		ldr	r3, .L667+20
 5918 157a 1B78     		ldrb	r3, [r3]
 5919 157c DBB2     		uxtb	r3, r3
 5920 157e 012B     		cmp	r3, #1
 5921 1580 4AD1     		bne	.L287
1380:.\main.c      ****         			rf_mod[25]=(lado1.ppu[rventa1.manguera-1][3]&0x0F)+0x30;		//PPUx10
 5922              		.loc 1 1380 0
 5923 1582 4C4B     		ldr	r3, .L667
 5924 1584 9B7E     		ldrb	r3, [r3, #26]	@ zero_extendqisi2
 5925 1586 5A1E     		subs	r2, r3, #1
 5926 1588 4C49     		ldr	r1, .L667+8
 5927 158a 1346     		mov	r3, r2
 5928 158c 9B00     		lsls	r3, r3, #2
 5929 158e 1344     		add	r3, r3, r2
 5930 1590 0B44     		add	r3, r3, r1
 5931 1592 4B33     		adds	r3, r3, #75
 5932 1594 9B78     		ldrb	r3, [r3, #2]
 5933 1596 DBB2     		uxtb	r3, r3
 5934 1598 03F00F03 		and	r3, r3, #15
 5935 159c DBB2     		uxtb	r3, r3
 5936 159e 3033     		adds	r3, r3, #48
 5937 15a0 DAB2     		uxtb	r2, r3
 5938 15a2 454B     		ldr	r3, .L667+4
 5939 15a4 5A76     		strb	r2, [r3, #25]
1381:.\main.c      ****         			rf_mod[26]=(lado1.ppu[rventa1.manguera-1][2]&0x0F)+0x30;
 5940              		.loc 1 1381 0
 5941 15a6 434B     		ldr	r3, .L667
 5942 15a8 9B7E     		ldrb	r3, [r3, #26]	@ zero_extendqisi2
 5943 15aa 5A1E     		subs	r2, r3, #1
 5944 15ac 4349     		ldr	r1, .L667+8
 5945 15ae 1346     		mov	r3, r2
 5946 15b0 9B00     		lsls	r3, r3, #2
 5947 15b2 1344     		add	r3, r3, r2
 5948 15b4 0B44     		add	r3, r3, r1
ARM GAS  C:\Users\RECEPC~1\AppData\Local\Temp\ccU7e2eq.s 			page 133


 5949 15b6 4A33     		adds	r3, r3, #74
 5950 15b8 9B78     		ldrb	r3, [r3, #2]
 5951 15ba DBB2     		uxtb	r3, r3
 5952 15bc 03F00F03 		and	r3, r3, #15
 5953 15c0 DBB2     		uxtb	r3, r3
 5954 15c2 3033     		adds	r3, r3, #48
 5955 15c4 DAB2     		uxtb	r2, r3
 5956 15c6 3C4B     		ldr	r3, .L667+4
 5957 15c8 9A76     		strb	r2, [r3, #26]
1382:.\main.c      ****         			rf_mod[27]=(lado1.ppu[rventa1.manguera-1][1]&0x0F)+0x30;
 5958              		.loc 1 1382 0
 5959 15ca 3A4B     		ldr	r3, .L667
 5960 15cc 9B7E     		ldrb	r3, [r3, #26]	@ zero_extendqisi2
 5961 15ce 5A1E     		subs	r2, r3, #1
 5962 15d0 3A49     		ldr	r1, .L667+8
 5963 15d2 1346     		mov	r3, r2
 5964 15d4 9B00     		lsls	r3, r3, #2
 5965 15d6 1344     		add	r3, r3, r2
 5966 15d8 0B44     		add	r3, r3, r1
 5967 15da 4933     		adds	r3, r3, #73
 5968 15dc 9B78     		ldrb	r3, [r3, #2]
 5969 15de DBB2     		uxtb	r3, r3
 5970 15e0 03F00F03 		and	r3, r3, #15
 5971 15e4 DBB2     		uxtb	r3, r3
 5972 15e6 3033     		adds	r3, r3, #48
 5973 15e8 DAB2     		uxtb	r2, r3
 5974 15ea 334B     		ldr	r3, .L667+4
 5975 15ec DA76     		strb	r2, [r3, #27]
1383:.\main.c      ****         			rf_mod[28]=(lado1.ppu[rventa1.manguera-1][0]&0x0F)+0x30;
 5976              		.loc 1 1383 0
 5977 15ee 314B     		ldr	r3, .L667
 5978 15f0 9B7E     		ldrb	r3, [r3, #26]	@ zero_extendqisi2
 5979 15f2 5A1E     		subs	r2, r3, #1
 5980 15f4 3149     		ldr	r1, .L667+8
 5981 15f6 1346     		mov	r3, r2
 5982 15f8 9B00     		lsls	r3, r3, #2
 5983 15fa 1344     		add	r3, r3, r2
 5984 15fc 0B44     		add	r3, r3, r1
 5985 15fe 4833     		adds	r3, r3, #72
 5986 1600 9B78     		ldrb	r3, [r3, #2]
 5987 1602 DBB2     		uxtb	r3, r3
 5988 1604 03F00F03 		and	r3, r3, #15
 5989 1608 DBB2     		uxtb	r3, r3
 5990 160a 3033     		adds	r3, r3, #48
 5991 160c DAB2     		uxtb	r2, r3
 5992 160e 2A4B     		ldr	r3, .L667+4
 5993 1610 1A77     		strb	r2, [r3, #28]
1384:.\main.c      ****         			rf_mod[29]=0x30;   
 5994              		.loc 1 1384 0
 5995 1612 294B     		ldr	r3, .L667+4
 5996 1614 3022     		movs	r2, #48
 5997 1616 5A77     		strb	r2, [r3, #29]
 5998              	.L287:
1385:.\main.c      ****                 }
1386:.\main.c      ****     			rf_mod[30]=(rventa1.preset[0]+48);								//Tipo de Preset
 5999              		.loc 1 1386 0
 6000 1618 264B     		ldr	r3, .L667
ARM GAS  C:\Users\RECEPC~1\AppData\Local\Temp\ccU7e2eq.s 			page 134


 6001 161a DB7E     		ldrb	r3, [r3, #27]	@ zero_extendqisi2
 6002 161c 3033     		adds	r3, r3, #48
 6003 161e DAB2     		uxtb	r2, r3
 6004 1620 254B     		ldr	r3, .L667+4
 6005 1622 9A77     		strb	r2, [r3, #30]
1387:.\main.c      ****     			rf_mod[31]=rventa1.preset[7];									//Preset
 6006              		.loc 1 1387 0
 6007 1624 234B     		ldr	r3, .L667
 6008 1626 93F82220 		ldrb	r2, [r3, #34]	@ zero_extendqisi2
 6009 162a 234B     		ldr	r3, .L667+4
 6010 162c DA77     		strb	r2, [r3, #31]
1388:.\main.c      ****     			if(rventa1.preset[7]<10){				
 6011              		.loc 1 1388 0
 6012 162e 214B     		ldr	r3, .L667
 6013 1630 93F82230 		ldrb	r3, [r3, #34]	@ zero_extendqisi2
 6014 1634 092B     		cmp	r3, #9
 6015 1636 06D8     		bhi	.L288
1389:.\main.c      ****     				rf_mod[31]=rventa1.preset[7]+0x30;							
 6016              		.loc 1 1389 0
 6017 1638 1E4B     		ldr	r3, .L667
 6018 163a 93F82230 		ldrb	r3, [r3, #34]	@ zero_extendqisi2
 6019 163e 3033     		adds	r3, r3, #48
 6020 1640 DAB2     		uxtb	r2, r3
 6021 1642 1D4B     		ldr	r3, .L667+4
 6022 1644 DA77     		strb	r2, [r3, #31]
 6023              	.L288:
1390:.\main.c      ****     			}
1391:.\main.c      ****     			rf_mod[32]=rventa1.preset[6];
 6024              		.loc 1 1391 0
 6025 1646 1B4B     		ldr	r3, .L667
 6026 1648 93F82120 		ldrb	r2, [r3, #33]	@ zero_extendqisi2
 6027 164c 1A4B     		ldr	r3, .L667+4
 6028 164e 83F82020 		strb	r2, [r3, #32]
1392:.\main.c      ****     			if(rventa1.preset[6]<10){				
 6029              		.loc 1 1392 0
 6030 1652 184B     		ldr	r3, .L667
 6031 1654 93F82130 		ldrb	r3, [r3, #33]	@ zero_extendqisi2
 6032 1658 092B     		cmp	r3, #9
 6033 165a 07D8     		bhi	.L289
1393:.\main.c      ****     				rf_mod[32]=rventa1.preset[6]+0x30;
 6034              		.loc 1 1393 0
 6035 165c 154B     		ldr	r3, .L667
 6036 165e 93F82130 		ldrb	r3, [r3, #33]	@ zero_extendqisi2
 6037 1662 3033     		adds	r3, r3, #48
 6038 1664 DAB2     		uxtb	r2, r3
 6039 1666 144B     		ldr	r3, .L667+4
 6040 1668 83F82020 		strb	r2, [r3, #32]
 6041              	.L289:
1394:.\main.c      ****     			}
1395:.\main.c      ****     			rf_mod[33]=rventa1.preset[5];
 6042              		.loc 1 1395 0
 6043 166c 114B     		ldr	r3, .L667
 6044 166e 93F82020 		ldrb	r2, [r3, #32]	@ zero_extendqisi2
 6045 1672 114B     		ldr	r3, .L667+4
 6046 1674 83F82120 		strb	r2, [r3, #33]
1396:.\main.c      ****     			if(rventa1.preset[5]<10){				
 6047              		.loc 1 1396 0
ARM GAS  C:\Users\RECEPC~1\AppData\Local\Temp\ccU7e2eq.s 			page 135


 6048 1678 0E4B     		ldr	r3, .L667
 6049 167a 93F82030 		ldrb	r3, [r3, #32]	@ zero_extendqisi2
 6050 167e 092B     		cmp	r3, #9
 6051 1680 07D8     		bhi	.L290
1397:.\main.c      ****     				rf_mod[33]=rventa1.preset[5]+0x30;
 6052              		.loc 1 1397 0
 6053 1682 0C4B     		ldr	r3, .L667
 6054 1684 93F82030 		ldrb	r3, [r3, #32]	@ zero_extendqisi2
 6055 1688 3033     		adds	r3, r3, #48
 6056 168a DAB2     		uxtb	r2, r3
 6057 168c 0A4B     		ldr	r3, .L667+4
 6058 168e 83F82120 		strb	r2, [r3, #33]
 6059              	.L290:
1398:.\main.c      ****     			}
1399:.\main.c      ****     			rf_mod[34]=rventa1.preset[4];
 6060              		.loc 1 1399 0
 6061 1692 084B     		ldr	r3, .L667
 6062 1694 DA7F     		ldrb	r2, [r3, #31]	@ zero_extendqisi2
 6063 1696 084B     		ldr	r3, .L667+4
 6064 1698 83F82220 		strb	r2, [r3, #34]
1400:.\main.c      ****     			if(rventa1.preset[4]<10){				
 6065              		.loc 1 1400 0
 6066 169c 054B     		ldr	r3, .L667
 6067 169e DB7F     		ldrb	r3, [r3, #31]	@ zero_extendqisi2
 6068 16a0 092B     		cmp	r3, #9
 6069 16a2 13D8     		bhi	.L291
1401:.\main.c      ****     				rf_mod[34]=rventa1.preset[4]+0x30;
 6070              		.loc 1 1401 0
 6071 16a4 034B     		ldr	r3, .L667
 6072 16a6 DB7F     		ldrb	r3, [r3, #31]	@ zero_extendqisi2
 6073 16a8 3033     		adds	r3, r3, #48
 6074 16aa DAB2     		uxtb	r2, r3
 6075 16ac 024B     		ldr	r3, .L667+4
 6076 16ae 83F82220 		strb	r2, [r3, #34]
 6077 16b2 0BE0     		b	.L668
 6078              	.L669:
 6079              		.align	2
 6080              	.L667:
 6081 16b4 00000000 		.word	rventa1
 6082 16b8 00000000 		.word	rf_mod
 6083 16bc 00000000 		.word	lado1
 6084 16c0 00000000 		.word	tipo_venta
 6085 16c4 00000000 		.word	id_estacion
 6086 16c8 00000000 		.word	ppux10
 6087              	.L668:
 6088              	.L291:
1402:.\main.c      ****     			}
1403:.\main.c      ****     			rf_mod[35]=rventa1.preset[3];
 6089              		.loc 1 1403 0
 6090 16cc 514B     		ldr	r3, .L670
 6091 16ce 9A7F     		ldrb	r2, [r3, #30]	@ zero_extendqisi2
 6092 16d0 514B     		ldr	r3, .L670+4
 6093 16d2 83F82320 		strb	r2, [r3, #35]
1404:.\main.c      ****     			if(rventa1.preset[3]<10){				
 6094              		.loc 1 1404 0
 6095 16d6 4F4B     		ldr	r3, .L670
 6096 16d8 9B7F     		ldrb	r3, [r3, #30]	@ zero_extendqisi2
ARM GAS  C:\Users\RECEPC~1\AppData\Local\Temp\ccU7e2eq.s 			page 136


 6097 16da 092B     		cmp	r3, #9
 6098 16dc 06D8     		bhi	.L292
1405:.\main.c      ****     				rf_mod[35]=rventa1.preset[3]+0x30;
 6099              		.loc 1 1405 0
 6100 16de 4D4B     		ldr	r3, .L670
 6101 16e0 9B7F     		ldrb	r3, [r3, #30]	@ zero_extendqisi2
 6102 16e2 3033     		adds	r3, r3, #48
 6103 16e4 DAB2     		uxtb	r2, r3
 6104 16e6 4C4B     		ldr	r3, .L670+4
 6105 16e8 83F82320 		strb	r2, [r3, #35]
 6106              	.L292:
1406:.\main.c      ****     			}
1407:.\main.c      ****     			rf_mod[36]=rventa1.preset[2];
 6107              		.loc 1 1407 0
 6108 16ec 494B     		ldr	r3, .L670
 6109 16ee 5A7F     		ldrb	r2, [r3, #29]	@ zero_extendqisi2
 6110 16f0 494B     		ldr	r3, .L670+4
 6111 16f2 83F82420 		strb	r2, [r3, #36]
1408:.\main.c      ****     			if(rventa1.preset[2]<10){				
 6112              		.loc 1 1408 0
 6113 16f6 474B     		ldr	r3, .L670
 6114 16f8 5B7F     		ldrb	r3, [r3, #29]	@ zero_extendqisi2
 6115 16fa 092B     		cmp	r3, #9
 6116 16fc 06D8     		bhi	.L293
1409:.\main.c      ****     				rf_mod[36]=rventa1.preset[2]+0x30;
 6117              		.loc 1 1409 0
 6118 16fe 454B     		ldr	r3, .L670
 6119 1700 5B7F     		ldrb	r3, [r3, #29]	@ zero_extendqisi2
 6120 1702 3033     		adds	r3, r3, #48
 6121 1704 DAB2     		uxtb	r2, r3
 6122 1706 444B     		ldr	r3, .L670+4
 6123 1708 83F82420 		strb	r2, [r3, #36]
 6124              	.L293:
1410:.\main.c      ****     			}
1411:.\main.c      ****     			rf_mod[37]=rventa1.preset[1];
 6125              		.loc 1 1411 0
 6126 170c 414B     		ldr	r3, .L670
 6127 170e 1A7F     		ldrb	r2, [r3, #28]	@ zero_extendqisi2
 6128 1710 414B     		ldr	r3, .L670+4
 6129 1712 83F82520 		strb	r2, [r3, #37]
1412:.\main.c      ****     			if(rventa1.preset[1]<10){				
 6130              		.loc 1 1412 0
 6131 1716 3F4B     		ldr	r3, .L670
 6132 1718 1B7F     		ldrb	r3, [r3, #28]	@ zero_extendqisi2
 6133 171a 092B     		cmp	r3, #9
 6134 171c 06D8     		bhi	.L294
1413:.\main.c      ****     				rf_mod[37]=rventa1.preset[1]+0x30;
 6135              		.loc 1 1413 0
 6136 171e 3D4B     		ldr	r3, .L670
 6137 1720 1B7F     		ldrb	r3, [r3, #28]	@ zero_extendqisi2
 6138 1722 3033     		adds	r3, r3, #48
 6139 1724 DAB2     		uxtb	r2, r3
 6140 1726 3C4B     		ldr	r3, .L670+4
 6141 1728 83F82520 		strb	r2, [r3, #37]
 6142              	.L294:
1414:.\main.c      ****     			}
1415:.\main.c      ****     			for(x=0;x<=6;x++){
ARM GAS  C:\Users\RECEPC~1\AppData\Local\Temp\ccU7e2eq.s 			page 137


 6143              		.loc 1 1415 0
 6144 172c 0023     		movs	r3, #0
 6145 172e 87F82F30 		strb	r3, [r7, #47]
 6146 1732 12E0     		b	.L295
 6147              	.L296:
1416:.\main.c      ****     				rf_mod[38+x]=rventa1.km[x+1] + 48;
 6148              		.loc 1 1416 0 discriminator 3
 6149 1734 97F82F30 		ldrb	r3, [r7, #47]	@ zero_extendqisi2
 6150 1738 2633     		adds	r3, r3, #38
 6151 173a 97F82F20 		ldrb	r2, [r7, #47]	@ zero_extendqisi2
 6152 173e 0132     		adds	r2, r2, #1
 6153 1740 3449     		ldr	r1, .L670
 6154 1742 0A44     		add	r2, r2, r1
 6155 1744 92F84320 		ldrb	r2, [r2, #67]	@ zero_extendqisi2
 6156 1748 3032     		adds	r2, r2, #48
 6157 174a D1B2     		uxtb	r1, r2
 6158 174c 324A     		ldr	r2, .L670+4
 6159 174e D154     		strb	r1, [r2, r3]
1415:.\main.c      ****     				rf_mod[38+x]=rventa1.km[x+1] + 48;
 6160              		.loc 1 1415 0 discriminator 3
 6161 1750 97F82F30 		ldrb	r3, [r7, #47]	@ zero_extendqisi2
 6162 1754 0133     		adds	r3, r3, #1
 6163 1756 87F82F30 		strb	r3, [r7, #47]
 6164              	.L295:
1415:.\main.c      ****     				rf_mod[38+x]=rventa1.km[x+1] + 48;
 6165              		.loc 1 1415 0 is_stmt 0 discriminator 1
 6166 175a 97F82F30 		ldrb	r3, [r7, #47]	@ zero_extendqisi2
 6167 175e 062B     		cmp	r3, #6
 6168 1760 E8D9     		bls	.L296
1417:.\main.c      ****     			}
1418:.\main.c      ****                 rf_mod[45]=0x31;
 6169              		.loc 1 1418 0 is_stmt 1
 6170 1762 2D4B     		ldr	r3, .L670+4
 6171 1764 3122     		movs	r2, #49
 6172 1766 83F82D20 		strb	r2, [r3, #45]
 6173              	.L273:
1419:.\main.c      ****             }
1420:.\main.c      ****             
1421:.\main.c      ****             if(seleccion_pos == 2){
 6174              		.loc 1 1421 0
 6175 176a 2C4B     		ldr	r3, .L670+8
 6176 176c 1B78     		ldrb	r3, [r3]
 6177 176e DBB2     		uxtb	r3, r3
 6178 1770 022B     		cmp	r3, #2
 6179 1772 40F02882 		bne	.L297
1422:.\main.c      ****                 if (tipo_venta == 1){
 6180              		.loc 1 1422 0
 6181 1776 2A4B     		ldr	r3, .L670+12
 6182 1778 1B78     		ldrb	r3, [r3]	@ zero_extendqisi2
 6183 177a 012B     		cmp	r3, #1
 6184 177c 42D1     		bne	.L298
1423:.\main.c      ****     			    for(x=0;x<=15;x++){						//Serial				
 6185              		.loc 1 1423 0
 6186 177e 0023     		movs	r3, #0
 6187 1780 87F82F30 		strb	r3, [r7, #47]
 6188 1784 3AE0     		b	.L299
 6189              	.L302:
ARM GAS  C:\Users\RECEPC~1\AppData\Local\Temp\ccU7e2eq.s 			page 138


1424:.\main.c      ****     				    y=(rventa2.id[x/2]>>4)&0x0F;
 6190              		.loc 1 1424 0
 6191 1786 97F82F30 		ldrb	r3, [r7, #47]	@ zero_extendqisi2
 6192 178a 5B08     		lsrs	r3, r3, #1
 6193 178c DBB2     		uxtb	r3, r3
 6194 178e 1A46     		mov	r2, r3
 6195 1790 244B     		ldr	r3, .L670+16
 6196 1792 1344     		add	r3, r3, r2
 6197 1794 93F82330 		ldrb	r3, [r3, #35]	@ zero_extendqisi2
 6198 1798 1B09     		lsrs	r3, r3, #4
 6199 179a 87F82E30 		strb	r3, [r7, #46]
1425:.\main.c      ****     				    if((x%2)==0){
 6200              		.loc 1 1425 0
 6201 179e 97F82F30 		ldrb	r3, [r7, #47]
 6202 17a2 03F00103 		and	r3, r3, #1
 6203 17a6 DBB2     		uxtb	r3, r3
 6204 17a8 002B     		cmp	r3, #0
 6205 17aa 0CD1     		bne	.L300
1426:.\main.c      ****     					    y=rventa2.id[x/2]&0x0F;
 6206              		.loc 1 1426 0
 6207 17ac 97F82F30 		ldrb	r3, [r7, #47]	@ zero_extendqisi2
 6208 17b0 5B08     		lsrs	r3, r3, #1
 6209 17b2 DBB2     		uxtb	r3, r3
 6210 17b4 1A46     		mov	r2, r3
 6211 17b6 1B4B     		ldr	r3, .L670+16
 6212 17b8 1344     		add	r3, r3, r2
 6213 17ba 93F82330 		ldrb	r3, [r3, #35]	@ zero_extendqisi2
 6214 17be 03F00F03 		and	r3, r3, #15
 6215 17c2 87F82E30 		strb	r3, [r7, #46]
 6216              	.L300:
1427:.\main.c      ****     				    }
1428:.\main.c      ****     				    rf_mod[x+4] = y+48;
 6217              		.loc 1 1428 0
 6218 17c6 97F82F30 		ldrb	r3, [r7, #47]	@ zero_extendqisi2
 6219 17ca 0433     		adds	r3, r3, #4
 6220 17cc 97F82E20 		ldrb	r2, [r7, #46]
 6221 17d0 3032     		adds	r2, r2, #48
 6222 17d2 D1B2     		uxtb	r1, r2
 6223 17d4 104A     		ldr	r2, .L670+4
 6224 17d6 D154     		strb	r1, [r2, r3]
1429:.\main.c      ****     				    if(y>9){
 6225              		.loc 1 1429 0
 6226 17d8 97F82E30 		ldrb	r3, [r7, #46]	@ zero_extendqisi2
 6227 17dc 092B     		cmp	r3, #9
 6228 17de 08D9     		bls	.L301
1430:.\main.c      ****     					    rf_mod[x+4] = y+55;
 6229              		.loc 1 1430 0
 6230 17e0 97F82F30 		ldrb	r3, [r7, #47]	@ zero_extendqisi2
 6231 17e4 0433     		adds	r3, r3, #4
 6232 17e6 97F82E20 		ldrb	r2, [r7, #46]
 6233 17ea 3732     		adds	r2, r2, #55
 6234 17ec D1B2     		uxtb	r1, r2
 6235 17ee 0A4A     		ldr	r2, .L670+4
 6236 17f0 D154     		strb	r1, [r2, r3]
 6237              	.L301:
1423:.\main.c      ****     				    y=(rventa2.id[x/2]>>4)&0x0F;
 6238              		.loc 1 1423 0 discriminator 2
ARM GAS  C:\Users\RECEPC~1\AppData\Local\Temp\ccU7e2eq.s 			page 139


 6239 17f2 97F82F30 		ldrb	r3, [r7, #47]	@ zero_extendqisi2
 6240 17f6 0133     		adds	r3, r3, #1
 6241 17f8 87F82F30 		strb	r3, [r7, #47]
 6242              	.L299:
1423:.\main.c      ****     				    y=(rventa2.id[x/2]>>4)&0x0F;
 6243              		.loc 1 1423 0 is_stmt 0 discriminator 1
 6244 17fc 97F82F30 		ldrb	r3, [r7, #47]	@ zero_extendqisi2
 6245 1800 0F2B     		cmp	r3, #15
 6246 1802 C0D9     		bls	.L302
 6247              	.L298:
1431:.\main.c      ****     				    }
1432:.\main.c      ****     			    }                
1433:.\main.c      ****                 }
1434:.\main.c      ****                 if(tipo_venta == 0){
 6248              		.loc 1 1434 0 is_stmt 1
 6249 1804 064B     		ldr	r3, .L670+12
 6250 1806 1B78     		ldrb	r3, [r3]	@ zero_extendqisi2
 6251 1808 002B     		cmp	r3, #0
 6252 180a 4CD1     		bne	.L303
1435:.\main.c      ****                     for(x=0;x<=15;x++){						//Serial				
 6253              		.loc 1 1435 0
 6254 180c 0023     		movs	r3, #0
 6255 180e 87F82F30 		strb	r3, [r7, #47]
 6256 1812 44E0     		b	.L304
 6257              	.L671:
 6258              		.align	2
 6259              	.L670:
 6260 1814 00000000 		.word	rventa1
 6261 1818 00000000 		.word	rf_mod
 6262 181c 00000000 		.word	seleccion_pos
 6263 1820 00000000 		.word	tipo_venta
 6264 1824 00000000 		.word	rventa2
 6265              	.L307:
1436:.\main.c      ****     				    y=(rventa2.id[x/2]>>4)&0x0F;
 6266              		.loc 1 1436 0
 6267 1828 97F82F30 		ldrb	r3, [r7, #47]	@ zero_extendqisi2
 6268 182c 5B08     		lsrs	r3, r3, #1
 6269 182e DBB2     		uxtb	r3, r3
 6270 1830 1A46     		mov	r2, r3
 6271 1832 B54B     		ldr	r3, .L672
 6272 1834 1344     		add	r3, r3, r2
 6273 1836 93F82330 		ldrb	r3, [r3, #35]	@ zero_extendqisi2
 6274 183a 1B09     		lsrs	r3, r3, #4
 6275 183c 87F82E30 		strb	r3, [r7, #46]
1437:.\main.c      ****     				    if((x%2)==0){
 6276              		.loc 1 1437 0
 6277 1840 97F82F30 		ldrb	r3, [r7, #47]
 6278 1844 03F00103 		and	r3, r3, #1
 6279 1848 DBB2     		uxtb	r3, r3
 6280 184a 002B     		cmp	r3, #0
 6281 184c 0CD1     		bne	.L305
1438:.\main.c      ****     					    y=rventa2.id[x/2]&0x0F;
 6282              		.loc 1 1438 0
 6283 184e 97F82F30 		ldrb	r3, [r7, #47]	@ zero_extendqisi2
 6284 1852 5B08     		lsrs	r3, r3, #1
 6285 1854 DBB2     		uxtb	r3, r3
 6286 1856 1A46     		mov	r2, r3
ARM GAS  C:\Users\RECEPC~1\AppData\Local\Temp\ccU7e2eq.s 			page 140


 6287 1858 AB4B     		ldr	r3, .L672
 6288 185a 1344     		add	r3, r3, r2
 6289 185c 93F82330 		ldrb	r3, [r3, #35]	@ zero_extendqisi2
 6290 1860 03F00F03 		and	r3, r3, #15
 6291 1864 87F82E30 		strb	r3, [r7, #46]
 6292              	.L305:
1439:.\main.c      ****     				    }
1440:.\main.c      ****     				    rf_mod[x+4] = y+48;
 6293              		.loc 1 1440 0
 6294 1868 97F82F30 		ldrb	r3, [r7, #47]	@ zero_extendqisi2
 6295 186c 0433     		adds	r3, r3, #4
 6296 186e 97F82E20 		ldrb	r2, [r7, #46]
 6297 1872 3032     		adds	r2, r2, #48
 6298 1874 D1B2     		uxtb	r1, r2
 6299 1876 A54A     		ldr	r2, .L672+4
 6300 1878 D154     		strb	r1, [r2, r3]
1441:.\main.c      ****     				    if(y>9){
 6301              		.loc 1 1441 0
 6302 187a 97F82E30 		ldrb	r3, [r7, #46]	@ zero_extendqisi2
 6303 187e 092B     		cmp	r3, #9
 6304 1880 08D9     		bls	.L306
1442:.\main.c      ****     					    rf_mod[x+4] = y+55;
 6305              		.loc 1 1442 0
 6306 1882 97F82F30 		ldrb	r3, [r7, #47]	@ zero_extendqisi2
 6307 1886 0433     		adds	r3, r3, #4
 6308 1888 97F82E20 		ldrb	r2, [r7, #46]
 6309 188c 3732     		adds	r2, r2, #55
 6310 188e D1B2     		uxtb	r1, r2
 6311 1890 9E4A     		ldr	r2, .L672+4
 6312 1892 D154     		strb	r1, [r2, r3]
 6313              	.L306:
1435:.\main.c      ****     				    y=(rventa2.id[x/2]>>4)&0x0F;
 6314              		.loc 1 1435 0 discriminator 2
 6315 1894 97F82F30 		ldrb	r3, [r7, #47]	@ zero_extendqisi2
 6316 1898 0133     		adds	r3, r3, #1
 6317 189a 87F82F30 		strb	r3, [r7, #47]
 6318              	.L304:
1435:.\main.c      ****     				    y=(rventa2.id[x/2]>>4)&0x0F;
 6319              		.loc 1 1435 0 is_stmt 0 discriminator 1
 6320 189e 97F82F30 		ldrb	r3, [r7, #47]	@ zero_extendqisi2
 6321 18a2 0F2B     		cmp	r3, #15
 6322 18a4 C0D9     		bls	.L307
 6323              	.L303:
1443:.\main.c      ****     				    }
1444:.\main.c      ****     			    }
1445:.\main.c      ****                 }
1446:.\main.c      ****     			rf_mod[20]=(lado2.grado[rventa2.manguera-1][0])+48;			//Id Producto
 6324              		.loc 1 1446 0 is_stmt 1
 6325 18a6 984B     		ldr	r3, .L672
 6326 18a8 9B7E     		ldrb	r3, [r3, #26]	@ zero_extendqisi2
 6327 18aa 013B     		subs	r3, r3, #1
 6328 18ac 984A     		ldr	r2, .L672+8
 6329 18ae 1344     		add	r3, r3, r2
 6330 18b0 93F85930 		ldrb	r3, [r3, #89]
 6331 18b4 DBB2     		uxtb	r3, r3
 6332 18b6 3033     		adds	r3, r3, #48
 6333 18b8 DAB2     		uxtb	r2, r3
ARM GAS  C:\Users\RECEPC~1\AppData\Local\Temp\ccU7e2eq.s 			page 141


 6334 18ba 944B     		ldr	r3, .L672+4
 6335 18bc 1A75     		strb	r2, [r3, #20]
1447:.\main.c      ****                 if(tipo_venta == 0){
 6336              		.loc 1 1447 0
 6337 18be 954B     		ldr	r3, .L672+12
 6338 18c0 1B78     		ldrb	r3, [r3]	@ zero_extendqisi2
 6339 18c2 002B     		cmp	r3, #0
 6340 18c4 13D1     		bne	.L308
1448:.\main.c      ****                     rf_mod[21]= id_estacion[4];								    //Id vehiculo
 6341              		.loc 1 1448 0
 6342 18c6 944B     		ldr	r3, .L672+16
 6343 18c8 1B79     		ldrb	r3, [r3, #4]
 6344 18ca DAB2     		uxtb	r2, r3
 6345 18cc 8F4B     		ldr	r3, .L672+4
 6346 18ce 5A75     		strb	r2, [r3, #21]
1449:.\main.c      ****     			    rf_mod[22]= id_estacion[3];
 6347              		.loc 1 1449 0
 6348 18d0 914B     		ldr	r3, .L672+16
 6349 18d2 DB78     		ldrb	r3, [r3, #3]
 6350 18d4 DAB2     		uxtb	r2, r3
 6351 18d6 8D4B     		ldr	r3, .L672+4
 6352 18d8 9A75     		strb	r2, [r3, #22]
1450:.\main.c      ****     			    rf_mod[23]= id_estacion[2];
 6353              		.loc 1 1450 0
 6354 18da 8F4B     		ldr	r3, .L672+16
 6355 18dc 9B78     		ldrb	r3, [r3, #2]
 6356 18de DAB2     		uxtb	r2, r3
 6357 18e0 8A4B     		ldr	r3, .L672+4
 6358 18e2 DA75     		strb	r2, [r3, #23]
1451:.\main.c      ****     			    rf_mod[24]= id_estacion[1];  
 6359              		.loc 1 1451 0
 6360 18e4 8C4B     		ldr	r3, .L672+16
 6361 18e6 5B78     		ldrb	r3, [r3, #1]
 6362 18e8 DAB2     		uxtb	r2, r3
 6363 18ea 884B     		ldr	r3, .L672+4
 6364 18ec 1A76     		strb	r2, [r3, #24]
 6365              	.L308:
1452:.\main.c      ****                 }
1453:.\main.c      ****     			if(tipo_venta == 1){
 6366              		.loc 1 1453 0
 6367 18ee 894B     		ldr	r3, .L672+12
 6368 18f0 1B78     		ldrb	r3, [r3]	@ zero_extendqisi2
 6369 18f2 012B     		cmp	r3, #1
 6370 18f4 0BD1     		bne	.L309
1454:.\main.c      ****                     rf_mod[21]= '0';								    //Id Estación
 6371              		.loc 1 1454 0
 6372 18f6 854B     		ldr	r3, .L672+4
 6373 18f8 3022     		movs	r2, #48
 6374 18fa 5A75     		strb	r2, [r3, #21]
1455:.\main.c      ****     			    rf_mod[22]= '0';
 6375              		.loc 1 1455 0
 6376 18fc 834B     		ldr	r3, .L672+4
 6377 18fe 3022     		movs	r2, #48
 6378 1900 9A75     		strb	r2, [r3, #22]
1456:.\main.c      ****     			    rf_mod[23]= '0';
 6379              		.loc 1 1456 0
 6380 1902 824B     		ldr	r3, .L672+4
ARM GAS  C:\Users\RECEPC~1\AppData\Local\Temp\ccU7e2eq.s 			page 142


 6381 1904 3022     		movs	r2, #48
 6382 1906 DA75     		strb	r2, [r3, #23]
1457:.\main.c      ****     			    rf_mod[24]= '0';  
 6383              		.loc 1 1457 0
 6384 1908 804B     		ldr	r3, .L672+4
 6385 190a 3022     		movs	r2, #48
 6386 190c 1A76     		strb	r2, [r3, #24]
 6387              	.L309:
1458:.\main.c      ****                 } 
1459:.\main.c      ****                 
1460:.\main.c      ****                 if(ppux10==0){
 6388              		.loc 1 1460 0
 6389 190e 834B     		ldr	r3, .L672+20
 6390 1910 1B78     		ldrb	r3, [r3]
 6391 1912 DBB2     		uxtb	r3, r3
 6392 1914 002B     		cmp	r3, #0
 6393 1916 59D1     		bne	.L310
1461:.\main.c      ****         			rf_mod[25]=(lado2.ppu[rventa2.manguera-1][4]&0x0F)+0x30;		//PPU
 6394              		.loc 1 1461 0
 6395 1918 7B4B     		ldr	r3, .L672
 6396 191a 9B7E     		ldrb	r3, [r3, #26]	@ zero_extendqisi2
 6397 191c 5A1E     		subs	r2, r3, #1
 6398 191e 7C49     		ldr	r1, .L672+8
 6399 1920 1346     		mov	r3, r2
 6400 1922 9B00     		lsls	r3, r3, #2
 6401 1924 1344     		add	r3, r3, r2
 6402 1926 0B44     		add	r3, r3, r1
 6403 1928 4C33     		adds	r3, r3, #76
 6404 192a 9B78     		ldrb	r3, [r3, #2]
 6405 192c DBB2     		uxtb	r3, r3
 6406 192e 03F00F03 		and	r3, r3, #15
 6407 1932 DBB2     		uxtb	r3, r3
 6408 1934 3033     		adds	r3, r3, #48
 6409 1936 DAB2     		uxtb	r2, r3
 6410 1938 744B     		ldr	r3, .L672+4
 6411 193a 5A76     		strb	r2, [r3, #25]
1462:.\main.c      ****         			rf_mod[26]=(lado2.ppu[rventa2.manguera-1][3]&0x0F)+0x30;
 6412              		.loc 1 1462 0
 6413 193c 724B     		ldr	r3, .L672
 6414 193e 9B7E     		ldrb	r3, [r3, #26]	@ zero_extendqisi2
 6415 1940 5A1E     		subs	r2, r3, #1
 6416 1942 7349     		ldr	r1, .L672+8
 6417 1944 1346     		mov	r3, r2
 6418 1946 9B00     		lsls	r3, r3, #2
 6419 1948 1344     		add	r3, r3, r2
 6420 194a 0B44     		add	r3, r3, r1
 6421 194c 4B33     		adds	r3, r3, #75
 6422 194e 9B78     		ldrb	r3, [r3, #2]
 6423 1950 DBB2     		uxtb	r3, r3
 6424 1952 03F00F03 		and	r3, r3, #15
 6425 1956 DBB2     		uxtb	r3, r3
 6426 1958 3033     		adds	r3, r3, #48
 6427 195a DAB2     		uxtb	r2, r3
 6428 195c 6B4B     		ldr	r3, .L672+4
 6429 195e 9A76     		strb	r2, [r3, #26]
1463:.\main.c      ****         			rf_mod[27]=(lado2.ppu[rventa2.manguera-1][2]&0x0F)+0x30;
 6430              		.loc 1 1463 0
ARM GAS  C:\Users\RECEPC~1\AppData\Local\Temp\ccU7e2eq.s 			page 143


 6431 1960 694B     		ldr	r3, .L672
 6432 1962 9B7E     		ldrb	r3, [r3, #26]	@ zero_extendqisi2
 6433 1964 5A1E     		subs	r2, r3, #1
 6434 1966 6A49     		ldr	r1, .L672+8
 6435 1968 1346     		mov	r3, r2
 6436 196a 9B00     		lsls	r3, r3, #2
 6437 196c 1344     		add	r3, r3, r2
 6438 196e 0B44     		add	r3, r3, r1
 6439 1970 4A33     		adds	r3, r3, #74
 6440 1972 9B78     		ldrb	r3, [r3, #2]
 6441 1974 DBB2     		uxtb	r3, r3
 6442 1976 03F00F03 		and	r3, r3, #15
 6443 197a DBB2     		uxtb	r3, r3
 6444 197c 3033     		adds	r3, r3, #48
 6445 197e DAB2     		uxtb	r2, r3
 6446 1980 624B     		ldr	r3, .L672+4
 6447 1982 DA76     		strb	r2, [r3, #27]
1464:.\main.c      ****         			rf_mod[28]=(lado2.ppu[rventa2.manguera-1][1]&0x0F)+0x30;
 6448              		.loc 1 1464 0
 6449 1984 604B     		ldr	r3, .L672
 6450 1986 9B7E     		ldrb	r3, [r3, #26]	@ zero_extendqisi2
 6451 1988 5A1E     		subs	r2, r3, #1
 6452 198a 6149     		ldr	r1, .L672+8
 6453 198c 1346     		mov	r3, r2
 6454 198e 9B00     		lsls	r3, r3, #2
 6455 1990 1344     		add	r3, r3, r2
 6456 1992 0B44     		add	r3, r3, r1
 6457 1994 4933     		adds	r3, r3, #73
 6458 1996 9B78     		ldrb	r3, [r3, #2]
 6459 1998 DBB2     		uxtb	r3, r3
 6460 199a 03F00F03 		and	r3, r3, #15
 6461 199e DBB2     		uxtb	r3, r3
 6462 19a0 3033     		adds	r3, r3, #48
 6463 19a2 DAB2     		uxtb	r2, r3
 6464 19a4 594B     		ldr	r3, .L672+4
 6465 19a6 1A77     		strb	r2, [r3, #28]
1465:.\main.c      ****         			rf_mod[29]=(lado2.ppu[rventa2.manguera-1][0]&0x0F)+0x30;
 6466              		.loc 1 1465 0
 6467 19a8 574B     		ldr	r3, .L672
 6468 19aa 9B7E     		ldrb	r3, [r3, #26]	@ zero_extendqisi2
 6469 19ac 5A1E     		subs	r2, r3, #1
 6470 19ae 5849     		ldr	r1, .L672+8
 6471 19b0 1346     		mov	r3, r2
 6472 19b2 9B00     		lsls	r3, r3, #2
 6473 19b4 1344     		add	r3, r3, r2
 6474 19b6 0B44     		add	r3, r3, r1
 6475 19b8 4833     		adds	r3, r3, #72
 6476 19ba 9B78     		ldrb	r3, [r3, #2]
 6477 19bc DBB2     		uxtb	r3, r3
 6478 19be 03F00F03 		and	r3, r3, #15
 6479 19c2 DBB2     		uxtb	r3, r3
 6480 19c4 3033     		adds	r3, r3, #48
 6481 19c6 DAB2     		uxtb	r2, r3
 6482 19c8 504B     		ldr	r3, .L672+4
 6483 19ca 5A77     		strb	r2, [r3, #29]
 6484              	.L310:
1466:.\main.c      ****                 }
ARM GAS  C:\Users\RECEPC~1\AppData\Local\Temp\ccU7e2eq.s 			page 144


1467:.\main.c      ****                 if(ppux10==1){
 6485              		.loc 1 1467 0
 6486 19cc 534B     		ldr	r3, .L672+20
 6487 19ce 1B78     		ldrb	r3, [r3]
 6488 19d0 DBB2     		uxtb	r3, r3
 6489 19d2 012B     		cmp	r3, #1
 6490 19d4 4AD1     		bne	.L311
1468:.\main.c      ****         			rf_mod[25]=(lado1.ppu[rventa2.manguera-1][3]&0x0F)+0x30;		//PPUx10
 6491              		.loc 1 1468 0
 6492 19d6 4C4B     		ldr	r3, .L672
 6493 19d8 9B7E     		ldrb	r3, [r3, #26]	@ zero_extendqisi2
 6494 19da 5A1E     		subs	r2, r3, #1
 6495 19dc 5049     		ldr	r1, .L672+24
 6496 19de 1346     		mov	r3, r2
 6497 19e0 9B00     		lsls	r3, r3, #2
 6498 19e2 1344     		add	r3, r3, r2
 6499 19e4 0B44     		add	r3, r3, r1
 6500 19e6 4B33     		adds	r3, r3, #75
 6501 19e8 9B78     		ldrb	r3, [r3, #2]
 6502 19ea DBB2     		uxtb	r3, r3
 6503 19ec 03F00F03 		and	r3, r3, #15
 6504 19f0 DBB2     		uxtb	r3, r3
 6505 19f2 3033     		adds	r3, r3, #48
 6506 19f4 DAB2     		uxtb	r2, r3
 6507 19f6 454B     		ldr	r3, .L672+4
 6508 19f8 5A76     		strb	r2, [r3, #25]
1469:.\main.c      ****         			rf_mod[26]=(lado1.ppu[rventa2.manguera-1][2]&0x0F)+0x30;
 6509              		.loc 1 1469 0
 6510 19fa 434B     		ldr	r3, .L672
 6511 19fc 9B7E     		ldrb	r3, [r3, #26]	@ zero_extendqisi2
 6512 19fe 5A1E     		subs	r2, r3, #1
 6513 1a00 4749     		ldr	r1, .L672+24
 6514 1a02 1346     		mov	r3, r2
 6515 1a04 9B00     		lsls	r3, r3, #2
 6516 1a06 1344     		add	r3, r3, r2
 6517 1a08 0B44     		add	r3, r3, r1
 6518 1a0a 4A33     		adds	r3, r3, #74
 6519 1a0c 9B78     		ldrb	r3, [r3, #2]
 6520 1a0e DBB2     		uxtb	r3, r3
 6521 1a10 03F00F03 		and	r3, r3, #15
 6522 1a14 DBB2     		uxtb	r3, r3
 6523 1a16 3033     		adds	r3, r3, #48
 6524 1a18 DAB2     		uxtb	r2, r3
 6525 1a1a 3C4B     		ldr	r3, .L672+4
 6526 1a1c 9A76     		strb	r2, [r3, #26]
1470:.\main.c      ****         			rf_mod[27]=(lado1.ppu[rventa2.manguera-1][1]&0x0F)+0x30;
 6527              		.loc 1 1470 0
 6528 1a1e 3A4B     		ldr	r3, .L672
 6529 1a20 9B7E     		ldrb	r3, [r3, #26]	@ zero_extendqisi2
 6530 1a22 5A1E     		subs	r2, r3, #1
 6531 1a24 3E49     		ldr	r1, .L672+24
 6532 1a26 1346     		mov	r3, r2
 6533 1a28 9B00     		lsls	r3, r3, #2
 6534 1a2a 1344     		add	r3, r3, r2
 6535 1a2c 0B44     		add	r3, r3, r1
 6536 1a2e 4933     		adds	r3, r3, #73
 6537 1a30 9B78     		ldrb	r3, [r3, #2]
ARM GAS  C:\Users\RECEPC~1\AppData\Local\Temp\ccU7e2eq.s 			page 145


 6538 1a32 DBB2     		uxtb	r3, r3
 6539 1a34 03F00F03 		and	r3, r3, #15
 6540 1a38 DBB2     		uxtb	r3, r3
 6541 1a3a 3033     		adds	r3, r3, #48
 6542 1a3c DAB2     		uxtb	r2, r3
 6543 1a3e 334B     		ldr	r3, .L672+4
 6544 1a40 DA76     		strb	r2, [r3, #27]
1471:.\main.c      ****         			rf_mod[28]=(lado1.ppu[rventa2.manguera-1][0]&0x0F)+0x30;
 6545              		.loc 1 1471 0
 6546 1a42 314B     		ldr	r3, .L672
 6547 1a44 9B7E     		ldrb	r3, [r3, #26]	@ zero_extendqisi2
 6548 1a46 5A1E     		subs	r2, r3, #1
 6549 1a48 3549     		ldr	r1, .L672+24
 6550 1a4a 1346     		mov	r3, r2
 6551 1a4c 9B00     		lsls	r3, r3, #2
 6552 1a4e 1344     		add	r3, r3, r2
 6553 1a50 0B44     		add	r3, r3, r1
 6554 1a52 4833     		adds	r3, r3, #72
 6555 1a54 9B78     		ldrb	r3, [r3, #2]
 6556 1a56 DBB2     		uxtb	r3, r3
 6557 1a58 03F00F03 		and	r3, r3, #15
 6558 1a5c DBB2     		uxtb	r3, r3
 6559 1a5e 3033     		adds	r3, r3, #48
 6560 1a60 DAB2     		uxtb	r2, r3
 6561 1a62 2A4B     		ldr	r3, .L672+4
 6562 1a64 1A77     		strb	r2, [r3, #28]
1472:.\main.c      ****         			rf_mod[29]=0x30;   
 6563              		.loc 1 1472 0
 6564 1a66 294B     		ldr	r3, .L672+4
 6565 1a68 3022     		movs	r2, #48
 6566 1a6a 5A77     		strb	r2, [r3, #29]
 6567              	.L311:
1473:.\main.c      ****                 }
1474:.\main.c      ****     			rf_mod[30]=(rventa2.preset[0]+48);								//Tipo de Preset
 6568              		.loc 1 1474 0
 6569 1a6c 264B     		ldr	r3, .L672
 6570 1a6e DB7E     		ldrb	r3, [r3, #27]	@ zero_extendqisi2
 6571 1a70 3033     		adds	r3, r3, #48
 6572 1a72 DAB2     		uxtb	r2, r3
 6573 1a74 254B     		ldr	r3, .L672+4
 6574 1a76 9A77     		strb	r2, [r3, #30]
1475:.\main.c      ****     			rf_mod[31]=rventa2.preset[7];									//Preset
 6575              		.loc 1 1475 0
 6576 1a78 234B     		ldr	r3, .L672
 6577 1a7a 93F82220 		ldrb	r2, [r3, #34]	@ zero_extendqisi2
 6578 1a7e 234B     		ldr	r3, .L672+4
 6579 1a80 DA77     		strb	r2, [r3, #31]
1476:.\main.c      ****     			if(rventa1.preset[7]<10){				
 6580              		.loc 1 1476 0
 6581 1a82 284B     		ldr	r3, .L672+28
 6582 1a84 93F82230 		ldrb	r3, [r3, #34]	@ zero_extendqisi2
 6583 1a88 092B     		cmp	r3, #9
 6584 1a8a 06D8     		bhi	.L312
1477:.\main.c      ****     				rf_mod[31]=rventa2.preset[7]+0x30;							
 6585              		.loc 1 1477 0
 6586 1a8c 1E4B     		ldr	r3, .L672
 6587 1a8e 93F82230 		ldrb	r3, [r3, #34]	@ zero_extendqisi2
ARM GAS  C:\Users\RECEPC~1\AppData\Local\Temp\ccU7e2eq.s 			page 146


 6588 1a92 3033     		adds	r3, r3, #48
 6589 1a94 DAB2     		uxtb	r2, r3
 6590 1a96 1D4B     		ldr	r3, .L672+4
 6591 1a98 DA77     		strb	r2, [r3, #31]
 6592              	.L312:
1478:.\main.c      ****     			}
1479:.\main.c      ****     			rf_mod[32]=rventa2.preset[6];
 6593              		.loc 1 1479 0
 6594 1a9a 1B4B     		ldr	r3, .L672
 6595 1a9c 93F82120 		ldrb	r2, [r3, #33]	@ zero_extendqisi2
 6596 1aa0 1A4B     		ldr	r3, .L672+4
 6597 1aa2 83F82020 		strb	r2, [r3, #32]
1480:.\main.c      ****     			if(rventa1.preset[6]<10){				
 6598              		.loc 1 1480 0
 6599 1aa6 1F4B     		ldr	r3, .L672+28
 6600 1aa8 93F82130 		ldrb	r3, [r3, #33]	@ zero_extendqisi2
 6601 1aac 092B     		cmp	r3, #9
 6602 1aae 07D8     		bhi	.L313
1481:.\main.c      ****     				rf_mod[32]=rventa2.preset[6]+0x30;
 6603              		.loc 1 1481 0
 6604 1ab0 154B     		ldr	r3, .L672
 6605 1ab2 93F82130 		ldrb	r3, [r3, #33]	@ zero_extendqisi2
 6606 1ab6 3033     		adds	r3, r3, #48
 6607 1ab8 DAB2     		uxtb	r2, r3
 6608 1aba 144B     		ldr	r3, .L672+4
 6609 1abc 83F82020 		strb	r2, [r3, #32]
 6610              	.L313:
1482:.\main.c      ****     			}
1483:.\main.c      ****     			rf_mod[33]=rventa2.preset[5];
 6611              		.loc 1 1483 0
 6612 1ac0 114B     		ldr	r3, .L672
 6613 1ac2 93F82020 		ldrb	r2, [r3, #32]	@ zero_extendqisi2
 6614 1ac6 114B     		ldr	r3, .L672+4
 6615 1ac8 83F82120 		strb	r2, [r3, #33]
1484:.\main.c      ****     			if(rventa2.preset[5]<10){				
 6616              		.loc 1 1484 0
 6617 1acc 0E4B     		ldr	r3, .L672
 6618 1ace 93F82030 		ldrb	r3, [r3, #32]	@ zero_extendqisi2
 6619 1ad2 092B     		cmp	r3, #9
 6620 1ad4 07D8     		bhi	.L314
1485:.\main.c      ****     				rf_mod[33]=rventa2.preset[5]+0x30;
 6621              		.loc 1 1485 0
 6622 1ad6 0C4B     		ldr	r3, .L672
 6623 1ad8 93F82030 		ldrb	r3, [r3, #32]	@ zero_extendqisi2
 6624 1adc 3033     		adds	r3, r3, #48
 6625 1ade DAB2     		uxtb	r2, r3
 6626 1ae0 0A4B     		ldr	r3, .L672+4
 6627 1ae2 83F82120 		strb	r2, [r3, #33]
 6628              	.L314:
1486:.\main.c      ****     			}
1487:.\main.c      ****     			rf_mod[34]=rventa2.preset[4];
 6629              		.loc 1 1487 0
 6630 1ae6 084B     		ldr	r3, .L672
 6631 1ae8 DA7F     		ldrb	r2, [r3, #31]	@ zero_extendqisi2
 6632 1aea 084B     		ldr	r3, .L672+4
 6633 1aec 83F82220 		strb	r2, [r3, #34]
1488:.\main.c      ****     			if(rventa2.preset[4]<10){				
ARM GAS  C:\Users\RECEPC~1\AppData\Local\Temp\ccU7e2eq.s 			page 147


 6634              		.loc 1 1488 0
 6635 1af0 054B     		ldr	r3, .L672
 6636 1af2 DB7F     		ldrb	r3, [r3, #31]	@ zero_extendqisi2
 6637 1af4 092B     		cmp	r3, #9
 6638 1af6 17D8     		bhi	.L315
1489:.\main.c      ****     				rf_mod[34]=rventa2.preset[4]+0x30;
 6639              		.loc 1 1489 0
 6640 1af8 034B     		ldr	r3, .L672
 6641 1afa DB7F     		ldrb	r3, [r3, #31]	@ zero_extendqisi2
 6642 1afc 3033     		adds	r3, r3, #48
 6643 1afe DAB2     		uxtb	r2, r3
 6644 1b00 024B     		ldr	r3, .L672+4
 6645 1b02 83F82220 		strb	r2, [r3, #34]
 6646 1b06 0FE0     		b	.L673
 6647              	.L674:
 6648              		.align	2
 6649              	.L672:
 6650 1b08 00000000 		.word	rventa2
 6651 1b0c 00000000 		.word	rf_mod
 6652 1b10 00000000 		.word	lado2
 6653 1b14 00000000 		.word	tipo_venta
 6654 1b18 00000000 		.word	id_estacion
 6655 1b1c 00000000 		.word	ppux10
 6656 1b20 00000000 		.word	lado1
 6657 1b24 00000000 		.word	rventa1
 6658              	.L673:
 6659              	.L315:
1490:.\main.c      ****     			}
1491:.\main.c      ****     			rf_mod[35]=rventa2.preset[3];
 6660              		.loc 1 1491 0
 6661 1b28 BA4B     		ldr	r3, .L675
 6662 1b2a 9A7F     		ldrb	r2, [r3, #30]	@ zero_extendqisi2
 6663 1b2c BA4B     		ldr	r3, .L675+4
 6664 1b2e 83F82320 		strb	r2, [r3, #35]
1492:.\main.c      ****     			if(rventa2.preset[3]<10){				
 6665              		.loc 1 1492 0
 6666 1b32 B84B     		ldr	r3, .L675
 6667 1b34 9B7F     		ldrb	r3, [r3, #30]	@ zero_extendqisi2
 6668 1b36 092B     		cmp	r3, #9
 6669 1b38 06D8     		bhi	.L316
1493:.\main.c      ****     				rf_mod[35]=rventa2.preset[3]+0x30;
 6670              		.loc 1 1493 0
 6671 1b3a B64B     		ldr	r3, .L675
 6672 1b3c 9B7F     		ldrb	r3, [r3, #30]	@ zero_extendqisi2
 6673 1b3e 3033     		adds	r3, r3, #48
 6674 1b40 DAB2     		uxtb	r2, r3
 6675 1b42 B54B     		ldr	r3, .L675+4
 6676 1b44 83F82320 		strb	r2, [r3, #35]
 6677              	.L316:
1494:.\main.c      ****     			}
1495:.\main.c      ****     			rf_mod[36]=rventa2.preset[2];
 6678              		.loc 1 1495 0
 6679 1b48 B24B     		ldr	r3, .L675
 6680 1b4a 5A7F     		ldrb	r2, [r3, #29]	@ zero_extendqisi2
 6681 1b4c B24B     		ldr	r3, .L675+4
 6682 1b4e 83F82420 		strb	r2, [r3, #36]
1496:.\main.c      ****     			if(rventa2.preset[2]<10){				
ARM GAS  C:\Users\RECEPC~1\AppData\Local\Temp\ccU7e2eq.s 			page 148


 6683              		.loc 1 1496 0
 6684 1b52 B04B     		ldr	r3, .L675
 6685 1b54 5B7F     		ldrb	r3, [r3, #29]	@ zero_extendqisi2
 6686 1b56 092B     		cmp	r3, #9
 6687 1b58 06D8     		bhi	.L317
1497:.\main.c      ****     				rf_mod[36]=rventa2.preset[2]+0x30;
 6688              		.loc 1 1497 0
 6689 1b5a AE4B     		ldr	r3, .L675
 6690 1b5c 5B7F     		ldrb	r3, [r3, #29]	@ zero_extendqisi2
 6691 1b5e 3033     		adds	r3, r3, #48
 6692 1b60 DAB2     		uxtb	r2, r3
 6693 1b62 AD4B     		ldr	r3, .L675+4
 6694 1b64 83F82420 		strb	r2, [r3, #36]
 6695              	.L317:
1498:.\main.c      ****     			}
1499:.\main.c      ****     			rf_mod[37]=rventa2.preset[1];
 6696              		.loc 1 1499 0
 6697 1b68 AA4B     		ldr	r3, .L675
 6698 1b6a 1A7F     		ldrb	r2, [r3, #28]	@ zero_extendqisi2
 6699 1b6c AA4B     		ldr	r3, .L675+4
 6700 1b6e 83F82520 		strb	r2, [r3, #37]
1500:.\main.c      ****     			if(rventa2.preset[1]<10){				
 6701              		.loc 1 1500 0
 6702 1b72 A84B     		ldr	r3, .L675
 6703 1b74 1B7F     		ldrb	r3, [r3, #28]	@ zero_extendqisi2
 6704 1b76 092B     		cmp	r3, #9
 6705 1b78 06D8     		bhi	.L318
1501:.\main.c      ****     				rf_mod[37]=rventa2.preset[1]+0x30;
 6706              		.loc 1 1501 0
 6707 1b7a A64B     		ldr	r3, .L675
 6708 1b7c 1B7F     		ldrb	r3, [r3, #28]	@ zero_extendqisi2
 6709 1b7e 3033     		adds	r3, r3, #48
 6710 1b80 DAB2     		uxtb	r2, r3
 6711 1b82 A54B     		ldr	r3, .L675+4
 6712 1b84 83F82520 		strb	r2, [r3, #37]
 6713              	.L318:
1502:.\main.c      ****     			}
1503:.\main.c      ****     			for(x=0;x<=6;x++){
 6714              		.loc 1 1503 0
 6715 1b88 0023     		movs	r3, #0
 6716 1b8a 87F82F30 		strb	r3, [r7, #47]
 6717 1b8e 12E0     		b	.L319
 6718              	.L320:
1504:.\main.c      ****     				rf_mod[38+x]=rventa2.km[x+1] + 48;
 6719              		.loc 1 1504 0 discriminator 3
 6720 1b90 97F82F30 		ldrb	r3, [r7, #47]	@ zero_extendqisi2
 6721 1b94 2633     		adds	r3, r3, #38
 6722 1b96 97F82F20 		ldrb	r2, [r7, #47]	@ zero_extendqisi2
 6723 1b9a 0132     		adds	r2, r2, #1
 6724 1b9c 9D49     		ldr	r1, .L675
 6725 1b9e 0A44     		add	r2, r2, r1
 6726 1ba0 92F84320 		ldrb	r2, [r2, #67]	@ zero_extendqisi2
 6727 1ba4 3032     		adds	r2, r2, #48
 6728 1ba6 D1B2     		uxtb	r1, r2
 6729 1ba8 9B4A     		ldr	r2, .L675+4
 6730 1baa D154     		strb	r1, [r2, r3]
1503:.\main.c      ****     				rf_mod[38+x]=rventa2.km[x+1] + 48;
ARM GAS  C:\Users\RECEPC~1\AppData\Local\Temp\ccU7e2eq.s 			page 149


 6731              		.loc 1 1503 0 discriminator 3
 6732 1bac 97F82F30 		ldrb	r3, [r7, #47]	@ zero_extendqisi2
 6733 1bb0 0133     		adds	r3, r3, #1
 6734 1bb2 87F82F30 		strb	r3, [r7, #47]
 6735              	.L319:
1503:.\main.c      ****     				rf_mod[38+x]=rventa2.km[x+1] + 48;
 6736              		.loc 1 1503 0 is_stmt 0 discriminator 1
 6737 1bb6 97F82F30 		ldrb	r3, [r7, #47]	@ zero_extendqisi2
 6738 1bba 062B     		cmp	r3, #6
 6739 1bbc E8D9     		bls	.L320
1505:.\main.c      ****     			}
1506:.\main.c      ****             rf_mod[45]=0x32;    
 6740              		.loc 1 1506 0 is_stmt 1
 6741 1bbe 964B     		ldr	r3, .L675+4
 6742 1bc0 3222     		movs	r2, #50
 6743 1bc2 83F82D20 		strb	r2, [r3, #45]
 6744              	.L297:
1507:.\main.c      ****             }			
1508:.\main.c      **** 			rf_mod[46]='*';
 6745              		.loc 1 1508 0
 6746 1bc6 944B     		ldr	r3, .L675+4
 6747 1bc8 2A22     		movs	r2, #42
 6748 1bca 83F82E20 		strb	r2, [r3, #46]
1509:.\main.c      **** 			PC_ClearRxBuffer();				
 6749              		.loc 1 1509 0
 6750 1bce FFF7FEFF 		bl	PC_ClearRxBuffer
1510:.\main.c      **** 		    for(x=0;x<=46;x++){
 6751              		.loc 1 1510 0
 6752 1bd2 0023     		movs	r3, #0
 6753 1bd4 87F82F30 		strb	r3, [r7, #47]
 6754 1bd8 0BE0     		b	.L321
 6755              	.L322:
1511:.\main.c      **** 			   PC_PutChar(rf_mod[x]);
 6756              		.loc 1 1511 0 discriminator 3
 6757 1bda 97F82F30 		ldrb	r3, [r7, #47]	@ zero_extendqisi2
 6758 1bde 8E4A     		ldr	r2, .L675+4
 6759 1be0 D35C     		ldrb	r3, [r2, r3]	@ zero_extendqisi2
 6760 1be2 1846     		mov	r0, r3
 6761 1be4 FFF7FEFF 		bl	PC_PutChar
1510:.\main.c      **** 		    for(x=0;x<=46;x++){
 6762              		.loc 1 1510 0 discriminator 3
 6763 1be8 97F82F30 		ldrb	r3, [r7, #47]	@ zero_extendqisi2
 6764 1bec 0133     		adds	r3, r3, #1
 6765 1bee 87F82F30 		strb	r3, [r7, #47]
 6766              	.L321:
1510:.\main.c      **** 		    for(x=0;x<=46;x++){
 6767              		.loc 1 1510 0 is_stmt 0 discriminator 1
 6768 1bf2 97F82F30 		ldrb	r3, [r7, #47]	@ zero_extendqisi2
 6769 1bf6 2E2B     		cmp	r3, #46
 6770 1bf8 EFD9     		bls	.L322
1512:.\main.c      **** 		    }	            
1513:.\main.c      **** 			CyDelay(350);			
 6771              		.loc 1 1513 0 is_stmt 1
 6772 1bfa 4FF4AF70 		mov	r0, #350
 6773 1bfe FFF7FEFF 		bl	CyDelay
1514:.\main.c      ****             PC_ClearTxBuffer();
 6774              		.loc 1 1514 0
ARM GAS  C:\Users\RECEPC~1\AppData\Local\Temp\ccU7e2eq.s 			page 150


 6775 1c02 FFF7FEFF 		bl	PC_ClearTxBuffer
1515:.\main.c      ****             if(count_protector>15){ 
 6776              		.loc 1 1515 0
 6777 1c06 854B     		ldr	r3, .L675+8
 6778 1c08 1B78     		ldrb	r3, [r3]
 6779 1c0a DBB2     		uxtb	r3, r3
 6780 1c0c 0F2B     		cmp	r3, #15
 6781 1c0e 31D9     		bls	.L323
1516:.\main.c      ****                 //parar timer
1517:.\main.c      ****                 isr_3_Stop(); 
 6782              		.loc 1 1517 0
 6783 1c10 FFF7FEFF 		bl	isr_3_Stop
1518:.\main.c      ****                 Timer_Animacion_Stop(); 			
 6784              		.loc 1 1518 0
 6785 1c14 FFF7FEFF 		bl	Timer_Animacion_Stop
1519:.\main.c      ****     		    count_protector=0;
 6786              		.loc 1 1519 0
 6787 1c18 804B     		ldr	r3, .L675+8
 6788 1c1a 0022     		movs	r2, #0
 6789 1c1c 1A70     		strb	r2, [r3]
1520:.\main.c      **** 			    flujo_LCD1=0;
 6790              		.loc 1 1520 0
 6791 1c1e 804B     		ldr	r3, .L675+12
 6792 1c20 0022     		movs	r2, #0
 6793 1c22 1A70     		strb	r2, [r3]
1521:.\main.c      ****                 lado1.estado=libre;  
 6794              		.loc 1 1521 0
 6795 1c24 7F4B     		ldr	r3, .L675+16
 6796 1c26 0122     		movs	r2, #1
 6797 1c28 5A70     		strb	r2, [r3, #1]
1522:.\main.c      ****                 if(pantallas == 1 || pantallas == 4){
 6798              		.loc 1 1522 0
 6799 1c2a 7F4B     		ldr	r3, .L675+20
 6800 1c2c 1B78     		ldrb	r3, [r3]
 6801 1c2e DBB2     		uxtb	r3, r3
 6802 1c30 012B     		cmp	r3, #1
 6803 1c32 04D0     		beq	.L324
 6804              		.loc 1 1522 0 is_stmt 0 discriminator 1
 6805 1c34 7C4B     		ldr	r3, .L675+20
 6806 1c36 1B78     		ldrb	r3, [r3]
 6807 1c38 DBB2     		uxtb	r3, r3
 6808 1c3a 042B     		cmp	r3, #4
 6809 1c3c 0CD1     		bne	.L325
 6810              	.L324:
1523:.\main.c      ****                     set_imagen(1,44);
 6811              		.loc 1 1523 0 is_stmt 1
 6812 1c3e 0120     		movs	r0, #1
 6813 1c40 2C21     		movs	r1, #44
 6814 1c42 FFF7FEFF 		bl	set_imagen
1524:.\main.c      ****                     CyDelay(500);
 6815              		.loc 1 1524 0
 6816 1c46 4FF4FA70 		mov	r0, #500
 6817 1c4a FFF7FEFF 		bl	CyDelay
1525:.\main.c      ****                     set_imagen(1,46);
 6818              		.loc 1 1525 0
 6819 1c4e 0120     		movs	r0, #1
 6820 1c50 2E21     		movs	r1, #46
ARM GAS  C:\Users\RECEPC~1\AppData\Local\Temp\ccU7e2eq.s 			page 151


 6821 1c52 FFF7FEFF 		bl	set_imagen
 6822 1c56 0DE0     		b	.L323
 6823              	.L325:
1526:.\main.c      ****                 }else{
1527:.\main.c      ****                     set_imagen(1,44);
 6824              		.loc 1 1527 0
 6825 1c58 0120     		movs	r0, #1
 6826 1c5a 2C21     		movs	r1, #44
 6827 1c5c FFF7FEFF 		bl	set_imagen
1528:.\main.c      ****                     CyDelay(500);
 6828              		.loc 1 1528 0
 6829 1c60 4FF4FA70 		mov	r0, #500
 6830 1c64 FFF7FEFF 		bl	CyDelay
1529:.\main.c      ****                     set_imagen(1,21);
 6831              		.loc 1 1529 0
 6832 1c68 0120     		movs	r0, #1
 6833 1c6a 1521     		movs	r1, #21
 6834 1c6c FFF7FEFF 		bl	set_imagen
1530:.\main.c      ****                                         
1531:.\main.c      ****                 }
1532:.\main.c      ****             }
1533:.\main.c      ****         break;
 6835              		.loc 1 1533 0
 6836 1c70 02F0BCBE 		b	.L117
 6837              	.L323:
 6838              		.loc 1 1533 0 is_stmt 0 discriminator 12
 6839 1c74 02F0BABE 		b	.L117
 6840              	.L129:
1534:.\main.c      ****                     
1535:.\main.c      ****             
1536:.\main.c      ****         case 11:    
1537:.\main.c      ****             if(seleccion_pos == 1){
 6841              		.loc 1 1537 0 is_stmt 1
 6842 1c78 6C4B     		ldr	r3, .L675+24
 6843 1c7a 1B78     		ldrb	r3, [r3]
 6844 1c7c DBB2     		uxtb	r3, r3
 6845 1c7e 012B     		cmp	r3, #1
 6846 1c80 40F09480 		bne	.L326
1538:.\main.c      ****                 if(touch_present(1)==1){
 6847              		.loc 1 1538 0
 6848 1c84 0120     		movs	r0, #1
 6849 1c86 FFF7FEFF 		bl	touch_present
 6850 1c8a 0346     		mov	r3, r0
 6851 1c8c 012B     		cmp	r3, #1
 6852 1c8e 40F08D80 		bne	.L326
1539:.\main.c      ****                     if(touch_write(1,0x33)){
 6853              		.loc 1 1539 0
 6854 1c92 0120     		movs	r0, #1
 6855 1c94 3321     		movs	r1, #51
 6856 1c96 FFF7FEFF 		bl	touch_write
 6857 1c9a 0346     		mov	r3, r0
 6858 1c9c 002B     		cmp	r3, #0
 6859 1c9e 00F08580 		beq	.L326
1540:.\main.c      ****     	                for(x=0;x<=7;x++){
 6860              		.loc 1 1540 0
 6861 1ca2 0023     		movs	r3, #0
 6862 1ca4 87F82F30 		strb	r3, [r7, #47]
ARM GAS  C:\Users\RECEPC~1\AppData\Local\Temp\ccU7e2eq.s 			page 152


 6863 1ca8 0FE0     		b	.L327
 6864              	.L328:
1541:.\main.c      ****     	                    rventa1.id[x]=touch_read_byte(1);
 6865              		.loc 1 1541 0 discriminator 3
 6866 1caa 97F82F40 		ldrb	r4, [r7, #47]	@ zero_extendqisi2
 6867 1cae 0120     		movs	r0, #1
 6868 1cb0 FFF7FEFF 		bl	touch_read_byte
 6869 1cb4 0346     		mov	r3, r0
 6870 1cb6 1A46     		mov	r2, r3
 6871 1cb8 5D4B     		ldr	r3, .L675+28
 6872 1cba 2344     		add	r3, r3, r4
 6873 1cbc 83F82320 		strb	r2, [r3, #35]
1540:.\main.c      ****     	                for(x=0;x<=7;x++){
 6874              		.loc 1 1540 0 discriminator 3
 6875 1cc0 97F82F30 		ldrb	r3, [r7, #47]	@ zero_extendqisi2
 6876 1cc4 0133     		adds	r3, r3, #1
 6877 1cc6 87F82F30 		strb	r3, [r7, #47]
 6878              	.L327:
1540:.\main.c      ****     	                for(x=0;x<=7;x++){
 6879              		.loc 1 1540 0 is_stmt 0 discriminator 1
 6880 1cca 97F82F30 		ldrb	r3, [r7, #47]	@ zero_extendqisi2
 6881 1cce 072B     		cmp	r3, #7
 6882 1cd0 EBD9     		bls	.L328
1542:.\main.c      ****     	                }
1543:.\main.c      ****     				    crc_total=0;
 6883              		.loc 1 1543 0 is_stmt 1
 6884 1cd2 584B     		ldr	r3, .L675+32
 6885 1cd4 0022     		movs	r2, #0
 6886 1cd6 1A70     		strb	r2, [r3]
1544:.\main.c      ****     				    for(x=0;x<7;x++){
 6887              		.loc 1 1544 0
 6888 1cd8 0023     		movs	r3, #0
 6889 1cda 87F82F30 		strb	r3, [r7, #47]
 6890 1cde 14E0     		b	.L329
 6891              	.L330:
1545:.\main.c      ****     				 	    crc_total=crc_check(crc_total,rventa1.id[x]);
 6892              		.loc 1 1545 0 discriminator 3
 6893 1ce0 544B     		ldr	r3, .L675+32
 6894 1ce2 1978     		ldrb	r1, [r3]	@ zero_extendqisi2
 6895 1ce4 97F82F30 		ldrb	r3, [r7, #47]	@ zero_extendqisi2
 6896 1ce8 514A     		ldr	r2, .L675+28
 6897 1cea 1344     		add	r3, r3, r2
 6898 1cec 93F82330 		ldrb	r3, [r3, #35]	@ zero_extendqisi2
 6899 1cf0 0846     		mov	r0, r1
 6900 1cf2 1946     		mov	r1, r3
 6901 1cf4 FFF7FEFF 		bl	crc_check
 6902 1cf8 0346     		mov	r3, r0
 6903 1cfa 1A46     		mov	r2, r3
 6904 1cfc 4D4B     		ldr	r3, .L675+32
 6905 1cfe 1A70     		strb	r2, [r3]
1544:.\main.c      ****     				    for(x=0;x<7;x++){
 6906              		.loc 1 1544 0 discriminator 3
 6907 1d00 97F82F30 		ldrb	r3, [r7, #47]	@ zero_extendqisi2
 6908 1d04 0133     		adds	r3, r3, #1
 6909 1d06 87F82F30 		strb	r3, [r7, #47]
 6910              	.L329:
1544:.\main.c      ****     				    for(x=0;x<7;x++){
ARM GAS  C:\Users\RECEPC~1\AppData\Local\Temp\ccU7e2eq.s 			page 153


 6911              		.loc 1 1544 0 is_stmt 0 discriminator 1
 6912 1d0a 97F82F30 		ldrb	r3, [r7, #47]	@ zero_extendqisi2
 6913 1d0e 062B     		cmp	r3, #6
 6914 1d10 E6D9     		bls	.L330
1546:.\main.c      ****     				    }					
1547:.\main.c      ****     				    if(crc_total==rventa1.id[7]){
 6915              		.loc 1 1547 0 is_stmt 1
 6916 1d12 474B     		ldr	r3, .L675+28
 6917 1d14 93F82A20 		ldrb	r2, [r3, #42]	@ zero_extendqisi2
 6918 1d18 464B     		ldr	r3, .L675+32
 6919 1d1a 1B78     		ldrb	r3, [r3]	@ zero_extendqisi2
 6920 1d1c 9A42     		cmp	r2, r3
 6921 1d1e 45D1     		bne	.L326
1548:.\main.c      ****     		                set_imagen(1,19);
 6922              		.loc 1 1548 0
 6923 1d20 0120     		movs	r0, #1
 6924 1d22 1321     		movs	r1, #19
 6925 1d24 FFF7FEFF 		bl	set_imagen
1549:.\main.c      ****     		                CyDelay(500);					 				 
 6926              		.loc 1 1549 0
 6927 1d28 4FF4FA70 		mov	r0, #500
 6928 1d2c FFF7FEFF 		bl	CyDelay
1550:.\main.c      ****     					    count_teclas1=0;							//Inicia el contador de teclas						    
 6929              		.loc 1 1550 0
 6930 1d30 414B     		ldr	r3, .L675+36
 6931 1d32 0022     		movs	r2, #0
 6932 1d34 1A70     		strb	r2, [r3]
1551:.\main.c      ****     					    teclas1=10;
 6933              		.loc 1 1551 0
 6934 1d36 414B     		ldr	r3, .L675+40
 6935 1d38 0A22     		movs	r2, #10
 6936 1d3a 1A70     		strb	r2, [r3]
1552:.\main.c      ****     					    posx1=2;
 6937              		.loc 1 1552 0
 6938 1d3c 404B     		ldr	r3, .L675+44
 6939 1d3e 0222     		movs	r2, #2
 6940 1d40 1A80     		strh	r2, [r3]	@ movhi
1553:.\main.c      ****     					    posy1=3;
 6941              		.loc 1 1553 0
 6942 1d42 404B     		ldr	r3, .L675+48
 6943 1d44 0322     		movs	r2, #3
 6944 1d46 1A80     		strh	r2, [r3]	@ movhi
1554:.\main.c      ****     					    sizeletra1=1;	
 6945              		.loc 1 1554 0
 6946 1d48 3F4B     		ldr	r3, .L675+52
 6947 1d4a 0122     		movs	r2, #1
 6948 1d4c 1A80     		strh	r2, [r3]	@ movhi
1555:.\main.c      ****                             count_protector = 0;
 6949              		.loc 1 1555 0
 6950 1d4e 334B     		ldr	r3, .L675+8
 6951 1d50 0022     		movs	r2, #0
 6952 1d52 1A70     		strb	r2, [r3]
1556:.\main.c      ****                             if(id_teclado1 ==10){
 6953              		.loc 1 1556 0
 6954 1d54 3D4B     		ldr	r3, .L675+56
 6955 1d56 1B78     		ldrb	r3, [r3]
 6956 1d58 DBB2     		uxtb	r3, r3
ARM GAS  C:\Users\RECEPC~1\AppData\Local\Temp\ccU7e2eq.s 			page 154


 6957 1d5a 0A2B     		cmp	r3, #10
 6958 1d5c 06D1     		bne	.L331
1557:.\main.c      ****                                 set_imagen(1,19);
 6959              		.loc 1 1557 0
 6960 1d5e 0120     		movs	r0, #1
 6961 1d60 1321     		movs	r1, #19
 6962 1d62 FFF7FEFF 		bl	set_imagen
1558:.\main.c      ****                                 flujo_LCD1 = 19;
 6963              		.loc 1 1558 0
 6964 1d66 2E4B     		ldr	r3, .L675+12
 6965 1d68 1322     		movs	r2, #19
 6966 1d6a 1A70     		strb	r2, [r3]
 6967              	.L331:
1559:.\main.c      ****                             }
1560:.\main.c      ****                             if(id_teclado1 ==8){
 6968              		.loc 1 1560 0
 6969 1d6c 374B     		ldr	r3, .L675+56
 6970 1d6e 1B78     		ldrb	r3, [r3]
 6971 1d70 DBB2     		uxtb	r3, r3
 6972 1d72 082B     		cmp	r3, #8
 6973 1d74 06D1     		bne	.L332
1561:.\main.c      ****                                 set_imagen(1,36);
 6974              		.loc 1 1561 0
 6975 1d76 0120     		movs	r0, #1
 6976 1d78 2421     		movs	r1, #36
 6977 1d7a FFF7FEFF 		bl	set_imagen
1562:.\main.c      ****                                 flujo_LCD1 = 12;
 6978              		.loc 1 1562 0
 6979 1d7e 284B     		ldr	r3, .L675+12
 6980 1d80 0C22     		movs	r2, #12
 6981 1d82 1A70     		strb	r2, [r3]
 6982              	.L332:
1563:.\main.c      ****                             }
1564:.\main.c      ****                             if(id_teclado1 !=8 && id_teclado1 !=10){
 6983              		.loc 1 1564 0
 6984 1d84 314B     		ldr	r3, .L675+56
 6985 1d86 1B78     		ldrb	r3, [r3]
 6986 1d88 DBB2     		uxtb	r3, r3
 6987 1d8a 082B     		cmp	r3, #8
 6988 1d8c 0ED0     		beq	.L326
 6989              		.loc 1 1564 0 is_stmt 0 discriminator 1
 6990 1d8e 2F4B     		ldr	r3, .L675+56
 6991 1d90 1B78     		ldrb	r3, [r3]
 6992 1d92 DBB2     		uxtb	r3, r3
 6993 1d94 0A2B     		cmp	r3, #10
 6994 1d96 09D0     		beq	.L326
1565:.\main.c      ****                                 id_teclado1=2;
 6995              		.loc 1 1565 0 is_stmt 1
 6996 1d98 2C4B     		ldr	r3, .L675+56
 6997 1d9a 0222     		movs	r2, #2
 6998 1d9c 1A70     		strb	r2, [r3]
1566:.\main.c      ****                                 set_imagen(1,14);
 6999              		.loc 1 1566 0
 7000 1d9e 0120     		movs	r0, #1
 7001 1da0 0E21     		movs	r1, #14
 7002 1da2 FFF7FEFF 		bl	set_imagen
1567:.\main.c      ****                                 flujo_LCD1=12;
ARM GAS  C:\Users\RECEPC~1\AppData\Local\Temp\ccU7e2eq.s 			page 155


 7003              		.loc 1 1567 0
 7004 1da6 1E4B     		ldr	r3, .L675+12
 7005 1da8 0C22     		movs	r2, #12
 7006 1daa 1A70     		strb	r2, [r3]
 7007              	.L326:
1568:.\main.c      ****                             }
1569:.\main.c      ****     					    	
1570:.\main.c      ****     				    }
1571:.\main.c      ****                     }
1572:.\main.c      ****                 }  
1573:.\main.c      ****             }
1574:.\main.c      ****             if(seleccion_pos == 2){
 7008              		.loc 1 1574 0
 7009 1dac 1F4B     		ldr	r3, .L675+24
 7010 1dae 1B78     		ldrb	r3, [r3]
 7011 1db0 DBB2     		uxtb	r3, r3
 7012 1db2 022B     		cmp	r3, #2
 7013 1db4 40F0AF80 		bne	.L333
1575:.\main.c      ****                 if(touch_present(1)==1){
 7014              		.loc 1 1575 0
 7015 1db8 0120     		movs	r0, #1
 7016 1dba FFF7FEFF 		bl	touch_present
 7017 1dbe 0346     		mov	r3, r0
 7018 1dc0 012B     		cmp	r3, #1
 7019 1dc2 40F0A880 		bne	.L333
1576:.\main.c      ****                     if(touch_write(1,0x33)){
 7020              		.loc 1 1576 0
 7021 1dc6 0120     		movs	r0, #1
 7022 1dc8 3321     		movs	r1, #51
 7023 1dca FFF7FEFF 		bl	touch_write
 7024 1dce 0346     		mov	r3, r0
 7025 1dd0 002B     		cmp	r3, #0
 7026 1dd2 00F0A080 		beq	.L333
1577:.\main.c      ****     	                for(x=0;x<=7;x++){
 7027              		.loc 1 1577 0
 7028 1dd6 0023     		movs	r3, #0
 7029 1dd8 87F82F30 		strb	r3, [r7, #47]
 7030 1ddc 0FE0     		b	.L334
 7031              	.L335:
1578:.\main.c      ****     	                    rventa2.id[x]=touch_read_byte(1);
 7032              		.loc 1 1578 0 discriminator 3
 7033 1dde 97F82F40 		ldrb	r4, [r7, #47]	@ zero_extendqisi2
 7034 1de2 0120     		movs	r0, #1
 7035 1de4 FFF7FEFF 		bl	touch_read_byte
 7036 1de8 0346     		mov	r3, r0
 7037 1dea 1A46     		mov	r2, r3
 7038 1dec 094B     		ldr	r3, .L675
 7039 1dee 2344     		add	r3, r3, r4
 7040 1df0 83F82320 		strb	r2, [r3, #35]
1577:.\main.c      ****     	                for(x=0;x<=7;x++){
 7041              		.loc 1 1577 0 discriminator 3
 7042 1df4 97F82F30 		ldrb	r3, [r7, #47]	@ zero_extendqisi2
 7043 1df8 0133     		adds	r3, r3, #1
 7044 1dfa 87F82F30 		strb	r3, [r7, #47]
 7045              	.L334:
1577:.\main.c      ****     	                for(x=0;x<=7;x++){
 7046              		.loc 1 1577 0 is_stmt 0 discriminator 1
ARM GAS  C:\Users\RECEPC~1\AppData\Local\Temp\ccU7e2eq.s 			page 156


 7047 1dfe 97F82F30 		ldrb	r3, [r7, #47]	@ zero_extendqisi2
 7048 1e02 072B     		cmp	r3, #7
 7049 1e04 EBD9     		bls	.L335
1579:.\main.c      ****     	                }
1580:.\main.c      ****     				    crc_total=0;
 7050              		.loc 1 1580 0 is_stmt 1
 7051 1e06 0B4B     		ldr	r3, .L675+32
 7052 1e08 0022     		movs	r2, #0
 7053 1e0a 1A70     		strb	r2, [r3]
1581:.\main.c      ****     				    for(x=0;x<7;x++){
 7054              		.loc 1 1581 0
 7055 1e0c 0023     		movs	r3, #0
 7056 1e0e 87F82F30 		strb	r3, [r7, #47]
 7057 1e12 32E0     		b	.L336
 7058              	.L676:
 7059              		.align	2
 7060              	.L675:
 7061 1e14 00000000 		.word	rventa2
 7062 1e18 00000000 		.word	rf_mod
 7063 1e1c 00000000 		.word	count_protector
 7064 1e20 00000000 		.word	flujo_LCD1
 7065 1e24 00000000 		.word	lado1
 7066 1e28 00000000 		.word	pantallas
 7067 1e2c 00000000 		.word	seleccion_pos
 7068 1e30 00000000 		.word	rventa1
 7069 1e34 00000000 		.word	crc_total
 7070 1e38 00000000 		.word	count_teclas1
 7071 1e3c 00000000 		.word	teclas1
 7072 1e40 00000000 		.word	posx1
 7073 1e44 00000000 		.word	posy1
 7074 1e48 00000000 		.word	sizeletra1
 7075 1e4c 00000000 		.word	id_teclado1
 7076              	.L337:
1582:.\main.c      ****     				 	    crc_total=crc_check(crc_total,rventa2.id[x]);
 7077              		.loc 1 1582 0 discriminator 3
 7078 1e50 7F4B     		ldr	r3, .L677
 7079 1e52 1978     		ldrb	r1, [r3]	@ zero_extendqisi2
 7080 1e54 97F82F30 		ldrb	r3, [r7, #47]	@ zero_extendqisi2
 7081 1e58 7E4A     		ldr	r2, .L677+4
 7082 1e5a 1344     		add	r3, r3, r2
 7083 1e5c 93F82330 		ldrb	r3, [r3, #35]	@ zero_extendqisi2
 7084 1e60 0846     		mov	r0, r1
 7085 1e62 1946     		mov	r1, r3
 7086 1e64 FFF7FEFF 		bl	crc_check
 7087 1e68 0346     		mov	r3, r0
 7088 1e6a 1A46     		mov	r2, r3
 7089 1e6c 784B     		ldr	r3, .L677
 7090 1e6e 1A70     		strb	r2, [r3]
1581:.\main.c      ****     				    for(x=0;x<7;x++){
 7091              		.loc 1 1581 0 discriminator 3
 7092 1e70 97F82F30 		ldrb	r3, [r7, #47]	@ zero_extendqisi2
 7093 1e74 0133     		adds	r3, r3, #1
 7094 1e76 87F82F30 		strb	r3, [r7, #47]
 7095              	.L336:
1581:.\main.c      ****     				    for(x=0;x<7;x++){
 7096              		.loc 1 1581 0 is_stmt 0 discriminator 1
 7097 1e7a 97F82F30 		ldrb	r3, [r7, #47]	@ zero_extendqisi2
ARM GAS  C:\Users\RECEPC~1\AppData\Local\Temp\ccU7e2eq.s 			page 157


 7098 1e7e 062B     		cmp	r3, #6
 7099 1e80 E6D9     		bls	.L337
1583:.\main.c      ****     				    }					
1584:.\main.c      ****     				    if(crc_total==rventa2.id[7]){
 7100              		.loc 1 1584 0 is_stmt 1
 7101 1e82 744B     		ldr	r3, .L677+4
 7102 1e84 93F82A20 		ldrb	r2, [r3, #42]	@ zero_extendqisi2
 7103 1e88 714B     		ldr	r3, .L677
 7104 1e8a 1B78     		ldrb	r3, [r3]	@ zero_extendqisi2
 7105 1e8c 9A42     		cmp	r2, r3
 7106 1e8e 42D1     		bne	.L333
1585:.\main.c      ****     		                set_imagen(1,19);
 7107              		.loc 1 1585 0
 7108 1e90 0120     		movs	r0, #1
 7109 1e92 1321     		movs	r1, #19
 7110 1e94 FFF7FEFF 		bl	set_imagen
1586:.\main.c      ****     		                CyDelay(500);					 				 
 7111              		.loc 1 1586 0
 7112 1e98 4FF4FA70 		mov	r0, #500
 7113 1e9c FFF7FEFF 		bl	CyDelay
1587:.\main.c      ****     					    count_teclas1=0;							//Inicia el contador de teclas						    
 7114              		.loc 1 1587 0
 7115 1ea0 6D4B     		ldr	r3, .L677+8
 7116 1ea2 0022     		movs	r2, #0
 7117 1ea4 1A70     		strb	r2, [r3]
1588:.\main.c      ****     					    teclas1=10;
 7118              		.loc 1 1588 0
 7119 1ea6 6D4B     		ldr	r3, .L677+12
 7120 1ea8 0A22     		movs	r2, #10
 7121 1eaa 1A70     		strb	r2, [r3]
1589:.\main.c      ****     					    posx1=2;
 7122              		.loc 1 1589 0
 7123 1eac 6C4B     		ldr	r3, .L677+16
 7124 1eae 0222     		movs	r2, #2
 7125 1eb0 1A80     		strh	r2, [r3]	@ movhi
1590:.\main.c      ****     					    posy1=3;
 7126              		.loc 1 1590 0
 7127 1eb2 6C4B     		ldr	r3, .L677+20
 7128 1eb4 0322     		movs	r2, #3
 7129 1eb6 1A80     		strh	r2, [r3]	@ movhi
1591:.\main.c      ****     					    sizeletra1=1;	                        
 7130              		.loc 1 1591 0
 7131 1eb8 6B4B     		ldr	r3, .L677+24
 7132 1eba 0122     		movs	r2, #1
 7133 1ebc 1A80     		strh	r2, [r3]	@ movhi
1592:.\main.c      ****                             if(id_teclado1 ==10){
 7134              		.loc 1 1592 0
 7135 1ebe 6B4B     		ldr	r3, .L677+28
 7136 1ec0 1B78     		ldrb	r3, [r3]
 7137 1ec2 DBB2     		uxtb	r3, r3
 7138 1ec4 0A2B     		cmp	r3, #10
 7139 1ec6 06D1     		bne	.L338
1593:.\main.c      ****                                 set_imagen(1,19);
 7140              		.loc 1 1593 0
 7141 1ec8 0120     		movs	r0, #1
 7142 1eca 1321     		movs	r1, #19
 7143 1ecc FFF7FEFF 		bl	set_imagen
ARM GAS  C:\Users\RECEPC~1\AppData\Local\Temp\ccU7e2eq.s 			page 158


1594:.\main.c      ****                                 flujo_LCD1 = 19;
 7144              		.loc 1 1594 0
 7145 1ed0 674B     		ldr	r3, .L677+32
 7146 1ed2 1322     		movs	r2, #19
 7147 1ed4 1A70     		strb	r2, [r3]
 7148              	.L338:
1595:.\main.c      ****                             }
1596:.\main.c      ****                             if(id_teclado1 ==8){
 7149              		.loc 1 1596 0
 7150 1ed6 654B     		ldr	r3, .L677+28
 7151 1ed8 1B78     		ldrb	r3, [r3]
 7152 1eda DBB2     		uxtb	r3, r3
 7153 1edc 082B     		cmp	r3, #8
 7154 1ede 06D1     		bne	.L339
1597:.\main.c      ****                                 set_imagen(1,36);
 7155              		.loc 1 1597 0
 7156 1ee0 0120     		movs	r0, #1
 7157 1ee2 2421     		movs	r1, #36
 7158 1ee4 FFF7FEFF 		bl	set_imagen
1598:.\main.c      ****                                 flujo_LCD1 = 12;
 7159              		.loc 1 1598 0
 7160 1ee8 614B     		ldr	r3, .L677+32
 7161 1eea 0C22     		movs	r2, #12
 7162 1eec 1A70     		strb	r2, [r3]
 7163              	.L339:
1599:.\main.c      ****                             }
1600:.\main.c      ****                             if(id_teclado1 !=8 && id_teclado1 !=10){
 7164              		.loc 1 1600 0
 7165 1eee 5F4B     		ldr	r3, .L677+28
 7166 1ef0 1B78     		ldrb	r3, [r3]
 7167 1ef2 DBB2     		uxtb	r3, r3
 7168 1ef4 082B     		cmp	r3, #8
 7169 1ef6 0ED0     		beq	.L333
 7170              		.loc 1 1600 0 is_stmt 0 discriminator 1
 7171 1ef8 5C4B     		ldr	r3, .L677+28
 7172 1efa 1B78     		ldrb	r3, [r3]
 7173 1efc DBB2     		uxtb	r3, r3
 7174 1efe 0A2B     		cmp	r3, #10
 7175 1f00 09D0     		beq	.L333
1601:.\main.c      ****                                 id_teclado1=2;
 7176              		.loc 1 1601 0 is_stmt 1
 7177 1f02 5A4B     		ldr	r3, .L677+28
 7178 1f04 0222     		movs	r2, #2
 7179 1f06 1A70     		strb	r2, [r3]
1602:.\main.c      ****                                 set_imagen(1,14);
 7180              		.loc 1 1602 0
 7181 1f08 0120     		movs	r0, #1
 7182 1f0a 0E21     		movs	r1, #14
 7183 1f0c FFF7FEFF 		bl	set_imagen
1603:.\main.c      ****                                 flujo_LCD1=12;
 7184              		.loc 1 1603 0
 7185 1f10 574B     		ldr	r3, .L677+32
 7186 1f12 0C22     		movs	r2, #12
 7187 1f14 1A70     		strb	r2, [r3]
 7188              	.L333:
1604:.\main.c      ****                             }
1605:.\main.c      ****     					    	
ARM GAS  C:\Users\RECEPC~1\AppData\Local\Temp\ccU7e2eq.s 			page 159


1606:.\main.c      ****     				    }   
1607:.\main.c      ****                     }
1608:.\main.c      ****                 }  
1609:.\main.c      ****             }
1610:.\main.c      ****             
1611:.\main.c      ****             if(LCD_1_GetRxBufferSize()==8){
 7189              		.loc 1 1611 0
 7190 1f16 FFF7FEFF 		bl	LCD_1_GetRxBufferSize
 7191 1f1a 0346     		mov	r3, r0
 7192 1f1c 082B     		cmp	r3, #8
 7193 1f1e 1ED1     		bne	.L340
1612:.\main.c      ****                 if((LCD_1_rxBuffer[0]==0xAA) && (LCD_1_rxBuffer[6]==0xC3) && (LCD_1_rxBuffer[7]==0x
 7194              		.loc 1 1612 0
 7195 1f20 544B     		ldr	r3, .L677+36
 7196 1f22 1B78     		ldrb	r3, [r3]
 7197 1f24 DBB2     		uxtb	r3, r3
 7198 1f26 AA2B     		cmp	r3, #170
 7199 1f28 12D1     		bne	.L341
 7200              		.loc 1 1612 0 is_stmt 0 discriminator 1
 7201 1f2a 524B     		ldr	r3, .L677+36
 7202 1f2c 9B79     		ldrb	r3, [r3, #6]
 7203 1f2e DBB2     		uxtb	r3, r3
 7204 1f30 C32B     		cmp	r3, #195
 7205 1f32 0DD1     		bne	.L341
 7206              		.loc 1 1612 0 discriminator 2
 7207 1f34 4F4B     		ldr	r3, .L677+36
 7208 1f36 DB79     		ldrb	r3, [r3, #7]
 7209 1f38 DBB2     		uxtb	r3, r3
 7210 1f3a 3C2B     		cmp	r3, #60
 7211 1f3c 08D1     		bne	.L341
1613:.\main.c      ****                     switch(LCD_1_rxBuffer[3]){
 7212              		.loc 1 1613 0 is_stmt 1
 7213 1f3e 4D4B     		ldr	r3, .L677+36
 7214 1f40 DB78     		ldrb	r3, [r3, #3]
 7215 1f42 DBB2     		uxtb	r3, r3
 7216 1f44 3B2B     		cmp	r3, #59
 7217 1f46 03D1     		bne	.L341
1614:.\main.c      ****                         case 0x3B:
1615:.\main.c      ****                             flujo_LCD1=0; 
 7218              		.loc 1 1615 0
 7219 1f48 494B     		ldr	r3, .L677+32
 7220 1f4a 0022     		movs	r2, #0
 7221 1f4c 1A70     		strb	r2, [r3]
1616:.\main.c      ****                         break; 
 7222              		.loc 1 1616 0
 7223 1f4e 00BF     		nop
 7224              	.L341:
1617:.\main.c      ****                     }
1618:.\main.c      ****                 }
1619:.\main.c      ****                 CyDelay(100);            
 7225              		.loc 1 1619 0
 7226 1f50 6420     		movs	r0, #100
 7227 1f52 FFF7FEFF 		bl	CyDelay
1620:.\main.c      ****                 LCD_1_ClearRxBuffer();            
 7228              		.loc 1 1620 0
 7229 1f56 FFF7FEFF 		bl	LCD_1_ClearRxBuffer
1621:.\main.c      ****         }		
ARM GAS  C:\Users\RECEPC~1\AppData\Local\Temp\ccU7e2eq.s 			page 160


1622:.\main.c      **** 		break;
 7230              		.loc 1 1622 0
 7231 1f5a 02F047BD 		b	.L117
 7232              	.L340:
 7233              		.loc 1 1622 0 is_stmt 0 discriminator 13
 7234 1f5e 02F045BD 		b	.L117
 7235              	.L130:
1623:.\main.c      **** 
1624:.\main.c      ****         
1625:.\main.c      ****         
1626:.\main.c      **** case 12: 
1627:.\main.c      ****         if(seleccion_pos == 1){
 7236              		.loc 1 1627 0 is_stmt 1
 7237 1f62 454B     		ldr	r3, .L677+40
 7238 1f64 1B78     		ldrb	r3, [r3]
 7239 1f66 DBB2     		uxtb	r3, r3
 7240 1f68 012B     		cmp	r3, #1
 7241 1f6a 40F0A885 		bne	.L343
1628:.\main.c      ****          if(LCD_1_GetRxBufferSize()==8){
 7242              		.loc 1 1628 0
 7243 1f6e FFF7FEFF 		bl	LCD_1_GetRxBufferSize
 7244 1f72 0346     		mov	r3, r0
 7245 1f74 082B     		cmp	r3, #8
 7246 1f76 40F0A285 		bne	.L343
1629:.\main.c      ****             if((LCD_1_rxBuffer[0]==0xAA) && (LCD_1_rxBuffer[6]==0xC3) && (LCD_1_rxBuffer[7]==0x3C))
 7247              		.loc 1 1629 0
 7248 1f7a 3E4B     		ldr	r3, .L677+36
 7249 1f7c 1B78     		ldrb	r3, [r3]
 7250 1f7e DBB2     		uxtb	r3, r3
 7251 1f80 AA2B     		cmp	r3, #170
 7252 1f82 40F09A85 		bne	.L344
 7253              		.loc 1 1629 0 is_stmt 0 discriminator 1
 7254 1f86 3B4B     		ldr	r3, .L677+36
 7255 1f88 9B79     		ldrb	r3, [r3, #6]
 7256 1f8a DBB2     		uxtb	r3, r3
 7257 1f8c C32B     		cmp	r3, #195
 7258 1f8e 40F09485 		bne	.L344
 7259              		.loc 1 1629 0 discriminator 2
 7260 1f92 384B     		ldr	r3, .L677+36
 7261 1f94 DB79     		ldrb	r3, [r3, #7]
 7262 1f96 DBB2     		uxtb	r3, r3
 7263 1f98 3C2B     		cmp	r3, #60
 7264 1f9a 40F08E85 		bne	.L344
1630:.\main.c      **** 				count_protector=0;
 7265              		.loc 1 1630 0 is_stmt 1
 7266 1f9e 374B     		ldr	r3, .L677+44
 7267 1fa0 0022     		movs	r2, #0
 7268 1fa2 1A70     		strb	r2, [r3]
1631:.\main.c      ****                 if(count_teclas1<teclas1){									
 7269              		.loc 1 1631 0
 7270 1fa4 2C4B     		ldr	r3, .L677+8
 7271 1fa6 1B78     		ldrb	r3, [r3]
 7272 1fa8 DAB2     		uxtb	r2, r3
 7273 1faa 2C4B     		ldr	r3, .L677+12
 7274 1fac 1B78     		ldrb	r3, [r3]
 7275 1fae DBB2     		uxtb	r3, r3
 7276 1fb0 9A42     		cmp	r2, r3
ARM GAS  C:\Users\RECEPC~1\AppData\Local\Temp\ccU7e2eq.s 			page 161


 7277 1fb2 80F0D780 		bcs	.L345
1632:.\main.c      ****                     if(LCD_1_rxBuffer[3]<=9){								//Numero de 1-9
 7278              		.loc 1 1632 0
 7279 1fb6 2F4B     		ldr	r3, .L677+36
 7280 1fb8 DB78     		ldrb	r3, [r3, #3]
 7281 1fba DBB2     		uxtb	r3, r3
 7282 1fbc 092B     		cmp	r3, #9
 7283 1fbe 32D8     		bhi	.L346
1633:.\main.c      ****                         count_teclas1++;
 7284              		.loc 1 1633 0
 7285 1fc0 254B     		ldr	r3, .L677+8
 7286 1fc2 1B78     		ldrb	r3, [r3]
 7287 1fc4 DBB2     		uxtb	r3, r3
 7288 1fc6 0133     		adds	r3, r3, #1
 7289 1fc8 DAB2     		uxtb	r2, r3
 7290 1fca 234B     		ldr	r3, .L677+8
 7291 1fcc 1A70     		strb	r2, [r3]
1634:.\main.c      ****                         Buffer_LCD1[count_teclas1]=LCD_1_rxBuffer[3];
 7292              		.loc 1 1634 0
 7293 1fce 224B     		ldr	r3, .L677+8
 7294 1fd0 1B78     		ldrb	r3, [r3]
 7295 1fd2 DBB2     		uxtb	r3, r3
 7296 1fd4 1A46     		mov	r2, r3
 7297 1fd6 274B     		ldr	r3, .L677+36
 7298 1fd8 DB78     		ldrb	r3, [r3, #3]
 7299 1fda D9B2     		uxtb	r1, r3
 7300 1fdc 284B     		ldr	r3, .L677+48
 7301 1fde 9954     		strb	r1, [r3, r2]
1635:.\main.c      ****                         write_LCD(1,(LCD_1_rxBuffer[3]+0x30), posy1, ((count_teclas1*(sizeletra1+1)
 7302              		.loc 1 1635 0
 7303 1fe0 244B     		ldr	r3, .L677+36
 7304 1fe2 DB78     		ldrb	r3, [r3, #3]
 7305 1fe4 DBB2     		uxtb	r3, r3
 7306 1fe6 3033     		adds	r3, r3, #48
 7307 1fe8 D9B2     		uxtb	r1, r3
 7308 1fea 1E4B     		ldr	r3, .L677+20
 7309 1fec 1B88     		ldrh	r3, [r3]	@ movhi
 7310 1fee 9DB2     		uxth	r5, r3
 7311 1ff0 194B     		ldr	r3, .L677+8
 7312 1ff2 1B78     		ldrb	r3, [r3]
 7313 1ff4 DBB2     		uxtb	r3, r3
 7314 1ff6 9BB2     		uxth	r3, r3
 7315 1ff8 1B4A     		ldr	r2, .L677+24
 7316 1ffa 1288     		ldrh	r2, [r2]	@ movhi
 7317 1ffc 92B2     		uxth	r2, r2
 7318 1ffe 0132     		adds	r2, r2, #1
 7319 2000 92B2     		uxth	r2, r2
 7320 2002 02FB03F3 		mul	r3, r2, r3
 7321 2006 9AB2     		uxth	r2, r3
 7322 2008 154B     		ldr	r3, .L677+16
 7323 200a 1B88     		ldrh	r3, [r3]	@ movhi
 7324 200c 9BB2     		uxth	r3, r3
 7325 200e 1344     		add	r3, r3, r2
 7326 2010 9CB2     		uxth	r4, r3
 7327 2012 154B     		ldr	r3, .L677+24
 7328 2014 1B88     		ldrh	r3, [r3]	@ movhi
 7329 2016 9BB2     		uxth	r3, r3
ARM GAS  C:\Users\RECEPC~1\AppData\Local\Temp\ccU7e2eq.s 			page 162


 7330 2018 DBB2     		uxtb	r3, r3
 7331 201a 0093     		str	r3, [sp]
 7332 201c 0120     		movs	r0, #1
 7333 201e 2A46     		mov	r2, r5
 7334 2020 2346     		mov	r3, r4
 7335 2022 FFF7FEFF 		bl	write_LCD
 7336              	.L346:
1636:.\main.c      ****                     }
1637:.\main.c      ****                     if(LCD_1_rxBuffer[3]==0x0A){            				//Comando de 0
 7337              		.loc 1 1637 0
 7338 2026 134B     		ldr	r3, .L677+36
 7339 2028 DB78     		ldrb	r3, [r3, #3]
 7340 202a DBB2     		uxtb	r3, r3
 7341 202c 0A2B     		cmp	r3, #10
 7342 202e 56D1     		bne	.L347
1638:.\main.c      **** 						if((id_teclado1==1)&&(count_teclas1==1)&&(Buffer_LCD1[1]==0)){
 7343              		.loc 1 1638 0
 7344 2030 0E4B     		ldr	r3, .L677+28
 7345 2032 1B78     		ldrb	r3, [r3]
 7346 2034 DBB2     		uxtb	r3, r3
 7347 2036 012B     		cmp	r3, #1
 7348 2038 24D1     		bne	.L348
 7349              		.loc 1 1638 0 is_stmt 0 discriminator 1
 7350 203a 074B     		ldr	r3, .L677+8
 7351 203c 1B78     		ldrb	r3, [r3]
 7352 203e DBB2     		uxtb	r3, r3
 7353 2040 012B     		cmp	r3, #1
 7354 2042 1FD1     		bne	.L348
 7355              		.loc 1 1638 0 discriminator 2
 7356 2044 0E4B     		ldr	r3, .L677+48
 7357 2046 5B78     		ldrb	r3, [r3, #1]
 7358 2048 DBB2     		uxtb	r3, r3
 7359 204a 002B     		cmp	r3, #0
 7360 204c 1AD1     		bne	.L348
 7361              		.loc 1 1638 0
 7362 204e 46E0     		b	.L347
 7363              	.L678:
 7364              		.align	2
 7365              	.L677:
 7366 2050 00000000 		.word	crc_total
 7367 2054 00000000 		.word	rventa2
 7368 2058 00000000 		.word	count_teclas1
 7369 205c 00000000 		.word	teclas1
 7370 2060 00000000 		.word	posx1
 7371 2064 00000000 		.word	posy1
 7372 2068 00000000 		.word	sizeletra1
 7373 206c 00000000 		.word	id_teclado1
 7374 2070 00000000 		.word	flujo_LCD1
 7375 2074 00000000 		.word	LCD_1_rxBuffer
 7376 2078 00000000 		.word	seleccion_pos
 7377 207c 00000000 		.word	count_protector
 7378 2080 00000000 		.word	Buffer_LCD1
 7379              	.L348:
1639:.\main.c      **** 						}
1640:.\main.c      **** 						else{
1641:.\main.c      **** 	                        count_teclas1++;
 7380              		.loc 1 1641 0 is_stmt 1
ARM GAS  C:\Users\RECEPC~1\AppData\Local\Temp\ccU7e2eq.s 			page 163


 7381 2084 AF4B     		ldr	r3, .L679
 7382 2086 1B78     		ldrb	r3, [r3]
 7383 2088 DBB2     		uxtb	r3, r3
 7384 208a 0133     		adds	r3, r3, #1
 7385 208c DAB2     		uxtb	r2, r3
 7386 208e AD4B     		ldr	r3, .L679
 7387 2090 1A70     		strb	r2, [r3]
1642:.\main.c      **** 	                        Buffer_LCD1[count_teclas1]=0;
 7388              		.loc 1 1642 0
 7389 2092 AC4B     		ldr	r3, .L679
 7390 2094 1B78     		ldrb	r3, [r3]
 7391 2096 DBB2     		uxtb	r3, r3
 7392 2098 1A46     		mov	r2, r3
 7393 209a AB4B     		ldr	r3, .L679+4
 7394 209c 0021     		movs	r1, #0
 7395 209e 9954     		strb	r1, [r3, r2]
1643:.\main.c      **** 							write_LCD(1,0x30, posy1, ((count_teclas1*(sizeletra1+1))+posx1), sizeletra1);
 7396              		.loc 1 1643 0
 7397 20a0 AA4B     		ldr	r3, .L679+8
 7398 20a2 1B88     		ldrh	r3, [r3]	@ movhi
 7399 20a4 9DB2     		uxth	r5, r3
 7400 20a6 A74B     		ldr	r3, .L679
 7401 20a8 1B78     		ldrb	r3, [r3]
 7402 20aa DBB2     		uxtb	r3, r3
 7403 20ac 9BB2     		uxth	r3, r3
 7404 20ae A84A     		ldr	r2, .L679+12
 7405 20b0 1288     		ldrh	r2, [r2]	@ movhi
 7406 20b2 92B2     		uxth	r2, r2
 7407 20b4 0132     		adds	r2, r2, #1
 7408 20b6 92B2     		uxth	r2, r2
 7409 20b8 02FB03F3 		mul	r3, r2, r3
 7410 20bc 9AB2     		uxth	r2, r3
 7411 20be A54B     		ldr	r3, .L679+16
 7412 20c0 1B88     		ldrh	r3, [r3]	@ movhi
 7413 20c2 9BB2     		uxth	r3, r3
 7414 20c4 1344     		add	r3, r3, r2
 7415 20c6 9CB2     		uxth	r4, r3
 7416 20c8 A14B     		ldr	r3, .L679+12
 7417 20ca 1B88     		ldrh	r3, [r3]	@ movhi
 7418 20cc 9BB2     		uxth	r3, r3
 7419 20ce DBB2     		uxtb	r3, r3
 7420 20d0 0093     		str	r3, [sp]
 7421 20d2 0120     		movs	r0, #1
 7422 20d4 3021     		movs	r1, #48
 7423 20d6 2A46     		mov	r2, r5
 7424 20d8 2346     		mov	r3, r4
 7425 20da FFF7FEFF 		bl	write_LCD
 7426              	.L347:
1644:.\main.c      **** 						}
1645:.\main.c      ****                     }  
1646:.\main.c      ****                     if(LCD_1_rxBuffer[3]==0x51){            	 			//Comando de Coma
 7427              		.loc 1 1646 0
 7428 20de 9E4B     		ldr	r3, .L679+20
 7429 20e0 DB78     		ldrb	r3, [r3, #3]
 7430 20e2 DBB2     		uxtb	r3, r3
 7431 20e4 512B     		cmp	r3, #81
 7432 20e6 3DD1     		bne	.L345
ARM GAS  C:\Users\RECEPC~1\AppData\Local\Temp\ccU7e2eq.s 			page 164


1647:.\main.c      ****                         if(count_teclas1>=1 && comas1==0){
 7433              		.loc 1 1647 0
 7434 20e8 964B     		ldr	r3, .L679
 7435 20ea 1B78     		ldrb	r3, [r3]
 7436 20ec DBB2     		uxtb	r3, r3
 7437 20ee 002B     		cmp	r3, #0
 7438 20f0 38D0     		beq	.L345
 7439              		.loc 1 1647 0 is_stmt 0 discriminator 1
 7440 20f2 9A4B     		ldr	r3, .L679+24
 7441 20f4 1B78     		ldrb	r3, [r3]
 7442 20f6 DBB2     		uxtb	r3, r3
 7443 20f8 002B     		cmp	r3, #0
 7444 20fa 33D1     		bne	.L345
1648:.\main.c      ****                             count_teclas1++;
 7445              		.loc 1 1648 0 is_stmt 1
 7446 20fc 914B     		ldr	r3, .L679
 7447 20fe 1B78     		ldrb	r3, [r3]
 7448 2100 DBB2     		uxtb	r3, r3
 7449 2102 0133     		adds	r3, r3, #1
 7450 2104 DAB2     		uxtb	r2, r3
 7451 2106 8F4B     		ldr	r3, .L679
 7452 2108 1A70     		strb	r2, [r3]
1649:.\main.c      ****                             Buffer_LCD1[count_teclas1]=id_coma1;
 7453              		.loc 1 1649 0
 7454 210a 8E4B     		ldr	r3, .L679
 7455 210c 1B78     		ldrb	r3, [r3]
 7456 210e DBB2     		uxtb	r3, r3
 7457 2110 1A46     		mov	r2, r3
 7458 2112 934B     		ldr	r3, .L679+28
 7459 2114 1B78     		ldrb	r3, [r3]
 7460 2116 D9B2     		uxtb	r1, r3
 7461 2118 8B4B     		ldr	r3, .L679+4
 7462 211a 9954     		strb	r1, [r3, r2]
1650:.\main.c      **** 							write_LCD(1,id_coma1, posy1, ((count_teclas1*(sizeletra1+1))+posx1), sizeletra1);
 7463              		.loc 1 1650 0
 7464 211c 904B     		ldr	r3, .L679+28
 7465 211e 1B78     		ldrb	r3, [r3]
 7466 2120 D9B2     		uxtb	r1, r3
 7467 2122 8A4B     		ldr	r3, .L679+8
 7468 2124 1B88     		ldrh	r3, [r3]	@ movhi
 7469 2126 9DB2     		uxth	r5, r3
 7470 2128 864B     		ldr	r3, .L679
 7471 212a 1B78     		ldrb	r3, [r3]
 7472 212c DBB2     		uxtb	r3, r3
 7473 212e 9BB2     		uxth	r3, r3
 7474 2130 874A     		ldr	r2, .L679+12
 7475 2132 1288     		ldrh	r2, [r2]	@ movhi
 7476 2134 92B2     		uxth	r2, r2
 7477 2136 0132     		adds	r2, r2, #1
 7478 2138 92B2     		uxth	r2, r2
 7479 213a 02FB03F3 		mul	r3, r2, r3
 7480 213e 9AB2     		uxth	r2, r3
 7481 2140 844B     		ldr	r3, .L679+16
 7482 2142 1B88     		ldrh	r3, [r3]	@ movhi
 7483 2144 9BB2     		uxth	r3, r3
 7484 2146 1344     		add	r3, r3, r2
 7485 2148 9CB2     		uxth	r4, r3
ARM GAS  C:\Users\RECEPC~1\AppData\Local\Temp\ccU7e2eq.s 			page 165


 7486 214a 814B     		ldr	r3, .L679+12
 7487 214c 1B88     		ldrh	r3, [r3]	@ movhi
 7488 214e 9BB2     		uxth	r3, r3
 7489 2150 DBB2     		uxtb	r3, r3
 7490 2152 0093     		str	r3, [sp]
 7491 2154 0120     		movs	r0, #1
 7492 2156 2A46     		mov	r2, r5
 7493 2158 2346     		mov	r3, r4
 7494 215a FFF7FEFF 		bl	write_LCD
1651:.\main.c      ****                             comas1=1;
 7495              		.loc 1 1651 0
 7496 215e 7F4B     		ldr	r3, .L679+24
 7497 2160 0122     		movs	r2, #1
 7498 2162 1A70     		strb	r2, [r3]
 7499              	.L345:
1652:.\main.c      ****                         }
1653:.\main.c      ****                     }                    
1654:.\main.c      ****                 }                                
1655:.\main.c      ****                 if(LCD_1_rxBuffer[3]==0x0B){								//Cancel
 7500              		.loc 1 1655 0
 7501 2164 7C4B     		ldr	r3, .L679+20
 7502 2166 DB78     		ldrb	r3, [r3, #3]
 7503 2168 DBB2     		uxtb	r3, r3
 7504 216a 0B2B     		cmp	r3, #11
 7505 216c 40F0A080 		bne	.L349
1656:.\main.c      ****                     if(count_teclas1==0){
 7506              		.loc 1 1656 0
 7507 2170 744B     		ldr	r3, .L679
 7508 2172 1B78     		ldrb	r3, [r3]
 7509 2174 DBB2     		uxtb	r3, r3
 7510 2176 002B     		cmp	r3, #0
 7511 2178 5ED1     		bne	.L350
1657:.\main.c      **** 						switch(id_teclado1){
 7512              		.loc 1 1657 0
 7513 217a 7A4B     		ldr	r3, .L679+32
 7514 217c 1B78     		ldrb	r3, [r3]
 7515 217e DBB2     		uxtb	r3, r3
 7516 2180 013B     		subs	r3, r3, #1
 7517 2182 072B     		cmp	r3, #7
 7518 2184 00F29480 		bhi	.L349
 7519 2188 01A2     		adr	r2, .L353
 7520 218a 52F823F0 		ldr	pc, [r2, r3, lsl #2]
 7521 218e 00BF     		.p2align 2
 7522              	.L353:
 7523 2190 B1210000 		.word	.L352+1
 7524 2194 C1210000 		.word	.L354+1
 7525 2198 C9210000 		.word	.L355+1
 7526 219c DF210000 		.word	.L356+1
 7527 21a0 F5210000 		.word	.L357+1
 7528 21a4 0B220000 		.word	.L358+1
 7529 21a8 B1220000 		.word	.L349+1
 7530 21ac 21220000 		.word	.L359+1
 7531              		.p2align 1
 7532              	.L352:
1658:.\main.c      **** 							case 1:
1659:.\main.c      **** 							set_imagen(1,5);
 7533              		.loc 1 1659 0
ARM GAS  C:\Users\RECEPC~1\AppData\Local\Temp\ccU7e2eq.s 			page 166


 7534 21b0 0120     		movs	r0, #1
 7535 21b2 0521     		movs	r1, #5
 7536 21b4 FFF7FEFF 		bl	set_imagen
1660:.\main.c      **** 							flujo_LCD1=4;
 7537              		.loc 1 1660 0
 7538 21b8 6B4B     		ldr	r3, .L679+36
 7539 21ba 0422     		movs	r2, #4
 7540 21bc 1A70     		strb	r2, [r3]
1661:.\main.c      **** 							break;
 7541              		.loc 1 1661 0
 7542 21be 3AE0     		b	.L351
 7543              	.L354:
1662:.\main.c      **** 							case 2:
1663:.\main.c      **** 	                        flujo_LCD1=0;	
 7544              		.loc 1 1663 0
 7545 21c0 694B     		ldr	r3, .L679+36
 7546 21c2 0022     		movs	r2, #0
 7547 21c4 1A70     		strb	r2, [r3]
1664:.\main.c      **** 							break;
 7548              		.loc 1 1664 0
 7549 21c6 36E0     		b	.L351
 7550              	.L355:
1665:.\main.c      **** 							case 3:
1666:.\main.c      **** 							set_imagen(1,0);
 7551              		.loc 1 1666 0
 7552 21c8 0120     		movs	r0, #1
 7553 21ca 0021     		movs	r1, #0
 7554 21cc FFF7FEFF 		bl	set_imagen
1667:.\main.c      **** 							flujo_LCD1=0;
 7555              		.loc 1 1667 0
 7556 21d0 654B     		ldr	r3, .L679+36
 7557 21d2 0022     		movs	r2, #0
 7558 21d4 1A70     		strb	r2, [r3]
1668:.\main.c      **** 							lado1.estado=libre;
 7559              		.loc 1 1668 0
 7560 21d6 654B     		ldr	r3, .L679+40
 7561 21d8 0122     		movs	r2, #1
 7562 21da 5A70     		strb	r2, [r3, #1]
1669:.\main.c      **** 							break;
 7563              		.loc 1 1669 0
 7564 21dc 2BE0     		b	.L351
 7565              	.L356:
1670:.\main.c      **** 							case 4:
1671:.\main.c      **** 							set_imagen(1,0);
 7566              		.loc 1 1671 0
 7567 21de 0120     		movs	r0, #1
 7568 21e0 0021     		movs	r1, #0
 7569 21e2 FFF7FEFF 		bl	set_imagen
1672:.\main.c      **** 							flujo_LCD1=0;
 7570              		.loc 1 1672 0
 7571 21e6 604B     		ldr	r3, .L679+36
 7572 21e8 0022     		movs	r2, #0
 7573 21ea 1A70     		strb	r2, [r3]
1673:.\main.c      **** 							lado1.estado=libre;
 7574              		.loc 1 1673 0
 7575 21ec 5F4B     		ldr	r3, .L679+40
 7576 21ee 0122     		movs	r2, #1
ARM GAS  C:\Users\RECEPC~1\AppData\Local\Temp\ccU7e2eq.s 			page 167


 7577 21f0 5A70     		strb	r2, [r3, #1]
1674:.\main.c      **** 							break;
 7578              		.loc 1 1674 0
 7579 21f2 20E0     		b	.L351
 7580              	.L357:
1675:.\main.c      ****                             case 5:
1676:.\main.c      **** 							set_imagen(1,0);
 7581              		.loc 1 1676 0
 7582 21f4 0120     		movs	r0, #1
 7583 21f6 0021     		movs	r1, #0
 7584 21f8 FFF7FEFF 		bl	set_imagen
1677:.\main.c      **** 							flujo_LCD1=0;
 7585              		.loc 1 1677 0
 7586 21fc 5A4B     		ldr	r3, .L679+36
 7587 21fe 0022     		movs	r2, #0
 7588 2200 1A70     		strb	r2, [r3]
1678:.\main.c      **** 							lado1.estado=libre;                            
 7589              		.loc 1 1678 0
 7590 2202 5A4B     		ldr	r3, .L679+40
 7591 2204 0122     		movs	r2, #1
 7592 2206 5A70     		strb	r2, [r3, #1]
1679:.\main.c      ****                             break;
 7593              		.loc 1 1679 0
 7594 2208 15E0     		b	.L351
 7595              	.L358:
1680:.\main.c      ****                             case 6:
1681:.\main.c      **** 							set_imagen(1,0);
 7596              		.loc 1 1681 0
 7597 220a 0120     		movs	r0, #1
 7598 220c 0021     		movs	r1, #0
 7599 220e FFF7FEFF 		bl	set_imagen
1682:.\main.c      **** 							flujo_LCD1=0;
 7600              		.loc 1 1682 0
 7601 2212 554B     		ldr	r3, .L679+36
 7602 2214 0022     		movs	r2, #0
 7603 2216 1A70     		strb	r2, [r3]
1683:.\main.c      **** 							lado1.estado=libre;                            
 7604              		.loc 1 1683 0
 7605 2218 544B     		ldr	r3, .L679+40
 7606 221a 0122     		movs	r2, #1
 7607 221c 5A70     		strb	r2, [r3, #1]
1684:.\main.c      ****                             break;  
 7608              		.loc 1 1684 0
 7609 221e 0AE0     		b	.L351
 7610              	.L359:
1685:.\main.c      ****                             case 8:
1686:.\main.c      **** 							set_imagen(1,0);
 7611              		.loc 1 1686 0
 7612 2220 0120     		movs	r0, #1
 7613 2222 0021     		movs	r1, #0
 7614 2224 FFF7FEFF 		bl	set_imagen
1687:.\main.c      **** 							flujo_LCD1 = 0;
 7615              		.loc 1 1687 0
 7616 2228 4F4B     		ldr	r3, .L679+36
 7617 222a 0022     		movs	r2, #0
 7618 222c 1A70     		strb	r2, [r3]
1688:.\main.c      **** 							lado1.estado=libre;                            
ARM GAS  C:\Users\RECEPC~1\AppData\Local\Temp\ccU7e2eq.s 			page 168


 7619              		.loc 1 1688 0
 7620 222e 4F4B     		ldr	r3, .L679+40
 7621 2230 0122     		movs	r2, #1
 7622 2232 5A70     		strb	r2, [r3, #1]
1689:.\main.c      ****                             break;                             
 7623              		.loc 1 1689 0
 7624 2234 00BF     		nop
 7625              	.L351:
 7626 2236 3BE0     		b	.L349
 7627              	.L350:
1690:.\main.c      **** 						}
1691:.\main.c      ****                     }
1692:.\main.c      ****                     else{
1693:.\main.c      **** 						write_LCD(1,0x20, posy1, ((count_teclas1*(sizeletra1+1))+posx1), sizeletra1);
 7628              		.loc 1 1693 0
 7629 2238 444B     		ldr	r3, .L679+8
 7630 223a 1B88     		ldrh	r3, [r3]	@ movhi
 7631 223c 9DB2     		uxth	r5, r3
 7632 223e 414B     		ldr	r3, .L679
 7633 2240 1B78     		ldrb	r3, [r3]
 7634 2242 DBB2     		uxtb	r3, r3
 7635 2244 9BB2     		uxth	r3, r3
 7636 2246 424A     		ldr	r2, .L679+12
 7637 2248 1288     		ldrh	r2, [r2]	@ movhi
 7638 224a 92B2     		uxth	r2, r2
 7639 224c 0132     		adds	r2, r2, #1
 7640 224e 92B2     		uxth	r2, r2
 7641 2250 02FB03F3 		mul	r3, r2, r3
 7642 2254 9AB2     		uxth	r2, r3
 7643 2256 3F4B     		ldr	r3, .L679+16
 7644 2258 1B88     		ldrh	r3, [r3]	@ movhi
 7645 225a 9BB2     		uxth	r3, r3
 7646 225c 1344     		add	r3, r3, r2
 7647 225e 9CB2     		uxth	r4, r3
 7648 2260 3B4B     		ldr	r3, .L679+12
 7649 2262 1B88     		ldrh	r3, [r3]	@ movhi
 7650 2264 9BB2     		uxth	r3, r3
 7651 2266 DBB2     		uxtb	r3, r3
 7652 2268 0093     		str	r3, [sp]
 7653 226a 0120     		movs	r0, #1
 7654 226c 2021     		movs	r1, #32
 7655 226e 2A46     		mov	r2, r5
 7656 2270 2346     		mov	r3, r4
 7657 2272 FFF7FEFF 		bl	write_LCD
1694:.\main.c      ****                         if(Buffer_LCD1[count_teclas1]==id_coma1){
 7658              		.loc 1 1694 0
 7659 2276 334B     		ldr	r3, .L679
 7660 2278 1B78     		ldrb	r3, [r3]
 7661 227a DBB2     		uxtb	r3, r3
 7662 227c 1A46     		mov	r2, r3
 7663 227e 324B     		ldr	r3, .L679+4
 7664 2280 9B5C     		ldrb	r3, [r3, r2]
 7665 2282 DAB2     		uxtb	r2, r3
 7666 2284 364B     		ldr	r3, .L679+28
 7667 2286 1B78     		ldrb	r3, [r3]
 7668 2288 DBB2     		uxtb	r3, r3
 7669 228a 9A42     		cmp	r2, r3
ARM GAS  C:\Users\RECEPC~1\AppData\Local\Temp\ccU7e2eq.s 			page 169


 7670 228c 02D1     		bne	.L360
1695:.\main.c      ****                             comas1=0;
 7671              		.loc 1 1695 0
 7672 228e 334B     		ldr	r3, .L679+24
 7673 2290 0022     		movs	r2, #0
 7674 2292 1A70     		strb	r2, [r3]
 7675              	.L360:
1696:.\main.c      ****                         }
1697:.\main.c      **** 						Buffer_LCD1[count_teclas1]=0;
 7676              		.loc 1 1697 0
 7677 2294 2B4B     		ldr	r3, .L679
 7678 2296 1B78     		ldrb	r3, [r3]
 7679 2298 DBB2     		uxtb	r3, r3
 7680 229a 1A46     		mov	r2, r3
 7681 229c 2A4B     		ldr	r3, .L679+4
 7682 229e 0021     		movs	r1, #0
 7683 22a0 9954     		strb	r1, [r3, r2]
1698:.\main.c      ****                         count_teclas1--;
 7684              		.loc 1 1698 0
 7685 22a2 284B     		ldr	r3, .L679
 7686 22a4 1B78     		ldrb	r3, [r3]
 7687 22a6 DBB2     		uxtb	r3, r3
 7688 22a8 013B     		subs	r3, r3, #1
 7689 22aa DAB2     		uxtb	r2, r3
 7690 22ac 254B     		ldr	r3, .L679
 7691 22ae 1A70     		strb	r2, [r3]
 7692              	.L349:
1699:.\main.c      ****                     }
1700:.\main.c      ****                 }
1701:.\main.c      ****                 if(LCD_1_rxBuffer[3]==0x0C){								//Enter
 7693              		.loc 1 1701 0
 7694 22b0 294B     		ldr	r3, .L679+20
 7695 22b2 DB78     		ldrb	r3, [r3, #3]
 7696 22b4 DBB2     		uxtb	r3, r3
 7697 22b6 0C2B     		cmp	r3, #12
 7698 22b8 40F0FF83 		bne	.L344
1702:.\main.c      **** 					switch(id_teclado1){
 7699              		.loc 1 1702 0
 7700 22bc 294B     		ldr	r3, .L679+32
 7701 22be 1B78     		ldrb	r3, [r3]
 7702 22c0 DBB2     		uxtb	r3, r3
 7703 22c2 013B     		subs	r3, r3, #1
 7704 22c4 072B     		cmp	r3, #7
 7705 22c6 00F2F883 		bhi	.L344
 7706 22ca 01A2     		adr	r2, .L362
 7707 22cc 52F823F0 		ldr	pc, [r2, r3, lsl #2]
 7708              		.p2align 2
 7709              	.L362:
 7710 22d0 F1220000 		.word	.L361+1
 7711 22d4 85240000 		.word	.L363+1
 7712 22d8 61250000 		.word	.L364+1
 7713 22dc D9250000 		.word	.L365+1
 7714 22e0 33260000 		.word	.L366+1
 7715 22e4 21270000 		.word	.L367+1
 7716 22e8 53270000 		.word	.L368+1
 7717 22ec FB280000 		.word	.L369+1
 7718              		.p2align 1
ARM GAS  C:\Users\RECEPC~1\AppData\Local\Temp\ccU7e2eq.s 			page 170


 7719              	.L361:
1703:.\main.c      **** 						case 1:
1704:.\main.c      **** 							for(x=0;x<=7;x++){
 7720              		.loc 1 1704 0
 7721 22f0 0023     		movs	r3, #0
 7722 22f2 87F82F30 		strb	r3, [r7, #47]
 7723 22f6 0CE0     		b	.L370
 7724              	.L371:
1705:.\main.c      **** 								numero[x]=0;
 7725              		.loc 1 1705 0 discriminator 3
 7726 22f8 97F82F30 		ldrb	r3, [r7, #47]	@ zero_extendqisi2
 7727 22fc 07F13002 		add	r2, r7, #48
 7728 2300 1344     		add	r3, r3, r2
 7729 2302 0022     		movs	r2, #0
 7730 2304 03F82C2C 		strb	r2, [r3, #-44]
1704:.\main.c      **** 								numero[x]=0;
 7731              		.loc 1 1704 0 discriminator 3
 7732 2308 97F82F30 		ldrb	r3, [r7, #47]	@ zero_extendqisi2
 7733 230c 0133     		adds	r3, r3, #1
 7734 230e 87F82F30 		strb	r3, [r7, #47]
 7735              	.L370:
1704:.\main.c      **** 								numero[x]=0;
 7736              		.loc 1 1704 0 is_stmt 0 discriminator 1
 7737 2312 97F82F30 		ldrb	r3, [r7, #47]	@ zero_extendqisi2
 7738 2316 072B     		cmp	r3, #7
 7739 2318 EED9     		bls	.L371
1706:.\main.c      **** 							}						
1707:.\main.c      **** 							if((count_teclas1>=1)&&(Buffer_LCD1[count_teclas1]!=',')){
 7740              		.loc 1 1707 0 is_stmt 1
 7741 231a 0A4B     		ldr	r3, .L679
 7742 231c 1B78     		ldrb	r3, [r3]
 7743 231e DBB2     		uxtb	r3, r3
 7744 2320 002B     		cmp	r3, #0
 7745 2322 00F0AE80 		beq	.L372
 7746              		.loc 1 1707 0 is_stmt 0 discriminator 1
 7747 2326 074B     		ldr	r3, .L679
 7748 2328 1B78     		ldrb	r3, [r3]
 7749 232a DBB2     		uxtb	r3, r3
 7750 232c 1A46     		mov	r2, r3
 7751 232e 064B     		ldr	r3, .L679+4
 7752 2330 9B5C     		ldrb	r3, [r3, r2]
 7753 2332 DBB2     		uxtb	r3, r3
 7754 2334 2C2B     		cmp	r3, #44
 7755 2336 00F0A480 		beq	.L372
1708:.\main.c      **** 								for(x=1;x<=count_teclas1;x++){
 7756              		.loc 1 1708 0 is_stmt 1
 7757 233a 0123     		movs	r3, #1
 7758 233c 87F82F30 		strb	r3, [r7, #47]
 7759 2340 3FE0     		b	.L373
 7760              	.L680:
 7761 2342 00BF     		.align	2
 7762              	.L679:
 7763 2344 00000000 		.word	count_teclas1
 7764 2348 00000000 		.word	Buffer_LCD1
 7765 234c 00000000 		.word	posy1
 7766 2350 00000000 		.word	sizeletra1
 7767 2354 00000000 		.word	posx1
ARM GAS  C:\Users\RECEPC~1\AppData\Local\Temp\ccU7e2eq.s 			page 171


 7768 2358 00000000 		.word	LCD_1_rxBuffer
 7769 235c 00000000 		.word	comas1
 7770 2360 00000000 		.word	id_coma1
 7771 2364 00000000 		.word	id_teclado1
 7772 2368 00000000 		.word	flujo_LCD1
 7773 236c 00000000 		.word	lado1
 7774              	.L376:
1709:.\main.c      **** 									if(Buffer_LCD1[x]!=','){
 7775              		.loc 1 1709 0
 7776 2370 97F82F30 		ldrb	r3, [r7, #47]	@ zero_extendqisi2
 7777 2374 B14A     		ldr	r2, .L681
 7778 2376 D35C     		ldrb	r3, [r2, r3]
 7779 2378 DBB2     		uxtb	r3, r3
 7780 237a 2C2B     		cmp	r3, #44
 7781 237c 0FD0     		beq	.L374
1710:.\main.c      **** 										numero[x-1]=Buffer_LCD1[x]+48;
 7782              		.loc 1 1710 0
 7783 237e 97F82F30 		ldrb	r3, [r7, #47]	@ zero_extendqisi2
 7784 2382 013B     		subs	r3, r3, #1
 7785 2384 97F82F20 		ldrb	r2, [r7, #47]	@ zero_extendqisi2
 7786 2388 AC49     		ldr	r1, .L681
 7787 238a 8A5C     		ldrb	r2, [r1, r2]
 7788 238c D2B2     		uxtb	r2, r2
 7789 238e 3032     		adds	r2, r2, #48
 7790 2390 D2B2     		uxtb	r2, r2
 7791 2392 07F13001 		add	r1, r7, #48
 7792 2396 0B44     		add	r3, r3, r1
 7793 2398 03F82C2C 		strb	r2, [r3, #-44]
 7794 239c 0CE0     		b	.L375
 7795              	.L374:
1711:.\main.c      **** 									}
1712:.\main.c      **** 									else{
1713:.\main.c      **** 										numero[x-1]=Buffer_LCD1[x];
 7796              		.loc 1 1713 0
 7797 239e 97F82F30 		ldrb	r3, [r7, #47]	@ zero_extendqisi2
 7798 23a2 013B     		subs	r3, r3, #1
 7799 23a4 97F82F20 		ldrb	r2, [r7, #47]	@ zero_extendqisi2
 7800 23a8 A449     		ldr	r1, .L681
 7801 23aa 8A5C     		ldrb	r2, [r1, r2]
 7802 23ac D2B2     		uxtb	r2, r2
 7803 23ae 07F13001 		add	r1, r7, #48
 7804 23b2 0B44     		add	r3, r3, r1
 7805 23b4 03F82C2C 		strb	r2, [r3, #-44]
 7806              	.L375:
1708:.\main.c      **** 									if(Buffer_LCD1[x]!=','){
 7807              		.loc 1 1708 0 discriminator 2
 7808 23b8 97F82F30 		ldrb	r3, [r7, #47]	@ zero_extendqisi2
 7809 23bc 0133     		adds	r3, r3, #1
 7810 23be 87F82F30 		strb	r3, [r7, #47]
 7811              	.L373:
1708:.\main.c      **** 									if(Buffer_LCD1[x]!=','){
 7812              		.loc 1 1708 0 is_stmt 0 discriminator 1
 7813 23c2 9F4B     		ldr	r3, .L681+4
 7814 23c4 1B78     		ldrb	r3, [r3]
 7815 23c6 DBB2     		uxtb	r3, r3
 7816 23c8 97F82F20 		ldrb	r2, [r7, #47]	@ zero_extendqisi2
 7817 23cc 9A42     		cmp	r2, r3
ARM GAS  C:\Users\RECEPC~1\AppData\Local\Temp\ccU7e2eq.s 			page 172


 7818 23ce CFD9     		bls	.L376
1714:.\main.c      **** 									}
1715:.\main.c      **** 								}
1716:.\main.c      **** 								num_decimal=atof(numero);
 7819              		.loc 1 1716 0 is_stmt 1
 7820 23d0 3B1D     		adds	r3, r7, #4
 7821 23d2 1846     		mov	r0, r3
 7822 23d4 FFF7FEFF 		bl	atof
 7823 23d8 C7E90801 		strd	r0, [r7, #32]
1717:.\main.c      **** 								if(((rventa1.preset[0]==1)&&(num_decimal>=5))||((rventa1.preset[0]==2)&&(num_decimal<=5)&&(
 7824              		.loc 1 1717 0
 7825 23dc 994B     		ldr	r3, .L681+8
 7826 23de DB7E     		ldrb	r3, [r3, #27]	@ zero_extendqisi2
 7827 23e0 012B     		cmp	r3, #1
 7828 23e2 09D1     		bne	.L377
 7829              		.loc 1 1717 0 is_stmt 0 discriminator 1
 7830 23e4 D7E90801 		ldrd	r0, [r7, #32]
 7831 23e8 4FF00002 		mov	r2, #0
 7832 23ec 964B     		ldr	r3, .L681+12
 7833 23ee FFF7FEFF 		bl	__aeabi_dcmpge
 7834 23f2 0346     		mov	r3, r0
 7835 23f4 002B     		cmp	r3, #0
 7836 23f6 1AD1     		bne	.L378
 7837              	.L377:
 7838              		.loc 1 1717 0 discriminator 3
 7839 23f8 924B     		ldr	r3, .L681+8
 7840 23fa DB7E     		ldrb	r3, [r3, #27]	@ zero_extendqisi2
 7841 23fc 022B     		cmp	r3, #2
 7842 23fe 40D1     		bne	.L372
 7843              		.loc 1 1717 0 discriminator 4
 7844 2400 D7E90801 		ldrd	r0, [r7, #32]
 7845 2404 4FF00002 		mov	r2, #0
 7846 2408 8F4B     		ldr	r3, .L681+12
 7847 240a FFF7FEFF 		bl	__aeabi_dcmple
 7848 240e 0346     		mov	r3, r0
 7849 2410 002B     		cmp	r3, #0
 7850 2412 00D1     		bne	.L642
1718:.\main.c      **** 									for(x=count_teclas1;x>=1;x--){
1719:.\main.c      **** 										rventa1.preset[x]=Buffer_LCD1[(count_teclas1-x)+1];
1720:.\main.c      **** 									}
1721:.\main.c      **** 									flujo_LCD1=5;								
1722:.\main.c      ****                          			lado1.estado=espera;
1723:.\main.c      **** 						            set_imagen(1,7);
1724:.\main.c      **** 								}
1725:.\main.c      **** 							}
1726:.\main.c      **** 						break;
 7851              		.loc 1 1726 0 is_stmt 1 discriminator 4
 7852 2414 51E3     		b	.L344
 7853              	.L642:
1717:.\main.c      **** 								if(((rventa1.preset[0]==1)&&(num_decimal>=5))||((rventa1.preset[0]==2)&&(num_decimal<=5)&&(
 7854              		.loc 1 1717 0 discriminator 5
 7855 2416 D7E90801 		ldrd	r0, [r7, #32]
 7856 241a 4FF00002 		mov	r2, #0
 7857 241e 4FF00003 		mov	r3, #0
 7858 2422 FFF7FEFF 		bl	__aeabi_dcmpgt
 7859 2426 0346     		mov	r3, r0
 7860 2428 002B     		cmp	r3, #0
ARM GAS  C:\Users\RECEPC~1\AppData\Local\Temp\ccU7e2eq.s 			page 173


 7861 242a 00D1     		bne	.L378
 7862              		.loc 1 1726 0 discriminator 5
 7863 242c 45E3     		b	.L344
 7864              	.L378:
1718:.\main.c      **** 									for(x=count_teclas1;x>=1;x--){
 7865              		.loc 1 1718 0
 7866 242e 844B     		ldr	r3, .L681+4
 7867 2430 1B78     		ldrb	r3, [r3]
 7868 2432 87F82F30 		strb	r3, [r7, #47]
 7869 2436 15E0     		b	.L381
 7870              	.L382:
1719:.\main.c      **** 									}
 7871              		.loc 1 1719 0 discriminator 3
 7872 2438 97F82F30 		ldrb	r3, [r7, #47]	@ zero_extendqisi2
 7873 243c 804A     		ldr	r2, .L681+4
 7874 243e 1278     		ldrb	r2, [r2]
 7875 2440 D2B2     		uxtb	r2, r2
 7876 2442 1146     		mov	r1, r2
 7877 2444 97F82F20 		ldrb	r2, [r7, #47]	@ zero_extendqisi2
 7878 2448 8A1A     		subs	r2, r1, r2
 7879 244a 0132     		adds	r2, r2, #1
 7880 244c 7B49     		ldr	r1, .L681
 7881 244e 8A5C     		ldrb	r2, [r1, r2]
 7882 2450 D1B2     		uxtb	r1, r2
 7883 2452 7C4A     		ldr	r2, .L681+8
 7884 2454 1344     		add	r3, r3, r2
 7885 2456 0A46     		mov	r2, r1
 7886 2458 DA76     		strb	r2, [r3, #27]
1718:.\main.c      **** 									for(x=count_teclas1;x>=1;x--){
 7887              		.loc 1 1718 0 discriminator 3
 7888 245a 97F82F30 		ldrb	r3, [r7, #47]	@ zero_extendqisi2
 7889 245e 013B     		subs	r3, r3, #1
 7890 2460 87F82F30 		strb	r3, [r7, #47]
 7891              	.L381:
1718:.\main.c      **** 									for(x=count_teclas1;x>=1;x--){
 7892              		.loc 1 1718 0 is_stmt 0 discriminator 1
 7893 2464 97F82F30 		ldrb	r3, [r7, #47]	@ zero_extendqisi2
 7894 2468 002B     		cmp	r3, #0
 7895 246a E5D1     		bne	.L382
1721:.\main.c      ****                          			lado1.estado=espera;
 7896              		.loc 1 1721 0 is_stmt 1
 7897 246c 774B     		ldr	r3, .L681+16
 7898 246e 0522     		movs	r2, #5
 7899 2470 1A70     		strb	r2, [r3]
1722:.\main.c      **** 						            set_imagen(1,7);
 7900              		.loc 1 1722 0
 7901 2472 774B     		ldr	r3, .L681+20
 7902 2474 0222     		movs	r2, #2
 7903 2476 5A70     		strb	r2, [r3, #1]
1723:.\main.c      **** 								}
 7904              		.loc 1 1723 0
 7905 2478 0120     		movs	r0, #1
 7906 247a 0721     		movs	r1, #7
 7907 247c FFF7FEFF 		bl	set_imagen
 7908              		.loc 1 1726 0
 7909 2480 1BE3     		b	.L344
 7910              	.L372:
ARM GAS  C:\Users\RECEPC~1\AppData\Local\Temp\ccU7e2eq.s 			page 174


 7911 2482 1AE3     		b	.L344
 7912              	.L363:
1727:.\main.c      **** 						case 2:	                            
1728:.\main.c      ****                             for(x=0;x<=10;x++){
 7913              		.loc 1 1728 0
 7914 2484 0023     		movs	r3, #0
 7915 2486 87F82F30 		strb	r3, [r7, #47]
 7916 248a 0BE0     		b	.L383
 7917              	.L384:
1729:.\main.c      ****                               rventa1.km[x]=0;
 7918              		.loc 1 1729 0 discriminator 3
 7919 248c 97F82F30 		ldrb	r3, [r7, #47]	@ zero_extendqisi2
 7920 2490 6C4A     		ldr	r2, .L681+8
 7921 2492 1344     		add	r3, r3, r2
 7922 2494 0022     		movs	r2, #0
 7923 2496 83F84320 		strb	r2, [r3, #67]
1728:.\main.c      ****                               rventa1.km[x]=0;
 7924              		.loc 1 1728 0 discriminator 3
 7925 249a 97F82F30 		ldrb	r3, [r7, #47]	@ zero_extendqisi2
 7926 249e 0133     		adds	r3, r3, #1
 7927 24a0 87F82F30 		strb	r3, [r7, #47]
 7928              	.L383:
1728:.\main.c      ****                               rventa1.km[x]=0;
 7929              		.loc 1 1728 0 is_stmt 0 discriminator 1
 7930 24a4 97F82F30 		ldrb	r3, [r7, #47]	@ zero_extendqisi2
 7931 24a8 0A2B     		cmp	r3, #10
 7932 24aa EFD9     		bls	.L384
1730:.\main.c      ****                             }
1731:.\main.c      **** 							for(x=count_teclas1;x>=1;x--){
 7933              		.loc 1 1731 0 is_stmt 1
 7934 24ac 644B     		ldr	r3, .L681+4
 7935 24ae 1B78     		ldrb	r3, [r3]
 7936 24b0 87F82F30 		strb	r3, [r7, #47]
 7937 24b4 16E0     		b	.L385
 7938              	.L386:
1732:.\main.c      **** 								rventa1.km[x]=Buffer_LCD1[(count_teclas1-x)+1];
 7939              		.loc 1 1732 0 discriminator 3
 7940 24b6 97F82F30 		ldrb	r3, [r7, #47]	@ zero_extendqisi2
 7941 24ba 614A     		ldr	r2, .L681+4
 7942 24bc 1278     		ldrb	r2, [r2]
 7943 24be D2B2     		uxtb	r2, r2
 7944 24c0 1146     		mov	r1, r2
 7945 24c2 97F82F20 		ldrb	r2, [r7, #47]	@ zero_extendqisi2
 7946 24c6 8A1A     		subs	r2, r1, r2
 7947 24c8 0132     		adds	r2, r2, #1
 7948 24ca 5C49     		ldr	r1, .L681
 7949 24cc 8A5C     		ldrb	r2, [r1, r2]
 7950 24ce D1B2     		uxtb	r1, r2
 7951 24d0 5C4A     		ldr	r2, .L681+8
 7952 24d2 1344     		add	r3, r3, r2
 7953 24d4 0A46     		mov	r2, r1
 7954 24d6 83F84320 		strb	r2, [r3, #67]
1731:.\main.c      **** 								rventa1.km[x]=Buffer_LCD1[(count_teclas1-x)+1];
 7955              		.loc 1 1731 0 discriminator 3
 7956 24da 97F82F30 		ldrb	r3, [r7, #47]	@ zero_extendqisi2
 7957 24de 013B     		subs	r3, r3, #1
 7958 24e0 87F82F30 		strb	r3, [r7, #47]
ARM GAS  C:\Users\RECEPC~1\AppData\Local\Temp\ccU7e2eq.s 			page 175


 7959              	.L385:
1731:.\main.c      **** 								rventa1.km[x]=Buffer_LCD1[(count_teclas1-x)+1];
 7960              		.loc 1 1731 0 is_stmt 0 discriminator 1
 7961 24e4 97F82F30 		ldrb	r3, [r7, #47]	@ zero_extendqisi2
 7962 24e8 002B     		cmp	r3, #0
 7963 24ea E4D1     		bne	.L386
1733:.\main.c      **** 							}	                                                    
1734:.\main.c      ****                             if(seleccion_pos == 1){
 7964              		.loc 1 1734 0 is_stmt 1
 7965 24ec 594B     		ldr	r3, .L681+24
 7966 24ee 1B78     		ldrb	r3, [r3]
 7967 24f0 DBB2     		uxtb	r3, r3
 7968 24f2 012B     		cmp	r3, #1
 7969 24f4 33D1     		bne	.L387
1735:.\main.c      ****             					for(x=0;x<=7;x++){
 7970              		.loc 1 1735 0
 7971 24f6 0023     		movs	r3, #0
 7972 24f8 87F82F30 		strb	r3, [r7, #47]
 7973 24fc 0AE0     		b	.L388
 7974              	.L389:
1736:.\main.c      ****             					 	rventa1.preset[x]=0;
 7975              		.loc 1 1736 0 discriminator 3
 7976 24fe 97F82F30 		ldrb	r3, [r7, #47]	@ zero_extendqisi2
 7977 2502 504A     		ldr	r2, .L681+8
 7978 2504 1344     		add	r3, r3, r2
 7979 2506 0022     		movs	r2, #0
 7980 2508 DA76     		strb	r2, [r3, #27]
1735:.\main.c      ****             					for(x=0;x<=7;x++){
 7981              		.loc 1 1735 0 discriminator 3
 7982 250a 97F82F30 		ldrb	r3, [r7, #47]	@ zero_extendqisi2
 7983 250e 0133     		adds	r3, r3, #1
 7984 2510 87F82F30 		strb	r3, [r7, #47]
 7985              	.L388:
1735:.\main.c      ****             					for(x=0;x<=7;x++){
 7986              		.loc 1 1735 0 is_stmt 0 discriminator 1
 7987 2514 97F82F30 		ldrb	r3, [r7, #47]	@ zero_extendqisi2
 7988 2518 072B     		cmp	r3, #7
 7989 251a F0D9     		bls	.L389
1737:.\main.c      ****             					}
1738:.\main.c      ****                                 rventa1.preset[0]=3;					
 7990              		.loc 1 1738 0 is_stmt 1
 7991 251c 494B     		ldr	r3, .L681+8
 7992 251e 0322     		movs	r2, #3
 7993 2520 DA76     		strb	r2, [r3, #27]
1739:.\main.c      ****             					for(x=5;x<=7;x++){
 7994              		.loc 1 1739 0
 7995 2522 0523     		movs	r3, #5
 7996 2524 87F82F30 		strb	r3, [r7, #47]
 7997 2528 0AE0     		b	.L390
 7998              	.L391:
1740:.\main.c      ****             						rventa1.preset[x]=9;		
 7999              		.loc 1 1740 0 discriminator 3
 8000 252a 97F82F30 		ldrb	r3, [r7, #47]	@ zero_extendqisi2
 8001 252e 454A     		ldr	r2, .L681+8
 8002 2530 1344     		add	r3, r3, r2
 8003 2532 0922     		movs	r2, #9
 8004 2534 DA76     		strb	r2, [r3, #27]
ARM GAS  C:\Users\RECEPC~1\AppData\Local\Temp\ccU7e2eq.s 			page 176


1739:.\main.c      ****             					for(x=5;x<=7;x++){
 8005              		.loc 1 1739 0 discriminator 3
 8006 2536 97F82F30 		ldrb	r3, [r7, #47]	@ zero_extendqisi2
 8007 253a 0133     		adds	r3, r3, #1
 8008 253c 87F82F30 		strb	r3, [r7, #47]
 8009              	.L390:
1739:.\main.c      ****             					for(x=5;x<=7;x++){
 8010              		.loc 1 1739 0 is_stmt 0 discriminator 1
 8011 2540 97F82F30 		ldrb	r3, [r7, #47]	@ zero_extendqisi2
 8012 2544 072B     		cmp	r3, #7
 8013 2546 F0D9     		bls	.L391
1741:.\main.c      ****             					}								                                     
1742:.\main.c      ****             		            set_imagen(1,7);
 8014              		.loc 1 1742 0 is_stmt 1
 8015 2548 0120     		movs	r0, #1
 8016 254a 0721     		movs	r1, #7
 8017 254c FFF7FEFF 		bl	set_imagen
1743:.\main.c      ****             					lado1.estado=espera;
 8018              		.loc 1 1743 0
 8019 2550 3F4B     		ldr	r3, .L681+20
 8020 2552 0222     		movs	r2, #2
 8021 2554 5A70     		strb	r2, [r3, #1]
1744:.\main.c      ****                                 flujo_LCD1 = 6;  
 8022              		.loc 1 1744 0
 8023 2556 3D4B     		ldr	r3, .L681+16
 8024 2558 0622     		movs	r2, #6
 8025 255a 1A70     		strb	r2, [r3]
1745:.\main.c      ****                             }                                                      
1746:.\main.c      **** 						break;
 8026              		.loc 1 1746 0
 8027 255c ADE2     		b	.L344
 8028              	.L387:
 8029 255e ACE2     		b	.L344
 8030              	.L364:
1747:.\main.c      ****                             
1748:.\main.c      **** 						case 3:
1749:.\main.c      **** 							for(x=count_teclas1;x>=1;x--){
 8031              		.loc 1 1749 0
 8032 2560 374B     		ldr	r3, .L681+4
 8033 2562 1B78     		ldrb	r3, [r3]
 8034 2564 87F82F30 		strb	r3, [r7, #47]
 8035 2568 18E0     		b	.L392
 8036              	.L393:
1750:.\main.c      **** 								rventa1.cedula[x]=Buffer_LCD1[(count_teclas1-x)+1]+48;
 8037              		.loc 1 1750 0 discriminator 3
 8038 256a 97F82F30 		ldrb	r3, [r7, #47]	@ zero_extendqisi2
 8039 256e 344A     		ldr	r2, .L681+4
 8040 2570 1278     		ldrb	r2, [r2]
 8041 2572 D2B2     		uxtb	r2, r2
 8042 2574 1146     		mov	r1, r2
 8043 2576 97F82F20 		ldrb	r2, [r7, #47]	@ zero_extendqisi2
 8044 257a 8A1A     		subs	r2, r1, r2
 8045 257c 0132     		adds	r2, r2, #1
 8046 257e 2F49     		ldr	r1, .L681
 8047 2580 8A5C     		ldrb	r2, [r1, r2]
 8048 2582 D2B2     		uxtb	r2, r2
 8049 2584 3032     		adds	r2, r2, #48
ARM GAS  C:\Users\RECEPC~1\AppData\Local\Temp\ccU7e2eq.s 			page 177


 8050 2586 D1B2     		uxtb	r1, r2
 8051 2588 2E4A     		ldr	r2, .L681+8
 8052 258a 1344     		add	r3, r3, r2
 8053 258c 0A46     		mov	r2, r1
 8054 258e 83F85920 		strb	r2, [r3, #89]
1749:.\main.c      **** 								rventa1.cedula[x]=Buffer_LCD1[(count_teclas1-x)+1]+48;
 8055              		.loc 1 1749 0 discriminator 3
 8056 2592 97F82F30 		ldrb	r3, [r7, #47]	@ zero_extendqisi2
 8057 2596 013B     		subs	r3, r3, #1
 8058 2598 87F82F30 		strb	r3, [r7, #47]
 8059              	.L392:
1749:.\main.c      **** 								rventa1.cedula[x]=Buffer_LCD1[(count_teclas1-x)+1]+48;
 8060              		.loc 1 1749 0 is_stmt 0 discriminator 1
 8061 259c 97F82F30 		ldrb	r3, [r7, #47]	@ zero_extendqisi2
 8062 25a0 002B     		cmp	r3, #0
 8063 25a2 E2D1     		bne	.L393
1751:.\main.c      **** 							}
1752:.\main.c      ****                         	flujo_LCD1=2;	
 8064              		.loc 1 1752 0 is_stmt 1
 8065 25a4 294B     		ldr	r3, .L681+16
 8066 25a6 0222     		movs	r2, #2
 8067 25a8 1A70     		strb	r2, [r3]
1753:.\main.c      ****                         	set_imagen(1,5);
 8068              		.loc 1 1753 0
 8069 25aa 0120     		movs	r0, #1
 8070 25ac 0521     		movs	r1, #5
 8071 25ae FFF7FEFF 		bl	set_imagen
1754:.\main.c      **** 							count_teclas1=0;
 8072              		.loc 1 1754 0
 8073 25b2 234B     		ldr	r3, .L681+4
 8074 25b4 0022     		movs	r2, #0
 8075 25b6 1A70     		strb	r2, [r3]
1755:.\main.c      **** 							id_teclado1=4;
 8076              		.loc 1 1755 0
 8077 25b8 274B     		ldr	r3, .L681+28
 8078 25ba 0422     		movs	r2, #4
 8079 25bc 1A70     		strb	r2, [r3]
1756:.\main.c      **** 							teclas1=10;
 8080              		.loc 1 1756 0
 8081 25be 274B     		ldr	r3, .L681+32
 8082 25c0 0A22     		movs	r2, #10
 8083 25c2 1A70     		strb	r2, [r3]
1757:.\main.c      **** 							posx1=2;
 8084              		.loc 1 1757 0
 8085 25c4 264B     		ldr	r3, .L681+36
 8086 25c6 0222     		movs	r2, #2
 8087 25c8 1A80     		strh	r2, [r3]	@ movhi
1758:.\main.c      **** 							posy1=3;
 8088              		.loc 1 1758 0
 8089 25ca 264B     		ldr	r3, .L681+40
 8090 25cc 0322     		movs	r2, #3
 8091 25ce 1A80     		strh	r2, [r3]	@ movhi
1759:.\main.c      **** 							sizeletra1=1;								
 8092              		.loc 1 1759 0
 8093 25d0 254B     		ldr	r3, .L681+44
 8094 25d2 0122     		movs	r2, #1
 8095 25d4 1A80     		strh	r2, [r3]	@ movhi
ARM GAS  C:\Users\RECEPC~1\AppData\Local\Temp\ccU7e2eq.s 			page 178


1760:.\main.c      **** 						break;
 8096              		.loc 1 1760 0
 8097 25d6 70E2     		b	.L344
 8098              	.L365:
1761:.\main.c      **** 						case 4:
1762:.\main.c      **** 							for(x=count_teclas1;x>=1;x--){
 8099              		.loc 1 1762 0
 8100 25d8 194B     		ldr	r3, .L681+4
 8101 25da 1B78     		ldrb	r3, [r3]
 8102 25dc 87F82F30 		strb	r3, [r7, #47]
 8103 25e0 18E0     		b	.L394
 8104              	.L395:
1763:.\main.c      **** 								rventa1.password[x]=Buffer_LCD1[(count_teclas1-x)+1]+48;
 8105              		.loc 1 1763 0 discriminator 3
 8106 25e2 97F82F30 		ldrb	r3, [r7, #47]	@ zero_extendqisi2
 8107 25e6 164A     		ldr	r2, .L681+4
 8108 25e8 1278     		ldrb	r2, [r2]
 8109 25ea D2B2     		uxtb	r2, r2
 8110 25ec 1146     		mov	r1, r2
 8111 25ee 97F82F20 		ldrb	r2, [r7, #47]	@ zero_extendqisi2
 8112 25f2 8A1A     		subs	r2, r1, r2
 8113 25f4 0132     		adds	r2, r2, #1
 8114 25f6 1149     		ldr	r1, .L681
 8115 25f8 8A5C     		ldrb	r2, [r1, r2]
 8116 25fa D2B2     		uxtb	r2, r2
 8117 25fc 3032     		adds	r2, r2, #48
 8118 25fe D1B2     		uxtb	r1, r2
 8119 2600 104A     		ldr	r2, .L681+8
 8120 2602 1344     		add	r3, r3, r2
 8121 2604 0A46     		mov	r2, r1
 8122 2606 83F86420 		strb	r2, [r3, #100]
1762:.\main.c      **** 								rventa1.password[x]=Buffer_LCD1[(count_teclas1-x)+1]+48;
 8123              		.loc 1 1762 0 discriminator 3
 8124 260a 97F82F30 		ldrb	r3, [r7, #47]	@ zero_extendqisi2
 8125 260e 013B     		subs	r3, r3, #1
 8126 2610 87F82F30 		strb	r3, [r7, #47]
 8127              	.L394:
1762:.\main.c      **** 								rventa1.password[x]=Buffer_LCD1[(count_teclas1-x)+1]+48;
 8128              		.loc 1 1762 0 is_stmt 0 discriminator 1
 8129 2614 97F82F30 		ldrb	r3, [r7, #47]	@ zero_extendqisi2
 8130 2618 002B     		cmp	r3, #0
 8131 261a E2D1     		bne	.L395
1764:.\main.c      **** 							}
1765:.\main.c      ****                         	flujo_LCD1=102;	
 8132              		.loc 1 1765 0 is_stmt 1
 8133 261c 0B4B     		ldr	r3, .L681+16
 8134 261e 6622     		movs	r2, #102
 8135 2620 1A70     		strb	r2, [r3]
1766:.\main.c      ****                         	set_imagen(1,57);
 8136              		.loc 1 1766 0
 8137 2622 0120     		movs	r0, #1
 8138 2624 3921     		movs	r1, #57
 8139 2626 FFF7FEFF 		bl	set_imagen
1767:.\main.c      **** 							lado1.estado=16;
 8140              		.loc 1 1767 0
 8141 262a 094B     		ldr	r3, .L681+20
 8142 262c 1022     		movs	r2, #16
ARM GAS  C:\Users\RECEPC~1\AppData\Local\Temp\ccU7e2eq.s 			page 179


 8143 262e 5A70     		strb	r2, [r3, #1]
1768:.\main.c      **** 						break;	
 8144              		.loc 1 1768 0
 8145 2630 43E2     		b	.L344
 8146              	.L366:
1769:.\main.c      ****                         case 5:
1770:.\main.c      **** 							for(x=count_teclas1;x>=1;x--){
 8147              		.loc 1 1770 0
 8148 2632 034B     		ldr	r3, .L681+4
 8149 2634 1B78     		ldrb	r3, [r3]
 8150 2636 87F82F30 		strb	r3, [r7, #47]
 8151 263a 30E0     		b	.L396
 8152              	.L682:
 8153              		.align	2
 8154              	.L681:
 8155 263c 00000000 		.word	Buffer_LCD1
 8156 2640 00000000 		.word	count_teclas1
 8157 2644 00000000 		.word	rventa1
 8158 2648 00001440 		.word	1075052544
 8159 264c 00000000 		.word	flujo_LCD1
 8160 2650 00000000 		.word	lado1
 8161 2654 00000000 		.word	seleccion_pos
 8162 2658 00000000 		.word	id_teclado1
 8163 265c 00000000 		.word	teclas1
 8164 2660 00000000 		.word	posx1
 8165 2664 00000000 		.word	posy1
 8166 2668 00000000 		.word	sizeletra1
 8167              	.L397:
1771:.\main.c      **** 								rventa1.password_local[x]=Buffer_LCD1[(count_teclas1-x)+1]+48;
 8168              		.loc 1 1771 0 discriminator 3
 8169 266c 97F82F30 		ldrb	r3, [r7, #47]	@ zero_extendqisi2
 8170 2670 AF4A     		ldr	r2, .L683
 8171 2672 1278     		ldrb	r2, [r2]
 8172 2674 D2B2     		uxtb	r2, r2
 8173 2676 1146     		mov	r1, r2
 8174 2678 97F82F20 		ldrb	r2, [r7, #47]	@ zero_extendqisi2
 8175 267c 8A1A     		subs	r2, r1, r2
 8176 267e 0132     		adds	r2, r2, #1
 8177 2680 AC49     		ldr	r1, .L683+4
 8178 2682 8A5C     		ldrb	r2, [r1, r2]
 8179 2684 D2B2     		uxtb	r2, r2
 8180 2686 3032     		adds	r2, r2, #48
 8181 2688 D1B2     		uxtb	r1, r2
 8182 268a AB4A     		ldr	r2, .L683+8
 8183 268c 1344     		add	r3, r3, r2
 8184 268e 0A46     		mov	r2, r1
 8185 2690 83F87120 		strb	r2, [r3, #113]
1770:.\main.c      **** 								rventa1.password_local[x]=Buffer_LCD1[(count_teclas1-x)+1]+48;
 8186              		.loc 1 1770 0 discriminator 3
 8187 2694 97F82F30 		ldrb	r3, [r7, #47]	@ zero_extendqisi2
 8188 2698 013B     		subs	r3, r3, #1
 8189 269a 87F82F30 		strb	r3, [r7, #47]
 8190              	.L396:
1770:.\main.c      **** 								rventa1.password_local[x]=Buffer_LCD1[(count_teclas1-x)+1]+48;
 8191              		.loc 1 1770 0 is_stmt 0 discriminator 1
 8192 269e 97F82F30 		ldrb	r3, [r7, #47]	@ zero_extendqisi2
 8193 26a2 002B     		cmp	r3, #0
ARM GAS  C:\Users\RECEPC~1\AppData\Local\Temp\ccU7e2eq.s 			page 180


 8194 26a4 E2D1     		bne	.L397
1772:.\main.c      **** 							}
1773:.\main.c      ****                             if(clave_local[0]==rventa1.password_local[4] && clave_local[1]==rventa1
 8195              		.loc 1 1773 0 is_stmt 1
 8196 26a6 A54B     		ldr	r3, .L683+12
 8197 26a8 1A78     		ldrb	r2, [r3]	@ zero_extendqisi2
 8198 26aa A34B     		ldr	r3, .L683+8
 8199 26ac 93F87530 		ldrb	r3, [r3, #117]	@ zero_extendqisi2
 8200 26b0 9A42     		cmp	r2, r3
 8201 26b2 23D1     		bne	.L398
 8202              		.loc 1 1773 0 is_stmt 0 discriminator 1
 8203 26b4 A14B     		ldr	r3, .L683+12
 8204 26b6 5A78     		ldrb	r2, [r3, #1]	@ zero_extendqisi2
 8205 26b8 9F4B     		ldr	r3, .L683+8
 8206 26ba 93F87430 		ldrb	r3, [r3, #116]	@ zero_extendqisi2
 8207 26be 9A42     		cmp	r2, r3
 8208 26c0 1CD1     		bne	.L398
 8209              		.loc 1 1773 0 discriminator 2
 8210 26c2 9E4B     		ldr	r3, .L683+12
 8211 26c4 9A78     		ldrb	r2, [r3, #2]	@ zero_extendqisi2
 8212 26c6 9C4B     		ldr	r3, .L683+8
 8213 26c8 93F87330 		ldrb	r3, [r3, #115]	@ zero_extendqisi2
 8214 26cc 9A42     		cmp	r2, r3
 8215 26ce 15D1     		bne	.L398
 8216              		.loc 1 1773 0 discriminator 3
 8217 26d0 9A4B     		ldr	r3, .L683+12
 8218 26d2 DA78     		ldrb	r2, [r3, #3]	@ zero_extendqisi2
 8219 26d4 984B     		ldr	r3, .L683+8
 8220 26d6 93F87230 		ldrb	r3, [r3, #114]	@ zero_extendqisi2
 8221 26da 9A42     		cmp	r2, r3
 8222 26dc 0ED1     		bne	.L398
1774:.\main.c      ****                         	    set_imagen(1,38); 
 8223              		.loc 1 1774 0 is_stmt 1
 8224 26de 0120     		movs	r0, #1
 8225 26e0 2621     		movs	r1, #38
 8226 26e2 FFF7FEFF 		bl	set_imagen
1775:.\main.c      ****                                 CyDelay(200);
 8227              		.loc 1 1775 0
 8228 26e6 C820     		movs	r0, #200
 8229 26e8 FFF7FEFF 		bl	CyDelay
1776:.\main.c      **** 							    set_imagen(1,70);  
 8230              		.loc 1 1776 0
 8231 26ec 0120     		movs	r0, #1
 8232 26ee 4621     		movs	r1, #70
 8233 26f0 FFF7FEFF 		bl	set_imagen
1777:.\main.c      ****                                 flujo_LCD1 = 16;
 8234              		.loc 1 1777 0
 8235 26f4 924B     		ldr	r3, .L683+16
 8236 26f6 1022     		movs	r2, #16
 8237 26f8 1A70     		strb	r2, [r3]
1778:.\main.c      ****                             }else{
1779:.\main.c      ****                         	    flujo_LCD1=0;	
1780:.\main.c      ****                         	    set_imagen(1,39); 
1781:.\main.c      **** 							    lado1.estado=libre;                                 
1782:.\main.c      ****                                 CyDelay(200);
1783:.\main.c      **** 							    set_imagen(1,0);                                 
1784:.\main.c      ****                             }
ARM GAS  C:\Users\RECEPC~1\AppData\Local\Temp\ccU7e2eq.s 			page 181


1785:.\main.c      ****                         break; 
 8238              		.loc 1 1785 0
 8239 26fa DEE1     		b	.L344
 8240              	.L398:
1779:.\main.c      ****                         	    set_imagen(1,39); 
 8241              		.loc 1 1779 0
 8242 26fc 904B     		ldr	r3, .L683+16
 8243 26fe 0022     		movs	r2, #0
 8244 2700 1A70     		strb	r2, [r3]
1780:.\main.c      **** 							    lado1.estado=libre;                                 
 8245              		.loc 1 1780 0
 8246 2702 0120     		movs	r0, #1
 8247 2704 2721     		movs	r1, #39
 8248 2706 FFF7FEFF 		bl	set_imagen
1781:.\main.c      ****                                 CyDelay(200);
 8249              		.loc 1 1781 0
 8250 270a 8E4B     		ldr	r3, .L683+20
 8251 270c 0122     		movs	r2, #1
 8252 270e 5A70     		strb	r2, [r3, #1]
1782:.\main.c      **** 							    set_imagen(1,0);                                 
 8253              		.loc 1 1782 0
 8254 2710 C820     		movs	r0, #200
 8255 2712 FFF7FEFF 		bl	CyDelay
1783:.\main.c      ****                             }
 8256              		.loc 1 1783 0
 8257 2716 0120     		movs	r0, #1
 8258 2718 0021     		movs	r1, #0
 8259 271a FFF7FEFF 		bl	set_imagen
 8260              		.loc 1 1785 0
 8261 271e CCE1     		b	.L344
 8262              	.L367:
1786:.\main.c      ****                         case 6:                        
1787:.\main.c      **** 						    EEPROM_WriteByte(Buffer_LCD1[count_teclas1],30);
 8263              		.loc 1 1787 0
 8264 2720 834B     		ldr	r3, .L683
 8265 2722 1B78     		ldrb	r3, [r3]
 8266 2724 DBB2     		uxtb	r3, r3
 8267 2726 1A46     		mov	r2, r3
 8268 2728 824B     		ldr	r3, .L683+4
 8269 272a 9B5C     		ldrb	r3, [r3, r2]
 8270 272c DBB2     		uxtb	r3, r3
 8271 272e 1846     		mov	r0, r3
 8272 2730 1E21     		movs	r1, #30
 8273 2732 FFF7FEFF 		bl	EEPROM_WriteByte
1788:.\main.c      ****                         	flujo_LCD1 = 0;	
 8274              		.loc 1 1788 0
 8275 2736 824B     		ldr	r3, .L683+16
 8276 2738 0022     		movs	r2, #0
 8277 273a 1A70     		strb	r2, [r3]
1789:.\main.c      ****                         	set_imagen(1,60);
 8278              		.loc 1 1789 0
 8279 273c 0120     		movs	r0, #1
 8280 273e 3C21     		movs	r1, #60
 8281 2740 FFF7FEFF 		bl	set_imagen
1790:.\main.c      ****                             CyDelay(200);
 8282              		.loc 1 1790 0
 8283 2744 C820     		movs	r0, #200
ARM GAS  C:\Users\RECEPC~1\AppData\Local\Temp\ccU7e2eq.s 			page 182


 8284 2746 FFF7FEFF 		bl	CyDelay
1791:.\main.c      **** 							lado1.estado=libre;                                                     
 8285              		.loc 1 1791 0
 8286 274a 7E4B     		ldr	r3, .L683+20
 8287 274c 0122     		movs	r2, #1
 8288 274e 5A70     		strb	r2, [r3, #1]
1792:.\main.c      ****                         break;   
 8289              		.loc 1 1792 0
 8290 2750 B3E1     		b	.L344
 8291              	.L368:
1793:.\main.c      ****                         case 7:
1794:.\main.c      ****                             flujo_LCD1=18;
 8292              		.loc 1 1794 0
 8293 2752 7B4B     		ldr	r3, .L683+16
 8294 2754 1222     		movs	r2, #18
 8295 2756 1A70     		strb	r2, [r3]
1795:.\main.c      ****                             set_imagen(1,88);
 8296              		.loc 1 1795 0
 8297 2758 0120     		movs	r0, #1
 8298 275a 5821     		movs	r1, #88
 8299 275c FFF7FEFF 		bl	set_imagen
1796:.\main.c      ****                             switch(Producto){
 8300              		.loc 1 1796 0
 8301 2760 794B     		ldr	r3, .L683+24
 8302 2762 1B78     		ldrb	r3, [r3]	@ zero_extendqisi2
 8303 2764 013B     		subs	r3, r3, #1
 8304 2766 032B     		cmp	r3, #3
 8305 2768 00F29880 		bhi	.L400
 8306 276c 01A2     		adr	r2, .L402
 8307 276e 52F823F0 		ldr	pc, [r2, r3, lsl #2]
 8308 2772 00BF     		.p2align 2
 8309              	.L402:
 8310 2774 85270000 		.word	.L401+1
 8311 2778 CB270000 		.word	.L403+1
 8312 277c 11280000 		.word	.L404+1
 8313 2780 57280000 		.word	.L405+1
 8314              		.p2align 1
 8315              	.L401:
1797:.\main.c      ****                                 case 1:// 1=diesel, siempre para Autogas, 
1798:.\main.c      ****                                     Productos[0]=Buffer_LCD1[1]+48;//para la estacion seria el digi
 8316              		.loc 1 1798 0
 8317 2784 6B4B     		ldr	r3, .L683+4
 8318 2786 5B78     		ldrb	r3, [r3, #1]
 8319 2788 DBB2     		uxtb	r3, r3
 8320 278a 3033     		adds	r3, r3, #48
 8321 278c DAB2     		uxtb	r2, r3
 8322 278e 6F4B     		ldr	r3, .L683+28
 8323 2790 1A70     		strb	r2, [r3]
1799:.\main.c      ****                                     switch(Productos[0]){
 8324              		.loc 1 1799 0
 8325 2792 6E4B     		ldr	r3, .L683+28
 8326 2794 1B78     		ldrb	r3, [r3]	@ zero_extendqisi2
 8327 2796 322B     		cmp	r3, #50
 8328 2798 08D0     		beq	.L407
 8329 279a 332B     		cmp	r3, #51
 8330 279c 0BD0     		beq	.L408
 8331 279e 312B     		cmp	r3, #49
ARM GAS  C:\Users\RECEPC~1\AppData\Local\Temp\ccU7e2eq.s 			page 183


 8332 27a0 0ED1     		bne	.L644
1800:.\main.c      ****                                         case '1':
1801:.\main.c      ****                                         lado1.grado[0][0]=1;                                       
 8333              		.loc 1 1801 0
 8334 27a2 684B     		ldr	r3, .L683+20
 8335 27a4 0122     		movs	r2, #1
 8336 27a6 83F85920 		strb	r2, [r3, #89]
1802:.\main.c      ****                                         break;
 8337              		.loc 1 1802 0
 8338 27aa 0DE0     		b	.L410
 8339              	.L407:
1803:.\main.c      ****                                         case '2':
1804:.\main.c      ****                                         lado1.grado[1][0]=1;                                       
 8340              		.loc 1 1804 0
 8341 27ac 654B     		ldr	r3, .L683+20
 8342 27ae 0122     		movs	r2, #1
 8343 27b0 83F85A20 		strb	r2, [r3, #90]
1805:.\main.c      ****                                         break;
 8344              		.loc 1 1805 0
 8345 27b4 08E0     		b	.L410
 8346              	.L408:
1806:.\main.c      ****                                         case '3':
1807:.\main.c      ****                                         lado1.grado[2][0]=1;                                       
 8347              		.loc 1 1807 0
 8348 27b6 634B     		ldr	r3, .L683+20
 8349 27b8 0122     		movs	r2, #1
 8350 27ba 83F85B20 		strb	r2, [r3, #91]
1808:.\main.c      ****                                         break;                    
 8351              		.loc 1 1808 0
 8352 27be 03E0     		b	.L410
 8353              	.L644:
1809:.\main.c      ****                                         default:
1810:.\main.c      ****                                         producto1 = 0;
 8354              		.loc 1 1810 0
 8355 27c0 634B     		ldr	r3, .L683+32
 8356 27c2 0022     		movs	r2, #0
 8357 27c4 1A70     		strb	r2, [r3]
1811:.\main.c      ****                                         break;
 8358              		.loc 1 1811 0
 8359 27c6 00BF     		nop
 8360              	.L410:
1812:.\main.c      ****                                     }                                   
1813:.\main.c      ****                                 break;
 8361              		.loc 1 1813 0
 8362 27c8 68E0     		b	.L400
 8363              	.L403:
1814:.\main.c      ****                                 case 2:// 2=corriente, siempre para Autogas,
1815:.\main.c      ****                                     Productos[1]=Buffer_LCD1[1]+48;
 8364              		.loc 1 1815 0
 8365 27ca 5A4B     		ldr	r3, .L683+4
 8366 27cc 5B78     		ldrb	r3, [r3, #1]
 8367 27ce DBB2     		uxtb	r3, r3
 8368 27d0 3033     		adds	r3, r3, #48
 8369 27d2 DAB2     		uxtb	r2, r3
 8370 27d4 5D4B     		ldr	r3, .L683+28
 8371 27d6 5A70     		strb	r2, [r3, #1]
1816:.\main.c      ****                                     switch(Productos[1]){
ARM GAS  C:\Users\RECEPC~1\AppData\Local\Temp\ccU7e2eq.s 			page 184


 8372              		.loc 1 1816 0
 8373 27d8 5C4B     		ldr	r3, .L683+28
 8374 27da 5B78     		ldrb	r3, [r3, #1]	@ zero_extendqisi2
 8375 27dc 322B     		cmp	r3, #50
 8376 27de 08D0     		beq	.L412
 8377 27e0 332B     		cmp	r3, #51
 8378 27e2 0BD0     		beq	.L413
 8379 27e4 312B     		cmp	r3, #49
 8380 27e6 0ED1     		bne	.L645
1817:.\main.c      ****                                         case '1':
1818:.\main.c      ****                                         lado1.grado[0][0]=2;                                       
 8381              		.loc 1 1818 0
 8382 27e8 564B     		ldr	r3, .L683+20
 8383 27ea 0222     		movs	r2, #2
 8384 27ec 83F85920 		strb	r2, [r3, #89]
1819:.\main.c      ****                                         break;
 8385              		.loc 1 1819 0
 8386 27f0 0DE0     		b	.L415
 8387              	.L412:
1820:.\main.c      ****                                         case '2':
1821:.\main.c      ****                                         lado1.grado[1][0]=2;                                       
 8388              		.loc 1 1821 0
 8389 27f2 544B     		ldr	r3, .L683+20
 8390 27f4 0222     		movs	r2, #2
 8391 27f6 83F85A20 		strb	r2, [r3, #90]
1822:.\main.c      ****                                         break;
 8392              		.loc 1 1822 0
 8393 27fa 08E0     		b	.L415
 8394              	.L413:
1823:.\main.c      ****                                         case '3':
1824:.\main.c      ****                                         lado1.grado[2][0]=2;                                       
 8395              		.loc 1 1824 0
 8396 27fc 514B     		ldr	r3, .L683+20
 8397 27fe 0222     		movs	r2, #2
 8398 2800 83F85B20 		strb	r2, [r3, #91]
1825:.\main.c      ****                                         break; 
 8399              		.loc 1 1825 0
 8400 2804 03E0     		b	.L415
 8401              	.L645:
1826:.\main.c      ****                                         default:
1827:.\main.c      ****                                         producto2=0;
 8402              		.loc 1 1827 0
 8403 2806 534B     		ldr	r3, .L683+36
 8404 2808 0022     		movs	r2, #0
 8405 280a 1A70     		strb	r2, [r3]
1828:.\main.c      ****                                         break;                                        
 8406              		.loc 1 1828 0
 8407 280c 00BF     		nop
 8408              	.L415:
1829:.\main.c      ****                                     }                                      
1830:.\main.c      ****                                 break;
 8409              		.loc 1 1830 0
 8410 280e 45E0     		b	.L400
 8411              	.L404:
1831:.\main.c      ****                                 case 3:// 3=extra, siempre para Autogas,
1832:.\main.c      ****                                     Productos[2]=Buffer_LCD1[1]+48;
 8412              		.loc 1 1832 0
ARM GAS  C:\Users\RECEPC~1\AppData\Local\Temp\ccU7e2eq.s 			page 185


 8413 2810 484B     		ldr	r3, .L683+4
 8414 2812 5B78     		ldrb	r3, [r3, #1]
 8415 2814 DBB2     		uxtb	r3, r3
 8416 2816 3033     		adds	r3, r3, #48
 8417 2818 DAB2     		uxtb	r2, r3
 8418 281a 4C4B     		ldr	r3, .L683+28
 8419 281c 9A70     		strb	r2, [r3, #2]
1833:.\main.c      ****                                     switch(Productos[2]){
 8420              		.loc 1 1833 0
 8421 281e 4B4B     		ldr	r3, .L683+28
 8422 2820 9B78     		ldrb	r3, [r3, #2]	@ zero_extendqisi2
 8423 2822 322B     		cmp	r3, #50
 8424 2824 08D0     		beq	.L417
 8425 2826 332B     		cmp	r3, #51
 8426 2828 0BD0     		beq	.L418
 8427 282a 312B     		cmp	r3, #49
 8428 282c 0ED1     		bne	.L646
1834:.\main.c      ****                                         case '1':
1835:.\main.c      ****                                         lado1.grado[0][0]=3;                                       
 8429              		.loc 1 1835 0
 8430 282e 454B     		ldr	r3, .L683+20
 8431 2830 0322     		movs	r2, #3
 8432 2832 83F85920 		strb	r2, [r3, #89]
1836:.\main.c      ****                                         break;
 8433              		.loc 1 1836 0
 8434 2836 0DE0     		b	.L420
 8435              	.L417:
1837:.\main.c      ****                                         case '2':
1838:.\main.c      ****                                         lado1.grado[1][0]=3;                                       
 8436              		.loc 1 1838 0
 8437 2838 424B     		ldr	r3, .L683+20
 8438 283a 0322     		movs	r2, #3
 8439 283c 83F85A20 		strb	r2, [r3, #90]
1839:.\main.c      ****                                         break;
 8440              		.loc 1 1839 0
 8441 2840 08E0     		b	.L420
 8442              	.L418:
1840:.\main.c      ****                                         case '3':
1841:.\main.c      ****                                         lado1.grado[2][0]=3;                                       
 8443              		.loc 1 1841 0
 8444 2842 404B     		ldr	r3, .L683+20
 8445 2844 0322     		movs	r2, #3
 8446 2846 83F85B20 		strb	r2, [r3, #91]
1842:.\main.c      ****                                         break; 
 8447              		.loc 1 1842 0
 8448 284a 03E0     		b	.L420
 8449              	.L646:
1843:.\main.c      ****                                         default:
1844:.\main.c      ****                                         producto3=0;
 8450              		.loc 1 1844 0
 8451 284c 424B     		ldr	r3, .L683+40
 8452 284e 0022     		movs	r2, #0
 8453 2850 1A70     		strb	r2, [r3]
1845:.\main.c      ****                                         break;                                        
 8454              		.loc 1 1845 0
 8455 2852 00BF     		nop
 8456              	.L420:
ARM GAS  C:\Users\RECEPC~1\AppData\Local\Temp\ccU7e2eq.s 			page 186


1846:.\main.c      ****                                     }                                      
1847:.\main.c      ****                                 break;
 8457              		.loc 1 1847 0
 8458 2854 22E0     		b	.L400
 8459              	.L405:
1848:.\main.c      ****                                 case 4:// 4=supreme diesel, siempre para Autogas,
1849:.\main.c      ****                                     Productos[3]=Buffer_LCD1[1]+48;
 8460              		.loc 1 1849 0
 8461 2856 374B     		ldr	r3, .L683+4
 8462 2858 5B78     		ldrb	r3, [r3, #1]
 8463 285a DBB2     		uxtb	r3, r3
 8464 285c 3033     		adds	r3, r3, #48
 8465 285e DAB2     		uxtb	r2, r3
 8466 2860 3A4B     		ldr	r3, .L683+28
 8467 2862 DA70     		strb	r2, [r3, #3]
1850:.\main.c      ****                                     switch(Productos[3]){
 8468              		.loc 1 1850 0
 8469 2864 394B     		ldr	r3, .L683+28
 8470 2866 DB78     		ldrb	r3, [r3, #3]	@ zero_extendqisi2
 8471 2868 322B     		cmp	r3, #50
 8472 286a 08D0     		beq	.L422
 8473 286c 332B     		cmp	r3, #51
 8474 286e 0BD0     		beq	.L423
 8475 2870 312B     		cmp	r3, #49
 8476 2872 0ED1     		bne	.L647
1851:.\main.c      ****                                         case '1':
1852:.\main.c      ****                                         lado1.grado[0][0]=4;                                       
 8477              		.loc 1 1852 0
 8478 2874 334B     		ldr	r3, .L683+20
 8479 2876 0422     		movs	r2, #4
 8480 2878 83F85920 		strb	r2, [r3, #89]
1853:.\main.c      ****                                         break;
 8481              		.loc 1 1853 0
 8482 287c 0DE0     		b	.L425
 8483              	.L422:
1854:.\main.c      ****                                         case '2':
1855:.\main.c      ****                                         lado1.grado[1][0]=4;                                       
 8484              		.loc 1 1855 0
 8485 287e 314B     		ldr	r3, .L683+20
 8486 2880 0422     		movs	r2, #4
 8487 2882 83F85A20 		strb	r2, [r3, #90]
1856:.\main.c      ****                                         break;
 8488              		.loc 1 1856 0
 8489 2886 08E0     		b	.L425
 8490              	.L423:
1857:.\main.c      ****                                         case '3':
1858:.\main.c      ****                                         lado1.grado[2][0]=4;                                       
 8491              		.loc 1 1858 0
 8492 2888 2E4B     		ldr	r3, .L683+20
 8493 288a 0422     		movs	r2, #4
 8494 288c 83F85B20 		strb	r2, [r3, #91]
1859:.\main.c      ****                                         break;
 8495              		.loc 1 1859 0
 8496 2890 03E0     		b	.L425
 8497              	.L647:
1860:.\main.c      ****                                         default:
1861:.\main.c      ****                                         producto4=0;
ARM GAS  C:\Users\RECEPC~1\AppData\Local\Temp\ccU7e2eq.s 			page 187


 8498              		.loc 1 1861 0
 8499 2892 324B     		ldr	r3, .L683+44
 8500 2894 0022     		movs	r2, #0
 8501 2896 1A70     		strb	r2, [r3]
1862:.\main.c      ****                                         break;                                      
 8502              		.loc 1 1862 0
 8503 2898 00BF     		nop
 8504              	.L425:
1863:.\main.c      ****                                     }                                      
1864:.\main.c      ****                                 break;                                    
 8505              		.loc 1 1864 0
 8506 289a 00BF     		nop
 8507              	.L400:
1865:.\main.c      ****                             }
1866:.\main.c      ****                             write_LCD(1,Productos[0], 7, 44, 1);
 8508              		.loc 1 1866 0
 8509 289c 2B4B     		ldr	r3, .L683+28
 8510 289e 1A78     		ldrb	r2, [r3]	@ zero_extendqisi2
 8511 28a0 0123     		movs	r3, #1
 8512 28a2 0093     		str	r3, [sp]
 8513 28a4 0120     		movs	r0, #1
 8514 28a6 1146     		mov	r1, r2
 8515 28a8 0722     		movs	r2, #7
 8516 28aa 2C23     		movs	r3, #44
 8517 28ac FFF7FEFF 		bl	write_LCD
1867:.\main.c      ****                             write_LCD(1,Productos[1], 14, 44, 1); 
 8518              		.loc 1 1867 0
 8519 28b0 264B     		ldr	r3, .L683+28
 8520 28b2 5A78     		ldrb	r2, [r3, #1]	@ zero_extendqisi2
 8521 28b4 0123     		movs	r3, #1
 8522 28b6 0093     		str	r3, [sp]
 8523 28b8 0120     		movs	r0, #1
 8524 28ba 1146     		mov	r1, r2
 8525 28bc 0E22     		movs	r2, #14
 8526 28be 2C23     		movs	r3, #44
 8527 28c0 FFF7FEFF 		bl	write_LCD
1868:.\main.c      ****                             write_LCD(1,Productos[2], 19, 44, 1);
 8528              		.loc 1 1868 0
 8529 28c4 214B     		ldr	r3, .L683+28
 8530 28c6 9A78     		ldrb	r2, [r3, #2]	@ zero_extendqisi2
 8531 28c8 0123     		movs	r3, #1
 8532 28ca 0093     		str	r3, [sp]
 8533 28cc 0120     		movs	r0, #1
 8534 28ce 1146     		mov	r1, r2
 8535 28d0 1322     		movs	r2, #19
 8536 28d2 2C23     		movs	r3, #44
 8537 28d4 FFF7FEFF 		bl	write_LCD
1869:.\main.c      ****                             write_LCD(1,Productos[3], 25, 44, 1); 
 8538              		.loc 1 1869 0
 8539 28d8 1C4B     		ldr	r3, .L683+28
 8540 28da DA78     		ldrb	r2, [r3, #3]	@ zero_extendqisi2
 8541 28dc 0123     		movs	r3, #1
 8542 28de 0093     		str	r3, [sp]
 8543 28e0 0120     		movs	r0, #1
 8544 28e2 1146     		mov	r1, r2
 8545 28e4 1922     		movs	r2, #25
 8546 28e6 2C23     		movs	r3, #44
ARM GAS  C:\Users\RECEPC~1\AppData\Local\Temp\ccU7e2eq.s 			page 188


 8547 28e8 FFF7FEFF 		bl	write_LCD
1870:.\main.c      **** 							lado1.estado=libre;                                 
 8548              		.loc 1 1870 0
 8549 28ec 154B     		ldr	r3, .L683+20
 8550 28ee 0122     		movs	r2, #1
 8551 28f0 5A70     		strb	r2, [r3, #1]
1871:.\main.c      ****                             CyDelay(200);                             
 8552              		.loc 1 1871 0
 8553 28f2 C820     		movs	r0, #200
 8554 28f4 FFF7FEFF 		bl	CyDelay
1872:.\main.c      ****                         break;          
 8555              		.loc 1 1872 0
 8556 28f8 DFE0     		b	.L344
 8557              	.L369:
1873:.\main.c      ****                         case 8:
1874:.\main.c      ****                             for(x=1;x<=4;x++){
 8558              		.loc 1 1874 0
 8559 28fa 0123     		movs	r3, #1
 8560 28fc 87F82F30 		strb	r3, [r7, #47]
 8561 2900 09E0     		b	.L426
 8562              	.L427:
1875:.\main.c      ****                               id_estacion[x]=0;
 8563              		.loc 1 1875 0 discriminator 3
 8564 2902 97F82F30 		ldrb	r3, [r7, #47]	@ zero_extendqisi2
 8565 2906 164A     		ldr	r2, .L683+48
 8566 2908 0021     		movs	r1, #0
 8567 290a D154     		strb	r1, [r2, r3]
1874:.\main.c      ****                               id_estacion[x]=0;
 8568              		.loc 1 1874 0 discriminator 3
 8569 290c 97F82F30 		ldrb	r3, [r7, #47]	@ zero_extendqisi2
 8570 2910 0133     		adds	r3, r3, #1
 8571 2912 87F82F30 		strb	r3, [r7, #47]
 8572              	.L426:
1874:.\main.c      ****                               id_estacion[x]=0;
 8573              		.loc 1 1874 0 is_stmt 0 discriminator 1
 8574 2916 97F82F30 		ldrb	r3, [r7, #47]	@ zero_extendqisi2
 8575 291a 042B     		cmp	r3, #4
 8576 291c F1D9     		bls	.L427
1876:.\main.c      ****                             }
1877:.\main.c      ****                             id_estacion[0]=4;
 8577              		.loc 1 1877 0 is_stmt 1
 8578 291e 104B     		ldr	r3, .L683+48
 8579 2920 0422     		movs	r2, #4
 8580 2922 1A70     		strb	r2, [r3]
1878:.\main.c      **** 							for(x=count_teclas1;x>=1;x--){
 8581              		.loc 1 1878 0
 8582 2924 024B     		ldr	r3, .L683
 8583 2926 1B78     		ldrb	r3, [r3]
 8584 2928 87F82F30 		strb	r3, [r7, #47]
 8585 292c 30E0     		b	.L428
 8586              	.L684:
 8587 292e 00BF     		.align	2
 8588              	.L683:
 8589 2930 00000000 		.word	count_teclas1
 8590 2934 00000000 		.word	Buffer_LCD1
 8591 2938 00000000 		.word	rventa1
 8592 293c 00000000 		.word	clave_local
ARM GAS  C:\Users\RECEPC~1\AppData\Local\Temp\ccU7e2eq.s 			page 189


 8593 2940 00000000 		.word	flujo_LCD1
 8594 2944 00000000 		.word	lado1
 8595 2948 00000000 		.word	Producto
 8596 294c 00000000 		.word	Productos
 8597 2950 00000000 		.word	producto1
 8598 2954 00000000 		.word	producto2
 8599 2958 00000000 		.word	producto3
 8600 295c 00000000 		.word	producto4
 8601 2960 00000000 		.word	id_estacion
 8602              	.L429:
1879:.\main.c      **** 								id_estacion[x]=Buffer_LCD1[(count_teclas1-x)+1]+0X30;
 8603              		.loc 1 1879 0 discriminator 3
 8604 2964 97F82F30 		ldrb	r3, [r7, #47]	@ zero_extendqisi2
 8605 2968 904A     		ldr	r2, .L685
 8606 296a 1278     		ldrb	r2, [r2]
 8607 296c D2B2     		uxtb	r2, r2
 8608 296e 1146     		mov	r1, r2
 8609 2970 97F82F20 		ldrb	r2, [r7, #47]	@ zero_extendqisi2
 8610 2974 8A1A     		subs	r2, r1, r2
 8611 2976 0132     		adds	r2, r2, #1
 8612 2978 8D49     		ldr	r1, .L685+4
 8613 297a 8A5C     		ldrb	r2, [r1, r2]
 8614 297c D2B2     		uxtb	r2, r2
 8615 297e 3032     		adds	r2, r2, #48
 8616 2980 D1B2     		uxtb	r1, r2
 8617 2982 8C4A     		ldr	r2, .L685+8
 8618 2984 D154     		strb	r1, [r2, r3]
1878:.\main.c      **** 							for(x=count_teclas1;x>=1;x--){
 8619              		.loc 1 1878 0 discriminator 3
 8620 2986 97F82F30 		ldrb	r3, [r7, #47]	@ zero_extendqisi2
 8621 298a 013B     		subs	r3, r3, #1
 8622 298c 87F82F30 		strb	r3, [r7, #47]
 8623              	.L428:
1878:.\main.c      **** 							for(x=count_teclas1;x>=1;x--){
 8624              		.loc 1 1878 0 is_stmt 0 discriminator 1
 8625 2990 97F82F30 		ldrb	r3, [r7, #47]	@ zero_extendqisi2
 8626 2994 002B     		cmp	r3, #0
 8627 2996 E5D1     		bne	.L429
1880:.\main.c      **** 							}                            
1881:.\main.c      ****                             if(id_estacion[1]>=0x30 && id_estacion[2]<0x30 && id_estacion[3]<0x30 &
 8628              		.loc 1 1881 0 is_stmt 1
 8629 2998 864B     		ldr	r3, .L685+8
 8630 299a 5B78     		ldrb	r3, [r3, #1]
 8631 299c DBB2     		uxtb	r3, r3
 8632 299e 2F2B     		cmp	r3, #47
 8633 29a0 17D9     		bls	.L430
 8634              		.loc 1 1881 0 is_stmt 0 discriminator 1
 8635 29a2 844B     		ldr	r3, .L685+8
 8636 29a4 9B78     		ldrb	r3, [r3, #2]
 8637 29a6 DBB2     		uxtb	r3, r3
 8638 29a8 2F2B     		cmp	r3, #47
 8639 29aa 12D8     		bhi	.L430
 8640              		.loc 1 1881 0 discriminator 2
 8641 29ac 814B     		ldr	r3, .L685+8
 8642 29ae DB78     		ldrb	r3, [r3, #3]
 8643 29b0 DBB2     		uxtb	r3, r3
 8644 29b2 2F2B     		cmp	r3, #47
ARM GAS  C:\Users\RECEPC~1\AppData\Local\Temp\ccU7e2eq.s 			page 190


 8645 29b4 0DD8     		bhi	.L430
 8646              		.loc 1 1881 0 discriminator 3
 8647 29b6 7F4B     		ldr	r3, .L685+8
 8648 29b8 1B79     		ldrb	r3, [r3, #4]
 8649 29ba DBB2     		uxtb	r3, r3
 8650 29bc 2F2B     		cmp	r3, #47
 8651 29be 08D8     		bhi	.L430
1882:.\main.c      ****                                 id_estacion[2]='0';
 8652              		.loc 1 1882 0 is_stmt 1
 8653 29c0 7C4B     		ldr	r3, .L685+8
 8654 29c2 3022     		movs	r2, #48
 8655 29c4 9A70     		strb	r2, [r3, #2]
1883:.\main.c      ****                                 id_estacion[3]='0';
 8656              		.loc 1 1883 0
 8657 29c6 7B4B     		ldr	r3, .L685+8
 8658 29c8 3022     		movs	r2, #48
 8659 29ca DA70     		strb	r2, [r3, #3]
1884:.\main.c      ****                                 id_estacion[4]='0';                                
 8660              		.loc 1 1884 0
 8661 29cc 794B     		ldr	r3, .L685+8
 8662 29ce 3022     		movs	r2, #48
 8663 29d0 1A71     		strb	r2, [r3, #4]
 8664              	.L430:
1885:.\main.c      ****                             }
1886:.\main.c      ****                             if(id_estacion[1]>=0x30 && id_estacion[2]>=0x30 && id_estacion[3]<0x30 
 8665              		.loc 1 1886 0
 8666 29d2 784B     		ldr	r3, .L685+8
 8667 29d4 5B78     		ldrb	r3, [r3, #1]
 8668 29d6 DBB2     		uxtb	r3, r3
 8669 29d8 2F2B     		cmp	r3, #47
 8670 29da 14D9     		bls	.L431
 8671              		.loc 1 1886 0 is_stmt 0 discriminator 1
 8672 29dc 754B     		ldr	r3, .L685+8
 8673 29de 9B78     		ldrb	r3, [r3, #2]
 8674 29e0 DBB2     		uxtb	r3, r3
 8675 29e2 2F2B     		cmp	r3, #47
 8676 29e4 0FD9     		bls	.L431
 8677              		.loc 1 1886 0 discriminator 2
 8678 29e6 734B     		ldr	r3, .L685+8
 8679 29e8 DB78     		ldrb	r3, [r3, #3]
 8680 29ea DBB2     		uxtb	r3, r3
 8681 29ec 2F2B     		cmp	r3, #47
 8682 29ee 0AD8     		bhi	.L431
 8683              		.loc 1 1886 0 discriminator 3
 8684 29f0 704B     		ldr	r3, .L685+8
 8685 29f2 1B79     		ldrb	r3, [r3, #4]
 8686 29f4 DBB2     		uxtb	r3, r3
 8687 29f6 2F2B     		cmp	r3, #47
 8688 29f8 05D8     		bhi	.L431
1887:.\main.c      ****                                 id_estacion[3]='0';
 8689              		.loc 1 1887 0 is_stmt 1
 8690 29fa 6E4B     		ldr	r3, .L685+8
 8691 29fc 3022     		movs	r2, #48
 8692 29fe DA70     		strb	r2, [r3, #3]
1888:.\main.c      ****                                 id_estacion[4]='0';                             
 8693              		.loc 1 1888 0
 8694 2a00 6C4B     		ldr	r3, .L685+8
ARM GAS  C:\Users\RECEPC~1\AppData\Local\Temp\ccU7e2eq.s 			page 191


 8695 2a02 3022     		movs	r2, #48
 8696 2a04 1A71     		strb	r2, [r3, #4]
 8697              	.L431:
1889:.\main.c      ****                             }  
1890:.\main.c      ****                             if(id_estacion[1]>=0x30 && id_estacion[2]>=0x30 && id_estacion[3]>=0x30
 8698              		.loc 1 1890 0
 8699 2a06 6B4B     		ldr	r3, .L685+8
 8700 2a08 5B78     		ldrb	r3, [r3, #1]
 8701 2a0a DBB2     		uxtb	r3, r3
 8702 2a0c 2F2B     		cmp	r3, #47
 8703 2a0e 11D9     		bls	.L432
 8704              		.loc 1 1890 0 is_stmt 0 discriminator 1
 8705 2a10 684B     		ldr	r3, .L685+8
 8706 2a12 9B78     		ldrb	r3, [r3, #2]
 8707 2a14 DBB2     		uxtb	r3, r3
 8708 2a16 2F2B     		cmp	r3, #47
 8709 2a18 0CD9     		bls	.L432
 8710              		.loc 1 1890 0 discriminator 2
 8711 2a1a 664B     		ldr	r3, .L685+8
 8712 2a1c DB78     		ldrb	r3, [r3, #3]
 8713 2a1e DBB2     		uxtb	r3, r3
 8714 2a20 2F2B     		cmp	r3, #47
 8715 2a22 07D9     		bls	.L432
 8716              		.loc 1 1890 0 discriminator 3
 8717 2a24 634B     		ldr	r3, .L685+8
 8718 2a26 1B79     		ldrb	r3, [r3, #4]
 8719 2a28 DBB2     		uxtb	r3, r3
 8720 2a2a 2F2B     		cmp	r3, #47
 8721 2a2c 02D8     		bhi	.L432
1891:.\main.c      ****                                 id_estacion[4]='0';                              
 8722              		.loc 1 1891 0 is_stmt 1
 8723 2a2e 614B     		ldr	r3, .L685+8
 8724 2a30 3022     		movs	r2, #48
 8725 2a32 1A71     		strb	r2, [r3, #4]
 8726              	.L432:
1892:.\main.c      ****                             }
1893:.\main.c      ****                     		for(x=8;x<=12;x++){	
 8727              		.loc 1 1893 0
 8728 2a34 0823     		movs	r3, #8
 8729 2a36 87F82F30 		strb	r3, [r7, #47]
 8730 2a3a 11E0     		b	.L433
 8731              	.L434:
1894:.\main.c      ****                     			EEPROM_WriteByte(id_estacion[x-8], x);
 8732              		.loc 1 1894 0 discriminator 3
 8733 2a3c 97F82F30 		ldrb	r3, [r7, #47]	@ zero_extendqisi2
 8734 2a40 083B     		subs	r3, r3, #8
 8735 2a42 5C4A     		ldr	r2, .L685+8
 8736 2a44 D35C     		ldrb	r3, [r2, r3]
 8737 2a46 DAB2     		uxtb	r2, r3
 8738 2a48 97F82F30 		ldrb	r3, [r7, #47]	@ zero_extendqisi2
 8739 2a4c 9BB2     		uxth	r3, r3
 8740 2a4e 1046     		mov	r0, r2
 8741 2a50 1946     		mov	r1, r3
 8742 2a52 FFF7FEFF 		bl	EEPROM_WriteByte
1893:.\main.c      ****                     			EEPROM_WriteByte(id_estacion[x-8], x);
 8743              		.loc 1 1893 0 discriminator 3
 8744 2a56 97F82F30 		ldrb	r3, [r7, #47]	@ zero_extendqisi2
ARM GAS  C:\Users\RECEPC~1\AppData\Local\Temp\ccU7e2eq.s 			page 192


 8745 2a5a 0133     		adds	r3, r3, #1
 8746 2a5c 87F82F30 		strb	r3, [r7, #47]
 8747              	.L433:
1893:.\main.c      ****                     			EEPROM_WriteByte(id_estacion[x-8], x);
 8748              		.loc 1 1893 0 is_stmt 0 discriminator 1
 8749 2a60 97F82F30 		ldrb	r3, [r7, #47]	@ zero_extendqisi2
 8750 2a64 0C2B     		cmp	r3, #12
 8751 2a66 E9D9     		bls	.L434
1895:.\main.c      ****                     		}
1896:.\main.c      ****                             if(kmscreen ==1){
 8752              		.loc 1 1896 0 is_stmt 1
 8753 2a68 534B     		ldr	r3, .L685+12
 8754 2a6a 1B78     		ldrb	r3, [r3]
 8755 2a6c DBB2     		uxtb	r3, r3
 8756 2a6e 012B     		cmp	r3, #1
 8757 2a70 12D1     		bne	.L435
1897:.\main.c      ****                                 flujo_LCD1 = 12;	//viejo: 0
 8758              		.loc 1 1897 0
 8759 2a72 524B     		ldr	r3, .L685+16
 8760 2a74 0C22     		movs	r2, #12
 8761 2a76 1A70     		strb	r2, [r3]
1898:.\main.c      ****                                 id_teclado1 = 2;
 8762              		.loc 1 1898 0
 8763 2a78 514B     		ldr	r3, .L685+20
 8764 2a7a 0222     		movs	r2, #2
 8765 2a7c 1A70     		strb	r2, [r3]
1899:.\main.c      ****                             	set_imagen(1,14); //viejo: 60
 8766              		.loc 1 1899 0
 8767 2a7e 0120     		movs	r0, #1
 8768 2a80 0E21     		movs	r1, #14
 8769 2a82 FFF7FEFF 		bl	set_imagen
1900:.\main.c      ****                                 CyDelay(200);
 8770              		.loc 1 1900 0
 8771 2a86 C820     		movs	r0, #200
 8772 2a88 FFF7FEFF 		bl	CyDelay
1901:.\main.c      ****                                 count_teclas1 = 0;
 8773              		.loc 1 1901 0
 8774 2a8c 474B     		ldr	r3, .L685
 8775 2a8e 0022     		movs	r2, #0
 8776 2a90 1A70     		strb	r2, [r3]
1902:.\main.c      ****     							lado1.estado=libre; 
 8777              		.loc 1 1902 0
 8778 2a92 4C4B     		ldr	r3, .L685+24
 8779 2a94 0122     		movs	r2, #1
 8780 2a96 5A70     		strb	r2, [r3, #1]
 8781              	.L435:
1903:.\main.c      ****                             }
1904:.\main.c      ****                             if (kmscreen == 0){
 8782              		.loc 1 1904 0
 8783 2a98 474B     		ldr	r3, .L685+12
 8784 2a9a 1B78     		ldrb	r3, [r3]
 8785 2a9c DBB2     		uxtb	r3, r3
 8786 2a9e 002B     		cmp	r3, #0
 8787 2aa0 0AD1     		bne	.L436
1905:.\main.c      ****                                 flujo_LCD1 = 6;
 8788              		.loc 1 1905 0
 8789 2aa2 464B     		ldr	r3, .L685+16
ARM GAS  C:\Users\RECEPC~1\AppData\Local\Temp\ccU7e2eq.s 			page 193


 8790 2aa4 0622     		movs	r2, #6
 8791 2aa6 1A70     		strb	r2, [r3]
1906:.\main.c      ****                                 set_imagen(1,7);
 8792              		.loc 1 1906 0
 8793 2aa8 0120     		movs	r0, #1
 8794 2aaa 0721     		movs	r1, #7
 8795 2aac FFF7FEFF 		bl	set_imagen
1907:.\main.c      ****             					lado1.estado=espera;                                
 8796              		.loc 1 1907 0
 8797 2ab0 444B     		ldr	r3, .L685+24
 8798 2ab2 0222     		movs	r2, #2
 8799 2ab4 5A70     		strb	r2, [r3, #1]
1908:.\main.c      ****                             }
1909:.\main.c      ****                         	                                   
1910:.\main.c      ****                         break;
 8800              		.loc 1 1910 0
 8801 2ab6 FFE7     		b	.L652
 8802              	.L436:
 8803              	.L652:
 8804 2ab8 00BF     		nop
 8805              	.L344:
1911:.\main.c      **** 					}					
1912:.\main.c      ****                 }
1913:.\main.c      ****             }                      
1914:.\main.c      ****             LCD_1_ClearRxBuffer();
 8806              		.loc 1 1914 0
 8807 2aba FFF7FEFF 		bl	LCD_1_ClearRxBuffer
 8808              	.L343:
1915:.\main.c      ****          }
1916:.\main.c      ****         }
1917:.\main.c      ****         
1918:.\main.c      ****         if(seleccion_pos == 2){
 8809              		.loc 1 1918 0
 8810 2abe 424B     		ldr	r3, .L685+28
 8811 2ac0 1B78     		ldrb	r3, [r3]
 8812 2ac2 DBB2     		uxtb	r3, r3
 8813 2ac4 022B     		cmp	r3, #2
 8814 2ac6 40F09985 		bne	.L437
1919:.\main.c      ****          if(LCD_1_GetRxBufferSize()==8){
 8815              		.loc 1 1919 0
 8816 2aca FFF7FEFF 		bl	LCD_1_GetRxBufferSize
 8817 2ace 0346     		mov	r3, r0
 8818 2ad0 082B     		cmp	r3, #8
 8819 2ad2 40F09385 		bne	.L437
1920:.\main.c      ****             if((LCD_1_rxBuffer[0]==0xAA) && (LCD_1_rxBuffer[6]==0xC3) && (LCD_1_rxBuffer[7]==0x3C))
 8820              		.loc 1 1920 0
 8821 2ad6 3D4B     		ldr	r3, .L685+32
 8822 2ad8 1B78     		ldrb	r3, [r3]
 8823 2ada DBB2     		uxtb	r3, r3
 8824 2adc AA2B     		cmp	r3, #170
 8825 2ade 40F08985 		bne	.L438
 8826              		.loc 1 1920 0 is_stmt 0 discriminator 1
 8827 2ae2 3A4B     		ldr	r3, .L685+32
 8828 2ae4 9B79     		ldrb	r3, [r3, #6]
 8829 2ae6 DBB2     		uxtb	r3, r3
 8830 2ae8 C32B     		cmp	r3, #195
 8831 2aea 40F08385 		bne	.L438
ARM GAS  C:\Users\RECEPC~1\AppData\Local\Temp\ccU7e2eq.s 			page 194


 8832              		.loc 1 1920 0 discriminator 2
 8833 2aee 374B     		ldr	r3, .L685+32
 8834 2af0 DB79     		ldrb	r3, [r3, #7]
 8835 2af2 DBB2     		uxtb	r3, r3
 8836 2af4 3C2B     		cmp	r3, #60
 8837 2af6 40F07D85 		bne	.L438
1921:.\main.c      **** 				count_protector=0;
 8838              		.loc 1 1921 0 is_stmt 1
 8839 2afa 354B     		ldr	r3, .L685+36
 8840 2afc 0022     		movs	r2, #0
 8841 2afe 1A70     		strb	r2, [r3]
1922:.\main.c      ****                 if(count_teclas1<teclas1){									
 8842              		.loc 1 1922 0
 8843 2b00 2A4B     		ldr	r3, .L685
 8844 2b02 1B78     		ldrb	r3, [r3]
 8845 2b04 DAB2     		uxtb	r2, r3
 8846 2b06 334B     		ldr	r3, .L685+40
 8847 2b08 1B78     		ldrb	r3, [r3]
 8848 2b0a DBB2     		uxtb	r3, r3
 8849 2b0c 9A42     		cmp	r2, r3
 8850 2b0e 80F0D980 		bcs	.L439
1923:.\main.c      ****                     if(LCD_1_rxBuffer[3]<=9){								//Numero de 1-9
 8851              		.loc 1 1923 0
 8852 2b12 2E4B     		ldr	r3, .L685+32
 8853 2b14 DB78     		ldrb	r3, [r3, #3]
 8854 2b16 DBB2     		uxtb	r3, r3
 8855 2b18 092B     		cmp	r3, #9
 8856 2b1a 32D8     		bhi	.L440
1924:.\main.c      ****                         count_teclas1++;
 8857              		.loc 1 1924 0
 8858 2b1c 234B     		ldr	r3, .L685
 8859 2b1e 1B78     		ldrb	r3, [r3]
 8860 2b20 DBB2     		uxtb	r3, r3
 8861 2b22 0133     		adds	r3, r3, #1
 8862 2b24 DAB2     		uxtb	r2, r3
 8863 2b26 214B     		ldr	r3, .L685
 8864 2b28 1A70     		strb	r2, [r3]
1925:.\main.c      ****                         Buffer_LCD1[count_teclas1]=LCD_1_rxBuffer[3];
 8865              		.loc 1 1925 0
 8866 2b2a 204B     		ldr	r3, .L685
 8867 2b2c 1B78     		ldrb	r3, [r3]
 8868 2b2e DBB2     		uxtb	r3, r3
 8869 2b30 1A46     		mov	r2, r3
 8870 2b32 264B     		ldr	r3, .L685+32
 8871 2b34 DB78     		ldrb	r3, [r3, #3]
 8872 2b36 D9B2     		uxtb	r1, r3
 8873 2b38 1D4B     		ldr	r3, .L685+4
 8874 2b3a 9954     		strb	r1, [r3, r2]
1926:.\main.c      ****                         write_LCD(1,(LCD_1_rxBuffer[3]+0x30), posy1, ((count_teclas1*(sizeletra1+1)
 8875              		.loc 1 1926 0
 8876 2b3c 234B     		ldr	r3, .L685+32
 8877 2b3e DB78     		ldrb	r3, [r3, #3]
 8878 2b40 DBB2     		uxtb	r3, r3
 8879 2b42 3033     		adds	r3, r3, #48
 8880 2b44 D9B2     		uxtb	r1, r3
 8881 2b46 244B     		ldr	r3, .L685+44
 8882 2b48 1B88     		ldrh	r3, [r3]	@ movhi
ARM GAS  C:\Users\RECEPC~1\AppData\Local\Temp\ccU7e2eq.s 			page 195


 8883 2b4a 9DB2     		uxth	r5, r3
 8884 2b4c 174B     		ldr	r3, .L685
 8885 2b4e 1B78     		ldrb	r3, [r3]
 8886 2b50 DBB2     		uxtb	r3, r3
 8887 2b52 9BB2     		uxth	r3, r3
 8888 2b54 214A     		ldr	r2, .L685+48
 8889 2b56 1288     		ldrh	r2, [r2]	@ movhi
 8890 2b58 92B2     		uxth	r2, r2
 8891 2b5a 0132     		adds	r2, r2, #1
 8892 2b5c 92B2     		uxth	r2, r2
 8893 2b5e 02FB03F3 		mul	r3, r2, r3
 8894 2b62 9AB2     		uxth	r2, r3
 8895 2b64 1E4B     		ldr	r3, .L685+52
 8896 2b66 1B88     		ldrh	r3, [r3]	@ movhi
 8897 2b68 9BB2     		uxth	r3, r3
 8898 2b6a 1344     		add	r3, r3, r2
 8899 2b6c 9CB2     		uxth	r4, r3
 8900 2b6e 1B4B     		ldr	r3, .L685+48
 8901 2b70 1B88     		ldrh	r3, [r3]	@ movhi
 8902 2b72 9BB2     		uxth	r3, r3
 8903 2b74 DBB2     		uxtb	r3, r3
 8904 2b76 0093     		str	r3, [sp]
 8905 2b78 0120     		movs	r0, #1
 8906 2b7a 2A46     		mov	r2, r5
 8907 2b7c 2346     		mov	r3, r4
 8908 2b7e FFF7FEFF 		bl	write_LCD
 8909              	.L440:
1927:.\main.c      ****                     }
1928:.\main.c      ****                     if(LCD_1_rxBuffer[3]==0x0A){            				//Comando de 0
 8910              		.loc 1 1928 0
 8911 2b82 124B     		ldr	r3, .L685+32
 8912 2b84 DB78     		ldrb	r3, [r3, #3]
 8913 2b86 DBB2     		uxtb	r3, r3
 8914 2b88 0A2B     		cmp	r3, #10
 8915 2b8a 58D1     		bne	.L441
1929:.\main.c      **** 						if((id_teclado1==1)&&(count_teclas1==1)&&(Buffer_LCD1[1]==0)){
 8916              		.loc 1 1929 0
 8917 2b8c 0C4B     		ldr	r3, .L685+20
 8918 2b8e 1B78     		ldrb	r3, [r3]
 8919 2b90 DBB2     		uxtb	r3, r3
 8920 2b92 012B     		cmp	r3, #1
 8921 2b94 26D1     		bne	.L442
 8922              		.loc 1 1929 0 is_stmt 0 discriminator 1
 8923 2b96 054B     		ldr	r3, .L685
 8924 2b98 1B78     		ldrb	r3, [r3]
 8925 2b9a DBB2     		uxtb	r3, r3
 8926 2b9c 012B     		cmp	r3, #1
 8927 2b9e 21D1     		bne	.L442
 8928              		.loc 1 1929 0 discriminator 2
 8929 2ba0 034B     		ldr	r3, .L685+4
 8930 2ba2 5B78     		ldrb	r3, [r3, #1]
 8931 2ba4 DBB2     		uxtb	r3, r3
 8932 2ba6 002B     		cmp	r3, #0
 8933 2ba8 1CD1     		bne	.L442
 8934              		.loc 1 1929 0
 8935 2baa 48E0     		b	.L441
 8936              	.L686:
ARM GAS  C:\Users\RECEPC~1\AppData\Local\Temp\ccU7e2eq.s 			page 196


 8937              		.align	2
 8938              	.L685:
 8939 2bac 00000000 		.word	count_teclas1
 8940 2bb0 00000000 		.word	Buffer_LCD1
 8941 2bb4 00000000 		.word	id_estacion
 8942 2bb8 00000000 		.word	kmscreen
 8943 2bbc 00000000 		.word	flujo_LCD1
 8944 2bc0 00000000 		.word	id_teclado1
 8945 2bc4 00000000 		.word	lado1
 8946 2bc8 00000000 		.word	seleccion_pos
 8947 2bcc 00000000 		.word	LCD_1_rxBuffer
 8948 2bd0 00000000 		.word	count_protector
 8949 2bd4 00000000 		.word	teclas1
 8950 2bd8 00000000 		.word	posy1
 8951 2bdc 00000000 		.word	sizeletra1
 8952 2be0 00000000 		.word	posx1
 8953              	.L442:
1930:.\main.c      **** 						}
1931:.\main.c      **** 						else{
1932:.\main.c      **** 	                        count_teclas1++;
 8954              		.loc 1 1932 0 is_stmt 1
 8955 2be4 AF4B     		ldr	r3, .L687
 8956 2be6 1B78     		ldrb	r3, [r3]
 8957 2be8 DBB2     		uxtb	r3, r3
 8958 2bea 0133     		adds	r3, r3, #1
 8959 2bec DAB2     		uxtb	r2, r3
 8960 2bee AD4B     		ldr	r3, .L687
 8961 2bf0 1A70     		strb	r2, [r3]
1933:.\main.c      **** 	                        Buffer_LCD1[count_teclas1]=0;
 8962              		.loc 1 1933 0
 8963 2bf2 AC4B     		ldr	r3, .L687
 8964 2bf4 1B78     		ldrb	r3, [r3]
 8965 2bf6 DBB2     		uxtb	r3, r3
 8966 2bf8 1A46     		mov	r2, r3
 8967 2bfa AB4B     		ldr	r3, .L687+4
 8968 2bfc 0021     		movs	r1, #0
 8969 2bfe 9954     		strb	r1, [r3, r2]
1934:.\main.c      **** 							write_LCD(1,0x30, posy1, ((count_teclas1*(sizeletra1+1))+posx1), sizeletra1);
 8970              		.loc 1 1934 0
 8971 2c00 AA4B     		ldr	r3, .L687+8
 8972 2c02 1B88     		ldrh	r3, [r3]	@ movhi
 8973 2c04 9DB2     		uxth	r5, r3
 8974 2c06 A74B     		ldr	r3, .L687
 8975 2c08 1B78     		ldrb	r3, [r3]
 8976 2c0a DBB2     		uxtb	r3, r3
 8977 2c0c 9BB2     		uxth	r3, r3
 8978 2c0e A84A     		ldr	r2, .L687+12
 8979 2c10 1288     		ldrh	r2, [r2]	@ movhi
 8980 2c12 92B2     		uxth	r2, r2
 8981 2c14 0132     		adds	r2, r2, #1
 8982 2c16 92B2     		uxth	r2, r2
 8983 2c18 02FB03F3 		mul	r3, r2, r3
 8984 2c1c 9AB2     		uxth	r2, r3
 8985 2c1e A54B     		ldr	r3, .L687+16
 8986 2c20 1B88     		ldrh	r3, [r3]	@ movhi
 8987 2c22 9BB2     		uxth	r3, r3
 8988 2c24 1344     		add	r3, r3, r2
ARM GAS  C:\Users\RECEPC~1\AppData\Local\Temp\ccU7e2eq.s 			page 197


 8989 2c26 9CB2     		uxth	r4, r3
 8990 2c28 A14B     		ldr	r3, .L687+12
 8991 2c2a 1B88     		ldrh	r3, [r3]	@ movhi
 8992 2c2c 9BB2     		uxth	r3, r3
 8993 2c2e DBB2     		uxtb	r3, r3
 8994 2c30 0093     		str	r3, [sp]
 8995 2c32 0120     		movs	r0, #1
 8996 2c34 3021     		movs	r1, #48
 8997 2c36 2A46     		mov	r2, r5
 8998 2c38 2346     		mov	r3, r4
 8999 2c3a FFF7FEFF 		bl	write_LCD
 9000              	.L441:
1935:.\main.c      **** 						}
1936:.\main.c      ****                     }  
1937:.\main.c      ****                     if(LCD_1_rxBuffer[3]==0x51){            	 			//Comando de Coma
 9001              		.loc 1 1937 0
 9002 2c3e 9E4B     		ldr	r3, .L687+20
 9003 2c40 DB78     		ldrb	r3, [r3, #3]
 9004 2c42 DBB2     		uxtb	r3, r3
 9005 2c44 512B     		cmp	r3, #81
 9006 2c46 3DD1     		bne	.L439
1938:.\main.c      ****                         if(count_teclas1>=1 && comas1==0){
 9007              		.loc 1 1938 0
 9008 2c48 964B     		ldr	r3, .L687
 9009 2c4a 1B78     		ldrb	r3, [r3]
 9010 2c4c DBB2     		uxtb	r3, r3
 9011 2c4e 002B     		cmp	r3, #0
 9012 2c50 38D0     		beq	.L439
 9013              		.loc 1 1938 0 is_stmt 0 discriminator 1
 9014 2c52 9A4B     		ldr	r3, .L687+24
 9015 2c54 1B78     		ldrb	r3, [r3]
 9016 2c56 DBB2     		uxtb	r3, r3
 9017 2c58 002B     		cmp	r3, #0
 9018 2c5a 33D1     		bne	.L439
1939:.\main.c      ****                             count_teclas1++;
 9019              		.loc 1 1939 0 is_stmt 1
 9020 2c5c 914B     		ldr	r3, .L687
 9021 2c5e 1B78     		ldrb	r3, [r3]
 9022 2c60 DBB2     		uxtb	r3, r3
 9023 2c62 0133     		adds	r3, r3, #1
 9024 2c64 DAB2     		uxtb	r2, r3
 9025 2c66 8F4B     		ldr	r3, .L687
 9026 2c68 1A70     		strb	r2, [r3]
1940:.\main.c      ****                             Buffer_LCD1[count_teclas1]=id_coma1;
 9027              		.loc 1 1940 0
 9028 2c6a 8E4B     		ldr	r3, .L687
 9029 2c6c 1B78     		ldrb	r3, [r3]
 9030 2c6e DBB2     		uxtb	r3, r3
 9031 2c70 1A46     		mov	r2, r3
 9032 2c72 934B     		ldr	r3, .L687+28
 9033 2c74 1B78     		ldrb	r3, [r3]
 9034 2c76 D9B2     		uxtb	r1, r3
 9035 2c78 8B4B     		ldr	r3, .L687+4
 9036 2c7a 9954     		strb	r1, [r3, r2]
1941:.\main.c      **** 							write_LCD(1,id_coma1, posy1, ((count_teclas1*(sizeletra1+1))+posx1), sizeletra1);
 9037              		.loc 1 1941 0
 9038 2c7c 904B     		ldr	r3, .L687+28
ARM GAS  C:\Users\RECEPC~1\AppData\Local\Temp\ccU7e2eq.s 			page 198


 9039 2c7e 1B78     		ldrb	r3, [r3]
 9040 2c80 D9B2     		uxtb	r1, r3
 9041 2c82 8A4B     		ldr	r3, .L687+8
 9042 2c84 1B88     		ldrh	r3, [r3]	@ movhi
 9043 2c86 9DB2     		uxth	r5, r3
 9044 2c88 864B     		ldr	r3, .L687
 9045 2c8a 1B78     		ldrb	r3, [r3]
 9046 2c8c DBB2     		uxtb	r3, r3
 9047 2c8e 9BB2     		uxth	r3, r3
 9048 2c90 874A     		ldr	r2, .L687+12
 9049 2c92 1288     		ldrh	r2, [r2]	@ movhi
 9050 2c94 92B2     		uxth	r2, r2
 9051 2c96 0132     		adds	r2, r2, #1
 9052 2c98 92B2     		uxth	r2, r2
 9053 2c9a 02FB03F3 		mul	r3, r2, r3
 9054 2c9e 9AB2     		uxth	r2, r3
 9055 2ca0 844B     		ldr	r3, .L687+16
 9056 2ca2 1B88     		ldrh	r3, [r3]	@ movhi
 9057 2ca4 9BB2     		uxth	r3, r3
 9058 2ca6 1344     		add	r3, r3, r2
 9059 2ca8 9CB2     		uxth	r4, r3
 9060 2caa 814B     		ldr	r3, .L687+12
 9061 2cac 1B88     		ldrh	r3, [r3]	@ movhi
 9062 2cae 9BB2     		uxth	r3, r3
 9063 2cb0 DBB2     		uxtb	r3, r3
 9064 2cb2 0093     		str	r3, [sp]
 9065 2cb4 0120     		movs	r0, #1
 9066 2cb6 2A46     		mov	r2, r5
 9067 2cb8 2346     		mov	r3, r4
 9068 2cba FFF7FEFF 		bl	write_LCD
1942:.\main.c      ****                             comas1=1;
 9069              		.loc 1 1942 0
 9070 2cbe 7F4B     		ldr	r3, .L687+24
 9071 2cc0 0122     		movs	r2, #1
 9072 2cc2 1A70     		strb	r2, [r3]
 9073              	.L439:
1943:.\main.c      ****                         }
1944:.\main.c      ****                     }                    
1945:.\main.c      ****                 }                                
1946:.\main.c      ****                 if(LCD_1_rxBuffer[3]==0x0B){								//Cancel
 9074              		.loc 1 1946 0
 9075 2cc4 7C4B     		ldr	r3, .L687+20
 9076 2cc6 DB78     		ldrb	r3, [r3, #3]
 9077 2cc8 DBB2     		uxtb	r3, r3
 9078 2cca 0B2B     		cmp	r3, #11
 9079 2ccc 40F0A080 		bne	.L443
1947:.\main.c      ****                     if(count_teclas1==0){
 9080              		.loc 1 1947 0
 9081 2cd0 744B     		ldr	r3, .L687
 9082 2cd2 1B78     		ldrb	r3, [r3]
 9083 2cd4 DBB2     		uxtb	r3, r3
 9084 2cd6 002B     		cmp	r3, #0
 9085 2cd8 5ED1     		bne	.L444
1948:.\main.c      **** 						switch(id_teclado1){
 9086              		.loc 1 1948 0
 9087 2cda 7A4B     		ldr	r3, .L687+32
 9088 2cdc 1B78     		ldrb	r3, [r3]
ARM GAS  C:\Users\RECEPC~1\AppData\Local\Temp\ccU7e2eq.s 			page 199


 9089 2cde DBB2     		uxtb	r3, r3
 9090 2ce0 013B     		subs	r3, r3, #1
 9091 2ce2 072B     		cmp	r3, #7
 9092 2ce4 00F29480 		bhi	.L443
 9093 2ce8 01A2     		adr	r2, .L447
 9094 2cea 52F823F0 		ldr	pc, [r2, r3, lsl #2]
 9095 2cee 00BF     		.p2align 2
 9096              	.L447:
 9097 2cf0 112D0000 		.word	.L446+1
 9098 2cf4 212D0000 		.word	.L448+1
 9099 2cf8 292D0000 		.word	.L449+1
 9100 2cfc 3F2D0000 		.word	.L450+1
 9101 2d00 552D0000 		.word	.L451+1
 9102 2d04 6B2D0000 		.word	.L452+1
 9103 2d08 112E0000 		.word	.L443+1
 9104 2d0c 812D0000 		.word	.L453+1
 9105              		.p2align 1
 9106              	.L446:
1949:.\main.c      **** 							case 1:
1950:.\main.c      **** 							set_imagen(1,5);
 9107              		.loc 1 1950 0
 9108 2d10 0120     		movs	r0, #1
 9109 2d12 0521     		movs	r1, #5
 9110 2d14 FFF7FEFF 		bl	set_imagen
1951:.\main.c      **** 							flujo_LCD1=4;
 9111              		.loc 1 1951 0
 9112 2d18 6B4B     		ldr	r3, .L687+36
 9113 2d1a 0422     		movs	r2, #4
 9114 2d1c 1A70     		strb	r2, [r3]
1952:.\main.c      **** 							break;
 9115              		.loc 1 1952 0
 9116 2d1e 3AE0     		b	.L445
 9117              	.L448:
1953:.\main.c      **** 							case 2:
1954:.\main.c      **** 	                        flujo_LCD1=0;	
 9118              		.loc 1 1954 0
 9119 2d20 694B     		ldr	r3, .L687+36
 9120 2d22 0022     		movs	r2, #0
 9121 2d24 1A70     		strb	r2, [r3]
1955:.\main.c      **** 							break;
 9122              		.loc 1 1955 0
 9123 2d26 36E0     		b	.L445
 9124              	.L449:
1956:.\main.c      **** 							case 3:
1957:.\main.c      **** 							set_imagen(1,0);
 9125              		.loc 1 1957 0
 9126 2d28 0120     		movs	r0, #1
 9127 2d2a 0021     		movs	r1, #0
 9128 2d2c FFF7FEFF 		bl	set_imagen
1958:.\main.c      **** 							flujo_LCD1=0;
 9129              		.loc 1 1958 0
 9130 2d30 654B     		ldr	r3, .L687+36
 9131 2d32 0022     		movs	r2, #0
 9132 2d34 1A70     		strb	r2, [r3]
1959:.\main.c      **** 							lado2.estado=libre;
 9133              		.loc 1 1959 0
 9134 2d36 654B     		ldr	r3, .L687+40
ARM GAS  C:\Users\RECEPC~1\AppData\Local\Temp\ccU7e2eq.s 			page 200


 9135 2d38 0122     		movs	r2, #1
 9136 2d3a 5A70     		strb	r2, [r3, #1]
1960:.\main.c      **** 							break;
 9137              		.loc 1 1960 0
 9138 2d3c 2BE0     		b	.L445
 9139              	.L450:
1961:.\main.c      **** 							case 4:
1962:.\main.c      **** 							set_imagen(1,0);
 9140              		.loc 1 1962 0
 9141 2d3e 0120     		movs	r0, #1
 9142 2d40 0021     		movs	r1, #0
 9143 2d42 FFF7FEFF 		bl	set_imagen
1963:.\main.c      **** 							flujo_LCD1=0;
 9144              		.loc 1 1963 0
 9145 2d46 604B     		ldr	r3, .L687+36
 9146 2d48 0022     		movs	r2, #0
 9147 2d4a 1A70     		strb	r2, [r3]
1964:.\main.c      **** 							lado2.estado=libre;
 9148              		.loc 1 1964 0
 9149 2d4c 5F4B     		ldr	r3, .L687+40
 9150 2d4e 0122     		movs	r2, #1
 9151 2d50 5A70     		strb	r2, [r3, #1]
1965:.\main.c      **** 							break;
 9152              		.loc 1 1965 0
 9153 2d52 20E0     		b	.L445
 9154              	.L451:
1966:.\main.c      ****                             case 5:
1967:.\main.c      **** 							set_imagen(1,0);
 9155              		.loc 1 1967 0
 9156 2d54 0120     		movs	r0, #1
 9157 2d56 0021     		movs	r1, #0
 9158 2d58 FFF7FEFF 		bl	set_imagen
1968:.\main.c      **** 							flujo_LCD1=0;
 9159              		.loc 1 1968 0
 9160 2d5c 5A4B     		ldr	r3, .L687+36
 9161 2d5e 0022     		movs	r2, #0
 9162 2d60 1A70     		strb	r2, [r3]
1969:.\main.c      **** 							lado2.estado=libre;                            
 9163              		.loc 1 1969 0
 9164 2d62 5A4B     		ldr	r3, .L687+40
 9165 2d64 0122     		movs	r2, #1
 9166 2d66 5A70     		strb	r2, [r3, #1]
1970:.\main.c      ****                             break;
 9167              		.loc 1 1970 0
 9168 2d68 15E0     		b	.L445
 9169              	.L452:
1971:.\main.c      ****                             case 6:
1972:.\main.c      **** 							set_imagen(1,0);
 9170              		.loc 1 1972 0
 9171 2d6a 0120     		movs	r0, #1
 9172 2d6c 0021     		movs	r1, #0
 9173 2d6e FFF7FEFF 		bl	set_imagen
1973:.\main.c      **** 							flujo_LCD1=0;
 9174              		.loc 1 1973 0
 9175 2d72 554B     		ldr	r3, .L687+36
 9176 2d74 0022     		movs	r2, #0
 9177 2d76 1A70     		strb	r2, [r3]
ARM GAS  C:\Users\RECEPC~1\AppData\Local\Temp\ccU7e2eq.s 			page 201


1974:.\main.c      **** 							lado2.estado=libre;                            
 9178              		.loc 1 1974 0
 9179 2d78 544B     		ldr	r3, .L687+40
 9180 2d7a 0122     		movs	r2, #1
 9181 2d7c 5A70     		strb	r2, [r3, #1]
1975:.\main.c      ****                             break;  
 9182              		.loc 1 1975 0
 9183 2d7e 0AE0     		b	.L445
 9184              	.L453:
1976:.\main.c      ****                             case 8:
1977:.\main.c      **** 							set_imagen(1,0);
 9185              		.loc 1 1977 0
 9186 2d80 0120     		movs	r0, #1
 9187 2d82 0021     		movs	r1, #0
 9188 2d84 FFF7FEFF 		bl	set_imagen
1978:.\main.c      **** 							flujo_LCD1 = 0;
 9189              		.loc 1 1978 0
 9190 2d88 4F4B     		ldr	r3, .L687+36
 9191 2d8a 0022     		movs	r2, #0
 9192 2d8c 1A70     		strb	r2, [r3]
1979:.\main.c      **** 							lado2.estado=libre;                            
 9193              		.loc 1 1979 0
 9194 2d8e 4F4B     		ldr	r3, .L687+40
 9195 2d90 0122     		movs	r2, #1
 9196 2d92 5A70     		strb	r2, [r3, #1]
1980:.\main.c      ****                             break;                             
 9197              		.loc 1 1980 0
 9198 2d94 00BF     		nop
 9199              	.L445:
 9200 2d96 3BE0     		b	.L443
 9201              	.L444:
1981:.\main.c      **** 						}
1982:.\main.c      ****                     }
1983:.\main.c      ****                     else{
1984:.\main.c      **** 						write_LCD(1,0x20, posy1, ((count_teclas1*(sizeletra1+1))+posx1), sizeletra1);
 9202              		.loc 1 1984 0
 9203 2d98 444B     		ldr	r3, .L687+8
 9204 2d9a 1B88     		ldrh	r3, [r3]	@ movhi
 9205 2d9c 9DB2     		uxth	r5, r3
 9206 2d9e 414B     		ldr	r3, .L687
 9207 2da0 1B78     		ldrb	r3, [r3]
 9208 2da2 DBB2     		uxtb	r3, r3
 9209 2da4 9BB2     		uxth	r3, r3
 9210 2da6 424A     		ldr	r2, .L687+12
 9211 2da8 1288     		ldrh	r2, [r2]	@ movhi
 9212 2daa 92B2     		uxth	r2, r2
 9213 2dac 0132     		adds	r2, r2, #1
 9214 2dae 92B2     		uxth	r2, r2
 9215 2db0 02FB03F3 		mul	r3, r2, r3
 9216 2db4 9AB2     		uxth	r2, r3
 9217 2db6 3F4B     		ldr	r3, .L687+16
 9218 2db8 1B88     		ldrh	r3, [r3]	@ movhi
 9219 2dba 9BB2     		uxth	r3, r3
 9220 2dbc 1344     		add	r3, r3, r2
 9221 2dbe 9CB2     		uxth	r4, r3
 9222 2dc0 3B4B     		ldr	r3, .L687+12
 9223 2dc2 1B88     		ldrh	r3, [r3]	@ movhi
ARM GAS  C:\Users\RECEPC~1\AppData\Local\Temp\ccU7e2eq.s 			page 202


 9224 2dc4 9BB2     		uxth	r3, r3
 9225 2dc6 DBB2     		uxtb	r3, r3
 9226 2dc8 0093     		str	r3, [sp]
 9227 2dca 0120     		movs	r0, #1
 9228 2dcc 2021     		movs	r1, #32
 9229 2dce 2A46     		mov	r2, r5
 9230 2dd0 2346     		mov	r3, r4
 9231 2dd2 FFF7FEFF 		bl	write_LCD
1985:.\main.c      ****                         if(Buffer_LCD1[count_teclas1]==id_coma1){
 9232              		.loc 1 1985 0
 9233 2dd6 334B     		ldr	r3, .L687
 9234 2dd8 1B78     		ldrb	r3, [r3]
 9235 2dda DBB2     		uxtb	r3, r3
 9236 2ddc 1A46     		mov	r2, r3
 9237 2dde 324B     		ldr	r3, .L687+4
 9238 2de0 9B5C     		ldrb	r3, [r3, r2]
 9239 2de2 DAB2     		uxtb	r2, r3
 9240 2de4 364B     		ldr	r3, .L687+28
 9241 2de6 1B78     		ldrb	r3, [r3]
 9242 2de8 DBB2     		uxtb	r3, r3
 9243 2dea 9A42     		cmp	r2, r3
 9244 2dec 02D1     		bne	.L454
1986:.\main.c      ****                             comas1=0;
 9245              		.loc 1 1986 0
 9246 2dee 334B     		ldr	r3, .L687+24
 9247 2df0 0022     		movs	r2, #0
 9248 2df2 1A70     		strb	r2, [r3]
 9249              	.L454:
1987:.\main.c      ****                         }
1988:.\main.c      **** 						Buffer_LCD1[count_teclas1]=0;
 9250              		.loc 1 1988 0
 9251 2df4 2B4B     		ldr	r3, .L687
 9252 2df6 1B78     		ldrb	r3, [r3]
 9253 2df8 DBB2     		uxtb	r3, r3
 9254 2dfa 1A46     		mov	r2, r3
 9255 2dfc 2A4B     		ldr	r3, .L687+4
 9256 2dfe 0021     		movs	r1, #0
 9257 2e00 9954     		strb	r1, [r3, r2]
1989:.\main.c      ****                         count_teclas1--;
 9258              		.loc 1 1989 0
 9259 2e02 284B     		ldr	r3, .L687
 9260 2e04 1B78     		ldrb	r3, [r3]
 9261 2e06 DBB2     		uxtb	r3, r3
 9262 2e08 013B     		subs	r3, r3, #1
 9263 2e0a DAB2     		uxtb	r2, r3
 9264 2e0c 254B     		ldr	r3, .L687
 9265 2e0e 1A70     		strb	r2, [r3]
 9266              	.L443:
1990:.\main.c      ****                     }
1991:.\main.c      ****                 }
1992:.\main.c      ****                 if(LCD_1_rxBuffer[3]==0x0C){								//Enter
 9267              		.loc 1 1992 0
 9268 2e10 294B     		ldr	r3, .L687+20
 9269 2e12 DB78     		ldrb	r3, [r3, #3]
 9270 2e14 DBB2     		uxtb	r3, r3
 9271 2e16 0C2B     		cmp	r3, #12
 9272 2e18 40F0EC83 		bne	.L438
ARM GAS  C:\Users\RECEPC~1\AppData\Local\Temp\ccU7e2eq.s 			page 203


1993:.\main.c      **** 					switch(id_teclado1){
 9273              		.loc 1 1993 0
 9274 2e1c 294B     		ldr	r3, .L687+32
 9275 2e1e 1B78     		ldrb	r3, [r3]
 9276 2e20 DBB2     		uxtb	r3, r3
 9277 2e22 013B     		subs	r3, r3, #1
 9278 2e24 072B     		cmp	r3, #7
 9279 2e26 00F2E583 		bhi	.L438
 9280 2e2a 01A2     		adr	r2, .L456
 9281 2e2c 52F823F0 		ldr	pc, [r2, r3, lsl #2]
 9282              		.p2align 2
 9283              	.L456:
 9284 2e30 512E0000 		.word	.L455+1
 9285 2e34 E52F0000 		.word	.L457+1
 9286 2e38 C1300000 		.word	.L458+1
 9287 2e3c 39310000 		.word	.L459+1
 9288 2e40 93310000 		.word	.L460+1
 9289 2e44 81320000 		.word	.L461+1
 9290 2e48 B3320000 		.word	.L462+1
 9291 2e4c 5B340000 		.word	.L463+1
 9292              		.p2align 1
 9293              	.L455:
1994:.\main.c      **** 						case 1:
1995:.\main.c      **** 							for(x=0;x<=7;x++){
 9294              		.loc 1 1995 0
 9295 2e50 0023     		movs	r3, #0
 9296 2e52 87F82F30 		strb	r3, [r7, #47]
 9297 2e56 0CE0     		b	.L464
 9298              	.L465:
1996:.\main.c      **** 								numero[x]=0;
 9299              		.loc 1 1996 0 discriminator 3
 9300 2e58 97F82F30 		ldrb	r3, [r7, #47]	@ zero_extendqisi2
 9301 2e5c 07F13002 		add	r2, r7, #48
 9302 2e60 1344     		add	r3, r3, r2
 9303 2e62 0022     		movs	r2, #0
 9304 2e64 03F82C2C 		strb	r2, [r3, #-44]
1995:.\main.c      **** 								numero[x]=0;
 9305              		.loc 1 1995 0 discriminator 3
 9306 2e68 97F82F30 		ldrb	r3, [r7, #47]	@ zero_extendqisi2
 9307 2e6c 0133     		adds	r3, r3, #1
 9308 2e6e 87F82F30 		strb	r3, [r7, #47]
 9309              	.L464:
1995:.\main.c      **** 								numero[x]=0;
 9310              		.loc 1 1995 0 is_stmt 0 discriminator 1
 9311 2e72 97F82F30 		ldrb	r3, [r7, #47]	@ zero_extendqisi2
 9312 2e76 072B     		cmp	r3, #7
 9313 2e78 EED9     		bls	.L465
1997:.\main.c      **** 							}						
1998:.\main.c      **** 							if((count_teclas1>=1)&&(Buffer_LCD1[count_teclas1]!=',')){
 9314              		.loc 1 1998 0 is_stmt 1
 9315 2e7a 0A4B     		ldr	r3, .L687
 9316 2e7c 1B78     		ldrb	r3, [r3]
 9317 2e7e DBB2     		uxtb	r3, r3
 9318 2e80 002B     		cmp	r3, #0
 9319 2e82 00F0AE80 		beq	.L466
 9320              		.loc 1 1998 0 is_stmt 0 discriminator 1
 9321 2e86 074B     		ldr	r3, .L687
ARM GAS  C:\Users\RECEPC~1\AppData\Local\Temp\ccU7e2eq.s 			page 204


 9322 2e88 1B78     		ldrb	r3, [r3]
 9323 2e8a DBB2     		uxtb	r3, r3
 9324 2e8c 1A46     		mov	r2, r3
 9325 2e8e 064B     		ldr	r3, .L687+4
 9326 2e90 9B5C     		ldrb	r3, [r3, r2]
 9327 2e92 DBB2     		uxtb	r3, r3
 9328 2e94 2C2B     		cmp	r3, #44
 9329 2e96 00F0A480 		beq	.L466
1999:.\main.c      **** 								for(x=1;x<=count_teclas1;x++){
 9330              		.loc 1 1999 0 is_stmt 1
 9331 2e9a 0123     		movs	r3, #1
 9332 2e9c 87F82F30 		strb	r3, [r7, #47]
 9333 2ea0 3FE0     		b	.L467
 9334              	.L688:
 9335 2ea2 00BF     		.align	2
 9336              	.L687:
 9337 2ea4 00000000 		.word	count_teclas1
 9338 2ea8 00000000 		.word	Buffer_LCD1
 9339 2eac 00000000 		.word	posy1
 9340 2eb0 00000000 		.word	sizeletra1
 9341 2eb4 00000000 		.word	posx1
 9342 2eb8 00000000 		.word	LCD_1_rxBuffer
 9343 2ebc 00000000 		.word	comas1
 9344 2ec0 00000000 		.word	id_coma1
 9345 2ec4 00000000 		.word	id_teclado1
 9346 2ec8 00000000 		.word	flujo_LCD1
 9347 2ecc 00000000 		.word	lado2
 9348              	.L470:
2000:.\main.c      **** 									if(Buffer_LCD1[x]!=','){
 9349              		.loc 1 2000 0
 9350 2ed0 97F82F30 		ldrb	r3, [r7, #47]	@ zero_extendqisi2
 9351 2ed4 B14A     		ldr	r2, .L689
 9352 2ed6 D35C     		ldrb	r3, [r2, r3]
 9353 2ed8 DBB2     		uxtb	r3, r3
 9354 2eda 2C2B     		cmp	r3, #44
 9355 2edc 0FD0     		beq	.L468
2001:.\main.c      **** 										numero[x-1]=Buffer_LCD1[x]+48;
 9356              		.loc 1 2001 0
 9357 2ede 97F82F30 		ldrb	r3, [r7, #47]	@ zero_extendqisi2
 9358 2ee2 013B     		subs	r3, r3, #1
 9359 2ee4 97F82F20 		ldrb	r2, [r7, #47]	@ zero_extendqisi2
 9360 2ee8 AC49     		ldr	r1, .L689
 9361 2eea 8A5C     		ldrb	r2, [r1, r2]
 9362 2eec D2B2     		uxtb	r2, r2
 9363 2eee 3032     		adds	r2, r2, #48
 9364 2ef0 D2B2     		uxtb	r2, r2
 9365 2ef2 07F13001 		add	r1, r7, #48
 9366 2ef6 0B44     		add	r3, r3, r1
 9367 2ef8 03F82C2C 		strb	r2, [r3, #-44]
 9368 2efc 0CE0     		b	.L469
 9369              	.L468:
2002:.\main.c      **** 									}
2003:.\main.c      **** 									else{
2004:.\main.c      **** 										numero[x-1]=Buffer_LCD1[x];
 9370              		.loc 1 2004 0
 9371 2efe 97F82F30 		ldrb	r3, [r7, #47]	@ zero_extendqisi2
 9372 2f02 013B     		subs	r3, r3, #1
ARM GAS  C:\Users\RECEPC~1\AppData\Local\Temp\ccU7e2eq.s 			page 205


 9373 2f04 97F82F20 		ldrb	r2, [r7, #47]	@ zero_extendqisi2
 9374 2f08 A449     		ldr	r1, .L689
 9375 2f0a 8A5C     		ldrb	r2, [r1, r2]
 9376 2f0c D2B2     		uxtb	r2, r2
 9377 2f0e 07F13001 		add	r1, r7, #48
 9378 2f12 0B44     		add	r3, r3, r1
 9379 2f14 03F82C2C 		strb	r2, [r3, #-44]
 9380              	.L469:
1999:.\main.c      **** 									if(Buffer_LCD1[x]!=','){
 9381              		.loc 1 1999 0 discriminator 2
 9382 2f18 97F82F30 		ldrb	r3, [r7, #47]	@ zero_extendqisi2
 9383 2f1c 0133     		adds	r3, r3, #1
 9384 2f1e 87F82F30 		strb	r3, [r7, #47]
 9385              	.L467:
1999:.\main.c      **** 									if(Buffer_LCD1[x]!=','){
 9386              		.loc 1 1999 0 is_stmt 0 discriminator 1
 9387 2f22 9F4B     		ldr	r3, .L689+4
 9388 2f24 1B78     		ldrb	r3, [r3]
 9389 2f26 DBB2     		uxtb	r3, r3
 9390 2f28 97F82F20 		ldrb	r2, [r7, #47]	@ zero_extendqisi2
 9391 2f2c 9A42     		cmp	r2, r3
 9392 2f2e CFD9     		bls	.L470
2005:.\main.c      **** 									}
2006:.\main.c      **** 								}
2007:.\main.c      **** 								num_decimal=atof(numero);
 9393              		.loc 1 2007 0 is_stmt 1
 9394 2f30 3B1D     		adds	r3, r7, #4
 9395 2f32 1846     		mov	r0, r3
 9396 2f34 FFF7FEFF 		bl	atof
 9397 2f38 C7E90801 		strd	r0, [r7, #32]
2008:.\main.c      **** 								if(((rventa2.preset[0]==1)&&(num_decimal>=5))||((rventa2.preset[0]==2)&&(num_decimal<=5)&&(
 9398              		.loc 1 2008 0
 9399 2f3c 994B     		ldr	r3, .L689+8
 9400 2f3e DB7E     		ldrb	r3, [r3, #27]	@ zero_extendqisi2
 9401 2f40 012B     		cmp	r3, #1
 9402 2f42 09D1     		bne	.L471
 9403              		.loc 1 2008 0 is_stmt 0 discriminator 1
 9404 2f44 D7E90801 		ldrd	r0, [r7, #32]
 9405 2f48 4FF00002 		mov	r2, #0
 9406 2f4c 964B     		ldr	r3, .L689+12
 9407 2f4e FFF7FEFF 		bl	__aeabi_dcmpge
 9408 2f52 0346     		mov	r3, r0
 9409 2f54 002B     		cmp	r3, #0
 9410 2f56 1AD1     		bne	.L472
 9411              	.L471:
 9412              		.loc 1 2008 0 discriminator 3
 9413 2f58 924B     		ldr	r3, .L689+8
 9414 2f5a DB7E     		ldrb	r3, [r3, #27]	@ zero_extendqisi2
 9415 2f5c 022B     		cmp	r3, #2
 9416 2f5e 40D1     		bne	.L466
 9417              		.loc 1 2008 0 discriminator 4
 9418 2f60 D7E90801 		ldrd	r0, [r7, #32]
 9419 2f64 4FF00002 		mov	r2, #0
 9420 2f68 8F4B     		ldr	r3, .L689+12
 9421 2f6a FFF7FEFF 		bl	__aeabi_dcmple
 9422 2f6e 0346     		mov	r3, r0
 9423 2f70 002B     		cmp	r3, #0
ARM GAS  C:\Users\RECEPC~1\AppData\Local\Temp\ccU7e2eq.s 			page 206


 9424 2f72 00D1     		bne	.L643
2009:.\main.c      **** 									for(x=count_teclas1;x>=1;x--){
2010:.\main.c      **** 										rventa2.preset[x]=Buffer_LCD1[(count_teclas1-x)+1];
2011:.\main.c      **** 									}
2012:.\main.c      **** 									flujo_LCD1=5;								
2013:.\main.c      ****                          			lado2.estado=espera;
2014:.\main.c      **** 						            set_imagen(1,7);
2015:.\main.c      **** 								}
2016:.\main.c      **** 							}
2017:.\main.c      **** 						break;
 9425              		.loc 1 2017 0 is_stmt 1 discriminator 4
 9426 2f74 3EE3     		b	.L438
 9427              	.L643:
2008:.\main.c      **** 								if(((rventa2.preset[0]==1)&&(num_decimal>=5))||((rventa2.preset[0]==2)&&(num_decimal<=5)&&(
 9428              		.loc 1 2008 0 discriminator 5
 9429 2f76 D7E90801 		ldrd	r0, [r7, #32]
 9430 2f7a 4FF00002 		mov	r2, #0
 9431 2f7e 4FF00003 		mov	r3, #0
 9432 2f82 FFF7FEFF 		bl	__aeabi_dcmpgt
 9433 2f86 0346     		mov	r3, r0
 9434 2f88 002B     		cmp	r3, #0
 9435 2f8a 00D1     		bne	.L472
 9436              		.loc 1 2017 0 discriminator 5
 9437 2f8c 32E3     		b	.L438
 9438              	.L472:
2009:.\main.c      **** 									for(x=count_teclas1;x>=1;x--){
 9439              		.loc 1 2009 0
 9440 2f8e 844B     		ldr	r3, .L689+4
 9441 2f90 1B78     		ldrb	r3, [r3]
 9442 2f92 87F82F30 		strb	r3, [r7, #47]
 9443 2f96 15E0     		b	.L475
 9444              	.L476:
2010:.\main.c      **** 									}
 9445              		.loc 1 2010 0 discriminator 3
 9446 2f98 97F82F30 		ldrb	r3, [r7, #47]	@ zero_extendqisi2
 9447 2f9c 804A     		ldr	r2, .L689+4
 9448 2f9e 1278     		ldrb	r2, [r2]
 9449 2fa0 D2B2     		uxtb	r2, r2
 9450 2fa2 1146     		mov	r1, r2
 9451 2fa4 97F82F20 		ldrb	r2, [r7, #47]	@ zero_extendqisi2
 9452 2fa8 8A1A     		subs	r2, r1, r2
 9453 2faa 0132     		adds	r2, r2, #1
 9454 2fac 7B49     		ldr	r1, .L689
 9455 2fae 8A5C     		ldrb	r2, [r1, r2]
 9456 2fb0 D1B2     		uxtb	r1, r2
 9457 2fb2 7C4A     		ldr	r2, .L689+8
 9458 2fb4 1344     		add	r3, r3, r2
 9459 2fb6 0A46     		mov	r2, r1
 9460 2fb8 DA76     		strb	r2, [r3, #27]
2009:.\main.c      **** 									for(x=count_teclas1;x>=1;x--){
 9461              		.loc 1 2009 0 discriminator 3
 9462 2fba 97F82F30 		ldrb	r3, [r7, #47]	@ zero_extendqisi2
 9463 2fbe 013B     		subs	r3, r3, #1
 9464 2fc0 87F82F30 		strb	r3, [r7, #47]
 9465              	.L475:
2009:.\main.c      **** 									for(x=count_teclas1;x>=1;x--){
 9466              		.loc 1 2009 0 is_stmt 0 discriminator 1
ARM GAS  C:\Users\RECEPC~1\AppData\Local\Temp\ccU7e2eq.s 			page 207


 9467 2fc4 97F82F30 		ldrb	r3, [r7, #47]	@ zero_extendqisi2
 9468 2fc8 002B     		cmp	r3, #0
 9469 2fca E5D1     		bne	.L476
2012:.\main.c      ****                          			lado2.estado=espera;
 9470              		.loc 1 2012 0 is_stmt 1
 9471 2fcc 774B     		ldr	r3, .L689+16
 9472 2fce 0522     		movs	r2, #5
 9473 2fd0 1A70     		strb	r2, [r3]
2013:.\main.c      **** 						            set_imagen(1,7);
 9474              		.loc 1 2013 0
 9475 2fd2 774B     		ldr	r3, .L689+20
 9476 2fd4 0222     		movs	r2, #2
 9477 2fd6 5A70     		strb	r2, [r3, #1]
2014:.\main.c      **** 								}
 9478              		.loc 1 2014 0
 9479 2fd8 0120     		movs	r0, #1
 9480 2fda 0721     		movs	r1, #7
 9481 2fdc FFF7FEFF 		bl	set_imagen
 9482              		.loc 1 2017 0
 9483 2fe0 08E3     		b	.L438
 9484              	.L466:
 9485 2fe2 07E3     		b	.L438
 9486              	.L457:
2018:.\main.c      **** 						case 2:	
2019:.\main.c      ****                             for(x=0;x<=10;x++){
 9487              		.loc 1 2019 0
 9488 2fe4 0023     		movs	r3, #0
 9489 2fe6 87F82F30 		strb	r3, [r7, #47]
 9490 2fea 0BE0     		b	.L477
 9491              	.L478:
2020:.\main.c      ****                               rventa2.km[x]=0;
 9492              		.loc 1 2020 0 discriminator 3
 9493 2fec 97F82F30 		ldrb	r3, [r7, #47]	@ zero_extendqisi2
 9494 2ff0 6C4A     		ldr	r2, .L689+8
 9495 2ff2 1344     		add	r3, r3, r2
 9496 2ff4 0022     		movs	r2, #0
 9497 2ff6 83F84320 		strb	r2, [r3, #67]
2019:.\main.c      ****                               rventa2.km[x]=0;
 9498              		.loc 1 2019 0 discriminator 3
 9499 2ffa 97F82F30 		ldrb	r3, [r7, #47]	@ zero_extendqisi2
 9500 2ffe 0133     		adds	r3, r3, #1
 9501 3000 87F82F30 		strb	r3, [r7, #47]
 9502              	.L477:
2019:.\main.c      ****                               rventa2.km[x]=0;
 9503              		.loc 1 2019 0 is_stmt 0 discriminator 1
 9504 3004 97F82F30 		ldrb	r3, [r7, #47]	@ zero_extendqisi2
 9505 3008 0A2B     		cmp	r3, #10
 9506 300a EFD9     		bls	.L478
2021:.\main.c      ****                             }
2022:.\main.c      **** 							for(x=count_teclas1;x>=1;x--){
 9507              		.loc 1 2022 0 is_stmt 1
 9508 300c 644B     		ldr	r3, .L689+4
 9509 300e 1B78     		ldrb	r3, [r3]
 9510 3010 87F82F30 		strb	r3, [r7, #47]
 9511 3014 16E0     		b	.L479
 9512              	.L480:
2023:.\main.c      **** 								rventa2.km[x]=Buffer_LCD1[(count_teclas1-x)+1];
ARM GAS  C:\Users\RECEPC~1\AppData\Local\Temp\ccU7e2eq.s 			page 208


 9513              		.loc 1 2023 0 discriminator 3
 9514 3016 97F82F30 		ldrb	r3, [r7, #47]	@ zero_extendqisi2
 9515 301a 614A     		ldr	r2, .L689+4
 9516 301c 1278     		ldrb	r2, [r2]
 9517 301e D2B2     		uxtb	r2, r2
 9518 3020 1146     		mov	r1, r2
 9519 3022 97F82F20 		ldrb	r2, [r7, #47]	@ zero_extendqisi2
 9520 3026 8A1A     		subs	r2, r1, r2
 9521 3028 0132     		adds	r2, r2, #1
 9522 302a 5C49     		ldr	r1, .L689
 9523 302c 8A5C     		ldrb	r2, [r1, r2]
 9524 302e D1B2     		uxtb	r1, r2
 9525 3030 5C4A     		ldr	r2, .L689+8
 9526 3032 1344     		add	r3, r3, r2
 9527 3034 0A46     		mov	r2, r1
 9528 3036 83F84320 		strb	r2, [r3, #67]
2022:.\main.c      **** 								rventa2.km[x]=Buffer_LCD1[(count_teclas1-x)+1];
 9529              		.loc 1 2022 0 discriminator 3
 9530 303a 97F82F30 		ldrb	r3, [r7, #47]	@ zero_extendqisi2
 9531 303e 013B     		subs	r3, r3, #1
 9532 3040 87F82F30 		strb	r3, [r7, #47]
 9533              	.L479:
2022:.\main.c      **** 								rventa2.km[x]=Buffer_LCD1[(count_teclas1-x)+1];
 9534              		.loc 1 2022 0 is_stmt 0 discriminator 1
 9535 3044 97F82F30 		ldrb	r3, [r7, #47]	@ zero_extendqisi2
 9536 3048 002B     		cmp	r3, #0
 9537 304a E4D1     		bne	.L480
2024:.\main.c      **** 							}	                                                    
2025:.\main.c      ****                             if(seleccion_pos == 2){
 9538              		.loc 1 2025 0 is_stmt 1
 9539 304c 594B     		ldr	r3, .L689+24
 9540 304e 1B78     		ldrb	r3, [r3]
 9541 3050 DBB2     		uxtb	r3, r3
 9542 3052 022B     		cmp	r3, #2
 9543 3054 33D1     		bne	.L481
2026:.\main.c      ****             					for(x=0;x<=7;x++){
 9544              		.loc 1 2026 0
 9545 3056 0023     		movs	r3, #0
 9546 3058 87F82F30 		strb	r3, [r7, #47]
 9547 305c 0AE0     		b	.L482
 9548              	.L483:
2027:.\main.c      ****             					 	rventa2.preset[x]=0;
 9549              		.loc 1 2027 0 discriminator 3
 9550 305e 97F82F30 		ldrb	r3, [r7, #47]	@ zero_extendqisi2
 9551 3062 504A     		ldr	r2, .L689+8
 9552 3064 1344     		add	r3, r3, r2
 9553 3066 0022     		movs	r2, #0
 9554 3068 DA76     		strb	r2, [r3, #27]
2026:.\main.c      ****             					for(x=0;x<=7;x++){
 9555              		.loc 1 2026 0 discriminator 3
 9556 306a 97F82F30 		ldrb	r3, [r7, #47]	@ zero_extendqisi2
 9557 306e 0133     		adds	r3, r3, #1
 9558 3070 87F82F30 		strb	r3, [r7, #47]
 9559              	.L482:
2026:.\main.c      ****             					for(x=0;x<=7;x++){
 9560              		.loc 1 2026 0 is_stmt 0 discriminator 1
 9561 3074 97F82F30 		ldrb	r3, [r7, #47]	@ zero_extendqisi2
ARM GAS  C:\Users\RECEPC~1\AppData\Local\Temp\ccU7e2eq.s 			page 209


 9562 3078 072B     		cmp	r3, #7
 9563 307a F0D9     		bls	.L483
2028:.\main.c      ****             					}
2029:.\main.c      ****                                 rventa2.preset[0]=3;					
 9564              		.loc 1 2029 0 is_stmt 1
 9565 307c 494B     		ldr	r3, .L689+8
 9566 307e 0322     		movs	r2, #3
 9567 3080 DA76     		strb	r2, [r3, #27]
2030:.\main.c      ****             					for(x=5;x<=7;x++){
 9568              		.loc 1 2030 0
 9569 3082 0523     		movs	r3, #5
 9570 3084 87F82F30 		strb	r3, [r7, #47]
 9571 3088 0AE0     		b	.L484
 9572              	.L485:
2031:.\main.c      ****             						rventa2.preset[x]=9;		
 9573              		.loc 1 2031 0 discriminator 3
 9574 308a 97F82F30 		ldrb	r3, [r7, #47]	@ zero_extendqisi2
 9575 308e 454A     		ldr	r2, .L689+8
 9576 3090 1344     		add	r3, r3, r2
 9577 3092 0922     		movs	r2, #9
 9578 3094 DA76     		strb	r2, [r3, #27]
2030:.\main.c      ****             					for(x=5;x<=7;x++){
 9579              		.loc 1 2030 0 discriminator 3
 9580 3096 97F82F30 		ldrb	r3, [r7, #47]	@ zero_extendqisi2
 9581 309a 0133     		adds	r3, r3, #1
 9582 309c 87F82F30 		strb	r3, [r7, #47]
 9583              	.L484:
2030:.\main.c      ****             					for(x=5;x<=7;x++){
 9584              		.loc 1 2030 0 is_stmt 0 discriminator 1
 9585 30a0 97F82F30 		ldrb	r3, [r7, #47]	@ zero_extendqisi2
 9586 30a4 072B     		cmp	r3, #7
 9587 30a6 F0D9     		bls	.L485
2032:.\main.c      ****             					}								                                     
2033:.\main.c      ****             		            set_imagen(1,7);
 9588              		.loc 1 2033 0 is_stmt 1
 9589 30a8 0120     		movs	r0, #1
 9590 30aa 0721     		movs	r1, #7
 9591 30ac FFF7FEFF 		bl	set_imagen
2034:.\main.c      ****             					lado2.estado=espera;
 9592              		.loc 1 2034 0
 9593 30b0 3F4B     		ldr	r3, .L689+20
 9594 30b2 0222     		movs	r2, #2
 9595 30b4 5A70     		strb	r2, [r3, #1]
2035:.\main.c      ****                                 flujo_LCD1 = 6;  
 9596              		.loc 1 2035 0
 9597 30b6 3D4B     		ldr	r3, .L689+16
 9598 30b8 0622     		movs	r2, #6
 9599 30ba 1A70     		strb	r2, [r3]
2036:.\main.c      ****                             }    		                        
2037:.\main.c      **** 						break;
 9600              		.loc 1 2037 0
 9601 30bc 9AE2     		b	.L438
 9602              	.L481:
 9603 30be 99E2     		b	.L438
 9604              	.L458:
2038:.\main.c      **** 						case 3:
2039:.\main.c      **** 							for(x=count_teclas1;x>=1;x--){
ARM GAS  C:\Users\RECEPC~1\AppData\Local\Temp\ccU7e2eq.s 			page 210


 9605              		.loc 1 2039 0
 9606 30c0 374B     		ldr	r3, .L689+4
 9607 30c2 1B78     		ldrb	r3, [r3]
 9608 30c4 87F82F30 		strb	r3, [r7, #47]
 9609 30c8 18E0     		b	.L486
 9610              	.L487:
2040:.\main.c      **** 								rventa2.cedula[x]=Buffer_LCD1[(count_teclas1-x)+1]+48;
 9611              		.loc 1 2040 0 discriminator 3
 9612 30ca 97F82F30 		ldrb	r3, [r7, #47]	@ zero_extendqisi2
 9613 30ce 344A     		ldr	r2, .L689+4
 9614 30d0 1278     		ldrb	r2, [r2]
 9615 30d2 D2B2     		uxtb	r2, r2
 9616 30d4 1146     		mov	r1, r2
 9617 30d6 97F82F20 		ldrb	r2, [r7, #47]	@ zero_extendqisi2
 9618 30da 8A1A     		subs	r2, r1, r2
 9619 30dc 0132     		adds	r2, r2, #1
 9620 30de 2F49     		ldr	r1, .L689
 9621 30e0 8A5C     		ldrb	r2, [r1, r2]
 9622 30e2 D2B2     		uxtb	r2, r2
 9623 30e4 3032     		adds	r2, r2, #48
 9624 30e6 D1B2     		uxtb	r1, r2
 9625 30e8 2E4A     		ldr	r2, .L689+8
 9626 30ea 1344     		add	r3, r3, r2
 9627 30ec 0A46     		mov	r2, r1
 9628 30ee 83F85920 		strb	r2, [r3, #89]
2039:.\main.c      **** 								rventa2.cedula[x]=Buffer_LCD1[(count_teclas1-x)+1]+48;
 9629              		.loc 1 2039 0 discriminator 3
 9630 30f2 97F82F30 		ldrb	r3, [r7, #47]	@ zero_extendqisi2
 9631 30f6 013B     		subs	r3, r3, #1
 9632 30f8 87F82F30 		strb	r3, [r7, #47]
 9633              	.L486:
2039:.\main.c      **** 								rventa2.cedula[x]=Buffer_LCD1[(count_teclas1-x)+1]+48;
 9634              		.loc 1 2039 0 is_stmt 0 discriminator 1
 9635 30fc 97F82F30 		ldrb	r3, [r7, #47]	@ zero_extendqisi2
 9636 3100 002B     		cmp	r3, #0
 9637 3102 E2D1     		bne	.L487
2041:.\main.c      **** 							}
2042:.\main.c      ****                         	flujo_LCD1=2;	
 9638              		.loc 1 2042 0 is_stmt 1
 9639 3104 294B     		ldr	r3, .L689+16
 9640 3106 0222     		movs	r2, #2
 9641 3108 1A70     		strb	r2, [r3]
2043:.\main.c      ****                         	set_imagen(1,5);
 9642              		.loc 1 2043 0
 9643 310a 0120     		movs	r0, #1
 9644 310c 0521     		movs	r1, #5
 9645 310e FFF7FEFF 		bl	set_imagen
2044:.\main.c      **** 							count_teclas1=0;
 9646              		.loc 1 2044 0
 9647 3112 234B     		ldr	r3, .L689+4
 9648 3114 0022     		movs	r2, #0
 9649 3116 1A70     		strb	r2, [r3]
2045:.\main.c      **** 							id_teclado1=4;
 9650              		.loc 1 2045 0
 9651 3118 274B     		ldr	r3, .L689+28
 9652 311a 0422     		movs	r2, #4
 9653 311c 1A70     		strb	r2, [r3]
ARM GAS  C:\Users\RECEPC~1\AppData\Local\Temp\ccU7e2eq.s 			page 211


2046:.\main.c      **** 							teclas1=10;
 9654              		.loc 1 2046 0
 9655 311e 274B     		ldr	r3, .L689+32
 9656 3120 0A22     		movs	r2, #10
 9657 3122 1A70     		strb	r2, [r3]
2047:.\main.c      **** 							posx1=2;
 9658              		.loc 1 2047 0
 9659 3124 264B     		ldr	r3, .L689+36
 9660 3126 0222     		movs	r2, #2
 9661 3128 1A80     		strh	r2, [r3]	@ movhi
2048:.\main.c      **** 							posy1=3;
 9662              		.loc 1 2048 0
 9663 312a 264B     		ldr	r3, .L689+40
 9664 312c 0322     		movs	r2, #3
 9665 312e 1A80     		strh	r2, [r3]	@ movhi
2049:.\main.c      **** 							sizeletra1=1;								
 9666              		.loc 1 2049 0
 9667 3130 254B     		ldr	r3, .L689+44
 9668 3132 0122     		movs	r2, #1
 9669 3134 1A80     		strh	r2, [r3]	@ movhi
2050:.\main.c      **** 						break;
 9670              		.loc 1 2050 0
 9671 3136 5DE2     		b	.L438
 9672              	.L459:
2051:.\main.c      **** 						case 4:
2052:.\main.c      **** 							for(x=count_teclas1;x>=1;x--){
 9673              		.loc 1 2052 0
 9674 3138 194B     		ldr	r3, .L689+4
 9675 313a 1B78     		ldrb	r3, [r3]
 9676 313c 87F82F30 		strb	r3, [r7, #47]
 9677 3140 18E0     		b	.L488
 9678              	.L489:
2053:.\main.c      **** 								rventa2.password[x]=Buffer_LCD1[(count_teclas1-x)+1]+48;
 9679              		.loc 1 2053 0 discriminator 3
 9680 3142 97F82F30 		ldrb	r3, [r7, #47]	@ zero_extendqisi2
 9681 3146 164A     		ldr	r2, .L689+4
 9682 3148 1278     		ldrb	r2, [r2]
 9683 314a D2B2     		uxtb	r2, r2
 9684 314c 1146     		mov	r1, r2
 9685 314e 97F82F20 		ldrb	r2, [r7, #47]	@ zero_extendqisi2
 9686 3152 8A1A     		subs	r2, r1, r2
 9687 3154 0132     		adds	r2, r2, #1
 9688 3156 1149     		ldr	r1, .L689
 9689 3158 8A5C     		ldrb	r2, [r1, r2]
 9690 315a D2B2     		uxtb	r2, r2
 9691 315c 3032     		adds	r2, r2, #48
 9692 315e D1B2     		uxtb	r1, r2
 9693 3160 104A     		ldr	r2, .L689+8
 9694 3162 1344     		add	r3, r3, r2
 9695 3164 0A46     		mov	r2, r1
 9696 3166 83F86420 		strb	r2, [r3, #100]
2052:.\main.c      **** 								rventa2.password[x]=Buffer_LCD1[(count_teclas1-x)+1]+48;
 9697              		.loc 1 2052 0 discriminator 3
 9698 316a 97F82F30 		ldrb	r3, [r7, #47]	@ zero_extendqisi2
 9699 316e 013B     		subs	r3, r3, #1
 9700 3170 87F82F30 		strb	r3, [r7, #47]
 9701              	.L488:
ARM GAS  C:\Users\RECEPC~1\AppData\Local\Temp\ccU7e2eq.s 			page 212


2052:.\main.c      **** 								rventa2.password[x]=Buffer_LCD1[(count_teclas1-x)+1]+48;
 9702              		.loc 1 2052 0 is_stmt 0 discriminator 1
 9703 3174 97F82F30 		ldrb	r3, [r7, #47]	@ zero_extendqisi2
 9704 3178 002B     		cmp	r3, #0
 9705 317a E2D1     		bne	.L489
2054:.\main.c      **** 							}
2055:.\main.c      ****                         	flujo_LCD1=102;	
 9706              		.loc 1 2055 0 is_stmt 1
 9707 317c 0B4B     		ldr	r3, .L689+16
 9708 317e 6622     		movs	r2, #102
 9709 3180 1A70     		strb	r2, [r3]
2056:.\main.c      ****                         	set_imagen(1,57);
 9710              		.loc 1 2056 0
 9711 3182 0120     		movs	r0, #1
 9712 3184 3921     		movs	r1, #57
 9713 3186 FFF7FEFF 		bl	set_imagen
2057:.\main.c      **** 							lado2.estado=16;
 9714              		.loc 1 2057 0
 9715 318a 094B     		ldr	r3, .L689+20
 9716 318c 1022     		movs	r2, #16
 9717 318e 5A70     		strb	r2, [r3, #1]
2058:.\main.c      **** 						break;	
 9718              		.loc 1 2058 0
 9719 3190 30E2     		b	.L438
 9720              	.L460:
2059:.\main.c      ****                         case 5:
2060:.\main.c      **** 							for(x=count_teclas1;x>=1;x--){
 9721              		.loc 1 2060 0
 9722 3192 034B     		ldr	r3, .L689+4
 9723 3194 1B78     		ldrb	r3, [r3]
 9724 3196 87F82F30 		strb	r3, [r7, #47]
 9725 319a 30E0     		b	.L490
 9726              	.L690:
 9727              		.align	2
 9728              	.L689:
 9729 319c 00000000 		.word	Buffer_LCD1
 9730 31a0 00000000 		.word	count_teclas1
 9731 31a4 00000000 		.word	rventa2
 9732 31a8 00001440 		.word	1075052544
 9733 31ac 00000000 		.word	flujo_LCD1
 9734 31b0 00000000 		.word	lado2
 9735 31b4 00000000 		.word	seleccion_pos
 9736 31b8 00000000 		.word	id_teclado1
 9737 31bc 00000000 		.word	teclas1
 9738 31c0 00000000 		.word	posx1
 9739 31c4 00000000 		.word	posy1
 9740 31c8 00000000 		.word	sizeletra1
 9741              	.L491:
2061:.\main.c      **** 								rventa1.password_local[x]=Buffer_LCD1[(count_teclas1-x)+1]+48;
 9742              		.loc 1 2061 0 discriminator 3
 9743 31cc 97F82F30 		ldrb	r3, [r7, #47]	@ zero_extendqisi2
 9744 31d0 AF4A     		ldr	r2, .L691
 9745 31d2 1278     		ldrb	r2, [r2]
 9746 31d4 D2B2     		uxtb	r2, r2
 9747 31d6 1146     		mov	r1, r2
 9748 31d8 97F82F20 		ldrb	r2, [r7, #47]	@ zero_extendqisi2
 9749 31dc 8A1A     		subs	r2, r1, r2
ARM GAS  C:\Users\RECEPC~1\AppData\Local\Temp\ccU7e2eq.s 			page 213


 9750 31de 0132     		adds	r2, r2, #1
 9751 31e0 AC49     		ldr	r1, .L691+4
 9752 31e2 8A5C     		ldrb	r2, [r1, r2]
 9753 31e4 D2B2     		uxtb	r2, r2
 9754 31e6 3032     		adds	r2, r2, #48
 9755 31e8 D1B2     		uxtb	r1, r2
 9756 31ea AB4A     		ldr	r2, .L691+8
 9757 31ec 1344     		add	r3, r3, r2
 9758 31ee 0A46     		mov	r2, r1
 9759 31f0 83F87120 		strb	r2, [r3, #113]
2060:.\main.c      **** 								rventa1.password_local[x]=Buffer_LCD1[(count_teclas1-x)+1]+48;
 9760              		.loc 1 2060 0 discriminator 3
 9761 31f4 97F82F30 		ldrb	r3, [r7, #47]	@ zero_extendqisi2
 9762 31f8 013B     		subs	r3, r3, #1
 9763 31fa 87F82F30 		strb	r3, [r7, #47]
 9764              	.L490:
2060:.\main.c      **** 								rventa1.password_local[x]=Buffer_LCD1[(count_teclas1-x)+1]+48;
 9765              		.loc 1 2060 0 is_stmt 0 discriminator 1
 9766 31fe 97F82F30 		ldrb	r3, [r7, #47]	@ zero_extendqisi2
 9767 3202 002B     		cmp	r3, #0
 9768 3204 E2D1     		bne	.L491
2062:.\main.c      **** 							}
2063:.\main.c      ****                             if(clave_local[0]==rventa1.password_local[4] && clave_local[1]==rventa1
 9769              		.loc 1 2063 0 is_stmt 1
 9770 3206 A54B     		ldr	r3, .L691+12
 9771 3208 1A78     		ldrb	r2, [r3]	@ zero_extendqisi2
 9772 320a A34B     		ldr	r3, .L691+8
 9773 320c 93F87530 		ldrb	r3, [r3, #117]	@ zero_extendqisi2
 9774 3210 9A42     		cmp	r2, r3
 9775 3212 23D1     		bne	.L492
 9776              		.loc 1 2063 0 is_stmt 0 discriminator 1
 9777 3214 A14B     		ldr	r3, .L691+12
 9778 3216 5A78     		ldrb	r2, [r3, #1]	@ zero_extendqisi2
 9779 3218 9F4B     		ldr	r3, .L691+8
 9780 321a 93F87430 		ldrb	r3, [r3, #116]	@ zero_extendqisi2
 9781 321e 9A42     		cmp	r2, r3
 9782 3220 1CD1     		bne	.L492
 9783              		.loc 1 2063 0 discriminator 2
 9784 3222 9E4B     		ldr	r3, .L691+12
 9785 3224 9A78     		ldrb	r2, [r3, #2]	@ zero_extendqisi2
 9786 3226 9C4B     		ldr	r3, .L691+8
 9787 3228 93F87330 		ldrb	r3, [r3, #115]	@ zero_extendqisi2
 9788 322c 9A42     		cmp	r2, r3
 9789 322e 15D1     		bne	.L492
 9790              		.loc 1 2063 0 discriminator 3
 9791 3230 9A4B     		ldr	r3, .L691+12
 9792 3232 DA78     		ldrb	r2, [r3, #3]	@ zero_extendqisi2
 9793 3234 984B     		ldr	r3, .L691+8
 9794 3236 93F87230 		ldrb	r3, [r3, #114]	@ zero_extendqisi2
 9795 323a 9A42     		cmp	r2, r3
 9796 323c 0ED1     		bne	.L492
2064:.\main.c      ****                         	    set_imagen(1,38); 
 9797              		.loc 1 2064 0 is_stmt 1
 9798 323e 0120     		movs	r0, #1
 9799 3240 2621     		movs	r1, #38
 9800 3242 FFF7FEFF 		bl	set_imagen
2065:.\main.c      ****                                 CyDelay(200);
ARM GAS  C:\Users\RECEPC~1\AppData\Local\Temp\ccU7e2eq.s 			page 214


 9801              		.loc 1 2065 0
 9802 3246 C820     		movs	r0, #200
 9803 3248 FFF7FEFF 		bl	CyDelay
2066:.\main.c      **** 							    set_imagen(1,70);  
 9804              		.loc 1 2066 0
 9805 324c 0120     		movs	r0, #1
 9806 324e 4621     		movs	r1, #70
 9807 3250 FFF7FEFF 		bl	set_imagen
2067:.\main.c      ****                                 flujo_LCD1 = 16;
 9808              		.loc 1 2067 0
 9809 3254 924B     		ldr	r3, .L691+16
 9810 3256 1022     		movs	r2, #16
 9811 3258 1A70     		strb	r2, [r3]
2068:.\main.c      ****                             }else{
2069:.\main.c      ****                         	    flujo_LCD1=0;	
2070:.\main.c      ****                         	    set_imagen(1,39); 
2071:.\main.c      **** 							    lado2.estado=libre;                                 
2072:.\main.c      ****                                 CyDelay(200);
2073:.\main.c      **** 							    set_imagen(1,0);                                 
2074:.\main.c      ****                             }
2075:.\main.c      ****                         break; 
 9812              		.loc 1 2075 0
 9813 325a CBE1     		b	.L438
 9814              	.L492:
2069:.\main.c      ****                         	    set_imagen(1,39); 
 9815              		.loc 1 2069 0
 9816 325c 904B     		ldr	r3, .L691+16
 9817 325e 0022     		movs	r2, #0
 9818 3260 1A70     		strb	r2, [r3]
2070:.\main.c      **** 							    lado2.estado=libre;                                 
 9819              		.loc 1 2070 0
 9820 3262 0120     		movs	r0, #1
 9821 3264 2721     		movs	r1, #39
 9822 3266 FFF7FEFF 		bl	set_imagen
2071:.\main.c      ****                                 CyDelay(200);
 9823              		.loc 1 2071 0
 9824 326a 8E4B     		ldr	r3, .L691+20
 9825 326c 0122     		movs	r2, #1
 9826 326e 5A70     		strb	r2, [r3, #1]
2072:.\main.c      **** 							    set_imagen(1,0);                                 
 9827              		.loc 1 2072 0
 9828 3270 C820     		movs	r0, #200
 9829 3272 FFF7FEFF 		bl	CyDelay
2073:.\main.c      ****                             }
 9830              		.loc 1 2073 0
 9831 3276 0120     		movs	r0, #1
 9832 3278 0021     		movs	r1, #0
 9833 327a FFF7FEFF 		bl	set_imagen
 9834              		.loc 1 2075 0
 9835 327e B9E1     		b	.L438
 9836              	.L461:
2076:.\main.c      ****                         case 6:                        
2077:.\main.c      **** 						    EEPROM_WriteByte(Buffer_LCD1[count_teclas1],30);
 9837              		.loc 1 2077 0
 9838 3280 834B     		ldr	r3, .L691
 9839 3282 1B78     		ldrb	r3, [r3]
 9840 3284 DBB2     		uxtb	r3, r3
ARM GAS  C:\Users\RECEPC~1\AppData\Local\Temp\ccU7e2eq.s 			page 215


 9841 3286 1A46     		mov	r2, r3
 9842 3288 824B     		ldr	r3, .L691+4
 9843 328a 9B5C     		ldrb	r3, [r3, r2]
 9844 328c DBB2     		uxtb	r3, r3
 9845 328e 1846     		mov	r0, r3
 9846 3290 1E21     		movs	r1, #30
 9847 3292 FFF7FEFF 		bl	EEPROM_WriteByte
2078:.\main.c      ****                         	flujo_LCD1 = 0;	
 9848              		.loc 1 2078 0
 9849 3296 824B     		ldr	r3, .L691+16
 9850 3298 0022     		movs	r2, #0
 9851 329a 1A70     		strb	r2, [r3]
2079:.\main.c      ****                         	set_imagen(1,60);
 9852              		.loc 1 2079 0
 9853 329c 0120     		movs	r0, #1
 9854 329e 3C21     		movs	r1, #60
 9855 32a0 FFF7FEFF 		bl	set_imagen
2080:.\main.c      ****                             CyDelay(200);
 9856              		.loc 1 2080 0
 9857 32a4 C820     		movs	r0, #200
 9858 32a6 FFF7FEFF 		bl	CyDelay
2081:.\main.c      **** 							lado2.estado=libre;                                                     
 9859              		.loc 1 2081 0
 9860 32aa 7E4B     		ldr	r3, .L691+20
 9861 32ac 0122     		movs	r2, #1
 9862 32ae 5A70     		strb	r2, [r3, #1]
2082:.\main.c      ****                         break;   
 9863              		.loc 1 2082 0
 9864 32b0 A0E1     		b	.L438
 9865              	.L462:
2083:.\main.c      ****                         case 7:
2084:.\main.c      ****                             flujo_LCD1=18;
 9866              		.loc 1 2084 0
 9867 32b2 7B4B     		ldr	r3, .L691+16
 9868 32b4 1222     		movs	r2, #18
 9869 32b6 1A70     		strb	r2, [r3]
2085:.\main.c      ****                             set_imagen(1,88);
 9870              		.loc 1 2085 0
 9871 32b8 0120     		movs	r0, #1
 9872 32ba 5821     		movs	r1, #88
 9873 32bc FFF7FEFF 		bl	set_imagen
2086:.\main.c      ****                             switch(Producto){
 9874              		.loc 1 2086 0
 9875 32c0 794B     		ldr	r3, .L691+24
 9876 32c2 1B78     		ldrb	r3, [r3]	@ zero_extendqisi2
 9877 32c4 013B     		subs	r3, r3, #1
 9878 32c6 032B     		cmp	r3, #3
 9879 32c8 00F29880 		bhi	.L494
 9880 32cc 01A2     		adr	r2, .L496
 9881 32ce 52F823F0 		ldr	pc, [r2, r3, lsl #2]
 9882 32d2 00BF     		.p2align 2
 9883              	.L496:
 9884 32d4 E5320000 		.word	.L495+1
 9885 32d8 2B330000 		.word	.L497+1
 9886 32dc 71330000 		.word	.L498+1
 9887 32e0 B7330000 		.word	.L499+1
 9888              		.p2align 1
ARM GAS  C:\Users\RECEPC~1\AppData\Local\Temp\ccU7e2eq.s 			page 216


 9889              	.L495:
2087:.\main.c      ****                                 case 1:// 1=diesel, siempre para Autogas, 
2088:.\main.c      ****                                     Productos[0]=Buffer_LCD1[1]+48;//para la estacion seria el digi
 9890              		.loc 1 2088 0
 9891 32e4 6B4B     		ldr	r3, .L691+4
 9892 32e6 5B78     		ldrb	r3, [r3, #1]
 9893 32e8 DBB2     		uxtb	r3, r3
 9894 32ea 3033     		adds	r3, r3, #48
 9895 32ec DAB2     		uxtb	r2, r3
 9896 32ee 6F4B     		ldr	r3, .L691+28
 9897 32f0 1A70     		strb	r2, [r3]
2089:.\main.c      ****                                     switch(Productos[0]){
 9898              		.loc 1 2089 0
 9899 32f2 6E4B     		ldr	r3, .L691+28
 9900 32f4 1B78     		ldrb	r3, [r3]	@ zero_extendqisi2
 9901 32f6 322B     		cmp	r3, #50
 9902 32f8 08D0     		beq	.L501
 9903 32fa 332B     		cmp	r3, #51
 9904 32fc 0BD0     		beq	.L502
 9905 32fe 312B     		cmp	r3, #49
 9906 3300 0ED1     		bne	.L648
2090:.\main.c      ****                                         case '1':
2091:.\main.c      ****                                         lado2.grado[0][0]=1;                                       
 9907              		.loc 1 2091 0
 9908 3302 684B     		ldr	r3, .L691+20
 9909 3304 0122     		movs	r2, #1
 9910 3306 83F85920 		strb	r2, [r3, #89]
2092:.\main.c      ****                                         break;
 9911              		.loc 1 2092 0
 9912 330a 0DE0     		b	.L504
 9913              	.L501:
2093:.\main.c      ****                                         case '2':
2094:.\main.c      ****                                         lado2.grado[1][0]=1;                                       
 9914              		.loc 1 2094 0
 9915 330c 654B     		ldr	r3, .L691+20
 9916 330e 0122     		movs	r2, #1
 9917 3310 83F85A20 		strb	r2, [r3, #90]
2095:.\main.c      ****                                         break;
 9918              		.loc 1 2095 0
 9919 3314 08E0     		b	.L504
 9920              	.L502:
2096:.\main.c      ****                                         case '3':
2097:.\main.c      ****                                         lado2.grado[2][0]=1;                                       
 9921              		.loc 1 2097 0
 9922 3316 634B     		ldr	r3, .L691+20
 9923 3318 0122     		movs	r2, #1
 9924 331a 83F85B20 		strb	r2, [r3, #91]
2098:.\main.c      ****                                         break;                    
 9925              		.loc 1 2098 0
 9926 331e 03E0     		b	.L504
 9927              	.L648:
2099:.\main.c      ****                                         default:
2100:.\main.c      ****                                         producto1 = 0;
 9928              		.loc 1 2100 0
 9929 3320 634B     		ldr	r3, .L691+32
 9930 3322 0022     		movs	r2, #0
 9931 3324 1A70     		strb	r2, [r3]
ARM GAS  C:\Users\RECEPC~1\AppData\Local\Temp\ccU7e2eq.s 			page 217


2101:.\main.c      ****                                         break;
 9932              		.loc 1 2101 0
 9933 3326 00BF     		nop
 9934              	.L504:
2102:.\main.c      ****                                     }                                   
2103:.\main.c      ****                                 break;
 9935              		.loc 1 2103 0
 9936 3328 68E0     		b	.L494
 9937              	.L497:
2104:.\main.c      ****                                 case 2:// 2=corriente, siempre para Autogas,
2105:.\main.c      ****                                     Productos[1]=Buffer_LCD1[1]+48;
 9938              		.loc 1 2105 0
 9939 332a 5A4B     		ldr	r3, .L691+4
 9940 332c 5B78     		ldrb	r3, [r3, #1]
 9941 332e DBB2     		uxtb	r3, r3
 9942 3330 3033     		adds	r3, r3, #48
 9943 3332 DAB2     		uxtb	r2, r3
 9944 3334 5D4B     		ldr	r3, .L691+28
 9945 3336 5A70     		strb	r2, [r3, #1]
2106:.\main.c      ****                                     switch(Productos[1]){
 9946              		.loc 1 2106 0
 9947 3338 5C4B     		ldr	r3, .L691+28
 9948 333a 5B78     		ldrb	r3, [r3, #1]	@ zero_extendqisi2
 9949 333c 322B     		cmp	r3, #50
 9950 333e 08D0     		beq	.L506
 9951 3340 332B     		cmp	r3, #51
 9952 3342 0BD0     		beq	.L507
 9953 3344 312B     		cmp	r3, #49
 9954 3346 0ED1     		bne	.L649
2107:.\main.c      ****                                         case '1':
2108:.\main.c      ****                                         lado2.grado[0][0]=2;                                       
 9955              		.loc 1 2108 0
 9956 3348 564B     		ldr	r3, .L691+20
 9957 334a 0222     		movs	r2, #2
 9958 334c 83F85920 		strb	r2, [r3, #89]
2109:.\main.c      ****                                         break;
 9959              		.loc 1 2109 0
 9960 3350 0DE0     		b	.L509
 9961              	.L506:
2110:.\main.c      ****                                         case '2':
2111:.\main.c      ****                                         lado2.grado[1][0]=2;                                       
 9962              		.loc 1 2111 0
 9963 3352 544B     		ldr	r3, .L691+20
 9964 3354 0222     		movs	r2, #2
 9965 3356 83F85A20 		strb	r2, [r3, #90]
2112:.\main.c      ****                                         break;
 9966              		.loc 1 2112 0
 9967 335a 08E0     		b	.L509
 9968              	.L507:
2113:.\main.c      ****                                         case '3':
2114:.\main.c      ****                                         lado2.grado[2][0]=2;                                       
 9969              		.loc 1 2114 0
 9970 335c 514B     		ldr	r3, .L691+20
 9971 335e 0222     		movs	r2, #2
 9972 3360 83F85B20 		strb	r2, [r3, #91]
2115:.\main.c      ****                                         break; 
 9973              		.loc 1 2115 0
ARM GAS  C:\Users\RECEPC~1\AppData\Local\Temp\ccU7e2eq.s 			page 218


 9974 3364 03E0     		b	.L509
 9975              	.L649:
2116:.\main.c      ****                                         default:
2117:.\main.c      ****                                         producto2=0;
 9976              		.loc 1 2117 0
 9977 3366 534B     		ldr	r3, .L691+36
 9978 3368 0022     		movs	r2, #0
 9979 336a 1A70     		strb	r2, [r3]
2118:.\main.c      ****                                         break;                                        
 9980              		.loc 1 2118 0
 9981 336c 00BF     		nop
 9982              	.L509:
2119:.\main.c      ****                                     }                                      
2120:.\main.c      ****                                 break;
 9983              		.loc 1 2120 0
 9984 336e 45E0     		b	.L494
 9985              	.L498:
2121:.\main.c      ****                                 case 3:// 3=extra, siempre para Autogas,
2122:.\main.c      ****                                     Productos[2]=Buffer_LCD1[1]+48;
 9986              		.loc 1 2122 0
 9987 3370 484B     		ldr	r3, .L691+4
 9988 3372 5B78     		ldrb	r3, [r3, #1]
 9989 3374 DBB2     		uxtb	r3, r3
 9990 3376 3033     		adds	r3, r3, #48
 9991 3378 DAB2     		uxtb	r2, r3
 9992 337a 4C4B     		ldr	r3, .L691+28
 9993 337c 9A70     		strb	r2, [r3, #2]
2123:.\main.c      ****                                     switch(Productos[2]){
 9994              		.loc 1 2123 0
 9995 337e 4B4B     		ldr	r3, .L691+28
 9996 3380 9B78     		ldrb	r3, [r3, #2]	@ zero_extendqisi2
 9997 3382 322B     		cmp	r3, #50
 9998 3384 08D0     		beq	.L511
 9999 3386 332B     		cmp	r3, #51
 10000 3388 0BD0     		beq	.L512
 10001 338a 312B     		cmp	r3, #49
 10002 338c 0ED1     		bne	.L650
2124:.\main.c      ****                                         case '1':
2125:.\main.c      ****                                         lado2.grado[0][0]=3;                                       
 10003              		.loc 1 2125 0
 10004 338e 454B     		ldr	r3, .L691+20
 10005 3390 0322     		movs	r2, #3
 10006 3392 83F85920 		strb	r2, [r3, #89]
2126:.\main.c      ****                                         break;
 10007              		.loc 1 2126 0
 10008 3396 0DE0     		b	.L514
 10009              	.L511:
2127:.\main.c      ****                                         case '2':
2128:.\main.c      ****                                         lado2.grado[1][0]=3;                                       
 10010              		.loc 1 2128 0
 10011 3398 424B     		ldr	r3, .L691+20
 10012 339a 0322     		movs	r2, #3
 10013 339c 83F85A20 		strb	r2, [r3, #90]
2129:.\main.c      ****                                         break;
 10014              		.loc 1 2129 0
 10015 33a0 08E0     		b	.L514
 10016              	.L512:
ARM GAS  C:\Users\RECEPC~1\AppData\Local\Temp\ccU7e2eq.s 			page 219


2130:.\main.c      ****                                         case '3':
2131:.\main.c      ****                                         lado2.grado[2][0]=3;                                       
 10017              		.loc 1 2131 0
 10018 33a2 404B     		ldr	r3, .L691+20
 10019 33a4 0322     		movs	r2, #3
 10020 33a6 83F85B20 		strb	r2, [r3, #91]
2132:.\main.c      ****                                         break; 
 10021              		.loc 1 2132 0
 10022 33aa 03E0     		b	.L514
 10023              	.L650:
2133:.\main.c      ****                                         default:
2134:.\main.c      ****                                         producto3=0;
 10024              		.loc 1 2134 0
 10025 33ac 424B     		ldr	r3, .L691+40
 10026 33ae 0022     		movs	r2, #0
 10027 33b0 1A70     		strb	r2, [r3]
2135:.\main.c      ****                                         break;                                        
 10028              		.loc 1 2135 0
 10029 33b2 00BF     		nop
 10030              	.L514:
2136:.\main.c      ****                                     }                                      
2137:.\main.c      ****                                 break;
 10031              		.loc 1 2137 0
 10032 33b4 22E0     		b	.L494
 10033              	.L499:
2138:.\main.c      ****                                 case 4:// 4=supreme diesel, siempre para Autogas,
2139:.\main.c      ****                                     Productos[3]=Buffer_LCD1[1]+48;
 10034              		.loc 1 2139 0
 10035 33b6 374B     		ldr	r3, .L691+4
 10036 33b8 5B78     		ldrb	r3, [r3, #1]
 10037 33ba DBB2     		uxtb	r3, r3
 10038 33bc 3033     		adds	r3, r3, #48
 10039 33be DAB2     		uxtb	r2, r3
 10040 33c0 3A4B     		ldr	r3, .L691+28
 10041 33c2 DA70     		strb	r2, [r3, #3]
2140:.\main.c      ****                                     switch(Productos[3]){
 10042              		.loc 1 2140 0
 10043 33c4 394B     		ldr	r3, .L691+28
 10044 33c6 DB78     		ldrb	r3, [r3, #3]	@ zero_extendqisi2
 10045 33c8 322B     		cmp	r3, #50
 10046 33ca 08D0     		beq	.L516
 10047 33cc 332B     		cmp	r3, #51
 10048 33ce 0BD0     		beq	.L517
 10049 33d0 312B     		cmp	r3, #49
 10050 33d2 0ED1     		bne	.L651
2141:.\main.c      ****                                         case '1':
2142:.\main.c      ****                                         lado2.grado[0][0]=4;                                       
 10051              		.loc 1 2142 0
 10052 33d4 334B     		ldr	r3, .L691+20
 10053 33d6 0422     		movs	r2, #4
 10054 33d8 83F85920 		strb	r2, [r3, #89]
2143:.\main.c      ****                                         break;
 10055              		.loc 1 2143 0
 10056 33dc 0DE0     		b	.L519
 10057              	.L516:
2144:.\main.c      ****                                         case '2':
2145:.\main.c      ****                                         lado2.grado[1][0]=4;                                       
ARM GAS  C:\Users\RECEPC~1\AppData\Local\Temp\ccU7e2eq.s 			page 220


 10058              		.loc 1 2145 0
 10059 33de 314B     		ldr	r3, .L691+20
 10060 33e0 0422     		movs	r2, #4
 10061 33e2 83F85A20 		strb	r2, [r3, #90]
2146:.\main.c      ****                                         break;
 10062              		.loc 1 2146 0
 10063 33e6 08E0     		b	.L519
 10064              	.L517:
2147:.\main.c      ****                                         case '3':
2148:.\main.c      ****                                         lado2.grado[2][0]=4;                                       
 10065              		.loc 1 2148 0
 10066 33e8 2E4B     		ldr	r3, .L691+20
 10067 33ea 0422     		movs	r2, #4
 10068 33ec 83F85B20 		strb	r2, [r3, #91]
2149:.\main.c      ****                                         break;
 10069              		.loc 1 2149 0
 10070 33f0 03E0     		b	.L519
 10071              	.L651:
2150:.\main.c      ****                                         default:
2151:.\main.c      ****                                         producto4=0;
 10072              		.loc 1 2151 0
 10073 33f2 324B     		ldr	r3, .L691+44
 10074 33f4 0022     		movs	r2, #0
 10075 33f6 1A70     		strb	r2, [r3]
2152:.\main.c      ****                                         break;                                      
 10076              		.loc 1 2152 0
 10077 33f8 00BF     		nop
 10078              	.L519:
2153:.\main.c      ****                                     }                                      
2154:.\main.c      ****                                 break;                                    
 10079              		.loc 1 2154 0
 10080 33fa 00BF     		nop
 10081              	.L494:
2155:.\main.c      ****                             }
2156:.\main.c      ****                             write_LCD(1,Productos[0], 7, 44, 1);
 10082              		.loc 1 2156 0
 10083 33fc 2B4B     		ldr	r3, .L691+28
 10084 33fe 1A78     		ldrb	r2, [r3]	@ zero_extendqisi2
 10085 3400 0123     		movs	r3, #1
 10086 3402 0093     		str	r3, [sp]
 10087 3404 0120     		movs	r0, #1
 10088 3406 1146     		mov	r1, r2
 10089 3408 0722     		movs	r2, #7
 10090 340a 2C23     		movs	r3, #44
 10091 340c FFF7FEFF 		bl	write_LCD
2157:.\main.c      ****                             write_LCD(1,Productos[1], 14, 44, 1); 
 10092              		.loc 1 2157 0
 10093 3410 264B     		ldr	r3, .L691+28
 10094 3412 5A78     		ldrb	r2, [r3, #1]	@ zero_extendqisi2
 10095 3414 0123     		movs	r3, #1
 10096 3416 0093     		str	r3, [sp]
 10097 3418 0120     		movs	r0, #1
 10098 341a 1146     		mov	r1, r2
 10099 341c 0E22     		movs	r2, #14
 10100 341e 2C23     		movs	r3, #44
 10101 3420 FFF7FEFF 		bl	write_LCD
2158:.\main.c      ****                             write_LCD(1,Productos[2], 19, 44, 1);
ARM GAS  C:\Users\RECEPC~1\AppData\Local\Temp\ccU7e2eq.s 			page 221


 10102              		.loc 1 2158 0
 10103 3424 214B     		ldr	r3, .L691+28
 10104 3426 9A78     		ldrb	r2, [r3, #2]	@ zero_extendqisi2
 10105 3428 0123     		movs	r3, #1
 10106 342a 0093     		str	r3, [sp]
 10107 342c 0120     		movs	r0, #1
 10108 342e 1146     		mov	r1, r2
 10109 3430 1322     		movs	r2, #19
 10110 3432 2C23     		movs	r3, #44
 10111 3434 FFF7FEFF 		bl	write_LCD
2159:.\main.c      ****                             write_LCD(1,Productos[3], 25, 44, 1); 
 10112              		.loc 1 2159 0
 10113 3438 1C4B     		ldr	r3, .L691+28
 10114 343a DA78     		ldrb	r2, [r3, #3]	@ zero_extendqisi2
 10115 343c 0123     		movs	r3, #1
 10116 343e 0093     		str	r3, [sp]
 10117 3440 0120     		movs	r0, #1
 10118 3442 1146     		mov	r1, r2
 10119 3444 1922     		movs	r2, #25
 10120 3446 2C23     		movs	r3, #44
 10121 3448 FFF7FEFF 		bl	write_LCD
2160:.\main.c      **** 							lado1.estado=libre;                                 
 10122              		.loc 1 2160 0
 10123 344c 1C4B     		ldr	r3, .L691+48
 10124 344e 0122     		movs	r2, #1
 10125 3450 5A70     		strb	r2, [r3, #1]
2161:.\main.c      ****                             CyDelay(200);                             
 10126              		.loc 1 2161 0
 10127 3452 C820     		movs	r0, #200
 10128 3454 FFF7FEFF 		bl	CyDelay
2162:.\main.c      ****                         break;          
 10129              		.loc 1 2162 0
 10130 3458 CCE0     		b	.L438
 10131              	.L463:
2163:.\main.c      ****                         case 8:
2164:.\main.c      ****                             for(x=1;x<=4;x++){
 10132              		.loc 1 2164 0
 10133 345a 0123     		movs	r3, #1
 10134 345c 87F82F30 		strb	r3, [r7, #47]
 10135 3460 09E0     		b	.L520
 10136              	.L521:
2165:.\main.c      ****                               id_estacion[x]=0;
 10137              		.loc 1 2165 0 discriminator 3
 10138 3462 97F82F30 		ldrb	r3, [r7, #47]	@ zero_extendqisi2
 10139 3466 174A     		ldr	r2, .L691+52
 10140 3468 0021     		movs	r1, #0
 10141 346a D154     		strb	r1, [r2, r3]
2164:.\main.c      ****                               id_estacion[x]=0;
 10142              		.loc 1 2164 0 discriminator 3
 10143 346c 97F82F30 		ldrb	r3, [r7, #47]	@ zero_extendqisi2
 10144 3470 0133     		adds	r3, r3, #1
 10145 3472 87F82F30 		strb	r3, [r7, #47]
 10146              	.L520:
2164:.\main.c      ****                               id_estacion[x]=0;
 10147              		.loc 1 2164 0 is_stmt 0 discriminator 1
 10148 3476 97F82F30 		ldrb	r3, [r7, #47]	@ zero_extendqisi2
 10149 347a 042B     		cmp	r3, #4
ARM GAS  C:\Users\RECEPC~1\AppData\Local\Temp\ccU7e2eq.s 			page 222


 10150 347c F1D9     		bls	.L521
2166:.\main.c      ****                             }
2167:.\main.c      ****                             id_estacion[0]=4;
 10151              		.loc 1 2167 0 is_stmt 1
 10152 347e 114B     		ldr	r3, .L691+52
 10153 3480 0422     		movs	r2, #4
 10154 3482 1A70     		strb	r2, [r3]
2168:.\main.c      **** 							for(x=count_teclas1;x>=1;x--){
 10155              		.loc 1 2168 0
 10156 3484 024B     		ldr	r3, .L691
 10157 3486 1B78     		ldrb	r3, [r3]
 10158 3488 87F82F30 		strb	r3, [r7, #47]
 10159 348c 32E0     		b	.L522
 10160              	.L692:
 10161 348e 00BF     		.align	2
 10162              	.L691:
 10163 3490 00000000 		.word	count_teclas1
 10164 3494 00000000 		.word	Buffer_LCD1
 10165 3498 00000000 		.word	rventa1
 10166 349c 00000000 		.word	clave_local
 10167 34a0 00000000 		.word	flujo_LCD1
 10168 34a4 00000000 		.word	lado2
 10169 34a8 00000000 		.word	Producto
 10170 34ac 00000000 		.word	Productos
 10171 34b0 00000000 		.word	producto1
 10172 34b4 00000000 		.word	producto2
 10173 34b8 00000000 		.word	producto3
 10174 34bc 00000000 		.word	producto4
 10175 34c0 00000000 		.word	lado1
 10176 34c4 00000000 		.word	id_estacion
 10177              	.L523:
2169:.\main.c      **** 								id_estacion[x]=Buffer_LCD1[(count_teclas1-x)+1]+0X30;
 10178              		.loc 1 2169 0 discriminator 3
 10179 34c8 97F82F30 		ldrb	r3, [r7, #47]	@ zero_extendqisi2
 10180 34cc 884A     		ldr	r2, .L693
 10181 34ce 1278     		ldrb	r2, [r2]
 10182 34d0 D2B2     		uxtb	r2, r2
 10183 34d2 1146     		mov	r1, r2
 10184 34d4 97F82F20 		ldrb	r2, [r7, #47]	@ zero_extendqisi2
 10185 34d8 8A1A     		subs	r2, r1, r2
 10186 34da 0132     		adds	r2, r2, #1
 10187 34dc 8549     		ldr	r1, .L693+4
 10188 34de 8A5C     		ldrb	r2, [r1, r2]
 10189 34e0 D2B2     		uxtb	r2, r2
 10190 34e2 3032     		adds	r2, r2, #48
 10191 34e4 D1B2     		uxtb	r1, r2
 10192 34e6 844A     		ldr	r2, .L693+8
 10193 34e8 D154     		strb	r1, [r2, r3]
2168:.\main.c      **** 							for(x=count_teclas1;x>=1;x--){
 10194              		.loc 1 2168 0 discriminator 3
 10195 34ea 97F82F30 		ldrb	r3, [r7, #47]	@ zero_extendqisi2
 10196 34ee 013B     		subs	r3, r3, #1
 10197 34f0 87F82F30 		strb	r3, [r7, #47]
 10198              	.L522:
2168:.\main.c      **** 							for(x=count_teclas1;x>=1;x--){
 10199              		.loc 1 2168 0 is_stmt 0 discriminator 1
 10200 34f4 97F82F30 		ldrb	r3, [r7, #47]	@ zero_extendqisi2
ARM GAS  C:\Users\RECEPC~1\AppData\Local\Temp\ccU7e2eq.s 			page 223


 10201 34f8 002B     		cmp	r3, #0
 10202 34fa E5D1     		bne	.L523
2170:.\main.c      **** 							}                            
2171:.\main.c      ****                             if(id_estacion[1]>=0x30 && id_estacion[2]<0x30 && id_estacion[3]<0x30 &
 10203              		.loc 1 2171 0 is_stmt 1
 10204 34fc 7E4B     		ldr	r3, .L693+8
 10205 34fe 5B78     		ldrb	r3, [r3, #1]
 10206 3500 DBB2     		uxtb	r3, r3
 10207 3502 2F2B     		cmp	r3, #47
 10208 3504 17D9     		bls	.L524
 10209              		.loc 1 2171 0 is_stmt 0 discriminator 1
 10210 3506 7C4B     		ldr	r3, .L693+8
 10211 3508 9B78     		ldrb	r3, [r3, #2]
 10212 350a DBB2     		uxtb	r3, r3
 10213 350c 2F2B     		cmp	r3, #47
 10214 350e 12D8     		bhi	.L524
 10215              		.loc 1 2171 0 discriminator 2
 10216 3510 794B     		ldr	r3, .L693+8
 10217 3512 DB78     		ldrb	r3, [r3, #3]
 10218 3514 DBB2     		uxtb	r3, r3
 10219 3516 2F2B     		cmp	r3, #47
 10220 3518 0DD8     		bhi	.L524
 10221              		.loc 1 2171 0 discriminator 3
 10222 351a 774B     		ldr	r3, .L693+8
 10223 351c 1B79     		ldrb	r3, [r3, #4]
 10224 351e DBB2     		uxtb	r3, r3
 10225 3520 2F2B     		cmp	r3, #47
 10226 3522 08D8     		bhi	.L524
2172:.\main.c      ****                                 id_estacion[2]='0';
 10227              		.loc 1 2172 0 is_stmt 1
 10228 3524 744B     		ldr	r3, .L693+8
 10229 3526 3022     		movs	r2, #48
 10230 3528 9A70     		strb	r2, [r3, #2]
2173:.\main.c      ****                                 id_estacion[3]='0';
 10231              		.loc 1 2173 0
 10232 352a 734B     		ldr	r3, .L693+8
 10233 352c 3022     		movs	r2, #48
 10234 352e DA70     		strb	r2, [r3, #3]
2174:.\main.c      ****                                 id_estacion[4]='0';                                
 10235              		.loc 1 2174 0
 10236 3530 714B     		ldr	r3, .L693+8
 10237 3532 3022     		movs	r2, #48
 10238 3534 1A71     		strb	r2, [r3, #4]
 10239              	.L524:
2175:.\main.c      ****                             }
2176:.\main.c      ****                             if(id_estacion[1]>=0x30 && id_estacion[2]>=0x30 && id_estacion[3]<0x30 
 10240              		.loc 1 2176 0
 10241 3536 704B     		ldr	r3, .L693+8
 10242 3538 5B78     		ldrb	r3, [r3, #1]
 10243 353a DBB2     		uxtb	r3, r3
 10244 353c 2F2B     		cmp	r3, #47
 10245 353e 14D9     		bls	.L525
 10246              		.loc 1 2176 0 is_stmt 0 discriminator 1
 10247 3540 6D4B     		ldr	r3, .L693+8
 10248 3542 9B78     		ldrb	r3, [r3, #2]
 10249 3544 DBB2     		uxtb	r3, r3
 10250 3546 2F2B     		cmp	r3, #47
ARM GAS  C:\Users\RECEPC~1\AppData\Local\Temp\ccU7e2eq.s 			page 224


 10251 3548 0FD9     		bls	.L525
 10252              		.loc 1 2176 0 discriminator 2
 10253 354a 6B4B     		ldr	r3, .L693+8
 10254 354c DB78     		ldrb	r3, [r3, #3]
 10255 354e DBB2     		uxtb	r3, r3
 10256 3550 2F2B     		cmp	r3, #47
 10257 3552 0AD8     		bhi	.L525
 10258              		.loc 1 2176 0 discriminator 3
 10259 3554 684B     		ldr	r3, .L693+8
 10260 3556 1B79     		ldrb	r3, [r3, #4]
 10261 3558 DBB2     		uxtb	r3, r3
 10262 355a 2F2B     		cmp	r3, #47
 10263 355c 05D8     		bhi	.L525
2177:.\main.c      ****                                 id_estacion[3]='0';
 10264              		.loc 1 2177 0 is_stmt 1
 10265 355e 664B     		ldr	r3, .L693+8
 10266 3560 3022     		movs	r2, #48
 10267 3562 DA70     		strb	r2, [r3, #3]
2178:.\main.c      ****                                 id_estacion[4]='0';                             
 10268              		.loc 1 2178 0
 10269 3564 644B     		ldr	r3, .L693+8
 10270 3566 3022     		movs	r2, #48
 10271 3568 1A71     		strb	r2, [r3, #4]
 10272              	.L525:
2179:.\main.c      ****                             }  
2180:.\main.c      ****                             if(id_estacion[1]>=0x30 && id_estacion[2]>=0x30 && id_estacion[3]>=0x30
 10273              		.loc 1 2180 0
 10274 356a 634B     		ldr	r3, .L693+8
 10275 356c 5B78     		ldrb	r3, [r3, #1]
 10276 356e DBB2     		uxtb	r3, r3
 10277 3570 2F2B     		cmp	r3, #47
 10278 3572 11D9     		bls	.L526
 10279              		.loc 1 2180 0 is_stmt 0 discriminator 1
 10280 3574 604B     		ldr	r3, .L693+8
 10281 3576 9B78     		ldrb	r3, [r3, #2]
 10282 3578 DBB2     		uxtb	r3, r3
 10283 357a 2F2B     		cmp	r3, #47
 10284 357c 0CD9     		bls	.L526
 10285              		.loc 1 2180 0 discriminator 2
 10286 357e 5E4B     		ldr	r3, .L693+8
 10287 3580 DB78     		ldrb	r3, [r3, #3]
 10288 3582 DBB2     		uxtb	r3, r3
 10289 3584 2F2B     		cmp	r3, #47
 10290 3586 07D9     		bls	.L526
 10291              		.loc 1 2180 0 discriminator 3
 10292 3588 5B4B     		ldr	r3, .L693+8
 10293 358a 1B79     		ldrb	r3, [r3, #4]
 10294 358c DBB2     		uxtb	r3, r3
 10295 358e 2F2B     		cmp	r3, #47
 10296 3590 02D8     		bhi	.L526
2181:.\main.c      ****                                 id_estacion[4]='0';                              
 10297              		.loc 1 2181 0 is_stmt 1
 10298 3592 594B     		ldr	r3, .L693+8
 10299 3594 3022     		movs	r2, #48
 10300 3596 1A71     		strb	r2, [r3, #4]
 10301              	.L526:
2182:.\main.c      ****                             }
ARM GAS  C:\Users\RECEPC~1\AppData\Local\Temp\ccU7e2eq.s 			page 225


2183:.\main.c      ****                     		for(x=8;x<=12;x++){	
 10302              		.loc 1 2183 0
 10303 3598 0823     		movs	r3, #8
 10304 359a 87F82F30 		strb	r3, [r7, #47]
 10305 359e 11E0     		b	.L527
 10306              	.L528:
2184:.\main.c      ****                     			EEPROM_WriteByte(id_estacion[x-8], x);
 10307              		.loc 1 2184 0 discriminator 3
 10308 35a0 97F82F30 		ldrb	r3, [r7, #47]	@ zero_extendqisi2
 10309 35a4 083B     		subs	r3, r3, #8
 10310 35a6 544A     		ldr	r2, .L693+8
 10311 35a8 D35C     		ldrb	r3, [r2, r3]
 10312 35aa DAB2     		uxtb	r2, r3
 10313 35ac 97F82F30 		ldrb	r3, [r7, #47]	@ zero_extendqisi2
 10314 35b0 9BB2     		uxth	r3, r3
 10315 35b2 1046     		mov	r0, r2
 10316 35b4 1946     		mov	r1, r3
 10317 35b6 FFF7FEFF 		bl	EEPROM_WriteByte
2183:.\main.c      ****                     			EEPROM_WriteByte(id_estacion[x-8], x);
 10318              		.loc 1 2183 0 discriminator 3
 10319 35ba 97F82F30 		ldrb	r3, [r7, #47]	@ zero_extendqisi2
 10320 35be 0133     		adds	r3, r3, #1
 10321 35c0 87F82F30 		strb	r3, [r7, #47]
 10322              	.L527:
2183:.\main.c      ****                     			EEPROM_WriteByte(id_estacion[x-8], x);
 10323              		.loc 1 2183 0 is_stmt 0 discriminator 1
 10324 35c4 97F82F30 		ldrb	r3, [r7, #47]	@ zero_extendqisi2
 10325 35c8 0C2B     		cmp	r3, #12
 10326 35ca E9D9     		bls	.L528
2185:.\main.c      ****                     		}   
2186:.\main.c      ****                         	flujo_LCD1 = 12;	//viejo: 0
 10327              		.loc 1 2186 0 is_stmt 1
 10328 35cc 4B4B     		ldr	r3, .L693+12
 10329 35ce 0C22     		movs	r2, #12
 10330 35d0 1A70     		strb	r2, [r3]
2187:.\main.c      ****                             id_teclado1 = 2;
 10331              		.loc 1 2187 0
 10332 35d2 4B4B     		ldr	r3, .L693+16
 10333 35d4 0222     		movs	r2, #2
 10334 35d6 1A70     		strb	r2, [r3]
2188:.\main.c      ****                         	set_imagen(1,14); //viejo: 60
 10335              		.loc 1 2188 0
 10336 35d8 0120     		movs	r0, #1
 10337 35da 0E21     		movs	r1, #14
 10338 35dc FFF7FEFF 		bl	set_imagen
2189:.\main.c      ****                             CyDelay(200);
 10339              		.loc 1 2189 0
 10340 35e0 C820     		movs	r0, #200
 10341 35e2 FFF7FEFF 		bl	CyDelay
2190:.\main.c      ****                             count_teclas1 = 0;
 10342              		.loc 1 2190 0
 10343 35e6 424B     		ldr	r3, .L693
 10344 35e8 0022     		movs	r2, #0
 10345 35ea 1A70     		strb	r2, [r3]
2191:.\main.c      **** 							lado2.estado=libre;                                     
 10346              		.loc 1 2191 0
 10347 35ec 454B     		ldr	r3, .L693+20
ARM GAS  C:\Users\RECEPC~1\AppData\Local\Temp\ccU7e2eq.s 			page 226


 10348 35ee 0122     		movs	r2, #1
 10349 35f0 5A70     		strb	r2, [r3, #1]
2192:.\main.c      ****                         break;
 10350              		.loc 1 2192 0
 10351 35f2 00BF     		nop
 10352              	.L438:
2193:.\main.c      **** 					}					
2194:.\main.c      ****                 }
2195:.\main.c      ****             }                      
2196:.\main.c      ****             LCD_1_ClearRxBuffer();
 10353              		.loc 1 2196 0
 10354 35f4 FFF7FEFF 		bl	LCD_1_ClearRxBuffer
2197:.\main.c      ****          }
2198:.\main.c      ****         }
2199:.\main.c      ****         
2200:.\main.c      **** break; 
 10355              		.loc 1 2200 0
 10356 35f8 01F0F8B9 		b	.L117
 10357              	.L437:
 10358              		.loc 1 2200 0 is_stmt 0 discriminator 14
 10359 35fc 01F0F6B9 		b	.L117
 10360              	.L131:
2201:.\main.c      ****             
2202:.\main.c      ****                 case 13:  
2203:.\main.c      ****         if(seleccion_pos == 1){
 10361              		.loc 1 2203 0 is_stmt 1
 10362 3600 414B     		ldr	r3, .L693+24
 10363 3602 1B78     		ldrb	r3, [r3]
 10364 3604 DBB2     		uxtb	r3, r3
 10365 3606 012B     		cmp	r3, #1
 10366 3608 40F0D182 		bne	.L529
2204:.\main.c      **** 			rf_mod[0]='M';
 10367              		.loc 1 2204 0
 10368 360c 3F4B     		ldr	r3, .L693+28
 10369 360e 4D22     		movs	r2, #77
 10370 3610 1A70     		strb	r2, [r3]
2205:.\main.c      **** 			rf_mod[1]='U';
 10371              		.loc 1 2205 0
 10372 3612 3E4B     		ldr	r3, .L693+28
 10373 3614 5522     		movs	r2, #85
 10374 3616 5A70     		strb	r2, [r3, #1]
2206:.\main.c      **** 			rf_mod[2]='X';
 10375              		.loc 1 2206 0
 10376 3618 3C4B     		ldr	r3, .L693+28
 10377 361a 5822     		movs	r2, #88
 10378 361c 9A70     		strb	r2, [r3, #2]
2207:.\main.c      **** 			rf_mod[3]='1';
 10379              		.loc 1 2207 0
 10380 361e 3B4B     		ldr	r3, .L693+28
 10381 3620 3122     		movs	r2, #49
 10382 3622 DA70     		strb	r2, [r3, #3]
2208:.\main.c      **** 			rf_mod[4]=1 + 48;								//Cara
 10383              		.loc 1 2208 0
 10384 3624 394B     		ldr	r3, .L693+28
 10385 3626 3122     		movs	r2, #49
 10386 3628 1A71     		strb	r2, [r3, #4]
2209:.\main.c      **** 			rf_mod[5]=(lado1.grado[rventa1.producto-1][0] + 48);	//Id Producto	
ARM GAS  C:\Users\RECEPC~1\AppData\Local\Temp\ccU7e2eq.s 			page 227


 10387              		.loc 1 2209 0
 10388 362a 394B     		ldr	r3, .L693+32
 10389 362c 5B7E     		ldrb	r3, [r3, #25]	@ zero_extendqisi2
 10390 362e 013B     		subs	r3, r3, #1
 10391 3630 384A     		ldr	r2, .L693+36
 10392 3632 1344     		add	r3, r3, r2
 10393 3634 93F85930 		ldrb	r3, [r3, #89]
 10394 3638 DBB2     		uxtb	r3, r3
 10395 363a 3033     		adds	r3, r3, #48
 10396 363c DAB2     		uxtb	r2, r3
 10397 363e 334B     		ldr	r3, .L693+28
 10398 3640 5A71     		strb	r2, [r3, #5]
2210:.\main.c      **** 			rf_mod[6]=rventa1.volumen[5] + 48;						//Volumen
 10399              		.loc 1 2210 0
 10400 3642 334B     		ldr	r3, .L693+32
 10401 3644 5B7D     		ldrb	r3, [r3, #21]	@ zero_extendqisi2
 10402 3646 3033     		adds	r3, r3, #48
 10403 3648 DAB2     		uxtb	r2, r3
 10404 364a 304B     		ldr	r3, .L693+28
 10405 364c 9A71     		strb	r2, [r3, #6]
2211:.\main.c      **** 			rf_mod[7]=rventa1.volumen[4] + 48;
 10406              		.loc 1 2211 0
 10407 364e 304B     		ldr	r3, .L693+32
 10408 3650 1B7D     		ldrb	r3, [r3, #20]	@ zero_extendqisi2
 10409 3652 3033     		adds	r3, r3, #48
 10410 3654 DAB2     		uxtb	r2, r3
 10411 3656 2D4B     		ldr	r3, .L693+28
 10412 3658 DA71     		strb	r2, [r3, #7]
2212:.\main.c      **** 			rf_mod[8]=rventa1.volumen[3] + 48;
 10413              		.loc 1 2212 0
 10414 365a 2D4B     		ldr	r3, .L693+32
 10415 365c DB7C     		ldrb	r3, [r3, #19]	@ zero_extendqisi2
 10416 365e 3033     		adds	r3, r3, #48
 10417 3660 DAB2     		uxtb	r2, r3
 10418 3662 2A4B     		ldr	r3, .L693+28
 10419 3664 1A72     		strb	r2, [r3, #8]
2213:.\main.c      **** 			rf_mod[9]=',';
 10420              		.loc 1 2213 0
 10421 3666 294B     		ldr	r3, .L693+28
 10422 3668 2C22     		movs	r2, #44
 10423 366a 5A72     		strb	r2, [r3, #9]
2214:.\main.c      **** 			rf_mod[10]=rventa1.volumen[2] + 48;
 10424              		.loc 1 2214 0
 10425 366c 284B     		ldr	r3, .L693+32
 10426 366e 9B7C     		ldrb	r3, [r3, #18]	@ zero_extendqisi2
 10427 3670 3033     		adds	r3, r3, #48
 10428 3672 DAB2     		uxtb	r2, r3
 10429 3674 254B     		ldr	r3, .L693+28
 10430 3676 9A72     		strb	r2, [r3, #10]
2215:.\main.c      **** 			rf_mod[11]=rventa1.volumen[1] + 48;
 10431              		.loc 1 2215 0
 10432 3678 254B     		ldr	r3, .L693+32
 10433 367a 5B7C     		ldrb	r3, [r3, #17]	@ zero_extendqisi2
 10434 367c 3033     		adds	r3, r3, #48
 10435 367e DAB2     		uxtb	r2, r3
 10436 3680 224B     		ldr	r3, .L693+28
 10437 3682 DA72     		strb	r2, [r3, #11]
ARM GAS  C:\Users\RECEPC~1\AppData\Local\Temp\ccU7e2eq.s 			page 228


2216:.\main.c      **** 			rf_mod[12]=rventa1.volumen[0] + 48;
 10438              		.loc 1 2216 0
 10439 3684 224B     		ldr	r3, .L693+32
 10440 3686 1B7C     		ldrb	r3, [r3, #16]	@ zero_extendqisi2
 10441 3688 3033     		adds	r3, r3, #48
 10442 368a DAB2     		uxtb	r2, r3
 10443 368c 1F4B     		ldr	r3, .L693+28
 10444 368e 1A73     		strb	r2, [r3, #12]
2217:.\main.c      **** 			if(version[1]==7){
 10445              		.loc 1 2217 0
 10446 3690 214B     		ldr	r3, .L693+40
 10447 3692 5B78     		ldrb	r3, [r3, #1]
 10448 3694 DBB2     		uxtb	r3, r3
 10449 3696 072B     		cmp	r3, #7
 10450 3698 40D1     		bne	.L530
2218:.\main.c      **** 				rf_mod[13]=rventa1.dinero[7] + 48;	//Dinero 7 digitos
 10451              		.loc 1 2218 0
 10452 369a 1D4B     		ldr	r3, .L693+32
 10453 369c 9B7B     		ldrb	r3, [r3, #14]	@ zero_extendqisi2
 10454 369e 3033     		adds	r3, r3, #48
 10455 36a0 DAB2     		uxtb	r2, r3
 10456 36a2 1A4B     		ldr	r3, .L693+28
 10457 36a4 5A73     		strb	r2, [r3, #13]
2219:.\main.c      **** 				rf_mod[14]=rventa1.dinero[6] + 48;
 10458              		.loc 1 2219 0
 10459 36a6 1A4B     		ldr	r3, .L693+32
 10460 36a8 5B7B     		ldrb	r3, [r3, #13]	@ zero_extendqisi2
 10461 36aa 3033     		adds	r3, r3, #48
 10462 36ac DAB2     		uxtb	r2, r3
 10463 36ae 174B     		ldr	r3, .L693+28
 10464 36b0 9A73     		strb	r2, [r3, #14]
2220:.\main.c      **** 				rf_mod[15]=rventa1.dinero[5] + 48;
 10465              		.loc 1 2220 0
 10466 36b2 174B     		ldr	r3, .L693+32
 10467 36b4 1B7B     		ldrb	r3, [r3, #12]	@ zero_extendqisi2
 10468 36b6 3033     		adds	r3, r3, #48
 10469 36b8 DAB2     		uxtb	r2, r3
 10470 36ba 144B     		ldr	r3, .L693+28
 10471 36bc DA73     		strb	r2, [r3, #15]
2221:.\main.c      **** 				rf_mod[16]=rventa1.dinero[4] + 48;
 10472              		.loc 1 2221 0
 10473 36be 144B     		ldr	r3, .L693+32
 10474 36c0 DB7A     		ldrb	r3, [r3, #11]	@ zero_extendqisi2
 10475 36c2 3033     		adds	r3, r3, #48
 10476 36c4 DAB2     		uxtb	r2, r3
 10477 36c6 114B     		ldr	r3, .L693+28
 10478 36c8 1A74     		strb	r2, [r3, #16]
2222:.\main.c      **** 				rf_mod[17]=rventa1.dinero[3] + 48;
 10479              		.loc 1 2222 0
 10480 36ca 114B     		ldr	r3, .L693+32
 10481 36cc 9B7A     		ldrb	r3, [r3, #10]	@ zero_extendqisi2
 10482 36ce 3033     		adds	r3, r3, #48
 10483 36d0 DAB2     		uxtb	r2, r3
 10484 36d2 0E4B     		ldr	r3, .L693+28
 10485 36d4 5A74     		strb	r2, [r3, #17]
2223:.\main.c      **** 				rf_mod[18]=rventa1.dinero[2] + 48;
 10486              		.loc 1 2223 0
ARM GAS  C:\Users\RECEPC~1\AppData\Local\Temp\ccU7e2eq.s 			page 229


 10487 36d6 0E4B     		ldr	r3, .L693+32
 10488 36d8 5B7A     		ldrb	r3, [r3, #9]	@ zero_extendqisi2
 10489 36da 3033     		adds	r3, r3, #48
 10490 36dc DAB2     		uxtb	r2, r3
 10491 36de 0B4B     		ldr	r3, .L693+28
 10492 36e0 9A74     		strb	r2, [r3, #18]
2224:.\main.c      **** 				rf_mod[19]=rventa1.dinero[1] + 48;					
 10493              		.loc 1 2224 0
 10494 36e2 0B4B     		ldr	r3, .L693+32
 10495 36e4 1B7A     		ldrb	r3, [r3, #8]	@ zero_extendqisi2
 10496 36e6 3033     		adds	r3, r3, #48
 10497 36e8 DAB2     		uxtb	r2, r3
 10498 36ea 084B     		ldr	r3, .L693+28
 10499 36ec DA74     		strb	r2, [r3, #19]
 10500 36ee 3FE0     		b	.L531
 10501              	.L694:
 10502              		.align	2
 10503              	.L693:
 10504 36f0 00000000 		.word	count_teclas1
 10505 36f4 00000000 		.word	Buffer_LCD1
 10506 36f8 00000000 		.word	id_estacion
 10507 36fc 00000000 		.word	flujo_LCD1
 10508 3700 00000000 		.word	id_teclado1
 10509 3704 00000000 		.word	lado2
 10510 3708 00000000 		.word	seleccion_pos
 10511 370c 00000000 		.word	rf_mod
 10512 3710 00000000 		.word	rventa1
 10513 3714 00000000 		.word	lado1
 10514 3718 00000000 		.word	version
 10515              	.L530:
2225:.\main.c      **** 			}
2226:.\main.c      **** 			else{
2227:.\main.c      **** 				rf_mod[13]=rventa1.dinero[6] + 48;	//Dinero 6 digitos 
 10516              		.loc 1 2227 0
 10517 371c 664B     		ldr	r3, .L695
 10518 371e 5B7B     		ldrb	r3, [r3, #13]	@ zero_extendqisi2
 10519 3720 3033     		adds	r3, r3, #48
 10520 3722 DAB2     		uxtb	r2, r3
 10521 3724 654B     		ldr	r3, .L695+4
 10522 3726 5A73     		strb	r2, [r3, #13]
2228:.\main.c      **** 				rf_mod[14]=rventa1.dinero[5] + 48;
 10523              		.loc 1 2228 0
 10524 3728 634B     		ldr	r3, .L695
 10525 372a 1B7B     		ldrb	r3, [r3, #12]	@ zero_extendqisi2
 10526 372c 3033     		adds	r3, r3, #48
 10527 372e DAB2     		uxtb	r2, r3
 10528 3730 624B     		ldr	r3, .L695+4
 10529 3732 9A73     		strb	r2, [r3, #14]
2229:.\main.c      **** 				rf_mod[15]=rventa1.dinero[4] + 48;
 10530              		.loc 1 2229 0
 10531 3734 604B     		ldr	r3, .L695
 10532 3736 DB7A     		ldrb	r3, [r3, #11]	@ zero_extendqisi2
 10533 3738 3033     		adds	r3, r3, #48
 10534 373a DAB2     		uxtb	r2, r3
 10535 373c 5F4B     		ldr	r3, .L695+4
 10536 373e DA73     		strb	r2, [r3, #15]
2230:.\main.c      **** 				rf_mod[16]=rventa1.dinero[3] + 48;
ARM GAS  C:\Users\RECEPC~1\AppData\Local\Temp\ccU7e2eq.s 			page 230


 10537              		.loc 1 2230 0
 10538 3740 5D4B     		ldr	r3, .L695
 10539 3742 9B7A     		ldrb	r3, [r3, #10]	@ zero_extendqisi2
 10540 3744 3033     		adds	r3, r3, #48
 10541 3746 DAB2     		uxtb	r2, r3
 10542 3748 5C4B     		ldr	r3, .L695+4
 10543 374a 1A74     		strb	r2, [r3, #16]
2231:.\main.c      **** 				rf_mod[17]=rventa1.dinero[2] + 48;
 10544              		.loc 1 2231 0
 10545 374c 5A4B     		ldr	r3, .L695
 10546 374e 5B7A     		ldrb	r3, [r3, #9]	@ zero_extendqisi2
 10547 3750 3033     		adds	r3, r3, #48
 10548 3752 DAB2     		uxtb	r2, r3
 10549 3754 594B     		ldr	r3, .L695+4
 10550 3756 5A74     		strb	r2, [r3, #17]
2232:.\main.c      **** 				rf_mod[18]=rventa1.dinero[1] + 48;					
 10551              		.loc 1 2232 0
 10552 3758 574B     		ldr	r3, .L695
 10553 375a 1B7A     		ldrb	r3, [r3, #8]	@ zero_extendqisi2
 10554 375c 3033     		adds	r3, r3, #48
 10555 375e DAB2     		uxtb	r2, r3
 10556 3760 564B     		ldr	r3, .L695+4
 10557 3762 9A74     		strb	r2, [r3, #18]
2233:.\main.c      **** 				rf_mod[19]=rventa1.dinero[0] + 48;
 10558              		.loc 1 2233 0
 10559 3764 544B     		ldr	r3, .L695
 10560 3766 DB79     		ldrb	r3, [r3, #7]	@ zero_extendqisi2
 10561 3768 3033     		adds	r3, r3, #48
 10562 376a DAB2     		uxtb	r2, r3
 10563 376c 534B     		ldr	r3, .L695+4
 10564 376e DA74     		strb	r2, [r3, #19]
 10565              	.L531:
2234:.\main.c      **** 			}
2235:.\main.c      ****             if(ppux10==0){
 10566              		.loc 1 2235 0
 10567 3770 534B     		ldr	r3, .L695+8
 10568 3772 1B78     		ldrb	r3, [r3]
 10569 3774 DBB2     		uxtb	r3, r3
 10570 3776 002B     		cmp	r3, #0
 10571 3778 1DD1     		bne	.L532
2236:.\main.c      ****     			rf_mod[20]=rventa1.ppu[4] + 48;			//PPU
 10572              		.loc 1 2236 0
 10573 377a 4F4B     		ldr	r3, .L695
 10574 377c 9B79     		ldrb	r3, [r3, #6]	@ zero_extendqisi2
 10575 377e 3033     		adds	r3, r3, #48
 10576 3780 DAB2     		uxtb	r2, r3
 10577 3782 4E4B     		ldr	r3, .L695+4
 10578 3784 1A75     		strb	r2, [r3, #20]
2237:.\main.c      ****     			rf_mod[21]=rventa1.ppu[3] + 48;
 10579              		.loc 1 2237 0
 10580 3786 4C4B     		ldr	r3, .L695
 10581 3788 5B79     		ldrb	r3, [r3, #5]	@ zero_extendqisi2
 10582 378a 3033     		adds	r3, r3, #48
 10583 378c DAB2     		uxtb	r2, r3
 10584 378e 4B4B     		ldr	r3, .L695+4
 10585 3790 5A75     		strb	r2, [r3, #21]
2238:.\main.c      ****     			rf_mod[22]=rventa1.ppu[2] + 48;
ARM GAS  C:\Users\RECEPC~1\AppData\Local\Temp\ccU7e2eq.s 			page 231


 10586              		.loc 1 2238 0
 10587 3792 494B     		ldr	r3, .L695
 10588 3794 1B79     		ldrb	r3, [r3, #4]	@ zero_extendqisi2
 10589 3796 3033     		adds	r3, r3, #48
 10590 3798 DAB2     		uxtb	r2, r3
 10591 379a 484B     		ldr	r3, .L695+4
 10592 379c 9A75     		strb	r2, [r3, #22]
2239:.\main.c      ****     			rf_mod[23]=rventa1.ppu[1] + 48;
 10593              		.loc 1 2239 0
 10594 379e 464B     		ldr	r3, .L695
 10595 37a0 DB78     		ldrb	r3, [r3, #3]	@ zero_extendqisi2
 10596 37a2 3033     		adds	r3, r3, #48
 10597 37a4 DAB2     		uxtb	r2, r3
 10598 37a6 454B     		ldr	r3, .L695+4
 10599 37a8 DA75     		strb	r2, [r3, #23]
2240:.\main.c      ****     			rf_mod[24]=rventa1.ppu[0] + 48;
 10600              		.loc 1 2240 0
 10601 37aa 434B     		ldr	r3, .L695
 10602 37ac 9B78     		ldrb	r3, [r3, #2]	@ zero_extendqisi2
 10603 37ae 3033     		adds	r3, r3, #48
 10604 37b0 DAB2     		uxtb	r2, r3
 10605 37b2 424B     		ldr	r3, .L695+4
 10606 37b4 1A76     		strb	r2, [r3, #24]
 10607              	.L532:
2241:.\main.c      ****             }
2242:.\main.c      ****             if(ppux10==1){
 10608              		.loc 1 2242 0
 10609 37b6 424B     		ldr	r3, .L695+8
 10610 37b8 1B78     		ldrb	r3, [r3]
 10611 37ba DBB2     		uxtb	r3, r3
 10612 37bc 012B     		cmp	r3, #1
 10613 37be 1AD1     		bne	.L533
2243:.\main.c      ****     			rf_mod[20]=rventa1.ppu[3] + 48;			//PPU x10
 10614              		.loc 1 2243 0
 10615 37c0 3D4B     		ldr	r3, .L695
 10616 37c2 5B79     		ldrb	r3, [r3, #5]	@ zero_extendqisi2
 10617 37c4 3033     		adds	r3, r3, #48
 10618 37c6 DAB2     		uxtb	r2, r3
 10619 37c8 3C4B     		ldr	r3, .L695+4
 10620 37ca 1A75     		strb	r2, [r3, #20]
2244:.\main.c      ****     			rf_mod[21]=rventa1.ppu[2] + 48;
 10621              		.loc 1 2244 0
 10622 37cc 3A4B     		ldr	r3, .L695
 10623 37ce 1B79     		ldrb	r3, [r3, #4]	@ zero_extendqisi2
 10624 37d0 3033     		adds	r3, r3, #48
 10625 37d2 DAB2     		uxtb	r2, r3
 10626 37d4 394B     		ldr	r3, .L695+4
 10627 37d6 5A75     		strb	r2, [r3, #21]
2245:.\main.c      ****     			rf_mod[22]=rventa1.ppu[1] + 48;
 10628              		.loc 1 2245 0
 10629 37d8 374B     		ldr	r3, .L695
 10630 37da DB78     		ldrb	r3, [r3, #3]	@ zero_extendqisi2
 10631 37dc 3033     		adds	r3, r3, #48
 10632 37de DAB2     		uxtb	r2, r3
 10633 37e0 364B     		ldr	r3, .L695+4
 10634 37e2 9A75     		strb	r2, [r3, #22]
2246:.\main.c      ****     			rf_mod[23]=rventa1.ppu[0] + 48;
ARM GAS  C:\Users\RECEPC~1\AppData\Local\Temp\ccU7e2eq.s 			page 232


 10635              		.loc 1 2246 0
 10636 37e4 344B     		ldr	r3, .L695
 10637 37e6 9B78     		ldrb	r3, [r3, #2]	@ zero_extendqisi2
 10638 37e8 3033     		adds	r3, r3, #48
 10639 37ea DAB2     		uxtb	r2, r3
 10640 37ec 334B     		ldr	r3, .L695+4
 10641 37ee DA75     		strb	r2, [r3, #23]
2247:.\main.c      ****     			rf_mod[24]=48;
 10642              		.loc 1 2247 0
 10643 37f0 324B     		ldr	r3, .L695+4
 10644 37f2 3022     		movs	r2, #48
 10645 37f4 1A76     		strb	r2, [r3, #24]
 10646              	.L533:
2248:.\main.c      ****             }
2249:.\main.c      **** 			rf_mod[25]=id_estacion[4];				//Id Estacion	
 10647              		.loc 1 2249 0
 10648 37f6 334B     		ldr	r3, .L695+12
 10649 37f8 1B79     		ldrb	r3, [r3, #4]
 10650 37fa DAB2     		uxtb	r2, r3
 10651 37fc 2F4B     		ldr	r3, .L695+4
 10652 37fe 5A76     		strb	r2, [r3, #25]
2250:.\main.c      **** 			rf_mod[26]=id_estacion[3];
 10653              		.loc 1 2250 0
 10654 3800 304B     		ldr	r3, .L695+12
 10655 3802 DB78     		ldrb	r3, [r3, #3]
 10656 3804 DAB2     		uxtb	r2, r3
 10657 3806 2D4B     		ldr	r3, .L695+4
 10658 3808 9A76     		strb	r2, [r3, #26]
2251:.\main.c      **** 			rf_mod[27]=id_estacion[2];
 10659              		.loc 1 2251 0
 10660 380a 2E4B     		ldr	r3, .L695+12
 10661 380c 9B78     		ldrb	r3, [r3, #2]
 10662 380e DAB2     		uxtb	r2, r3
 10663 3810 2A4B     		ldr	r3, .L695+4
 10664 3812 DA76     		strb	r2, [r3, #27]
2252:.\main.c      **** 			rf_mod[28]=id_estacion[1];
 10665              		.loc 1 2252 0
 10666 3814 2B4B     		ldr	r3, .L695+12
 10667 3816 5B78     		ldrb	r3, [r3, #1]
 10668 3818 DAB2     		uxtb	r2, r3
 10669 381a 284B     		ldr	r3, .L695+4
 10670 381c 1A77     		strb	r2, [r3, #28]
2253:.\main.c      **** 			
2254:.\main.c      ****             if(tipo_venta == 1){
 10671              		.loc 1 2254 0
 10672 381e 2A4B     		ldr	r3, .L695+16
 10673 3820 1B78     		ldrb	r3, [r3]	@ zero_extendqisi2
 10674 3822 012B     		cmp	r3, #1
 10675 3824 43D1     		bne	.L534
2255:.\main.c      ****                 for(x=0;x<=15;x++){						//Serial				
 10676              		.loc 1 2255 0
 10677 3826 0023     		movs	r3, #0
 10678 3828 87F82F30 		strb	r3, [r7, #47]
 10679 382c 3AE0     		b	.L535
 10680              	.L538:
2256:.\main.c      **** 				    y=(rventa1.id[x/2]>>4)&0x0F;
 10681              		.loc 1 2256 0
ARM GAS  C:\Users\RECEPC~1\AppData\Local\Temp\ccU7e2eq.s 			page 233


 10682 382e 97F82F30 		ldrb	r3, [r7, #47]	@ zero_extendqisi2
 10683 3832 5B08     		lsrs	r3, r3, #1
 10684 3834 DBB2     		uxtb	r3, r3
 10685 3836 1A46     		mov	r2, r3
 10686 3838 1F4B     		ldr	r3, .L695
 10687 383a 1344     		add	r3, r3, r2
 10688 383c 93F82330 		ldrb	r3, [r3, #35]	@ zero_extendqisi2
 10689 3840 1B09     		lsrs	r3, r3, #4
 10690 3842 87F82E30 		strb	r3, [r7, #46]
2257:.\main.c      **** 				    if((x%2)==0){
 10691              		.loc 1 2257 0
 10692 3846 97F82F30 		ldrb	r3, [r7, #47]
 10693 384a 03F00103 		and	r3, r3, #1
 10694 384e DBB2     		uxtb	r3, r3
 10695 3850 002B     		cmp	r3, #0
 10696 3852 0CD1     		bne	.L536
2258:.\main.c      **** 					    y=rventa1.id[x/2]&0x0F;
 10697              		.loc 1 2258 0
 10698 3854 97F82F30 		ldrb	r3, [r7, #47]	@ zero_extendqisi2
 10699 3858 5B08     		lsrs	r3, r3, #1
 10700 385a DBB2     		uxtb	r3, r3
 10701 385c 1A46     		mov	r2, r3
 10702 385e 164B     		ldr	r3, .L695
 10703 3860 1344     		add	r3, r3, r2
 10704 3862 93F82330 		ldrb	r3, [r3, #35]	@ zero_extendqisi2
 10705 3866 03F00F03 		and	r3, r3, #15
 10706 386a 87F82E30 		strb	r3, [r7, #46]
 10707              	.L536:
2259:.\main.c      **** 				    }
2260:.\main.c      **** 				    rf_mod[x+29] = y+48;
 10708              		.loc 1 2260 0
 10709 386e 97F82F30 		ldrb	r3, [r7, #47]	@ zero_extendqisi2
 10710 3872 1D33     		adds	r3, r3, #29
 10711 3874 97F82E20 		ldrb	r2, [r7, #46]
 10712 3878 3032     		adds	r2, r2, #48
 10713 387a D1B2     		uxtb	r1, r2
 10714 387c 0F4A     		ldr	r2, .L695+4
 10715 387e D154     		strb	r1, [r2, r3]
2261:.\main.c      **** 				    if(y>9){
 10716              		.loc 1 2261 0
 10717 3880 97F82E30 		ldrb	r3, [r7, #46]	@ zero_extendqisi2
 10718 3884 092B     		cmp	r3, #9
 10719 3886 08D9     		bls	.L537
2262:.\main.c      **** 					    rf_mod[x+29] = y+55;
 10720              		.loc 1 2262 0
 10721 3888 97F82F30 		ldrb	r3, [r7, #47]	@ zero_extendqisi2
 10722 388c 1D33     		adds	r3, r3, #29
 10723 388e 97F82E20 		ldrb	r2, [r7, #46]
 10724 3892 3732     		adds	r2, r2, #55
 10725 3894 D1B2     		uxtb	r1, r2
 10726 3896 094A     		ldr	r2, .L695+4
 10727 3898 D154     		strb	r1, [r2, r3]
 10728              	.L537:
2255:.\main.c      **** 				    y=(rventa1.id[x/2]>>4)&0x0F;
 10729              		.loc 1 2255 0 discriminator 2
 10730 389a 97F82F30 		ldrb	r3, [r7, #47]	@ zero_extendqisi2
 10731 389e 0133     		adds	r3, r3, #1
ARM GAS  C:\Users\RECEPC~1\AppData\Local\Temp\ccU7e2eq.s 			page 234


 10732 38a0 87F82F30 		strb	r3, [r7, #47]
 10733              	.L535:
2255:.\main.c      **** 				    y=(rventa1.id[x/2]>>4)&0x0F;
 10734              		.loc 1 2255 0 is_stmt 0 discriminator 1
 10735 38a4 97F82F30 		ldrb	r3, [r7, #47]	@ zero_extendqisi2
 10736 38a8 0F2B     		cmp	r3, #15
 10737 38aa C0D9     		bls	.L538
 10738 38ac 4DE0     		b	.L539
 10739              	.L534:
2263:.\main.c      **** 				    }
2264:.\main.c      **** 			    }
2265:.\main.c      ****             }else{
2266:.\main.c      ****                 for(x=0;x<=15;x++){						//Serial				
 10740              		.loc 1 2266 0 is_stmt 1
 10741 38ae 0023     		movs	r3, #0
 10742 38b0 87F82F30 		strb	r3, [r7, #47]
 10743 38b4 45E0     		b	.L540
 10744              	.L696:
 10745 38b6 00BF     		.align	2
 10746              	.L695:
 10747 38b8 00000000 		.word	rventa1
 10748 38bc 00000000 		.word	rf_mod
 10749 38c0 00000000 		.word	ppux10
 10750 38c4 00000000 		.word	id_estacion
 10751 38c8 00000000 		.word	tipo_venta
 10752              	.L543:
2267:.\main.c      **** 				    y=(rventa1.id[x/2]>>4)&0x0F;
 10753              		.loc 1 2267 0
 10754 38cc 97F82F30 		ldrb	r3, [r7, #47]	@ zero_extendqisi2
 10755 38d0 5B08     		lsrs	r3, r3, #1
 10756 38d2 DBB2     		uxtb	r3, r3
 10757 38d4 1A46     		mov	r2, r3
 10758 38d6 7D4B     		ldr	r3, .L697
 10759 38d8 1344     		add	r3, r3, r2
 10760 38da 93F82330 		ldrb	r3, [r3, #35]	@ zero_extendqisi2
 10761 38de 1B09     		lsrs	r3, r3, #4
 10762 38e0 87F82E30 		strb	r3, [r7, #46]
2268:.\main.c      **** 				    if((x%2)==0){
 10763              		.loc 1 2268 0
 10764 38e4 97F82F30 		ldrb	r3, [r7, #47]
 10765 38e8 03F00103 		and	r3, r3, #1
 10766 38ec DBB2     		uxtb	r3, r3
 10767 38ee 002B     		cmp	r3, #0
 10768 38f0 0CD1     		bne	.L541
2269:.\main.c      **** 					    y=rventa1.id[x/2]&0x0F;
 10769              		.loc 1 2269 0
 10770 38f2 97F82F30 		ldrb	r3, [r7, #47]	@ zero_extendqisi2
 10771 38f6 5B08     		lsrs	r3, r3, #1
 10772 38f8 DBB2     		uxtb	r3, r3
 10773 38fa 1A46     		mov	r2, r3
 10774 38fc 734B     		ldr	r3, .L697
 10775 38fe 1344     		add	r3, r3, r2
 10776 3900 93F82330 		ldrb	r3, [r3, #35]	@ zero_extendqisi2
 10777 3904 03F00F03 		and	r3, r3, #15
 10778 3908 87F82E30 		strb	r3, [r7, #46]
 10779              	.L541:
2270:.\main.c      **** 				    }
ARM GAS  C:\Users\RECEPC~1\AppData\Local\Temp\ccU7e2eq.s 			page 235


2271:.\main.c      **** 				    rf_mod[x+29] = y+48;
 10780              		.loc 1 2271 0
 10781 390c 97F82F30 		ldrb	r3, [r7, #47]	@ zero_extendqisi2
 10782 3910 1D33     		adds	r3, r3, #29
 10783 3912 97F82E20 		ldrb	r2, [r7, #46]
 10784 3916 3032     		adds	r2, r2, #48
 10785 3918 D1B2     		uxtb	r1, r2
 10786 391a 6D4A     		ldr	r2, .L697+4
 10787 391c D154     		strb	r1, [r2, r3]
2272:.\main.c      **** 				    if(y>9){
 10788              		.loc 1 2272 0
 10789 391e 97F82E30 		ldrb	r3, [r7, #46]	@ zero_extendqisi2
 10790 3922 092B     		cmp	r3, #9
 10791 3924 08D9     		bls	.L542
2273:.\main.c      **** 					    rf_mod[x+29] = y+55;
 10792              		.loc 1 2273 0
 10793 3926 97F82F30 		ldrb	r3, [r7, #47]	@ zero_extendqisi2
 10794 392a 1D33     		adds	r3, r3, #29
 10795 392c 97F82E20 		ldrb	r2, [r7, #46]
 10796 3930 3732     		adds	r2, r2, #55
 10797 3932 D1B2     		uxtb	r1, r2
 10798 3934 664A     		ldr	r2, .L697+4
 10799 3936 D154     		strb	r1, [r2, r3]
 10800              	.L542:
2266:.\main.c      **** 				    y=(rventa1.id[x/2]>>4)&0x0F;
 10801              		.loc 1 2266 0 discriminator 2
 10802 3938 97F82F30 		ldrb	r3, [r7, #47]	@ zero_extendqisi2
 10803 393c 0133     		adds	r3, r3, #1
 10804 393e 87F82F30 		strb	r3, [r7, #47]
 10805              	.L540:
2266:.\main.c      **** 				    y=(rventa1.id[x/2]>>4)&0x0F;
 10806              		.loc 1 2266 0 is_stmt 0 discriminator 1
 10807 3942 97F82F30 		ldrb	r3, [r7, #47]	@ zero_extendqisi2
 10808 3946 0F2B     		cmp	r3, #15
 10809 3948 C0D9     		bls	.L543
 10810              	.L539:
2274:.\main.c      **** 				    }
2275:.\main.c      **** 			    }               
2276:.\main.c      ****             }
2277:.\main.c      **** 			num_decimal2++;
 10811              		.loc 1 2277 0 is_stmt 1
 10812 394a 624B     		ldr	r3, .L697+8
 10813 394c 1B88     		ldrh	r3, [r3]
 10814 394e 0133     		adds	r3, r3, #1
 10815 3950 9AB2     		uxth	r2, r3
 10816 3952 604B     		ldr	r3, .L697+8
 10817 3954 1A80     		strh	r2, [r3]	@ movhi
2278:.\main.c      **** 			id_venta[4]=(num_decimal2/1000)+48;
 10818              		.loc 1 2278 0
 10819 3956 5F4B     		ldr	r3, .L697+8
 10820 3958 1B88     		ldrh	r3, [r3]
 10821 395a 5F4A     		ldr	r2, .L697+12
 10822 395c A2FB0323 		umull	r2, r3, r2, r3
 10823 3960 9B09     		lsrs	r3, r3, #6
 10824 3962 9BB2     		uxth	r3, r3
 10825 3964 DBB2     		uxtb	r3, r3
 10826 3966 3033     		adds	r3, r3, #48
ARM GAS  C:\Users\RECEPC~1\AppData\Local\Temp\ccU7e2eq.s 			page 236


 10827 3968 DAB2     		uxtb	r2, r3
 10828 396a 5C4B     		ldr	r3, .L697+16
 10829 396c 1A71     		strb	r2, [r3, #4]
2279:.\main.c      **** 			id_venta[3]=((num_decimal2%1000)/100)+48;
 10830              		.loc 1 2279 0
 10831 396e 594B     		ldr	r3, .L697+8
 10832 3970 1B88     		ldrh	r3, [r3]
 10833 3972 594A     		ldr	r2, .L697+12
 10834 3974 A2FB0312 		umull	r1, r2, r2, r3
 10835 3978 9209     		lsrs	r2, r2, #6
 10836 397a 4FF47A71 		mov	r1, #1000
 10837 397e 01FB02F2 		mul	r2, r1, r2
 10838 3982 9B1A     		subs	r3, r3, r2
 10839 3984 9BB2     		uxth	r3, r3
 10840 3986 564A     		ldr	r2, .L697+20
 10841 3988 A2FB0323 		umull	r2, r3, r2, r3
 10842 398c 5B09     		lsrs	r3, r3, #5
 10843 398e 9BB2     		uxth	r3, r3
 10844 3990 DBB2     		uxtb	r3, r3
 10845 3992 3033     		adds	r3, r3, #48
 10846 3994 DAB2     		uxtb	r2, r3
 10847 3996 514B     		ldr	r3, .L697+16
 10848 3998 DA70     		strb	r2, [r3, #3]
2280:.\main.c      **** 			id_venta[2]=(((num_decimal2%1000)%100)/10)+48;
 10849              		.loc 1 2280 0
 10850 399a 4E4B     		ldr	r3, .L697+8
 10851 399c 1B88     		ldrh	r3, [r3]
 10852 399e 4E4A     		ldr	r2, .L697+12
 10853 39a0 A2FB0312 		umull	r1, r2, r2, r3
 10854 39a4 9209     		lsrs	r2, r2, #6
 10855 39a6 4FF47A71 		mov	r1, #1000
 10856 39aa 01FB02F2 		mul	r2, r1, r2
 10857 39ae 9B1A     		subs	r3, r3, r2
 10858 39b0 9BB2     		uxth	r3, r3
 10859 39b2 4B4A     		ldr	r2, .L697+20
 10860 39b4 A2FB0312 		umull	r1, r2, r2, r3
 10861 39b8 5209     		lsrs	r2, r2, #5
 10862 39ba 6421     		movs	r1, #100
 10863 39bc 01FB02F2 		mul	r2, r1, r2
 10864 39c0 9B1A     		subs	r3, r3, r2
 10865 39c2 9BB2     		uxth	r3, r3
 10866 39c4 474A     		ldr	r2, .L697+24
 10867 39c6 A2FB0323 		umull	r2, r3, r2, r3
 10868 39ca DB08     		lsrs	r3, r3, #3
 10869 39cc 9BB2     		uxth	r3, r3
 10870 39ce DBB2     		uxtb	r3, r3
 10871 39d0 3033     		adds	r3, r3, #48
 10872 39d2 DAB2     		uxtb	r2, r3
 10873 39d4 414B     		ldr	r3, .L697+16
 10874 39d6 9A70     		strb	r2, [r3, #2]
2281:.\main.c      **** 			id_venta[1]=(((num_decimal2%1000)%100)%10)+48; 
 10875              		.loc 1 2281 0
 10876 39d8 3E4B     		ldr	r3, .L697+8
 10877 39da 1B88     		ldrh	r3, [r3]
 10878 39dc 3E4A     		ldr	r2, .L697+12
 10879 39de A2FB0312 		umull	r1, r2, r2, r3
 10880 39e2 9209     		lsrs	r2, r2, #6
ARM GAS  C:\Users\RECEPC~1\AppData\Local\Temp\ccU7e2eq.s 			page 237


 10881 39e4 4FF47A71 		mov	r1, #1000
 10882 39e8 01FB02F2 		mul	r2, r1, r2
 10883 39ec 9B1A     		subs	r3, r3, r2
 10884 39ee 9BB2     		uxth	r3, r3
 10885 39f0 3B4A     		ldr	r2, .L697+20
 10886 39f2 A2FB0312 		umull	r1, r2, r2, r3
 10887 39f6 5209     		lsrs	r2, r2, #5
 10888 39f8 6421     		movs	r1, #100
 10889 39fa 01FB02F2 		mul	r2, r1, r2
 10890 39fe 9B1A     		subs	r3, r3, r2
 10891 3a00 9AB2     		uxth	r2, r3
 10892 3a02 384B     		ldr	r3, .L697+24
 10893 3a04 A3FB0213 		umull	r1, r3, r3, r2
 10894 3a08 D908     		lsrs	r1, r3, #3
 10895 3a0a 0B46     		mov	r3, r1
 10896 3a0c 9B00     		lsls	r3, r3, #2
 10897 3a0e 0B44     		add	r3, r3, r1
 10898 3a10 5B00     		lsls	r3, r3, #1
 10899 3a12 D31A     		subs	r3, r2, r3
 10900 3a14 9BB2     		uxth	r3, r3
 10901 3a16 DBB2     		uxtb	r3, r3
 10902 3a18 3033     		adds	r3, r3, #48
 10903 3a1a DAB2     		uxtb	r2, r3
 10904 3a1c 2F4B     		ldr	r3, .L697+16
 10905 3a1e 5A70     		strb	r2, [r3, #1]
2282:.\main.c      **** 			for(x=1;x<=7;x++){						//Id de Venta
 10906              		.loc 1 2282 0
 10907 3a20 0123     		movs	r3, #1
 10908 3a22 87F82F30 		strb	r3, [r7, #47]
 10909 3a26 0EE0     		b	.L544
 10910              	.L545:
2283:.\main.c      **** 				rf_mod[44+x]=id_venta[x];
 10911              		.loc 1 2283 0 discriminator 3
 10912 3a28 97F82F30 		ldrb	r3, [r7, #47]	@ zero_extendqisi2
 10913 3a2c 2C33     		adds	r3, r3, #44
 10914 3a2e 97F82F20 		ldrb	r2, [r7, #47]	@ zero_extendqisi2
 10915 3a32 2A49     		ldr	r1, .L697+16
 10916 3a34 8A5C     		ldrb	r2, [r1, r2]
 10917 3a36 D1B2     		uxtb	r1, r2
 10918 3a38 254A     		ldr	r2, .L697+4
 10919 3a3a D154     		strb	r1, [r2, r3]
2282:.\main.c      **** 			for(x=1;x<=7;x++){						//Id de Venta
 10920              		.loc 1 2282 0 discriminator 3
 10921 3a3c 97F82F30 		ldrb	r3, [r7, #47]	@ zero_extendqisi2
 10922 3a40 0133     		adds	r3, r3, #1
 10923 3a42 87F82F30 		strb	r3, [r7, #47]
 10924              	.L544:
2282:.\main.c      **** 			for(x=1;x<=7;x++){						//Id de Venta
 10925              		.loc 1 2282 0 is_stmt 0 discriminator 1
 10926 3a46 97F82F30 		ldrb	r3, [r7, #47]	@ zero_extendqisi2
 10927 3a4a 072B     		cmp	r3, #7
 10928 3a4c ECD9     		bls	.L545
2284:.\main.c      **** 			}
2285:.\main.c      **** 			for(x=1;x<=4;x++){						//Guarda Id venta
 10929              		.loc 1 2285 0 is_stmt 1
 10930 3a4e 0123     		movs	r3, #1
 10931 3a50 87F82F30 		strb	r3, [r7, #47]
ARM GAS  C:\Users\RECEPC~1\AppData\Local\Temp\ccU7e2eq.s 			page 238


 10932 3a54 10E0     		b	.L546
 10933              	.L547:
2286:.\main.c      **** 				EEPROM_WriteByte(id_venta[x],x);
 10934              		.loc 1 2286 0 discriminator 3
 10935 3a56 97F82F30 		ldrb	r3, [r7, #47]	@ zero_extendqisi2
 10936 3a5a 204A     		ldr	r2, .L697+16
 10937 3a5c D35C     		ldrb	r3, [r2, r3]
 10938 3a5e DAB2     		uxtb	r2, r3
 10939 3a60 97F82F30 		ldrb	r3, [r7, #47]	@ zero_extendqisi2
 10940 3a64 9BB2     		uxth	r3, r3
 10941 3a66 1046     		mov	r0, r2
 10942 3a68 1946     		mov	r1, r3
 10943 3a6a FFF7FEFF 		bl	EEPROM_WriteByte
2285:.\main.c      **** 				EEPROM_WriteByte(id_venta[x],x);
 10944              		.loc 1 2285 0 discriminator 3
 10945 3a6e 97F82F30 		ldrb	r3, [r7, #47]	@ zero_extendqisi2
 10946 3a72 0133     		adds	r3, r3, #1
 10947 3a74 87F82F30 		strb	r3, [r7, #47]
 10948              	.L546:
2285:.\main.c      **** 				EEPROM_WriteByte(id_venta[x],x);
 10949              		.loc 1 2285 0 is_stmt 0 discriminator 1
 10950 3a78 97F82F30 		ldrb	r3, [r7, #47]	@ zero_extendqisi2
 10951 3a7c 042B     		cmp	r3, #4
 10952 3a7e EAD9     		bls	.L547
2287:.\main.c      **** 			}
2288:.\main.c      **** 			for(x=0;x<=6;x++){						//Km
 10953              		.loc 1 2288 0 is_stmt 1
 10954 3a80 0023     		movs	r3, #0
 10955 3a82 87F82F30 		strb	r3, [r7, #47]
 10956 3a86 12E0     		b	.L548
 10957              	.L549:
2289:.\main.c      **** 				rf_mod[52+x]=rventa1.km[x+1] + 48;
 10958              		.loc 1 2289 0 discriminator 3
 10959 3a88 97F82F30 		ldrb	r3, [r7, #47]	@ zero_extendqisi2
 10960 3a8c 3433     		adds	r3, r3, #52
 10961 3a8e 97F82F20 		ldrb	r2, [r7, #47]	@ zero_extendqisi2
 10962 3a92 0132     		adds	r2, r2, #1
 10963 3a94 0D49     		ldr	r1, .L697
 10964 3a96 0A44     		add	r2, r2, r1
 10965 3a98 92F84320 		ldrb	r2, [r2, #67]	@ zero_extendqisi2
 10966 3a9c 3032     		adds	r2, r2, #48
 10967 3a9e D1B2     		uxtb	r1, r2
 10968 3aa0 0B4A     		ldr	r2, .L697+4
 10969 3aa2 D154     		strb	r1, [r2, r3]
2288:.\main.c      **** 				rf_mod[52+x]=rventa1.km[x+1] + 48;
 10970              		.loc 1 2288 0 discriminator 3
 10971 3aa4 97F82F30 		ldrb	r3, [r7, #47]	@ zero_extendqisi2
 10972 3aa8 0133     		adds	r3, r3, #1
 10973 3aaa 87F82F30 		strb	r3, [r7, #47]
 10974              	.L548:
2288:.\main.c      **** 				rf_mod[52+x]=rventa1.km[x+1] + 48;
 10975              		.loc 1 2288 0 is_stmt 0 discriminator 1
 10976 3aae 97F82F30 		ldrb	r3, [r7, #47]	@ zero_extendqisi2
 10977 3ab2 062B     		cmp	r3, #6
 10978 3ab4 E8D9     		bls	.L549
2290:.\main.c      **** 			}				
2291:.\main.c      **** 			rf_mod[59]='*';
ARM GAS  C:\Users\RECEPC~1\AppData\Local\Temp\ccU7e2eq.s 			page 239


 10979              		.loc 1 2291 0 is_stmt 1
 10980 3ab6 064B     		ldr	r3, .L697+4
 10981 3ab8 2A22     		movs	r2, #42
 10982 3aba 83F83B20 		strb	r2, [r3, #59]
2292:.\main.c      **** 			PC_ClearRxBuffer();				
 10983              		.loc 1 2292 0
 10984 3abe FFF7FEFF 		bl	PC_ClearRxBuffer
2293:.\main.c      **** 		    for(x=0;x<=59;x++){
 10985              		.loc 1 2293 0
 10986 3ac2 0023     		movs	r3, #0
 10987 3ac4 87F82F30 		strb	r3, [r7, #47]
 10988 3ac8 1AE0     		b	.L550
 10989              	.L698:
 10990 3aca 00BF     		.align	2
 10991              	.L697:
 10992 3acc 00000000 		.word	rventa1
 10993 3ad0 00000000 		.word	rf_mod
 10994 3ad4 00000000 		.word	num_decimal2
 10995 3ad8 D34D6210 		.word	274877907
 10996 3adc 00000000 		.word	id_venta
 10997 3ae0 1F85EB51 		.word	1374389535
 10998 3ae4 CDCCCCCC 		.word	-858993459
 10999              	.L551:
2294:.\main.c      **** 			   PC_PutChar(rf_mod[x]);
 11000              		.loc 1 2294 0 discriminator 3
 11001 3ae8 97F82F30 		ldrb	r3, [r7, #47]	@ zero_extendqisi2
 11002 3aec 6C4A     		ldr	r2, .L699
 11003 3aee D35C     		ldrb	r3, [r2, r3]	@ zero_extendqisi2
 11004 3af0 1846     		mov	r0, r3
 11005 3af2 FFF7FEFF 		bl	PC_PutChar
2293:.\main.c      **** 		    for(x=0;x<=59;x++){
 11006              		.loc 1 2293 0 discriminator 3
 11007 3af6 97F82F30 		ldrb	r3, [r7, #47]	@ zero_extendqisi2
 11008 3afa 0133     		adds	r3, r3, #1
 11009 3afc 87F82F30 		strb	r3, [r7, #47]
 11010              	.L550:
2293:.\main.c      **** 		    for(x=0;x<=59;x++){
 11011              		.loc 1 2293 0 is_stmt 0 discriminator 1
 11012 3b00 97F82F30 		ldrb	r3, [r7, #47]	@ zero_extendqisi2
 11013 3b04 3B2B     		cmp	r3, #59
 11014 3b06 EFD9     		bls	.L551
2295:.\main.c      **** 		    }            
2296:.\main.c      ****             PC_ClearRxBuffer();
 11015              		.loc 1 2296 0 is_stmt 1
 11016 3b08 FFF7FEFF 		bl	PC_ClearRxBuffer
2297:.\main.c      **** 			CyDelay(300);
 11017              		.loc 1 2297 0
 11018 3b0c 4FF49670 		mov	r0, #300
 11019 3b10 FFF7FEFF 		bl	CyDelay
2298:.\main.c      ****             PC_ClearTxBuffer();				
 11020              		.loc 1 2298 0
 11021 3b14 FFF7FEFF 		bl	PC_ClearTxBuffer
2299:.\main.c      ****             estado_tanqueando=0;				
 11022              		.loc 1 2299 0
 11023 3b18 624B     		ldr	r3, .L699+4
 11024 3b1a 0022     		movs	r2, #0
 11025 3b1c 1A70     		strb	r2, [r3]
ARM GAS  C:\Users\RECEPC~1\AppData\Local\Temp\ccU7e2eq.s 			page 240


2300:.\main.c      **** 			precio[0]=lado1.ppu[rventa1.producto-1][0];
 11026              		.loc 1 2300 0
 11027 3b1e 624B     		ldr	r3, .L699+8
 11028 3b20 5B7E     		ldrb	r3, [r3, #25]	@ zero_extendqisi2
 11029 3b22 5A1E     		subs	r2, r3, #1
 11030 3b24 6149     		ldr	r1, .L699+12
 11031 3b26 1346     		mov	r3, r2
 11032 3b28 9B00     		lsls	r3, r3, #2
 11033 3b2a 1344     		add	r3, r3, r2
 11034 3b2c 0B44     		add	r3, r3, r1
 11035 3b2e 4833     		adds	r3, r3, #72
 11036 3b30 9B78     		ldrb	r3, [r3, #2]
 11037 3b32 DBB2     		uxtb	r3, r3
 11038 3b34 3B73     		strb	r3, [r7, #12]
2301:.\main.c      **** 			precio[1]=lado1.ppu[rventa1.producto-1][1];
 11039              		.loc 1 2301 0
 11040 3b36 5C4B     		ldr	r3, .L699+8
 11041 3b38 5B7E     		ldrb	r3, [r3, #25]	@ zero_extendqisi2
 11042 3b3a 5A1E     		subs	r2, r3, #1
 11043 3b3c 5B49     		ldr	r1, .L699+12
 11044 3b3e 1346     		mov	r3, r2
 11045 3b40 9B00     		lsls	r3, r3, #2
 11046 3b42 1344     		add	r3, r3, r2
 11047 3b44 0B44     		add	r3, r3, r1
 11048 3b46 4933     		adds	r3, r3, #73
 11049 3b48 9B78     		ldrb	r3, [r3, #2]
 11050 3b4a DBB2     		uxtb	r3, r3
 11051 3b4c 7B73     		strb	r3, [r7, #13]
2302:.\main.c      **** 			precio[2]=lado1.ppu[rventa1.producto-1][2];
 11052              		.loc 1 2302 0
 11053 3b4e 564B     		ldr	r3, .L699+8
 11054 3b50 5B7E     		ldrb	r3, [r3, #25]	@ zero_extendqisi2
 11055 3b52 5A1E     		subs	r2, r3, #1
 11056 3b54 5549     		ldr	r1, .L699+12
 11057 3b56 1346     		mov	r3, r2
 11058 3b58 9B00     		lsls	r3, r3, #2
 11059 3b5a 1344     		add	r3, r3, r2
 11060 3b5c 0B44     		add	r3, r3, r1
 11061 3b5e 4A33     		adds	r3, r3, #74
 11062 3b60 9B78     		ldrb	r3, [r3, #2]
 11063 3b62 DBB2     		uxtb	r3, r3
 11064 3b64 BB73     		strb	r3, [r7, #14]
2303:.\main.c      **** 			precio[3]=lado1.ppu[rventa1.producto-1][3];
 11065              		.loc 1 2303 0
 11066 3b66 504B     		ldr	r3, .L699+8
 11067 3b68 5B7E     		ldrb	r3, [r3, #25]	@ zero_extendqisi2
 11068 3b6a 5A1E     		subs	r2, r3, #1
 11069 3b6c 4F49     		ldr	r1, .L699+12
 11070 3b6e 1346     		mov	r3, r2
 11071 3b70 9B00     		lsls	r3, r3, #2
 11072 3b72 1344     		add	r3, r3, r2
 11073 3b74 0B44     		add	r3, r3, r1
 11074 3b76 4B33     		adds	r3, r3, #75
 11075 3b78 9B78     		ldrb	r3, [r3, #2]
 11076 3b7a DBB2     		uxtb	r3, r3
 11077 3b7c FB73     		strb	r3, [r7, #15]
2304:.\main.c      **** 			precio[4]=lado1.ppu[rventa1.producto-1][4];
ARM GAS  C:\Users\RECEPC~1\AppData\Local\Temp\ccU7e2eq.s 			page 241


 11078              		.loc 1 2304 0
 11079 3b7e 4A4B     		ldr	r3, .L699+8
 11080 3b80 5B7E     		ldrb	r3, [r3, #25]	@ zero_extendqisi2
 11081 3b82 5A1E     		subs	r2, r3, #1
 11082 3b84 4949     		ldr	r1, .L699+12
 11083 3b86 1346     		mov	r3, r2
 11084 3b88 9B00     		lsls	r3, r3, #2
 11085 3b8a 1344     		add	r3, r3, r2
 11086 3b8c 0B44     		add	r3, r3, r1
 11087 3b8e 4C33     		adds	r3, r3, #76
 11088 3b90 9B78     		ldrb	r3, [r3, #2]
 11089 3b92 DBB2     		uxtb	r3, r3
 11090 3b94 3B74     		strb	r3, [r7, #16]
2305:.\main.c      **** 			cambiar_precio(lado1.dir,precio,rventa1.producto);
 11091              		.loc 1 2305 0
 11092 3b96 454B     		ldr	r3, .L699+12
 11093 3b98 1B78     		ldrb	r3, [r3]
 11094 3b9a D9B2     		uxtb	r1, r3
 11095 3b9c 424B     		ldr	r3, .L699+8
 11096 3b9e 5B7E     		ldrb	r3, [r3, #25]	@ zero_extendqisi2
 11097 3ba0 07F10C02 		add	r2, r7, #12
 11098 3ba4 0846     		mov	r0, r1
 11099 3ba6 1146     		mov	r1, r2
 11100 3ba8 1A46     		mov	r2, r3
 11101 3baa FFF7FEFF 		bl	cambiar_precio
 11102              	.L529:
2306:.\main.c      ****         }
2307:.\main.c      ****         if(seleccion_pos == 2){
 11103              		.loc 1 2307 0
 11104 3bae 404B     		ldr	r3, .L699+16
 11105 3bb0 1B78     		ldrb	r3, [r3]
 11106 3bb2 DBB2     		uxtb	r3, r3
 11107 3bb4 022B     		cmp	r3, #2
 11108 3bb6 40F0BF82 		bne	.L552
2308:.\main.c      **** 			rf_mod[0]='M';
 11109              		.loc 1 2308 0
 11110 3bba 394B     		ldr	r3, .L699
 11111 3bbc 4D22     		movs	r2, #77
 11112 3bbe 1A70     		strb	r2, [r3]
2309:.\main.c      **** 			rf_mod[1]='U';
 11113              		.loc 1 2309 0
 11114 3bc0 374B     		ldr	r3, .L699
 11115 3bc2 5522     		movs	r2, #85
 11116 3bc4 5A70     		strb	r2, [r3, #1]
2310:.\main.c      **** 			rf_mod[2]='X';
 11117              		.loc 1 2310 0
 11118 3bc6 364B     		ldr	r3, .L699
 11119 3bc8 5822     		movs	r2, #88
 11120 3bca 9A70     		strb	r2, [r3, #2]
2311:.\main.c      **** 			rf_mod[3]='1';
 11121              		.loc 1 2311 0
 11122 3bcc 344B     		ldr	r3, .L699
 11123 3bce 3122     		movs	r2, #49
 11124 3bd0 DA70     		strb	r2, [r3, #3]
2312:.\main.c      **** 			rf_mod[4]=2 + 48;								//Cara
 11125              		.loc 1 2312 0
 11126 3bd2 334B     		ldr	r3, .L699
ARM GAS  C:\Users\RECEPC~1\AppData\Local\Temp\ccU7e2eq.s 			page 242


 11127 3bd4 3222     		movs	r2, #50
 11128 3bd6 1A71     		strb	r2, [r3, #4]
2313:.\main.c      **** 			rf_mod[5]=(lado2.grado[rventa2.producto-1][0] + 48);	//Id Producto	
 11129              		.loc 1 2313 0
 11130 3bd8 364B     		ldr	r3, .L699+20
 11131 3bda 5B7E     		ldrb	r3, [r3, #25]	@ zero_extendqisi2
 11132 3bdc 013B     		subs	r3, r3, #1
 11133 3bde 364A     		ldr	r2, .L699+24
 11134 3be0 1344     		add	r3, r3, r2
 11135 3be2 93F85930 		ldrb	r3, [r3, #89]
 11136 3be6 DBB2     		uxtb	r3, r3
 11137 3be8 3033     		adds	r3, r3, #48
 11138 3bea DAB2     		uxtb	r2, r3
 11139 3bec 2C4B     		ldr	r3, .L699
 11140 3bee 5A71     		strb	r2, [r3, #5]
2314:.\main.c      **** 			rf_mod[6]=rventa2.volumen[5] + 48;						//Volumen
 11141              		.loc 1 2314 0
 11142 3bf0 304B     		ldr	r3, .L699+20
 11143 3bf2 5B7D     		ldrb	r3, [r3, #21]	@ zero_extendqisi2
 11144 3bf4 3033     		adds	r3, r3, #48
 11145 3bf6 DAB2     		uxtb	r2, r3
 11146 3bf8 294B     		ldr	r3, .L699
 11147 3bfa 9A71     		strb	r2, [r3, #6]
2315:.\main.c      **** 			rf_mod[7]=rventa2.volumen[4] + 48;
 11148              		.loc 1 2315 0
 11149 3bfc 2D4B     		ldr	r3, .L699+20
 11150 3bfe 1B7D     		ldrb	r3, [r3, #20]	@ zero_extendqisi2
 11151 3c00 3033     		adds	r3, r3, #48
 11152 3c02 DAB2     		uxtb	r2, r3
 11153 3c04 264B     		ldr	r3, .L699
 11154 3c06 DA71     		strb	r2, [r3, #7]
2316:.\main.c      **** 			rf_mod[8]=rventa2.volumen[3] + 48;
 11155              		.loc 1 2316 0
 11156 3c08 2A4B     		ldr	r3, .L699+20
 11157 3c0a DB7C     		ldrb	r3, [r3, #19]	@ zero_extendqisi2
 11158 3c0c 3033     		adds	r3, r3, #48
 11159 3c0e DAB2     		uxtb	r2, r3
 11160 3c10 234B     		ldr	r3, .L699
 11161 3c12 1A72     		strb	r2, [r3, #8]
2317:.\main.c      **** 			rf_mod[9]=',';
 11162              		.loc 1 2317 0
 11163 3c14 224B     		ldr	r3, .L699
 11164 3c16 2C22     		movs	r2, #44
 11165 3c18 5A72     		strb	r2, [r3, #9]
2318:.\main.c      **** 			rf_mod[10]=rventa2.volumen[2] + 48;
 11166              		.loc 1 2318 0
 11167 3c1a 264B     		ldr	r3, .L699+20
 11168 3c1c 9B7C     		ldrb	r3, [r3, #18]	@ zero_extendqisi2
 11169 3c1e 3033     		adds	r3, r3, #48
 11170 3c20 DAB2     		uxtb	r2, r3
 11171 3c22 1F4B     		ldr	r3, .L699
 11172 3c24 9A72     		strb	r2, [r3, #10]
2319:.\main.c      **** 			rf_mod[11]=rventa2.volumen[1] + 48;
 11173              		.loc 1 2319 0
 11174 3c26 234B     		ldr	r3, .L699+20
 11175 3c28 5B7C     		ldrb	r3, [r3, #17]	@ zero_extendqisi2
 11176 3c2a 3033     		adds	r3, r3, #48
ARM GAS  C:\Users\RECEPC~1\AppData\Local\Temp\ccU7e2eq.s 			page 243


 11177 3c2c DAB2     		uxtb	r2, r3
 11178 3c2e 1C4B     		ldr	r3, .L699
 11179 3c30 DA72     		strb	r2, [r3, #11]
2320:.\main.c      **** 			rf_mod[12]=rventa2.volumen[0] + 48;
 11180              		.loc 1 2320 0
 11181 3c32 204B     		ldr	r3, .L699+20
 11182 3c34 1B7C     		ldrb	r3, [r3, #16]	@ zero_extendqisi2
 11183 3c36 3033     		adds	r3, r3, #48
 11184 3c38 DAB2     		uxtb	r2, r3
 11185 3c3a 194B     		ldr	r3, .L699
 11186 3c3c 1A73     		strb	r2, [r3, #12]
2321:.\main.c      **** 			if(version[1]==7){
 11187              		.loc 1 2321 0
 11188 3c3e 1F4B     		ldr	r3, .L699+28
 11189 3c40 5B78     		ldrb	r3, [r3, #1]
 11190 3c42 DBB2     		uxtb	r3, r3
 11191 3c44 072B     		cmp	r3, #7
 11192 3c46 3BD1     		bne	.L553
2322:.\main.c      **** 				rf_mod[13]=rventa2.dinero[7] + 48;	//Dinero 7 digitos
 11193              		.loc 1 2322 0
 11194 3c48 1A4B     		ldr	r3, .L699+20
 11195 3c4a 9B7B     		ldrb	r3, [r3, #14]	@ zero_extendqisi2
 11196 3c4c 3033     		adds	r3, r3, #48
 11197 3c4e DAB2     		uxtb	r2, r3
 11198 3c50 134B     		ldr	r3, .L699
 11199 3c52 5A73     		strb	r2, [r3, #13]
2323:.\main.c      **** 				rf_mod[14]=rventa2.dinero[6] + 48;
 11200              		.loc 1 2323 0
 11201 3c54 174B     		ldr	r3, .L699+20
 11202 3c56 5B7B     		ldrb	r3, [r3, #13]	@ zero_extendqisi2
 11203 3c58 3033     		adds	r3, r3, #48
 11204 3c5a DAB2     		uxtb	r2, r3
 11205 3c5c 104B     		ldr	r3, .L699
 11206 3c5e 9A73     		strb	r2, [r3, #14]
2324:.\main.c      **** 				rf_mod[15]=rventa2.dinero[5] + 48;
 11207              		.loc 1 2324 0
 11208 3c60 144B     		ldr	r3, .L699+20
 11209 3c62 1B7B     		ldrb	r3, [r3, #12]	@ zero_extendqisi2
 11210 3c64 3033     		adds	r3, r3, #48
 11211 3c66 DAB2     		uxtb	r2, r3
 11212 3c68 0D4B     		ldr	r3, .L699
 11213 3c6a DA73     		strb	r2, [r3, #15]
2325:.\main.c      **** 				rf_mod[16]=rventa2.dinero[4] + 48;
 11214              		.loc 1 2325 0
 11215 3c6c 114B     		ldr	r3, .L699+20
 11216 3c6e DB7A     		ldrb	r3, [r3, #11]	@ zero_extendqisi2
 11217 3c70 3033     		adds	r3, r3, #48
 11218 3c72 DAB2     		uxtb	r2, r3
 11219 3c74 0A4B     		ldr	r3, .L699
 11220 3c76 1A74     		strb	r2, [r3, #16]
2326:.\main.c      **** 				rf_mod[17]=rventa2.dinero[3] + 48;
 11221              		.loc 1 2326 0
 11222 3c78 0E4B     		ldr	r3, .L699+20
 11223 3c7a 9B7A     		ldrb	r3, [r3, #10]	@ zero_extendqisi2
 11224 3c7c 3033     		adds	r3, r3, #48
 11225 3c7e DAB2     		uxtb	r2, r3
 11226 3c80 074B     		ldr	r3, .L699
ARM GAS  C:\Users\RECEPC~1\AppData\Local\Temp\ccU7e2eq.s 			page 244


 11227 3c82 5A74     		strb	r2, [r3, #17]
2327:.\main.c      **** 				rf_mod[18]=rventa2.dinero[2] + 48;
 11228              		.loc 1 2327 0
 11229 3c84 0B4B     		ldr	r3, .L699+20
 11230 3c86 5B7A     		ldrb	r3, [r3, #9]	@ zero_extendqisi2
 11231 3c88 3033     		adds	r3, r3, #48
 11232 3c8a DAB2     		uxtb	r2, r3
 11233 3c8c 044B     		ldr	r3, .L699
 11234 3c8e 9A74     		strb	r2, [r3, #18]
2328:.\main.c      **** 				rf_mod[19]=rventa2.dinero[1] + 48;					
 11235              		.loc 1 2328 0
 11236 3c90 084B     		ldr	r3, .L699+20
 11237 3c92 1B7A     		ldrb	r3, [r3, #8]	@ zero_extendqisi2
 11238 3c94 3033     		adds	r3, r3, #48
 11239 3c96 DAB2     		uxtb	r2, r3
 11240 3c98 014B     		ldr	r3, .L699
 11241 3c9a DA74     		strb	r2, [r3, #19]
 11242 3c9c 3AE0     		b	.L554
 11243              	.L700:
 11244 3c9e 00BF     		.align	2
 11245              	.L699:
 11246 3ca0 00000000 		.word	rf_mod
 11247 3ca4 00000000 		.word	estado_tanqueando
 11248 3ca8 00000000 		.word	rventa1
 11249 3cac 00000000 		.word	lado1
 11250 3cb0 00000000 		.word	seleccion_pos
 11251 3cb4 00000000 		.word	rventa2
 11252 3cb8 00000000 		.word	lado2
 11253 3cbc 00000000 		.word	version
 11254              	.L553:
2329:.\main.c      **** 			}
2330:.\main.c      **** 			else{
2331:.\main.c      **** 				rf_mod[13]=rventa2.dinero[6] + 48;	//Dinero 6 digitos 
 11255              		.loc 1 2331 0
 11256 3cc0 664B     		ldr	r3, .L701
 11257 3cc2 5B7B     		ldrb	r3, [r3, #13]	@ zero_extendqisi2
 11258 3cc4 3033     		adds	r3, r3, #48
 11259 3cc6 DAB2     		uxtb	r2, r3
 11260 3cc8 654B     		ldr	r3, .L701+4
 11261 3cca 5A73     		strb	r2, [r3, #13]
2332:.\main.c      **** 				rf_mod[14]=rventa2.dinero[5] + 48;
 11262              		.loc 1 2332 0
 11263 3ccc 634B     		ldr	r3, .L701
 11264 3cce 1B7B     		ldrb	r3, [r3, #12]	@ zero_extendqisi2
 11265 3cd0 3033     		adds	r3, r3, #48
 11266 3cd2 DAB2     		uxtb	r2, r3
 11267 3cd4 624B     		ldr	r3, .L701+4
 11268 3cd6 9A73     		strb	r2, [r3, #14]
2333:.\main.c      **** 				rf_mod[15]=rventa2.dinero[4] + 48;
 11269              		.loc 1 2333 0
 11270 3cd8 604B     		ldr	r3, .L701
 11271 3cda DB7A     		ldrb	r3, [r3, #11]	@ zero_extendqisi2
 11272 3cdc 3033     		adds	r3, r3, #48
 11273 3cde DAB2     		uxtb	r2, r3
 11274 3ce0 5F4B     		ldr	r3, .L701+4
 11275 3ce2 DA73     		strb	r2, [r3, #15]
2334:.\main.c      **** 				rf_mod[16]=rventa2.dinero[3] + 48;
ARM GAS  C:\Users\RECEPC~1\AppData\Local\Temp\ccU7e2eq.s 			page 245


 11276              		.loc 1 2334 0
 11277 3ce4 5D4B     		ldr	r3, .L701
 11278 3ce6 9B7A     		ldrb	r3, [r3, #10]	@ zero_extendqisi2
 11279 3ce8 3033     		adds	r3, r3, #48
 11280 3cea DAB2     		uxtb	r2, r3
 11281 3cec 5C4B     		ldr	r3, .L701+4
 11282 3cee 1A74     		strb	r2, [r3, #16]
2335:.\main.c      **** 				rf_mod[17]=rventa2.dinero[2] + 48;
 11283              		.loc 1 2335 0
 11284 3cf0 5A4B     		ldr	r3, .L701
 11285 3cf2 5B7A     		ldrb	r3, [r3, #9]	@ zero_extendqisi2
 11286 3cf4 3033     		adds	r3, r3, #48
 11287 3cf6 DAB2     		uxtb	r2, r3
 11288 3cf8 594B     		ldr	r3, .L701+4
 11289 3cfa 5A74     		strb	r2, [r3, #17]
2336:.\main.c      **** 				rf_mod[18]=rventa2.dinero[1] + 48;					
 11290              		.loc 1 2336 0
 11291 3cfc 574B     		ldr	r3, .L701
 11292 3cfe 1B7A     		ldrb	r3, [r3, #8]	@ zero_extendqisi2
 11293 3d00 3033     		adds	r3, r3, #48
 11294 3d02 DAB2     		uxtb	r2, r3
 11295 3d04 564B     		ldr	r3, .L701+4
 11296 3d06 9A74     		strb	r2, [r3, #18]
2337:.\main.c      **** 				rf_mod[19]=rventa2.dinero[0] + 48;
 11297              		.loc 1 2337 0
 11298 3d08 544B     		ldr	r3, .L701
 11299 3d0a DB79     		ldrb	r3, [r3, #7]	@ zero_extendqisi2
 11300 3d0c 3033     		adds	r3, r3, #48
 11301 3d0e DAB2     		uxtb	r2, r3
 11302 3d10 534B     		ldr	r3, .L701+4
 11303 3d12 DA74     		strb	r2, [r3, #19]
 11304              	.L554:
2338:.\main.c      **** 			}
2339:.\main.c      ****             if(ppux10==0){
 11305              		.loc 1 2339 0
 11306 3d14 534B     		ldr	r3, .L701+8
 11307 3d16 1B78     		ldrb	r3, [r3]
 11308 3d18 DBB2     		uxtb	r3, r3
 11309 3d1a 002B     		cmp	r3, #0
 11310 3d1c 1DD1     		bne	.L555
2340:.\main.c      ****     			rf_mod[20]=rventa2.ppu[4] + 48;			//PPU
 11311              		.loc 1 2340 0
 11312 3d1e 4F4B     		ldr	r3, .L701
 11313 3d20 9B79     		ldrb	r3, [r3, #6]	@ zero_extendqisi2
 11314 3d22 3033     		adds	r3, r3, #48
 11315 3d24 DAB2     		uxtb	r2, r3
 11316 3d26 4E4B     		ldr	r3, .L701+4
 11317 3d28 1A75     		strb	r2, [r3, #20]
2341:.\main.c      ****     			rf_mod[21]=rventa2.ppu[3] + 48;
 11318              		.loc 1 2341 0
 11319 3d2a 4C4B     		ldr	r3, .L701
 11320 3d2c 5B79     		ldrb	r3, [r3, #5]	@ zero_extendqisi2
 11321 3d2e 3033     		adds	r3, r3, #48
 11322 3d30 DAB2     		uxtb	r2, r3
 11323 3d32 4B4B     		ldr	r3, .L701+4
 11324 3d34 5A75     		strb	r2, [r3, #21]
2342:.\main.c      ****     			rf_mod[22]=rventa2.ppu[2] + 48;
ARM GAS  C:\Users\RECEPC~1\AppData\Local\Temp\ccU7e2eq.s 			page 246


 11325              		.loc 1 2342 0
 11326 3d36 494B     		ldr	r3, .L701
 11327 3d38 1B79     		ldrb	r3, [r3, #4]	@ zero_extendqisi2
 11328 3d3a 3033     		adds	r3, r3, #48
 11329 3d3c DAB2     		uxtb	r2, r3
 11330 3d3e 484B     		ldr	r3, .L701+4
 11331 3d40 9A75     		strb	r2, [r3, #22]
2343:.\main.c      ****     			rf_mod[23]=rventa2.ppu[1] + 48;
 11332              		.loc 1 2343 0
 11333 3d42 464B     		ldr	r3, .L701
 11334 3d44 DB78     		ldrb	r3, [r3, #3]	@ zero_extendqisi2
 11335 3d46 3033     		adds	r3, r3, #48
 11336 3d48 DAB2     		uxtb	r2, r3
 11337 3d4a 454B     		ldr	r3, .L701+4
 11338 3d4c DA75     		strb	r2, [r3, #23]
2344:.\main.c      ****     			rf_mod[24]=rventa2.ppu[0] + 48;
 11339              		.loc 1 2344 0
 11340 3d4e 434B     		ldr	r3, .L701
 11341 3d50 9B78     		ldrb	r3, [r3, #2]	@ zero_extendqisi2
 11342 3d52 3033     		adds	r3, r3, #48
 11343 3d54 DAB2     		uxtb	r2, r3
 11344 3d56 424B     		ldr	r3, .L701+4
 11345 3d58 1A76     		strb	r2, [r3, #24]
 11346              	.L555:
2345:.\main.c      ****             }
2346:.\main.c      ****             if(ppux10==1){
 11347              		.loc 1 2346 0
 11348 3d5a 424B     		ldr	r3, .L701+8
 11349 3d5c 1B78     		ldrb	r3, [r3]
 11350 3d5e DBB2     		uxtb	r3, r3
 11351 3d60 012B     		cmp	r3, #1
 11352 3d62 1AD1     		bne	.L556
2347:.\main.c      ****     			rf_mod[20]=rventa2.ppu[3] + 48;			//PPU x10
 11353              		.loc 1 2347 0
 11354 3d64 3D4B     		ldr	r3, .L701
 11355 3d66 5B79     		ldrb	r3, [r3, #5]	@ zero_extendqisi2
 11356 3d68 3033     		adds	r3, r3, #48
 11357 3d6a DAB2     		uxtb	r2, r3
 11358 3d6c 3C4B     		ldr	r3, .L701+4
 11359 3d6e 1A75     		strb	r2, [r3, #20]
2348:.\main.c      ****     			rf_mod[21]=rventa2.ppu[2] + 48;
 11360              		.loc 1 2348 0
 11361 3d70 3A4B     		ldr	r3, .L701
 11362 3d72 1B79     		ldrb	r3, [r3, #4]	@ zero_extendqisi2
 11363 3d74 3033     		adds	r3, r3, #48
 11364 3d76 DAB2     		uxtb	r2, r3
 11365 3d78 394B     		ldr	r3, .L701+4
 11366 3d7a 5A75     		strb	r2, [r3, #21]
2349:.\main.c      ****     			rf_mod[22]=rventa2.ppu[1] + 48;
 11367              		.loc 1 2349 0
 11368 3d7c 374B     		ldr	r3, .L701
 11369 3d7e DB78     		ldrb	r3, [r3, #3]	@ zero_extendqisi2
 11370 3d80 3033     		adds	r3, r3, #48
 11371 3d82 DAB2     		uxtb	r2, r3
 11372 3d84 364B     		ldr	r3, .L701+4
 11373 3d86 9A75     		strb	r2, [r3, #22]
2350:.\main.c      ****     			rf_mod[23]=rventa2.ppu[0] + 48;
ARM GAS  C:\Users\RECEPC~1\AppData\Local\Temp\ccU7e2eq.s 			page 247


 11374              		.loc 1 2350 0
 11375 3d88 344B     		ldr	r3, .L701
 11376 3d8a 9B78     		ldrb	r3, [r3, #2]	@ zero_extendqisi2
 11377 3d8c 3033     		adds	r3, r3, #48
 11378 3d8e DAB2     		uxtb	r2, r3
 11379 3d90 334B     		ldr	r3, .L701+4
 11380 3d92 DA75     		strb	r2, [r3, #23]
2351:.\main.c      ****     			rf_mod[24]=48;
 11381              		.loc 1 2351 0
 11382 3d94 324B     		ldr	r3, .L701+4
 11383 3d96 3022     		movs	r2, #48
 11384 3d98 1A76     		strb	r2, [r3, #24]
 11385              	.L556:
2352:.\main.c      ****             }
2353:.\main.c      **** 			rf_mod[25]=id_estacion[4];				//Id Estacion	
 11386              		.loc 1 2353 0
 11387 3d9a 334B     		ldr	r3, .L701+12
 11388 3d9c 1B79     		ldrb	r3, [r3, #4]
 11389 3d9e DAB2     		uxtb	r2, r3
 11390 3da0 2F4B     		ldr	r3, .L701+4
 11391 3da2 5A76     		strb	r2, [r3, #25]
2354:.\main.c      **** 			rf_mod[26]=id_estacion[3];
 11392              		.loc 1 2354 0
 11393 3da4 304B     		ldr	r3, .L701+12
 11394 3da6 DB78     		ldrb	r3, [r3, #3]
 11395 3da8 DAB2     		uxtb	r2, r3
 11396 3daa 2D4B     		ldr	r3, .L701+4
 11397 3dac 9A76     		strb	r2, [r3, #26]
2355:.\main.c      **** 			rf_mod[27]=id_estacion[2];
 11398              		.loc 1 2355 0
 11399 3dae 2E4B     		ldr	r3, .L701+12
 11400 3db0 9B78     		ldrb	r3, [r3, #2]
 11401 3db2 DAB2     		uxtb	r2, r3
 11402 3db4 2A4B     		ldr	r3, .L701+4
 11403 3db6 DA76     		strb	r2, [r3, #27]
2356:.\main.c      **** 			rf_mod[28]=id_estacion[1];
 11404              		.loc 1 2356 0
 11405 3db8 2B4B     		ldr	r3, .L701+12
 11406 3dba 5B78     		ldrb	r3, [r3, #1]
 11407 3dbc DAB2     		uxtb	r2, r3
 11408 3dbe 284B     		ldr	r3, .L701+4
 11409 3dc0 1A77     		strb	r2, [r3, #28]
2357:.\main.c      **** 			
2358:.\main.c      ****             if(tipo_venta == 1){
 11410              		.loc 1 2358 0
 11411 3dc2 2A4B     		ldr	r3, .L701+16
 11412 3dc4 1B78     		ldrb	r3, [r3]	@ zero_extendqisi2
 11413 3dc6 012B     		cmp	r3, #1
 11414 3dc8 43D1     		bne	.L557
2359:.\main.c      ****                 for(x=0;x<=15;x++){						//Serial				
 11415              		.loc 1 2359 0
 11416 3dca 0023     		movs	r3, #0
 11417 3dcc 87F82F30 		strb	r3, [r7, #47]
 11418 3dd0 3AE0     		b	.L558
 11419              	.L561:
2360:.\main.c      **** 				    y=(rventa2.id[x/2]>>4)&0x0F;
 11420              		.loc 1 2360 0
ARM GAS  C:\Users\RECEPC~1\AppData\Local\Temp\ccU7e2eq.s 			page 248


 11421 3dd2 97F82F30 		ldrb	r3, [r7, #47]	@ zero_extendqisi2
 11422 3dd6 5B08     		lsrs	r3, r3, #1
 11423 3dd8 DBB2     		uxtb	r3, r3
 11424 3dda 1A46     		mov	r2, r3
 11425 3ddc 1F4B     		ldr	r3, .L701
 11426 3dde 1344     		add	r3, r3, r2
 11427 3de0 93F82330 		ldrb	r3, [r3, #35]	@ zero_extendqisi2
 11428 3de4 1B09     		lsrs	r3, r3, #4
 11429 3de6 87F82E30 		strb	r3, [r7, #46]
2361:.\main.c      **** 				    if((x%2)==0){
 11430              		.loc 1 2361 0
 11431 3dea 97F82F30 		ldrb	r3, [r7, #47]
 11432 3dee 03F00103 		and	r3, r3, #1
 11433 3df2 DBB2     		uxtb	r3, r3
 11434 3df4 002B     		cmp	r3, #0
 11435 3df6 0CD1     		bne	.L559
2362:.\main.c      **** 					    y=rventa2.id[x/2]&0x0F;
 11436              		.loc 1 2362 0
 11437 3df8 97F82F30 		ldrb	r3, [r7, #47]	@ zero_extendqisi2
 11438 3dfc 5B08     		lsrs	r3, r3, #1
 11439 3dfe DBB2     		uxtb	r3, r3
 11440 3e00 1A46     		mov	r2, r3
 11441 3e02 164B     		ldr	r3, .L701
 11442 3e04 1344     		add	r3, r3, r2
 11443 3e06 93F82330 		ldrb	r3, [r3, #35]	@ zero_extendqisi2
 11444 3e0a 03F00F03 		and	r3, r3, #15
 11445 3e0e 87F82E30 		strb	r3, [r7, #46]
 11446              	.L559:
2363:.\main.c      **** 				    }
2364:.\main.c      **** 				    rf_mod[x+29] = y+48;
 11447              		.loc 1 2364 0
 11448 3e12 97F82F30 		ldrb	r3, [r7, #47]	@ zero_extendqisi2
 11449 3e16 1D33     		adds	r3, r3, #29
 11450 3e18 97F82E20 		ldrb	r2, [r7, #46]
 11451 3e1c 3032     		adds	r2, r2, #48
 11452 3e1e D1B2     		uxtb	r1, r2
 11453 3e20 0F4A     		ldr	r2, .L701+4
 11454 3e22 D154     		strb	r1, [r2, r3]
2365:.\main.c      **** 				    if(y>9){
 11455              		.loc 1 2365 0
 11456 3e24 97F82E30 		ldrb	r3, [r7, #46]	@ zero_extendqisi2
 11457 3e28 092B     		cmp	r3, #9
 11458 3e2a 08D9     		bls	.L560
2366:.\main.c      **** 					    rf_mod[x+29] = y+55;
 11459              		.loc 1 2366 0
 11460 3e2c 97F82F30 		ldrb	r3, [r7, #47]	@ zero_extendqisi2
 11461 3e30 1D33     		adds	r3, r3, #29
 11462 3e32 97F82E20 		ldrb	r2, [r7, #46]
 11463 3e36 3732     		adds	r2, r2, #55
 11464 3e38 D1B2     		uxtb	r1, r2
 11465 3e3a 094A     		ldr	r2, .L701+4
 11466 3e3c D154     		strb	r1, [r2, r3]
 11467              	.L560:
2359:.\main.c      **** 				    y=(rventa2.id[x/2]>>4)&0x0F;
 11468              		.loc 1 2359 0 discriminator 2
 11469 3e3e 97F82F30 		ldrb	r3, [r7, #47]	@ zero_extendqisi2
 11470 3e42 0133     		adds	r3, r3, #1
ARM GAS  C:\Users\RECEPC~1\AppData\Local\Temp\ccU7e2eq.s 			page 249


 11471 3e44 87F82F30 		strb	r3, [r7, #47]
 11472              	.L558:
2359:.\main.c      **** 				    y=(rventa2.id[x/2]>>4)&0x0F;
 11473              		.loc 1 2359 0 is_stmt 0 discriminator 1
 11474 3e48 97F82F30 		ldrb	r3, [r7, #47]	@ zero_extendqisi2
 11475 3e4c 0F2B     		cmp	r3, #15
 11476 3e4e C0D9     		bls	.L561
 11477 3e50 4DE0     		b	.L562
 11478              	.L557:
2367:.\main.c      **** 				    }
2368:.\main.c      **** 			    }
2369:.\main.c      ****             }else{
2370:.\main.c      ****                 for(x=0;x<=15;x++){						//Serial				
 11479              		.loc 1 2370 0 is_stmt 1
 11480 3e52 0023     		movs	r3, #0
 11481 3e54 87F82F30 		strb	r3, [r7, #47]
 11482 3e58 45E0     		b	.L563
 11483              	.L702:
 11484 3e5a 00BF     		.align	2
 11485              	.L701:
 11486 3e5c 00000000 		.word	rventa2
 11487 3e60 00000000 		.word	rf_mod
 11488 3e64 00000000 		.word	ppux10
 11489 3e68 00000000 		.word	id_estacion
 11490 3e6c 00000000 		.word	tipo_venta
 11491              	.L566:
2371:.\main.c      **** 				    y=(rventa2.id[x/2]>>4)&0x0F;
 11492              		.loc 1 2371 0
 11493 3e70 97F82F30 		ldrb	r3, [r7, #47]	@ zero_extendqisi2
 11494 3e74 5B08     		lsrs	r3, r3, #1
 11495 3e76 DBB2     		uxtb	r3, r3
 11496 3e78 1A46     		mov	r2, r3
 11497 3e7a B04B     		ldr	r3, .L703
 11498 3e7c 1344     		add	r3, r3, r2
 11499 3e7e 93F82330 		ldrb	r3, [r3, #35]	@ zero_extendqisi2
 11500 3e82 1B09     		lsrs	r3, r3, #4
 11501 3e84 87F82E30 		strb	r3, [r7, #46]
2372:.\main.c      **** 				    if((x%2)==0){
 11502              		.loc 1 2372 0
 11503 3e88 97F82F30 		ldrb	r3, [r7, #47]
 11504 3e8c 03F00103 		and	r3, r3, #1
 11505 3e90 DBB2     		uxtb	r3, r3
 11506 3e92 002B     		cmp	r3, #0
 11507 3e94 0CD1     		bne	.L564
2373:.\main.c      **** 					    y=rventa2.id[x/2]&0x0F;
 11508              		.loc 1 2373 0
 11509 3e96 97F82F30 		ldrb	r3, [r7, #47]	@ zero_extendqisi2
 11510 3e9a 5B08     		lsrs	r3, r3, #1
 11511 3e9c DBB2     		uxtb	r3, r3
 11512 3e9e 1A46     		mov	r2, r3
 11513 3ea0 A64B     		ldr	r3, .L703
 11514 3ea2 1344     		add	r3, r3, r2
 11515 3ea4 93F82330 		ldrb	r3, [r3, #35]	@ zero_extendqisi2
 11516 3ea8 03F00F03 		and	r3, r3, #15
 11517 3eac 87F82E30 		strb	r3, [r7, #46]
 11518              	.L564:
2374:.\main.c      **** 				    }
ARM GAS  C:\Users\RECEPC~1\AppData\Local\Temp\ccU7e2eq.s 			page 250


2375:.\main.c      **** 				    rf_mod[x+29] = y+48;
 11519              		.loc 1 2375 0
 11520 3eb0 97F82F30 		ldrb	r3, [r7, #47]	@ zero_extendqisi2
 11521 3eb4 1D33     		adds	r3, r3, #29
 11522 3eb6 97F82E20 		ldrb	r2, [r7, #46]
 11523 3eba 3032     		adds	r2, r2, #48
 11524 3ebc D1B2     		uxtb	r1, r2
 11525 3ebe A04A     		ldr	r2, .L703+4
 11526 3ec0 D154     		strb	r1, [r2, r3]
2376:.\main.c      **** 				    if(y>9){
 11527              		.loc 1 2376 0
 11528 3ec2 97F82E30 		ldrb	r3, [r7, #46]	@ zero_extendqisi2
 11529 3ec6 092B     		cmp	r3, #9
 11530 3ec8 08D9     		bls	.L565
2377:.\main.c      **** 					    rf_mod[x+29] = y+55;
 11531              		.loc 1 2377 0
 11532 3eca 97F82F30 		ldrb	r3, [r7, #47]	@ zero_extendqisi2
 11533 3ece 1D33     		adds	r3, r3, #29
 11534 3ed0 97F82E20 		ldrb	r2, [r7, #46]
 11535 3ed4 3732     		adds	r2, r2, #55
 11536 3ed6 D1B2     		uxtb	r1, r2
 11537 3ed8 994A     		ldr	r2, .L703+4
 11538 3eda D154     		strb	r1, [r2, r3]
 11539              	.L565:
2370:.\main.c      **** 				    y=(rventa2.id[x/2]>>4)&0x0F;
 11540              		.loc 1 2370 0 discriminator 2
 11541 3edc 97F82F30 		ldrb	r3, [r7, #47]	@ zero_extendqisi2
 11542 3ee0 0133     		adds	r3, r3, #1
 11543 3ee2 87F82F30 		strb	r3, [r7, #47]
 11544              	.L563:
2370:.\main.c      **** 				    y=(rventa2.id[x/2]>>4)&0x0F;
 11545              		.loc 1 2370 0 is_stmt 0 discriminator 1
 11546 3ee6 97F82F30 		ldrb	r3, [r7, #47]	@ zero_extendqisi2
 11547 3eea 0F2B     		cmp	r3, #15
 11548 3eec C0D9     		bls	.L566
 11549              	.L562:
2378:.\main.c      **** 				    }
2379:.\main.c      **** 			    }               
2380:.\main.c      ****             }
2381:.\main.c      **** 			num_decimal2++;
 11550              		.loc 1 2381 0 is_stmt 1
 11551 3eee 954B     		ldr	r3, .L703+8
 11552 3ef0 1B88     		ldrh	r3, [r3]
 11553 3ef2 0133     		adds	r3, r3, #1
 11554 3ef4 9AB2     		uxth	r2, r3
 11555 3ef6 934B     		ldr	r3, .L703+8
 11556 3ef8 1A80     		strh	r2, [r3]	@ movhi
2382:.\main.c      **** 			id_venta[4]=(num_decimal2/1000)+48;
 11557              		.loc 1 2382 0
 11558 3efa 924B     		ldr	r3, .L703+8
 11559 3efc 1B88     		ldrh	r3, [r3]
 11560 3efe 924A     		ldr	r2, .L703+12
 11561 3f00 A2FB0323 		umull	r2, r3, r2, r3
 11562 3f04 9B09     		lsrs	r3, r3, #6
 11563 3f06 9BB2     		uxth	r3, r3
 11564 3f08 DBB2     		uxtb	r3, r3
 11565 3f0a 3033     		adds	r3, r3, #48
ARM GAS  C:\Users\RECEPC~1\AppData\Local\Temp\ccU7e2eq.s 			page 251


 11566 3f0c DAB2     		uxtb	r2, r3
 11567 3f0e 8F4B     		ldr	r3, .L703+16
 11568 3f10 1A71     		strb	r2, [r3, #4]
2383:.\main.c      **** 			id_venta[3]=((num_decimal2%1000)/100)+48;
 11569              		.loc 1 2383 0
 11570 3f12 8C4B     		ldr	r3, .L703+8
 11571 3f14 1B88     		ldrh	r3, [r3]
 11572 3f16 8C4A     		ldr	r2, .L703+12
 11573 3f18 A2FB0312 		umull	r1, r2, r2, r3
 11574 3f1c 9209     		lsrs	r2, r2, #6
 11575 3f1e 4FF47A71 		mov	r1, #1000
 11576 3f22 01FB02F2 		mul	r2, r1, r2
 11577 3f26 9B1A     		subs	r3, r3, r2
 11578 3f28 9BB2     		uxth	r3, r3
 11579 3f2a 894A     		ldr	r2, .L703+20
 11580 3f2c A2FB0323 		umull	r2, r3, r2, r3
 11581 3f30 5B09     		lsrs	r3, r3, #5
 11582 3f32 9BB2     		uxth	r3, r3
 11583 3f34 DBB2     		uxtb	r3, r3
 11584 3f36 3033     		adds	r3, r3, #48
 11585 3f38 DAB2     		uxtb	r2, r3
 11586 3f3a 844B     		ldr	r3, .L703+16
 11587 3f3c DA70     		strb	r2, [r3, #3]
2384:.\main.c      **** 			id_venta[2]=(((num_decimal2%1000)%100)/10)+48;
 11588              		.loc 1 2384 0
 11589 3f3e 814B     		ldr	r3, .L703+8
 11590 3f40 1B88     		ldrh	r3, [r3]
 11591 3f42 814A     		ldr	r2, .L703+12
 11592 3f44 A2FB0312 		umull	r1, r2, r2, r3
 11593 3f48 9209     		lsrs	r2, r2, #6
 11594 3f4a 4FF47A71 		mov	r1, #1000
 11595 3f4e 01FB02F2 		mul	r2, r1, r2
 11596 3f52 9B1A     		subs	r3, r3, r2
 11597 3f54 9BB2     		uxth	r3, r3
 11598 3f56 7E4A     		ldr	r2, .L703+20
 11599 3f58 A2FB0312 		umull	r1, r2, r2, r3
 11600 3f5c 5209     		lsrs	r2, r2, #5
 11601 3f5e 6421     		movs	r1, #100
 11602 3f60 01FB02F2 		mul	r2, r1, r2
 11603 3f64 9B1A     		subs	r3, r3, r2
 11604 3f66 9BB2     		uxth	r3, r3
 11605 3f68 7A4A     		ldr	r2, .L703+24
 11606 3f6a A2FB0323 		umull	r2, r3, r2, r3
 11607 3f6e DB08     		lsrs	r3, r3, #3
 11608 3f70 9BB2     		uxth	r3, r3
 11609 3f72 DBB2     		uxtb	r3, r3
 11610 3f74 3033     		adds	r3, r3, #48
 11611 3f76 DAB2     		uxtb	r2, r3
 11612 3f78 744B     		ldr	r3, .L703+16
 11613 3f7a 9A70     		strb	r2, [r3, #2]
2385:.\main.c      **** 			id_venta[1]=(((num_decimal2%1000)%100)%10)+48; 
 11614              		.loc 1 2385 0
 11615 3f7c 714B     		ldr	r3, .L703+8
 11616 3f7e 1B88     		ldrh	r3, [r3]
 11617 3f80 714A     		ldr	r2, .L703+12
 11618 3f82 A2FB0312 		umull	r1, r2, r2, r3
 11619 3f86 9209     		lsrs	r2, r2, #6
ARM GAS  C:\Users\RECEPC~1\AppData\Local\Temp\ccU7e2eq.s 			page 252


 11620 3f88 4FF47A71 		mov	r1, #1000
 11621 3f8c 01FB02F2 		mul	r2, r1, r2
 11622 3f90 9B1A     		subs	r3, r3, r2
 11623 3f92 9BB2     		uxth	r3, r3
 11624 3f94 6E4A     		ldr	r2, .L703+20
 11625 3f96 A2FB0312 		umull	r1, r2, r2, r3
 11626 3f9a 5209     		lsrs	r2, r2, #5
 11627 3f9c 6421     		movs	r1, #100
 11628 3f9e 01FB02F2 		mul	r2, r1, r2
 11629 3fa2 9B1A     		subs	r3, r3, r2
 11630 3fa4 9AB2     		uxth	r2, r3
 11631 3fa6 6B4B     		ldr	r3, .L703+24
 11632 3fa8 A3FB0213 		umull	r1, r3, r3, r2
 11633 3fac D908     		lsrs	r1, r3, #3
 11634 3fae 0B46     		mov	r3, r1
 11635 3fb0 9B00     		lsls	r3, r3, #2
 11636 3fb2 0B44     		add	r3, r3, r1
 11637 3fb4 5B00     		lsls	r3, r3, #1
 11638 3fb6 D31A     		subs	r3, r2, r3
 11639 3fb8 9BB2     		uxth	r3, r3
 11640 3fba DBB2     		uxtb	r3, r3
 11641 3fbc 3033     		adds	r3, r3, #48
 11642 3fbe DAB2     		uxtb	r2, r3
 11643 3fc0 624B     		ldr	r3, .L703+16
 11644 3fc2 5A70     		strb	r2, [r3, #1]
2386:.\main.c      **** 			for(x=1;x<=7;x++){						//Id de Venta
 11645              		.loc 1 2386 0
 11646 3fc4 0123     		movs	r3, #1
 11647 3fc6 87F82F30 		strb	r3, [r7, #47]
 11648 3fca 0EE0     		b	.L567
 11649              	.L568:
2387:.\main.c      **** 				rf_mod[44+x]=id_venta[x];
 11650              		.loc 1 2387 0 discriminator 3
 11651 3fcc 97F82F30 		ldrb	r3, [r7, #47]	@ zero_extendqisi2
 11652 3fd0 2C33     		adds	r3, r3, #44
 11653 3fd2 97F82F20 		ldrb	r2, [r7, #47]	@ zero_extendqisi2
 11654 3fd6 5D49     		ldr	r1, .L703+16
 11655 3fd8 8A5C     		ldrb	r2, [r1, r2]
 11656 3fda D1B2     		uxtb	r1, r2
 11657 3fdc 584A     		ldr	r2, .L703+4
 11658 3fde D154     		strb	r1, [r2, r3]
2386:.\main.c      **** 			for(x=1;x<=7;x++){						//Id de Venta
 11659              		.loc 1 2386 0 discriminator 3
 11660 3fe0 97F82F30 		ldrb	r3, [r7, #47]	@ zero_extendqisi2
 11661 3fe4 0133     		adds	r3, r3, #1
 11662 3fe6 87F82F30 		strb	r3, [r7, #47]
 11663              	.L567:
2386:.\main.c      **** 			for(x=1;x<=7;x++){						//Id de Venta
 11664              		.loc 1 2386 0 is_stmt 0 discriminator 1
 11665 3fea 97F82F30 		ldrb	r3, [r7, #47]	@ zero_extendqisi2
 11666 3fee 072B     		cmp	r3, #7
 11667 3ff0 ECD9     		bls	.L568
2388:.\main.c      **** 			}
2389:.\main.c      **** 			for(x=1;x<=4;x++){						//Guarda Id venta
 11668              		.loc 1 2389 0 is_stmt 1
 11669 3ff2 0123     		movs	r3, #1
 11670 3ff4 87F82F30 		strb	r3, [r7, #47]
ARM GAS  C:\Users\RECEPC~1\AppData\Local\Temp\ccU7e2eq.s 			page 253


 11671 3ff8 10E0     		b	.L569
 11672              	.L570:
2390:.\main.c      **** 				EEPROM_WriteByte(id_venta[x],x);
 11673              		.loc 1 2390 0 discriminator 3
 11674 3ffa 97F82F30 		ldrb	r3, [r7, #47]	@ zero_extendqisi2
 11675 3ffe 534A     		ldr	r2, .L703+16
 11676 4000 D35C     		ldrb	r3, [r2, r3]
 11677 4002 DAB2     		uxtb	r2, r3
 11678 4004 97F82F30 		ldrb	r3, [r7, #47]	@ zero_extendqisi2
 11679 4008 9BB2     		uxth	r3, r3
 11680 400a 1046     		mov	r0, r2
 11681 400c 1946     		mov	r1, r3
 11682 400e FFF7FEFF 		bl	EEPROM_WriteByte
2389:.\main.c      **** 				EEPROM_WriteByte(id_venta[x],x);
 11683              		.loc 1 2389 0 discriminator 3
 11684 4012 97F82F30 		ldrb	r3, [r7, #47]	@ zero_extendqisi2
 11685 4016 0133     		adds	r3, r3, #1
 11686 4018 87F82F30 		strb	r3, [r7, #47]
 11687              	.L569:
2389:.\main.c      **** 				EEPROM_WriteByte(id_venta[x],x);
 11688              		.loc 1 2389 0 is_stmt 0 discriminator 1
 11689 401c 97F82F30 		ldrb	r3, [r7, #47]	@ zero_extendqisi2
 11690 4020 042B     		cmp	r3, #4
 11691 4022 EAD9     		bls	.L570
2391:.\main.c      **** 			}
2392:.\main.c      **** 			for(x=0;x<=6;x++){						//Km
 11692              		.loc 1 2392 0 is_stmt 1
 11693 4024 0023     		movs	r3, #0
 11694 4026 87F82F30 		strb	r3, [r7, #47]
 11695 402a 12E0     		b	.L571
 11696              	.L572:
2393:.\main.c      **** 				rf_mod[52+x]=rventa2.km[x+1] + 48;
 11697              		.loc 1 2393 0 discriminator 3
 11698 402c 97F82F30 		ldrb	r3, [r7, #47]	@ zero_extendqisi2
 11699 4030 3433     		adds	r3, r3, #52
 11700 4032 97F82F20 		ldrb	r2, [r7, #47]	@ zero_extendqisi2
 11701 4036 0132     		adds	r2, r2, #1
 11702 4038 4049     		ldr	r1, .L703
 11703 403a 0A44     		add	r2, r2, r1
 11704 403c 92F84320 		ldrb	r2, [r2, #67]	@ zero_extendqisi2
 11705 4040 3032     		adds	r2, r2, #48
 11706 4042 D1B2     		uxtb	r1, r2
 11707 4044 3E4A     		ldr	r2, .L703+4
 11708 4046 D154     		strb	r1, [r2, r3]
2392:.\main.c      **** 				rf_mod[52+x]=rventa2.km[x+1] + 48;
 11709              		.loc 1 2392 0 discriminator 3
 11710 4048 97F82F30 		ldrb	r3, [r7, #47]	@ zero_extendqisi2
 11711 404c 0133     		adds	r3, r3, #1
 11712 404e 87F82F30 		strb	r3, [r7, #47]
 11713              	.L571:
2392:.\main.c      **** 				rf_mod[52+x]=rventa2.km[x+1] + 48;
 11714              		.loc 1 2392 0 is_stmt 0 discriminator 1
 11715 4052 97F82F30 		ldrb	r3, [r7, #47]	@ zero_extendqisi2
 11716 4056 062B     		cmp	r3, #6
 11717 4058 E8D9     		bls	.L572
2394:.\main.c      **** 			}				
2395:.\main.c      **** 			rf_mod[59]='*';
ARM GAS  C:\Users\RECEPC~1\AppData\Local\Temp\ccU7e2eq.s 			page 254


 11718              		.loc 1 2395 0 is_stmt 1
 11719 405a 394B     		ldr	r3, .L703+4
 11720 405c 2A22     		movs	r2, #42
 11721 405e 83F83B20 		strb	r2, [r3, #59]
2396:.\main.c      **** 			PC_ClearRxBuffer();				
 11722              		.loc 1 2396 0
 11723 4062 FFF7FEFF 		bl	PC_ClearRxBuffer
2397:.\main.c      **** 		    for(x=0;x<=59;x++){
 11724              		.loc 1 2397 0
 11725 4066 0023     		movs	r3, #0
 11726 4068 87F82F30 		strb	r3, [r7, #47]
 11727 406c 0BE0     		b	.L573
 11728              	.L574:
2398:.\main.c      **** 			   PC_PutChar(rf_mod[x]);
 11729              		.loc 1 2398 0 discriminator 3
 11730 406e 97F82F30 		ldrb	r3, [r7, #47]	@ zero_extendqisi2
 11731 4072 334A     		ldr	r2, .L703+4
 11732 4074 D35C     		ldrb	r3, [r2, r3]	@ zero_extendqisi2
 11733 4076 1846     		mov	r0, r3
 11734 4078 FFF7FEFF 		bl	PC_PutChar
2397:.\main.c      **** 		    for(x=0;x<=59;x++){
 11735              		.loc 1 2397 0 discriminator 3
 11736 407c 97F82F30 		ldrb	r3, [r7, #47]	@ zero_extendqisi2
 11737 4080 0133     		adds	r3, r3, #1
 11738 4082 87F82F30 		strb	r3, [r7, #47]
 11739              	.L573:
2397:.\main.c      **** 		    for(x=0;x<=59;x++){
 11740              		.loc 1 2397 0 is_stmt 0 discriminator 1
 11741 4086 97F82F30 		ldrb	r3, [r7, #47]	@ zero_extendqisi2
 11742 408a 3B2B     		cmp	r3, #59
 11743 408c EFD9     		bls	.L574
2399:.\main.c      **** 		    }            
2400:.\main.c      ****             PC_ClearRxBuffer();
 11744              		.loc 1 2400 0 is_stmt 1
 11745 408e FFF7FEFF 		bl	PC_ClearRxBuffer
2401:.\main.c      **** 			CyDelay(300);
 11746              		.loc 1 2401 0
 11747 4092 4FF49670 		mov	r0, #300
 11748 4096 FFF7FEFF 		bl	CyDelay
2402:.\main.c      ****             PC_ClearTxBuffer();				
 11749              		.loc 1 2402 0
 11750 409a FFF7FEFF 		bl	PC_ClearTxBuffer
2403:.\main.c      ****             estado_tanqueando=0;				
 11751              		.loc 1 2403 0
 11752 409e 2E4B     		ldr	r3, .L703+28
 11753 40a0 0022     		movs	r2, #0
 11754 40a2 1A70     		strb	r2, [r3]
2404:.\main.c      **** 			precio[0]=lado1.ppu[rventa2.producto-1][0];
 11755              		.loc 1 2404 0
 11756 40a4 254B     		ldr	r3, .L703
 11757 40a6 5B7E     		ldrb	r3, [r3, #25]	@ zero_extendqisi2
 11758 40a8 5A1E     		subs	r2, r3, #1
 11759 40aa 2C49     		ldr	r1, .L703+32
 11760 40ac 1346     		mov	r3, r2
 11761 40ae 9B00     		lsls	r3, r3, #2
 11762 40b0 1344     		add	r3, r3, r2
 11763 40b2 0B44     		add	r3, r3, r1
ARM GAS  C:\Users\RECEPC~1\AppData\Local\Temp\ccU7e2eq.s 			page 255


 11764 40b4 4833     		adds	r3, r3, #72
 11765 40b6 9B78     		ldrb	r3, [r3, #2]
 11766 40b8 DBB2     		uxtb	r3, r3
 11767 40ba 3B73     		strb	r3, [r7, #12]
2405:.\main.c      **** 			precio[1]=lado1.ppu[rventa2.producto-1][1];
 11768              		.loc 1 2405 0
 11769 40bc 1F4B     		ldr	r3, .L703
 11770 40be 5B7E     		ldrb	r3, [r3, #25]	@ zero_extendqisi2
 11771 40c0 5A1E     		subs	r2, r3, #1
 11772 40c2 2649     		ldr	r1, .L703+32
 11773 40c4 1346     		mov	r3, r2
 11774 40c6 9B00     		lsls	r3, r3, #2
 11775 40c8 1344     		add	r3, r3, r2
 11776 40ca 0B44     		add	r3, r3, r1
 11777 40cc 4933     		adds	r3, r3, #73
 11778 40ce 9B78     		ldrb	r3, [r3, #2]
 11779 40d0 DBB2     		uxtb	r3, r3
 11780 40d2 7B73     		strb	r3, [r7, #13]
2406:.\main.c      **** 			precio[2]=lado1.ppu[rventa2.producto-1][2];
 11781              		.loc 1 2406 0
 11782 40d4 194B     		ldr	r3, .L703
 11783 40d6 5B7E     		ldrb	r3, [r3, #25]	@ zero_extendqisi2
 11784 40d8 5A1E     		subs	r2, r3, #1
 11785 40da 2049     		ldr	r1, .L703+32
 11786 40dc 1346     		mov	r3, r2
 11787 40de 9B00     		lsls	r3, r3, #2
 11788 40e0 1344     		add	r3, r3, r2
 11789 40e2 0B44     		add	r3, r3, r1
 11790 40e4 4A33     		adds	r3, r3, #74
 11791 40e6 9B78     		ldrb	r3, [r3, #2]
 11792 40e8 DBB2     		uxtb	r3, r3
 11793 40ea BB73     		strb	r3, [r7, #14]
2407:.\main.c      **** 			precio[3]=lado1.ppu[rventa2.producto-1][3];
 11794              		.loc 1 2407 0
 11795 40ec 134B     		ldr	r3, .L703
 11796 40ee 5B7E     		ldrb	r3, [r3, #25]	@ zero_extendqisi2
 11797 40f0 5A1E     		subs	r2, r3, #1
 11798 40f2 1A49     		ldr	r1, .L703+32
 11799 40f4 1346     		mov	r3, r2
 11800 40f6 9B00     		lsls	r3, r3, #2
 11801 40f8 1344     		add	r3, r3, r2
 11802 40fa 0B44     		add	r3, r3, r1
 11803 40fc 4B33     		adds	r3, r3, #75
 11804 40fe 9B78     		ldrb	r3, [r3, #2]
 11805 4100 DBB2     		uxtb	r3, r3
 11806 4102 FB73     		strb	r3, [r7, #15]
2408:.\main.c      **** 			precio[4]=lado1.ppu[rventa2.producto-1][4];
 11807              		.loc 1 2408 0
 11808 4104 0D4B     		ldr	r3, .L703
 11809 4106 5B7E     		ldrb	r3, [r3, #25]	@ zero_extendqisi2
 11810 4108 5A1E     		subs	r2, r3, #1
 11811 410a 1449     		ldr	r1, .L703+32
 11812 410c 1346     		mov	r3, r2
 11813 410e 9B00     		lsls	r3, r3, #2
 11814 4110 1344     		add	r3, r3, r2
 11815 4112 0B44     		add	r3, r3, r1
 11816 4114 4C33     		adds	r3, r3, #76
ARM GAS  C:\Users\RECEPC~1\AppData\Local\Temp\ccU7e2eq.s 			page 256


 11817 4116 9B78     		ldrb	r3, [r3, #2]
 11818 4118 DBB2     		uxtb	r3, r3
 11819 411a 3B74     		strb	r3, [r7, #16]
2409:.\main.c      **** 			cambiar_precio(lado2.dir,precio,rventa2.producto);
 11820              		.loc 1 2409 0
 11821 411c 104B     		ldr	r3, .L703+36
 11822 411e 1B78     		ldrb	r3, [r3]
 11823 4120 D9B2     		uxtb	r1, r3
 11824 4122 064B     		ldr	r3, .L703
 11825 4124 5B7E     		ldrb	r3, [r3, #25]	@ zero_extendqisi2
 11826 4126 07F10C02 		add	r2, r7, #12
 11827 412a 0846     		mov	r0, r1
 11828 412c 1146     		mov	r1, r2
 11829 412e 1A46     		mov	r2, r3
 11830 4130 FFF7FEFF 		bl	cambiar_precio
2410:.\main.c      ****         }
2411:.\main.c      ****   
2412:.\main.c      ****         break;
 11831              		.loc 1 2412 0
 11832 4134 00F05ABC 		b	.L117
 11833              	.L552:
 11834              		.loc 1 2412 0 is_stmt 0 discriminator 15
 11835 4138 00F058BC 		b	.L117
 11836              	.L704:
 11837              		.align	2
 11838              	.L703:
 11839 413c 00000000 		.word	rventa2
 11840 4140 00000000 		.word	rf_mod
 11841 4144 00000000 		.word	num_decimal2
 11842 4148 D34D6210 		.word	274877907
 11843 414c 00000000 		.word	id_venta
 11844 4150 1F85EB51 		.word	1374389535
 11845 4154 CDCCCCCC 		.word	-858993459
 11846 4158 00000000 		.word	estado_tanqueando
 11847 415c 00000000 		.word	lado1
 11848 4160 00000000 		.word	lado2
 11849              	.L132:
2413:.\main.c      ****          
2414:.\main.c      ****         case 14:
2415:.\main.c      **** 	        if(LCD_1_GetRxBufferSize()==8){
 11850              		.loc 1 2415 0 is_stmt 1
 11851 4164 FFF7FEFF 		bl	LCD_1_GetRxBufferSize
 11852 4168 0346     		mov	r3, r0
 11853 416a 082B     		cmp	r3, #8
 11854 416c 40F00A81 		bne	.L575
2416:.\main.c      **** 	            if((LCD_1_rxBuffer[0]==0xAA) && (LCD_1_rxBuffer[6]==0xC3) && (LCD_1_rxBuffer[7]==0x3C)
 11855              		.loc 1 2416 0
 11856 4170 A04B     		ldr	r3, .L705
 11857 4172 1B78     		ldrb	r3, [r3]
 11858 4174 DBB2     		uxtb	r3, r3
 11859 4176 AA2B     		cmp	r3, #170
 11860 4178 40F0FE80 		bne	.L576
 11861              		.loc 1 2416 0 is_stmt 0 discriminator 1
 11862 417c 9D4B     		ldr	r3, .L705
 11863 417e 9B79     		ldrb	r3, [r3, #6]
 11864 4180 DBB2     		uxtb	r3, r3
 11865 4182 C32B     		cmp	r3, #195
ARM GAS  C:\Users\RECEPC~1\AppData\Local\Temp\ccU7e2eq.s 			page 257


 11866 4184 40F0F880 		bne	.L576
 11867              		.loc 1 2416 0 discriminator 2
 11868 4188 9A4B     		ldr	r3, .L705
 11869 418a DB79     		ldrb	r3, [r3, #7]
 11870 418c DBB2     		uxtb	r3, r3
 11871 418e 3C2B     		cmp	r3, #60
 11872 4190 40F0F280 		bne	.L576
2417:.\main.c      **** 	                if(count_teclas1<teclas1){
 11873              		.loc 1 2417 0 is_stmt 1
 11874 4194 984B     		ldr	r3, .L705+4
 11875 4196 1B78     		ldrb	r3, [r3]
 11876 4198 DAB2     		uxtb	r2, r3
 11877 419a 984B     		ldr	r3, .L705+8
 11878 419c 1B78     		ldrb	r3, [r3]
 11879 419e DBB2     		uxtb	r3, r3
 11880 41a0 9A42     		cmp	r2, r3
 11881 41a2 6CD2     		bcs	.L577
2418:.\main.c      **** 	                    if(LCD_1_rxBuffer[3]<=9){
 11882              		.loc 1 2418 0
 11883 41a4 934B     		ldr	r3, .L705
 11884 41a6 DB78     		ldrb	r3, [r3, #3]
 11885 41a8 DBB2     		uxtb	r3, r3
 11886 41aa 092B     		cmp	r3, #9
 11887 41ac 33D8     		bhi	.L578
2419:.\main.c      **** 	                        rventa1.password[count_teclas1+1]=LCD_1_rxBuffer[3]+0x30;
 11888              		.loc 1 2419 0
 11889 41ae 924B     		ldr	r3, .L705+4
 11890 41b0 1B78     		ldrb	r3, [r3]
 11891 41b2 DBB2     		uxtb	r3, r3
 11892 41b4 0133     		adds	r3, r3, #1
 11893 41b6 8F4A     		ldr	r2, .L705
 11894 41b8 D278     		ldrb	r2, [r2, #3]
 11895 41ba D2B2     		uxtb	r2, r2
 11896 41bc 3032     		adds	r2, r2, #48
 11897 41be D1B2     		uxtb	r1, r2
 11898 41c0 8F4A     		ldr	r2, .L705+12
 11899 41c2 1344     		add	r3, r3, r2
 11900 41c4 0A46     		mov	r2, r1
 11901 41c6 83F86420 		strb	r2, [r3, #100]
2420:.\main.c      **** 	                        write_LCD(1,'*', posy1, ((count_teclas1*(sizeletra1+1))+posx1), sizeletra1
 11902              		.loc 1 2420 0
 11903 41ca 8E4B     		ldr	r3, .L705+16
 11904 41cc 1B88     		ldrh	r3, [r3]	@ movhi
 11905 41ce 9DB2     		uxth	r5, r3
 11906 41d0 894B     		ldr	r3, .L705+4
 11907 41d2 1B78     		ldrb	r3, [r3]
 11908 41d4 DBB2     		uxtb	r3, r3
 11909 41d6 9BB2     		uxth	r3, r3
 11910 41d8 8B4A     		ldr	r2, .L705+20
 11911 41da 1288     		ldrh	r2, [r2]	@ movhi
 11912 41dc 92B2     		uxth	r2, r2
 11913 41de 0132     		adds	r2, r2, #1
 11914 41e0 92B2     		uxth	r2, r2
 11915 41e2 02FB03F3 		mul	r3, r2, r3
 11916 41e6 9AB2     		uxth	r2, r3
 11917 41e8 884B     		ldr	r3, .L705+24
 11918 41ea 1B88     		ldrh	r3, [r3]	@ movhi
ARM GAS  C:\Users\RECEPC~1\AppData\Local\Temp\ccU7e2eq.s 			page 258


 11919 41ec 9BB2     		uxth	r3, r3
 11920 41ee 1344     		add	r3, r3, r2
 11921 41f0 9CB2     		uxth	r4, r3
 11922 41f2 854B     		ldr	r3, .L705+20
 11923 41f4 1B88     		ldrh	r3, [r3]	@ movhi
 11924 41f6 9BB2     		uxth	r3, r3
 11925 41f8 DBB2     		uxtb	r3, r3
 11926 41fa 0093     		str	r3, [sp]
 11927 41fc 0120     		movs	r0, #1
 11928 41fe 2A21     		movs	r1, #42
 11929 4200 2A46     		mov	r2, r5
 11930 4202 2346     		mov	r3, r4
 11931 4204 FFF7FEFF 		bl	write_LCD
2421:.\main.c      **** 	                        count_teclas1++;                        
 11932              		.loc 1 2421 0
 11933 4208 7B4B     		ldr	r3, .L705+4
 11934 420a 1B78     		ldrb	r3, [r3]
 11935 420c DBB2     		uxtb	r3, r3
 11936 420e 0133     		adds	r3, r3, #1
 11937 4210 DAB2     		uxtb	r2, r3
 11938 4212 794B     		ldr	r3, .L705+4
 11939 4214 1A70     		strb	r2, [r3]
 11940              	.L578:
2422:.\main.c      **** 	                    }
2423:.\main.c      **** 	                    if(LCD_1_rxBuffer[3]==0x0A){            //Comando de 0
 11941              		.loc 1 2423 0
 11942 4216 774B     		ldr	r3, .L705
 11943 4218 DB78     		ldrb	r3, [r3, #3]
 11944 421a DBB2     		uxtb	r3, r3
 11945 421c 0A2B     		cmp	r3, #10
 11946 421e 2ED1     		bne	.L577
2424:.\main.c      **** 	                        rventa1.password[count_teclas1+1]=0x30;
 11947              		.loc 1 2424 0
 11948 4220 754B     		ldr	r3, .L705+4
 11949 4222 1B78     		ldrb	r3, [r3]
 11950 4224 DBB2     		uxtb	r3, r3
 11951 4226 0133     		adds	r3, r3, #1
 11952 4228 754A     		ldr	r2, .L705+12
 11953 422a 1344     		add	r3, r3, r2
 11954 422c 3022     		movs	r2, #48
 11955 422e 83F86420 		strb	r2, [r3, #100]
2425:.\main.c      **** 	                        write_LCD(1,'*', posy1, ((count_teclas1*(sizeletra1+1))+posx1), sizeletra1
 11956              		.loc 1 2425 0
 11957 4232 744B     		ldr	r3, .L705+16
 11958 4234 1B88     		ldrh	r3, [r3]	@ movhi
 11959 4236 9DB2     		uxth	r5, r3
 11960 4238 6F4B     		ldr	r3, .L705+4
 11961 423a 1B78     		ldrb	r3, [r3]
 11962 423c DBB2     		uxtb	r3, r3
 11963 423e 9BB2     		uxth	r3, r3
 11964 4240 714A     		ldr	r2, .L705+20
 11965 4242 1288     		ldrh	r2, [r2]	@ movhi
 11966 4244 92B2     		uxth	r2, r2
 11967 4246 0132     		adds	r2, r2, #1
 11968 4248 92B2     		uxth	r2, r2
 11969 424a 02FB03F3 		mul	r3, r2, r3
 11970 424e 9AB2     		uxth	r2, r3
ARM GAS  C:\Users\RECEPC~1\AppData\Local\Temp\ccU7e2eq.s 			page 259


 11971 4250 6E4B     		ldr	r3, .L705+24
 11972 4252 1B88     		ldrh	r3, [r3]	@ movhi
 11973 4254 9BB2     		uxth	r3, r3
 11974 4256 1344     		add	r3, r3, r2
 11975 4258 9CB2     		uxth	r4, r3
 11976 425a 6B4B     		ldr	r3, .L705+20
 11977 425c 1B88     		ldrh	r3, [r3]	@ movhi
 11978 425e 9BB2     		uxth	r3, r3
 11979 4260 DBB2     		uxtb	r3, r3
 11980 4262 0093     		str	r3, [sp]
 11981 4264 0120     		movs	r0, #1
 11982 4266 2A21     		movs	r1, #42
 11983 4268 2A46     		mov	r2, r5
 11984 426a 2346     		mov	r3, r4
 11985 426c FFF7FEFF 		bl	write_LCD
2426:.\main.c      **** 	                        count_teclas1++;                        
 11986              		.loc 1 2426 0
 11987 4270 614B     		ldr	r3, .L705+4
 11988 4272 1B78     		ldrb	r3, [r3]
 11989 4274 DBB2     		uxtb	r3, r3
 11990 4276 0133     		adds	r3, r3, #1
 11991 4278 DAB2     		uxtb	r2, r3
 11992 427a 5F4B     		ldr	r3, .L705+4
 11993 427c 1A70     		strb	r2, [r3]
 11994              	.L577:
2427:.\main.c      **** 	                    }                    
2428:.\main.c      **** 	                }
2429:.\main.c      **** 	                if(LCD_1_rxBuffer[3]==0x0B){                //Cancelar      
 11995              		.loc 1 2429 0
 11996 427e 5D4B     		ldr	r3, .L705
 11997 4280 DB78     		ldrb	r3, [r3, #3]
 11998 4282 DBB2     		uxtb	r3, r3
 11999 4284 0B2B     		cmp	r3, #11
 12000 4286 2ED1     		bne	.L579
2430:.\main.c      **** 	                    if(teclas1==0){
 12001              		.loc 1 2430 0
 12002 4288 5C4B     		ldr	r3, .L705+8
 12003 428a 1B78     		ldrb	r3, [r3]
 12004 428c DBB2     		uxtb	r3, r3
 12005 428e 002B     		cmp	r3, #0
 12006 4290 03D1     		bne	.L580
2431:.\main.c      **** 	                        flujo_LCD1=0;
 12007              		.loc 1 2431 0
 12008 4292 5F4B     		ldr	r3, .L705+28
 12009 4294 0022     		movs	r2, #0
 12010 4296 1A70     		strb	r2, [r3]
 12011 4298 25E0     		b	.L579
 12012              	.L580:
2432:.\main.c      **** 	                    }
2433:.\main.c      **** 	                    else{
2434:.\main.c      **** 	                        count_teclas1--;                                        
 12013              		.loc 1 2434 0
 12014 429a 574B     		ldr	r3, .L705+4
 12015 429c 1B78     		ldrb	r3, [r3]
 12016 429e DBB2     		uxtb	r3, r3
 12017 42a0 013B     		subs	r3, r3, #1
 12018 42a2 DAB2     		uxtb	r2, r3
ARM GAS  C:\Users\RECEPC~1\AppData\Local\Temp\ccU7e2eq.s 			page 260


 12019 42a4 544B     		ldr	r3, .L705+4
 12020 42a6 1A70     		strb	r2, [r3]
2435:.\main.c      **** 	                        write_LCD(1,0x20, posy1, ((count_teclas1*(sizeletra1+1))+posx1), sizeletra
 12021              		.loc 1 2435 0
 12022 42a8 564B     		ldr	r3, .L705+16
 12023 42aa 1B88     		ldrh	r3, [r3]	@ movhi
 12024 42ac 9DB2     		uxth	r5, r3
 12025 42ae 524B     		ldr	r3, .L705+4
 12026 42b0 1B78     		ldrb	r3, [r3]
 12027 42b2 DBB2     		uxtb	r3, r3
 12028 42b4 9BB2     		uxth	r3, r3
 12029 42b6 544A     		ldr	r2, .L705+20
 12030 42b8 1288     		ldrh	r2, [r2]	@ movhi
 12031 42ba 92B2     		uxth	r2, r2
 12032 42bc 0132     		adds	r2, r2, #1
 12033 42be 92B2     		uxth	r2, r2
 12034 42c0 02FB03F3 		mul	r3, r2, r3
 12035 42c4 9AB2     		uxth	r2, r3
 12036 42c6 514B     		ldr	r3, .L705+24
 12037 42c8 1B88     		ldrh	r3, [r3]	@ movhi
 12038 42ca 9BB2     		uxth	r3, r3
 12039 42cc 1344     		add	r3, r3, r2
 12040 42ce 9CB2     		uxth	r4, r3
 12041 42d0 4D4B     		ldr	r3, .L705+20
 12042 42d2 1B88     		ldrh	r3, [r3]	@ movhi
 12043 42d4 9BB2     		uxth	r3, r3
 12044 42d6 DBB2     		uxtb	r3, r3
 12045 42d8 0093     		str	r3, [sp]
 12046 42da 0120     		movs	r0, #1
 12047 42dc 2021     		movs	r1, #32
 12048 42de 2A46     		mov	r2, r5
 12049 42e0 2346     		mov	r3, r4
 12050 42e2 FFF7FEFF 		bl	write_LCD
 12051              	.L579:
2436:.\main.c      **** 	                    }
2437:.\main.c      **** 	                }
2438:.\main.c      **** 	                if(LCD_1_rxBuffer[3]==0x0C){                //Enter
 12052              		.loc 1 2438 0
 12053 42e6 434B     		ldr	r3, .L705
 12054 42e8 DB78     		ldrb	r3, [r3, #3]
 12055 42ea DBB2     		uxtb	r3, r3
 12056 42ec 0C2B     		cmp	r3, #12
 12057 42ee 43D1     		bne	.L576
2439:.\main.c      **** 	                    if(count_teclas1>=1){
 12058              		.loc 1 2439 0
 12059 42f0 414B     		ldr	r3, .L705+4
 12060 42f2 1B78     		ldrb	r3, [r3]
 12061 42f4 DBB2     		uxtb	r3, r3
 12062 42f6 002B     		cmp	r3, #0
 12063 42f8 3ED0     		beq	.L576
2440:.\main.c      **** 	                        rventa1.password[0]=count_teclas1;
 12064              		.loc 1 2440 0
 12065 42fa 3F4B     		ldr	r3, .L705+4
 12066 42fc 1B78     		ldrb	r3, [r3]
 12067 42fe DAB2     		uxtb	r2, r3
 12068 4300 3F4B     		ldr	r3, .L705+12
 12069 4302 83F86420 		strb	r2, [r3, #100]
ARM GAS  C:\Users\RECEPC~1\AppData\Local\Temp\ccU7e2eq.s 			page 261


2441:.\main.c      **** 							y=0;
 12070              		.loc 1 2441 0
 12071 4306 0023     		movs	r3, #0
 12072 4308 87F82E30 		strb	r3, [r7, #46]
2442:.\main.c      **** 							if(rventa1.password[0]==4){
 12073              		.loc 1 2442 0
 12074 430c 3C4B     		ldr	r3, .L705+12
 12075 430e 93F86430 		ldrb	r3, [r3, #100]	@ zero_extendqisi2
 12076 4312 042B     		cmp	r3, #4
 12077 4314 2DD1     		bne	.L581
2443:.\main.c      **** 								for(x=1;x<=4;x++){
 12078              		.loc 1 2443 0
 12079 4316 0123     		movs	r3, #1
 12080 4318 87F82F30 		strb	r3, [r7, #47]
 12081 431c 15E0     		b	.L582
 12082              	.L584:
2444:.\main.c      **** 									if(rventa1.password[x]==clave_config[x]){
 12083              		.loc 1 2444 0
 12084 431e 97F82F30 		ldrb	r3, [r7, #47]	@ zero_extendqisi2
 12085 4322 374A     		ldr	r2, .L705+12
 12086 4324 1344     		add	r3, r3, r2
 12087 4326 93F86420 		ldrb	r2, [r3, #100]	@ zero_extendqisi2
 12088 432a 97F82F30 		ldrb	r3, [r7, #47]	@ zero_extendqisi2
 12089 432e 3949     		ldr	r1, .L705+32
 12090 4330 CB5C     		ldrb	r3, [r1, r3]	@ zero_extendqisi2
 12091 4332 9A42     		cmp	r2, r3
 12092 4334 04D1     		bne	.L583
2445:.\main.c      **** 										y++;
 12093              		.loc 1 2445 0
 12094 4336 97F82E30 		ldrb	r3, [r7, #46]	@ zero_extendqisi2
 12095 433a 0133     		adds	r3, r3, #1
 12096 433c 87F82E30 		strb	r3, [r7, #46]
 12097              	.L583:
2443:.\main.c      **** 								for(x=1;x<=4;x++){
 12098              		.loc 1 2443 0 discriminator 2
 12099 4340 97F82F30 		ldrb	r3, [r7, #47]	@ zero_extendqisi2
 12100 4344 0133     		adds	r3, r3, #1
 12101 4346 87F82F30 		strb	r3, [r7, #47]
 12102              	.L582:
2443:.\main.c      **** 								for(x=1;x<=4;x++){
 12103              		.loc 1 2443 0 is_stmt 0 discriminator 1
 12104 434a 97F82F30 		ldrb	r3, [r7, #47]	@ zero_extendqisi2
 12105 434e 042B     		cmp	r3, #4
 12106 4350 E5D9     		bls	.L584
2446:.\main.c      **** 									}
2447:.\main.c      **** 								}
2448:.\main.c      **** 								if(y==4){
 12107              		.loc 1 2448 0 is_stmt 1
 12108 4352 97F82E30 		ldrb	r3, [r7, #46]	@ zero_extendqisi2
 12109 4356 042B     		cmp	r3, #4
 12110 4358 07D1     		bne	.L585
2449:.\main.c      **** 			                        flujo_LCD1=15;
 12111              		.loc 1 2449 0
 12112 435a 2D4B     		ldr	r3, .L705+28
 12113 435c 0F22     		movs	r2, #15
 12114 435e 1A70     		strb	r2, [r3]
2450:.\main.c      **** 			                        set_imagen(1,93);								
ARM GAS  C:\Users\RECEPC~1\AppData\Local\Temp\ccU7e2eq.s 			page 262


 12115              		.loc 1 2450 0
 12116 4360 0120     		movs	r0, #1
 12117 4362 5D21     		movs	r1, #93
 12118 4364 FFF7FEFF 		bl	set_imagen
 12119 4368 06E0     		b	.L576
 12120              	.L585:
2451:.\main.c      **** 								}
2452:.\main.c      **** 								else{
2453:.\main.c      **** 			                        flujo_LCD1=0;							
 12121              		.loc 1 2453 0
 12122 436a 294B     		ldr	r3, .L705+28
 12123 436c 0022     		movs	r2, #0
 12124 436e 1A70     		strb	r2, [r3]
 12125 4370 02E0     		b	.L576
 12126              	.L581:
2454:.\main.c      **** 								}
2455:.\main.c      **** 							}
2456:.\main.c      **** 							else{
2457:.\main.c      **** 		                        flujo_LCD1=0;						
 12127              		.loc 1 2457 0
 12128 4372 274B     		ldr	r3, .L705+28
 12129 4374 0022     		movs	r2, #0
 12130 4376 1A70     		strb	r2, [r3]
 12131              	.L576:
2458:.\main.c      **** 							}
2459:.\main.c      **** 	                    }
2460:.\main.c      **** 	                }
2461:.\main.c      **** 	            }
2462:.\main.c      **** 	            CyDelay(100);            //Caso 14 sin segunda posición
 12132              		.loc 1 2462 0
 12133 4378 6420     		movs	r0, #100
 12134 437a FFF7FEFF 		bl	CyDelay
2463:.\main.c      **** 	            LCD_1_ClearRxBuffer();
 12135              		.loc 1 2463 0
 12136 437e FFF7FEFF 		bl	LCD_1_ClearRxBuffer
2464:.\main.c      **** 	        }         			
2465:.\main.c      **** 		break;
 12137              		.loc 1 2465 0
 12138 4382 33E3     		b	.L117
 12139              	.L575:
 12140              		.loc 1 2465 0 is_stmt 0 discriminator 16
 12141 4384 32E3     		b	.L117
 12142              	.L133:
2466:.\main.c      ****             
2467:.\main.c      ****         case 15:
2468:.\main.c      **** 	        if(LCD_1_GetRxBufferSize()==8){
 12143              		.loc 1 2468 0 is_stmt 1
 12144 4386 FFF7FEFF 		bl	LCD_1_GetRxBufferSize
 12145 438a 0346     		mov	r3, r0
 12146 438c 082B     		cmp	r3, #8
 12147 438e 40F09680 		bne	.L587
2469:.\main.c      **** 	            if((LCD_1_rxBuffer[0]==0xAA) && (LCD_1_rxBuffer[6]==0xC3) && (LCD_1_rxBuffer[7]==0x3C)
 12148              		.loc 1 2469 0
 12149 4392 184B     		ldr	r3, .L705
 12150 4394 1B78     		ldrb	r3, [r3]
 12151 4396 DBB2     		uxtb	r3, r3
 12152 4398 AA2B     		cmp	r3, #170
ARM GAS  C:\Users\RECEPC~1\AppData\Local\Temp\ccU7e2eq.s 			page 263


 12153 439a 40F09080 		bne	.L587
 12154              		.loc 1 2469 0 is_stmt 0 discriminator 1
 12155 439e 154B     		ldr	r3, .L705
 12156 43a0 9B79     		ldrb	r3, [r3, #6]
 12157 43a2 DBB2     		uxtb	r3, r3
 12158 43a4 C32B     		cmp	r3, #195
 12159 43a6 40F08A80 		bne	.L587
 12160              		.loc 1 2469 0 discriminator 2
 12161 43aa 124B     		ldr	r3, .L705
 12162 43ac DB79     		ldrb	r3, [r3, #7]
 12163 43ae DBB2     		uxtb	r3, r3
 12164 43b0 3C2B     		cmp	r3, #60
 12165 43b2 40F08480 		bne	.L587
2470:.\main.c      **** 	                switch(LCD_1_rxBuffer[3]){
 12166              		.loc 1 2470 0 is_stmt 1
 12167 43b6 0F4B     		ldr	r3, .L705
 12168 43b8 DB78     		ldrb	r3, [r3, #3]
 12169 43ba DBB2     		uxtb	r3, r3
 12170 43bc B92B     		cmp	r3, #185
 12171 43be 04D0     		beq	.L588
 12172 43c0 BA2B     		cmp	r3, #186
 12173 43c2 57D0     		beq	.L589
 12174 43c4 7E2B     		cmp	r3, #126
 12175 43c6 72D0     		beq	.L590
2471:.\main.c      ****                         case 0xB9: //Reimpresion
2472:.\main.c      ****                         	rf_mod[0]='M';
2473:.\main.c      **** 			                rf_mod[1]='U';
2474:.\main.c      **** 			                rf_mod[2]='X';
2475:.\main.c      **** 			                rf_mod[3]='3';
2476:.\main.c      ****                             rf_mod[4]='*';
2477:.\main.c      **** 							PC_ClearRxBuffer();				
2478:.\main.c      **** 						    for(x=0;x<=4;x++){
2479:.\main.c      **** 							   PC_PutChar(rf_mod[x]);
2480:.\main.c      **** 						    }
2481:.\main.c      ****                             CyDelay(150);  
2482:.\main.c      **** 							set_imagen(1,0);
2483:.\main.c      **** 							flujo_LCD1=0;
2484:.\main.c      ****                             if(seleccion_pos == 1){
2485:.\main.c      **** 							    lado1.estado=libre;     //Fin de reimpresion  
2486:.\main.c      ****                             }
2487:.\main.c      ****                             if(seleccion_pos == 2){
2488:.\main.c      **** 							    lado2.estado=libre;     //Fin de reimpresion  
2489:.\main.c      ****                             }
2490:.\main.c      ****                         break;
2491:.\main.c      ****                             
2492:.\main.c      ****                         case 0xBA:                                       //Configuracion inicial   
2493:.\main.c      ****                             set_imagen(1,47);
2494:.\main.c      ****                             id_teclado1=5;
2495:.\main.c      **** 					        count_teclas1=0;							 //Inicia el contador de teclas	
2496:.\main.c      **** 					        id_coma1=',';	
2497:.\main.c      ****                             teclas1=4;              						//cantidad de teclas q puede digitar     
2498:.\main.c      **** 					        posx1=4;
2499:.\main.c      **** 					        posy1=3;
2500:.\main.c      **** 					        sizeletra1 = 1;	    
2501:.\main.c      ****                             flujo_LCD1 = 12;
2502:.\main.c      ****                         break;    
2503:.\main.c      ****                             
ARM GAS  C:\Users\RECEPC~1\AppData\Local\Temp\ccU7e2eq.s 			page 264


2504:.\main.c      **** 	                    case 0x7E:					//ir a menu
2505:.\main.c      **** 						  set_imagen(1,74);	
2506:.\main.c      **** 	                      flujo_LCD1=0;     
2507:.\main.c      **** 	                    break;		                            
2508:.\main.c      ****                     }
2509:.\main.c      ****                 }
2510:.\main.c      ****             }
2511:.\main.c      ****         break;
 12176              		.loc 1 2511 0
 12177 43c8 10E3     		b	.L117
 12178              	.L588:
2472:.\main.c      **** 			                rf_mod[1]='U';
 12179              		.loc 1 2472 0
 12180 43ca 134B     		ldr	r3, .L705+36
 12181 43cc 4D22     		movs	r2, #77
 12182 43ce 1A70     		strb	r2, [r3]
2473:.\main.c      **** 			                rf_mod[2]='X';
 12183              		.loc 1 2473 0
 12184 43d0 114B     		ldr	r3, .L705+36
 12185 43d2 5522     		movs	r2, #85
 12186 43d4 5A70     		strb	r2, [r3, #1]
2474:.\main.c      **** 			                rf_mod[3]='3';
 12187              		.loc 1 2474 0
 12188 43d6 104B     		ldr	r3, .L705+36
 12189 43d8 5822     		movs	r2, #88
 12190 43da 9A70     		strb	r2, [r3, #2]
2475:.\main.c      ****                             rf_mod[4]='*';
 12191              		.loc 1 2475 0
 12192 43dc 0E4B     		ldr	r3, .L705+36
 12193 43de 3322     		movs	r2, #51
 12194 43e0 DA70     		strb	r2, [r3, #3]
2476:.\main.c      **** 							PC_ClearRxBuffer();				
 12195              		.loc 1 2476 0
 12196 43e2 0D4B     		ldr	r3, .L705+36
 12197 43e4 2A22     		movs	r2, #42
 12198 43e6 1A71     		strb	r2, [r3, #4]
2477:.\main.c      **** 						    for(x=0;x<=4;x++){
 12199              		.loc 1 2477 0
 12200 43e8 FFF7FEFF 		bl	PC_ClearRxBuffer
2478:.\main.c      **** 							   PC_PutChar(rf_mod[x]);
 12201              		.loc 1 2478 0
 12202 43ec 0023     		movs	r3, #0
 12203 43ee 87F82F30 		strb	r3, [r7, #47]
 12204 43f2 1FE0     		b	.L591
 12205              	.L706:
 12206              		.align	2
 12207              	.L705:
 12208 43f4 00000000 		.word	LCD_1_rxBuffer
 12209 43f8 00000000 		.word	count_teclas1
 12210 43fc 00000000 		.word	teclas1
 12211 4400 00000000 		.word	rventa1
 12212 4404 00000000 		.word	posy1
 12213 4408 00000000 		.word	sizeletra1
 12214 440c 00000000 		.word	posx1
 12215 4410 00000000 		.word	flujo_LCD1
 12216 4414 00000000 		.word	clave_config
 12217 4418 00000000 		.word	rf_mod
ARM GAS  C:\Users\RECEPC~1\AppData\Local\Temp\ccU7e2eq.s 			page 265


 12218              	.L592:
2479:.\main.c      **** 						    }
 12219              		.loc 1 2479 0 discriminator 3
 12220 441c 97F82F30 		ldrb	r3, [r7, #47]	@ zero_extendqisi2
 12221 4420 BA4A     		ldr	r2, .L707
 12222 4422 D35C     		ldrb	r3, [r2, r3]	@ zero_extendqisi2
 12223 4424 1846     		mov	r0, r3
 12224 4426 FFF7FEFF 		bl	PC_PutChar
2478:.\main.c      **** 							   PC_PutChar(rf_mod[x]);
 12225              		.loc 1 2478 0 discriminator 3
 12226 442a 97F82F30 		ldrb	r3, [r7, #47]	@ zero_extendqisi2
 12227 442e 0133     		adds	r3, r3, #1
 12228 4430 87F82F30 		strb	r3, [r7, #47]
 12229              	.L591:
2478:.\main.c      **** 							   PC_PutChar(rf_mod[x]);
 12230              		.loc 1 2478 0 is_stmt 0 discriminator 1
 12231 4434 97F82F30 		ldrb	r3, [r7, #47]	@ zero_extendqisi2
 12232 4438 042B     		cmp	r3, #4
 12233 443a EFD9     		bls	.L592
2481:.\main.c      **** 							set_imagen(1,0);
 12234              		.loc 1 2481 0 is_stmt 1
 12235 443c 9620     		movs	r0, #150
 12236 443e FFF7FEFF 		bl	CyDelay
2482:.\main.c      **** 							flujo_LCD1=0;
 12237              		.loc 1 2482 0
 12238 4442 0120     		movs	r0, #1
 12239 4444 0021     		movs	r1, #0
 12240 4446 FFF7FEFF 		bl	set_imagen
2483:.\main.c      ****                             if(seleccion_pos == 1){
 12241              		.loc 1 2483 0
 12242 444a B14B     		ldr	r3, .L707+4
 12243 444c 0022     		movs	r2, #0
 12244 444e 1A70     		strb	r2, [r3]
2484:.\main.c      **** 							    lado1.estado=libre;     //Fin de reimpresion  
 12245              		.loc 1 2484 0
 12246 4450 B04B     		ldr	r3, .L707+8
 12247 4452 1B78     		ldrb	r3, [r3]
 12248 4454 DBB2     		uxtb	r3, r3
 12249 4456 012B     		cmp	r3, #1
 12250 4458 02D1     		bne	.L593
2485:.\main.c      ****                             }
 12251              		.loc 1 2485 0
 12252 445a AF4B     		ldr	r3, .L707+12
 12253 445c 0122     		movs	r2, #1
 12254 445e 5A70     		strb	r2, [r3, #1]
 12255              	.L593:
2487:.\main.c      **** 							    lado2.estado=libre;     //Fin de reimpresion  
 12256              		.loc 1 2487 0
 12257 4460 AC4B     		ldr	r3, .L707+8
 12258 4462 1B78     		ldrb	r3, [r3]
 12259 4464 DBB2     		uxtb	r3, r3
 12260 4466 022B     		cmp	r3, #2
 12261 4468 03D1     		bne	.L594
2488:.\main.c      ****                             }
 12262              		.loc 1 2488 0
 12263 446a AC4B     		ldr	r3, .L707+16
 12264 446c 0122     		movs	r2, #1
ARM GAS  C:\Users\RECEPC~1\AppData\Local\Temp\ccU7e2eq.s 			page 266


 12265 446e 5A70     		strb	r2, [r3, #1]
2490:.\main.c      ****                             
 12266              		.loc 1 2490 0
 12267 4470 25E0     		b	.L587
 12268              	.L594:
 12269 4472 24E0     		b	.L587
 12270              	.L589:
2493:.\main.c      ****                             id_teclado1=5;
 12271              		.loc 1 2493 0
 12272 4474 0120     		movs	r0, #1
 12273 4476 2F21     		movs	r1, #47
 12274 4478 FFF7FEFF 		bl	set_imagen
2494:.\main.c      **** 					        count_teclas1=0;							 //Inicia el contador de teclas	
 12275              		.loc 1 2494 0
 12276 447c A84B     		ldr	r3, .L707+20
 12277 447e 0522     		movs	r2, #5
 12278 4480 1A70     		strb	r2, [r3]
2495:.\main.c      **** 					        id_coma1=',';	
 12279              		.loc 1 2495 0
 12280 4482 A84B     		ldr	r3, .L707+24
 12281 4484 0022     		movs	r2, #0
 12282 4486 1A70     		strb	r2, [r3]
2496:.\main.c      ****                             teclas1=4;              						//cantidad de teclas q puede digitar     
 12283              		.loc 1 2496 0
 12284 4488 A74B     		ldr	r3, .L707+28
 12285 448a 2C22     		movs	r2, #44
 12286 448c 1A70     		strb	r2, [r3]
2497:.\main.c      **** 					        posx1=4;
 12287              		.loc 1 2497 0
 12288 448e A74B     		ldr	r3, .L707+32
 12289 4490 0422     		movs	r2, #4
 12290 4492 1A70     		strb	r2, [r3]
2498:.\main.c      **** 					        posy1=3;
 12291              		.loc 1 2498 0
 12292 4494 A64B     		ldr	r3, .L707+36
 12293 4496 0422     		movs	r2, #4
 12294 4498 1A80     		strh	r2, [r3]	@ movhi
2499:.\main.c      **** 					        sizeletra1 = 1;	    
 12295              		.loc 1 2499 0
 12296 449a A64B     		ldr	r3, .L707+40
 12297 449c 0322     		movs	r2, #3
 12298 449e 1A80     		strh	r2, [r3]	@ movhi
2500:.\main.c      ****                             flujo_LCD1 = 12;
 12299              		.loc 1 2500 0
 12300 44a0 A54B     		ldr	r3, .L707+44
 12301 44a2 0122     		movs	r2, #1
 12302 44a4 1A80     		strh	r2, [r3]	@ movhi
2501:.\main.c      ****                         break;    
 12303              		.loc 1 2501 0
 12304 44a6 9A4B     		ldr	r3, .L707+4
 12305 44a8 0C22     		movs	r2, #12
 12306 44aa 1A70     		strb	r2, [r3]
2502:.\main.c      ****                             
 12307              		.loc 1 2502 0
 12308 44ac 07E0     		b	.L587
 12309              	.L590:
2505:.\main.c      **** 	                      flujo_LCD1=0;     
ARM GAS  C:\Users\RECEPC~1\AppData\Local\Temp\ccU7e2eq.s 			page 267


 12310              		.loc 1 2505 0
 12311 44ae 0120     		movs	r0, #1
 12312 44b0 4A21     		movs	r1, #74
 12313 44b2 FFF7FEFF 		bl	set_imagen
2506:.\main.c      **** 	                    break;		                            
 12314              		.loc 1 2506 0
 12315 44b6 964B     		ldr	r3, .L707+4
 12316 44b8 0022     		movs	r2, #0
 12317 44ba 1A70     		strb	r2, [r3]
2507:.\main.c      ****                     }
 12318              		.loc 1 2507 0
 12319 44bc 00BF     		nop
 12320              	.L587:
 12321              		.loc 1 2511 0 discriminator 17
 12322 44be 95E2     		b	.L117
 12323              	.L134:
2512:.\main.c      ****               
2513:.\main.c      ****         case 16:
2514:.\main.c      **** 	        if(LCD_1_GetRxBufferSize()==8){
 12324              		.loc 1 2514 0
 12325 44c0 FFF7FEFF 		bl	LCD_1_GetRxBufferSize
 12326 44c4 0346     		mov	r3, r0
 12327 44c6 082B     		cmp	r3, #8
 12328 44c8 40F04A81 		bne	.L595
2515:.\main.c      **** 	            if((LCD_1_rxBuffer[0]==0xAA) && (LCD_1_rxBuffer[6]==0xC3) && (LCD_1_rxBuffer[7]==0x3C)
 12329              		.loc 1 2515 0
 12330 44cc 9B4B     		ldr	r3, .L707+48
 12331 44ce 1B78     		ldrb	r3, [r3]
 12332 44d0 DBB2     		uxtb	r3, r3
 12333 44d2 AA2B     		cmp	r3, #170
 12334 44d4 40F03E81 		bne	.L596
 12335              		.loc 1 2515 0 is_stmt 0 discriminator 1
 12336 44d8 984B     		ldr	r3, .L707+48
 12337 44da 9B79     		ldrb	r3, [r3, #6]
 12338 44dc DBB2     		uxtb	r3, r3
 12339 44de C32B     		cmp	r3, #195
 12340 44e0 40F03881 		bne	.L596
 12341              		.loc 1 2515 0 discriminator 2
 12342 44e4 954B     		ldr	r3, .L707+48
 12343 44e6 DB79     		ldrb	r3, [r3, #7]
 12344 44e8 DBB2     		uxtb	r3, r3
 12345 44ea 3C2B     		cmp	r3, #60
 12346 44ec 40F03281 		bne	.L596
2516:.\main.c      **** 	                switch(LCD_1_rxBuffer[3]){
 12347              		.loc 1 2516 0 is_stmt 1
 12348 44f0 924B     		ldr	r3, .L707+48
 12349 44f2 DB78     		ldrb	r3, [r3, #3]
 12350 44f4 DBB2     		uxtb	r3, r3
 12351 44f6 802B     		cmp	r3, #128
 12352 44f8 5ED0     		beq	.L597
 12353 44fa 802B     		cmp	r3, #128
 12354 44fc 05DC     		bgt	.L598
 12355 44fe 7E2B     		cmp	r3, #126
 12356 4500 00F02081 		beq	.L599
 12357 4504 7F2B     		cmp	r3, #127
 12358 4506 07D0     		beq	.L600
 12359 4508 24E1     		b	.L596
ARM GAS  C:\Users\RECEPC~1\AppData\Local\Temp\ccU7e2eq.s 			page 268


 12360              	.L598:
 12361 450a 812B     		cmp	r3, #129
 12362 450c 00F09F80 		beq	.L601
 12363 4510 C22B     		cmp	r3, #194
 12364 4512 00F0E780 		beq	.L602
 12365 4516 1DE1     		b	.L596
 12366              	.L600:
2517:.\main.c      ****                         case 0x7F:      //configurar productos                            
2518:.\main.c      **** //                            set_imagen(1,88);                            
2519:.\main.c      **** //                            flujo_LCD1 = 18;
2520:.\main.c      ****                             rf_mod[0]='M';
 12367              		.loc 1 2520 0
 12368 4518 7C4B     		ldr	r3, .L707
 12369 451a 4D22     		movs	r2, #77
 12370 451c 1A70     		strb	r2, [r3]
2521:.\main.c      ****     		                rf_mod[1]='U';
 12371              		.loc 1 2521 0
 12372 451e 7B4B     		ldr	r3, .L707
 12373 4520 5522     		movs	r2, #85
 12374 4522 5A70     		strb	r2, [r3, #1]
2522:.\main.c      ****     		                rf_mod[2]='X';
 12375              		.loc 1 2522 0
 12376 4524 794B     		ldr	r3, .L707
 12377 4526 5822     		movs	r2, #88
 12378 4528 9A70     		strb	r2, [r3, #2]
2523:.\main.c      ****     		                rf_mod[3]='6';
 12379              		.loc 1 2523 0
 12380 452a 784B     		ldr	r3, .L707
 12381 452c 3622     		movs	r2, #54
 12382 452e DA70     		strb	r2, [r3, #3]
2524:.\main.c      ****                             rf_mod[4]='*';
 12383              		.loc 1 2524 0
 12384 4530 764B     		ldr	r3, .L707
 12385 4532 2A22     		movs	r2, #42
 12386 4534 1A71     		strb	r2, [r3, #4]
2525:.\main.c      ****     						PC_ClearRxBuffer();				
 12387              		.loc 1 2525 0
 12388 4536 FFF7FEFF 		bl	PC_ClearRxBuffer
2526:.\main.c      ****     					    for(x=0;x<=4;x++){
 12389              		.loc 1 2526 0
 12390 453a 0023     		movs	r3, #0
 12391 453c 87F82F30 		strb	r3, [r7, #47]
 12392 4540 0BE0     		b	.L603
 12393              	.L604:
2527:.\main.c      ****     						   PC_PutChar(rf_mod[x]);
 12394              		.loc 1 2527 0 discriminator 3
 12395 4542 97F82F30 		ldrb	r3, [r7, #47]	@ zero_extendqisi2
 12396 4546 714A     		ldr	r2, .L707
 12397 4548 D35C     		ldrb	r3, [r2, r3]	@ zero_extendqisi2
 12398 454a 1846     		mov	r0, r3
 12399 454c FFF7FEFF 		bl	PC_PutChar
2526:.\main.c      ****     					    for(x=0;x<=4;x++){
 12400              		.loc 1 2526 0 discriminator 3
 12401 4550 97F82F30 		ldrb	r3, [r7, #47]	@ zero_extendqisi2
 12402 4554 0133     		adds	r3, r3, #1
 12403 4556 87F82F30 		strb	r3, [r7, #47]
 12404              	.L603:
ARM GAS  C:\Users\RECEPC~1\AppData\Local\Temp\ccU7e2eq.s 			page 269


2526:.\main.c      ****     					    for(x=0;x<=4;x++){
 12405              		.loc 1 2526 0 is_stmt 0 discriminator 1
 12406 455a 97F82F30 		ldrb	r3, [r7, #47]	@ zero_extendqisi2
 12407 455e 042B     		cmp	r3, #4
 12408 4560 EFD9     		bls	.L604
2528:.\main.c      ****     					    }
2529:.\main.c      ****                             CyDelay(150);
 12409              		.loc 1 2529 0 is_stmt 1
 12410 4562 9620     		movs	r0, #150
 12411 4564 FFF7FEFF 		bl	CyDelay
2530:.\main.c      ****                             if(pantallas == 1 || pantallas == 4){
 12412              		.loc 1 2530 0
 12413 4568 754B     		ldr	r3, .L707+52
 12414 456a 1B78     		ldrb	r3, [r3]
 12415 456c DBB2     		uxtb	r3, r3
 12416 456e 012B     		cmp	r3, #1
 12417 4570 04D0     		beq	.L605
 12418              		.loc 1 2530 0 is_stmt 0 discriminator 1
 12419 4572 734B     		ldr	r3, .L707+52
 12420 4574 1B78     		ldrb	r3, [r3]
 12421 4576 DBB2     		uxtb	r3, r3
 12422 4578 042B     		cmp	r3, #4
 12423 457a 04D1     		bne	.L606
 12424              	.L605:
2531:.\main.c      ****                                 set_imagen(1,46);
 12425              		.loc 1 2531 0 is_stmt 1
 12426 457c 0120     		movs	r0, #1
 12427 457e 2E21     		movs	r1, #46
 12428 4580 FFF7FEFF 		bl	set_imagen
 12429 4584 03E0     		b	.L607
 12430              	.L606:
2532:.\main.c      ****                             }else{
2533:.\main.c      ****                                 set_imagen(1,21);
 12431              		.loc 1 2533 0
 12432 4586 0120     		movs	r0, #1
 12433 4588 1521     		movs	r1, #21
 12434 458a FFF7FEFF 		bl	set_imagen
 12435              	.L607:
2534:.\main.c      ****                             }
2535:.\main.c      ****     						flujo_LCD1=0;
 12436              		.loc 1 2535 0
 12437 458e 604B     		ldr	r3, .L707+4
 12438 4590 0022     		movs	r2, #0
 12439 4592 1A70     		strb	r2, [r3]
2536:.\main.c      ****                             if(seleccion_pos == 1){
 12440              		.loc 1 2536 0
 12441 4594 5F4B     		ldr	r3, .L707+8
 12442 4596 1B78     		ldrb	r3, [r3]
 12443 4598 DBB2     		uxtb	r3, r3
 12444 459a 012B     		cmp	r3, #1
 12445 459c 02D1     		bne	.L608
2537:.\main.c      ****     						    lado1.estado=libre;     //Fin de reimpresion  
 12446              		.loc 1 2537 0
 12447 459e 5E4B     		ldr	r3, .L707+12
 12448 45a0 0122     		movs	r2, #1
 12449 45a2 5A70     		strb	r2, [r3, #1]
 12450              	.L608:
ARM GAS  C:\Users\RECEPC~1\AppData\Local\Temp\ccU7e2eq.s 			page 270


2538:.\main.c      ****                             }
2539:.\main.c      ****                             if(seleccion_pos == 2){
 12451              		.loc 1 2539 0
 12452 45a4 5B4B     		ldr	r3, .L707+8
 12453 45a6 1B78     		ldrb	r3, [r3]
 12454 45a8 DBB2     		uxtb	r3, r3
 12455 45aa 022B     		cmp	r3, #2
 12456 45ac 03D1     		bne	.L609
2540:.\main.c      ****     						    lado2.estado=libre;     //Fin de reimpresion  
 12457              		.loc 1 2540 0
 12458 45ae 5B4B     		ldr	r3, .L707+16
 12459 45b0 0122     		movs	r2, #1
 12460 45b2 5A70     		strb	r2, [r3, #1]
2541:.\main.c      ****                             }
2542:.\main.c      ****                         break;
 12461              		.loc 1 2542 0
 12462 45b4 CEE0     		b	.L596
 12463              	.L609:
 12464 45b6 CDE0     		b	.L596
 12465              	.L597:
2543:.\main.c      ****                         case 0x80:      //configurar version de digitos                            
2544:.\main.c      **** //                            set_imagen(1,100);
2545:.\main.c      **** //                            id_teclado1 = 6;
2546:.\main.c      **** //					        count_teclas1 = 0;							    //Inicia el contador de teclas	
2547:.\main.c      **** //					        id_coma1=',';	
2548:.\main.c      **** //                            teclas1=1;              						//cantidad de teclas q puede digitar   
2549:.\main.c      **** //					        posx1=4;
2550:.\main.c      **** //					        posy1=3;
2551:.\main.c      **** //					        sizeletra1=1;  
2552:.\main.c      **** //                            flujo_LCD1 = 12;
2553:.\main.c      ****                             rf_mod[0]='M';
 12466              		.loc 1 2553 0
 12467 45b8 544B     		ldr	r3, .L707
 12468 45ba 4D22     		movs	r2, #77
 12469 45bc 1A70     		strb	r2, [r3]
2554:.\main.c      ****     		                rf_mod[1]='U';
 12470              		.loc 1 2554 0
 12471 45be 534B     		ldr	r3, .L707
 12472 45c0 5522     		movs	r2, #85
 12473 45c2 5A70     		strb	r2, [r3, #1]
2555:.\main.c      ****     		                rf_mod[2]='X';
 12474              		.loc 1 2555 0
 12475 45c4 514B     		ldr	r3, .L707
 12476 45c6 5822     		movs	r2, #88
 12477 45c8 9A70     		strb	r2, [r3, #2]
2556:.\main.c      ****     		                rf_mod[3]='6';
 12478              		.loc 1 2556 0
 12479 45ca 504B     		ldr	r3, .L707
 12480 45cc 3622     		movs	r2, #54
 12481 45ce DA70     		strb	r2, [r3, #3]
2557:.\main.c      ****                             rf_mod[4]='*';
 12482              		.loc 1 2557 0
 12483 45d0 4E4B     		ldr	r3, .L707
 12484 45d2 2A22     		movs	r2, #42
 12485 45d4 1A71     		strb	r2, [r3, #4]
2558:.\main.c      ****     						PC_ClearRxBuffer();				
 12486              		.loc 1 2558 0
ARM GAS  C:\Users\RECEPC~1\AppData\Local\Temp\ccU7e2eq.s 			page 271


 12487 45d6 FFF7FEFF 		bl	PC_ClearRxBuffer
2559:.\main.c      ****     					    for(x=0;x<=4;x++){
 12488              		.loc 1 2559 0
 12489 45da 0023     		movs	r3, #0
 12490 45dc 87F82F30 		strb	r3, [r7, #47]
 12491 45e0 0BE0     		b	.L610
 12492              	.L611:
2560:.\main.c      ****     						   PC_PutChar(rf_mod[x]);
 12493              		.loc 1 2560 0 discriminator 3
 12494 45e2 97F82F30 		ldrb	r3, [r7, #47]	@ zero_extendqisi2
 12495 45e6 494A     		ldr	r2, .L707
 12496 45e8 D35C     		ldrb	r3, [r2, r3]	@ zero_extendqisi2
 12497 45ea 1846     		mov	r0, r3
 12498 45ec FFF7FEFF 		bl	PC_PutChar
2559:.\main.c      ****     					    for(x=0;x<=4;x++){
 12499              		.loc 1 2559 0 discriminator 3
 12500 45f0 97F82F30 		ldrb	r3, [r7, #47]	@ zero_extendqisi2
 12501 45f4 0133     		adds	r3, r3, #1
 12502 45f6 87F82F30 		strb	r3, [r7, #47]
 12503              	.L610:
2559:.\main.c      ****     					    for(x=0;x<=4;x++){
 12504              		.loc 1 2559 0 is_stmt 0 discriminator 1
 12505 45fa 97F82F30 		ldrb	r3, [r7, #47]	@ zero_extendqisi2
 12506 45fe 042B     		cmp	r3, #4
 12507 4600 EFD9     		bls	.L611
2561:.\main.c      ****     					    }
2562:.\main.c      ****                             CyDelay(150);
 12508              		.loc 1 2562 0 is_stmt 1
 12509 4602 9620     		movs	r0, #150
 12510 4604 FFF7FEFF 		bl	CyDelay
2563:.\main.c      ****                             if(pantallas == 1){
 12511              		.loc 1 2563 0
 12512 4608 4D4B     		ldr	r3, .L707+52
 12513 460a 1B78     		ldrb	r3, [r3]
 12514 460c DBB2     		uxtb	r3, r3
 12515 460e 012B     		cmp	r3, #1
 12516 4610 04D1     		bne	.L612
2564:.\main.c      ****                                 set_imagen(1,46);
 12517              		.loc 1 2564 0
 12518 4612 0120     		movs	r0, #1
 12519 4614 2E21     		movs	r1, #46
 12520 4616 FFF7FEFF 		bl	set_imagen
 12521 461a 03E0     		b	.L613
 12522              	.L612:
2565:.\main.c      ****                             }else{
2566:.\main.c      ****                                 set_imagen(1,21);
 12523              		.loc 1 2566 0
 12524 461c 0120     		movs	r0, #1
 12525 461e 1521     		movs	r1, #21
 12526 4620 FFF7FEFF 		bl	set_imagen
 12527              	.L613:
2567:.\main.c      ****                             }
2568:.\main.c      ****     						flujo_LCD1=0;
 12528              		.loc 1 2568 0
 12529 4624 3A4B     		ldr	r3, .L707+4
 12530 4626 0022     		movs	r2, #0
 12531 4628 1A70     		strb	r2, [r3]
ARM GAS  C:\Users\RECEPC~1\AppData\Local\Temp\ccU7e2eq.s 			page 272


2569:.\main.c      ****                             if(seleccion_pos == 1){
 12532              		.loc 1 2569 0
 12533 462a 3A4B     		ldr	r3, .L707+8
 12534 462c 1B78     		ldrb	r3, [r3]
 12535 462e DBB2     		uxtb	r3, r3
 12536 4630 012B     		cmp	r3, #1
 12537 4632 02D1     		bne	.L614
2570:.\main.c      ****     						    lado1.estado=libre;     //Fin de reimpresion  
 12538              		.loc 1 2570 0
 12539 4634 384B     		ldr	r3, .L707+12
 12540 4636 0122     		movs	r2, #1
 12541 4638 5A70     		strb	r2, [r3, #1]
 12542              	.L614:
2571:.\main.c      ****                             }
2572:.\main.c      ****                             if(seleccion_pos == 2){
 12543              		.loc 1 2572 0
 12544 463a 364B     		ldr	r3, .L707+8
 12545 463c 1B78     		ldrb	r3, [r3]
 12546 463e DBB2     		uxtb	r3, r3
 12547 4640 022B     		cmp	r3, #2
 12548 4642 03D1     		bne	.L615
2573:.\main.c      ****     						    lado2.estado=libre;     //Fin de reimpresion  
 12549              		.loc 1 2573 0
 12550 4644 354B     		ldr	r3, .L707+16
 12551 4646 0122     		movs	r2, #1
 12552 4648 5A70     		strb	r2, [r3, #1]
2574:.\main.c      ****                             }
2575:.\main.c      ****                         break;
 12553              		.loc 1 2575 0
 12554 464a 83E0     		b	.L596
 12555              	.L615:
 12556 464c 82E0     		b	.L596
 12557              	.L601:
2576:.\main.c      ****                         case 0x81:      //configurar ppux10,ppux1
2577:.\main.c      **** //                            flujo_LCD1 = 17;
2578:.\main.c      **** //                            set_imagen(1,109); 
2579:.\main.c      ****                             rf_mod[0]='M';
 12558              		.loc 1 2579 0
 12559 464e 2F4B     		ldr	r3, .L707
 12560 4650 4D22     		movs	r2, #77
 12561 4652 1A70     		strb	r2, [r3]
2580:.\main.c      ****     		                rf_mod[1]='U';
 12562              		.loc 1 2580 0
 12563 4654 2D4B     		ldr	r3, .L707
 12564 4656 5522     		movs	r2, #85
 12565 4658 5A70     		strb	r2, [r3, #1]
2581:.\main.c      ****     		                rf_mod[2]='X';
 12566              		.loc 1 2581 0
 12567 465a 2C4B     		ldr	r3, .L707
 12568 465c 5822     		movs	r2, #88
 12569 465e 9A70     		strb	r2, [r3, #2]
2582:.\main.c      ****     		                rf_mod[3]='6';
 12570              		.loc 1 2582 0
 12571 4660 2A4B     		ldr	r3, .L707
 12572 4662 3622     		movs	r2, #54
 12573 4664 DA70     		strb	r2, [r3, #3]
2583:.\main.c      ****                             rf_mod[4]='*';
ARM GAS  C:\Users\RECEPC~1\AppData\Local\Temp\ccU7e2eq.s 			page 273


 12574              		.loc 1 2583 0
 12575 4666 294B     		ldr	r3, .L707
 12576 4668 2A22     		movs	r2, #42
 12577 466a 1A71     		strb	r2, [r3, #4]
2584:.\main.c      ****     						PC_ClearRxBuffer();				
 12578              		.loc 1 2584 0
 12579 466c FFF7FEFF 		bl	PC_ClearRxBuffer
2585:.\main.c      ****     					    for(x=0;x<=4;x++){
 12580              		.loc 1 2585 0
 12581 4670 0023     		movs	r3, #0
 12582 4672 87F82F30 		strb	r3, [r7, #47]
 12583 4676 0BE0     		b	.L616
 12584              	.L617:
2586:.\main.c      ****     						   PC_PutChar(rf_mod[x]);
 12585              		.loc 1 2586 0 discriminator 3
 12586 4678 97F82F30 		ldrb	r3, [r7, #47]	@ zero_extendqisi2
 12587 467c 234A     		ldr	r2, .L707
 12588 467e D35C     		ldrb	r3, [r2, r3]	@ zero_extendqisi2
 12589 4680 1846     		mov	r0, r3
 12590 4682 FFF7FEFF 		bl	PC_PutChar
2585:.\main.c      ****     					    for(x=0;x<=4;x++){
 12591              		.loc 1 2585 0 discriminator 3
 12592 4686 97F82F30 		ldrb	r3, [r7, #47]	@ zero_extendqisi2
 12593 468a 0133     		adds	r3, r3, #1
 12594 468c 87F82F30 		strb	r3, [r7, #47]
 12595              	.L616:
2585:.\main.c      ****     					    for(x=0;x<=4;x++){
 12596              		.loc 1 2585 0 is_stmt 0 discriminator 1
 12597 4690 97F82F30 		ldrb	r3, [r7, #47]	@ zero_extendqisi2
 12598 4694 042B     		cmp	r3, #4
 12599 4696 EFD9     		bls	.L617
2587:.\main.c      ****     					    }
2588:.\main.c      ****                             CyDelay(150);
 12600              		.loc 1 2588 0 is_stmt 1
 12601 4698 9620     		movs	r0, #150
 12602 469a FFF7FEFF 		bl	CyDelay
2589:.\main.c      ****                             if(pantallas == 1){
 12603              		.loc 1 2589 0
 12604 469e 284B     		ldr	r3, .L707+52
 12605 46a0 1B78     		ldrb	r3, [r3]
 12606 46a2 DBB2     		uxtb	r3, r3
 12607 46a4 012B     		cmp	r3, #1
 12608 46a6 04D1     		bne	.L618
2590:.\main.c      ****                                 set_imagen(1,46);
 12609              		.loc 1 2590 0
 12610 46a8 0120     		movs	r0, #1
 12611 46aa 2E21     		movs	r1, #46
 12612 46ac FFF7FEFF 		bl	set_imagen
 12613 46b0 03E0     		b	.L619
 12614              	.L618:
2591:.\main.c      ****                             }else{
2592:.\main.c      ****                                 set_imagen(1,21);
 12615              		.loc 1 2592 0
 12616 46b2 0120     		movs	r0, #1
 12617 46b4 1521     		movs	r1, #21
 12618 46b6 FFF7FEFF 		bl	set_imagen
 12619              	.L619:
ARM GAS  C:\Users\RECEPC~1\AppData\Local\Temp\ccU7e2eq.s 			page 274


2593:.\main.c      ****                             }
2594:.\main.c      ****     						flujo_LCD1=0;
 12620              		.loc 1 2594 0
 12621 46ba 154B     		ldr	r3, .L707+4
 12622 46bc 0022     		movs	r2, #0
 12623 46be 1A70     		strb	r2, [r3]
2595:.\main.c      ****                             if(seleccion_pos == 1){
 12624              		.loc 1 2595 0
 12625 46c0 144B     		ldr	r3, .L707+8
 12626 46c2 1B78     		ldrb	r3, [r3]
 12627 46c4 DBB2     		uxtb	r3, r3
 12628 46c6 012B     		cmp	r3, #1
 12629 46c8 02D1     		bne	.L620
2596:.\main.c      ****     						    lado1.estado=libre;     //Fin de reimpresion  
 12630              		.loc 1 2596 0
 12631 46ca 134B     		ldr	r3, .L707+12
 12632 46cc 0122     		movs	r2, #1
 12633 46ce 5A70     		strb	r2, [r3, #1]
 12634              	.L620:
2597:.\main.c      ****                             }
2598:.\main.c      ****                             if(seleccion_pos == 2){
 12635              		.loc 1 2598 0
 12636 46d0 104B     		ldr	r3, .L707+8
 12637 46d2 1B78     		ldrb	r3, [r3]
 12638 46d4 DBB2     		uxtb	r3, r3
 12639 46d6 022B     		cmp	r3, #2
 12640 46d8 03D1     		bne	.L621
2599:.\main.c      ****     						    lado2.estado=libre;     //Fin de reimpresion  
 12641              		.loc 1 2599 0
 12642 46da 104B     		ldr	r3, .L707+16
 12643 46dc 0122     		movs	r2, #1
 12644 46de 5A70     		strb	r2, [r3, #1]
2600:.\main.c      ****                             }
2601:.\main.c      ****                         break;
 12645              		.loc 1 2601 0
 12646 46e0 38E0     		b	.L596
 12647              	.L621:
 12648 46e2 37E0     		b	.L596
 12649              	.L602:
2602:.\main.c      ****                         case 0xC2:      //id estacion   ahora datos ibutton                        
2603:.\main.c      ****                             set_imagen(1,110);                                
 12650              		.loc 1 2603 0
 12651 46e4 0120     		movs	r0, #1
 12652 46e6 6E21     		movs	r1, #110
 12653 46e8 FFF7FEFF 		bl	set_imagen
2604:.\main.c      **** 					        posx1=4;
 12654              		.loc 1 2604 0
 12655 46ec 104B     		ldr	r3, .L707+36
 12656 46ee 0422     		movs	r2, #4
 12657 46f0 1A80     		strh	r2, [r3]	@ movhi
2605:.\main.c      **** 					        posy1=3;
 12658              		.loc 1 2605 0
 12659 46f2 104B     		ldr	r3, .L707+40
 12660 46f4 0322     		movs	r2, #3
 12661 46f6 1A80     		strh	r2, [r3]	@ movhi
2606:.\main.c      **** 					        sizeletra1=1;            
 12662              		.loc 1 2606 0
ARM GAS  C:\Users\RECEPC~1\AppData\Local\Temp\ccU7e2eq.s 			page 275


 12663 46f8 0F4B     		ldr	r3, .L707+44
 12664 46fa 0122     		movs	r2, #1
 12665 46fc 1A80     		strh	r2, [r3]	@ movhi
2607:.\main.c      ****                             flujo_LCD1 = 11;
 12666              		.loc 1 2607 0
 12667 46fe 044B     		ldr	r3, .L707+4
 12668 4700 0B22     		movs	r2, #11
 12669 4702 1A70     		strb	r2, [r3]
2608:.\main.c      ****                             id_teclado1 = 10;
 12670              		.loc 1 2608 0
 12671 4704 064B     		ldr	r3, .L707+20
 12672 4706 0A22     		movs	r2, #10
 12673 4708 1A70     		strb	r2, [r3]
2609:.\main.c      ****                         break;                             
 12674              		.loc 1 2609 0
 12675 470a 23E0     		b	.L596
 12676              	.L708:
 12677              		.align	2
 12678              	.L707:
 12679 470c 00000000 		.word	rf_mod
 12680 4710 00000000 		.word	flujo_LCD1
 12681 4714 00000000 		.word	seleccion_pos
 12682 4718 00000000 		.word	lado1
 12683 471c 00000000 		.word	lado2
 12684 4720 00000000 		.word	id_teclado1
 12685 4724 00000000 		.word	count_teclas1
 12686 4728 00000000 		.word	id_coma1
 12687 472c 00000000 		.word	teclas1
 12688 4730 00000000 		.word	posx1
 12689 4734 00000000 		.word	posy1
 12690 4738 00000000 		.word	sizeletra1
 12691 473c 00000000 		.word	LCD_1_rxBuffer
 12692 4740 00000000 		.word	pantallas
 12693              	.L599:
2610:.\main.c      **** 	                    case 0x7E:		//ir a menu
2611:.\main.c      **** 						  set_imagen(1,74);	
 12694              		.loc 1 2611 0
 12695 4744 0120     		movs	r0, #1
 12696 4746 4A21     		movs	r1, #74
 12697 4748 FFF7FEFF 		bl	set_imagen
2612:.\main.c      **** 	                      flujo_LCD1=0;     
 12698              		.loc 1 2612 0
 12699 474c A94B     		ldr	r3, .L709
 12700 474e 0022     		movs	r2, #0
 12701 4750 1A70     		strb	r2, [r3]
2613:.\main.c      **** 	                    break;                                   
 12702              		.loc 1 2613 0
 12703 4752 00BF     		nop
 12704              	.L596:
2614:.\main.c      ****                     }
2615:.\main.c      ****                 }
2616:.\main.c      ****                 CyDelay(100);            
 12705              		.loc 1 2616 0
 12706 4754 6420     		movs	r0, #100
 12707 4756 FFF7FEFF 		bl	CyDelay
2617:.\main.c      **** 	            LCD_1_ClearRxBuffer();
 12708              		.loc 1 2617 0
ARM GAS  C:\Users\RECEPC~1\AppData\Local\Temp\ccU7e2eq.s 			page 276


 12709 475a FFF7FEFF 		bl	LCD_1_ClearRxBuffer
2618:.\main.c      ****             }            
2619:.\main.c      ****         break;    
 12710              		.loc 1 2619 0
 12711 475e 45E1     		b	.L117
 12712              	.L595:
 12713              		.loc 1 2619 0 is_stmt 0 discriminator 19
 12714 4760 44E1     		b	.L117
 12715              	.L135:
2620:.\main.c      ****             
2621:.\main.c      ****         case 17:
2622:.\main.c      **** 	        if(LCD_1_GetRxBufferSize()==8){
 12716              		.loc 1 2622 0 is_stmt 1
 12717 4762 FFF7FEFF 		bl	LCD_1_GetRxBufferSize
 12718 4766 0346     		mov	r3, r0
 12719 4768 082B     		cmp	r3, #8
 12720 476a 4AD1     		bne	.L622
2623:.\main.c      **** 	            if((LCD_1_rxBuffer[0]==0xAA) && (LCD_1_rxBuffer[6]==0xC3) && (LCD_1_rxBuffer[7]==0x3C)
 12721              		.loc 1 2623 0
 12722 476c A24B     		ldr	r3, .L709+4
 12723 476e 1B78     		ldrb	r3, [r3]
 12724 4770 DBB2     		uxtb	r3, r3
 12725 4772 AA2B     		cmp	r3, #170
 12726 4774 3FD1     		bne	.L623
 12727              		.loc 1 2623 0 is_stmt 0 discriminator 1
 12728 4776 A04B     		ldr	r3, .L709+4
 12729 4778 9B79     		ldrb	r3, [r3, #6]
 12730 477a DBB2     		uxtb	r3, r3
 12731 477c C32B     		cmp	r3, #195
 12732 477e 3AD1     		bne	.L623
 12733              		.loc 1 2623 0 discriminator 2
 12734 4780 9D4B     		ldr	r3, .L709+4
 12735 4782 DB79     		ldrb	r3, [r3, #7]
 12736 4784 DBB2     		uxtb	r3, r3
 12737 4786 3C2B     		cmp	r3, #60
 12738 4788 35D1     		bne	.L623
2624:.\main.c      **** 	                switch(LCD_1_rxBuffer[3]){
 12739              		.loc 1 2624 0 is_stmt 1
 12740 478a 9B4B     		ldr	r3, .L709+4
 12741 478c DB78     		ldrb	r3, [r3, #3]
 12742 478e DBB2     		uxtb	r3, r3
 12743 4790 8F2B     		cmp	r3, #143
 12744 4792 04D0     		beq	.L624
 12745 4794 902B     		cmp	r3, #144
 12746 4796 14D0     		beq	.L625
 12747 4798 7E2B     		cmp	r3, #126
 12748 479a 24D0     		beq	.L626
 12749 479c 2BE0     		b	.L623
 12750              	.L624:
2625:.\main.c      ****                         case 0x8f:  //X1
2626:.\main.c      **** 						    EEPROM_WriteByte(0x00,23);
 12751              		.loc 1 2626 0
 12752 479e 0020     		movs	r0, #0
 12753 47a0 1721     		movs	r1, #23
 12754 47a2 FFF7FEFF 		bl	EEPROM_WriteByte
2627:.\main.c      ****                         	flujo_LCD1 = 0;	
 12755              		.loc 1 2627 0
ARM GAS  C:\Users\RECEPC~1\AppData\Local\Temp\ccU7e2eq.s 			page 277


 12756 47a6 934B     		ldr	r3, .L709
 12757 47a8 0022     		movs	r2, #0
 12758 47aa 1A70     		strb	r2, [r3]
2628:.\main.c      ****                         	set_imagen(1,60);
 12759              		.loc 1 2628 0
 12760 47ac 0120     		movs	r0, #1
 12761 47ae 3C21     		movs	r1, #60
 12762 47b0 FFF7FEFF 		bl	set_imagen
2629:.\main.c      ****                             CyDelay(200);
 12763              		.loc 1 2629 0
 12764 47b4 C820     		movs	r0, #200
 12765 47b6 FFF7FEFF 		bl	CyDelay
2630:.\main.c      **** 							lado1.estado=libre;                          
 12766              		.loc 1 2630 0
 12767 47ba 904B     		ldr	r3, .L709+8
 12768 47bc 0122     		movs	r2, #1
 12769 47be 5A70     		strb	r2, [r3, #1]
2631:.\main.c      ****                         break;
 12770              		.loc 1 2631 0
 12771 47c0 19E0     		b	.L623
 12772              	.L625:
2632:.\main.c      ****                         case 0x90:  //X10
2633:.\main.c      **** 						    EEPROM_WriteByte(0x01,23);
 12773              		.loc 1 2633 0
 12774 47c2 0120     		movs	r0, #1
 12775 47c4 1721     		movs	r1, #23
 12776 47c6 FFF7FEFF 		bl	EEPROM_WriteByte
2634:.\main.c      ****                         	flujo_LCD1=0;	
 12777              		.loc 1 2634 0
 12778 47ca 8A4B     		ldr	r3, .L709
 12779 47cc 0022     		movs	r2, #0
 12780 47ce 1A70     		strb	r2, [r3]
2635:.\main.c      ****                         	set_imagen(1,60);
 12781              		.loc 1 2635 0
 12782 47d0 0120     		movs	r0, #1
 12783 47d2 3C21     		movs	r1, #60
 12784 47d4 FFF7FEFF 		bl	set_imagen
2636:.\main.c      ****                             CyDelay(200);
 12785              		.loc 1 2636 0
 12786 47d8 C820     		movs	r0, #200
 12787 47da FFF7FEFF 		bl	CyDelay
2637:.\main.c      **** 							lado1.estado=libre;                           
 12788              		.loc 1 2637 0
 12789 47de 874B     		ldr	r3, .L709+8
 12790 47e0 0122     		movs	r2, #1
 12791 47e2 5A70     		strb	r2, [r3, #1]
2638:.\main.c      ****                         break;
 12792              		.loc 1 2638 0
 12793 47e4 07E0     		b	.L623
 12794              	.L626:
2639:.\main.c      **** 	                    case 0x7E:	//ir a menu
2640:.\main.c      **** 						  set_imagen(1,74);	
 12795              		.loc 1 2640 0
 12796 47e6 0120     		movs	r0, #1
 12797 47e8 4A21     		movs	r1, #74
 12798 47ea FFF7FEFF 		bl	set_imagen
2641:.\main.c      **** 	                      flujo_LCD1=0;     
ARM GAS  C:\Users\RECEPC~1\AppData\Local\Temp\ccU7e2eq.s 			page 278


 12799              		.loc 1 2641 0
 12800 47ee 814B     		ldr	r3, .L709
 12801 47f0 0022     		movs	r2, #0
 12802 47f2 1A70     		strb	r2, [r3]
2642:.\main.c      **** 	                    break;                         
 12803              		.loc 1 2642 0
 12804 47f4 00BF     		nop
 12805              	.L623:
2643:.\main.c      ****                     }
2644:.\main.c      ****                 }
2645:.\main.c      ****                 CyDelay(100);            
 12806              		.loc 1 2645 0
 12807 47f6 6420     		movs	r0, #100
 12808 47f8 FFF7FEFF 		bl	CyDelay
2646:.\main.c      **** 	            LCD_1_ClearRxBuffer();
 12809              		.loc 1 2646 0
 12810 47fc FFF7FEFF 		bl	LCD_1_ClearRxBuffer
2647:.\main.c      ****             }              
2648:.\main.c      ****         break;    
 12811              		.loc 1 2648 0
 12812 4800 F4E0     		b	.L117
 12813              	.L622:
 12814              		.loc 1 2648 0 is_stmt 0 discriminator 20
 12815 4802 F3E0     		b	.L117
 12816              	.L136:
2649:.\main.c      ****                   
2650:.\main.c      ****             
2651:.\main.c      ****         case 19:
2652:.\main.c      **** 			rf_mod[0]='M';
 12817              		.loc 1 2652 0 is_stmt 1
 12818 4804 7E4B     		ldr	r3, .L709+12
 12819 4806 4D22     		movs	r2, #77
 12820 4808 1A70     		strb	r2, [r3]
2653:.\main.c      **** 			rf_mod[1]='U';
 12821              		.loc 1 2653 0
 12822 480a 7D4B     		ldr	r3, .L709+12
 12823 480c 5522     		movs	r2, #85
 12824 480e 5A70     		strb	r2, [r3, #1]
2654:.\main.c      **** 			rf_mod[2]='X';
 12825              		.loc 1 2654 0
 12826 4810 7B4B     		ldr	r3, .L709+12
 12827 4812 5822     		movs	r2, #88
 12828 4814 9A70     		strb	r2, [r3, #2]
2655:.\main.c      **** 			rf_mod[3]='5';  
 12829              		.loc 1 2655 0
 12830 4816 7A4B     		ldr	r3, .L709+12
 12831 4818 3522     		movs	r2, #53
 12832 481a DA70     		strb	r2, [r3, #3]
2656:.\main.c      ****             if(seleccion_pos == 1){
 12833              		.loc 1 2656 0
 12834 481c 794B     		ldr	r3, .L709+16
 12835 481e 1B78     		ldrb	r3, [r3]
 12836 4820 DBB2     		uxtb	r3, r3
 12837 4822 012B     		cmp	r3, #1
 12838 4824 65D1     		bne	.L627
2657:.\main.c      **** 			    for(x=0;x<=15;x++){						//Serial				
 12839              		.loc 1 2657 0
ARM GAS  C:\Users\RECEPC~1\AppData\Local\Temp\ccU7e2eq.s 			page 279


 12840 4826 0023     		movs	r3, #0
 12841 4828 87F82F30 		strb	r3, [r7, #47]
 12842 482c 3AE0     		b	.L628
 12843              	.L631:
2658:.\main.c      **** 				    y=(rventa1.id[x/2]>>4)&0x0F;
 12844              		.loc 1 2658 0
 12845 482e 97F82F30 		ldrb	r3, [r7, #47]	@ zero_extendqisi2
 12846 4832 5B08     		lsrs	r3, r3, #1
 12847 4834 DBB2     		uxtb	r3, r3
 12848 4836 1A46     		mov	r2, r3
 12849 4838 734B     		ldr	r3, .L709+20
 12850 483a 1344     		add	r3, r3, r2
 12851 483c 93F82330 		ldrb	r3, [r3, #35]	@ zero_extendqisi2
 12852 4840 1B09     		lsrs	r3, r3, #4
 12853 4842 87F82E30 		strb	r3, [r7, #46]
2659:.\main.c      **** 				    if((x%2)==0){
 12854              		.loc 1 2659 0
 12855 4846 97F82F30 		ldrb	r3, [r7, #47]
 12856 484a 03F00103 		and	r3, r3, #1
 12857 484e DBB2     		uxtb	r3, r3
 12858 4850 002B     		cmp	r3, #0
 12859 4852 0CD1     		bne	.L629
2660:.\main.c      **** 					    y=rventa1.id[x/2]&0x0F;
 12860              		.loc 1 2660 0
 12861 4854 97F82F30 		ldrb	r3, [r7, #47]	@ zero_extendqisi2
 12862 4858 5B08     		lsrs	r3, r3, #1
 12863 485a DBB2     		uxtb	r3, r3
 12864 485c 1A46     		mov	r2, r3
 12865 485e 6A4B     		ldr	r3, .L709+20
 12866 4860 1344     		add	r3, r3, r2
 12867 4862 93F82330 		ldrb	r3, [r3, #35]	@ zero_extendqisi2
 12868 4866 03F00F03 		and	r3, r3, #15
 12869 486a 87F82E30 		strb	r3, [r7, #46]
 12870              	.L629:
2661:.\main.c      **** 				    }
2662:.\main.c      **** 				    rf_mod[x+4] = y+48;
 12871              		.loc 1 2662 0
 12872 486e 97F82F30 		ldrb	r3, [r7, #47]	@ zero_extendqisi2
 12873 4872 0433     		adds	r3, r3, #4
 12874 4874 97F82E20 		ldrb	r2, [r7, #46]
 12875 4878 3032     		adds	r2, r2, #48
 12876 487a D1B2     		uxtb	r1, r2
 12877 487c 604A     		ldr	r2, .L709+12
 12878 487e D154     		strb	r1, [r2, r3]
2663:.\main.c      **** 				    if(y>9){
 12879              		.loc 1 2663 0
 12880 4880 97F82E30 		ldrb	r3, [r7, #46]	@ zero_extendqisi2
 12881 4884 092B     		cmp	r3, #9
 12882 4886 08D9     		bls	.L630
2664:.\main.c      **** 					    rf_mod[x+4] = y+55;
 12883              		.loc 1 2664 0
 12884 4888 97F82F30 		ldrb	r3, [r7, #47]	@ zero_extendqisi2
 12885 488c 0433     		adds	r3, r3, #4
 12886 488e 97F82E20 		ldrb	r2, [r7, #46]
 12887 4892 3732     		adds	r2, r2, #55
 12888 4894 D1B2     		uxtb	r1, r2
 12889 4896 5A4A     		ldr	r2, .L709+12
ARM GAS  C:\Users\RECEPC~1\AppData\Local\Temp\ccU7e2eq.s 			page 280


 12890 4898 D154     		strb	r1, [r2, r3]
 12891              	.L630:
2657:.\main.c      **** 				    y=(rventa1.id[x/2]>>4)&0x0F;
 12892              		.loc 1 2657 0 discriminator 2
 12893 489a 97F82F30 		ldrb	r3, [r7, #47]	@ zero_extendqisi2
 12894 489e 0133     		adds	r3, r3, #1
 12895 48a0 87F82F30 		strb	r3, [r7, #47]
 12896              	.L628:
2657:.\main.c      **** 				    y=(rventa1.id[x/2]>>4)&0x0F;
 12897              		.loc 1 2657 0 is_stmt 0 discriminator 1
 12898 48a4 97F82F30 		ldrb	r3, [r7, #47]	@ zero_extendqisi2
 12899 48a8 0F2B     		cmp	r3, #15
 12900 48aa C0D9     		bls	.L631
2665:.\main.c      **** 				    }
2666:.\main.c      **** 			    }            
2667:.\main.c      ****     			rf_mod[20]='*';					
 12901              		.loc 1 2667 0 is_stmt 1
 12902 48ac 544B     		ldr	r3, .L709+12
 12903 48ae 2A22     		movs	r2, #42
 12904 48b0 1A75     		strb	r2, [r3, #20]
2668:.\main.c      ****     			PC_ClearRxBuffer();
 12905              		.loc 1 2668 0
 12906 48b2 FFF7FEFF 		bl	PC_ClearRxBuffer
2669:.\main.c      ****                 for(x=0;x<=20;x++){
 12907              		.loc 1 2669 0
 12908 48b6 0023     		movs	r3, #0
 12909 48b8 87F82F30 		strb	r3, [r7, #47]
 12910 48bc 0BE0     		b	.L632
 12911              	.L633:
2670:.\main.c      ****     			    PC_PutChar(rf_mod[x]);
 12912              		.loc 1 2670 0 discriminator 3
 12913 48be 97F82F30 		ldrb	r3, [r7, #47]	@ zero_extendqisi2
 12914 48c2 4F4A     		ldr	r2, .L709+12
 12915 48c4 D35C     		ldrb	r3, [r2, r3]	@ zero_extendqisi2
 12916 48c6 1846     		mov	r0, r3
 12917 48c8 FFF7FEFF 		bl	PC_PutChar
2669:.\main.c      ****                 for(x=0;x<=20;x++){
 12918              		.loc 1 2669 0 discriminator 3
 12919 48cc 97F82F30 		ldrb	r3, [r7, #47]	@ zero_extendqisi2
 12920 48d0 0133     		adds	r3, r3, #1
 12921 48d2 87F82F30 		strb	r3, [r7, #47]
 12922              	.L632:
2669:.\main.c      ****                 for(x=0;x<=20;x++){
 12923              		.loc 1 2669 0 is_stmt 0 discriminator 1
 12924 48d6 97F82F30 		ldrb	r3, [r7, #47]	@ zero_extendqisi2
 12925 48da 142B     		cmp	r3, #20
 12926 48dc EFD9     		bls	.L633
2671:.\main.c      ****     			}
2672:.\main.c      ****                 set_imagen(1,0);	
 12927              		.loc 1 2672 0 is_stmt 1
 12928 48de 0120     		movs	r0, #1
 12929 48e0 0021     		movs	r1, #0
 12930 48e2 FFF7FEFF 		bl	set_imagen
2673:.\main.c      ****     	        flujo_LCD1 = 0;    
 12931              		.loc 1 2673 0
 12932 48e6 434B     		ldr	r3, .L709
 12933 48e8 0022     		movs	r2, #0
ARM GAS  C:\Users\RECEPC~1\AppData\Local\Temp\ccU7e2eq.s 			page 281


 12934 48ea 1A70     		strb	r2, [r3]
2674:.\main.c      ****     			lado1.estado=libre;            
 12935              		.loc 1 2674 0
 12936 48ec 434B     		ldr	r3, .L709+8
 12937 48ee 0122     		movs	r2, #1
 12938 48f0 5A70     		strb	r2, [r3, #1]
 12939              	.L627:
2675:.\main.c      ****             }
2676:.\main.c      ****             if(seleccion_pos == 2){
 12940              		.loc 1 2676 0
 12941 48f2 444B     		ldr	r3, .L709+16
 12942 48f4 1B78     		ldrb	r3, [r3]
 12943 48f6 DBB2     		uxtb	r3, r3
 12944 48f8 022B     		cmp	r3, #2
 12945 48fa 66D1     		bne	.L634
2677:.\main.c      **** 			    for(x=0;x<=15;x++){						//Serial				
 12946              		.loc 1 2677 0
 12947 48fc 0023     		movs	r3, #0
 12948 48fe 87F82F30 		strb	r3, [r7, #47]
 12949 4902 3AE0     		b	.L635
 12950              	.L638:
2678:.\main.c      **** 				    y=(rventa2.id[x/2]>>4)&0x0F;
 12951              		.loc 1 2678 0
 12952 4904 97F82F30 		ldrb	r3, [r7, #47]	@ zero_extendqisi2
 12953 4908 5B08     		lsrs	r3, r3, #1
 12954 490a DBB2     		uxtb	r3, r3
 12955 490c 1A46     		mov	r2, r3
 12956 490e 3F4B     		ldr	r3, .L709+24
 12957 4910 1344     		add	r3, r3, r2
 12958 4912 93F82330 		ldrb	r3, [r3, #35]	@ zero_extendqisi2
 12959 4916 1B09     		lsrs	r3, r3, #4
 12960 4918 87F82E30 		strb	r3, [r7, #46]
2679:.\main.c      **** 				    if((x%2)==0){
 12961              		.loc 1 2679 0
 12962 491c 97F82F30 		ldrb	r3, [r7, #47]
 12963 4920 03F00103 		and	r3, r3, #1
 12964 4924 DBB2     		uxtb	r3, r3
 12965 4926 002B     		cmp	r3, #0
 12966 4928 0CD1     		bne	.L636
2680:.\main.c      **** 					    y=rventa2.id[x/2]&0x0F;
 12967              		.loc 1 2680 0
 12968 492a 97F82F30 		ldrb	r3, [r7, #47]	@ zero_extendqisi2
 12969 492e 5B08     		lsrs	r3, r3, #1
 12970 4930 DBB2     		uxtb	r3, r3
 12971 4932 1A46     		mov	r2, r3
 12972 4934 354B     		ldr	r3, .L709+24
 12973 4936 1344     		add	r3, r3, r2
 12974 4938 93F82330 		ldrb	r3, [r3, #35]	@ zero_extendqisi2
 12975 493c 03F00F03 		and	r3, r3, #15
 12976 4940 87F82E30 		strb	r3, [r7, #46]
 12977              	.L636:
2681:.\main.c      **** 				    }
2682:.\main.c      **** 				    rf_mod[x+4] = y+48;
 12978              		.loc 1 2682 0
 12979 4944 97F82F30 		ldrb	r3, [r7, #47]	@ zero_extendqisi2
 12980 4948 0433     		adds	r3, r3, #4
 12981 494a 97F82E20 		ldrb	r2, [r7, #46]
ARM GAS  C:\Users\RECEPC~1\AppData\Local\Temp\ccU7e2eq.s 			page 282


 12982 494e 3032     		adds	r2, r2, #48
 12983 4950 D1B2     		uxtb	r1, r2
 12984 4952 2B4A     		ldr	r2, .L709+12
 12985 4954 D154     		strb	r1, [r2, r3]
2683:.\main.c      **** 				    if(y>9){
 12986              		.loc 1 2683 0
 12987 4956 97F82E30 		ldrb	r3, [r7, #46]	@ zero_extendqisi2
 12988 495a 092B     		cmp	r3, #9
 12989 495c 08D9     		bls	.L637
2684:.\main.c      **** 					    rf_mod[x+4] = y+55;
 12990              		.loc 1 2684 0
 12991 495e 97F82F30 		ldrb	r3, [r7, #47]	@ zero_extendqisi2
 12992 4962 0433     		adds	r3, r3, #4
 12993 4964 97F82E20 		ldrb	r2, [r7, #46]
 12994 4968 3732     		adds	r2, r2, #55
 12995 496a D1B2     		uxtb	r1, r2
 12996 496c 244A     		ldr	r2, .L709+12
 12997 496e D154     		strb	r1, [r2, r3]
 12998              	.L637:
2677:.\main.c      **** 				    y=(rventa2.id[x/2]>>4)&0x0F;
 12999              		.loc 1 2677 0 discriminator 2
 13000 4970 97F82F30 		ldrb	r3, [r7, #47]	@ zero_extendqisi2
 13001 4974 0133     		adds	r3, r3, #1
 13002 4976 87F82F30 		strb	r3, [r7, #47]
 13003              	.L635:
2677:.\main.c      **** 				    y=(rventa2.id[x/2]>>4)&0x0F;
 13004              		.loc 1 2677 0 is_stmt 0 discriminator 1
 13005 497a 97F82F30 		ldrb	r3, [r7, #47]	@ zero_extendqisi2
 13006 497e 0F2B     		cmp	r3, #15
 13007 4980 C0D9     		bls	.L638
2685:.\main.c      **** 				    }
2686:.\main.c      **** 			    }            
2687:.\main.c      ****     			rf_mod[20]='*';					
 13008              		.loc 1 2687 0 is_stmt 1
 13009 4982 1F4B     		ldr	r3, .L709+12
 13010 4984 2A22     		movs	r2, #42
 13011 4986 1A75     		strb	r2, [r3, #20]
2688:.\main.c      ****     			PC_ClearRxBuffer();
 13012              		.loc 1 2688 0
 13013 4988 FFF7FEFF 		bl	PC_ClearRxBuffer
2689:.\main.c      ****                 for(x=0;x<=20;x++){
 13014              		.loc 1 2689 0
 13015 498c 0023     		movs	r3, #0
 13016 498e 87F82F30 		strb	r3, [r7, #47]
 13017 4992 0BE0     		b	.L639
 13018              	.L640:
2690:.\main.c      ****     			    PC_PutChar(rf_mod[x]);
 13019              		.loc 1 2690 0 discriminator 3
 13020 4994 97F82F30 		ldrb	r3, [r7, #47]	@ zero_extendqisi2
 13021 4998 194A     		ldr	r2, .L709+12
 13022 499a D35C     		ldrb	r3, [r2, r3]	@ zero_extendqisi2
 13023 499c 1846     		mov	r0, r3
 13024 499e FFF7FEFF 		bl	PC_PutChar
2689:.\main.c      ****                 for(x=0;x<=20;x++){
 13025              		.loc 1 2689 0 discriminator 3
 13026 49a2 97F82F30 		ldrb	r3, [r7, #47]	@ zero_extendqisi2
 13027 49a6 0133     		adds	r3, r3, #1
ARM GAS  C:\Users\RECEPC~1\AppData\Local\Temp\ccU7e2eq.s 			page 283


 13028 49a8 87F82F30 		strb	r3, [r7, #47]
 13029              	.L639:
2689:.\main.c      ****                 for(x=0;x<=20;x++){
 13030              		.loc 1 2689 0 is_stmt 0 discriminator 1
 13031 49ac 97F82F30 		ldrb	r3, [r7, #47]	@ zero_extendqisi2
 13032 49b0 142B     		cmp	r3, #20
 13033 49b2 EFD9     		bls	.L640
2691:.\main.c      ****     			}
2692:.\main.c      ****                 set_imagen(1,0);	
 13034              		.loc 1 2692 0 is_stmt 1
 13035 49b4 0120     		movs	r0, #1
 13036 49b6 0021     		movs	r1, #0
 13037 49b8 FFF7FEFF 		bl	set_imagen
2693:.\main.c      ****     	        flujo_LCD1 = 0;    
 13038              		.loc 1 2693 0
 13039 49bc 0D4B     		ldr	r3, .L709
 13040 49be 0022     		movs	r2, #0
 13041 49c0 1A70     		strb	r2, [r3]
2694:.\main.c      ****     			lado2.estado=libre;            
 13042              		.loc 1 2694 0
 13043 49c2 134B     		ldr	r3, .L709+28
 13044 49c4 0122     		movs	r2, #1
 13045 49c6 5A70     		strb	r2, [r3, #1]
2695:.\main.c      ****             }
2696:.\main.c      **** 		break;    
 13046              		.loc 1 2696 0
 13047 49c8 10E0     		b	.L117
 13048              	.L634:
 13049              		.loc 1 2696 0 is_stmt 0 discriminator 21
 13050 49ca 0FE0     		b	.L117
 13051              	.L139:
2697:.\main.c      ****         
2698:.\main.c      ****             
2699:.\main.c      ****         case 102:
2700:.\main.c      ****             
2701:.\main.c      ****             
2702:.\main.c      ****         break;
2703:.\main.c      ****             
2704:.\main.c      ****         case 100:  
2705:.\main.c      ****          if(count_protector>=4){
 13052              		.loc 1 2705 0 is_stmt 1
 13053 49cc 114B     		ldr	r3, .L709+32
 13054 49ce 1B78     		ldrb	r3, [r3]
 13055 49d0 DBB2     		uxtb	r3, r3
 13056 49d2 032B     		cmp	r3, #3
 13057 49d4 09D9     		bls	.L641
2706:.\main.c      ****             flujo_LCD1=0;
 13058              		.loc 1 2706 0
 13059 49d6 074B     		ldr	r3, .L709
 13060 49d8 0022     		movs	r2, #0
 13061 49da 1A70     		strb	r2, [r3]
2707:.\main.c      ****             isr_3_Stop(); 
 13062              		.loc 1 2707 0
 13063 49dc FFF7FEFF 		bl	isr_3_Stop
2708:.\main.c      ****             Timer_Animacion_Stop(); 
 13064              		.loc 1 2708 0
 13065 49e0 FFF7FEFF 		bl	Timer_Animacion_Stop
ARM GAS  C:\Users\RECEPC~1\AppData\Local\Temp\ccU7e2eq.s 			page 284


2709:.\main.c      ****             count_protector=0;
 13066              		.loc 1 2709 0
 13067 49e4 0B4B     		ldr	r3, .L709+32
 13068 49e6 0022     		movs	r2, #0
 13069 49e8 1A70     		strb	r2, [r3]
 13070              	.L641:
2710:.\main.c      ****          }            
2711:.\main.c      ****         break;
 13071              		.loc 1 2711 0 discriminator 23
 13072 49ea 00BF     		nop
 13073              	.L117:
2712:.\main.c      ****             
2713:.\main.c      ****             
2714:.\main.c      ****             
2715:.\main.c      ****     }
2716:.\main.c      **** }
 13074              		.loc 1 2716 0
 13075 49ec 3037     		adds	r7, r7, #48
 13076              		.cfi_def_cfa_offset 16
 13077 49ee BD46     		mov	sp, r7
 13078              		.cfi_def_cfa_register 13
 13079              		@ sp needed
 13080 49f0 B0BD     		pop	{r4, r5, r7, pc}
 13081              	.L710:
 13082 49f2 00BF     		.align	2
 13083              	.L709:
 13084 49f4 00000000 		.word	flujo_LCD1
 13085 49f8 00000000 		.word	LCD_1_rxBuffer
 13086 49fc 00000000 		.word	lado1
 13087 4a00 00000000 		.word	rf_mod
 13088 4a04 00000000 		.word	seleccion_pos
 13089 4a08 00000000 		.word	rventa1
 13090 4a0c 00000000 		.word	rventa2
 13091 4a10 00000000 		.word	lado2
 13092 4a14 00000000 		.word	count_protector
 13093              		.cfi_endproc
 13094              	.LFE69:
 13095              		.size	polling_LCD1, .-polling_LCD1
 13096              		.section	.text.polling_LCD2,"ax",%progbits
 13097              		.align	2
 13098              		.global	polling_LCD2
 13099              		.thumb
 13100              		.thumb_func
 13101              		.type	polling_LCD2, %function
 13102              	polling_LCD2:
 13103              	.LFB70:
2717:.\main.c      **** 
2718:.\main.c      **** 
2719:.\main.c      **** /*
2720:.\main.c      **** ***************************************************************************************************
2721:.\main.c      **** *                                         void polling_LCD2(void)
2722:.\main.c      **** *
2723:.\main.c      **** * Description : 
2724:.\main.c      **** *               
2725:.\main.c      **** *
2726:.\main.c      **** * Argument(s) : none
2727:.\main.c      **** *
ARM GAS  C:\Users\RECEPC~1\AppData\Local\Temp\ccU7e2eq.s 			page 285


2728:.\main.c      **** * Return(s)   : none
2729:.\main.c      **** *
2730:.\main.c      **** * Caller(s)   : 
2731:.\main.c      **** *
2732:.\main.c      **** * Note(s)     : none.
2733:.\main.c      **** ***************************************************************************************************
2734:.\main.c      **** */
2735:.\main.c      **** 
2736:.\main.c      **** void polling_LCD2(void){ 
 13104              		.loc 1 2736 0
 13105              		.cfi_startproc
 13106              		@ args = 0, pretend = 0, frame = 0
 13107              		@ frame_needed = 1, uses_anonymous_args = 0
 13108              		@ link register save eliminated.
 13109 0000 80B4     		push	{r7}
 13110              		.cfi_def_cfa_offset 4
 13111              		.cfi_offset 7, -4
 13112 0002 00AF     		add	r7, sp, #0
 13113              		.cfi_def_cfa_register 7
2737:.\main.c      ****     
2738:.\main.c      ****     
2739:.\main.c      **** }
 13114              		.loc 1 2739 0
 13115 0004 BD46     		mov	sp, r7
 13116              		.cfi_def_cfa_register 13
 13117              		@ sp needed
 13118 0006 5DF8047B 		ldr	r7, [sp], #4
 13119              		.cfi_restore 7
 13120              		.cfi_def_cfa_offset 0
 13121 000a 7047     		bx	lr
 13122              		.cfi_endproc
 13123              	.LFE70:
 13124              		.size	polling_LCD2, .-polling_LCD2
 13125              		.section	.text.polling_wd,"ax",%progbits
 13126              		.align	2
 13127              		.global	polling_wd
 13128              		.thumb
 13129              		.thumb_func
 13130              		.type	polling_wd, %function
 13131              	polling_wd:
 13132              	.LFB71:
2740:.\main.c      **** 
2741:.\main.c      **** /*
2742:.\main.c      **** ***************************************************************************************************
2743:.\main.c      **** *                                        void polling_wd(void)
2744:.\main.c      **** *
2745:.\main.c      **** * Description : 
2746:.\main.c      **** *               
2747:.\main.c      **** *
2748:.\main.c      **** * Argument(s) : none
2749:.\main.c      **** *
2750:.\main.c      **** * Return(s)   : none
2751:.\main.c      **** *
2752:.\main.c      **** * Caller(s)   : 
2753:.\main.c      **** *
2754:.\main.c      **** * Note(s)     : none.
2755:.\main.c      **** ***************************************************************************************************
ARM GAS  C:\Users\RECEPC~1\AppData\Local\Temp\ccU7e2eq.s 			page 286


2756:.\main.c      **** */
2757:.\main.c      **** void polling_wd(void){
 13133              		.loc 1 2757 0
 13134              		.cfi_startproc
 13135              		@ args = 0, pretend = 0, frame = 0
 13136              		@ frame_needed = 1, uses_anonymous_args = 0
 13137              		@ link register save eliminated.
 13138 0000 80B4     		push	{r7}
 13139              		.cfi_def_cfa_offset 4
 13140              		.cfi_offset 7, -4
 13141 0002 00AF     		add	r7, sp, #0
 13142              		.cfi_def_cfa_register 7
2758:.\main.c      **** 
2759:.\main.c      **** }
 13143              		.loc 1 2759 0
 13144 0004 BD46     		mov	sp, r7
 13145              		.cfi_def_cfa_register 13
 13146              		@ sp needed
 13147 0006 5DF8047B 		ldr	r7, [sp], #4
 13148              		.cfi_restore 7
 13149              		.cfi_def_cfa_offset 0
 13150 000a 7047     		bx	lr
 13151              		.cfi_endproc
 13152              	.LFE71:
 13153              		.size	polling_wd, .-polling_wd
 13154              		.section	.text.animacion,"ax",%progbits
 13155              		.align	2
 13156              		.global	animacion
 13157              		.thumb
 13158              		.thumb_func
 13159              		.type	animacion, %function
 13160              	animacion:
 13161              	.LFB72:
2760:.\main.c      **** 
2761:.\main.c      **** /*
2762:.\main.c      **** ***************************************************************************************************
2763:.\main.c      **** *                                         CY_ISR(animacion)
2764:.\main.c      **** *
2765:.\main.c      **** * Description : 
2766:.\main.c      **** *               
2767:.\main.c      **** *
2768:.\main.c      **** * Argument(s) : none
2769:.\main.c      **** *
2770:.\main.c      **** * Return(s)   : none
2771:.\main.c      **** *
2772:.\main.c      **** * Caller(s)   : 
2773:.\main.c      **** *
2774:.\main.c      **** * Note(s)     : none.
2775:.\main.c      **** ***************************************************************************************************
2776:.\main.c      **** */
2777:.\main.c      **** CY_ISR(animacion){
 13162              		.loc 1 2777 0
 13163              		.cfi_startproc
 13164              		@ args = 0, pretend = 0, frame = 0
 13165              		@ frame_needed = 1, uses_anonymous_args = 0
 13166 0000 80B5     		push	{r7, lr}
 13167              		.cfi_def_cfa_offset 8
ARM GAS  C:\Users\RECEPC~1\AppData\Local\Temp\ccU7e2eq.s 			page 287


 13168              		.cfi_offset 7, -8
 13169              		.cfi_offset 14, -4
 13170 0002 00AF     		add	r7, sp, #0
 13171              		.cfi_def_cfa_register 7
2778:.\main.c      ****     Timer_Animacion_ReadStatusRegister();
 13172              		.loc 1 2778 0
 13173 0004 FFF7FEFF 		bl	Timer_Animacion_ReadStatusRegister
2779:.\main.c      ****     if(flujo_LCD1==1){
 13174              		.loc 1 2779 0
 13175 0008 184B     		ldr	r3, .L718
 13176 000a 1B78     		ldrb	r3, [r3]
 13177 000c DBB2     		uxtb	r3, r3
 13178 000e 012B     		cmp	r3, #1
 13179 0010 24D1     		bne	.L714
2780:.\main.c      ****         if(count_protector<=6){
 13180              		.loc 1 2780 0
 13181 0012 174B     		ldr	r3, .L718+4
 13182 0014 1B78     		ldrb	r3, [r3]
 13183 0016 DBB2     		uxtb	r3, r3
 13184 0018 062B     		cmp	r3, #6
 13185 001a 11D8     		bhi	.L715
2781:.\main.c      ****             count_protector++;
 13186              		.loc 1 2781 0
 13187 001c 144B     		ldr	r3, .L718+4
 13188 001e 1B78     		ldrb	r3, [r3]
 13189 0020 DBB2     		uxtb	r3, r3
 13190 0022 0133     		adds	r3, r3, #1
 13191 0024 DAB2     		uxtb	r2, r3
 13192 0026 124B     		ldr	r3, .L718+4
 13193 0028 1A70     		strb	r2, [r3]
2782:.\main.c      ****             set_imagen(1,(iprotector5+count_protector));  
 13194              		.loc 1 2782 0
 13195 002a 114B     		ldr	r3, .L718+4
 13196 002c 1B78     		ldrb	r3, [r3]
 13197 002e DBB2     		uxtb	r3, r3
 13198 0030 9BB2     		uxth	r3, r3
 13199 0032 1433     		adds	r3, r3, #20
 13200 0034 9BB2     		uxth	r3, r3
 13201 0036 0120     		movs	r0, #1
 13202 0038 1946     		mov	r1, r3
 13203 003a FFF7FEFF 		bl	set_imagen
 13204 003e 14E0     		b	.L713
 13205              	.L715:
2783:.\main.c      ****         }
2784:.\main.c      ****         else{
2785:.\main.c      ****            count_protector=0; 
 13206              		.loc 1 2785 0
 13207 0040 0B4B     		ldr	r3, .L718+4
 13208 0042 0022     		movs	r2, #0
 13209 0044 1A70     		strb	r2, [r3]
2786:.\main.c      ****            set_imagen(1,(iprotector5+count_protector));  
 13210              		.loc 1 2786 0
 13211 0046 0A4B     		ldr	r3, .L718+4
 13212 0048 1B78     		ldrb	r3, [r3]
 13213 004a DBB2     		uxtb	r3, r3
 13214 004c 9BB2     		uxth	r3, r3
 13215 004e 1433     		adds	r3, r3, #20
ARM GAS  C:\Users\RECEPC~1\AppData\Local\Temp\ccU7e2eq.s 			page 288


 13216 0050 9BB2     		uxth	r3, r3
 13217 0052 0120     		movs	r0, #1
 13218 0054 1946     		mov	r1, r3
 13219 0056 FFF7FEFF 		bl	set_imagen
 13220 005a 06E0     		b	.L713
 13221              	.L714:
2787:.\main.c      ****         }
2788:.\main.c      ****     }
2789:.\main.c      ****     else{
2790:.\main.c      ****         count_protector++;
 13222              		.loc 1 2790 0
 13223 005c 044B     		ldr	r3, .L718+4
 13224 005e 1B78     		ldrb	r3, [r3]
 13225 0060 DBB2     		uxtb	r3, r3
 13226 0062 0133     		adds	r3, r3, #1
 13227 0064 DAB2     		uxtb	r2, r3
 13228 0066 024B     		ldr	r3, .L718+4
 13229 0068 1A70     		strb	r2, [r3]
 13230              	.L713:
2791:.\main.c      ****     }
2792:.\main.c      **** }
 13231              		.loc 1 2792 0
 13232 006a 80BD     		pop	{r7, pc}
 13233              	.L719:
 13234              		.align	2
 13235              	.L718:
 13236 006c 00000000 		.word	flujo_LCD1
 13237 0070 00000000 		.word	count_protector
 13238              		.cfi_endproc
 13239              	.LFE72:
 13240              		.size	animacion, .-animacion
 13241              		.section	.text.animacion2,"ax",%progbits
 13242              		.align	2
 13243              		.global	animacion2
 13244              		.thumb
 13245              		.thumb_func
 13246              		.type	animacion2, %function
 13247              	animacion2:
 13248              	.LFB73:
2793:.\main.c      **** 
2794:.\main.c      **** /*
2795:.\main.c      **** ***************************************************************************************************
2796:.\main.c      **** *                                         CY_ISR(animacion)
2797:.\main.c      **** *
2798:.\main.c      **** * Description : 
2799:.\main.c      **** *               
2800:.\main.c      **** *
2801:.\main.c      **** * Argument(s) : none
2802:.\main.c      **** *
2803:.\main.c      **** * Return(s)   : none
2804:.\main.c      **** *
2805:.\main.c      **** * Caller(s)   : 
2806:.\main.c      **** *
2807:.\main.c      **** * Note(s)     : none.
2808:.\main.c      **** ***************************************************************************************************
2809:.\main.c      **** */
2810:.\main.c      **** CY_ISR(animacion2){
ARM GAS  C:\Users\RECEPC~1\AppData\Local\Temp\ccU7e2eq.s 			page 289


 13249              		.loc 1 2810 0
 13250              		.cfi_startproc
 13251              		@ args = 0, pretend = 0, frame = 0
 13252              		@ frame_needed = 1, uses_anonymous_args = 0
 13253 0000 80B5     		push	{r7, lr}
 13254              		.cfi_def_cfa_offset 8
 13255              		.cfi_offset 7, -8
 13256              		.cfi_offset 14, -4
 13257 0002 00AF     		add	r7, sp, #0
 13258              		.cfi_def_cfa_register 7
2811:.\main.c      ****     Timer_Animacion2_ReadStatusRegister();
 13259              		.loc 1 2811 0
 13260 0004 FFF7FEFF 		bl	Timer_Animacion2_ReadStatusRegister
2812:.\main.c      ****     if(flujo_LCD2==1){
 13261              		.loc 1 2812 0
 13262 0008 184B     		ldr	r3, .L725
 13263 000a 1B78     		ldrb	r3, [r3]
 13264 000c DBB2     		uxtb	r3, r3
 13265 000e 012B     		cmp	r3, #1
 13266 0010 24D1     		bne	.L721
2813:.\main.c      ****         if(count_protector2<=6){
 13267              		.loc 1 2813 0
 13268 0012 174B     		ldr	r3, .L725+4
 13269 0014 1B78     		ldrb	r3, [r3]
 13270 0016 DBB2     		uxtb	r3, r3
 13271 0018 062B     		cmp	r3, #6
 13272 001a 11D8     		bhi	.L722
2814:.\main.c      ****             count_protector2++;
 13273              		.loc 1 2814 0
 13274 001c 144B     		ldr	r3, .L725+4
 13275 001e 1B78     		ldrb	r3, [r3]
 13276 0020 DBB2     		uxtb	r3, r3
 13277 0022 0133     		adds	r3, r3, #1
 13278 0024 DAB2     		uxtb	r2, r3
 13279 0026 124B     		ldr	r3, .L725+4
 13280 0028 1A70     		strb	r2, [r3]
2815:.\main.c      ****             set_imagen(2,(iprotector5+count_protector2));  
 13281              		.loc 1 2815 0
 13282 002a 114B     		ldr	r3, .L725+4
 13283 002c 1B78     		ldrb	r3, [r3]
 13284 002e DBB2     		uxtb	r3, r3
 13285 0030 9BB2     		uxth	r3, r3
 13286 0032 1433     		adds	r3, r3, #20
 13287 0034 9BB2     		uxth	r3, r3
 13288 0036 0220     		movs	r0, #2
 13289 0038 1946     		mov	r1, r3
 13290 003a FFF7FEFF 		bl	set_imagen
 13291 003e 14E0     		b	.L720
 13292              	.L722:
2816:.\main.c      ****         }
2817:.\main.c      ****         else{
2818:.\main.c      ****            count_protector2=0; 
 13293              		.loc 1 2818 0
 13294 0040 0B4B     		ldr	r3, .L725+4
 13295 0042 0022     		movs	r2, #0
 13296 0044 1A70     		strb	r2, [r3]
2819:.\main.c      ****            set_imagen(2,(iprotector5+count_protector2));  
ARM GAS  C:\Users\RECEPC~1\AppData\Local\Temp\ccU7e2eq.s 			page 290


 13297              		.loc 1 2819 0
 13298 0046 0A4B     		ldr	r3, .L725+4
 13299 0048 1B78     		ldrb	r3, [r3]
 13300 004a DBB2     		uxtb	r3, r3
 13301 004c 9BB2     		uxth	r3, r3
 13302 004e 1433     		adds	r3, r3, #20
 13303 0050 9BB2     		uxth	r3, r3
 13304 0052 0220     		movs	r0, #2
 13305 0054 1946     		mov	r1, r3
 13306 0056 FFF7FEFF 		bl	set_imagen
 13307 005a 06E0     		b	.L720
 13308              	.L721:
2820:.\main.c      ****         }
2821:.\main.c      ****     }
2822:.\main.c      ****     else{
2823:.\main.c      ****         count_protector2++;
 13309              		.loc 1 2823 0
 13310 005c 044B     		ldr	r3, .L725+4
 13311 005e 1B78     		ldrb	r3, [r3]
 13312 0060 DBB2     		uxtb	r3, r3
 13313 0062 0133     		adds	r3, r3, #1
 13314 0064 DAB2     		uxtb	r2, r3
 13315 0066 024B     		ldr	r3, .L725+4
 13316 0068 1A70     		strb	r2, [r3]
 13317              	.L720:
2824:.\main.c      ****     }
2825:.\main.c      **** }
 13318              		.loc 1 2825 0
 13319 006a 80BD     		pop	{r7, pc}
 13320              	.L726:
 13321              		.align	2
 13322              	.L725:
 13323 006c 00000000 		.word	flujo_LCD2
 13324 0070 00000000 		.word	count_protector2
 13325              		.cfi_endproc
 13326              	.LFE73:
 13327              		.size	animacion2, .-animacion2
 13328              		.section	.text.modo_mux,"ax",%progbits
 13329              		.align	2
 13330              		.global	modo_mux
 13331              		.thumb
 13332              		.thumb_func
 13333              		.type	modo_mux, %function
 13334              	modo_mux:
 13335              	.LFB74:
2826:.\main.c      **** 
2827:.\main.c      **** /*
2828:.\main.c      **** ***************************************************************************************************
2829:.\main.c      **** *                                        CY_ISR(modo_mux)
2830:.\main.c      **** *
2831:.\main.c      **** * Description : 
2832:.\main.c      **** *               
2833:.\main.c      **** *
2834:.\main.c      **** * Argument(s) : none
2835:.\main.c      **** *
2836:.\main.c      **** * Return(s)   : none
2837:.\main.c      **** *
ARM GAS  C:\Users\RECEPC~1\AppData\Local\Temp\ccU7e2eq.s 			page 291


2838:.\main.c      **** * Caller(s)   : 
2839:.\main.c      **** *
2840:.\main.c      **** * Note(s)     : none.
2841:.\main.c      **** ***************************************************************************************************
2842:.\main.c      **** */
2843:.\main.c      **** CY_ISR(modo_mux){
 13336              		.loc 1 2843 0
 13337              		.cfi_startproc
 13338              		@ args = 0, pretend = 0, frame = 0
 13339              		@ frame_needed = 1, uses_anonymous_args = 0
 13340 0000 80B5     		push	{r7, lr}
 13341              		.cfi_def_cfa_offset 8
 13342              		.cfi_offset 7, -8
 13343              		.cfi_offset 14, -4
 13344 0002 00AF     		add	r7, sp, #0
 13345              		.cfi_def_cfa_register 7
2844:.\main.c      **** 	Timer_Modo_ReadStatusRegister();
 13346              		.loc 1 2844 0
 13347 0004 FFF7FEFF 		bl	Timer_Modo_ReadStatusRegister
2845:.\main.c      **** 	state_rf++;
 13348              		.loc 1 2845 0
 13349 0008 0F4B     		ldr	r3, .L730
 13350 000a 1B78     		ldrb	r3, [r3]	@ zero_extendqisi2
 13351 000c 0133     		adds	r3, r3, #1
 13352 000e DAB2     		uxtb	r2, r3
 13353 0010 0D4B     		ldr	r3, .L730
 13354 0012 1A70     		strb	r2, [r3]
2846:.\main.c      **** 	if(state_rf==15){
 13355              		.loc 1 2846 0
 13356 0014 0C4B     		ldr	r3, .L730
 13357 0016 1B78     		ldrb	r3, [r3]	@ zero_extendqisi2
 13358 0018 0F2B     		cmp	r3, #15
 13359 001a 14D1     		bne	.L727
2847:.\main.c      **** 		if((rventa1.autorizado!=100)&&(rventa2.autorizado!=100)){
 13360              		.loc 1 2847 0
 13361 001c 0B4B     		ldr	r3, .L730+4
 13362 001e 93F87030 		ldrb	r3, [r3, #112]	@ zero_extendqisi2
 13363 0022 642B     		cmp	r3, #100
 13364 0024 0CD0     		beq	.L729
 13365              		.loc 1 2847 0 is_stmt 0 discriminator 1
 13366 0026 0A4B     		ldr	r3, .L730+8
 13367 0028 93F87030 		ldrb	r3, [r3, #112]	@ zero_extendqisi2
 13368 002c 642B     		cmp	r3, #100
 13369 002e 07D0     		beq	.L729
2848:.\main.c      **** 			rventa1.autorizado=0;
 13370              		.loc 1 2848 0 is_stmt 1
 13371 0030 064B     		ldr	r3, .L730+4
 13372 0032 0022     		movs	r2, #0
 13373 0034 83F87020 		strb	r2, [r3, #112]
2849:.\main.c      **** 			rventa2.autorizado=0;
 13374              		.loc 1 2849 0
 13375 0038 054B     		ldr	r3, .L730+8
 13376 003a 0022     		movs	r2, #0
 13377 003c 83F87020 		strb	r2, [r3, #112]
 13378              	.L729:
2850:.\main.c      **** 		}	
2851:.\main.c      **** 		state_rf=0;
ARM GAS  C:\Users\RECEPC~1\AppData\Local\Temp\ccU7e2eq.s 			page 292


 13379              		.loc 1 2851 0
 13380 0040 014B     		ldr	r3, .L730
 13381 0042 0022     		movs	r2, #0
 13382 0044 1A70     		strb	r2, [r3]
 13383              	.L727:
2852:.\main.c      **** 	}
2853:.\main.c      **** }
 13384              		.loc 1 2853 0
 13385 0046 80BD     		pop	{r7, pc}
 13386              	.L731:
 13387              		.align	2
 13388              	.L730:
 13389 0048 00000000 		.word	state_rf
 13390 004c 00000000 		.word	rventa1
 13391 0050 00000000 		.word	rventa2
 13392              		.cfi_endproc
 13393              	.LFE74:
 13394              		.size	modo_mux, .-modo_mux
 13395              		.section	.text.insert_ppuInit,"ax",%progbits
 13396              		.align	2
 13397              		.global	insert_ppuInit
 13398              		.thumb
 13399              		.thumb_func
 13400              		.type	insert_ppuInit, %function
 13401              	insert_ppuInit:
 13402              	.LFB75:
2854:.\main.c      **** 
2855:.\main.c      **** /*
2856:.\main.c      **** ***************************************************************************************************
2857:.\main.c      **** *                                        insert_ppuInit(modo_init)
2858:.\main.c      **** *
2859:.\main.c      **** * Description : 
2860:.\main.c      **** *               
2861:.\main.c      **** *
2862:.\main.c      **** * Argument(s) : none
2863:.\main.c      **** *
2864:.\main.c      **** * Return(s)   : none
2865:.\main.c      **** *
2866:.\main.c      **** * Caller(s)   : 
2867:.\main.c      **** *
2868:.\main.c      **** * Note(s)     : none.
2869:.\main.c      **** ***************************************************************************************************
2870:.\main.c      **** */
2871:.\main.c      **** void insert_ppuInit(void){
 13403              		.loc 1 2871 0
 13404              		.cfi_startproc
 13405              		@ args = 0, pretend = 0, frame = 8
 13406              		@ frame_needed = 1, uses_anonymous_args = 0
 13407 0000 80B5     		push	{r7, lr}
 13408              		.cfi_def_cfa_offset 8
 13409              		.cfi_offset 7, -8
 13410              		.cfi_offset 14, -4
 13411 0002 82B0     		sub	sp, sp, #8
 13412              		.cfi_def_cfa_offset 16
 13413 0004 00AF     		add	r7, sp, #0
 13414              		.cfi_def_cfa_register 7
2872:.\main.c      ****     
ARM GAS  C:\Users\RECEPC~1\AppData\Local\Temp\ccU7e2eq.s 			page 293


2873:.\main.c      ****     //uint8 precio_mod[5];    
2874:.\main.c      ****     //int x;    
2875:.\main.c      ****     
2876:.\main.c      ****   uint8 precio_mod[5];    
2877:.\main.c      **** 	precio_mod[0]=0;	
 13415              		.loc 1 2877 0
 13416 0006 0023     		movs	r3, #0
 13417 0008 3B70     		strb	r3, [r7]
2878:.\main.c      **** 	precio_mod[1]=0;
 13418              		.loc 1 2878 0
 13419 000a 0023     		movs	r3, #0
 13420 000c 7B70     		strb	r3, [r7, #1]
2879:.\main.c      **** 	precio_mod[2]=0;
 13421              		.loc 1 2879 0
 13422 000e 0023     		movs	r3, #0
 13423 0010 BB70     		strb	r3, [r7, #2]
2880:.\main.c      **** 	precio_mod[3]=2;
 13424              		.loc 1 2880 0
 13425 0012 0223     		movs	r3, #2
 13426 0014 FB70     		strb	r3, [r7, #3]
2881:.\main.c      ****     precio_mod[4]=0;
 13427              		.loc 1 2881 0
 13428 0016 0023     		movs	r3, #0
 13429 0018 3B71     		strb	r3, [r7, #4]
2882:.\main.c      ****     cambiar_precio(lado1.dir,precio_mod,1);                   
 13430              		.loc 1 2882 0
 13431 001a 064B     		ldr	r3, .L733
 13432 001c 1B78     		ldrb	r3, [r3]
 13433 001e DAB2     		uxtb	r2, r3
 13434 0020 3B46     		mov	r3, r7
 13435 0022 1046     		mov	r0, r2
 13436 0024 1946     		mov	r1, r3
 13437 0026 0122     		movs	r2, #1
 13438 0028 FFF7FEFF 		bl	cambiar_precio
2883:.\main.c      **** }
 13439              		.loc 1 2883 0
 13440 002c 0837     		adds	r7, r7, #8
 13441              		.cfi_def_cfa_offset 8
 13442 002e BD46     		mov	sp, r7
 13443              		.cfi_def_cfa_register 13
 13444              		@ sp needed
 13445 0030 80BD     		pop	{r7, pc}
 13446              	.L734:
 13447 0032 00BF     		.align	2
 13448              	.L733:
 13449 0034 00000000 		.word	lado1
 13450              		.cfi_endproc
 13451              	.LFE75:
 13452              		.size	insert_ppuInit, .-insert_ppuInit
 13453              		.section	.text.main,"ax",%progbits
 13454              		.align	2
 13455              		.global	main
 13456              		.thumb
 13457              		.thumb_func
 13458              		.type	main, %function
 13459              	main:
 13460              	.LFB76:
ARM GAS  C:\Users\RECEPC~1\AppData\Local\Temp\ccU7e2eq.s 			page 294


2884:.\main.c      **** 
2885:.\main.c      **** /*
2886:.\main.c      **** ***************************************************************************************************
2887:.\main.c      **** *                                         main( void )
2888:.\main.c      **** *
2889:.\main.c      **** * Description : 
2890:.\main.c      **** *               
2891:.\main.c      **** *
2892:.\main.c      **** * Argument(s) : none
2893:.\main.c      **** *
2894:.\main.c      **** * Return(s)   : none
2895:.\main.c      **** *
2896:.\main.c      **** * Caller(s)   : 
2897:.\main.c      **** *
2898:.\main.c      **** * Note(s)     : none.
2899:.\main.c      **** ***************************************************************************************************
2900:.\main.c      **** */
2901:.\main.c      **** int main(){ 
 13461              		.loc 1 2901 0
 13462              		.cfi_startproc
 13463              		@ args = 0, pretend = 0, frame = 0
 13464              		@ frame_needed = 1, uses_anonymous_args = 0
 13465 0000 80B5     		push	{r7, lr}
 13466              		.cfi_def_cfa_offset 8
 13467              		.cfi_offset 7, -8
 13468              		.cfi_offset 14, -4
 13469 0002 00AF     		add	r7, sp, #0
 13470              		.cfi_def_cfa_register 7
2902:.\main.c      ****     
2903:.\main.c      ****     init();
 13471              		.loc 1 2903 0
 13472 0004 FFF7FEFF 		bl	init
2904:.\main.c      ****     init_surt();    
 13473              		.loc 1 2904 0
 13474 0008 FFF7FEFF 		bl	init_surt
2905:.\main.c      ****     CyWdtStart(CYWDT_1024_TICKS,CYWDT_LPMODE_NOCHANGE);    
 13475              		.loc 1 2905 0
 13476 000c 0320     		movs	r0, #3
 13477 000e 0021     		movs	r1, #0
 13478 0010 FFF7FEFF 		bl	CyWdtStart
 13479              	.L736:
2906:.\main.c      ****     //insert_ppuInit();// 
2907:.\main.c      ****     for(;;){
2908:.\main.c      ****          //sin el sistema Mux Advance              		
2909:.\main.c      ****     		CyWdtClear();        
 13480              		.loc 1 2909 0 discriminator 1
 13481 0014 FFF7FEFF 		bl	CyWdtClear
2910:.\main.c      ****            	polling_LCD1();
 13482              		.loc 1 2910 0 discriminator 1
 13483 0018 FFF7FEFF 		bl	polling_LCD1
2911:.\main.c      ****     		CyWdtClear();              
 13484              		.loc 1 2911 0 discriminator 1
 13485 001c FFF7FEFF 		bl	CyWdtClear
2912:.\main.c      ****             polling_rf();                                 
 13486              		.loc 1 2912 0 discriminator 1
 13487 0020 FFF7FEFF 		bl	polling_rf
2913:.\main.c      ****     }
ARM GAS  C:\Users\RECEPC~1\AppData\Local\Temp\ccU7e2eq.s 			page 295


 13488              		.loc 1 2913 0 discriminator 1
 13489 0024 F6E7     		b	.L736
 13490              		.cfi_endproc
 13491              	.LFE76:
 13492              		.size	main, .-main
 13493 0026 00BF     		.text
 13494              	.Letext0:
 13495              		.file 2 "c:\\program files (x86)\\cypress\\psoc creator\\3.3\\psoc creator\\import\\gnu\\arm\\4.9.
 13496              		.file 3 "c:\\program files (x86)\\cypress\\psoc creator\\3.3\\psoc creator\\import\\gnu\\arm\\4.9.
 13497              		.file 4 "Generated_Source\\PSoC5/cytypes.h"
 13498              		.file 5 ".\\VariablesG.h"
 13499              		.file 6 "Generated_Source\\PSoC5/LCD_1.h"
 13500              		.file 7 "Generated_Source\\PSoC5/PC.h"
 13501              		.file 8 "Generated_Source\\PSoC5/core_cm3.h"
 13502              		.section	.debug_info,"",%progbits
 13503              	.Ldebug_info0:
 13504 0000 E80C0000 		.4byte	0xce8
 13505 0004 0400     		.2byte	0x4
 13506 0006 00000000 		.4byte	.Ldebug_abbrev0
 13507 000a 04       		.byte	0x4
 13508 000b 01       		.uleb128 0x1
 13509 000c 72030000 		.4byte	.LASF154
 13510 0010 01       		.byte	0x1
 13511 0011 BE060000 		.4byte	.LASF155
 13512 0015 63000000 		.4byte	.LASF156
 13513 0019 00000000 		.4byte	.Ldebug_ranges0+0
 13514 001d 00000000 		.4byte	0
 13515 0021 00000000 		.4byte	.Ldebug_line0
 13516 0025 02       		.uleb128 0x2
 13517 0026 01       		.byte	0x1
 13518 0027 06       		.byte	0x6
 13519 0028 0E060000 		.4byte	.LASF0
 13520 002c 02       		.uleb128 0x2
 13521 002d 01       		.byte	0x1
 13522 002e 08       		.byte	0x8
 13523 002f BA050000 		.4byte	.LASF1
 13524 0033 02       		.uleb128 0x2
 13525 0034 02       		.byte	0x2
 13526 0035 05       		.byte	0x5
 13527 0036 9C040000 		.4byte	.LASF2
 13528 003a 02       		.uleb128 0x2
 13529 003b 02       		.byte	0x2
 13530 003c 07       		.byte	0x7
 13531 003d 23060000 		.4byte	.LASF3
 13532 0041 03       		.uleb128 0x3
 13533 0042 D8000000 		.4byte	.LASF9
 13534 0046 02       		.byte	0x2
 13535 0047 3F       		.byte	0x3f
 13536 0048 4C000000 		.4byte	0x4c
 13537 004c 02       		.uleb128 0x2
 13538 004d 04       		.byte	0x4
 13539 004e 05       		.byte	0x5
 13540 004f B2040000 		.4byte	.LASF4
 13541 0053 02       		.uleb128 0x2
 13542 0054 04       		.byte	0x4
 13543 0055 07       		.byte	0x7
 13544 0056 65050000 		.4byte	.LASF5
ARM GAS  C:\Users\RECEPC~1\AppData\Local\Temp\ccU7e2eq.s 			page 296


 13545 005a 02       		.uleb128 0x2
 13546 005b 08       		.byte	0x8
 13547 005c 05       		.byte	0x5
 13548 005d 34030000 		.4byte	.LASF6
 13549 0061 02       		.uleb128 0x2
 13550 0062 08       		.byte	0x8
 13551 0063 07       		.byte	0x7
 13552 0064 B3010000 		.4byte	.LASF7
 13553 0068 04       		.uleb128 0x4
 13554 0069 04       		.byte	0x4
 13555 006a 05       		.byte	0x5
 13556 006b 696E7400 		.ascii	"int\000"
 13557 006f 02       		.uleb128 0x2
 13558 0070 04       		.byte	0x4
 13559 0071 07       		.byte	0x7
 13560 0072 C3000000 		.4byte	.LASF8
 13561 0076 03       		.uleb128 0x3
 13562 0077 7E050000 		.4byte	.LASF10
 13563 007b 03       		.byte	0x3
 13564 007c 2C       		.byte	0x2c
 13565 007d 41000000 		.4byte	0x41
 13566 0081 03       		.uleb128 0x3
 13567 0082 4A060000 		.4byte	.LASF11
 13568 0086 04       		.byte	0x4
 13569 0087 B4       		.byte	0xb4
 13570 0088 2C000000 		.4byte	0x2c
 13571 008c 03       		.uleb128 0x3
 13572 008d B3020000 		.4byte	.LASF12
 13573 0091 04       		.byte	0x4
 13574 0092 B5       		.byte	0xb5
 13575 0093 3A000000 		.4byte	0x3a
 13576 0097 02       		.uleb128 0x2
 13577 0098 04       		.byte	0x4
 13578 0099 04       		.byte	0x4
 13579 009a 66010000 		.4byte	.LASF13
 13580 009e 02       		.uleb128 0x2
 13581 009f 08       		.byte	0x8
 13582 00a0 04       		.byte	0x4
 13583 00a1 50060000 		.4byte	.LASF14
 13584 00a5 02       		.uleb128 0x2
 13585 00a6 01       		.byte	0x1
 13586 00a7 08       		.byte	0x8
 13587 00a8 92020000 		.4byte	.LASF15
 13588 00ac 05       		.uleb128 0x5
 13589 00ad 81000000 		.4byte	0x81
 13590 00b1 05       		.uleb128 0x5
 13591 00b2 8C000000 		.4byte	0x8c
 13592 00b6 02       		.uleb128 0x2
 13593 00b7 04       		.byte	0x4
 13594 00b8 07       		.byte	0x7
 13595 00b9 5C050000 		.4byte	.LASF16
 13596 00bd 06       		.uleb128 0x6
 13597 00be A5000000 		.4byte	0xa5
 13598 00c2 CD000000 		.4byte	0xcd
 13599 00c6 07       		.uleb128 0x7
 13600 00c7 B6000000 		.4byte	0xb6
 13601 00cb 07       		.byte	0x7
ARM GAS  C:\Users\RECEPC~1\AppData\Local\Temp\ccU7e2eq.s 			page 297


 13602 00cc 00       		.byte	0
 13603 00cd 06       		.uleb128 0x6
 13604 00ce 81000000 		.4byte	0x81
 13605 00d2 DD000000 		.4byte	0xdd
 13606 00d6 07       		.uleb128 0x7
 13607 00d7 B6000000 		.4byte	0xb6
 13608 00db 03       		.byte	0x3
 13609 00dc 00       		.byte	0
 13610 00dd 02       		.uleb128 0x2
 13611 00de 08       		.byte	0x8
 13612 00df 04       		.byte	0x4
 13613 00e0 56040000 		.4byte	.LASF17
 13614 00e4 08       		.uleb128 0x8
 13615 00e5 C8040000 		.4byte	.LASF22
 13616 00e9 5D       		.byte	0x5d
 13617 00ea 05       		.byte	0x5
 13618 00eb 5D       		.byte	0x5d
 13619 00ec 39010000 		.4byte	0x139
 13620 00f0 09       		.uleb128 0x9
 13621 00f1 64697200 		.ascii	"dir\000"
 13622 00f5 05       		.byte	0x5
 13623 00f6 5E       		.byte	0x5e
 13624 00f7 AC000000 		.4byte	0xac
 13625 00fb 00       		.byte	0
 13626 00fc 0A       		.uleb128 0xa
 13627 00fd 35040000 		.4byte	.LASF18
 13628 0101 05       		.byte	0x5
 13629 0102 5F       		.byte	0x5f
 13630 0103 AC000000 		.4byte	0xac
 13631 0107 01       		.byte	0x1
 13632 0108 0A       		.uleb128 0xa
 13633 0109 ED020000 		.4byte	.LASF19
 13634 010d 05       		.byte	0x5
 13635 010e 60       		.byte	0x60
 13636 010f 4F010000 		.4byte	0x14f
 13637 0113 02       		.byte	0x2
 13638 0114 09       		.uleb128 0x9
 13639 0115 70707500 		.ascii	"ppu\000"
 13640 0119 05       		.byte	0x5
 13641 011a 61       		.byte	0x61
 13642 011b 6A010000 		.4byte	0x16a
 13643 011f 4A       		.byte	0x4a
 13644 0120 0A       		.uleb128 0xa
 13645 0121 87060000 		.4byte	.LASF20
 13646 0125 05       		.byte	0x5
 13647 0126 62       		.byte	0x62
 13648 0127 85010000 		.4byte	0x185
 13649 012b 59       		.byte	0x59
 13650 012c 0A       		.uleb128 0xa
 13651 012d A9020000 		.4byte	.LASF21
 13652 0131 05       		.byte	0x5
 13653 0132 63       		.byte	0x63
 13654 0133 AC000000 		.4byte	0xac
 13655 0137 5C       		.byte	0x5c
 13656 0138 00       		.byte	0
 13657 0139 06       		.uleb128 0x6
 13658 013a 81000000 		.4byte	0x81
ARM GAS  C:\Users\RECEPC~1\AppData\Local\Temp\ccU7e2eq.s 			page 298


 13659 013e 4F010000 		.4byte	0x14f
 13660 0142 07       		.uleb128 0x7
 13661 0143 B6000000 		.4byte	0xb6
 13662 0147 02       		.byte	0x2
 13663 0148 07       		.uleb128 0x7
 13664 0149 B6000000 		.4byte	0xb6
 13665 014d 17       		.byte	0x17
 13666 014e 00       		.byte	0
 13667 014f 05       		.uleb128 0x5
 13668 0150 39010000 		.4byte	0x139
 13669 0154 06       		.uleb128 0x6
 13670 0155 81000000 		.4byte	0x81
 13671 0159 6A010000 		.4byte	0x16a
 13672 015d 07       		.uleb128 0x7
 13673 015e B6000000 		.4byte	0xb6
 13674 0162 02       		.byte	0x2
 13675 0163 07       		.uleb128 0x7
 13676 0164 B6000000 		.4byte	0xb6
 13677 0168 04       		.byte	0x4
 13678 0169 00       		.byte	0
 13679 016a 05       		.uleb128 0x5
 13680 016b 54010000 		.4byte	0x154
 13681 016f 06       		.uleb128 0x6
 13682 0170 81000000 		.4byte	0x81
 13683 0174 85010000 		.4byte	0x185
 13684 0178 07       		.uleb128 0x7
 13685 0179 B6000000 		.4byte	0xb6
 13686 017d 02       		.byte	0x2
 13687 017e 07       		.uleb128 0x7
 13688 017f B6000000 		.4byte	0xb6
 13689 0183 00       		.byte	0
 13690 0184 00       		.byte	0
 13691 0185 05       		.uleb128 0x5
 13692 0186 6F010000 		.4byte	0x16f
 13693 018a 08       		.uleb128 0x8
 13694 018b 1B040000 		.4byte	.LASF23
 13695 018f 76       		.byte	0x76
 13696 0190 05       		.byte	0x5
 13697 0191 76       		.byte	0x76
 13698 0192 79020000 		.4byte	0x279
 13699 0196 0A       		.uleb128 0xa
 13700 0197 26010000 		.4byte	.LASF24
 13701 019b 05       		.byte	0x5
 13702 019c 77       		.byte	0x77
 13703 019d 81000000 		.4byte	0x81
 13704 01a1 00       		.byte	0
 13705 01a2 0A       		.uleb128 0xa
 13706 01a3 87060000 		.4byte	.LASF20
 13707 01a7 05       		.byte	0x5
 13708 01a8 78       		.byte	0x78
 13709 01a9 81000000 		.4byte	0x81
 13710 01ad 01       		.byte	0x1
 13711 01ae 09       		.uleb128 0x9
 13712 01af 70707500 		.ascii	"ppu\000"
 13713 01b3 05       		.byte	0x5
 13714 01b4 79       		.byte	0x79
 13715 01b5 79020000 		.4byte	0x279
ARM GAS  C:\Users\RECEPC~1\AppData\Local\Temp\ccU7e2eq.s 			page 299


 13716 01b9 02       		.byte	0x2
 13717 01ba 0A       		.uleb128 0xa
 13718 01bb 22040000 		.4byte	.LASF25
 13719 01bf 05       		.byte	0x5
 13720 01c0 7A       		.byte	0x7a
 13721 01c1 89020000 		.4byte	0x289
 13722 01c5 07       		.byte	0x7
 13723 01c6 0A       		.uleb128 0xa
 13724 01c7 42020000 		.4byte	.LASF26
 13725 01cb 05       		.byte	0x5
 13726 01cc 7B       		.byte	0x7b
 13727 01cd 89020000 		.4byte	0x289
 13728 01d1 10       		.byte	0x10
 13729 01d2 0A       		.uleb128 0xa
 13730 01d3 48030000 		.4byte	.LASF27
 13731 01d7 05       		.byte	0x5
 13732 01d8 7C       		.byte	0x7c
 13733 01d9 81000000 		.4byte	0x81
 13734 01dd 19       		.byte	0x19
 13735 01de 0A       		.uleb128 0xa
 13736 01df 71060000 		.4byte	.LASF28
 13737 01e3 05       		.byte	0x5
 13738 01e4 7D       		.byte	0x7d
 13739 01e5 81000000 		.4byte	0x81
 13740 01e9 1A       		.byte	0x1a
 13741 01ea 0A       		.uleb128 0xa
 13742 01eb 5F010000 		.4byte	.LASF29
 13743 01ef 05       		.byte	0x5
 13744 01f0 7E       		.byte	0x7e
 13745 01f1 99020000 		.4byte	0x299
 13746 01f5 1B       		.byte	0x1b
 13747 01f6 09       		.uleb128 0x9
 13748 01f7 696400   		.ascii	"id\000"
 13749 01fa 05       		.byte	0x5
 13750 01fb 7F       		.byte	0x7f
 13751 01fc A9020000 		.4byte	0x2a9
 13752 0200 23       		.byte	0x23
 13753 0201 0A       		.uleb128 0xa
 13754 0202 DB020000 		.4byte	.LASF30
 13755 0206 05       		.byte	0x5
 13756 0207 80       		.byte	0x80
 13757 0208 A9020000 		.4byte	0x2a9
 13758 020c 33       		.byte	0x33
 13759 020d 09       		.uleb128 0x9
 13760 020e 6B6D00   		.ascii	"km\000"
 13761 0211 05       		.byte	0x5
 13762 0212 81       		.byte	0x81
 13763 0213 B9020000 		.4byte	0x2b9
 13764 0217 43       		.byte	0x43
 13765 0218 0A       		.uleb128 0xa
 13766 0219 01020000 		.4byte	.LASF31
 13767 021d 05       		.byte	0x5
 13768 021e 82       		.byte	0x82
 13769 021f 89020000 		.4byte	0x289
 13770 0223 4E       		.byte	0x4e
 13771 0224 0A       		.uleb128 0xa
 13772 0225 AA010000 		.4byte	.LASF32
ARM GAS  C:\Users\RECEPC~1\AppData\Local\Temp\ccU7e2eq.s 			page 300


 13773 0229 05       		.byte	0x5
 13774 022a 83       		.byte	0x83
 13775 022b 81000000 		.4byte	0x81
 13776 022f 57       		.byte	0x57
 13777 0230 0A       		.uleb128 0xa
 13778 0231 D0020000 		.4byte	.LASF33
 13779 0235 05       		.byte	0x5
 13780 0236 84       		.byte	0x84
 13781 0237 81000000 		.4byte	0x81
 13782 023b 58       		.byte	0x58
 13783 023c 0A       		.uleb128 0xa
 13784 023d 6B030000 		.4byte	.LASF34
 13785 0241 05       		.byte	0x5
 13786 0242 85       		.byte	0x85
 13787 0243 B9020000 		.4byte	0x2b9
 13788 0247 59       		.byte	0x59
 13789 0248 0A       		.uleb128 0xa
 13790 0249 00000000 		.4byte	.LASF35
 13791 024d 05       		.byte	0x5
 13792 024e 86       		.byte	0x86
 13793 024f B9020000 		.4byte	0x2b9
 13794 0253 64       		.byte	0x64
 13795 0254 0A       		.uleb128 0xa
 13796 0255 E1020000 		.4byte	.LASF36
 13797 0259 05       		.byte	0x5
 13798 025a 87       		.byte	0x87
 13799 025b 81000000 		.4byte	0x81
 13800 025f 6F       		.byte	0x6f
 13801 0260 0A       		.uleb128 0xa
 13802 0261 AF050000 		.4byte	.LASF37
 13803 0265 05       		.byte	0x5
 13804 0266 88       		.byte	0x88
 13805 0267 81000000 		.4byte	0x81
 13806 026b 70       		.byte	0x70
 13807 026c 0A       		.uleb128 0xa
 13808 026d 62040000 		.4byte	.LASF38
 13809 0271 05       		.byte	0x5
 13810 0272 89       		.byte	0x89
 13811 0273 79020000 		.4byte	0x279
 13812 0277 71       		.byte	0x71
 13813 0278 00       		.byte	0
 13814 0279 06       		.uleb128 0x6
 13815 027a 81000000 		.4byte	0x81
 13816 027e 89020000 		.4byte	0x289
 13817 0282 07       		.uleb128 0x7
 13818 0283 B6000000 		.4byte	0xb6
 13819 0287 04       		.byte	0x4
 13820 0288 00       		.byte	0
 13821 0289 06       		.uleb128 0x6
 13822 028a 81000000 		.4byte	0x81
 13823 028e 99020000 		.4byte	0x299
 13824 0292 07       		.uleb128 0x7
 13825 0293 B6000000 		.4byte	0xb6
 13826 0297 08       		.byte	0x8
 13827 0298 00       		.byte	0
 13828 0299 06       		.uleb128 0x6
 13829 029a 81000000 		.4byte	0x81
ARM GAS  C:\Users\RECEPC~1\AppData\Local\Temp\ccU7e2eq.s 			page 301


 13830 029e A9020000 		.4byte	0x2a9
 13831 02a2 07       		.uleb128 0x7
 13832 02a3 B6000000 		.4byte	0xb6
 13833 02a7 07       		.byte	0x7
 13834 02a8 00       		.byte	0
 13835 02a9 06       		.uleb128 0x6
 13836 02aa 81000000 		.4byte	0x81
 13837 02ae B9020000 		.4byte	0x2b9
 13838 02b2 07       		.uleb128 0x7
 13839 02b3 B6000000 		.4byte	0xb6
 13840 02b7 0F       		.byte	0xf
 13841 02b8 00       		.byte	0
 13842 02b9 06       		.uleb128 0x6
 13843 02ba 81000000 		.4byte	0x81
 13844 02be C9020000 		.4byte	0x2c9
 13845 02c2 07       		.uleb128 0x7
 13846 02c3 B6000000 		.4byte	0xb6
 13847 02c7 0A       		.byte	0xa
 13848 02c8 00       		.byte	0
 13849 02c9 0B       		.uleb128 0xb
 13850 02ca 57050000 		.4byte	.LASF44
 13851 02ce 01       		.byte	0x1
 13852 02cf 5A       		.byte	0x5a
 13853 02d0 00000000 		.4byte	.LFB63
 13854 02d4 28020000 		.4byte	.LFE63-.LFB63
 13855 02d8 01       		.uleb128 0x1
 13856 02d9 9C       		.byte	0x9c
 13857 02da EB020000 		.4byte	0x2eb
 13858 02de 0C       		.uleb128 0xc
 13859 02df 7800     		.ascii	"x\000"
 13860 02e1 01       		.byte	0x1
 13861 02e2 5C       		.byte	0x5c
 13862 02e3 81000000 		.4byte	0x81
 13863 02e7 02       		.uleb128 0x2
 13864 02e8 91       		.byte	0x91
 13865 02e9 6F       		.sleb128 -17
 13866 02ea 00       		.byte	0
 13867 02eb 0D       		.uleb128 0xd
 13868 02ec 24030000 		.4byte	.LASF157
 13869 02f0 01       		.byte	0x1
 13870 02f1 A3       		.byte	0xa3
 13871 02f2 81000000 		.4byte	0x81
 13872 02f6 00000000 		.4byte	.LFB64
 13873 02fa 84000000 		.4byte	.LFE64-.LFB64
 13874 02fe 01       		.uleb128 0x1
 13875 02ff 9C       		.byte	0x9c
 13876 0300 5A030000 		.4byte	0x35a
 13877 0304 0E       		.uleb128 0xe
 13878 0305 E7020000 		.4byte	.LASF39
 13879 0309 01       		.byte	0x1
 13880 030a A3       		.byte	0xa3
 13881 030b 5A030000 		.4byte	0x35a
 13882 030f 03       		.uleb128 0x3
 13883 0310 91       		.byte	0x91
 13884 0311 EC7D     		.sleb128 -276
 13885 0313 0E       		.uleb128 0xe
 13886 0314 0C040000 		.4byte	.LASF40
ARM GAS  C:\Users\RECEPC~1\AppData\Local\Temp\ccU7e2eq.s 			page 302


 13887 0318 01       		.byte	0x1
 13888 0319 A3       		.byte	0xa3
 13889 031a 8C000000 		.4byte	0x8c
 13890 031e 03       		.uleb128 0x3
 13891 031f 91       		.byte	0x91
 13892 0320 EA7D     		.sleb128 -278
 13893 0322 0F       		.uleb128 0xf
 13894 0323 87010000 		.4byte	.LASF41
 13895 0327 01       		.byte	0x1
 13896 0328 A4       		.byte	0xa4
 13897 0329 81000000 		.4byte	0x81
 13898 032d 02       		.uleb128 0x2
 13899 032e 91       		.byte	0x91
 13900 032f 77       		.sleb128 -9
 13901 0330 0F       		.uleb128 0xf
 13902 0331 90010000 		.4byte	.LASF42
 13903 0335 01       		.byte	0x1
 13904 0336 A4       		.byte	0xa4
 13905 0337 81000000 		.4byte	0x81
 13906 033b 02       		.uleb128 0x2
 13907 033c 91       		.byte	0x91
 13908 033d 73       		.sleb128 -13
 13909 033e 0C       		.uleb128 0xc
 13910 033f 6900     		.ascii	"i\000"
 13911 0341 01       		.byte	0x1
 13912 0342 A5       		.byte	0xa5
 13913 0343 8C000000 		.4byte	0x8c
 13914 0347 02       		.uleb128 0x2
 13915 0348 91       		.byte	0x91
 13916 0349 74       		.sleb128 -12
 13917 034a 0F       		.uleb128 0xf
 13918 034b A3020000 		.4byte	.LASF43
 13919 034f 01       		.byte	0x1
 13920 0350 A6       		.byte	0xa6
 13921 0351 60030000 		.4byte	0x360
 13922 0355 03       		.uleb128 0x3
 13923 0356 91       		.byte	0x91
 13924 0357 F07D     		.sleb128 -272
 13925 0359 00       		.byte	0
 13926 035a 10       		.uleb128 0x10
 13927 035b 04       		.byte	0x4
 13928 035c 81000000 		.4byte	0x81
 13929 0360 06       		.uleb128 0x6
 13930 0361 81000000 		.4byte	0x81
 13931 0365 70030000 		.4byte	0x370
 13932 0369 07       		.uleb128 0x7
 13933 036a B6000000 		.4byte	0xb6
 13934 036e FF       		.byte	0xff
 13935 036f 00       		.byte	0
 13936 0370 0B       		.uleb128 0xb
 13937 0371 1A060000 		.4byte	.LASF45
 13938 0375 01       		.byte	0x1
 13939 0376 CF       		.byte	0xcf
 13940 0377 00000000 		.4byte	.LFB65
 13941 037b 90000000 		.4byte	.LFE65-.LFB65
 13942 037f 01       		.uleb128 0x1
 13943 0380 9C       		.byte	0x9c
ARM GAS  C:\Users\RECEPC~1\AppData\Local\Temp\ccU7e2eq.s 			page 303


 13944 0381 A2030000 		.4byte	0x3a2
 13945 0385 11       		.uleb128 0x11
 13946 0386 6C636400 		.ascii	"lcd\000"
 13947 038a 01       		.byte	0x1
 13948 038b CF       		.byte	0xcf
 13949 038c 81000000 		.4byte	0x81
 13950 0390 02       		.uleb128 0x2
 13951 0391 91       		.byte	0x91
 13952 0392 77       		.sleb128 -9
 13953 0393 0E       		.uleb128 0xe
 13954 0394 4F040000 		.4byte	.LASF46
 13955 0398 01       		.byte	0x1
 13956 0399 CF       		.byte	0xcf
 13957 039a 8C000000 		.4byte	0x8c
 13958 039e 02       		.uleb128 0x2
 13959 039f 91       		.byte	0x91
 13960 03a0 74       		.sleb128 -12
 13961 03a1 00       		.byte	0
 13962 03a2 0B       		.uleb128 0xb
 13963 03a3 B9000000 		.4byte	.LASF47
 13964 03a7 01       		.byte	0x1
 13965 03a8 F1       		.byte	0xf1
 13966 03a9 00000000 		.4byte	.LFB66
 13967 03ad 30030000 		.4byte	.LFE66-.LFB66
 13968 03b1 01       		.uleb128 0x1
 13969 03b2 9C       		.byte	0x9c
 13970 03b3 D3030000 		.4byte	0x3d3
 13971 03b7 0F       		.uleb128 0xf
 13972 03b8 35040000 		.4byte	.LASF18
 13973 03bc 01       		.byte	0x1
 13974 03bd F2       		.byte	0xf2
 13975 03be 81000000 		.4byte	0x81
 13976 03c2 02       		.uleb128 0x2
 13977 03c3 91       		.byte	0x91
 13978 03c4 76       		.sleb128 -10
 13979 03c5 0C       		.uleb128 0xc
 13980 03c6 6F6B00   		.ascii	"ok\000"
 13981 03c9 01       		.byte	0x1
 13982 03ca F2       		.byte	0xf2
 13983 03cb 81000000 		.4byte	0x81
 13984 03cf 02       		.uleb128 0x2
 13985 03d0 91       		.byte	0x91
 13986 03d1 77       		.sleb128 -9
 13987 03d2 00       		.byte	0
 13988 03d3 12       		.uleb128 0x12
 13989 03d4 09000000 		.4byte	.LASF48
 13990 03d8 01       		.byte	0x1
 13991 03d9 8501     		.2byte	0x185
 13992 03db 00000000 		.4byte	.LFB67
 13993 03df 5C0B0000 		.4byte	.LFE67-.LFB67
 13994 03e3 01       		.uleb128 0x1
 13995 03e4 9C       		.byte	0x9c
 13996 03e5 51040000 		.4byte	0x451
 13997 03e9 13       		.uleb128 0x13
 13998 03ea BA020000 		.4byte	.LASF49
 13999 03ee 01       		.byte	0x1
 14000 03ef 8601     		.2byte	0x186
ARM GAS  C:\Users\RECEPC~1\AppData\Local\Temp\ccU7e2eq.s 			page 304


 14001 03f1 8C000000 		.4byte	0x8c
 14002 03f5 02       		.uleb128 0x2
 14003 03f6 91       		.byte	0x91
 14004 03f7 70       		.sleb128 -16
 14005 03f8 13       		.uleb128 0x13
 14006 03f9 14000000 		.4byte	.LASF50
 14007 03fd 01       		.byte	0x1
 14008 03fe 8601     		.2byte	0x186
 14009 0400 8C000000 		.4byte	0x8c
 14010 0404 02       		.uleb128 0x2
 14011 0405 91       		.byte	0x91
 14012 0406 6E       		.sleb128 -18
 14013 0407 13       		.uleb128 0x13
 14014 0408 0C040000 		.4byte	.LASF40
 14015 040c 01       		.byte	0x1
 14016 040d 8601     		.2byte	0x186
 14017 040f 8C000000 		.4byte	0x8c
 14018 0413 02       		.uleb128 0x2
 14019 0414 91       		.byte	0x91
 14020 0415 76       		.sleb128 -10
 14021 0416 14       		.uleb128 0x14
 14022 0417 7800     		.ascii	"x\000"
 14023 0419 01       		.byte	0x1
 14024 041a 8601     		.2byte	0x186
 14025 041c 8C000000 		.4byte	0x8c
 14026 0420 02       		.uleb128 0x2
 14027 0421 91       		.byte	0x91
 14028 0422 74       		.sleb128 -12
 14029 0423 13       		.uleb128 0x13
 14030 0424 F1010000 		.4byte	.LASF51
 14031 0428 01       		.byte	0x1
 14032 0429 8601     		.2byte	0x186
 14033 042b 8C000000 		.4byte	0x8c
 14034 042f 02       		.uleb128 0x2
 14035 0430 91       		.byte	0x91
 14036 0431 72       		.sleb128 -14
 14037 0432 13       		.uleb128 0x13
 14038 0433 E7000000 		.4byte	.LASF52
 14039 0437 01       		.byte	0x1
 14040 0438 8701     		.2byte	0x187
 14041 043a 79020000 		.4byte	0x279
 14042 043e 02       		.uleb128 0x2
 14043 043f 91       		.byte	0x91
 14044 0440 68       		.sleb128 -24
 14045 0441 13       		.uleb128 0x13
 14046 0442 5F010000 		.4byte	.LASF29
 14047 0446 01       		.byte	0x1
 14048 0447 8701     		.2byte	0x187
 14049 0449 99020000 		.4byte	0x299
 14050 044d 02       		.uleb128 0x2
 14051 044e 91       		.byte	0x91
 14052 044f 60       		.sleb128 -32
 14053 0450 00       		.byte	0
 14054 0451 15       		.uleb128 0x15
 14055 0452 10020000 		.4byte	.LASF56
 14056 0456 01       		.byte	0x1
 14057 0457 F802     		.2byte	0x2f8
ARM GAS  C:\Users\RECEPC~1\AppData\Local\Temp\ccU7e2eq.s 			page 305


 14058 0459 00000000 		.4byte	.LFB68
 14059 045d 0C000000 		.4byte	.LFE68-.LFB68
 14060 0461 01       		.uleb128 0x1
 14061 0462 9C       		.byte	0x9c
 14062 0463 12       		.uleb128 0x12
 14063 0464 51030000 		.4byte	.LASF53
 14064 0468 01       		.byte	0x1
 14065 0469 1003     		.2byte	0x310
 14066 046b 00000000 		.4byte	.LFB69
 14067 046f 184A0000 		.4byte	.LFE69-.LFB69
 14068 0473 01       		.uleb128 0x1
 14069 0474 9C       		.byte	0x9c
 14070 0475 DF040000 		.4byte	0x4df
 14071 0479 14       		.uleb128 0x14
 14072 047a 7800     		.ascii	"x\000"
 14073 047c 01       		.byte	0x1
 14074 047d 1103     		.2byte	0x311
 14075 047f 81000000 		.4byte	0x81
 14076 0483 02       		.uleb128 0x2
 14077 0484 91       		.byte	0x91
 14078 0485 6F       		.sleb128 -17
 14079 0486 14       		.uleb128 0x14
 14080 0487 7900     		.ascii	"y\000"
 14081 0489 01       		.byte	0x1
 14082 048a 1103     		.2byte	0x311
 14083 048c 81000000 		.4byte	0x81
 14084 0490 02       		.uleb128 0x2
 14085 0491 91       		.byte	0x91
 14086 0492 6E       		.sleb128 -18
 14087 0493 14       		.uleb128 0x14
 14088 0494 61757800 		.ascii	"aux\000"
 14089 0498 01       		.byte	0x1
 14090 0499 1103     		.2byte	0x311
 14091 049b DF040000 		.4byte	0x4df
 14092 049f 02       		.uleb128 0x2
 14093 04a0 91       		.byte	0x91
 14094 04a1 54       		.sleb128 -44
 14095 04a2 13       		.uleb128 0x13
 14096 04a3 E7000000 		.4byte	.LASF52
 14097 04a7 01       		.byte	0x1
 14098 04a8 1103     		.2byte	0x311
 14099 04aa 79020000 		.4byte	0x279
 14100 04ae 02       		.uleb128 0x2
 14101 04af 91       		.byte	0x91
 14102 04b0 4C       		.sleb128 -52
 14103 04b1 14       		.uleb128 0x14
 14104 04b2 785F3100 		.ascii	"x_1\000"
 14105 04b6 01       		.byte	0x1
 14106 04b7 1103     		.2byte	0x311
 14107 04b9 81000000 		.4byte	0x81
 14108 04bd 02       		.uleb128 0x2
 14109 04be 91       		.byte	0x91
 14110 04bf 6D       		.sleb128 -19
 14111 04c0 13       		.uleb128 0x13
 14112 04c1 77050000 		.4byte	.LASF54
 14113 04c5 01       		.byte	0x1
 14114 04c6 1203     		.2byte	0x312
ARM GAS  C:\Users\RECEPC~1\AppData\Local\Temp\ccU7e2eq.s 			page 306


 14115 04c8 BD000000 		.4byte	0xbd
 14116 04cc 02       		.uleb128 0x2
 14117 04cd 91       		.byte	0x91
 14118 04ce 44       		.sleb128 -60
 14119 04cf 13       		.uleb128 0x13
 14120 04d0 1C000000 		.4byte	.LASF55
 14121 04d4 01       		.byte	0x1
 14122 04d5 1303     		.2byte	0x313
 14123 04d7 9E000000 		.4byte	0x9e
 14124 04db 02       		.uleb128 0x2
 14125 04dc 91       		.byte	0x91
 14126 04dd 60       		.sleb128 -32
 14127 04de 00       		.byte	0
 14128 04df 06       		.uleb128 0x6
 14129 04e0 81000000 		.4byte	0x81
 14130 04e4 EF040000 		.4byte	0x4ef
 14131 04e8 07       		.uleb128 0x7
 14132 04e9 B6000000 		.4byte	0xb6
 14133 04ed 09       		.byte	0x9
 14134 04ee 00       		.byte	0
 14135 04ef 15       		.uleb128 0x15
 14136 04f0 5E030000 		.4byte	.LASF57
 14137 04f4 01       		.byte	0x1
 14138 04f5 B00A     		.2byte	0xab0
 14139 04f7 00000000 		.4byte	.LFB70
 14140 04fb 0C000000 		.4byte	.LFE70-.LFB70
 14141 04ff 01       		.uleb128 0x1
 14142 0500 9C       		.byte	0x9c
 14143 0501 15       		.uleb128 0x15
 14144 0502 6B020000 		.4byte	.LASF58
 14145 0506 01       		.byte	0x1
 14146 0507 C50A     		.2byte	0xac5
 14147 0509 00000000 		.4byte	.LFB71
 14148 050d 0C000000 		.4byte	.LFE71-.LFB71
 14149 0511 01       		.uleb128 0x1
 14150 0512 9C       		.byte	0x9c
 14151 0513 16       		.uleb128 0x16
 14152 0514 07050000 		.4byte	.LASF59
 14153 0518 01       		.byte	0x1
 14154 0519 D90A     		.2byte	0xad9
 14155 051b 00000000 		.4byte	.LFB72
 14156 051f 74000000 		.4byte	.LFE72-.LFB72
 14157 0523 01       		.uleb128 0x1
 14158 0524 9C       		.byte	0x9c
 14159 0525 16       		.uleb128 0x16
 14160 0526 38050000 		.4byte	.LASF60
 14161 052a 01       		.byte	0x1
 14162 052b FA0A     		.2byte	0xafa
 14163 052d 00000000 		.4byte	.LFB73
 14164 0531 74000000 		.4byte	.LFE73-.LFB73
 14165 0535 01       		.uleb128 0x1
 14166 0536 9C       		.byte	0x9c
 14167 0537 16       		.uleb128 0x16
 14168 0538 46040000 		.4byte	.LASF61
 14169 053c 01       		.byte	0x1
 14170 053d 1B0B     		.2byte	0xb1b
 14171 053f 00000000 		.4byte	.LFB74
ARM GAS  C:\Users\RECEPC~1\AppData\Local\Temp\ccU7e2eq.s 			page 307


 14172 0543 54000000 		.4byte	.LFE74-.LFB74
 14173 0547 01       		.uleb128 0x1
 14174 0548 9C       		.byte	0x9c
 14175 0549 12       		.uleb128 0x12
 14176 054a 29050000 		.4byte	.LASF62
 14177 054e 01       		.byte	0x1
 14178 054f 370B     		.2byte	0xb37
 14179 0551 00000000 		.4byte	.LFB75
 14180 0555 38000000 		.4byte	.LFE75-.LFB75
 14181 0559 01       		.uleb128 0x1
 14182 055a 9C       		.byte	0x9c
 14183 055b 6F050000 		.4byte	0x56f
 14184 055f 13       		.uleb128 0x13
 14185 0560 91040000 		.4byte	.LASF63
 14186 0564 01       		.byte	0x1
 14187 0565 3C0B     		.2byte	0xb3c
 14188 0567 79020000 		.4byte	0x279
 14189 056b 02       		.uleb128 0x2
 14190 056c 91       		.byte	0x91
 14191 056d 70       		.sleb128 -16
 14192 056e 00       		.byte	0
 14193 056f 17       		.uleb128 0x17
 14194 0570 3F060000 		.4byte	.LASF64
 14195 0574 01       		.byte	0x1
 14196 0575 550B     		.2byte	0xb55
 14197 0577 68000000 		.4byte	0x68
 14198 057b 00000000 		.4byte	.LFB76
 14199 057f 26000000 		.4byte	.LFE76-.LFB76
 14200 0583 01       		.uleb128 0x1
 14201 0584 9C       		.byte	0x9c
 14202 0585 18       		.uleb128 0x18
 14203 0586 42000000 		.4byte	.LASF65
 14204 058a 06       		.byte	0x6
 14205 058b 3E01     		.2byte	0x13e
 14206 058d 91050000 		.4byte	0x591
 14207 0591 05       		.uleb128 0x5
 14208 0592 99020000 		.4byte	0x299
 14209 0596 06       		.uleb128 0x6
 14210 0597 81000000 		.4byte	0x81
 14211 059b A7050000 		.4byte	0x5a7
 14212 059f 19       		.uleb128 0x19
 14213 05a0 B6000000 		.4byte	0xb6
 14214 05a4 DB05     		.2byte	0x5db
 14215 05a6 00       		.byte	0
 14216 05a7 18       		.uleb128 0x18
 14217 05a8 A6040000 		.4byte	.LASF66
 14218 05ac 07       		.byte	0x7
 14219 05ad 3E01     		.2byte	0x13e
 14220 05af B3050000 		.4byte	0x5b3
 14221 05b3 05       		.uleb128 0x5
 14222 05b4 96050000 		.4byte	0x596
 14223 05b8 18       		.uleb128 0x18
 14224 05b9 BB040000 		.4byte	.LASF67
 14225 05bd 08       		.byte	0x8
 14226 05be 2A06     		.2byte	0x62a
 14227 05c0 C4050000 		.4byte	0x5c4
 14228 05c4 05       		.uleb128 0x5
ARM GAS  C:\Users\RECEPC~1\AppData\Local\Temp\ccU7e2eq.s 			page 308


 14229 05c5 76000000 		.4byte	0x76
 14230 05c9 1A       		.uleb128 0x1a
 14231 05ca 02030000 		.4byte	.LASF68
 14232 05ce 05       		.byte	0x5
 14233 05cf 43       		.byte	0x43
 14234 05d0 AC000000 		.4byte	0xac
 14235 05d4 05       		.uleb128 0x5
 14236 05d5 03       		.byte	0x3
 14237 05d6 00000000 		.4byte	count_teclas1
 14238 05da 1A       		.uleb128 0x1a
 14239 05db D1040000 		.4byte	.LASF69
 14240 05df 05       		.byte	0x5
 14241 05e0 43       		.byte	0x43
 14242 05e1 AC000000 		.4byte	0xac
 14243 05e5 05       		.uleb128 0x5
 14244 05e6 03       		.byte	0x3
 14245 05e7 00000000 		.4byte	comas1
 14246 05eb 1A       		.uleb128 0x1a
 14247 05ec D8040000 		.4byte	.LASF70
 14248 05f0 05       		.byte	0x5
 14249 05f1 43       		.byte	0x43
 14250 05f2 AC000000 		.4byte	0xac
 14251 05f6 05       		.uleb128 0x5
 14252 05f7 03       		.byte	0x3
 14253 05f8 00000000 		.4byte	comas2
 14254 05fc 1A       		.uleb128 0x1a
 14255 05fd 9A000000 		.4byte	.LASF71
 14256 0601 05       		.byte	0x5
 14257 0602 43       		.byte	0x43
 14258 0603 AC000000 		.4byte	0xac
 14259 0607 05       		.uleb128 0x5
 14260 0608 03       		.byte	0x3
 14261 0609 00000000 		.4byte	id_coma1
 14262 060d 1A       		.uleb128 0x1a
 14263 060e 53020000 		.4byte	.LASF72
 14264 0612 05       		.byte	0x5
 14265 0613 43       		.byte	0x43
 14266 0614 AC000000 		.4byte	0xac
 14267 0618 05       		.uleb128 0x5
 14268 0619 03       		.byte	0x3
 14269 061a 00000000 		.4byte	id_teclado1
 14270 061e 1A       		.uleb128 0x1a
 14271 061f 10030000 		.4byte	.LASF73
 14272 0623 05       		.byte	0x5
 14273 0624 43       		.byte	0x43
 14274 0625 AC000000 		.4byte	0xac
 14275 0629 05       		.uleb128 0x5
 14276 062a 03       		.byte	0x3
 14277 062b 00000000 		.4byte	count_teclas2
 14278 062f 1A       		.uleb128 0x1a
 14279 0630 A3000000 		.4byte	.LASF74
 14280 0634 05       		.byte	0x5
 14281 0635 43       		.byte	0x43
 14282 0636 AC000000 		.4byte	0xac
 14283 063a 05       		.uleb128 0x5
 14284 063b 03       		.byte	0x3
 14285 063c 00000000 		.4byte	id_coma2
ARM GAS  C:\Users\RECEPC~1\AppData\Local\Temp\ccU7e2eq.s 			page 309


 14286 0640 1A       		.uleb128 0x1a
 14287 0641 5F020000 		.4byte	.LASF75
 14288 0645 05       		.byte	0x5
 14289 0646 43       		.byte	0x43
 14290 0647 AC000000 		.4byte	0xac
 14291 064b 05       		.uleb128 0x5
 14292 064c 03       		.byte	0x3
 14293 064d 00000000 		.4byte	id_teclado2
 14294 0651 1A       		.uleb128 0x1a
 14295 0652 1E030000 		.4byte	.LASF76
 14296 0656 05       		.byte	0x5
 14297 0657 44       		.byte	0x44
 14298 0658 B1000000 		.4byte	0xb1
 14299 065c 05       		.uleb128 0x5
 14300 065d 03       		.byte	0x3
 14301 065e 00000000 		.4byte	posx1
 14302 0662 1A       		.uleb128 0x1a
 14303 0663 00040000 		.4byte	.LASF77
 14304 0667 05       		.byte	0x5
 14305 0668 44       		.byte	0x44
 14306 0669 B1000000 		.4byte	0xb1
 14307 066d 05       		.uleb128 0x5
 14308 066e 03       		.byte	0x3
 14309 066f 00000000 		.4byte	posy1
 14310 0673 1A       		.uleb128 0x1a
 14311 0674 A8060000 		.4byte	.LASF78
 14312 0678 05       		.byte	0x5
 14313 0679 44       		.byte	0x44
 14314 067a B1000000 		.4byte	0xb1
 14315 067e 05       		.uleb128 0x5
 14316 067f 03       		.byte	0x3
 14317 0680 00000000 		.4byte	sizeletra1
 14318 0684 1A       		.uleb128 0x1a
 14319 0685 42030000 		.4byte	.LASF79
 14320 0689 05       		.byte	0x5
 14321 068a 44       		.byte	0x44
 14322 068b B1000000 		.4byte	0xb1
 14323 068f 05       		.uleb128 0x5
 14324 0690 03       		.byte	0x3
 14325 0691 00000000 		.4byte	posx2
 14326 0695 1A       		.uleb128 0x1a
 14327 0696 06040000 		.4byte	.LASF80
 14328 069a 05       		.byte	0x5
 14329 069b 44       		.byte	0x44
 14330 069c B1000000 		.4byte	0xb1
 14331 06a0 05       		.uleb128 0x5
 14332 06a1 03       		.byte	0x3
 14333 06a2 00000000 		.4byte	posy2
 14334 06a6 1A       		.uleb128 0x1a
 14335 06a7 B3060000 		.4byte	.LASF81
 14336 06ab 05       		.byte	0x5
 14337 06ac 44       		.byte	0x44
 14338 06ad B1000000 		.4byte	0xb1
 14339 06b1 05       		.uleb128 0x5
 14340 06b2 03       		.byte	0x3
 14341 06b3 00000000 		.4byte	sizeletra2
 14342 06b7 1A       		.uleb128 0x1a
ARM GAS  C:\Users\RECEPC~1\AppData\Local\Temp\ccU7e2eq.s 			page 310


 14343 06b8 04010000 		.4byte	.LASF82
 14344 06bc 05       		.byte	0x5
 14345 06bd 45       		.byte	0x45
 14346 06be AC000000 		.4byte	0xac
 14347 06c2 05       		.uleb128 0x5
 14348 06c3 03       		.byte	0x3
 14349 06c4 00000000 		.4byte	teclas1
 14350 06c8 1A       		.uleb128 0x1a
 14351 06c9 0C010000 		.4byte	.LASF83
 14352 06cd 05       		.byte	0x5
 14353 06ce 45       		.byte	0x45
 14354 06cf AC000000 		.4byte	0xac
 14355 06d3 05       		.uleb128 0x5
 14356 06d4 03       		.byte	0x3
 14357 06d5 00000000 		.4byte	teclas2
 14358 06d9 1A       		.uleb128 0x1a
 14359 06da 49010000 		.4byte	.LASF84
 14360 06de 05       		.byte	0x5
 14361 06df 46       		.byte	0x46
 14362 06e0 AC000000 		.4byte	0xac
 14363 06e4 05       		.uleb128 0x5
 14364 06e5 03       		.byte	0x3
 14365 06e6 00000000 		.4byte	flujo_LCD1
 14366 06ea 1A       		.uleb128 0x1a
 14367 06eb 54010000 		.4byte	.LASF85
 14368 06ef 05       		.byte	0x5
 14369 06f0 46       		.byte	0x46
 14370 06f1 AC000000 		.4byte	0xac
 14371 06f5 05       		.uleb128 0x5
 14372 06f6 03       		.byte	0x3
 14373 06f7 00000000 		.4byte	flujo_LCD2
 14374 06fb 1A       		.uleb128 0x1a
 14375 06fc 1D020000 		.4byte	.LASF86
 14376 0700 05       		.byte	0x5
 14377 0701 47       		.byte	0x47
 14378 0702 AC000000 		.4byte	0xac
 14379 0706 05       		.uleb128 0x5
 14380 0707 03       		.byte	0x3
 14381 0708 00000000 		.4byte	flujo_pos1
 14382 070c 1A       		.uleb128 0x1a
 14383 070d 28020000 		.4byte	.LASF87
 14384 0711 05       		.byte	0x5
 14385 0712 47       		.byte	0x47
 14386 0713 AC000000 		.4byte	0xac
 14387 0717 05       		.uleb128 0x5
 14388 0718 03       		.byte	0x3
 14389 0719 00000000 		.4byte	flujo_pos2
 14390 071d 1A       		.uleb128 0x1a
 14391 071e E3010000 		.4byte	.LASF88
 14392 0722 05       		.byte	0x5
 14393 0723 48       		.byte	0x48
 14394 0724 AC000000 		.4byte	0xac
 14395 0728 05       		.uleb128 0x5
 14396 0729 03       		.byte	0x3
 14397 072a 00000000 		.4byte	seleccion_pos
 14398 072e 1A       		.uleb128 0x1a
 14399 072f C8050000 		.4byte	.LASF89
ARM GAS  C:\Users\RECEPC~1\AppData\Local\Temp\ccU7e2eq.s 			page 311


 14400 0733 05       		.byte	0x5
 14401 0734 49       		.byte	0x49
 14402 0735 AC000000 		.4byte	0xac
 14403 0739 05       		.uleb128 0x5
 14404 073a 03       		.byte	0x3
 14405 073b 00000000 		.4byte	flujo_pos
 14406 073f 1A       		.uleb128 0x1a
 14407 0740 D0010000 		.4byte	.LASF90
 14408 0744 05       		.byte	0x5
 14409 0745 4A       		.byte	0x4a
 14410 0746 AC000000 		.4byte	0xac
 14411 074a 05       		.uleb128 0x5
 14412 074b 03       		.byte	0x3
 14413 074c 00000000 		.4byte	venta_activa
 14414 0750 1A       		.uleb128 0x1a
 14415 0751 9C010000 		.4byte	.LASF91
 14416 0755 05       		.byte	0x5
 14417 0756 4A       		.byte	0x4a
 14418 0757 AC000000 		.4byte	0xac
 14419 075b 05       		.uleb128 0x5
 14420 075c 03       		.byte	0x3
 14421 075d 00000000 		.4byte	venta_activa2
 14422 0761 06       		.uleb128 0x6
 14423 0762 81000000 		.4byte	0x81
 14424 0766 71070000 		.4byte	0x771
 14425 076a 07       		.uleb128 0x7
 14426 076b B6000000 		.4byte	0xb6
 14427 076f 1D       		.byte	0x1d
 14428 0770 00       		.byte	0
 14429 0771 1A       		.uleb128 0x1a
 14430 0772 29040000 		.4byte	.LASF92
 14431 0776 05       		.byte	0x5
 14432 0777 4B       		.byte	0x4b
 14433 0778 82070000 		.4byte	0x782
 14434 077c 05       		.uleb128 0x5
 14435 077d 03       		.byte	0x3
 14436 077e 00000000 		.4byte	Buffer_LCD1
 14437 0782 05       		.uleb128 0x5
 14438 0783 61070000 		.4byte	0x761
 14439 0787 1A       		.uleb128 0x1a
 14440 0788 86020000 		.4byte	.LASF93
 14441 078c 05       		.byte	0x5
 14442 078d 4C       		.byte	0x4c
 14443 078e 98070000 		.4byte	0x798
 14444 0792 05       		.uleb128 0x5
 14445 0793 03       		.byte	0x3
 14446 0794 00000000 		.4byte	Buffer_LCD2
 14447 0798 05       		.uleb128 0x5
 14448 0799 61070000 		.4byte	0x761
 14449 079d 1A       		.uleb128 0x1a
 14450 079e 6C010000 		.4byte	.LASF94
 14451 07a2 05       		.byte	0x5
 14452 07a3 4D       		.byte	0x4d
 14453 07a4 AC000000 		.4byte	0xac
 14454 07a8 05       		.uleb128 0x5
 14455 07a9 03       		.byte	0x3
 14456 07aa 00000000 		.4byte	count_protector
ARM GAS  C:\Users\RECEPC~1\AppData\Local\Temp\ccU7e2eq.s 			page 312


 14457 07ae 1A       		.uleb128 0x1a
 14458 07af 28000000 		.4byte	.LASF95
 14459 07b3 05       		.byte	0x5
 14460 07b4 4D       		.byte	0x4d
 14461 07b5 AC000000 		.4byte	0xac
 14462 07b9 05       		.uleb128 0x5
 14463 07ba 03       		.byte	0x3
 14464 07bb 00000000 		.4byte	count_protector2
 14465 07bf 1A       		.uleb128 0x1a
 14466 07c0 F5020000 		.4byte	.LASF96
 14467 07c4 05       		.byte	0x5
 14468 07c5 4E       		.byte	0x4e
 14469 07c6 D0070000 		.4byte	0x7d0
 14470 07ca 05       		.uleb128 0x5
 14471 07cb 03       		.byte	0x3
 14472 07cc 00000000 		.4byte	password_lcd
 14473 07d0 05       		.uleb128 0x5
 14474 07d1 89020000 		.4byte	0x289
 14475 07d5 1A       		.uleb128 0x1a
 14476 07d6 7A060000 		.4byte	.LASF97
 14477 07da 05       		.byte	0x5
 14478 07db 4F       		.byte	0x4f
 14479 07dc B1000000 		.4byte	0xb1
 14480 07e0 05       		.uleb128 0x5
 14481 07e1 03       		.byte	0x3
 14482 07e2 00000000 		.4byte	imagen_grado
 14483 07e6 06       		.uleb128 0x6
 14484 07e7 8C000000 		.4byte	0x8c
 14485 07eb FC070000 		.4byte	0x7fc
 14486 07ef 07       		.uleb128 0x7
 14487 07f0 B6000000 		.4byte	0xb6
 14488 07f4 01       		.byte	0x1
 14489 07f5 07       		.uleb128 0x7
 14490 07f6 B6000000 		.4byte	0xb6
 14491 07fa 01       		.byte	0x1
 14492 07fb 00       		.byte	0
 14493 07fc 1A       		.uleb128 0x1a
 14494 07fd 86050000 		.4byte	.LASF98
 14495 0801 05       		.byte	0x5
 14496 0802 50       		.byte	0x50
 14497 0803 0D080000 		.4byte	0x80d
 14498 0807 05       		.uleb128 0x5
 14499 0808 03       		.byte	0x3
 14500 0809 00000000 		.4byte	prox_caso
 14501 080d 05       		.uleb128 0x5
 14502 080e E6070000 		.4byte	0x7e6
 14503 0812 06       		.uleb128 0x6
 14504 0813 81000000 		.4byte	0x81
 14505 0817 22080000 		.4byte	0x822
 14506 081b 07       		.uleb128 0x7
 14507 081c B6000000 		.4byte	0xb6
 14508 0820 02       		.byte	0x2
 14509 0821 00       		.byte	0
 14510 0822 1A       		.uleb128 0x1a
 14511 0823 97020000 		.4byte	.LASF99
 14512 0827 05       		.byte	0x5
 14513 0828 51       		.byte	0x51
ARM GAS  C:\Users\RECEPC~1\AppData\Local\Temp\ccU7e2eq.s 			page 313


 14514 0829 33080000 		.4byte	0x833
 14515 082d 05       		.uleb128 0x5
 14516 082e 03       		.byte	0x3
 14517 082f 00000000 		.4byte	bloqueo_LCD
 14518 0833 05       		.uleb128 0x5
 14519 0834 12080000 		.4byte	0x812
 14520 0838 1A       		.uleb128 0x1a
 14521 0839 65060000 		.4byte	.LASF100
 14522 083d 05       		.byte	0x5
 14523 083e 52       		.byte	0x52
 14524 083f 49080000 		.4byte	0x849
 14525 0843 05       		.uleb128 0x5
 14526 0844 03       		.byte	0x3
 14527 0845 00000000 		.4byte	id_estacion
 14528 0849 05       		.uleb128 0x5
 14529 084a 79020000 		.4byte	0x279
 14530 084e 1A       		.uleb128 0x1a
 14531 084f 76020000 		.4byte	.LASF101
 14532 0853 05       		.byte	0x5
 14533 0854 53       		.byte	0x53
 14534 0855 5F080000 		.4byte	0x85f
 14535 0859 05       		.uleb128 0x5
 14536 085a 03       		.byte	0x3
 14537 085b 00000000 		.4byte	id_venta
 14538 085f 05       		.uleb128 0x5
 14539 0860 99020000 		.4byte	0x299
 14540 0864 06       		.uleb128 0x6
 14541 0865 81000000 		.4byte	0x81
 14542 0869 74080000 		.4byte	0x874
 14543 086d 07       		.uleb128 0x7
 14544 086e B6000000 		.4byte	0xb6
 14545 0872 C7       		.byte	0xc7
 14546 0873 00       		.byte	0
 14547 0874 1A       		.uleb128 0x1a
 14548 0875 57060000 		.4byte	.LASF102
 14549 0879 05       		.byte	0x5
 14550 087a 54       		.byte	0x54
 14551 087b 85080000 		.4byte	0x885
 14552 087f 05       		.uleb128 0x5
 14553 0880 03       		.byte	0x3
 14554 0881 00000000 		.4byte	trama_totales
 14555 0885 05       		.uleb128 0x5
 14556 0886 64080000 		.4byte	0x864
 14557 088a 1A       		.uleb128 0x1a
 14558 088b 71040000 		.4byte	.LASF103
 14559 088f 05       		.byte	0x5
 14560 0890 58       		.byte	0x58
 14561 0891 AC000000 		.4byte	0xac
 14562 0895 05       		.uleb128 0x5
 14563 0896 03       		.byte	0x3
 14564 0897 00000000 		.4byte	ppux10
 14565 089b 06       		.uleb128 0x6
 14566 089c 81000000 		.4byte	0x81
 14567 08a0 AB080000 		.4byte	0x8ab
 14568 08a4 07       		.uleb128 0x7
 14569 08a5 B6000000 		.4byte	0xb6
 14570 08a9 10       		.byte	0x10
ARM GAS  C:\Users\RECEPC~1\AppData\Local\Temp\ccU7e2eq.s 			page 314


 14571 08aa 00       		.byte	0
 14572 08ab 1A       		.uleb128 0x1a
 14573 08ac 11050000 		.4byte	.LASF104
 14574 08b0 05       		.byte	0x5
 14575 08b1 59       		.byte	0x59
 14576 08b2 BC080000 		.4byte	0x8bc
 14577 08b6 05       		.uleb128 0x5
 14578 08b7 03       		.byte	0x3
 14579 08b8 00000000 		.4byte	nombre_pro1
 14580 08bc 05       		.uleb128 0x5
 14581 08bd 9B080000 		.4byte	0x89b
 14582 08c1 1A       		.uleb128 0x1a
 14583 08c2 02060000 		.4byte	.LASF105
 14584 08c6 05       		.byte	0x5
 14585 08c7 59       		.byte	0x59
 14586 08c8 D2080000 		.4byte	0x8d2
 14587 08cc 05       		.uleb128 0x5
 14588 08cd 03       		.byte	0x3
 14589 08ce 00000000 		.4byte	nombre_pro2
 14590 08d2 05       		.uleb128 0x5
 14591 08d3 9B080000 		.4byte	0x89b
 14592 08d7 1A       		.uleb128 0x1a
 14593 08d8 1D050000 		.4byte	.LASF106
 14594 08dc 05       		.byte	0x5
 14595 08dd 59       		.byte	0x59
 14596 08de E8080000 		.4byte	0x8e8
 14597 08e2 05       		.uleb128 0x5
 14598 08e3 03       		.byte	0x3
 14599 08e4 00000000 		.4byte	nombre_pro3
 14600 08e8 05       		.uleb128 0x5
 14601 08e9 9B080000 		.4byte	0x89b
 14602 08ed 1A       		.uleb128 0x1a
 14603 08ee D0000000 		.4byte	.LASF107
 14604 08f2 05       		.byte	0x5
 14605 08f3 5A       		.byte	0x5a
 14606 08f4 FE080000 		.4byte	0x8fe
 14607 08f8 05       		.uleb128 0x5
 14608 08f9 03       		.byte	0x3
 14609 08fa 00000000 		.4byte	version
 14610 08fe 05       		.uleb128 0x5
 14611 08ff CD000000 		.4byte	0xcd
 14612 0903 1A       		.uleb128 0x1a
 14613 0904 07020000 		.4byte	.LASF108
 14614 0908 05       		.byte	0x5
 14615 0909 5B       		.byte	0x5b
 14616 090a AC000000 		.4byte	0xac
 14617 090e 05       		.uleb128 0x5
 14618 090f 03       		.byte	0x3
 14619 0910 00000000 		.4byte	kmscreen
 14620 0914 1A       		.uleb128 0x1a
 14621 0915 A5050000 		.4byte	.LASF109
 14622 0919 05       		.byte	0x5
 14623 091a 5B       		.byte	0x5b
 14624 091b AC000000 		.4byte	0xac
 14625 091f 05       		.uleb128 0x5
 14626 0920 03       		.byte	0x3
 14627 0921 00000000 		.4byte	pantallas
ARM GAS  C:\Users\RECEPC~1\AppData\Local\Temp\ccU7e2eq.s 			page 315


 14628 0925 1A       		.uleb128 0x1a
 14629 0926 39000000 		.4byte	.LASF110
 14630 092a 05       		.byte	0x5
 14631 092b 5B       		.byte	0x5b
 14632 092c AC000000 		.4byte	0xac
 14633 0930 05       		.uleb128 0x5
 14634 0931 03       		.byte	0x3
 14635 0932 00000000 		.4byte	efectivo
 14636 0936 1A       		.uleb128 0x1a
 14637 0937 CA010000 		.4byte	.LASF111
 14638 093b 05       		.byte	0x5
 14639 093c 65       		.byte	0x65
 14640 093d E4000000 		.4byte	0xe4
 14641 0941 05       		.uleb128 0x5
 14642 0942 03       		.byte	0x3
 14643 0943 00000000 		.4byte	lado1
 14644 0947 1A       		.uleb128 0x1a
 14645 0948 D2050000 		.4byte	.LASF112
 14646 094c 05       		.byte	0x5
 14647 094d 66       		.byte	0x66
 14648 094e E4000000 		.4byte	0xe4
 14649 0952 05       		.uleb128 0x5
 14650 0953 03       		.byte	0x3
 14651 0954 00000000 		.4byte	lado2
 14652 0958 1A       		.uleb128 0x1a
 14653 0959 DD010000 		.4byte	.LASF113
 14654 095d 05       		.byte	0x5
 14655 095e 67       		.byte	0x67
 14656 095f E4000000 		.4byte	0xe4
 14657 0963 05       		.uleb128 0x5
 14658 0964 03       		.byte	0x3
 14659 0965 00000000 		.4byte	lado3
 14660 0969 1A       		.uleb128 0x1a
 14661 096a D8050000 		.4byte	.LASF114
 14662 096e 05       		.byte	0x5
 14663 096f 68       		.byte	0x68
 14664 0970 E4000000 		.4byte	0xe4
 14665 0974 05       		.uleb128 0x5
 14666 0975 03       		.byte	0x3
 14667 0976 00000000 		.4byte	lado4
 14668 097a 06       		.uleb128 0x6
 14669 097b 81000000 		.4byte	0x81
 14670 097f 8A090000 		.4byte	0x98a
 14671 0983 07       		.uleb128 0x7
 14672 0984 B6000000 		.4byte	0xb6
 14673 0988 20       		.byte	0x20
 14674 0989 00       		.byte	0
 14675 098a 1A       		.uleb128 0x1a
 14676 098b 78040000 		.4byte	.LASF115
 14677 098f 05       		.byte	0x5
 14678 0990 6C       		.byte	0x6c
 14679 0991 9B090000 		.4byte	0x99b
 14680 0995 05       		.uleb128 0x5
 14681 0996 03       		.byte	0x3
 14682 0997 00000000 		.4byte	nombre
 14683 099b 05       		.uleb128 0x5
 14684 099c 7A090000 		.4byte	0x97a
ARM GAS  C:\Users\RECEPC~1\AppData\Local\Temp\ccU7e2eq.s 			page 316


 14685 09a0 06       		.uleb128 0x6
 14686 09a1 81000000 		.4byte	0x81
 14687 09a5 B0090000 		.4byte	0x9b0
 14688 09a9 07       		.uleb128 0x7
 14689 09aa B6000000 		.4byte	0xb6
 14690 09ae 0E       		.byte	0xe
 14691 09af 00       		.byte	0
 14692 09b0 1B       		.uleb128 0x1b
 14693 09b1 6E697400 		.ascii	"nit\000"
 14694 09b5 05       		.byte	0x5
 14695 09b6 6D       		.byte	0x6d
 14696 09b7 C1090000 		.4byte	0x9c1
 14697 09bb 05       		.uleb128 0x5
 14698 09bc 03       		.byte	0x3
 14699 09bd 00000000 		.4byte	nit
 14700 09c1 05       		.uleb128 0x5
 14701 09c2 A0090000 		.4byte	0x9a0
 14702 09c6 06       		.uleb128 0x6
 14703 09c7 81000000 		.4byte	0x81
 14704 09cb D6090000 		.4byte	0x9d6
 14705 09cf 07       		.uleb128 0x7
 14706 09d0 B6000000 		.4byte	0xb6
 14707 09d4 13       		.byte	0x13
 14708 09d5 00       		.byte	0
 14709 09d6 1A       		.uleb128 0x1a
 14710 09d7 4A020000 		.4byte	.LASF116
 14711 09db 05       		.byte	0x5
 14712 09dc 6E       		.byte	0x6e
 14713 09dd E7090000 		.4byte	0x9e7
 14714 09e1 05       		.uleb128 0x5
 14715 09e2 03       		.byte	0x3
 14716 09e3 00000000 		.4byte	telefono
 14717 09e7 05       		.uleb128 0x5
 14718 09e8 C6090000 		.4byte	0x9c6
 14719 09ec 1A       		.uleb128 0x1a
 14720 09ed 3F010000 		.4byte	.LASF117
 14721 09f1 05       		.byte	0x5
 14722 09f2 6F       		.byte	0x6f
 14723 09f3 FD090000 		.4byte	0x9fd
 14724 09f7 05       		.uleb128 0x5
 14725 09f8 03       		.byte	0x3
 14726 09f9 00000000 		.4byte	direccion
 14727 09fd 05       		.uleb128 0x5
 14728 09fe 7A090000 		.4byte	0x97a
 14729 0a02 06       		.uleb128 0x6
 14730 0a03 81000000 		.4byte	0x81
 14731 0a07 120A0000 		.4byte	0xa12
 14732 0a0b 07       		.uleb128 0x7
 14733 0a0c B6000000 		.4byte	0xb6
 14734 0a10 1F       		.byte	0x1f
 14735 0a11 00       		.byte	0
 14736 0a12 1A       		.uleb128 0x1a
 14737 0a13 14010000 		.4byte	.LASF118
 14738 0a17 05       		.byte	0x5
 14739 0a18 70       		.byte	0x70
 14740 0a19 230A0000 		.4byte	0xa23
 14741 0a1d 05       		.uleb128 0x5
ARM GAS  C:\Users\RECEPC~1\AppData\Local\Temp\ccU7e2eq.s 			page 317


 14742 0a1e 03       		.byte	0x3
 14743 0a1f 00000000 		.4byte	lema1
 14744 0a23 05       		.uleb128 0x5
 14745 0a24 020A0000 		.4byte	0xa02
 14746 0a28 1A       		.uleb128 0x1a
 14747 0a29 96010000 		.4byte	.LASF119
 14748 0a2d 05       		.byte	0x5
 14749 0a2e 71       		.byte	0x71
 14750 0a2f 390A0000 		.4byte	0xa39
 14751 0a33 05       		.uleb128 0x5
 14752 0a34 03       		.byte	0x3
 14753 0a35 00000000 		.4byte	lema2
 14754 0a39 05       		.uleb128 0x5
 14755 0a3a 020A0000 		.4byte	0xa02
 14756 0a3e 06       		.uleb128 0x6
 14757 0a3f 81000000 		.4byte	0x81
 14758 0a43 4E0A0000 		.4byte	0xa4e
 14759 0a47 07       		.uleb128 0x7
 14760 0a48 B6000000 		.4byte	0xb6
 14761 0a4c 01       		.byte	0x1
 14762 0a4d 00       		.byte	0
 14763 0a4e 1A       		.uleb128 0x1a
 14764 0a4f 89040000 		.4byte	.LASF120
 14765 0a53 05       		.byte	0x5
 14766 0a54 72       		.byte	0x72
 14767 0a55 5F0A0000 		.4byte	0xa5f
 14768 0a59 05       		.uleb128 0x5
 14769 0a5a 03       		.byte	0x3
 14770 0a5b 00000000 		.4byte	id_logo
 14771 0a5f 05       		.uleb128 0x5
 14772 0a60 3E0A0000 		.4byte	0xa3e
 14773 0a64 1B       		.uleb128 0x1b
 14774 0a65 6B6D00   		.ascii	"km\000"
 14775 0a68 05       		.byte	0x5
 14776 0a69 73       		.byte	0x73
 14777 0a6a 740A0000 		.4byte	0xa74
 14778 0a6e 05       		.uleb128 0x5
 14779 0a6f 03       		.byte	0x3
 14780 0a70 00000000 		.4byte	km
 14781 0a74 05       		.uleb128 0x5
 14782 0a75 3E0A0000 		.4byte	0xa3e
 14783 0a79 1A       		.uleb128 0x1a
 14784 0a7a 44060000 		.4byte	.LASF121
 14785 0a7e 05       		.byte	0x5
 14786 0a7f 74       		.byte	0x74
 14787 0a80 12080000 		.4byte	0x812
 14788 0a84 05       		.uleb128 0x5
 14789 0a85 03       		.byte	0x3
 14790 0a86 00000000 		.4byte	fecha
 14791 0a8a 1A       		.uleb128 0x1a
 14792 0a8b FF000000 		.4byte	.LASF122
 14793 0a8f 05       		.byte	0x5
 14794 0a90 75       		.byte	0x75
 14795 0a91 3E0A0000 		.4byte	0xa3e
 14796 0a95 05       		.uleb128 0x5
 14797 0a96 03       		.byte	0x3
 14798 0a97 00000000 		.4byte	hora
ARM GAS  C:\Users\RECEPC~1\AppData\Local\Temp\ccU7e2eq.s 			page 318


 14799 0a9b 1A       		.uleb128 0x1a
 14800 0a9c 2F010000 		.4byte	.LASF123
 14801 0aa0 05       		.byte	0x5
 14802 0aa1 8B       		.byte	0x8b
 14803 0aa2 8A010000 		.4byte	0x18a
 14804 0aa6 05       		.uleb128 0x5
 14805 0aa7 03       		.byte	0x3
 14806 0aa8 00000000 		.4byte	rventa1
 14807 0aac 1A       		.uleb128 0x1a
 14808 0aad 37010000 		.4byte	.LASF124
 14809 0ab1 05       		.byte	0x5
 14810 0ab2 8C       		.byte	0x8c
 14811 0ab3 8A010000 		.4byte	0x18a
 14812 0ab7 05       		.uleb128 0x5
 14813 0ab8 03       		.byte	0x3
 14814 0ab9 00000000 		.4byte	rventa2
 14815 0abd 1A       		.uleb128 0x1a
 14816 0abe EE000000 		.4byte	.LASF125
 14817 0ac2 05       		.byte	0x5
 14818 0ac3 91       		.byte	0x91
 14819 0ac4 81000000 		.4byte	0x81
 14820 0ac8 05       		.uleb128 0x5
 14821 0ac9 03       		.byte	0x3
 14822 0aca 00000000 		.4byte	ok_RF
 14823 0ace 1A       		.uleb128 0x1a
 14824 0acf DE050000 		.4byte	.LASF126
 14825 0ad3 05       		.byte	0x5
 14826 0ad4 92       		.byte	0x92
 14827 0ad5 81000000 		.4byte	0x81
 14828 0ad9 05       		.uleb128 0x5
 14829 0ada 03       		.byte	0x3
 14830 0adb 00000000 		.4byte	ok_datosRF
 14831 0adf 1A       		.uleb128 0x1a
 14832 0ae0 7F020000 		.4byte	.LASF127
 14833 0ae4 05       		.byte	0x5
 14834 0ae5 93       		.byte	0x93
 14835 0ae6 64080000 		.4byte	0x864
 14836 0aea 05       		.uleb128 0x5
 14837 0aeb 03       		.byte	0x3
 14838 0aec 00000000 		.4byte	rf_mod
 14839 0af0 06       		.uleb128 0x6
 14840 0af1 81000000 		.4byte	0x81
 14841 0af5 000B0000 		.4byte	0xb00
 14842 0af9 07       		.uleb128 0x7
 14843 0afa B6000000 		.4byte	0xb6
 14844 0afe 3F       		.byte	0x3f
 14845 0aff 00       		.byte	0
 14846 0b00 1A       		.uleb128 0x1a
 14847 0b01 7C010000 		.4byte	.LASF128
 14848 0b05 05       		.byte	0x5
 14849 0b06 98       		.byte	0x98
 14850 0b07 F00A0000 		.4byte	0xaf0
 14851 0b0b 05       		.uleb128 0x5
 14852 0b0c 03       		.byte	0x3
 14853 0b0d 00000000 		.4byte	buffer_i2c
 14854 0b11 1A       		.uleb128 0x1a
 14855 0b12 7F040000 		.4byte	.LASF129
ARM GAS  C:\Users\RECEPC~1\AppData\Local\Temp\ccU7e2eq.s 			page 319


 14856 0b16 05       		.byte	0x5
 14857 0b17 9D       		.byte	0x9d
 14858 0b18 81000000 		.4byte	0x81
 14859 0b1c 05       		.uleb128 0x5
 14860 0b1d 03       		.byte	0x3
 14861 0b1e 00000000 		.4byte	crc_total
 14862 0b22 1A       		.uleb128 0x1a
 14863 0b23 C2020000 		.4byte	.LASF130
 14864 0b27 05       		.byte	0x5
 14865 0b28 A1       		.byte	0xa1
 14866 0b29 3E0A0000 		.4byte	0xa3e
 14867 0b2d 05       		.uleb128 0x5
 14868 0b2e 03       		.byte	0x3
 14869 0b2f 00000000 		.4byte	print1
 14870 0b33 1A       		.uleb128 0x1a
 14871 0b34 C9020000 		.4byte	.LASF131
 14872 0b38 05       		.byte	0x5
 14873 0b39 A2       		.byte	0xa2
 14874 0b3a 3E0A0000 		.4byte	0xa3e
 14875 0b3e 05       		.uleb128 0x5
 14876 0b3f 03       		.byte	0x3
 14877 0b40 00000000 		.4byte	print2
 14878 0b44 1A       		.uleb128 0x1a
 14879 0b45 D0020000 		.4byte	.LASF33
 14880 0b49 05       		.byte	0x5
 14881 0b4a A7       		.byte	0xa7
 14882 0b4b 81000000 		.4byte	0x81
 14883 0b4f 05       		.uleb128 0x5
 14884 0b50 03       		.byte	0x3
 14885 0b51 00000000 		.4byte	tipo_venta
 14886 0b55 06       		.uleb128 0x6
 14887 0b56 81000000 		.4byte	0x81
 14888 0b5a 650B0000 		.4byte	0xb65
 14889 0b5e 07       		.uleb128 0x7
 14890 0b5f B6000000 		.4byte	0xb6
 14891 0b63 19       		.byte	0x19
 14892 0b64 00       		.byte	0
 14893 0b65 1A       		.uleb128 0x1a
 14894 0b66 FA010000 		.4byte	.LASF132
 14895 0b6a 01       		.byte	0x1
 14896 0b6b 35       		.byte	0x35
 14897 0b6c 550B0000 		.4byte	0xb55
 14898 0b70 05       		.uleb128 0x5
 14899 0b71 03       		.byte	0x3
 14900 0b72 00000000 		.4byte	letras
 14901 0b76 1A       		.uleb128 0x1a
 14902 0b77 F5050000 		.4byte	.LASF133
 14903 0b7b 01       		.byte	0x1
 14904 0b7c 36       		.byte	0x36
 14905 0b7d 79020000 		.4byte	0x279
 14906 0b81 05       		.uleb128 0x5
 14907 0b82 03       		.byte	0x3
 14908 0b83 00000000 		.4byte	clave_config
 14909 0b87 06       		.uleb128 0x6
 14910 0b88 81000000 		.4byte	0x81
 14911 0b8c 970B0000 		.4byte	0xb97
 14912 0b90 07       		.uleb128 0x7
ARM GAS  C:\Users\RECEPC~1\AppData\Local\Temp\ccU7e2eq.s 			page 320


 14913 0b91 B6000000 		.4byte	0xb6
 14914 0b95 11       		.byte	0x11
 14915 0b96 00       		.byte	0
 14916 0b97 1A       		.uleb128 0x1a
 14917 0b98 E2000000 		.4byte	.LASF134
 14918 0b9c 01       		.byte	0x1
 14919 0b9d 37       		.byte	0x37
 14920 0b9e 870B0000 		.4byte	0xb87
 14921 0ba2 05       		.uleb128 0x5
 14922 0ba3 03       		.byte	0x3
 14923 0ba4 00000000 		.4byte	test
 14924 0ba8 1A       		.uleb128 0x1a
 14925 0ba9 AC000000 		.4byte	.LASF135
 14926 0bad 01       		.byte	0x1
 14927 0bae 38       		.byte	0x38
 14928 0baf 8C000000 		.4byte	0x8c
 14929 0bb3 05       		.uleb128 0x5
 14930 0bb4 03       		.byte	0x3
 14931 0bb5 00000000 		.4byte	num_decimal2
 14932 0bb9 1A       		.uleb128 0x1a
 14933 0bba 3C020000 		.4byte	.LASF136
 14934 0bbe 01       		.byte	0x1
 14935 0bbf 3C       		.byte	0x3c
 14936 0bc0 99020000 		.4byte	0x299
 14937 0bc4 05       		.uleb128 0x5
 14938 0bc5 03       		.byte	0x3
 14939 0bc6 00000000 		.4byte	idaux
 14940 0bca 1A       		.uleb128 0x1a
 14941 0bcb 33020000 		.4byte	.LASF137
 14942 0bcf 01       		.byte	0x1
 14943 0bd0 3D       		.byte	0x3d
 14944 0bd1 81000000 		.4byte	0x81
 14945 0bd5 05       		.uleb128 0x5
 14946 0bd6 03       		.byte	0x3
 14947 0bd7 00000000 		.4byte	state_rf
 14948 0bdb 1A       		.uleb128 0x1a
 14949 0bdc 90050000 		.4byte	.LASF138
 14950 0be0 01       		.byte	0x1
 14951 0be1 3E       		.byte	0x3e
 14952 0be2 8C000000 		.4byte	0x8c
 14953 0be6 05       		.uleb128 0x5
 14954 0be7 03       		.byte	0x3
 14955 0be8 00000000 		.4byte	timeout_autorizacion
 14956 0bec 1A       		.uleb128 0x1a
 14957 0bed 51000000 		.4byte	.LASF139
 14958 0bf1 01       		.byte	0x1
 14959 0bf2 3F       		.byte	0x3f
 14960 0bf3 81000000 		.4byte	0x81
 14961 0bf7 05       		.uleb128 0x5
 14962 0bf8 03       		.byte	0x3
 14963 0bf9 00000000 		.4byte	estado_tanqueando
 14964 0bfd 1A       		.uleb128 0x1a
 14965 0bfe 97060000 		.4byte	.LASF140
 14966 0c02 01       		.byte	0x1
 14967 0c03 40       		.byte	0x40
 14968 0c04 81000000 		.4byte	0x81
 14969 0c08 05       		.uleb128 0x5
ARM GAS  C:\Users\RECEPC~1\AppData\Local\Temp\ccU7e2eq.s 			page 321


 14970 0c09 03       		.byte	0x3
 14971 0c0a 00000000 		.4byte	consulta_sistema
 14972 0c0e 1A       		.uleb128 0x1a
 14973 0c0f E9050000 		.4byte	.LASF141
 14974 0c13 01       		.byte	0x1
 14975 0c14 41       		.byte	0x41
 14976 0c15 CD000000 		.4byte	0xcd
 14977 0c19 05       		.uleb128 0x5
 14978 0c1a 03       		.byte	0x3
 14979 0c1b 00000000 		.4byte	clave_local
 14980 0c1f 1A       		.uleb128 0x1a
 14981 0c20 1A010000 		.4byte	.LASF142
 14982 0c24 01       		.byte	0x1
 14983 0c25 42       		.byte	0x42
 14984 0c26 81000000 		.4byte	0x81
 14985 0c2a 05       		.uleb128 0x5
 14986 0c2b 03       		.byte	0x3
 14987 0c2c 00000000 		.4byte	v_digitos_1
 14988 0c30 1A       		.uleb128 0x1a
 14989 0c31 F4000000 		.4byte	.LASF143
 14990 0c35 01       		.byte	0x1
 14991 0c36 43       		.byte	0x43
 14992 0c37 81000000 		.4byte	0x81
 14993 0c3b 05       		.uleb128 0x5
 14994 0c3c 03       		.byte	0x3
 14995 0c3d 00000000 		.4byte	ppuinicial
 14996 0c41 1A       		.uleb128 0x1a
 14997 0c42 36060000 		.4byte	.LASF144
 14998 0c46 01       		.byte	0x1
 14999 0c47 44       		.byte	0x44
 15000 0c48 81000000 		.4byte	0x81
 15001 0c4c 05       		.uleb128 0x5
 15002 0c4d 03       		.byte	0x3
 15003 0c4e 00000000 		.4byte	Producto
 15004 0c52 1A       		.uleb128 0x1a
 15005 0c53 3C040000 		.4byte	.LASF145
 15006 0c57 01       		.byte	0x1
 15007 0c58 45       		.byte	0x45
 15008 0c59 CD000000 		.4byte	0xcd
 15009 0c5d 05       		.uleb128 0x5
 15010 0c5e 03       		.byte	0x3
 15011 0c5f 00000000 		.4byte	Productos
 15012 0c63 1A       		.uleb128 0x1a
 15013 0c64 DF040000 		.4byte	.LASF146
 15014 0c68 01       		.byte	0x1
 15015 0c69 46       		.byte	0x46
 15016 0c6a 81000000 		.4byte	0x81
 15017 0c6e 05       		.uleb128 0x5
 15018 0c6f 03       		.byte	0x3
 15019 0c70 00000000 		.4byte	producto1
 15020 0c74 1A       		.uleb128 0x1a
 15021 0c75 E9040000 		.4byte	.LASF147
 15022 0c79 01       		.byte	0x1
 15023 0c7a 46       		.byte	0x46
 15024 0c7b 81000000 		.4byte	0x81
 15025 0c7f 05       		.uleb128 0x5
 15026 0c80 03       		.byte	0x3
ARM GAS  C:\Users\RECEPC~1\AppData\Local\Temp\ccU7e2eq.s 			page 322


 15027 0c81 00000000 		.4byte	producto2
 15028 0c85 1A       		.uleb128 0x1a
 15029 0c86 F3040000 		.4byte	.LASF148
 15030 0c8a 01       		.byte	0x1
 15031 0c8b 46       		.byte	0x46
 15032 0c8c 81000000 		.4byte	0x81
 15033 0c90 05       		.uleb128 0x5
 15034 0c91 03       		.byte	0x3
 15035 0c92 00000000 		.4byte	producto3
 15036 0c96 1A       		.uleb128 0x1a
 15037 0c97 FD040000 		.4byte	.LASF149
 15038 0c9b 01       		.byte	0x1
 15039 0c9c 46       		.byte	0x46
 15040 0c9d 81000000 		.4byte	0x81
 15041 0ca1 05       		.uleb128 0x5
 15042 0ca2 03       		.byte	0x3
 15043 0ca3 00000000 		.4byte	producto4
 15044 0ca7 1A       		.uleb128 0x1a
 15045 0ca8 4D050000 		.4byte	.LASF150
 15046 0cac 01       		.byte	0x1
 15047 0cad 47       		.byte	0x47
 15048 0cae 81000000 		.4byte	0x81
 15049 0cb2 05       		.uleb128 0x5
 15050 0cb3 03       		.byte	0x3
 15051 0cb4 00000000 		.4byte	status1LP
 15052 0cb8 1A       		.uleb128 0x1a
 15053 0cb9 11040000 		.4byte	.LASF151
 15054 0cbd 01       		.byte	0x1
 15055 0cbe 47       		.byte	0x47
 15056 0cbf 81000000 		.4byte	0x81
 15057 0cc3 05       		.uleb128 0x5
 15058 0cc4 03       		.byte	0x3
 15059 0cc5 00000000 		.4byte	status2LP
 15060 0cc9 1A       		.uleb128 0x1a
 15061 0cca 8D060000 		.4byte	.LASF152
 15062 0cce 01       		.byte	0x1
 15063 0ccf 47       		.byte	0x47
 15064 0cd0 81000000 		.4byte	0x81
 15065 0cd4 05       		.uleb128 0x5
 15066 0cd5 03       		.byte	0x3
 15067 0cd6 00000000 		.4byte	status1st
 15068 0cda 1A       		.uleb128 0x1a
 15069 0cdb 43050000 		.4byte	.LASF153
 15070 0cdf 01       		.byte	0x1
 15071 0ce0 47       		.byte	0x47
 15072 0ce1 81000000 		.4byte	0x81
 15073 0ce5 05       		.uleb128 0x5
 15074 0ce6 03       		.byte	0x3
 15075 0ce7 00000000 		.4byte	status2st
 15076 0ceb 00       		.byte	0
 15077              		.section	.debug_abbrev,"",%progbits
 15078              	.Ldebug_abbrev0:
 15079 0000 01       		.uleb128 0x1
 15080 0001 11       		.uleb128 0x11
 15081 0002 01       		.byte	0x1
 15082 0003 25       		.uleb128 0x25
 15083 0004 0E       		.uleb128 0xe
ARM GAS  C:\Users\RECEPC~1\AppData\Local\Temp\ccU7e2eq.s 			page 323


 15084 0005 13       		.uleb128 0x13
 15085 0006 0B       		.uleb128 0xb
 15086 0007 03       		.uleb128 0x3
 15087 0008 0E       		.uleb128 0xe
 15088 0009 1B       		.uleb128 0x1b
 15089 000a 0E       		.uleb128 0xe
 15090 000b 55       		.uleb128 0x55
 15091 000c 17       		.uleb128 0x17
 15092 000d 11       		.uleb128 0x11
 15093 000e 01       		.uleb128 0x1
 15094 000f 10       		.uleb128 0x10
 15095 0010 17       		.uleb128 0x17
 15096 0011 00       		.byte	0
 15097 0012 00       		.byte	0
 15098 0013 02       		.uleb128 0x2
 15099 0014 24       		.uleb128 0x24
 15100 0015 00       		.byte	0
 15101 0016 0B       		.uleb128 0xb
 15102 0017 0B       		.uleb128 0xb
 15103 0018 3E       		.uleb128 0x3e
 15104 0019 0B       		.uleb128 0xb
 15105 001a 03       		.uleb128 0x3
 15106 001b 0E       		.uleb128 0xe
 15107 001c 00       		.byte	0
 15108 001d 00       		.byte	0
 15109 001e 03       		.uleb128 0x3
 15110 001f 16       		.uleb128 0x16
 15111 0020 00       		.byte	0
 15112 0021 03       		.uleb128 0x3
 15113 0022 0E       		.uleb128 0xe
 15114 0023 3A       		.uleb128 0x3a
 15115 0024 0B       		.uleb128 0xb
 15116 0025 3B       		.uleb128 0x3b
 15117 0026 0B       		.uleb128 0xb
 15118 0027 49       		.uleb128 0x49
 15119 0028 13       		.uleb128 0x13
 15120 0029 00       		.byte	0
 15121 002a 00       		.byte	0
 15122 002b 04       		.uleb128 0x4
 15123 002c 24       		.uleb128 0x24
 15124 002d 00       		.byte	0
 15125 002e 0B       		.uleb128 0xb
 15126 002f 0B       		.uleb128 0xb
 15127 0030 3E       		.uleb128 0x3e
 15128 0031 0B       		.uleb128 0xb
 15129 0032 03       		.uleb128 0x3
 15130 0033 08       		.uleb128 0x8
 15131 0034 00       		.byte	0
 15132 0035 00       		.byte	0
 15133 0036 05       		.uleb128 0x5
 15134 0037 35       		.uleb128 0x35
 15135 0038 00       		.byte	0
 15136 0039 49       		.uleb128 0x49
 15137 003a 13       		.uleb128 0x13
 15138 003b 00       		.byte	0
 15139 003c 00       		.byte	0
 15140 003d 06       		.uleb128 0x6
ARM GAS  C:\Users\RECEPC~1\AppData\Local\Temp\ccU7e2eq.s 			page 324


 15141 003e 01       		.uleb128 0x1
 15142 003f 01       		.byte	0x1
 15143 0040 49       		.uleb128 0x49
 15144 0041 13       		.uleb128 0x13
 15145 0042 01       		.uleb128 0x1
 15146 0043 13       		.uleb128 0x13
 15147 0044 00       		.byte	0
 15148 0045 00       		.byte	0
 15149 0046 07       		.uleb128 0x7
 15150 0047 21       		.uleb128 0x21
 15151 0048 00       		.byte	0
 15152 0049 49       		.uleb128 0x49
 15153 004a 13       		.uleb128 0x13
 15154 004b 2F       		.uleb128 0x2f
 15155 004c 0B       		.uleb128 0xb
 15156 004d 00       		.byte	0
 15157 004e 00       		.byte	0
 15158 004f 08       		.uleb128 0x8
 15159 0050 13       		.uleb128 0x13
 15160 0051 01       		.byte	0x1
 15161 0052 03       		.uleb128 0x3
 15162 0053 0E       		.uleb128 0xe
 15163 0054 0B       		.uleb128 0xb
 15164 0055 0B       		.uleb128 0xb
 15165 0056 3A       		.uleb128 0x3a
 15166 0057 0B       		.uleb128 0xb
 15167 0058 3B       		.uleb128 0x3b
 15168 0059 0B       		.uleb128 0xb
 15169 005a 01       		.uleb128 0x1
 15170 005b 13       		.uleb128 0x13
 15171 005c 00       		.byte	0
 15172 005d 00       		.byte	0
 15173 005e 09       		.uleb128 0x9
 15174 005f 0D       		.uleb128 0xd
 15175 0060 00       		.byte	0
 15176 0061 03       		.uleb128 0x3
 15177 0062 08       		.uleb128 0x8
 15178 0063 3A       		.uleb128 0x3a
 15179 0064 0B       		.uleb128 0xb
 15180 0065 3B       		.uleb128 0x3b
 15181 0066 0B       		.uleb128 0xb
 15182 0067 49       		.uleb128 0x49
 15183 0068 13       		.uleb128 0x13
 15184 0069 38       		.uleb128 0x38
 15185 006a 0B       		.uleb128 0xb
 15186 006b 00       		.byte	0
 15187 006c 00       		.byte	0
 15188 006d 0A       		.uleb128 0xa
 15189 006e 0D       		.uleb128 0xd
 15190 006f 00       		.byte	0
 15191 0070 03       		.uleb128 0x3
 15192 0071 0E       		.uleb128 0xe
 15193 0072 3A       		.uleb128 0x3a
 15194 0073 0B       		.uleb128 0xb
 15195 0074 3B       		.uleb128 0x3b
 15196 0075 0B       		.uleb128 0xb
 15197 0076 49       		.uleb128 0x49
ARM GAS  C:\Users\RECEPC~1\AppData\Local\Temp\ccU7e2eq.s 			page 325


 15198 0077 13       		.uleb128 0x13
 15199 0078 38       		.uleb128 0x38
 15200 0079 0B       		.uleb128 0xb
 15201 007a 00       		.byte	0
 15202 007b 00       		.byte	0
 15203 007c 0B       		.uleb128 0xb
 15204 007d 2E       		.uleb128 0x2e
 15205 007e 01       		.byte	0x1
 15206 007f 3F       		.uleb128 0x3f
 15207 0080 19       		.uleb128 0x19
 15208 0081 03       		.uleb128 0x3
 15209 0082 0E       		.uleb128 0xe
 15210 0083 3A       		.uleb128 0x3a
 15211 0084 0B       		.uleb128 0xb
 15212 0085 3B       		.uleb128 0x3b
 15213 0086 0B       		.uleb128 0xb
 15214 0087 27       		.uleb128 0x27
 15215 0088 19       		.uleb128 0x19
 15216 0089 11       		.uleb128 0x11
 15217 008a 01       		.uleb128 0x1
 15218 008b 12       		.uleb128 0x12
 15219 008c 06       		.uleb128 0x6
 15220 008d 40       		.uleb128 0x40
 15221 008e 18       		.uleb128 0x18
 15222 008f 9642     		.uleb128 0x2116
 15223 0091 19       		.uleb128 0x19
 15224 0092 01       		.uleb128 0x1
 15225 0093 13       		.uleb128 0x13
 15226 0094 00       		.byte	0
 15227 0095 00       		.byte	0
 15228 0096 0C       		.uleb128 0xc
 15229 0097 34       		.uleb128 0x34
 15230 0098 00       		.byte	0
 15231 0099 03       		.uleb128 0x3
 15232 009a 08       		.uleb128 0x8
 15233 009b 3A       		.uleb128 0x3a
 15234 009c 0B       		.uleb128 0xb
 15235 009d 3B       		.uleb128 0x3b
 15236 009e 0B       		.uleb128 0xb
 15237 009f 49       		.uleb128 0x49
 15238 00a0 13       		.uleb128 0x13
 15239 00a1 02       		.uleb128 0x2
 15240 00a2 18       		.uleb128 0x18
 15241 00a3 00       		.byte	0
 15242 00a4 00       		.byte	0
 15243 00a5 0D       		.uleb128 0xd
 15244 00a6 2E       		.uleb128 0x2e
 15245 00a7 01       		.byte	0x1
 15246 00a8 3F       		.uleb128 0x3f
 15247 00a9 19       		.uleb128 0x19
 15248 00aa 03       		.uleb128 0x3
 15249 00ab 0E       		.uleb128 0xe
 15250 00ac 3A       		.uleb128 0x3a
 15251 00ad 0B       		.uleb128 0xb
 15252 00ae 3B       		.uleb128 0x3b
 15253 00af 0B       		.uleb128 0xb
 15254 00b0 27       		.uleb128 0x27
ARM GAS  C:\Users\RECEPC~1\AppData\Local\Temp\ccU7e2eq.s 			page 326


 15255 00b1 19       		.uleb128 0x19
 15256 00b2 49       		.uleb128 0x49
 15257 00b3 13       		.uleb128 0x13
 15258 00b4 11       		.uleb128 0x11
 15259 00b5 01       		.uleb128 0x1
 15260 00b6 12       		.uleb128 0x12
 15261 00b7 06       		.uleb128 0x6
 15262 00b8 40       		.uleb128 0x40
 15263 00b9 18       		.uleb128 0x18
 15264 00ba 9642     		.uleb128 0x2116
 15265 00bc 19       		.uleb128 0x19
 15266 00bd 01       		.uleb128 0x1
 15267 00be 13       		.uleb128 0x13
 15268 00bf 00       		.byte	0
 15269 00c0 00       		.byte	0
 15270 00c1 0E       		.uleb128 0xe
 15271 00c2 05       		.uleb128 0x5
 15272 00c3 00       		.byte	0
 15273 00c4 03       		.uleb128 0x3
 15274 00c5 0E       		.uleb128 0xe
 15275 00c6 3A       		.uleb128 0x3a
 15276 00c7 0B       		.uleb128 0xb
 15277 00c8 3B       		.uleb128 0x3b
 15278 00c9 0B       		.uleb128 0xb
 15279 00ca 49       		.uleb128 0x49
 15280 00cb 13       		.uleb128 0x13
 15281 00cc 02       		.uleb128 0x2
 15282 00cd 18       		.uleb128 0x18
 15283 00ce 00       		.byte	0
 15284 00cf 00       		.byte	0
 15285 00d0 0F       		.uleb128 0xf
 15286 00d1 34       		.uleb128 0x34
 15287 00d2 00       		.byte	0
 15288 00d3 03       		.uleb128 0x3
 15289 00d4 0E       		.uleb128 0xe
 15290 00d5 3A       		.uleb128 0x3a
 15291 00d6 0B       		.uleb128 0xb
 15292 00d7 3B       		.uleb128 0x3b
 15293 00d8 0B       		.uleb128 0xb
 15294 00d9 49       		.uleb128 0x49
 15295 00da 13       		.uleb128 0x13
 15296 00db 02       		.uleb128 0x2
 15297 00dc 18       		.uleb128 0x18
 15298 00dd 00       		.byte	0
 15299 00de 00       		.byte	0
 15300 00df 10       		.uleb128 0x10
 15301 00e0 0F       		.uleb128 0xf
 15302 00e1 00       		.byte	0
 15303 00e2 0B       		.uleb128 0xb
 15304 00e3 0B       		.uleb128 0xb
 15305 00e4 49       		.uleb128 0x49
 15306 00e5 13       		.uleb128 0x13
 15307 00e6 00       		.byte	0
 15308 00e7 00       		.byte	0
 15309 00e8 11       		.uleb128 0x11
 15310 00e9 05       		.uleb128 0x5
 15311 00ea 00       		.byte	0
ARM GAS  C:\Users\RECEPC~1\AppData\Local\Temp\ccU7e2eq.s 			page 327


 15312 00eb 03       		.uleb128 0x3
 15313 00ec 08       		.uleb128 0x8
 15314 00ed 3A       		.uleb128 0x3a
 15315 00ee 0B       		.uleb128 0xb
 15316 00ef 3B       		.uleb128 0x3b
 15317 00f0 0B       		.uleb128 0xb
 15318 00f1 49       		.uleb128 0x49
 15319 00f2 13       		.uleb128 0x13
 15320 00f3 02       		.uleb128 0x2
 15321 00f4 18       		.uleb128 0x18
 15322 00f5 00       		.byte	0
 15323 00f6 00       		.byte	0
 15324 00f7 12       		.uleb128 0x12
 15325 00f8 2E       		.uleb128 0x2e
 15326 00f9 01       		.byte	0x1
 15327 00fa 3F       		.uleb128 0x3f
 15328 00fb 19       		.uleb128 0x19
 15329 00fc 03       		.uleb128 0x3
 15330 00fd 0E       		.uleb128 0xe
 15331 00fe 3A       		.uleb128 0x3a
 15332 00ff 0B       		.uleb128 0xb
 15333 0100 3B       		.uleb128 0x3b
 15334 0101 05       		.uleb128 0x5
 15335 0102 27       		.uleb128 0x27
 15336 0103 19       		.uleb128 0x19
 15337 0104 11       		.uleb128 0x11
 15338 0105 01       		.uleb128 0x1
 15339 0106 12       		.uleb128 0x12
 15340 0107 06       		.uleb128 0x6
 15341 0108 40       		.uleb128 0x40
 15342 0109 18       		.uleb128 0x18
 15343 010a 9642     		.uleb128 0x2116
 15344 010c 19       		.uleb128 0x19
 15345 010d 01       		.uleb128 0x1
 15346 010e 13       		.uleb128 0x13
 15347 010f 00       		.byte	0
 15348 0110 00       		.byte	0
 15349 0111 13       		.uleb128 0x13
 15350 0112 34       		.uleb128 0x34
 15351 0113 00       		.byte	0
 15352 0114 03       		.uleb128 0x3
 15353 0115 0E       		.uleb128 0xe
 15354 0116 3A       		.uleb128 0x3a
 15355 0117 0B       		.uleb128 0xb
 15356 0118 3B       		.uleb128 0x3b
 15357 0119 05       		.uleb128 0x5
 15358 011a 49       		.uleb128 0x49
 15359 011b 13       		.uleb128 0x13
 15360 011c 02       		.uleb128 0x2
 15361 011d 18       		.uleb128 0x18
 15362 011e 00       		.byte	0
 15363 011f 00       		.byte	0
 15364 0120 14       		.uleb128 0x14
 15365 0121 34       		.uleb128 0x34
 15366 0122 00       		.byte	0
 15367 0123 03       		.uleb128 0x3
 15368 0124 08       		.uleb128 0x8
ARM GAS  C:\Users\RECEPC~1\AppData\Local\Temp\ccU7e2eq.s 			page 328


 15369 0125 3A       		.uleb128 0x3a
 15370 0126 0B       		.uleb128 0xb
 15371 0127 3B       		.uleb128 0x3b
 15372 0128 05       		.uleb128 0x5
 15373 0129 49       		.uleb128 0x49
 15374 012a 13       		.uleb128 0x13
 15375 012b 02       		.uleb128 0x2
 15376 012c 18       		.uleb128 0x18
 15377 012d 00       		.byte	0
 15378 012e 00       		.byte	0
 15379 012f 15       		.uleb128 0x15
 15380 0130 2E       		.uleb128 0x2e
 15381 0131 00       		.byte	0
 15382 0132 3F       		.uleb128 0x3f
 15383 0133 19       		.uleb128 0x19
 15384 0134 03       		.uleb128 0x3
 15385 0135 0E       		.uleb128 0xe
 15386 0136 3A       		.uleb128 0x3a
 15387 0137 0B       		.uleb128 0xb
 15388 0138 3B       		.uleb128 0x3b
 15389 0139 05       		.uleb128 0x5
 15390 013a 27       		.uleb128 0x27
 15391 013b 19       		.uleb128 0x19
 15392 013c 11       		.uleb128 0x11
 15393 013d 01       		.uleb128 0x1
 15394 013e 12       		.uleb128 0x12
 15395 013f 06       		.uleb128 0x6
 15396 0140 40       		.uleb128 0x40
 15397 0141 18       		.uleb128 0x18
 15398 0142 9742     		.uleb128 0x2117
 15399 0144 19       		.uleb128 0x19
 15400 0145 00       		.byte	0
 15401 0146 00       		.byte	0
 15402 0147 16       		.uleb128 0x16
 15403 0148 2E       		.uleb128 0x2e
 15404 0149 00       		.byte	0
 15405 014a 3F       		.uleb128 0x3f
 15406 014b 19       		.uleb128 0x19
 15407 014c 03       		.uleb128 0x3
 15408 014d 0E       		.uleb128 0xe
 15409 014e 3A       		.uleb128 0x3a
 15410 014f 0B       		.uleb128 0xb
 15411 0150 3B       		.uleb128 0x3b
 15412 0151 05       		.uleb128 0x5
 15413 0152 27       		.uleb128 0x27
 15414 0153 19       		.uleb128 0x19
 15415 0154 11       		.uleb128 0x11
 15416 0155 01       		.uleb128 0x1
 15417 0156 12       		.uleb128 0x12
 15418 0157 06       		.uleb128 0x6
 15419 0158 40       		.uleb128 0x40
 15420 0159 18       		.uleb128 0x18
 15421 015a 9642     		.uleb128 0x2116
 15422 015c 19       		.uleb128 0x19
 15423 015d 00       		.byte	0
 15424 015e 00       		.byte	0
 15425 015f 17       		.uleb128 0x17
ARM GAS  C:\Users\RECEPC~1\AppData\Local\Temp\ccU7e2eq.s 			page 329


 15426 0160 2E       		.uleb128 0x2e
 15427 0161 00       		.byte	0
 15428 0162 3F       		.uleb128 0x3f
 15429 0163 19       		.uleb128 0x19
 15430 0164 03       		.uleb128 0x3
 15431 0165 0E       		.uleb128 0xe
 15432 0166 3A       		.uleb128 0x3a
 15433 0167 0B       		.uleb128 0xb
 15434 0168 3B       		.uleb128 0x3b
 15435 0169 05       		.uleb128 0x5
 15436 016a 49       		.uleb128 0x49
 15437 016b 13       		.uleb128 0x13
 15438 016c 11       		.uleb128 0x11
 15439 016d 01       		.uleb128 0x1
 15440 016e 12       		.uleb128 0x12
 15441 016f 06       		.uleb128 0x6
 15442 0170 40       		.uleb128 0x40
 15443 0171 18       		.uleb128 0x18
 15444 0172 9642     		.uleb128 0x2116
 15445 0174 19       		.uleb128 0x19
 15446 0175 00       		.byte	0
 15447 0176 00       		.byte	0
 15448 0177 18       		.uleb128 0x18
 15449 0178 34       		.uleb128 0x34
 15450 0179 00       		.byte	0
 15451 017a 03       		.uleb128 0x3
 15452 017b 0E       		.uleb128 0xe
 15453 017c 3A       		.uleb128 0x3a
 15454 017d 0B       		.uleb128 0xb
 15455 017e 3B       		.uleb128 0x3b
 15456 017f 05       		.uleb128 0x5
 15457 0180 49       		.uleb128 0x49
 15458 0181 13       		.uleb128 0x13
 15459 0182 3F       		.uleb128 0x3f
 15460 0183 19       		.uleb128 0x19
 15461 0184 3C       		.uleb128 0x3c
 15462 0185 19       		.uleb128 0x19
 15463 0186 00       		.byte	0
 15464 0187 00       		.byte	0
 15465 0188 19       		.uleb128 0x19
 15466 0189 21       		.uleb128 0x21
 15467 018a 00       		.byte	0
 15468 018b 49       		.uleb128 0x49
 15469 018c 13       		.uleb128 0x13
 15470 018d 2F       		.uleb128 0x2f
 15471 018e 05       		.uleb128 0x5
 15472 018f 00       		.byte	0
 15473 0190 00       		.byte	0
 15474 0191 1A       		.uleb128 0x1a
 15475 0192 34       		.uleb128 0x34
 15476 0193 00       		.byte	0
 15477 0194 03       		.uleb128 0x3
 15478 0195 0E       		.uleb128 0xe
 15479 0196 3A       		.uleb128 0x3a
 15480 0197 0B       		.uleb128 0xb
 15481 0198 3B       		.uleb128 0x3b
 15482 0199 0B       		.uleb128 0xb
ARM GAS  C:\Users\RECEPC~1\AppData\Local\Temp\ccU7e2eq.s 			page 330


 15483 019a 49       		.uleb128 0x49
 15484 019b 13       		.uleb128 0x13
 15485 019c 3F       		.uleb128 0x3f
 15486 019d 19       		.uleb128 0x19
 15487 019e 02       		.uleb128 0x2
 15488 019f 18       		.uleb128 0x18
 15489 01a0 00       		.byte	0
 15490 01a1 00       		.byte	0
 15491 01a2 1B       		.uleb128 0x1b
 15492 01a3 34       		.uleb128 0x34
 15493 01a4 00       		.byte	0
 15494 01a5 03       		.uleb128 0x3
 15495 01a6 08       		.uleb128 0x8
 15496 01a7 3A       		.uleb128 0x3a
 15497 01a8 0B       		.uleb128 0xb
 15498 01a9 3B       		.uleb128 0x3b
 15499 01aa 0B       		.uleb128 0xb
 15500 01ab 49       		.uleb128 0x49
 15501 01ac 13       		.uleb128 0x13
 15502 01ad 3F       		.uleb128 0x3f
 15503 01ae 19       		.uleb128 0x19
 15504 01af 02       		.uleb128 0x2
 15505 01b0 18       		.uleb128 0x18
 15506 01b1 00       		.byte	0
 15507 01b2 00       		.byte	0
 15508 01b3 00       		.byte	0
 15509              		.section	.debug_aranges,"",%progbits
 15510 0000 84000000 		.4byte	0x84
 15511 0004 0200     		.2byte	0x2
 15512 0006 00000000 		.4byte	.Ldebug_info0
 15513 000a 04       		.byte	0x4
 15514 000b 00       		.byte	0
 15515 000c 0000     		.2byte	0
 15516 000e 0000     		.2byte	0
 15517 0010 00000000 		.4byte	.LFB63
 15518 0014 28020000 		.4byte	.LFE63-.LFB63
 15519 0018 00000000 		.4byte	.LFB64
 15520 001c 84000000 		.4byte	.LFE64-.LFB64
 15521 0020 00000000 		.4byte	.LFB65
 15522 0024 90000000 		.4byte	.LFE65-.LFB65
 15523 0028 00000000 		.4byte	.LFB66
 15524 002c 30030000 		.4byte	.LFE66-.LFB66
 15525 0030 00000000 		.4byte	.LFB67
 15526 0034 5C0B0000 		.4byte	.LFE67-.LFB67
 15527 0038 00000000 		.4byte	.LFB68
 15528 003c 0C000000 		.4byte	.LFE68-.LFB68
 15529 0040 00000000 		.4byte	.LFB69
 15530 0044 184A0000 		.4byte	.LFE69-.LFB69
 15531 0048 00000000 		.4byte	.LFB70
 15532 004c 0C000000 		.4byte	.LFE70-.LFB70
 15533 0050 00000000 		.4byte	.LFB71
 15534 0054 0C000000 		.4byte	.LFE71-.LFB71
 15535 0058 00000000 		.4byte	.LFB72
 15536 005c 74000000 		.4byte	.LFE72-.LFB72
 15537 0060 00000000 		.4byte	.LFB73
 15538 0064 74000000 		.4byte	.LFE73-.LFB73
 15539 0068 00000000 		.4byte	.LFB74
ARM GAS  C:\Users\RECEPC~1\AppData\Local\Temp\ccU7e2eq.s 			page 331


 15540 006c 54000000 		.4byte	.LFE74-.LFB74
 15541 0070 00000000 		.4byte	.LFB75
 15542 0074 38000000 		.4byte	.LFE75-.LFB75
 15543 0078 00000000 		.4byte	.LFB76
 15544 007c 26000000 		.4byte	.LFE76-.LFB76
 15545 0080 00000000 		.4byte	0
 15546 0084 00000000 		.4byte	0
 15547              		.section	.debug_ranges,"",%progbits
 15548              	.Ldebug_ranges0:
 15549 0000 00000000 		.4byte	.LFB63
 15550 0004 28020000 		.4byte	.LFE63
 15551 0008 00000000 		.4byte	.LFB64
 15552 000c 84000000 		.4byte	.LFE64
 15553 0010 00000000 		.4byte	.LFB65
 15554 0014 90000000 		.4byte	.LFE65
 15555 0018 00000000 		.4byte	.LFB66
 15556 001c 30030000 		.4byte	.LFE66
 15557 0020 00000000 		.4byte	.LFB67
 15558 0024 5C0B0000 		.4byte	.LFE67
 15559 0028 00000000 		.4byte	.LFB68
 15560 002c 0C000000 		.4byte	.LFE68
 15561 0030 00000000 		.4byte	.LFB69
 15562 0034 184A0000 		.4byte	.LFE69
 15563 0038 00000000 		.4byte	.LFB70
 15564 003c 0C000000 		.4byte	.LFE70
 15565 0040 00000000 		.4byte	.LFB71
 15566 0044 0C000000 		.4byte	.LFE71
 15567 0048 00000000 		.4byte	.LFB72
 15568 004c 74000000 		.4byte	.LFE72
 15569 0050 00000000 		.4byte	.LFB73
 15570 0054 74000000 		.4byte	.LFE73
 15571 0058 00000000 		.4byte	.LFB74
 15572 005c 54000000 		.4byte	.LFE74
 15573 0060 00000000 		.4byte	.LFB75
 15574 0064 38000000 		.4byte	.LFE75
 15575 0068 00000000 		.4byte	.LFB76
 15576 006c 26000000 		.4byte	.LFE76
 15577 0070 00000000 		.4byte	0
 15578 0074 00000000 		.4byte	0
 15579              		.section	.debug_line,"",%progbits
 15580              	.Ldebug_line0:
 15581 0000 C1120000 		.section	.debug_str,"MS",%progbits,1
 15581      02006E01 
 15581      00000201 
 15581      FB0E0D00 
 15581      01010101 
 15582              	.LASF35:
 15583 0000 70617373 		.ascii	"password\000"
 15583      776F7264 
 15583      00
 15584              	.LASF48:
 15585 0009 706F6C6C 		.ascii	"polling_rf\000"
 15585      696E675F 
 15585      726600
 15586              	.LASF50:
 15587 0014 73746174 		.ascii	"status2\000"
 15587      75733200 
ARM GAS  C:\Users\RECEPC~1\AppData\Local\Temp\ccU7e2eq.s 			page 332


 15588              	.LASF55:
 15589 001c 6E756D5F 		.ascii	"num_decimal\000"
 15589      64656369 
 15589      6D616C00 
 15590              	.LASF95:
 15591 0028 636F756E 		.ascii	"count_protector2\000"
 15591      745F7072 
 15591      6F746563 
 15591      746F7232 
 15591      00
 15592              	.LASF110:
 15593 0039 65666563 		.ascii	"efectivo\000"
 15593      7469766F 
 15593      00
 15594              	.LASF65:
 15595 0042 4C43445F 		.ascii	"LCD_1_rxBuffer\000"
 15595      315F7278 
 15595      42756666 
 15595      657200
 15596              	.LASF139:
 15597 0051 65737461 		.ascii	"estado_tanqueando\000"
 15597      646F5F74 
 15597      616E7175 
 15597      65616E64 
 15597      6F00
 15598              	.LASF156:
 15599 0063 433A5C55 		.ascii	"C:\\Users\\Recepcion\\Documents\\Prueba_GRPFleet\\B"
 15599      73657273 
 15599      5C526563 
 15599      65706369 
 15599      6F6E5C44 
 15600 0091 42422E63 		.ascii	"BB.cydsn\000"
 15600      7964736E 
 15600      00
 15601              	.LASF71:
 15602 009a 69645F63 		.ascii	"id_coma1\000"
 15602      6F6D6131 
 15602      00
 15603              	.LASF74:
 15604 00a3 69645F63 		.ascii	"id_coma2\000"
 15604      6F6D6132 
 15604      00
 15605              	.LASF135:
 15606 00ac 6E756D5F 		.ascii	"num_decimal2\000"
 15606      64656369 
 15606      6D616C32 
 15606      00
 15607              	.LASF47:
 15608 00b9 696E6974 		.ascii	"init_surt\000"
 15608      5F737572 
 15608      7400
 15609              	.LASF8:
 15610 00c3 756E7369 		.ascii	"unsigned int\000"
 15610      676E6564 
 15610      20696E74 
 15610      00
 15611              	.LASF107:
ARM GAS  C:\Users\RECEPC~1\AppData\Local\Temp\ccU7e2eq.s 			page 333


 15612 00d0 76657273 		.ascii	"version\000"
 15612      696F6E00 
 15613              	.LASF9:
 15614 00d8 5F5F696E 		.ascii	"__int32_t\000"
 15614      7433325F 
 15614      7400
 15615              	.LASF134:
 15616 00e2 74657374 		.ascii	"test\000"
 15616      00
 15617              	.LASF52:
 15618 00e7 70726563 		.ascii	"precio\000"
 15618      696F00
 15619              	.LASF125:
 15620 00ee 6F6B5F52 		.ascii	"ok_RF\000"
 15620      4600
 15621              	.LASF143:
 15622 00f4 70707569 		.ascii	"ppuinicial\000"
 15622      6E696369 
 15622      616C00
 15623              	.LASF122:
 15624 00ff 686F7261 		.ascii	"hora\000"
 15624      00
 15625              	.LASF82:
 15626 0104 7465636C 		.ascii	"teclas1\000"
 15626      61733100 
 15627              	.LASF83:
 15628 010c 7465636C 		.ascii	"teclas2\000"
 15628      61733200 
 15629              	.LASF118:
 15630 0114 6C656D61 		.ascii	"lema1\000"
 15630      3100
 15631              	.LASF142:
 15632 011a 765F6469 		.ascii	"v_digitos_1\000"
 15632      6769746F 
 15632      735F3100 
 15633              	.LASF24:
 15634 0126 706F7369 		.ascii	"posicion\000"
 15634      63696F6E 
 15634      00
 15635              	.LASF123:
 15636 012f 7276656E 		.ascii	"rventa1\000"
 15636      74613100 
 15637              	.LASF124:
 15638 0137 7276656E 		.ascii	"rventa2\000"
 15638      74613200 
 15639              	.LASF117:
 15640 013f 64697265 		.ascii	"direccion\000"
 15640      6363696F 
 15640      6E00
 15641              	.LASF84:
 15642 0149 666C756A 		.ascii	"flujo_LCD1\000"
 15642      6F5F4C43 
 15642      443100
 15643              	.LASF85:
 15644 0154 666C756A 		.ascii	"flujo_LCD2\000"
 15644      6F5F4C43 
 15644      443200
ARM GAS  C:\Users\RECEPC~1\AppData\Local\Temp\ccU7e2eq.s 			page 334


 15645              	.LASF29:
 15646 015f 70726573 		.ascii	"preset\000"
 15646      657400
 15647              	.LASF13:
 15648 0166 666C6F61 		.ascii	"float\000"
 15648      7400
 15649              	.LASF94:
 15650 016c 636F756E 		.ascii	"count_protector\000"
 15650      745F7072 
 15650      6F746563 
 15650      746F7200 
 15651              	.LASF128:
 15652 017c 62756666 		.ascii	"buffer_i2c\000"
 15652      65725F69 
 15652      326300
 15653              	.LASF41:
 15654 0187 63686563 		.ascii	"checksum\000"
 15654      6B73756D 
 15654      00
 15655              	.LASF42:
 15656 0190 696E6465 		.ascii	"index\000"
 15656      7800
 15657              	.LASF119:
 15658 0196 6C656D61 		.ascii	"lema2\000"
 15658      3200
 15659              	.LASF91:
 15660 019c 76656E74 		.ascii	"venta_activa2\000"
 15660      615F6163 
 15660      74697661 
 15660      3200
 15661              	.LASF32:
 15662 01aa 696D7072 		.ascii	"imprimir\000"
 15662      696D6972 
 15662      00
 15663              	.LASF7:
 15664 01b3 6C6F6E67 		.ascii	"long long unsigned int\000"
 15664      206C6F6E 
 15664      6720756E 
 15664      7369676E 
 15664      65642069 
 15665              	.LASF111:
 15666 01ca 6C61646F 		.ascii	"lado1\000"
 15666      3100
 15667              	.LASF90:
 15668 01d0 76656E74 		.ascii	"venta_activa\000"
 15668      615F6163 
 15668      74697661 
 15668      00
 15669              	.LASF113:
 15670 01dd 6C61646F 		.ascii	"lado3\000"
 15670      3300
 15671              	.LASF88:
 15672 01e3 73656C65 		.ascii	"seleccion_pos\000"
 15672      6363696F 
 15672      6E5F706F 
 15672      7300
 15673              	.LASF51:
ARM GAS  C:\Users\RECEPC~1\AppData\Local\Temp\ccU7e2eq.s 			page 335


 15674 01f1 745F7072 		.ascii	"t_preset\000"
 15674      65736574 
 15674      00
 15675              	.LASF132:
 15676 01fa 6C657472 		.ascii	"letras\000"
 15676      617300
 15677              	.LASF31:
 15678 0201 706C6163 		.ascii	"placa\000"
 15678      6100
 15679              	.LASF108:
 15680 0207 6B6D7363 		.ascii	"kmscreen\000"
 15680      7265656E 
 15680      00
 15681              	.LASF56:
 15682 0210 706F6C6C 		.ascii	"polling_surt\000"
 15682      696E675F 
 15682      73757274 
 15682      00
 15683              	.LASF86:
 15684 021d 666C756A 		.ascii	"flujo_pos1\000"
 15684      6F5F706F 
 15684      733100
 15685              	.LASF87:
 15686 0228 666C756A 		.ascii	"flujo_pos2\000"
 15686      6F5F706F 
 15686      733200
 15687              	.LASF137:
 15688 0233 73746174 		.ascii	"state_rf\000"
 15688      655F7266 
 15688      00
 15689              	.LASF136:
 15690 023c 69646175 		.ascii	"idaux\000"
 15690      7800
 15691              	.LASF26:
 15692 0242 766F6C75 		.ascii	"volumen\000"
 15692      6D656E00 
 15693              	.LASF116:
 15694 024a 74656C65 		.ascii	"telefono\000"
 15694      666F6E6F 
 15694      00
 15695              	.LASF72:
 15696 0253 69645F74 		.ascii	"id_teclado1\000"
 15696      65636C61 
 15696      646F3100 
 15697              	.LASF75:
 15698 025f 69645F74 		.ascii	"id_teclado2\000"
 15698      65636C61 
 15698      646F3200 
 15699              	.LASF58:
 15700 026b 706F6C6C 		.ascii	"polling_wd\000"
 15700      696E675F 
 15700      776400
 15701              	.LASF101:
 15702 0276 69645F76 		.ascii	"id_venta\000"
 15702      656E7461 
 15702      00
 15703              	.LASF127:
ARM GAS  C:\Users\RECEPC~1\AppData\Local\Temp\ccU7e2eq.s 			page 336


 15704 027f 72665F6D 		.ascii	"rf_mod\000"
 15704      6F6400
 15705              	.LASF93:
 15706 0286 42756666 		.ascii	"Buffer_LCD2\000"
 15706      65725F4C 
 15706      43443200 
 15707              	.LASF15:
 15708 0292 63686172 		.ascii	"char\000"
 15708      00
 15709              	.LASF99:
 15710 0297 626C6F71 		.ascii	"bloqueo_LCD\000"
 15710      75656F5F 
 15710      4C434400 
 15711              	.LASF43:
 15712 02a3 7461626C 		.ascii	"table\000"
 15712      6500
 15713              	.LASF21:
 15714 02a9 6D616E67 		.ascii	"mangueras\000"
 15714      75657261 
 15714      7300
 15715              	.LASF12:
 15716 02b3 75696E74 		.ascii	"uint16\000"
 15716      313600
 15717              	.LASF49:
 15718 02ba 73746174 		.ascii	"status1\000"
 15718      75733100 
 15719              	.LASF130:
 15720 02c2 7072696E 		.ascii	"print1\000"
 15720      743100
 15721              	.LASF131:
 15722 02c9 7072696E 		.ascii	"print2\000"
 15722      743200
 15723              	.LASF33:
 15724 02d0 7469706F 		.ascii	"tipo_venta\000"
 15724      5F76656E 
 15724      746100
 15725              	.LASF30:
 15726 02db 69645F65 		.ascii	"id_ef\000"
 15726      6600
 15727              	.LASF36:
 15728 02e1 7475726E 		.ascii	"turno\000"
 15728      6F00
 15729              	.LASF39:
 15730 02e7 6461746F 		.ascii	"datos\000"
 15730      7300
 15731              	.LASF19:
 15732 02ed 746F7461 		.ascii	"totales\000"
 15732      6C657300 
 15733              	.LASF96:
 15734 02f5 70617373 		.ascii	"password_lcd\000"
 15734      776F7264 
 15734      5F6C6364 
 15734      00
 15735              	.LASF68:
 15736 0302 636F756E 		.ascii	"count_teclas1\000"
 15736      745F7465 
 15736      636C6173 
ARM GAS  C:\Users\RECEPC~1\AppData\Local\Temp\ccU7e2eq.s 			page 337


 15736      3100
 15737              	.LASF73:
 15738 0310 636F756E 		.ascii	"count_teclas2\000"
 15738      745F7465 
 15738      636C6173 
 15738      3200
 15739              	.LASF76:
 15740 031e 706F7378 		.ascii	"posx1\000"
 15740      3100
 15741              	.LASF157:
 15742 0324 76657269 		.ascii	"verificar_check\000"
 15742      66696361 
 15742      725F6368 
 15742      65636B00 
 15743              	.LASF6:
 15744 0334 6C6F6E67 		.ascii	"long long int\000"
 15744      206C6F6E 
 15744      6720696E 
 15744      7400
 15745              	.LASF79:
 15746 0342 706F7378 		.ascii	"posx2\000"
 15746      3200
 15747              	.LASF27:
 15748 0348 70726F64 		.ascii	"producto\000"
 15748      7563746F 
 15748      00
 15749              	.LASF53:
 15750 0351 706F6C6C 		.ascii	"polling_LCD1\000"
 15750      696E675F 
 15750      4C434431 
 15750      00
 15751              	.LASF57:
 15752 035e 706F6C6C 		.ascii	"polling_LCD2\000"
 15752      696E675F 
 15752      4C434432 
 15752      00
 15753              	.LASF34:
 15754 036b 63656475 		.ascii	"cedula\000"
 15754      6C6100
 15755              	.LASF154:
 15756 0372 474E5520 		.ascii	"GNU C 4.9.3 20150303 (release) [ARM/embedded-4_9-br"
 15756      4320342E 
 15756      392E3320 
 15756      32303135 
 15756      30333033 
 15757 03a5 616E6368 		.ascii	"anch revision 221220] -mcpu=cortex-m3 -mthumb -g -O"
 15757      20726576 
 15757      6973696F 
 15757      6E203232 
 15757      31323230 
 15758 03d8 30202D66 		.ascii	"0 -ffunction-sections -ffat-lto-objects\000"
 15758      66756E63 
 15758      74696F6E 
 15758      2D736563 
 15758      74696F6E 
 15759              	.LASF77:
 15760 0400 706F7379 		.ascii	"posy1\000"
ARM GAS  C:\Users\RECEPC~1\AppData\Local\Temp\ccU7e2eq.s 			page 338


 15760      3100
 15761              	.LASF80:
 15762 0406 706F7379 		.ascii	"posy2\000"
 15762      3200
 15763              	.LASF40:
 15764 040c 73697A65 		.ascii	"size\000"
 15764      00
 15765              	.LASF151:
 15766 0411 73746174 		.ascii	"status2LP\000"
 15766      7573324C 
 15766      5000
 15767              	.LASF23:
 15768 041b 72656369 		.ascii	"recibo\000"
 15768      626F00
 15769              	.LASF25:
 15770 0422 64696E65 		.ascii	"dinero\000"
 15770      726F00
 15771              	.LASF92:
 15772 0429 42756666 		.ascii	"Buffer_LCD1\000"
 15772      65725F4C 
 15772      43443100 
 15773              	.LASF18:
 15774 0435 65737461 		.ascii	"estado\000"
 15774      646F00
 15775              	.LASF145:
 15776 043c 50726F64 		.ascii	"Productos\000"
 15776      7563746F 
 15776      7300
 15777              	.LASF61:
 15778 0446 6D6F646F 		.ascii	"modo_mux\000"
 15778      5F6D7578 
 15778      00
 15779              	.LASF46:
 15780 044f 696D6167 		.ascii	"imagen\000"
 15780      656E00
 15781              	.LASF17:
 15782 0456 6C6F6E67 		.ascii	"long double\000"
 15782      20646F75 
 15782      626C6500 
 15783              	.LASF38:
 15784 0462 70617373 		.ascii	"password_local\000"
 15784      776F7264 
 15784      5F6C6F63 
 15784      616C00
 15785              	.LASF103:
 15786 0471 70707578 		.ascii	"ppux10\000"
 15786      313000
 15787              	.LASF115:
 15788 0478 6E6F6D62 		.ascii	"nombre\000"
 15788      726500
 15789              	.LASF129:
 15790 047f 6372635F 		.ascii	"crc_total\000"
 15790      746F7461 
 15790      6C00
 15791              	.LASF120:
 15792 0489 69645F6C 		.ascii	"id_logo\000"
 15792      6F676F00 
ARM GAS  C:\Users\RECEPC~1\AppData\Local\Temp\ccU7e2eq.s 			page 339


 15793              	.LASF63:
 15794 0491 70726563 		.ascii	"precio_mod\000"
 15794      696F5F6D 
 15794      6F6400
 15795              	.LASF2:
 15796 049c 73686F72 		.ascii	"short int\000"
 15796      7420696E 
 15796      7400
 15797              	.LASF66:
 15798 04a6 50435F72 		.ascii	"PC_rxBuffer\000"
 15798      78427566 
 15798      66657200 
 15799              	.LASF4:
 15800 04b2 6C6F6E67 		.ascii	"long int\000"
 15800      20696E74 
 15800      00
 15801              	.LASF67:
 15802 04bb 49544D5F 		.ascii	"ITM_RxBuffer\000"
 15802      52784275 
 15802      66666572 
 15802      00
 15803              	.LASF22:
 15804 04c8 73757274 		.ascii	"surtidor\000"
 15804      69646F72 
 15804      00
 15805              	.LASF69:
 15806 04d1 636F6D61 		.ascii	"comas1\000"
 15806      733100
 15807              	.LASF70:
 15808 04d8 636F6D61 		.ascii	"comas2\000"
 15808      733200
 15809              	.LASF146:
 15810 04df 70726F64 		.ascii	"producto1\000"
 15810      7563746F 
 15810      3100
 15811              	.LASF147:
 15812 04e9 70726F64 		.ascii	"producto2\000"
 15812      7563746F 
 15812      3200
 15813              	.LASF148:
 15814 04f3 70726F64 		.ascii	"producto3\000"
 15814      7563746F 
 15814      3300
 15815              	.LASF149:
 15816 04fd 70726F64 		.ascii	"producto4\000"
 15816      7563746F 
 15816      3400
 15817              	.LASF59:
 15818 0507 616E696D 		.ascii	"animacion\000"
 15818      6163696F 
 15818      6E00
 15819              	.LASF104:
 15820 0511 6E6F6D62 		.ascii	"nombre_pro1\000"
 15820      72655F70 
 15820      726F3100 
 15821              	.LASF106:
 15822 051d 6E6F6D62 		.ascii	"nombre_pro3\000"
ARM GAS  C:\Users\RECEPC~1\AppData\Local\Temp\ccU7e2eq.s 			page 340


 15822      72655F70 
 15822      726F3300 
 15823              	.LASF62:
 15824 0529 696E7365 		.ascii	"insert_ppuInit\000"
 15824      72745F70 
 15824      7075496E 
 15824      697400
 15825              	.LASF60:
 15826 0538 616E696D 		.ascii	"animacion2\000"
 15826      6163696F 
 15826      6E3200
 15827              	.LASF153:
 15828 0543 73746174 		.ascii	"status2st\000"
 15828      75733273 
 15828      7400
 15829              	.LASF150:
 15830 054d 73746174 		.ascii	"status1LP\000"
 15830      7573314C 
 15830      5000
 15831              	.LASF44:
 15832 0557 696E6974 		.ascii	"init\000"
 15832      00
 15833              	.LASF16:
 15834 055c 73697A65 		.ascii	"sizetype\000"
 15834      74797065 
 15834      00
 15835              	.LASF5:
 15836 0565 6C6F6E67 		.ascii	"long unsigned int\000"
 15836      20756E73 
 15836      69676E65 
 15836      6420696E 
 15836      7400
 15837              	.LASF54:
 15838 0577 6E756D65 		.ascii	"numero\000"
 15838      726F00
 15839              	.LASF10:
 15840 057e 696E7433 		.ascii	"int32_t\000"
 15840      325F7400 
 15841              	.LASF98:
 15842 0586 70726F78 		.ascii	"prox_caso\000"
 15842      5F636173 
 15842      6F00
 15843              	.LASF138:
 15844 0590 74696D65 		.ascii	"timeout_autorizacion\000"
 15844      6F75745F 
 15844      6175746F 
 15844      72697A61 
 15844      63696F6E 
 15845              	.LASF109:
 15846 05a5 70616E74 		.ascii	"pantallas\000"
 15846      616C6C61 
 15846      7300
 15847              	.LASF37:
 15848 05af 6175746F 		.ascii	"autorizado\000"
 15848      72697A61 
 15848      646F00
 15849              	.LASF1:
ARM GAS  C:\Users\RECEPC~1\AppData\Local\Temp\ccU7e2eq.s 			page 341


 15850 05ba 756E7369 		.ascii	"unsigned char\000"
 15850      676E6564 
 15850      20636861 
 15850      7200
 15851              	.LASF89:
 15852 05c8 666C756A 		.ascii	"flujo_pos\000"
 15852      6F5F706F 
 15852      7300
 15853              	.LASF112:
 15854 05d2 6C61646F 		.ascii	"lado2\000"
 15854      3200
 15855              	.LASF114:
 15856 05d8 6C61646F 		.ascii	"lado4\000"
 15856      3400
 15857              	.LASF126:
 15858 05de 6F6B5F64 		.ascii	"ok_datosRF\000"
 15858      61746F73 
 15858      524600
 15859              	.LASF141:
 15860 05e9 636C6176 		.ascii	"clave_local\000"
 15860      655F6C6F 
 15860      63616C00 
 15861              	.LASF133:
 15862 05f5 636C6176 		.ascii	"clave_config\000"
 15862      655F636F 
 15862      6E666967 
 15862      00
 15863              	.LASF105:
 15864 0602 6E6F6D62 		.ascii	"nombre_pro2\000"
 15864      72655F70 
 15864      726F3200 
 15865              	.LASF0:
 15866 060e 7369676E 		.ascii	"signed char\000"
 15866      65642063 
 15866      68617200 
 15867              	.LASF45:
 15868 061a 6572726F 		.ascii	"error_op\000"
 15868      725F6F70 
 15868      00
 15869              	.LASF3:
 15870 0623 73686F72 		.ascii	"short unsigned int\000"
 15870      7420756E 
 15870      7369676E 
 15870      65642069 
 15870      6E7400
 15871              	.LASF144:
 15872 0636 50726F64 		.ascii	"Producto\000"
 15872      7563746F 
 15872      00
 15873              	.LASF64:
 15874 063f 6D61696E 		.ascii	"main\000"
 15874      00
 15875              	.LASF121:
 15876 0644 66656368 		.ascii	"fecha\000"
 15876      6100
 15877              	.LASF11:
 15878 064a 75696E74 		.ascii	"uint8\000"
ARM GAS  C:\Users\RECEPC~1\AppData\Local\Temp\ccU7e2eq.s 			page 342


 15878      3800
 15879              	.LASF14:
 15880 0650 646F7562 		.ascii	"double\000"
 15880      6C6500
 15881              	.LASF102:
 15882 0657 7472616D 		.ascii	"trama_totales\000"
 15882      615F746F 
 15882      74616C65 
 15882      7300
 15883              	.LASF100:
 15884 0665 69645F65 		.ascii	"id_estacion\000"
 15884      73746163 
 15884      696F6E00 
 15885              	.LASF28:
 15886 0671 6D616E67 		.ascii	"manguera\000"
 15886      75657261 
 15886      00
 15887              	.LASF97:
 15888 067a 696D6167 		.ascii	"imagen_grado\000"
 15888      656E5F67 
 15888      7261646F 
 15888      00
 15889              	.LASF20:
 15890 0687 67726164 		.ascii	"grado\000"
 15890      6F00
 15891              	.LASF152:
 15892 068d 73746174 		.ascii	"status1st\000"
 15892      75733173 
 15892      7400
 15893              	.LASF140:
 15894 0697 636F6E73 		.ascii	"consulta_sistema\000"
 15894      756C7461 
 15894      5F736973 
 15894      74656D61 
 15894      00
 15895              	.LASF78:
 15896 06a8 73697A65 		.ascii	"sizeletra1\000"
 15896      6C657472 
 15896      613100
 15897              	.LASF81:
 15898 06b3 73697A65 		.ascii	"sizeletra2\000"
 15898      6C657472 
 15898      613200
 15899              	.LASF155:
 15900 06be 2E5C6D61 		.ascii	".\\main.c\000"
 15900      696E2E63 
 15900      00
 15901              		.ident	"GCC: (GNU Tools for ARM Embedded Processors) 4.9.3 20150303 (release) [ARM/embedded-4_9-br
