ARM GAS  C:\Users\diego\AppData\Local\Temp\ccW8UKJI.s 			page 1


   1              		.syntax unified
   2              		.cpu cortex-m3
   3              		.fpu softvfp
   4              		.eabi_attribute 20, 1
   5              		.eabi_attribute 21, 1
   6              		.eabi_attribute 23, 3
   7              		.eabi_attribute 24, 1
   8              		.eabi_attribute 25, 1
   9              		.eabi_attribute 26, 1
  10              		.eabi_attribute 30, 6
  11              		.eabi_attribute 34, 1
  12              		.eabi_attribute 18, 4
  13              		.thumb
  14              		.file	"main.c"
  15              		.text
  16              	.Ltext0:
  17              		.cfi_sections	.debug_frame
  18              		.comm	count_teclas1,1,1
  19              		.comm	comas1,1,1
  20              		.comm	comas2,1,1
  21              		.comm	id_coma1,1,1
  22              		.comm	id_teclado1,1,1
  23              		.comm	count_teclas2,1,1
  24              		.comm	id_coma2,1,1
  25              		.comm	id_teclado2,1,1
  26              		.comm	posx1,2,2
  27              		.comm	posy1,2,2
  28              		.comm	sizeletra1,2,2
  29              		.comm	posx2,2,2
  30              		.comm	posy2,2,2
  31              		.comm	sizeletra2,2,2
  32              		.comm	teclas1,1,1
  33              		.comm	teclas2,1,1
  34              		.comm	flujo_LCD1,1,1
  35              		.comm	flujo_LCD2,1,1
  36              		.comm	Buffer_LCD1,30,4
  37              		.comm	Buffer_LCD2,30,4
  38              		.comm	count_protector,1,1
  39              		.comm	count_protector2,1,1
  40              		.comm	password_lcd,9,4
  41              		.comm	imagen_grado,2,2
  42              		.comm	prox_caso,8,4
  43              		.comm	bloqueo_LCD,3,4
  44              		.comm	id_estacion,5,4
  45              		.comm	id_venta,8,4
  46              		.comm	trama_totales,200,4
  47              		.comm	ppux10,1,1
  48              		.comm	nombre_pro1,17,4
  49              		.comm	nombre_pro2,17,4
  50              		.comm	nombre_pro3,17,4
  51              		.comm	version,4,4
  52              		.comm	lado1,93,4
  53              		.comm	lado2,93,4
  54              		.comm	nombre,33,4
  55              		.comm	nit,15,4
  56              		.comm	telefono,20,4
  57              		.comm	direccion,33,4
ARM GAS  C:\Users\diego\AppData\Local\Temp\ccW8UKJI.s 			page 2


  58              		.comm	lema1,32,4
  59              		.comm	lema2,32,4
  60              		.comm	id_logo,2,4
  61              		.comm	km,2,4
  62              		.comm	fecha,3,4
  63              		.comm	hora,2,4
  64              		.comm	rventa1,118,4
  65              		.comm	rventa2,118,4
  66              		.comm	ok_RF,1,1
  67              		.comm	ok_datosRF,1,1
  68              		.comm	rf_mod,200,4
  69              		.comm	buffer_i2c,64,4
  70              		.comm	crc_total,1,1
  71              		.comm	print1,2,4
  72              		.comm	print2,2,4
  73              		.comm	tipo_venta,1,1
  74              		.global	letras
  75              		.data
  76              		.align	2
  77              		.type	letras, %object
  78              		.size	letras, 26
  79              	letras:
  80 0000 25       		.byte	37
  81 0001 42       		.byte	66
  82 0002 31       		.byte	49
  83 0003 27       		.byte	39
  84 0004 1D       		.byte	29
  85 0005 28       		.byte	40
  86 0006 29       		.byte	41
  87 0007 2A       		.byte	42
  88 0008 22       		.byte	34
  89 0009 2B       		.byte	43
  90 000a 2C       		.byte	44
  91 000b 2D       		.byte	45
  92 000c 35       		.byte	53
  93 000d 34       		.byte	52
  94 000e 23       		.byte	35
  95 000f 24       		.byte	36
  96 0010 1B       		.byte	27
  97 0011 1E       		.byte	30
  98 0012 26       		.byte	38
  99 0013 1F       		.byte	31
 100 0014 21       		.byte	33
 101 0015 32       		.byte	50
 102 0016 1C       		.byte	28
 103 0017 30       		.byte	48
 104 0018 20       		.byte	32
 105 0019 2F       		.byte	47
 106              		.global	clave_config
 107 001a 0000     		.align	2
 108              		.type	clave_config, %object
 109              		.size	clave_config, 5
 110              	clave_config:
 111 001c 30323431 		.ascii	"02412"
 111      32
 112              		.global	test
 113 0021 000000   		.align	2
ARM GAS  C:\Users\diego\AppData\Local\Temp\ccW8UKJI.s 			page 3


 114              		.type	test, %object
 115              		.size	test, 18
 116              	test:
 117 0024 54657374 		.ascii	"Test de Impresora\000"
 117      20646520 
 117      496D7072 
 117      65736F72 
 117      6100
 118              		.comm	num_decimal2,2,2
 119              		.comm	idaux,8,4
 120              		.comm	state_rf,1,1
 121              		.comm	timeout_autorizacion,2,2
 122              		.comm	estado_tanqueando,1,1
 123              		.global	consulta_sistema
 124              		.type	consulta_sistema, %object
 125              		.size	consulta_sistema, 1
 126              	consulta_sistema:
 127 0036 01       		.byte	1
 128              		.global	clave_local
 129 0037 00       		.align	2
 130              		.type	clave_local, %object
 131              		.size	clave_local, 4
 132              	clave_local:
 133 0038 39       		.byte	57
 134 0039 36       		.byte	54
 135 003a 33       		.byte	51
 136 003b 31       		.byte	49
 137              		.comm	v_digitos_1,1,1
 138              		.global	ppuinicial
 139              		.bss
 140              		.type	ppuinicial, %object
 141              		.size	ppuinicial, 1
 142              	ppuinicial:
 143 0000 00       		.space	1
 144              		.comm	Producto,1,1
 145              		.comm	Productos,4,4
 146              		.global	producto1
 147              		.data
 148              		.type	producto1, %object
 149              		.size	producto1, 1
 150              	producto1:
 151 003c 01       		.byte	1
 152              		.global	producto2
 153              		.type	producto2, %object
 154              		.size	producto2, 1
 155              	producto2:
 156 003d 01       		.byte	1
 157              		.global	producto3
 158              		.type	producto3, %object
 159              		.size	producto3, 1
 160              	producto3:
 161 003e 01       		.byte	1
 162              		.global	producto4
 163              		.type	producto4, %object
 164              		.size	producto4, 1
 165              	producto4:
 166 003f 01       		.byte	1
ARM GAS  C:\Users\diego\AppData\Local\Temp\ccW8UKJI.s 			page 4


 167              		.comm	status1LP,1,1
 168              		.comm	status2LP,1,1
 169              		.comm	status1st,1,1
 170              		.comm	status2st,1,1
 171              		.section	.text.init,"ax",%progbits
 172              		.align	2
 173              		.global	init
 174              		.thumb
 175              		.thumb_func
 176              		.type	init, %function
 177              	init:
 178              	.LFB63:
 179              		.file 1 ".\\main.c"
   1:.\main.c      **** /*
   2:.\main.c      **** ***************************************************************************************************
   3:.\main.c      **** *                                           GRP550M CODE2
   4:.\main.c      **** *
   5:.\main.c      **** *                             (c) Copyright 2013; Sistemas Insepet LTDA
   6:.\main.c      **** *
   7:.\main.c      **** *               All rights reserved.  Protected by international copyright laws.
   8:.\main.c      **** *               Knowledge of the source code may NOT be used to develop a similar product.
   9:.\main.c      **** *               Please help us continue to provide the Embedded community with the finest
  10:.\main.c      **** *               software available.  Your honesty is greatly appreciated.
  11:.\main.c      **** ***************************************************************************************************
  12:.\main.c      **** */
  13:.\main.c      **** 
  14:.\main.c      **** /*
  15:.\main.c      **** ***************************************************************************************************
  16:.\main.c      **** *
  17:.\main.c      **** *                                               GRP550M CODE
  18:.\main.c      **** *
  19:.\main.c      **** *                                             CYPRESS PSoC5LP
  20:.\main.c      **** *                                                with the
  21:.\main.c      **** *                                            CY8C5969AXI-LP035
  22:.\main.c      **** *
  23:.\main.c      **** * Filename      : main.c
  24:.\main.c      **** * Version       : V2.00
  25:.\main.c      **** * Programmer(s) : 
  26:.\main.c      ****                   
  27:.\main.c      **** ***************************************************************************************************
  28:.\main.c      **** */
  29:.\main.c      **** 
  30:.\main.c      **** /*
  31:.\main.c      **** ***************************************************************************************************
  32:.\main.c      **** *                                             INCLUDE FILES
  33:.\main.c      **** ***************************************************************************************************
  34:.\main.c      **** */
  35:.\main.c      **** 
  36:.\main.c      **** #include <device.h>
  37:.\main.c      **** #include <math.h>
  38:.\main.c      **** #include <stdio.h>
  39:.\main.c      **** #include <stdlib.h>
  40:.\main.c      **** #include <string.h>
  41:.\main.c      **** #include "Protocolo.h"
  42:.\main.c      **** #include "VariablesG.h"
  43:.\main.c      **** #include "Print.h"
  44:.\main.c      **** #include "LCD.h"
ARM GAS  C:\Users\diego\AppData\Local\Temp\ccW8UKJI.s 			page 5


  45:.\main.c      **** #include "ibutton.h"
  46:.\main.c      **** #include "i2c.h"
  47:.\main.c      **** 
  48:.\main.c      **** /*
  49:.\main.c      **** ***************************************************************************************************
  50:.\main.c      **** *                                             DECLARACION DE FUNCIONES
  51:.\main.c      **** ***************************************************************************************************
  52:.\main.c      **** */
  53:.\main.c      **** uint8 letras[26]={0x25,0x42,0x31,0x27,0x1D,0x28,0x29,0x2A,0x22,0x2B,0x2C,0x2D,0x35,0x34,0x23,0x24,0
  54:.\main.c      **** uint8 clave_config[5]="02412";
  55:.\main.c      **** uint8 test[18]="Test de Impresora";
  56:.\main.c      **** uint16 num_decimal2;
  57:.\main.c      **** CY_ISR(animacion);
  58:.\main.c      **** CY_ISR(animacion2);
  59:.\main.c      **** CY_ISR(modo_mux);
  60:.\main.c      **** uint8  idaux[8];
  61:.\main.c      **** uint8  state_rf;
  62:.\main.c      **** uint16 timeout_autorizacion;
  63:.\main.c      **** uint8  estado_tanqueando; 
  64:.\main.c      **** uint8  consulta_sistema=1;
  65:.\main.c      **** uint8  clave_local[4]={'9','6','3','1'};
  66:.\main.c      **** uint8  v_digitos_1;
  67:.\main.c      **** uint8  ppuinicial=0;
  68:.\main.c      **** uint8  Producto;
  69:.\main.c      **** uint8  Productos[4];// el buffer es para guardar los tipos de combustible
  70:.\main.c      **** uint8  producto1=1,producto2=1,producto3=1,producto4=1;
  71:.\main.c      **** uint8 status1LP,status2LP,status1st,status2st; 
  72:.\main.c      **** 
  73:.\main.c      **** 
  74:.\main.c      **** /*
  75:.\main.c      **** ***************************************************************************************************
  76:.\main.c      **** *                                         init( void )
  77:.\main.c      **** *
  78:.\main.c      **** * Description : 
  79:.\main.c      **** *               
  80:.\main.c      **** *
  81:.\main.c      **** * Argument(s) : none
  82:.\main.c      **** *
  83:.\main.c      **** * Return(s)   : none
  84:.\main.c      **** *
  85:.\main.c      **** * Caller(s)   : 
  86:.\main.c      **** *
  87:.\main.c      **** * Note(s)     : none.
  88:.\main.c      **** ***************************************************************************************************
  89:.\main.c      **** */ 
  90:.\main.c      **** void init(void){
 180              		.loc 1 90 0
 181              		.cfi_startproc
 182              		@ args = 0, pretend = 0, frame = 8
 183              		@ frame_needed = 1, uses_anonymous_args = 0
 184 0000 90B5     		push	{r4, r7, lr}
 185              		.cfi_def_cfa_offset 12
 186              		.cfi_offset 4, -12
 187              		.cfi_offset 7, -8
 188              		.cfi_offset 14, -4
 189 0002 83B0     		sub	sp, sp, #12
 190              		.cfi_def_cfa_offset 24
ARM GAS  C:\Users\diego\AppData\Local\Temp\ccW8UKJI.s 			page 6


 191 0004 00AF     		add	r7, sp, #0
 192              		.cfi_def_cfa_register 7
  91:.\main.c      ****     timeout_autorizacion=0;
 193              		.loc 1 91 0
 194 0006 694B     		ldr	r3, .L6
 195 0008 0022     		movs	r2, #0
 196 000a 1A80     		strh	r2, [r3]	@ movhi
  92:.\main.c      **** 	uint8 x;
  93:.\main.c      ****     CyGlobalIntEnable;
 197              		.loc 1 93 0
 198              	@ 93 ".\main.c" 1
 199 000c 62B6     		CPSIE   i
 200              	@ 0 "" 2
  94:.\main.c      **** 	PC_Start();
 201              		.loc 1 94 0
 202              		.thumb
 203 000e FFF7FEFF 		bl	PC_Start
  95:.\main.c      ****     I2C_1_Start();
 204              		.loc 1 95 0
 205 0012 FFF7FEFF 		bl	I2C_1_Start
  96:.\main.c      ****     Surtidor_Start();
 206              		.loc 1 96 0
 207 0016 FFF7FEFF 		bl	Surtidor_Start
  97:.\main.c      ****     LCD_1_Start();
 208              		.loc 1 97 0
 209 001a FFF7FEFF 		bl	LCD_1_Start
  98:.\main.c      ****     LCD_2_Start();   	
 210              		.loc 1 98 0
 211 001e FFF7FEFF 		bl	LCD_2_Start
  99:.\main.c      **** 	EEPROM_Start();
 212              		.loc 1 99 0
 213 0022 FFF7FEFF 		bl	EEPROM_Start
 100:.\main.c      **** 
 101:.\main.c      **** 	/***********Iniciacion de variables***************/
 102:.\main.c      **** 	lado1.grado[0][0]=0;
 214              		.loc 1 102 0
 215 0026 624B     		ldr	r3, .L6+4
 216 0028 0022     		movs	r2, #0
 217 002a 83F85920 		strb	r2, [r3, #89]
 103:.\main.c      **** 	lado1.grado[1][0]=0;
 218              		.loc 1 103 0
 219 002e 604B     		ldr	r3, .L6+4
 220 0030 0022     		movs	r2, #0
 221 0032 83F85A20 		strb	r2, [r3, #90]
 104:.\main.c      **** 	lado1.grado[2][0]=0;
 222              		.loc 1 104 0
 223 0036 5E4B     		ldr	r3, .L6+4
 224 0038 0022     		movs	r2, #0
 225 003a 83F85B20 		strb	r2, [r3, #91]
 105:.\main.c      **** 	lado2.grado[0][0]=0;
 226              		.loc 1 105 0
 227 003e 5D4B     		ldr	r3, .L6+8
 228 0040 0022     		movs	r2, #0
 229 0042 83F85920 		strb	r2, [r3, #89]
 106:.\main.c      **** 	lado2.grado[1][0]=0;
 230              		.loc 1 106 0
 231 0046 5B4B     		ldr	r3, .L6+8
ARM GAS  C:\Users\diego\AppData\Local\Temp\ccW8UKJI.s 			page 7


 232 0048 0022     		movs	r2, #0
 233 004a 83F85A20 		strb	r2, [r3, #90]
 107:.\main.c      **** 	lado2.grado[2][0]=0;
 234              		.loc 1 107 0
 235 004e 594B     		ldr	r3, .L6+8
 236 0050 0022     		movs	r2, #0
 237 0052 83F85B20 		strb	r2, [r3, #91]
 108:.\main.c      ****     for(x=0; x<=15; x++){
 238              		.loc 1 108 0
 239 0056 0023     		movs	r3, #0
 240 0058 FB71     		strb	r3, [r7, #7]
 241 005a 08E0     		b	.L2
 242              	.L3:
 109:.\main.c      ****         rventa1.id_ef[x]= 1;
 243              		.loc 1 109 0 discriminator 3
 244 005c FB79     		ldrb	r3, [r7, #7]	@ zero_extendqisi2
 245 005e 564A     		ldr	r2, .L6+12
 246 0060 1344     		add	r3, r3, r2
 247 0062 0122     		movs	r2, #1
 248 0064 83F83320 		strb	r2, [r3, #51]
 108:.\main.c      ****     for(x=0; x<=15; x++){
 249              		.loc 1 108 0 discriminator 3
 250 0068 FB79     		ldrb	r3, [r7, #7]	@ zero_extendqisi2
 251 006a 0133     		adds	r3, r3, #1
 252 006c FB71     		strb	r3, [r7, #7]
 253              	.L2:
 108:.\main.c      ****     for(x=0; x<=15; x++){
 254              		.loc 1 108 0 is_stmt 0 discriminator 1
 255 006e FB79     		ldrb	r3, [r7, #7]	@ zero_extendqisi2
 256 0070 0F2B     		cmp	r3, #15
 257 0072 F3D9     		bls	.L3
 110:.\main.c      ****     }
 111:.\main.c      **** 
 112:.\main.c      ****     CyDelay(5);
 258              		.loc 1 112 0 is_stmt 1
 259 0074 0520     		movs	r0, #5
 260 0076 FFF7FEFF 		bl	CyDelay
 113:.\main.c      **** 	/******************Lectura de EEPROM*************/
 114:.\main.c      **** 	
 115:.\main.c      **** 	for(x=13;x<=14;x++){									//Logo
 261              		.loc 1 115 0
 262 007a 0D23     		movs	r3, #13
 263 007c FB71     		strb	r3, [r7, #7]
 264 007e 0EE0     		b	.L4
 265              	.L5:
 116:.\main.c      **** 		id_logo[x-13]=EEPROM_ReadByte(x);
 266              		.loc 1 116 0 discriminator 3
 267 0080 FB79     		ldrb	r3, [r7, #7]	@ zero_extendqisi2
 268 0082 A3F10D04 		sub	r4, r3, #13
 269 0086 FB79     		ldrb	r3, [r7, #7]	@ zero_extendqisi2
 270 0088 9BB2     		uxth	r3, r3
 271 008a 1846     		mov	r0, r3
 272 008c FFF7FEFF 		bl	EEPROM_ReadByte
 273 0090 0346     		mov	r3, r0
 274 0092 1A46     		mov	r2, r3
 275 0094 494B     		ldr	r3, .L6+16
 276 0096 1A55     		strb	r2, [r3, r4]
ARM GAS  C:\Users\diego\AppData\Local\Temp\ccW8UKJI.s 			page 8


 115:.\main.c      **** 		id_logo[x-13]=EEPROM_ReadByte(x);
 277              		.loc 1 115 0 discriminator 3
 278 0098 FB79     		ldrb	r3, [r7, #7]	@ zero_extendqisi2
 279 009a 0133     		adds	r3, r3, #1
 280 009c FB71     		strb	r3, [r7, #7]
 281              	.L4:
 115:.\main.c      **** 		id_logo[x-13]=EEPROM_ReadByte(x);
 282              		.loc 1 115 0 is_stmt 0 discriminator 1
 283 009e FB79     		ldrb	r3, [r7, #7]	@ zero_extendqisi2
 284 00a0 0E2B     		cmp	r3, #14
 285 00a2 EDD9     		bls	.L5
 117:.\main.c      **** 	}
 118:.\main.c      **** 	lado1.mangueras=EEPROM_ReadByte(15);					//Numero de grados y codigo de cada uno 1
 286              		.loc 1 118 0 is_stmt 1
 287 00a4 0F20     		movs	r0, #15
 288 00a6 FFF7FEFF 		bl	EEPROM_ReadByte
 289 00aa 0346     		mov	r3, r0
 290 00ac 1A46     		mov	r2, r3
 291 00ae 404B     		ldr	r3, .L6+4
 292 00b0 83F85C20 		strb	r2, [r3, #92]
 119:.\main.c      **** 	lado1.grado[0][0]=EEPROM_ReadByte(16);
 293              		.loc 1 119 0
 294 00b4 1020     		movs	r0, #16
 295 00b6 FFF7FEFF 		bl	EEPROM_ReadByte
 296 00ba 0346     		mov	r3, r0
 297 00bc 1A46     		mov	r2, r3
 298 00be 3C4B     		ldr	r3, .L6+4
 299 00c0 83F85920 		strb	r2, [r3, #89]
 120:.\main.c      **** 	lado1.grado[1][0]=EEPROM_ReadByte(17);
 300              		.loc 1 120 0
 301 00c4 1120     		movs	r0, #17
 302 00c6 FFF7FEFF 		bl	EEPROM_ReadByte
 303 00ca 0346     		mov	r3, r0
 304 00cc 1A46     		mov	r2, r3
 305 00ce 384B     		ldr	r3, .L6+4
 306 00d0 83F85A20 		strb	r2, [r3, #90]
 121:.\main.c      **** 	lado1.grado[2][0]=EEPROM_ReadByte(18);
 307              		.loc 1 121 0
 308 00d4 1220     		movs	r0, #18
 309 00d6 FFF7FEFF 		bl	EEPROM_ReadByte
 310 00da 0346     		mov	r3, r0
 311 00dc 1A46     		mov	r2, r3
 312 00de 344B     		ldr	r3, .L6+4
 313 00e0 83F85B20 		strb	r2, [r3, #91]
 122:.\main.c      **** 	
 123:.\main.c      **** 	lado2.mangueras=EEPROM_ReadByte(19);					//Numero de grados y codigo de cada uno 1
 314              		.loc 1 123 0
 315 00e4 1320     		movs	r0, #19
 316 00e6 FFF7FEFF 		bl	EEPROM_ReadByte
 317 00ea 0346     		mov	r3, r0
 318 00ec 1A46     		mov	r2, r3
 319 00ee 314B     		ldr	r3, .L6+8
 320 00f0 83F85C20 		strb	r2, [r3, #92]
 124:.\main.c      **** 	lado2.grado[0][0]=EEPROM_ReadByte(20);
 321              		.loc 1 124 0
 322 00f4 1420     		movs	r0, #20
 323 00f6 FFF7FEFF 		bl	EEPROM_ReadByte
ARM GAS  C:\Users\diego\AppData\Local\Temp\ccW8UKJI.s 			page 9


 324 00fa 0346     		mov	r3, r0
 325 00fc 1A46     		mov	r2, r3
 326 00fe 2D4B     		ldr	r3, .L6+8
 327 0100 83F85920 		strb	r2, [r3, #89]
 125:.\main.c      **** 	lado2.grado[1][0]=EEPROM_ReadByte(21);
 328              		.loc 1 125 0
 329 0104 1520     		movs	r0, #21
 330 0106 FFF7FEFF 		bl	EEPROM_ReadByte
 331 010a 0346     		mov	r3, r0
 332 010c 1A46     		mov	r2, r3
 333 010e 294B     		ldr	r3, .L6+8
 334 0110 83F85A20 		strb	r2, [r3, #90]
 126:.\main.c      **** 	lado2.grado[2][0]=EEPROM_ReadByte(22);	
 335              		.loc 1 126 0
 336 0114 1620     		movs	r0, #22
 337 0116 FFF7FEFF 		bl	EEPROM_ReadByte
 338 011a 0346     		mov	r3, r0
 339 011c 1A46     		mov	r2, r3
 340 011e 254B     		ldr	r3, .L6+8
 341 0120 83F85B20 		strb	r2, [r3, #91]
 127:.\main.c      **** 	
 128:.\main.c      **** 	ppux10=EEPROM_ReadByte(23);								//PPU X10
 342              		.loc 1 128 0
 343 0124 1720     		movs	r0, #23
 344 0126 FFF7FEFF 		bl	EEPROM_ReadByte
 345 012a 0346     		mov	r3, r0
 346 012c 1A46     		mov	r2, r3
 347 012e 244B     		ldr	r3, .L6+20
 348 0130 1A70     		strb	r2, [r3]
 129:.\main.c      **** 
 130:.\main.c      **** 	version[1]=EEPROM_ReadByte(30);							//Version de digitos y decimales
 349              		.loc 1 130 0
 350 0132 1E20     		movs	r0, #30
 351 0134 FFF7FEFF 		bl	EEPROM_ReadByte
 352 0138 0346     		mov	r3, r0
 353 013a 1A46     		mov	r2, r3
 354 013c 214B     		ldr	r3, .L6+24
 355 013e 5A70     		strb	r2, [r3, #1]
 131:.\main.c      **** 	version[2]=EEPROM_ReadByte(31);
 356              		.loc 1 131 0
 357 0140 1F20     		movs	r0, #31
 358 0142 FFF7FEFF 		bl	EEPROM_ReadByte
 359 0146 0346     		mov	r3, r0
 360 0148 1A46     		mov	r2, r3
 361 014a 1E4B     		ldr	r3, .L6+24
 362 014c 9A70     		strb	r2, [r3, #2]
 132:.\main.c      **** 	version[3]=EEPROM_ReadByte(32);
 363              		.loc 1 132 0
 364 014e 2020     		movs	r0, #32
 365 0150 FFF7FEFF 		bl	EEPROM_ReadByte
 366 0154 0346     		mov	r3, r0
 367 0156 1A46     		mov	r2, r3
 368 0158 1A4B     		ldr	r3, .L6+24
 369 015a DA70     		strb	r2, [r3, #3]
 133:.\main.c      **** 		 
 134:.\main.c      **** 	lado1.dir=EEPROM_ReadByte(26);							//Lado A
 370              		.loc 1 134 0
ARM GAS  C:\Users\diego\AppData\Local\Temp\ccW8UKJI.s 			page 10


 371 015c 1A20     		movs	r0, #26
 372 015e FFF7FEFF 		bl	EEPROM_ReadByte
 373 0162 0346     		mov	r3, r0
 374 0164 1A46     		mov	r2, r3
 375 0166 124B     		ldr	r3, .L6+4
 376 0168 1A70     		strb	r2, [r3]
 135:.\main.c      **** 
 136:.\main.c      **** 	lado2.dir=EEPROM_ReadByte(28);							//Lado B
 377              		.loc 1 136 0
 378 016a 1C20     		movs	r0, #28
 379 016c FFF7FEFF 		bl	EEPROM_ReadByte
 380 0170 0346     		mov	r3, r0
 381 0172 1A46     		mov	r2, r3
 382 0174 0F4B     		ldr	r3, .L6+8
 383 0176 1A70     		strb	r2, [r3]
 137:.\main.c      **** 
 138:.\main.c      ****     lado1.estado=libre;
 384              		.loc 1 138 0
 385 0178 0D4B     		ldr	r3, .L6+4
 386 017a 0122     		movs	r2, #1
 387 017c 5A70     		strb	r2, [r3, #1]
 139:.\main.c      ****     lado2.estado=libre;
 388              		.loc 1 139 0
 389 017e 0D4B     		ldr	r3, .L6+8
 390 0180 0122     		movs	r2, #1
 391 0182 5A70     		strb	r2, [r3, #1]
 140:.\main.c      ****     estado_tanqueando=0;
 392              		.loc 1 140 0
 393 0184 104B     		ldr	r3, .L6+28
 394 0186 0022     		movs	r2, #0
 395 0188 1A70     		strb	r2, [r3]
 141:.\main.c      **** 	//ppux10=1;//1 estacion autogas prueba version de digitos 6
 142:.\main.c      **** 	lado1.mangueras=3;
 396              		.loc 1 142 0
 397 018a 094B     		ldr	r3, .L6+4
 398 018c 0322     		movs	r2, #3
 399 018e 83F85C20 		strb	r2, [r3, #92]
 143:.\main.c      **** //	lado1.grado[0][0]=2;				//1 Diesel 2 Corriente 3 Extra 4 Supreme Diesel
 144:.\main.c      **** //	lado1.grado[1][0]=3;
 145:.\main.c      **** //	lado1.grado[2][0]=0;
 146:.\main.c      ****     //version[1]=6;
 147:.\main.c      **** 	version[2]=2;
 400              		.loc 1 147 0
 401 0192 0C4B     		ldr	r3, .L6+24
 402 0194 0222     		movs	r2, #2
 403 0196 9A70     		strb	r2, [r3, #2]
 148:.\main.c      **** 	version[3]=3;
 404              		.loc 1 148 0
 405 0198 0A4B     		ldr	r3, .L6+24
 406 019a 0322     		movs	r2, #3
 407 019c DA70     		strb	r2, [r3, #3]
 149:.\main.c      ****     CyDelay(5);	
 408              		.loc 1 149 0
 409 019e 0520     		movs	r0, #5
 410 01a0 FFF7FEFF 		bl	CyDelay
 150:.\main.c      ****     
 151:.\main.c      **** }
ARM GAS  C:\Users\diego\AppData\Local\Temp\ccW8UKJI.s 			page 11


 411              		.loc 1 151 0
 412 01a4 0C37     		adds	r7, r7, #12
 413              		.cfi_def_cfa_offset 12
 414 01a6 BD46     		mov	sp, r7
 415              		.cfi_def_cfa_register 13
 416              		@ sp needed
 417 01a8 90BD     		pop	{r4, r7, pc}
 418              	.L7:
 419 01aa 00BF     		.align	2
 420              	.L6:
 421 01ac 00000000 		.word	timeout_autorizacion
 422 01b0 00000000 		.word	lado1
 423 01b4 00000000 		.word	lado2
 424 01b8 00000000 		.word	rventa1
 425 01bc 00000000 		.word	id_logo
 426 01c0 00000000 		.word	ppux10
 427 01c4 00000000 		.word	version
 428 01c8 00000000 		.word	estado_tanqueando
 429              		.cfi_endproc
 430              	.LFE63:
 431              		.size	init, .-init
 432              		.section	.rodata
 433              		.align	2
 434              	.LC0:
 435 0000 00       		.byte	0
 436 0001 5E       		.byte	94
 437 0002 BC       		.byte	-68
 438 0003 E2       		.byte	-30
 439 0004 61       		.byte	97
 440 0005 3F       		.byte	63
 441 0006 DD       		.byte	-35
 442 0007 83       		.byte	-125
 443 0008 C2       		.byte	-62
 444 0009 9C       		.byte	-100
 445 000a 7E       		.byte	126
 446 000b 20       		.byte	32
 447 000c A3       		.byte	-93
 448 000d FD       		.byte	-3
 449 000e 1F       		.byte	31
 450 000f 41       		.byte	65
 451 0010 9D       		.byte	-99
 452 0011 C3       		.byte	-61
 453 0012 21       		.byte	33
 454 0013 7F       		.byte	127
 455 0014 FC       		.byte	-4
 456 0015 A2       		.byte	-94
 457 0016 40       		.byte	64
 458 0017 1E       		.byte	30
 459 0018 5F       		.byte	95
 460 0019 01       		.byte	1
 461 001a E3       		.byte	-29
 462 001b BD       		.byte	-67
 463 001c 3E       		.byte	62
 464 001d 60       		.byte	96
 465 001e 82       		.byte	-126
 466 001f DC       		.byte	-36
 467 0020 23       		.byte	35
ARM GAS  C:\Users\diego\AppData\Local\Temp\ccW8UKJI.s 			page 12


 468 0021 7D       		.byte	125
 469 0022 9F       		.byte	-97
 470 0023 C1       		.byte	-63
 471 0024 42       		.byte	66
 472 0025 1C       		.byte	28
 473 0026 FE       		.byte	-2
 474 0027 A0       		.byte	-96
 475 0028 E1       		.byte	-31
 476 0029 BF       		.byte	-65
 477 002a 5D       		.byte	93
 478 002b 03       		.byte	3
 479 002c 80       		.byte	-128
 480 002d DE       		.byte	-34
 481 002e 3C       		.byte	60
 482 002f 62       		.byte	98
 483 0030 BE       		.byte	-66
 484 0031 E0       		.byte	-32
 485 0032 02       		.byte	2
 486 0033 5C       		.byte	92
 487 0034 DF       		.byte	-33
 488 0035 81       		.byte	-127
 489 0036 63       		.byte	99
 490 0037 3D       		.byte	61
 491 0038 7C       		.byte	124
 492 0039 22       		.byte	34
 493 003a C0       		.byte	-64
 494 003b 9E       		.byte	-98
 495 003c 1D       		.byte	29
 496 003d 43       		.byte	67
 497 003e A1       		.byte	-95
 498 003f FF       		.byte	-1
 499 0040 46       		.byte	70
 500 0041 18       		.byte	24
 501 0042 FA       		.byte	-6
 502 0043 A4       		.byte	-92
 503 0044 27       		.byte	39
 504 0045 79       		.byte	121
 505 0046 9B       		.byte	-101
 506 0047 C5       		.byte	-59
 507 0048 84       		.byte	-124
 508 0049 DA       		.byte	-38
 509 004a 38       		.byte	56
 510 004b 66       		.byte	102
 511 004c E5       		.byte	-27
 512 004d BB       		.byte	-69
 513 004e 59       		.byte	89
 514 004f 07       		.byte	7
 515 0050 DB       		.byte	-37
 516 0051 85       		.byte	-123
 517 0052 67       		.byte	103
 518 0053 39       		.byte	57
 519 0054 BA       		.byte	-70
 520 0055 E4       		.byte	-28
 521 0056 06       		.byte	6
 522 0057 58       		.byte	88
 523 0058 19       		.byte	25
 524 0059 47       		.byte	71
ARM GAS  C:\Users\diego\AppData\Local\Temp\ccW8UKJI.s 			page 13


 525 005a A5       		.byte	-91
 526 005b FB       		.byte	-5
 527 005c 78       		.byte	120
 528 005d 26       		.byte	38
 529 005e C4       		.byte	-60
 530 005f 9A       		.byte	-102
 531 0060 65       		.byte	101
 532 0061 3B       		.byte	59
 533 0062 D9       		.byte	-39
 534 0063 87       		.byte	-121
 535 0064 04       		.byte	4
 536 0065 5A       		.byte	90
 537 0066 B8       		.byte	-72
 538 0067 E6       		.byte	-26
 539 0068 A7       		.byte	-89
 540 0069 F9       		.byte	-7
 541 006a 1B       		.byte	27
 542 006b 45       		.byte	69
 543 006c C6       		.byte	-58
 544 006d 98       		.byte	-104
 545 006e 7A       		.byte	122
 546 006f 24       		.byte	36
 547 0070 F8       		.byte	-8
 548 0071 A6       		.byte	-90
 549 0072 44       		.byte	68
 550 0073 1A       		.byte	26
 551 0074 99       		.byte	-103
 552 0075 C7       		.byte	-57
 553 0076 25       		.byte	37
 554 0077 7B       		.byte	123
 555 0078 3A       		.byte	58
 556 0079 64       		.byte	100
 557 007a 86       		.byte	-122
 558 007b D8       		.byte	-40
 559 007c 5B       		.byte	91
 560 007d 05       		.byte	5
 561 007e E7       		.byte	-25
 562 007f B9       		.byte	-71
 563 0080 8C       		.byte	-116
 564 0081 D2       		.byte	-46
 565 0082 30       		.byte	48
 566 0083 6E       		.byte	110
 567 0084 ED       		.byte	-19
 568 0085 B3       		.byte	-77
 569 0086 51       		.byte	81
 570 0087 0F       		.byte	15
 571 0088 4E       		.byte	78
 572 0089 10       		.byte	16
 573 008a F2       		.byte	-14
 574 008b AC       		.byte	-84
 575 008c 2F       		.byte	47
 576 008d 71       		.byte	113
 577 008e 93       		.byte	-109
 578 008f CD       		.byte	-51
 579 0090 11       		.byte	17
 580 0091 4F       		.byte	79
 581 0092 AD       		.byte	-83
ARM GAS  C:\Users\diego\AppData\Local\Temp\ccW8UKJI.s 			page 14


 582 0093 F3       		.byte	-13
 583 0094 70       		.byte	112
 584 0095 2E       		.byte	46
 585 0096 CC       		.byte	-52
 586 0097 92       		.byte	-110
 587 0098 D3       		.byte	-45
 588 0099 8D       		.byte	-115
 589 009a 6F       		.byte	111
 590 009b 31       		.byte	49
 591 009c B2       		.byte	-78
 592 009d EC       		.byte	-20
 593 009e 0E       		.byte	14
 594 009f 50       		.byte	80
 595 00a0 AF       		.byte	-81
 596 00a1 F1       		.byte	-15
 597 00a2 13       		.byte	19
 598 00a3 4D       		.byte	77
 599 00a4 CE       		.byte	-50
 600 00a5 90       		.byte	-112
 601 00a6 72       		.byte	114
 602 00a7 2C       		.byte	44
 603 00a8 6D       		.byte	109
 604 00a9 33       		.byte	51
 605 00aa D1       		.byte	-47
 606 00ab 8F       		.byte	-113
 607 00ac 0C       		.byte	12
 608 00ad 52       		.byte	82
 609 00ae B0       		.byte	-80
 610 00af EE       		.byte	-18
 611 00b0 32       		.byte	50
 612 00b1 6C       		.byte	108
 613 00b2 8E       		.byte	-114
 614 00b3 D0       		.byte	-48
 615 00b4 53       		.byte	83
 616 00b5 0D       		.byte	13
 617 00b6 EF       		.byte	-17
 618 00b7 B1       		.byte	-79
 619 00b8 F0       		.byte	-16
 620 00b9 AE       		.byte	-82
 621 00ba 4C       		.byte	76
 622 00bb 12       		.byte	18
 623 00bc 91       		.byte	-111
 624 00bd CF       		.byte	-49
 625 00be 2D       		.byte	45
 626 00bf 73       		.byte	115
 627 00c0 CA       		.byte	-54
 628 00c1 94       		.byte	-108
 629 00c2 76       		.byte	118
 630 00c3 28       		.byte	40
 631 00c4 AB       		.byte	-85
 632 00c5 F5       		.byte	-11
 633 00c6 17       		.byte	23
 634 00c7 49       		.byte	73
 635 00c8 08       		.byte	8
 636 00c9 56       		.byte	86
 637 00ca B4       		.byte	-76
 638 00cb EA       		.byte	-22
ARM GAS  C:\Users\diego\AppData\Local\Temp\ccW8UKJI.s 			page 15


 639 00cc 69       		.byte	105
 640 00cd 37       		.byte	55
 641 00ce D5       		.byte	-43
 642 00cf 8B       		.byte	-117
 643 00d0 57       		.byte	87
 644 00d1 09       		.byte	9
 645 00d2 EB       		.byte	-21
 646 00d3 B5       		.byte	-75
 647 00d4 36       		.byte	54
 648 00d5 68       		.byte	104
 649 00d6 8A       		.byte	-118
 650 00d7 D4       		.byte	-44
 651 00d8 95       		.byte	-107
 652 00d9 CB       		.byte	-53
 653 00da 29       		.byte	41
 654 00db 77       		.byte	119
 655 00dc F4       		.byte	-12
 656 00dd AA       		.byte	-86
 657 00de 48       		.byte	72
 658 00df 16       		.byte	22
 659 00e0 E9       		.byte	-23
 660 00e1 B7       		.byte	-73
 661 00e2 55       		.byte	85
 662 00e3 0B       		.byte	11
 663 00e4 88       		.byte	-120
 664 00e5 D6       		.byte	-42
 665 00e6 34       		.byte	52
 666 00e7 6A       		.byte	106
 667 00e8 2B       		.byte	43
 668 00e9 75       		.byte	117
 669 00ea 97       		.byte	-105
 670 00eb C9       		.byte	-55
 671 00ec 4A       		.byte	74
 672 00ed 14       		.byte	20
 673 00ee F6       		.byte	-10
 674 00ef A8       		.byte	-88
 675 00f0 74       		.byte	116
 676 00f1 2A       		.byte	42
 677 00f2 C8       		.byte	-56
 678 00f3 96       		.byte	-106
 679 00f4 15       		.byte	21
 680 00f5 4B       		.byte	75
 681 00f6 A9       		.byte	-87
 682 00f7 F7       		.byte	-9
 683 00f8 B6       		.byte	-74
 684 00f9 E8       		.byte	-24
 685 00fa 0A       		.byte	10
 686 00fb 54       		.byte	84
 687 00fc D7       		.byte	-41
 688 00fd 89       		.byte	-119
 689 00fe 6B       		.byte	107
 690 00ff 35       		.byte	53
 691              		.section	.text.verificar_check,"ax",%progbits
 692              		.align	2
 693              		.global	verificar_check
 694              		.thumb
 695              		.thumb_func
ARM GAS  C:\Users\diego\AppData\Local\Temp\ccW8UKJI.s 			page 16


 696              		.type	verificar_check, %function
 697              	verificar_check:
 698              	.LFB64:
 152:.\main.c      **** 
 153:.\main.c      **** 
 154:.\main.c      **** /*
 155:.\main.c      **** ***************************************************************************************************
 156:.\main.c      **** *                             uint8 verificar_check(uint8 *datos, uint16 size)
 157:.\main.c      **** *
 158:.\main.c      **** * Description : calcula el checksum
 159:.\main.c      **** *               
 160:.\main.c      **** 
 161:.\main.c      **** ***************************************************************************************************
 162:.\main.c      **** */
 163:.\main.c      **** uint8 verificar_check(uint8 *datos, uint16 size){
 699              		.loc 1 163 0
 700              		.cfi_startproc
 701              		@ args = 0, pretend = 0, frame = 272
 702              		@ frame_needed = 1, uses_anonymous_args = 0
 703 0000 80B5     		push	{r7, lr}
 704              		.cfi_def_cfa_offset 8
 705              		.cfi_offset 7, -8
 706              		.cfi_offset 14, -4
 707 0002 C4B0     		sub	sp, sp, #272
 708              		.cfi_def_cfa_offset 280
 709 0004 00AF     		add	r7, sp, #0
 710              		.cfi_def_cfa_register 7
 711 0006 3B1D     		adds	r3, r7, #4
 712 0008 1860     		str	r0, [r3]
 713 000a 0A46     		mov	r2, r1
 714 000c BB1C     		adds	r3, r7, #2
 715 000e 1A80     		strh	r2, [r3]	@ movhi
 164:.\main.c      **** 	uint8 checksum,index;
 165:.\main.c      **** 	uint16 i;
 166:.\main.c      ****     uint8 table[256] = { 
 716              		.loc 1 166 0
 717 0010 07F10803 		add	r3, r7, #8
 718 0014 1A4A     		ldr	r2, .L12
 719 0016 1946     		mov	r1, r3
 720 0018 4FF48073 		mov	r3, #256
 721 001c 0846     		mov	r0, r1
 722 001e 1146     		mov	r1, r2
 723 0020 1A46     		mov	r2, r3
 724 0022 FFF7FEFF 		bl	memcpy
 167:.\main.c      ****     0, 94,188,226, 97, 63,221,131,194,156,126, 32,163,253, 31, 65,
 168:.\main.c      ****     157,195, 33,127,252,162, 64, 30, 95,  1,227,189, 62, 96,130,220,
 169:.\main.c      ****     35,125,159,193, 66, 28,254,160,225,191, 93,  3,128,222, 60, 98,
 170:.\main.c      ****     190,224,  2, 92,223,129, 99, 61,124, 34,192,158, 29, 67,161,255,
 171:.\main.c      ****     70, 24,250,164, 39,121,155,197,132,218, 56,102,229,187, 89,  7,
 172:.\main.c      ****     219,133,103, 57,186,228,  6, 88, 25, 71,165,251,120, 38,196,154,
 173:.\main.c      ****     101, 59,217,135,  4, 90,184,230,167,249, 27, 69,198,152,122, 36,
 174:.\main.c      ****     248,166, 68, 26,153,199, 37,123, 58,100,134,216, 91,  5,231,185,
 175:.\main.c      ****     140,210, 48,110,237,179, 81, 15, 78, 16,242,172, 47,113,147,205,
 176:.\main.c      ****     17, 79,173,243,112, 46,204,146,211,141,111, 49,178,236, 14, 80,
 177:.\main.c      ****     175,241, 19, 77,206,144,114, 44,109, 51,209,143, 12, 82,176,238,
 178:.\main.c      ****     50,108,142,208, 83, 13,239,177,240,174, 76, 18,145,207, 45,115,
 179:.\main.c      ****     202,148,118, 40,171,245, 23, 73,  8, 86,180,234,105, 55,213,139,
ARM GAS  C:\Users\diego\AppData\Local\Temp\ccW8UKJI.s 			page 17


 180:.\main.c      ****     87,  9,235,181, 54,104,138,212,149,203, 41,119,244,170, 72, 22,
 181:.\main.c      ****     233,183, 85, 11,136,214, 52,106, 43,117,151,201, 74, 20,246,168,
 182:.\main.c      ****     116, 42,200,150, 21, 75,169,247,182,232, 10, 84,215,137,107, 53};	
 183:.\main.c      **** 	checksum=0;
 725              		.loc 1 183 0
 726 0026 0023     		movs	r3, #0
 727 0028 87F80F31 		strb	r3, [r7, #271]
 184:.\main.c      **** 	for(i=0;i<(size-1);i++){
 728              		.loc 1 184 0
 729 002c 0023     		movs	r3, #0
 730 002e A7F80C31 		strh	r3, [r7, #268]	@ movhi
 731 0032 16E0     		b	.L9
 732              	.L10:
 185:.\main.c      **** 		index = (uint8)(checksum ^ datos[i]);
 733              		.loc 1 185 0 discriminator 3
 734 0034 B7F80C31 		ldrh	r3, [r7, #268]
 735 0038 3A1D     		adds	r2, r7, #4
 736 003a 1268     		ldr	r2, [r2]
 737 003c 1344     		add	r3, r3, r2
 738 003e 1A78     		ldrb	r2, [r3]	@ zero_extendqisi2
 739 0040 97F80F31 		ldrb	r3, [r7, #271]
 740 0044 5340     		eors	r3, r3, r2
 741 0046 87F80B31 		strb	r3, [r7, #267]
 186:.\main.c      **** 		checksum = table[index];				
 742              		.loc 1 186 0 discriminator 3
 743 004a 97F80B31 		ldrb	r3, [r7, #267]	@ zero_extendqisi2
 744 004e 07F10802 		add	r2, r7, #8
 745 0052 D35C     		ldrb	r3, [r2, r3]
 746 0054 87F80F31 		strb	r3, [r7, #271]
 184:.\main.c      **** 	for(i=0;i<(size-1);i++){
 747              		.loc 1 184 0 discriminator 3
 748 0058 B7F80C31 		ldrh	r3, [r7, #268]
 749 005c 0133     		adds	r3, r3, #1
 750 005e A7F80C31 		strh	r3, [r7, #268]	@ movhi
 751              	.L9:
 184:.\main.c      **** 	for(i=0;i<(size-1);i++){
 752              		.loc 1 184 0 is_stmt 0 discriminator 1
 753 0062 B7F80C21 		ldrh	r2, [r7, #268]
 754 0066 BB1C     		adds	r3, r7, #2
 755 0068 1B88     		ldrh	r3, [r3]
 756 006a 013B     		subs	r3, r3, #1
 757 006c 9A42     		cmp	r2, r3
 758 006e E1DB     		blt	.L10
 187:.\main.c      **** 	}
 188:.\main.c      **** 	return checksum;
 759              		.loc 1 188 0 is_stmt 1
 760 0070 97F80F31 		ldrb	r3, [r7, #271]	@ zero_extendqisi2
 189:.\main.c      **** }
 761              		.loc 1 189 0
 762 0074 1846     		mov	r0, r3
 763 0076 07F58877 		add	r7, r7, #272
 764              		.cfi_def_cfa_offset 8
 765 007a BD46     		mov	sp, r7
 766              		.cfi_def_cfa_register 13
 767              		@ sp needed
 768 007c 80BD     		pop	{r7, pc}
 769              	.L13:
ARM GAS  C:\Users\diego\AppData\Local\Temp\ccW8UKJI.s 			page 18


 770 007e 00BF     		.align	2
 771              	.L12:
 772 0080 00000000 		.word	.LC0
 773              		.cfi_endproc
 774              	.LFE64:
 775              		.size	verificar_check, .-verificar_check
 776              		.section	.text.error_op,"ax",%progbits
 777              		.align	2
 778              		.global	error_op
 779              		.thumb
 780              		.thumb_func
 781              		.type	error_op, %function
 782              	error_op:
 783              	.LFB65:
 190:.\main.c      **** 
 191:.\main.c      **** /*
 192:.\main.c      **** ***************************************************************************************************
 193:.\main.c      **** *                                         void error_op()
 194:.\main.c      **** *
 195:.\main.c      **** * Description : Muestra en la pantalla el mensaje de operación incorrecta y regresa al inicio del 
 196:.\main.c      **** *               
 197:.\main.c      **** *
 198:.\main.c      **** * Argument(s) : uint8 lcd, para elegir cual pantalla entra en esta función
 199:.\main.c      **** *
 200:.\main.c      **** * Return(s)   : none
 201:.\main.c      **** *
 202:.\main.c      **** * Caller(s)   : Desde cualquier momento de la operacion donde ocurra un error por parte del usuario
 203:.\main.c      **** *
 204:.\main.c      **** * Note(s)     : none.
 205:.\main.c      **** ***************************************************************************************************
 206:.\main.c      **** */
 207:.\main.c      **** void error_op(uint8 lcd, uint16 imagen){
 784              		.loc 1 207 0
 785              		.cfi_startproc
 786              		@ args = 0, pretend = 0, frame = 8
 787              		@ frame_needed = 1, uses_anonymous_args = 0
 788 0000 80B5     		push	{r7, lr}
 789              		.cfi_def_cfa_offset 8
 790              		.cfi_offset 7, -8
 791              		.cfi_offset 14, -4
 792 0002 82B0     		sub	sp, sp, #8
 793              		.cfi_def_cfa_offset 16
 794 0004 00AF     		add	r7, sp, #0
 795              		.cfi_def_cfa_register 7
 796 0006 0346     		mov	r3, r0
 797 0008 0A46     		mov	r2, r1
 798 000a FB71     		strb	r3, [r7, #7]
 799 000c 1346     		mov	r3, r2	@ movhi
 800 000e BB80     		strh	r3, [r7, #4]	@ movhi
 208:.\main.c      **** 	if(lcd==1){
 801              		.loc 1 208 0
 802 0010 FB79     		ldrb	r3, [r7, #7]	@ zero_extendqisi2
 803 0012 012B     		cmp	r3, #1
 804 0014 13D1     		bne	.L15
 209:.\main.c      **** 	   set_imagen(1,imagen);
 805              		.loc 1 209 0
 806 0016 BB88     		ldrh	r3, [r7, #4]
ARM GAS  C:\Users\diego\AppData\Local\Temp\ccW8UKJI.s 			page 19


 807 0018 0120     		movs	r0, #1
 808 001a 1946     		mov	r1, r3
 809 001c FFF7FEFF 		bl	set_imagen
 210:.\main.c      **** 	   flujo_LCD1=100;
 810              		.loc 1 210 0
 811 0020 104B     		ldr	r3, .L17
 812 0022 6422     		movs	r2, #100
 813 0024 1A70     		strb	r2, [r3]
 211:.\main.c      **** 	   count_protector=1;
 814              		.loc 1 211 0
 815 0026 104B     		ldr	r3, .L17+4
 816 0028 0122     		movs	r2, #1
 817 002a 1A70     		strb	r2, [r3]
 212:.\main.c      ****        lado1.estado=libre;       
 818              		.loc 1 212 0
 819 002c 0F4B     		ldr	r3, .L17+8
 820 002e 0122     		movs	r2, #1
 821 0030 5A70     		strb	r2, [r3, #1]
 213:.\main.c      **** 	   isr_3_StartEx(animacion);  
 822              		.loc 1 213 0
 823 0032 0F48     		ldr	r0, .L17+12
 824 0034 FFF7FEFF 		bl	isr_3_StartEx
 214:.\main.c      **** 	   Timer_Animacion_Start();
 825              		.loc 1 214 0
 826 0038 FFF7FEFF 		bl	Timer_Animacion_Start
 827 003c 0FE0     		b	.L14
 828              	.L15:
 215:.\main.c      **** 	}
 216:.\main.c      **** 	else{
 217:.\main.c      **** 	    set_imagen(2,imagen);
 829              		.loc 1 217 0
 830 003e BB88     		ldrh	r3, [r7, #4]
 831 0040 0220     		movs	r0, #2
 832 0042 1946     		mov	r1, r3
 833 0044 FFF7FEFF 		bl	set_imagen
 218:.\main.c      **** 	    flujo_LCD2=100;
 834              		.loc 1 218 0
 835 0048 0A4B     		ldr	r3, .L17+16
 836 004a 6422     		movs	r2, #100
 837 004c 1A70     		strb	r2, [r3]
 219:.\main.c      **** 		count_protector2=1;
 838              		.loc 1 219 0
 839 004e 0A4B     		ldr	r3, .L17+20
 840 0050 0122     		movs	r2, #1
 841 0052 1A70     		strb	r2, [r3]
 220:.\main.c      **** 	    isr_4_StartEx(animacion2);  
 842              		.loc 1 220 0
 843 0054 0948     		ldr	r0, .L17+24
 844 0056 FFF7FEFF 		bl	isr_4_StartEx
 221:.\main.c      **** 	    Timer_Animacion2_Start();	
 845              		.loc 1 221 0
 846 005a FFF7FEFF 		bl	Timer_Animacion2_Start
 847              	.L14:
 222:.\main.c      **** 	}
 223:.\main.c      **** }
 848              		.loc 1 223 0
 849 005e 0837     		adds	r7, r7, #8
ARM GAS  C:\Users\diego\AppData\Local\Temp\ccW8UKJI.s 			page 20


 850              		.cfi_def_cfa_offset 8
 851 0060 BD46     		mov	sp, r7
 852              		.cfi_def_cfa_register 13
 853              		@ sp needed
 854 0062 80BD     		pop	{r7, pc}
 855              	.L18:
 856              		.align	2
 857              	.L17:
 858 0064 00000000 		.word	flujo_LCD1
 859 0068 00000000 		.word	count_protector
 860 006c 00000000 		.word	lado1
 861 0070 00000000 		.word	animacion
 862 0074 00000000 		.word	flujo_LCD2
 863 0078 00000000 		.word	count_protector2
 864 007c 00000000 		.word	animacion2
 865              		.cfi_endproc
 866              	.LFE65:
 867              		.size	error_op, .-error_op
 868              		.section	.text.init_surt,"ax",%progbits
 869              		.align	2
 870              		.global	init_surt
 871              		.thumb
 872              		.thumb_func
 873              		.type	init_surt, %function
 874              	init_surt:
 875              	.LFB66:
 224:.\main.c      **** 
 225:.\main.c      **** /*
 226:.\main.c      **** ***************************************************************************************************
 227:.\main.c      **** *                                         init_surt( void )
 228:.\main.c      **** *
 229:.\main.c      **** * Description : Busca las posiciones del surtidor y las graba en lado.a.dir y lado.b.dir
 230:.\main.c      **** *               
 231:.\main.c      **** *
 232:.\main.c      **** * Argument(s) : none
 233:.\main.c      **** *
 234:.\main.c      **** * Return(s)   : none
 235:.\main.c      **** *
 236:.\main.c      **** * Caller(s)   : main()
 237:.\main.c      **** *
 238:.\main.c      **** * Note(s)     : Falta generar codigo para los casos 1 y 2
 239:.\main.c      **** ***************************************************************************************************
 240:.\main.c      **** */
 241:.\main.c      **** void init_surt(void){
 876              		.loc 1 241 0
 877              		.cfi_startproc
 878              		@ args = 0, pretend = 0, frame = 8
 879              		@ frame_needed = 1, uses_anonymous_args = 0
 880 0000 80B5     		push	{r7, lr}
 881              		.cfi_def_cfa_offset 8
 882              		.cfi_offset 7, -8
 883              		.cfi_offset 14, -4
 884 0002 82B0     		sub	sp, sp, #8
 885              		.cfi_def_cfa_offset 16
 886 0004 00AF     		add	r7, sp, #0
 887              		.cfi_def_cfa_register 7
 242:.\main.c      **** 	uint8 estado, ok=0;
ARM GAS  C:\Users\diego\AppData\Local\Temp\ccW8UKJI.s 			page 21


 888              		.loc 1 242 0
 889 0006 0023     		movs	r3, #0
 890 0008 FB71     		strb	r3, [r7, #7]
 243:.\main.c      **** 	while(ok<=1){
 891              		.loc 1 243 0
 892 000a 7BE1     		b	.L20
 893              	.L49:
 244:.\main.c      **** 		ok=0;
 894              		.loc 1 244 0
 895 000c 0023     		movs	r3, #0
 896 000e FB71     		strb	r3, [r7, #7]
 245:.\main.c      **** 		if((lado1.dir==0xFF)||(lado2.dir==0xFF)){
 897              		.loc 1 245 0
 898 0010 C04B     		ldr	r3, .L50
 899 0012 1B78     		ldrb	r3, [r3]
 900 0014 DBB2     		uxtb	r3, r3
 901 0016 FF2B     		cmp	r3, #255
 902 0018 04D0     		beq	.L21
 903              		.loc 1 245 0 is_stmt 0 discriminator 1
 904 001a BF4B     		ldr	r3, .L50+4
 905 001c 1B78     		ldrb	r3, [r3]
 906 001e DBB2     		uxtb	r3, r3
 907 0020 FF2B     		cmp	r3, #255
 908 0022 58D1     		bne	.L22
 909              	.L21:
 246:.\main.c      **** 			while(ver_pos()==0){};
 910              		.loc 1 246 0 is_stmt 1
 911 0024 00BF     		nop
 912              	.L23:
 913              		.loc 1 246 0 is_stmt 0 discriminator 1
 914 0026 FFF7FEFF 		bl	ver_pos
 915 002a 0346     		mov	r3, r0
 916 002c 002B     		cmp	r3, #0
 917 002e FAD0     		beq	.L23
 247:.\main.c      **** 		    while(totales(lado1.dir, lado1.mangueras)==0);			
 918              		.loc 1 247 0 is_stmt 1
 919 0030 00BF     		nop
 920              	.L24:
 921              		.loc 1 247 0 is_stmt 0 discriminator 1
 922 0032 B84B     		ldr	r3, .L50
 923 0034 1B78     		ldrb	r3, [r3]
 924 0036 DAB2     		uxtb	r2, r3
 925 0038 B64B     		ldr	r3, .L50
 926 003a 93F85C30 		ldrb	r3, [r3, #92]
 927 003e DBB2     		uxtb	r3, r3
 928 0040 1046     		mov	r0, r2
 929 0042 1946     		mov	r1, r3
 930 0044 FFF7FEFF 		bl	totales
 931 0048 0346     		mov	r3, r0
 932 004a 002B     		cmp	r3, #0
 933 004c F1D0     		beq	.L24
 248:.\main.c      **** 			CyDelay(50);	
 934              		.loc 1 248 0 is_stmt 1
 935 004e 3220     		movs	r0, #50
 936 0050 FFF7FEFF 		bl	CyDelay
 249:.\main.c      **** 			while(totales(lado2.dir, lado2.mangueras)==0);
 937              		.loc 1 249 0
ARM GAS  C:\Users\diego\AppData\Local\Temp\ccW8UKJI.s 			page 22


 938 0054 00BF     		nop
 939              	.L25:
 940              		.loc 1 249 0 is_stmt 0 discriminator 1
 941 0056 B04B     		ldr	r3, .L50+4
 942 0058 1B78     		ldrb	r3, [r3]
 943 005a DAB2     		uxtb	r2, r3
 944 005c AE4B     		ldr	r3, .L50+4
 945 005e 93F85C30 		ldrb	r3, [r3, #92]
 946 0062 DBB2     		uxtb	r3, r3
 947 0064 1046     		mov	r0, r2
 948 0066 1946     		mov	r1, r3
 949 0068 FFF7FEFF 		bl	totales
 950 006c 0346     		mov	r3, r0
 951 006e 002B     		cmp	r3, #0
 952 0070 F1D0     		beq	.L25
 250:.\main.c      **** 			CyDelay(50);	
 953              		.loc 1 250 0 is_stmt 1
 954 0072 3220     		movs	r0, #50
 955 0074 FFF7FEFF 		bl	CyDelay
 251:.\main.c      **** 			if(EEPROM_WriteByte(lado1.dir, 26)==CYRET_SUCCESS){
 956              		.loc 1 251 0
 957 0078 A64B     		ldr	r3, .L50
 958 007a 1B78     		ldrb	r3, [r3]
 959 007c DBB2     		uxtb	r3, r3
 960 007e 1846     		mov	r0, r3
 961 0080 1A21     		movs	r1, #26
 962 0082 FFF7FEFF 		bl	EEPROM_WriteByte
 963 0086 0346     		mov	r3, r0
 964 0088 002B     		cmp	r3, #0
 965 008a 04D1     		bne	.L26
 252:.\main.c      **** 				set_imagen(1,60);								
 966              		.loc 1 252 0
 967 008c 0120     		movs	r0, #1
 968 008e 3C21     		movs	r1, #60
 969 0090 FFF7FEFF 		bl	set_imagen
 970 0094 03E0     		b	.L27
 971              	.L26:
 253:.\main.c      **** 			}
 254:.\main.c      **** 			else{
 255:.\main.c      **** 				set_imagen(1,85);
 972              		.loc 1 255 0
 973 0096 0120     		movs	r0, #1
 974 0098 5521     		movs	r1, #85
 975 009a FFF7FEFF 		bl	set_imagen
 976              	.L27:
 256:.\main.c      **** 			}
 257:.\main.c      **** 			if(EEPROM_WriteByte(lado2.dir, 28)==CYRET_SUCCESS){
 977              		.loc 1 257 0
 978 009e 9E4B     		ldr	r3, .L50+4
 979 00a0 1B78     		ldrb	r3, [r3]
 980 00a2 DBB2     		uxtb	r3, r3
 981 00a4 1846     		mov	r0, r3
 982 00a6 1C21     		movs	r1, #28
 983 00a8 FFF7FEFF 		bl	EEPROM_WriteByte
 984 00ac 0346     		mov	r3, r0
 985 00ae 002B     		cmp	r3, #0
 986 00b0 04D1     		bne	.L28
ARM GAS  C:\Users\diego\AppData\Local\Temp\ccW8UKJI.s 			page 23


 258:.\main.c      **** 				set_imagen(2,60);								
 987              		.loc 1 258 0
 988 00b2 0220     		movs	r0, #2
 989 00b4 3C21     		movs	r1, #60
 990 00b6 FFF7FEFF 		bl	set_imagen
 991 00ba 03E0     		b	.L29
 992              	.L28:
 259:.\main.c      **** 			}
 260:.\main.c      **** 			else{
 261:.\main.c      **** 				set_imagen(2,85);
 993              		.loc 1 261 0
 994 00bc 0220     		movs	r0, #2
 995 00be 5521     		movs	r1, #85
 996 00c0 FFF7FEFF 		bl	set_imagen
 997              	.L29:
 262:.\main.c      **** 			}
 263:.\main.c      **** 			flujo_LCD2=0;
 998              		.loc 1 263 0
 999 00c4 954B     		ldr	r3, .L50+8
 1000 00c6 0022     		movs	r2, #0
 1001 00c8 1A70     		strb	r2, [r3]
 264:.\main.c      **** 			flujo_LCD1=0;			
 1002              		.loc 1 264 0
 1003 00ca 954B     		ldr	r3, .L50+12
 1004 00cc 0022     		movs	r2, #0
 1005 00ce 1A70     		strb	r2, [r3]
 265:.\main.c      **** 			ok=2;	
 1006              		.loc 1 265 0
 1007 00d0 0223     		movs	r3, #2
 1008 00d2 FB71     		strb	r3, [r7, #7]
 1009 00d4 16E1     		b	.L20
 1010              	.L22:
 266:.\main.c      **** 		}
 267:.\main.c      **** 		else{
 268:.\main.c      **** 			estado=get_estado(lado1.dir);										
 1011              		.loc 1 268 0
 1012 00d6 8F4B     		ldr	r3, .L50
 1013 00d8 1B78     		ldrb	r3, [r3]
 1014 00da DBB2     		uxtb	r3, r3
 1015 00dc 1846     		mov	r0, r3
 1016 00de FFF7FEFF 		bl	get_estado
 1017 00e2 0346     		mov	r3, r0
 1018 00e4 BB71     		strb	r3, [r7, #6]
 269:.\main.c      **** 			switch(estado){
 1019              		.loc 1 269 0
 1020 00e6 BB79     		ldrb	r3, [r7, #6]	@ zero_extendqisi2
 1021 00e8 0C2B     		cmp	r3, #12
 1022 00ea 7BD8     		bhi	.L30
 1023 00ec 01A2     		adr	r2, .L32
 1024 00ee 52F823F0 		ldr	pc, [r2, r3, lsl #2]
 1025 00f2 00BF     		.p2align 2
 1026              	.L32:
 1027 00f4 29010000 		.word	.L31+1
 1028 00f8 E5010000 		.word	.L30+1
 1029 00fc E5010000 		.word	.L30+1
 1030 0100 E5010000 		.word	.L30+1
 1031 0104 E5010000 		.word	.L30+1
ARM GAS  C:\Users\diego\AppData\Local\Temp\ccW8UKJI.s 			page 24


 1032 0108 E5010000 		.word	.L30+1
 1033 010c 31010000 		.word	.L33+1
 1034 0110 6D010000 		.word	.L34+1
 1035 0114 97010000 		.word	.L35+1
 1036 0118 A5010000 		.word	.L36+1
 1037 011c C1010000 		.word	.L37+1
 1038 0120 B3010000 		.word	.L38+1
 1039 0124 CF010000 		.word	.L39+1
 1040              		.p2align 1
 1041              	.L31:
 270:.\main.c      **** 		         case 0:                     
 271:.\main.c      **** 					lado1.dir=0xFF;
 1042              		.loc 1 271 0
 1043 0128 7A4B     		ldr	r3, .L50
 1044 012a FF22     		movs	r2, #255
 1045 012c 1A70     		strb	r2, [r3]
 272:.\main.c      **** 				 break;	
 1046              		.loc 1 272 0
 1047 012e 59E0     		b	.L30
 1048              	.L33:
 273:.\main.c      **** 			
 274:.\main.c      **** 				case 0x06:
 275:.\main.c      **** 					venta(lado1.dir);
 1049              		.loc 1 275 0
 1050 0130 784B     		ldr	r3, .L50
 1051 0132 1B78     		ldrb	r3, [r3]
 1052 0134 DBB2     		uxtb	r3, r3
 1053 0136 1846     		mov	r0, r3
 1054 0138 FFF7FEFF 		bl	venta
 276:.\main.c      **** 					CyDelay(50);	
 1055              		.loc 1 276 0
 1056 013c 3220     		movs	r0, #50
 1057 013e FFF7FEFF 		bl	CyDelay
 277:.\main.c      **** 					totales(lado1.dir, lado1.mangueras);
 1058              		.loc 1 277 0
 1059 0142 744B     		ldr	r3, .L50
 1060 0144 1B78     		ldrb	r3, [r3]
 1061 0146 DAB2     		uxtb	r2, r3
 1062 0148 724B     		ldr	r3, .L50
 1063 014a 93F85C30 		ldrb	r3, [r3, #92]
 1064 014e DBB2     		uxtb	r3, r3
 1065 0150 1046     		mov	r0, r2
 1066 0152 1946     		mov	r1, r3
 1067 0154 FFF7FEFF 		bl	totales
 278:.\main.c      **** 					CyDelay(50);	
 1068              		.loc 1 278 0
 1069 0158 3220     		movs	r0, #50
 1070 015a FFF7FEFF 		bl	CyDelay
 279:.\main.c      **** 					flujo_LCD1=0;					
 1071              		.loc 1 279 0
 1072 015e 704B     		ldr	r3, .L50+12
 1073 0160 0022     		movs	r2, #0
 1074 0162 1A70     		strb	r2, [r3]
 280:.\main.c      **** 					ok++;
 1075              		.loc 1 280 0
 1076 0164 FB79     		ldrb	r3, [r7, #7]	@ zero_extendqisi2
 1077 0166 0133     		adds	r3, r3, #1
ARM GAS  C:\Users\diego\AppData\Local\Temp\ccW8UKJI.s 			page 25


 1078 0168 FB71     		strb	r3, [r7, #7]
 281:.\main.c      **** 				break;
 1079              		.loc 1 281 0
 1080 016a 3BE0     		b	.L30
 1081              	.L34:
 282:.\main.c      **** 					
 283:.\main.c      **** 				case 0x07:	
 284:.\main.c      **** 					totales(lado1.dir, lado1.mangueras);
 1082              		.loc 1 284 0
 1083 016c 694B     		ldr	r3, .L50
 1084 016e 1B78     		ldrb	r3, [r3]
 1085 0170 DAB2     		uxtb	r2, r3
 1086 0172 684B     		ldr	r3, .L50
 1087 0174 93F85C30 		ldrb	r3, [r3, #92]
 1088 0178 DBB2     		uxtb	r3, r3
 1089 017a 1046     		mov	r0, r2
 1090 017c 1946     		mov	r1, r3
 1091 017e FFF7FEFF 		bl	totales
 285:.\main.c      **** 					CyDelay(50);	
 1092              		.loc 1 285 0
 1093 0182 3220     		movs	r0, #50
 1094 0184 FFF7FEFF 		bl	CyDelay
 286:.\main.c      **** 					flujo_LCD1=0;					
 1095              		.loc 1 286 0
 1096 0188 654B     		ldr	r3, .L50+12
 1097 018a 0022     		movs	r2, #0
 1098 018c 1A70     		strb	r2, [r3]
 287:.\main.c      **** 					ok++;
 1099              		.loc 1 287 0
 1100 018e FB79     		ldrb	r3, [r7, #7]	@ zero_extendqisi2
 1101 0190 0133     		adds	r3, r3, #1
 1102 0192 FB71     		strb	r3, [r7, #7]
 288:.\main.c      **** 				break;
 1103              		.loc 1 288 0
 1104 0194 26E0     		b	.L30
 1105              	.L35:
 289:.\main.c      **** 				
 290:.\main.c      **** 				case 0x08:
 291:.\main.c      **** 			     	flujo_LCD1=11;
 1106              		.loc 1 291 0
 1107 0196 624B     		ldr	r3, .L50+12
 1108 0198 0B22     		movs	r2, #11
 1109 019a 1A70     		strb	r2, [r3]
 292:.\main.c      **** 					ok++;
 1110              		.loc 1 292 0
 1111 019c FB79     		ldrb	r3, [r7, #7]	@ zero_extendqisi2
 1112 019e 0133     		adds	r3, r3, #1
 1113 01a0 FB71     		strb	r3, [r7, #7]
 293:.\main.c      **** 				break;
 1114              		.loc 1 293 0
 1115 01a2 1FE0     		b	.L30
 1116              	.L36:
 294:.\main.c      **** 					
 295:.\main.c      **** 				case 0x09:
 296:.\main.c      **** 			     	flujo_LCD1=11;
 1117              		.loc 1 296 0
 1118 01a4 5E4B     		ldr	r3, .L50+12
ARM GAS  C:\Users\diego\AppData\Local\Temp\ccW8UKJI.s 			page 26


 1119 01a6 0B22     		movs	r2, #11
 1120 01a8 1A70     		strb	r2, [r3]
 297:.\main.c      **** 					ok++;
 1121              		.loc 1 297 0
 1122 01aa FB79     		ldrb	r3, [r7, #7]	@ zero_extendqisi2
 1123 01ac 0133     		adds	r3, r3, #1
 1124 01ae FB71     		strb	r3, [r7, #7]
 298:.\main.c      **** 				break;
 1125              		.loc 1 298 0
 1126 01b0 18E0     		b	.L30
 1127              	.L38:
 299:.\main.c      **** 				
 300:.\main.c      **** 		         case 0x0B:                     //Termino venta
 301:.\main.c      **** 					flujo_LCD1=12;
 1128              		.loc 1 301 0
 1129 01b2 5B4B     		ldr	r3, .L50+12
 1130 01b4 0C22     		movs	r2, #12
 1131 01b6 1A70     		strb	r2, [r3]
 302:.\main.c      **** 					ok++;
 1132              		.loc 1 302 0
 1133 01b8 FB79     		ldrb	r3, [r7, #7]	@ zero_extendqisi2
 1134 01ba 0133     		adds	r3, r3, #1
 1135 01bc FB71     		strb	r3, [r7, #7]
 303:.\main.c      **** 				 break;	
 1136              		.loc 1 303 0
 1137 01be 11E0     		b	.L30
 1138              	.L37:
 304:.\main.c      **** 					
 305:.\main.c      **** 		         case 0x0A:						//Termino venta
 306:.\main.c      **** 					flujo_LCD1=12;
 1139              		.loc 1 306 0
 1140 01c0 574B     		ldr	r3, .L50+12
 1141 01c2 0C22     		movs	r2, #12
 1142 01c4 1A70     		strb	r2, [r3]
 307:.\main.c      **** 					ok++;
 1143              		.loc 1 307 0
 1144 01c6 FB79     		ldrb	r3, [r7, #7]	@ zero_extendqisi2
 1145 01c8 0133     		adds	r3, r3, #1
 1146 01ca FB71     		strb	r3, [r7, #7]
 308:.\main.c      **** 				 break;
 1147              		.loc 1 308 0
 1148 01cc 0AE0     		b	.L30
 1149              	.L39:
 309:.\main.c      **** 					
 310:.\main.c      **** 		         case 0x0C:						//Bloqueado por surtiendo al iniciar
 311:.\main.c      **** 			     	flujo_LCD1=11;
 1150              		.loc 1 311 0
 1151 01ce 544B     		ldr	r3, .L50+12
 1152 01d0 0B22     		movs	r2, #11
 1153 01d2 1A70     		strb	r2, [r3]
 312:.\main.c      **** 				 	set_imagen(1,8);
 1154              		.loc 1 312 0
 1155 01d4 0120     		movs	r0, #1
 1156 01d6 0821     		movs	r1, #8
 1157 01d8 FFF7FEFF 		bl	set_imagen
 313:.\main.c      **** 					ok++;
 1158              		.loc 1 313 0
ARM GAS  C:\Users\diego\AppData\Local\Temp\ccW8UKJI.s 			page 27


 1159 01dc FB79     		ldrb	r3, [r7, #7]	@ zero_extendqisi2
 1160 01de 0133     		adds	r3, r3, #1
 1161 01e0 FB71     		strb	r3, [r7, #7]
 314:.\main.c      **** 				 break;					
 1162              		.loc 1 314 0
 1163 01e2 00BF     		nop
 1164              	.L30:
 315:.\main.c      **** 					
 316:.\main.c      **** 			}
 317:.\main.c      **** 			estado=get_estado(lado2.dir);										
 1165              		.loc 1 317 0
 1166 01e4 4C4B     		ldr	r3, .L50+4
 1167 01e6 1B78     		ldrb	r3, [r3]
 1168 01e8 DBB2     		uxtb	r3, r3
 1169 01ea 1846     		mov	r0, r3
 1170 01ec FFF7FEFF 		bl	get_estado
 1171 01f0 0346     		mov	r3, r0
 1172 01f2 BB71     		strb	r3, [r7, #6]
 318:.\main.c      **** 			switch(estado){
 1173              		.loc 1 318 0
 1174 01f4 BB79     		ldrb	r3, [r7, #6]	@ zero_extendqisi2
 1175 01f6 0C2B     		cmp	r3, #12
 1176 01f8 00F28480 		bhi	.L20
 1177 01fc 01A2     		adr	r2, .L41
 1178 01fe 52F823F0 		ldr	pc, [r2, r3, lsl #2]
 1179 0202 00BF     		.p2align 2
 1180              	.L41:
 1181 0204 39020000 		.word	.L40+1
 1182 0208 05030000 		.word	.L20+1
 1183 020c 05030000 		.word	.L20+1
 1184 0210 05030000 		.word	.L20+1
 1185 0214 05030000 		.word	.L20+1
 1186 0218 05030000 		.word	.L20+1
 1187 021c 41020000 		.word	.L42+1
 1188 0220 7D020000 		.word	.L43+1
 1189 0224 A7020000 		.word	.L44+1
 1190 0228 BD020000 		.word	.L45+1
 1191 022c E1020000 		.word	.L46+1
 1192 0230 D3020000 		.word	.L47+1
 1193 0234 EF020000 		.word	.L48+1
 1194              		.p2align 1
 1195              	.L40:
 319:.\main.c      **** 		         case 0:                     
 320:.\main.c      **** 					lado2.dir=0xFF;
 1196              		.loc 1 320 0
 1197 0238 374B     		ldr	r3, .L50+4
 1198 023a FF22     		movs	r2, #255
 1199 023c 1A70     		strb	r2, [r3]
 321:.\main.c      **** 				 break;	
 1200              		.loc 1 321 0
 1201 023e 61E0     		b	.L20
 1202              	.L42:
 322:.\main.c      **** 			
 323:.\main.c      **** 				case 0x06:
 324:.\main.c      **** 					venta(lado2.dir);
 1203              		.loc 1 324 0
 1204 0240 354B     		ldr	r3, .L50+4
ARM GAS  C:\Users\diego\AppData\Local\Temp\ccW8UKJI.s 			page 28


 1205 0242 1B78     		ldrb	r3, [r3]
 1206 0244 DBB2     		uxtb	r3, r3
 1207 0246 1846     		mov	r0, r3
 1208 0248 FFF7FEFF 		bl	venta
 325:.\main.c      **** 					CyDelay(50);		
 1209              		.loc 1 325 0
 1210 024c 3220     		movs	r0, #50
 1211 024e FFF7FEFF 		bl	CyDelay
 326:.\main.c      **** 					totales(lado2.dir, lado2.mangueras);
 1212              		.loc 1 326 0
 1213 0252 314B     		ldr	r3, .L50+4
 1214 0254 1B78     		ldrb	r3, [r3]
 1215 0256 DAB2     		uxtb	r2, r3
 1216 0258 2F4B     		ldr	r3, .L50+4
 1217 025a 93F85C30 		ldrb	r3, [r3, #92]
 1218 025e DBB2     		uxtb	r3, r3
 1219 0260 1046     		mov	r0, r2
 1220 0262 1946     		mov	r1, r3
 1221 0264 FFF7FEFF 		bl	totales
 327:.\main.c      **** 					CyDelay(50);	
 1222              		.loc 1 327 0
 1223 0268 3220     		movs	r0, #50
 1224 026a FFF7FEFF 		bl	CyDelay
 328:.\main.c      **** 					flujo_LCD2=0;				
 1225              		.loc 1 328 0
 1226 026e 2B4B     		ldr	r3, .L50+8
 1227 0270 0022     		movs	r2, #0
 1228 0272 1A70     		strb	r2, [r3]
 329:.\main.c      **** 					ok++;
 1229              		.loc 1 329 0
 1230 0274 FB79     		ldrb	r3, [r7, #7]	@ zero_extendqisi2
 1231 0276 0133     		adds	r3, r3, #1
 1232 0278 FB71     		strb	r3, [r7, #7]
 330:.\main.c      **** 				break;
 1233              		.loc 1 330 0
 1234 027a 43E0     		b	.L20
 1235              	.L43:
 331:.\main.c      **** 					
 332:.\main.c      **** 				case 0x07:	
 333:.\main.c      **** 					totales(lado2.dir, lado2.mangueras);
 1236              		.loc 1 333 0
 1237 027c 264B     		ldr	r3, .L50+4
 1238 027e 1B78     		ldrb	r3, [r3]
 1239 0280 DAB2     		uxtb	r2, r3
 1240 0282 254B     		ldr	r3, .L50+4
 1241 0284 93F85C30 		ldrb	r3, [r3, #92]
 1242 0288 DBB2     		uxtb	r3, r3
 1243 028a 1046     		mov	r0, r2
 1244 028c 1946     		mov	r1, r3
 1245 028e FFF7FEFF 		bl	totales
 334:.\main.c      **** 					CyDelay(50);	
 1246              		.loc 1 334 0
 1247 0292 3220     		movs	r0, #50
 1248 0294 FFF7FEFF 		bl	CyDelay
 335:.\main.c      **** 					flujo_LCD2=0;					
 1249              		.loc 1 335 0
 1250 0298 204B     		ldr	r3, .L50+8
ARM GAS  C:\Users\diego\AppData\Local\Temp\ccW8UKJI.s 			page 29


 1251 029a 0022     		movs	r2, #0
 1252 029c 1A70     		strb	r2, [r3]
 336:.\main.c      **** 					ok++;
 1253              		.loc 1 336 0
 1254 029e FB79     		ldrb	r3, [r7, #7]	@ zero_extendqisi2
 1255 02a0 0133     		adds	r3, r3, #1
 1256 02a2 FB71     		strb	r3, [r7, #7]
 337:.\main.c      **** 				break;
 1257              		.loc 1 337 0
 1258 02a4 2EE0     		b	.L20
 1259              	.L44:
 338:.\main.c      **** 				
 339:.\main.c      **** 				case 0x08:
 340:.\main.c      **** 			     	flujo_LCD2=11;
 1260              		.loc 1 340 0
 1261 02a6 1D4B     		ldr	r3, .L50+8
 1262 02a8 0B22     		movs	r2, #11
 1263 02aa 1A70     		strb	r2, [r3]
 341:.\main.c      **** 				 	set_imagen(2,8);
 1264              		.loc 1 341 0
 1265 02ac 0220     		movs	r0, #2
 1266 02ae 0821     		movs	r1, #8
 1267 02b0 FFF7FEFF 		bl	set_imagen
 342:.\main.c      **** 					ok++;
 1268              		.loc 1 342 0
 1269 02b4 FB79     		ldrb	r3, [r7, #7]	@ zero_extendqisi2
 1270 02b6 0133     		adds	r3, r3, #1
 1271 02b8 FB71     		strb	r3, [r7, #7]
 343:.\main.c      **** 				break;
 1272              		.loc 1 343 0
 1273 02ba 23E0     		b	.L20
 1274              	.L45:
 344:.\main.c      **** 					
 345:.\main.c      **** 				case 0x09:
 346:.\main.c      **** 			     	flujo_LCD2=11;
 1275              		.loc 1 346 0
 1276 02bc 174B     		ldr	r3, .L50+8
 1277 02be 0B22     		movs	r2, #11
 1278 02c0 1A70     		strb	r2, [r3]
 347:.\main.c      **** 				 	set_imagen(2,8);
 1279              		.loc 1 347 0
 1280 02c2 0220     		movs	r0, #2
 1281 02c4 0821     		movs	r1, #8
 1282 02c6 FFF7FEFF 		bl	set_imagen
 348:.\main.c      **** 					ok++;
 1283              		.loc 1 348 0
 1284 02ca FB79     		ldrb	r3, [r7, #7]	@ zero_extendqisi2
 1285 02cc 0133     		adds	r3, r3, #1
 1286 02ce FB71     		strb	r3, [r7, #7]
 349:.\main.c      **** 				break;
 1287              		.loc 1 349 0
 1288 02d0 18E0     		b	.L20
 1289              	.L47:
 350:.\main.c      **** 				
 351:.\main.c      **** 		         case 0x0B:                     //Termino venta
 352:.\main.c      **** 					flujo_LCD2=12;
 1290              		.loc 1 352 0
ARM GAS  C:\Users\diego\AppData\Local\Temp\ccW8UKJI.s 			page 30


 1291 02d2 124B     		ldr	r3, .L50+8
 1292 02d4 0C22     		movs	r2, #12
 1293 02d6 1A70     		strb	r2, [r3]
 353:.\main.c      **** 					ok++;
 1294              		.loc 1 353 0
 1295 02d8 FB79     		ldrb	r3, [r7, #7]	@ zero_extendqisi2
 1296 02da 0133     		adds	r3, r3, #1
 1297 02dc FB71     		strb	r3, [r7, #7]
 354:.\main.c      **** 				 break;	
 1298              		.loc 1 354 0
 1299 02de 11E0     		b	.L20
 1300              	.L46:
 355:.\main.c      **** 					
 356:.\main.c      **** 		         case 0x0A:						//Termino venta
 357:.\main.c      **** 					flujo_LCD2=12;
 1301              		.loc 1 357 0
 1302 02e0 0E4B     		ldr	r3, .L50+8
 1303 02e2 0C22     		movs	r2, #12
 1304 02e4 1A70     		strb	r2, [r3]
 358:.\main.c      **** 					ok++;
 1305              		.loc 1 358 0
 1306 02e6 FB79     		ldrb	r3, [r7, #7]	@ zero_extendqisi2
 1307 02e8 0133     		adds	r3, r3, #1
 1308 02ea FB71     		strb	r3, [r7, #7]
 359:.\main.c      **** 				 break;
 1309              		.loc 1 359 0
 1310 02ec 0AE0     		b	.L20
 1311              	.L48:
 360:.\main.c      **** 					
 361:.\main.c      **** 		         case 0x0C:						//Bloqueado por surtiendo al iniciar
 362:.\main.c      **** 			     	flujo_LCD2=11;
 1312              		.loc 1 362 0
 1313 02ee 0B4B     		ldr	r3, .L50+8
 1314 02f0 0B22     		movs	r2, #11
 1315 02f2 1A70     		strb	r2, [r3]
 363:.\main.c      **** 				 	set_imagen(2,8);
 1316              		.loc 1 363 0
 1317 02f4 0220     		movs	r0, #2
 1318 02f6 0821     		movs	r1, #8
 1319 02f8 FFF7FEFF 		bl	set_imagen
 364:.\main.c      **** 					ok++;
 1320              		.loc 1 364 0
 1321 02fc FB79     		ldrb	r3, [r7, #7]	@ zero_extendqisi2
 1322 02fe 0133     		adds	r3, r3, #1
 1323 0300 FB71     		strb	r3, [r7, #7]
 365:.\main.c      **** 				 break;										
 1324              		.loc 1 365 0
 1325 0302 00BF     		nop
 1326              	.L20:
 243:.\main.c      **** 		ok=0;
 1327              		.loc 1 243 0
 1328 0304 FB79     		ldrb	r3, [r7, #7]	@ zero_extendqisi2
 1329 0306 012B     		cmp	r3, #1
 1330 0308 7FF680AE 		bls	.L49
 366:.\main.c      **** 			}			
 367:.\main.c      **** 		}
 368:.\main.c      **** 	}
ARM GAS  C:\Users\diego\AppData\Local\Temp\ccW8UKJI.s 			page 31


 369:.\main.c      **** }
 1331              		.loc 1 369 0
 1332 030c 0837     		adds	r7, r7, #8
 1333              		.cfi_def_cfa_offset 8
 1334 030e BD46     		mov	sp, r7
 1335              		.cfi_def_cfa_register 13
 1336              		@ sp needed
 1337 0310 80BD     		pop	{r7, pc}
 1338              	.L51:
 1339 0312 00BF     		.align	2
 1340              	.L50:
 1341 0314 00000000 		.word	lado1
 1342 0318 00000000 		.word	lado2
 1343 031c 00000000 		.word	flujo_LCD2
 1344 0320 00000000 		.word	flujo_LCD1
 1345              		.cfi_endproc
 1346              	.LFE66:
 1347              		.size	init_surt, .-init_surt
 1348              		.section	.text.polling_rf,"ax",%progbits
 1349              		.align	2
 1350              		.global	polling_rf
 1351              		.thumb
 1352              		.thumb_func
 1353              		.type	polling_rf, %function
 1354              	polling_rf:
 1355              	.LFB67:
 370:.\main.c      **** 
 371:.\main.c      **** /*
 372:.\main.c      **** ***************************************************************************************************
 373:.\main.c      **** *                                         uint8 polling_rf(void)
 374:.\main.c      **** *
 375:.\main.c      **** * Description : 
 376:.\main.c      **** *               
 377:.\main.c      **** *
 378:.\main.c      **** * Argument(s) : none
 379:.\main.c      **** *
 380:.\main.c      **** * Return(s)   : none
 381:.\main.c      **** *
 382:.\main.c      **** * Caller(s)   : 
 383:.\main.c      **** *
 384:.\main.c      **** * Note(s)     : none.
 385:.\main.c      **** ***************************************************************************************************
 386:.\main.c      **** */
 387:.\main.c      **** void polling_rf(void){
 1356              		.loc 1 387 0
 1357              		.cfi_startproc
 1358              		@ args = 0, pretend = 0, frame = 24
 1359              		@ frame_needed = 1, uses_anonymous_args = 0
 1360 0000 80B5     		push	{r7, lr}
 1361              		.cfi_def_cfa_offset 8
 1362              		.cfi_offset 7, -8
 1363              		.cfi_offset 14, -4
 1364 0002 86B0     		sub	sp, sp, #24
 1365              		.cfi_def_cfa_offset 32
 1366 0004 00AF     		add	r7, sp, #0
 1367              		.cfi_def_cfa_register 7
 388:.\main.c      **** 	uint16 status1, status2,size,x,t_preset;
ARM GAS  C:\Users\diego\AppData\Local\Temp\ccW8UKJI.s 			page 32


 389:.\main.c      **** 	uint8  precio[5],preset[8];
 390:.\main.c      ****     
 391:.\main.c      **** 	if(PC_GetRxBufferSize()>=6){
 1368              		.loc 1 391 0
 1369 0006 FFF7FEFF 		bl	PC_GetRxBufferSize
 1370 000a 0346     		mov	r3, r0
 1371 000c 052B     		cmp	r3, #5
 1372 000e 40F27982 		bls	.L52
 392:.\main.c      **** 		status1=PC_GetRxBufferSize();
 1373              		.loc 1 392 0
 1374 0012 FFF7FEFF 		bl	PC_GetRxBufferSize
 1375 0016 0346     		mov	r3, r0
 1376 0018 3B82     		strh	r3, [r7, #16]	@ movhi
 393:.\main.c      **** 		CyDelay(10);
 1377              		.loc 1 393 0
 1378 001a 0A20     		movs	r0, #10
 1379 001c FFF7FEFF 		bl	CyDelay
 394:.\main.c      **** 		status2=PC_GetRxBufferSize();
 1380              		.loc 1 394 0
 1381 0020 FFF7FEFF 		bl	PC_GetRxBufferSize
 1382 0024 0346     		mov	r3, r0
 1383 0026 FB81     		strh	r3, [r7, #14]	@ movhi
 395:.\main.c      **** 		if(status1==status2){		
 1384              		.loc 1 395 0
 1385 0028 3A8A     		ldrh	r2, [r7, #16]
 1386 002a FB89     		ldrh	r3, [r7, #14]
 1387 002c 9A42     		cmp	r2, r3
 1388 002e 40F06982 		bne	.L52
 396:.\main.c      **** 			if((PC_rxBuffer[0]=='B')&&(PC_rxBuffer[1]=='B')&&(PC_rxBuffer[2]=='B')){
 1389              		.loc 1 396 0
 1390 0032 924B     		ldr	r3, .L87
 1391 0034 1B78     		ldrb	r3, [r3]
 1392 0036 DBB2     		uxtb	r3, r3
 1393 0038 422B     		cmp	r3, #66
 1394 003a 40F05B82 		bne	.L54
 1395              		.loc 1 396 0 is_stmt 0 discriminator 1
 1396 003e 8F4B     		ldr	r3, .L87
 1397 0040 5B78     		ldrb	r3, [r3, #1]
 1398 0042 DBB2     		uxtb	r3, r3
 1399 0044 422B     		cmp	r3, #66
 1400 0046 40F05582 		bne	.L54
 1401              		.loc 1 396 0 discriminator 2
 1402 004a 8C4B     		ldr	r3, .L87
 1403 004c 9B78     		ldrb	r3, [r3, #2]
 1404 004e DBB2     		uxtb	r3, r3
 1405 0050 422B     		cmp	r3, #66
 1406 0052 40F04F82 		bne	.L54
 397:.\main.c      **** 				ok_datosRF=0;   
 1407              		.loc 1 397 0 is_stmt 1
 1408 0056 8A4B     		ldr	r3, .L87+4
 1409 0058 0022     		movs	r2, #0
 1410 005a 1A70     		strb	r2, [r3]
 398:.\main.c      **** 				switch(PC_rxBuffer[3]){
 1411              		.loc 1 398 0
 1412 005c 874B     		ldr	r3, .L87
 1413 005e DB78     		ldrb	r3, [r3, #3]
 1414 0060 DBB2     		uxtb	r3, r3
ARM GAS  C:\Users\diego\AppData\Local\Temp\ccW8UKJI.s 			page 33


 1415 0062 312B     		cmp	r3, #49
 1416 0064 00F0DE81 		beq	.L56
 1417 0068 452B     		cmp	r3, #69
 1418 006a 00F00482 		beq	.L57
 1419 006e 302B     		cmp	r3, #48
 1420 0070 40F02C82 		bne	.L55
 399:.\main.c      **** 					case cautorizar:
 400:.\main.c      ****                     PC_rxBuffer[3] = 0;
 1421              		.loc 1 400 0
 1422 0074 814B     		ldr	r3, .L87
 1423 0076 0022     		movs	r2, #0
 1424 0078 DA70     		strb	r2, [r3, #3]
 401:.\main.c      **** 						if(PC_rxBuffer[5]=='N'){			//No autorizo el servidor		
 1425              		.loc 1 401 0
 1426 007a 804B     		ldr	r3, .L87
 1427 007c 5B79     		ldrb	r3, [r3, #5]
 1428 007e DBB2     		uxtb	r3, r3
 1429 0080 4E2B     		cmp	r3, #78
 1430 0082 0AD1     		bne	.L59
 402:.\main.c      **** 							error_op((PC_rxBuffer[4] & 0x0F),28);
 1431              		.loc 1 402 0
 1432 0084 7D4B     		ldr	r3, .L87
 1433 0086 1B79     		ldrb	r3, [r3, #4]
 1434 0088 DBB2     		uxtb	r3, r3
 1435 008a 03F00F03 		and	r3, r3, #15
 1436 008e DBB2     		uxtb	r3, r3
 1437 0090 1846     		mov	r0, r3
 1438 0092 1C21     		movs	r1, #28
 1439 0094 FFF7FEFF 		bl	error_op
 403:.\main.c      **** 							break;
 1440              		.loc 1 403 0
 1441 0098 18E2     		b	.L55
 1442              	.L59:
 404:.\main.c      **** 						}
 405:.\main.c      **** 						if(PC_rxBuffer[10]=='F'){		//Cambia precio
 1443              		.loc 1 405 0
 1444 009a 784B     		ldr	r3, .L87
 1445 009c 9B7A     		ldrb	r3, [r3, #10]
 1446 009e DBB2     		uxtb	r3, r3
 1447 00a0 462B     		cmp	r3, #70
 1448 00a2 7DD1     		bne	.L60
 406:.\main.c      ****                             precio[0]=lado1.ppu[rventa1.manguera-1][0]&0x0f;	
 1449              		.loc 1 406 0
 1450 00a4 774B     		ldr	r3, .L87+8
 1451 00a6 9B7E     		ldrb	r3, [r3, #26]	@ zero_extendqisi2
 1452 00a8 5A1E     		subs	r2, r3, #1
 1453 00aa 7749     		ldr	r1, .L87+12
 1454 00ac 1346     		mov	r3, r2
 1455 00ae 9B00     		lsls	r3, r3, #2
 1456 00b0 1344     		add	r3, r3, r2
 1457 00b2 0B44     		add	r3, r3, r1
 1458 00b4 4833     		adds	r3, r3, #72
 1459 00b6 9B78     		ldrb	r3, [r3, #2]
 1460 00b8 DBB2     		uxtb	r3, r3
 1461 00ba 03F00F03 		and	r3, r3, #15
 1462 00be DBB2     		uxtb	r3, r3
 1463 00c0 3B72     		strb	r3, [r7, #8]
ARM GAS  C:\Users\diego\AppData\Local\Temp\ccW8UKJI.s 			page 34


 407:.\main.c      ****     						precio[1]=lado1.ppu[rventa1.manguera-1][1]&0x0f;
 1464              		.loc 1 407 0
 1465 00c2 704B     		ldr	r3, .L87+8
 1466 00c4 9B7E     		ldrb	r3, [r3, #26]	@ zero_extendqisi2
 1467 00c6 5A1E     		subs	r2, r3, #1
 1468 00c8 6F49     		ldr	r1, .L87+12
 1469 00ca 1346     		mov	r3, r2
 1470 00cc 9B00     		lsls	r3, r3, #2
 1471 00ce 1344     		add	r3, r3, r2
 1472 00d0 0B44     		add	r3, r3, r1
 1473 00d2 4933     		adds	r3, r3, #73
 1474 00d4 9B78     		ldrb	r3, [r3, #2]
 1475 00d6 DBB2     		uxtb	r3, r3
 1476 00d8 03F00F03 		and	r3, r3, #15
 1477 00dc DBB2     		uxtb	r3, r3
 1478 00de 7B72     		strb	r3, [r7, #9]
 408:.\main.c      ****     						precio[2]=lado1.ppu[rventa1.manguera-1][2]&0x0f;
 1479              		.loc 1 408 0
 1480 00e0 684B     		ldr	r3, .L87+8
 1481 00e2 9B7E     		ldrb	r3, [r3, #26]	@ zero_extendqisi2
 1482 00e4 5A1E     		subs	r2, r3, #1
 1483 00e6 6849     		ldr	r1, .L87+12
 1484 00e8 1346     		mov	r3, r2
 1485 00ea 9B00     		lsls	r3, r3, #2
 1486 00ec 1344     		add	r3, r3, r2
 1487 00ee 0B44     		add	r3, r3, r1
 1488 00f0 4A33     		adds	r3, r3, #74
 1489 00f2 9B78     		ldrb	r3, [r3, #2]
 1490 00f4 DBB2     		uxtb	r3, r3
 1491 00f6 03F00F03 		and	r3, r3, #15
 1492 00fa DBB2     		uxtb	r3, r3
 1493 00fc BB72     		strb	r3, [r7, #10]
 409:.\main.c      ****     						precio[3]=lado1.ppu[rventa1.manguera-1][3]&0x0f;
 1494              		.loc 1 409 0
 1495 00fe 614B     		ldr	r3, .L87+8
 1496 0100 9B7E     		ldrb	r3, [r3, #26]	@ zero_extendqisi2
 1497 0102 5A1E     		subs	r2, r3, #1
 1498 0104 6049     		ldr	r1, .L87+12
 1499 0106 1346     		mov	r3, r2
 1500 0108 9B00     		lsls	r3, r3, #2
 1501 010a 1344     		add	r3, r3, r2
 1502 010c 0B44     		add	r3, r3, r1
 1503 010e 4B33     		adds	r3, r3, #75
 1504 0110 9B78     		ldrb	r3, [r3, #2]
 1505 0112 DBB2     		uxtb	r3, r3
 1506 0114 03F00F03 		and	r3, r3, #15
 1507 0118 DBB2     		uxtb	r3, r3
 1508 011a FB72     		strb	r3, [r7, #11]
 410:.\main.c      ****     						precio[4]=lado1.ppu[rventa1.manguera-1][4]&0x0f;
 1509              		.loc 1 410 0
 1510 011c 594B     		ldr	r3, .L87+8
 1511 011e 9B7E     		ldrb	r3, [r3, #26]	@ zero_extendqisi2
 1512 0120 5A1E     		subs	r2, r3, #1
 1513 0122 5949     		ldr	r1, .L87+12
 1514 0124 1346     		mov	r3, r2
 1515 0126 9B00     		lsls	r3, r3, #2
 1516 0128 1344     		add	r3, r3, r2
ARM GAS  C:\Users\diego\AppData\Local\Temp\ccW8UKJI.s 			page 35


 1517 012a 0B44     		add	r3, r3, r1
 1518 012c 4C33     		adds	r3, r3, #76
 1519 012e 9B78     		ldrb	r3, [r3, #2]
 1520 0130 DBB2     		uxtb	r3, r3
 1521 0132 03F00F03 		and	r3, r3, #15
 1522 0136 DBB2     		uxtb	r3, r3
 1523 0138 3B73     		strb	r3, [r7, #12]
 411:.\main.c      ****                         	if(cambiar_precio((lado1.dir & 0x0F),precio,rventa1.manguera)==0){
 1524              		.loc 1 411 0
 1525 013a 534B     		ldr	r3, .L87+12
 1526 013c 1B78     		ldrb	r3, [r3]
 1527 013e DBB2     		uxtb	r3, r3
 1528 0140 03F00F03 		and	r3, r3, #15
 1529 0144 D9B2     		uxtb	r1, r3
 1530 0146 4F4B     		ldr	r3, .L87+8
 1531 0148 9B7E     		ldrb	r3, [r3, #26]	@ zero_extendqisi2
 1532 014a 07F10802 		add	r2, r7, #8
 1533 014e 0846     		mov	r0, r1
 1534 0150 1146     		mov	r1, r2
 1535 0152 1A46     		mov	r2, r3
 1536 0154 FFF7FEFF 		bl	cambiar_precio
 1537 0158 0346     		mov	r3, r0
 1538 015a 002B     		cmp	r3, #0
 1539 015c 40F09A80 		bne	.L61
 412:.\main.c      **** 								rf_mod[0]='M';
 1540              		.loc 1 412 0
 1541 0160 4A4B     		ldr	r3, .L87+16
 1542 0162 4D22     		movs	r2, #77
 1543 0164 1A70     		strb	r2, [r3]
 413:.\main.c      **** 								rf_mod[1]='U';
 1544              		.loc 1 413 0
 1545 0166 494B     		ldr	r3, .L87+16
 1546 0168 5522     		movs	r2, #85
 1547 016a 5A70     		strb	r2, [r3, #1]
 414:.\main.c      **** 								rf_mod[2]='X';
 1548              		.loc 1 414 0
 1549 016c 474B     		ldr	r3, .L87+16
 1550 016e 5822     		movs	r2, #88
 1551 0170 9A70     		strb	r2, [r3, #2]
 415:.\main.c      **** 								rf_mod[3]=creset;
 1552              		.loc 1 415 0
 1553 0172 464B     		ldr	r3, .L87+16
 1554 0174 4522     		movs	r2, #69
 1555 0176 DA70     		strb	r2, [r3, #3]
 416:.\main.c      **** 								rf_mod[4]=cautorizar;
 1556              		.loc 1 416 0
 1557 0178 444B     		ldr	r3, .L87+16
 1558 017a 3022     		movs	r2, #48
 1559 017c 1A71     		strb	r2, [r3, #4]
 417:.\main.c      **** 								rf_mod[5]=PC_rxBuffer[4];
 1560              		.loc 1 417 0
 1561 017e 3F4B     		ldr	r3, .L87
 1562 0180 1B79     		ldrb	r3, [r3, #4]
 1563 0182 DAB2     		uxtb	r2, r3
 1564 0184 414B     		ldr	r3, .L87+16
 1565 0186 5A71     		strb	r2, [r3, #5]
 418:.\main.c      **** 								rf_mod[6]='1';
ARM GAS  C:\Users\diego\AppData\Local\Temp\ccW8UKJI.s 			page 36


 1566              		.loc 1 418 0
 1567 0188 404B     		ldr	r3, .L87+16
 1568 018a 3122     		movs	r2, #49
 1569 018c 9A71     		strb	r2, [r3, #6]
 419:.\main.c      **** 								rf_mod[7]='*';
 1570              		.loc 1 419 0
 1571 018e 3F4B     		ldr	r3, .L87+16
 1572 0190 2A22     		movs	r2, #42
 1573 0192 DA71     		strb	r2, [r3, #7]
 420:.\main.c      **** 								size=8;
 1574              		.loc 1 420 0
 1575 0194 0823     		movs	r3, #8
 1576 0196 FB82     		strh	r3, [r7, #22]	@ movhi
 421:.\main.c      **** 								ok_datosRF=1;
 1577              		.loc 1 421 0
 1578 0198 394B     		ldr	r3, .L87+4
 1579 019a 0122     		movs	r2, #1
 1580 019c 1A70     		strb	r2, [r3]
 422:.\main.c      **** 								break;
 1581              		.loc 1 422 0
 1582 019e 95E1     		b	.L55
 1583              	.L60:
 423:.\main.c      **** 							}                                                      
 424:.\main.c      ****   						}
 425:.\main.c      ****                         else{
 426:.\main.c      **** 							totales(lado1.dir, lado1.mangueras);
 1584              		.loc 1 426 0
 1585 01a0 394B     		ldr	r3, .L87+12
 1586 01a2 1B78     		ldrb	r3, [r3]
 1587 01a4 DAB2     		uxtb	r2, r3
 1588 01a6 384B     		ldr	r3, .L87+12
 1589 01a8 93F85C30 		ldrb	r3, [r3, #92]
 1590 01ac DBB2     		uxtb	r3, r3
 1591 01ae 1046     		mov	r0, r2
 1592 01b0 1946     		mov	r1, r3
 1593 01b2 FFF7FEFF 		bl	totales
 427:.\main.c      ****                             if(ppux10==1){
 1594              		.loc 1 427 0
 1595 01b6 364B     		ldr	r3, .L87+20
 1596 01b8 1B78     		ldrb	r3, [r3]
 1597 01ba DBB2     		uxtb	r3, r3
 1598 01bc 012B     		cmp	r3, #1
 1599 01be 11D1     		bne	.L62
 428:.\main.c      ****     							precio[4]=PC_rxBuffer[9];	
 1600              		.loc 1 428 0
 1601 01c0 2E4B     		ldr	r3, .L87
 1602 01c2 5B7A     		ldrb	r3, [r3, #9]
 1603 01c4 DBB2     		uxtb	r3, r3
 1604 01c6 3B73     		strb	r3, [r7, #12]
 429:.\main.c      ****     							precio[3]=PC_rxBuffer[8];
 1605              		.loc 1 429 0
 1606 01c8 2C4B     		ldr	r3, .L87
 1607 01ca 1B7A     		ldrb	r3, [r3, #8]
 1608 01cc DBB2     		uxtb	r3, r3
 1609 01ce FB72     		strb	r3, [r7, #11]
 430:.\main.c      ****     							precio[2]=PC_rxBuffer[7];
 1610              		.loc 1 430 0
ARM GAS  C:\Users\diego\AppData\Local\Temp\ccW8UKJI.s 			page 37


 1611 01d0 2A4B     		ldr	r3, .L87
 1612 01d2 DB79     		ldrb	r3, [r3, #7]
 1613 01d4 DBB2     		uxtb	r3, r3
 1614 01d6 BB72     		strb	r3, [r7, #10]
 431:.\main.c      ****     							precio[1]=PC_rxBuffer[6];
 1615              		.loc 1 431 0
 1616 01d8 284B     		ldr	r3, .L87
 1617 01da 9B79     		ldrb	r3, [r3, #6]
 1618 01dc DBB2     		uxtb	r3, r3
 1619 01de 7B72     		strb	r3, [r7, #9]
 432:.\main.c      ****     							precio[0]=0;			
 1620              		.loc 1 432 0
 1621 01e0 0023     		movs	r3, #0
 1622 01e2 3B72     		strb	r3, [r7, #8]
 1623              	.L62:
 433:.\main.c      ****                             }
 434:.\main.c      ****                             if(ppux10==0){
 1624              		.loc 1 434 0
 1625 01e4 2A4B     		ldr	r3, .L87+20
 1626 01e6 1B78     		ldrb	r3, [r3]
 1627 01e8 DBB2     		uxtb	r3, r3
 1628 01ea 002B     		cmp	r3, #0
 1629 01ec 13D1     		bne	.L63
 435:.\main.c      ****     							precio[4]=PC_rxBuffer[10];	
 1630              		.loc 1 435 0
 1631 01ee 234B     		ldr	r3, .L87
 1632 01f0 9B7A     		ldrb	r3, [r3, #10]
 1633 01f2 DBB2     		uxtb	r3, r3
 1634 01f4 3B73     		strb	r3, [r7, #12]
 436:.\main.c      ****     							precio[3]=PC_rxBuffer[9];
 1635              		.loc 1 436 0
 1636 01f6 214B     		ldr	r3, .L87
 1637 01f8 5B7A     		ldrb	r3, [r3, #9]
 1638 01fa DBB2     		uxtb	r3, r3
 1639 01fc FB72     		strb	r3, [r7, #11]
 437:.\main.c      ****     							precio[2]=PC_rxBuffer[8];
 1640              		.loc 1 437 0
 1641 01fe 1F4B     		ldr	r3, .L87
 1642 0200 1B7A     		ldrb	r3, [r3, #8]
 1643 0202 DBB2     		uxtb	r3, r3
 1644 0204 BB72     		strb	r3, [r7, #10]
 438:.\main.c      ****     							precio[1]=PC_rxBuffer[7];
 1645              		.loc 1 438 0
 1646 0206 1D4B     		ldr	r3, .L87
 1647 0208 DB79     		ldrb	r3, [r3, #7]
 1648 020a DBB2     		uxtb	r3, r3
 1649 020c 7B72     		strb	r3, [r7, #9]
 439:.\main.c      ****     							precio[0]=PC_rxBuffer[6];                            
 1650              		.loc 1 439 0
 1651 020e 1B4B     		ldr	r3, .L87
 1652 0210 9B79     		ldrb	r3, [r3, #6]
 1653 0212 DBB2     		uxtb	r3, r3
 1654 0214 3B72     		strb	r3, [r7, #8]
 1655              	.L63:
 440:.\main.c      ****                             }
 441:.\main.c      **** 							if(cambiar_precio((lado1.dir & 0x0F),precio,rventa1.manguera)==0){
 1656              		.loc 1 441 0
ARM GAS  C:\Users\diego\AppData\Local\Temp\ccW8UKJI.s 			page 38


 1657 0216 1C4B     		ldr	r3, .L87+12
 1658 0218 1B78     		ldrb	r3, [r3]
 1659 021a DBB2     		uxtb	r3, r3
 1660 021c 03F00F03 		and	r3, r3, #15
 1661 0220 D9B2     		uxtb	r1, r3
 1662 0222 184B     		ldr	r3, .L87+8
 1663 0224 9B7E     		ldrb	r3, [r3, #26]	@ zero_extendqisi2
 1664 0226 07F10802 		add	r2, r7, #8
 1665 022a 0846     		mov	r0, r1
 1666 022c 1146     		mov	r1, r2
 1667 022e 1A46     		mov	r2, r3
 1668 0230 FFF7FEFF 		bl	cambiar_precio
 1669 0234 0346     		mov	r3, r0
 1670 0236 002B     		cmp	r3, #0
 1671 0238 2CD1     		bne	.L61
 442:.\main.c      **** 								rf_mod[0]='M';
 1672              		.loc 1 442 0
 1673 023a 144B     		ldr	r3, .L87+16
 1674 023c 4D22     		movs	r2, #77
 1675 023e 1A70     		strb	r2, [r3]
 443:.\main.c      **** 								rf_mod[1]='U';
 1676              		.loc 1 443 0
 1677 0240 124B     		ldr	r3, .L87+16
 1678 0242 5522     		movs	r2, #85
 1679 0244 5A70     		strb	r2, [r3, #1]
 444:.\main.c      **** 								rf_mod[2]='X';
 1680              		.loc 1 444 0
 1681 0246 114B     		ldr	r3, .L87+16
 1682 0248 5822     		movs	r2, #88
 1683 024a 9A70     		strb	r2, [r3, #2]
 445:.\main.c      **** 								rf_mod[3]=creset;
 1684              		.loc 1 445 0
 1685 024c 0F4B     		ldr	r3, .L87+16
 1686 024e 4522     		movs	r2, #69
 1687 0250 DA70     		strb	r2, [r3, #3]
 446:.\main.c      **** 								rf_mod[4]=cautorizar;
 1688              		.loc 1 446 0
 1689 0252 0E4B     		ldr	r3, .L87+16
 1690 0254 3022     		movs	r2, #48
 1691 0256 1A71     		strb	r2, [r3, #4]
 447:.\main.c      **** 								rf_mod[5]=PC_rxBuffer[4];
 1692              		.loc 1 447 0
 1693 0258 084B     		ldr	r3, .L87
 1694 025a 1B79     		ldrb	r3, [r3, #4]
 1695 025c DAB2     		uxtb	r2, r3
 1696 025e 0B4B     		ldr	r3, .L87+16
 1697 0260 5A71     		strb	r2, [r3, #5]
 448:.\main.c      **** 								rf_mod[6]='1';
 1698              		.loc 1 448 0
 1699 0262 0A4B     		ldr	r3, .L87+16
 1700 0264 3122     		movs	r2, #49
 1701 0266 9A71     		strb	r2, [r3, #6]
 449:.\main.c      **** 								rf_mod[7]='*';
 1702              		.loc 1 449 0
 1703 0268 084B     		ldr	r3, .L87+16
 1704 026a 2A22     		movs	r2, #42
 1705 026c DA71     		strb	r2, [r3, #7]
ARM GAS  C:\Users\diego\AppData\Local\Temp\ccW8UKJI.s 			page 39


 450:.\main.c      **** 								size=8;
 1706              		.loc 1 450 0
 1707 026e 0823     		movs	r3, #8
 1708 0270 FB82     		strh	r3, [r7, #22]	@ movhi
 451:.\main.c      **** 								ok_datosRF=1;
 1709              		.loc 1 451 0
 1710 0272 034B     		ldr	r3, .L87+4
 1711 0274 0122     		movs	r2, #1
 1712 0276 1A70     		strb	r2, [r3]
 452:.\main.c      **** 								break;
 1713              		.loc 1 452 0
 1714 0278 28E1     		b	.L55
 1715              	.L88:
 1716 027a 00BF     		.align	2
 1717              	.L87:
 1718 027c 00000000 		.word	PC_rxBuffer
 1719 0280 00000000 		.word	ok_datosRF
 1720 0284 00000000 		.word	rventa1
 1721 0288 00000000 		.word	lado1
 1722 028c 00000000 		.word	rf_mod
 1723 0290 00000000 		.word	ppux10
 1724              	.L61:
 453:.\main.c      **** 							}
 454:.\main.c      ****                         }
 455:.\main.c      **** 						preset[1]=PC_rxBuffer[17];				//Preset
 1725              		.loc 1 455 0
 1726 0294 9D4B     		ldr	r3, .L89
 1727 0296 5B7C     		ldrb	r3, [r3, #17]
 1728 0298 DBB2     		uxtb	r3, r3
 1729 029a 7B70     		strb	r3, [r7, #1]
 456:.\main.c      **** 						if(PC_rxBuffer[17]!=','){
 1730              		.loc 1 456 0
 1731 029c 9B4B     		ldr	r3, .L89
 1732 029e 5B7C     		ldrb	r3, [r3, #17]
 1733 02a0 DBB2     		uxtb	r3, r3
 1734 02a2 2C2B     		cmp	r3, #44
 1735 02a4 06D0     		beq	.L64
 457:.\main.c      **** 							preset[1]=PC_rxBuffer[17] & 0x0F;
 1736              		.loc 1 457 0
 1737 02a6 994B     		ldr	r3, .L89
 1738 02a8 5B7C     		ldrb	r3, [r3, #17]
 1739 02aa DBB2     		uxtb	r3, r3
 1740 02ac 03F00F03 		and	r3, r3, #15
 1741 02b0 DBB2     		uxtb	r3, r3
 1742 02b2 7B70     		strb	r3, [r7, #1]
 1743              	.L64:
 458:.\main.c      **** 						}
 459:.\main.c      **** 						preset[2]=PC_rxBuffer[16];
 1744              		.loc 1 459 0
 1745 02b4 954B     		ldr	r3, .L89
 1746 02b6 1B7C     		ldrb	r3, [r3, #16]
 1747 02b8 DBB2     		uxtb	r3, r3
 1748 02ba BB70     		strb	r3, [r7, #2]
 460:.\main.c      **** 						if(PC_rxBuffer[16]!=','){
 1749              		.loc 1 460 0
 1750 02bc 934B     		ldr	r3, .L89
 1751 02be 1B7C     		ldrb	r3, [r3, #16]
ARM GAS  C:\Users\diego\AppData\Local\Temp\ccW8UKJI.s 			page 40


 1752 02c0 DBB2     		uxtb	r3, r3
 1753 02c2 2C2B     		cmp	r3, #44
 1754 02c4 06D0     		beq	.L65
 461:.\main.c      **** 							preset[2]=PC_rxBuffer[16] & 0x0F;
 1755              		.loc 1 461 0
 1756 02c6 914B     		ldr	r3, .L89
 1757 02c8 1B7C     		ldrb	r3, [r3, #16]
 1758 02ca DBB2     		uxtb	r3, r3
 1759 02cc 03F00F03 		and	r3, r3, #15
 1760 02d0 DBB2     		uxtb	r3, r3
 1761 02d2 BB70     		strb	r3, [r7, #2]
 1762              	.L65:
 462:.\main.c      **** 						}
 463:.\main.c      **** 						preset[3]=PC_rxBuffer[15];
 1763              		.loc 1 463 0
 1764 02d4 8D4B     		ldr	r3, .L89
 1765 02d6 DB7B     		ldrb	r3, [r3, #15]
 1766 02d8 DBB2     		uxtb	r3, r3
 1767 02da FB70     		strb	r3, [r7, #3]
 464:.\main.c      **** 						if(PC_rxBuffer[15]!=','){
 1768              		.loc 1 464 0
 1769 02dc 8B4B     		ldr	r3, .L89
 1770 02de DB7B     		ldrb	r3, [r3, #15]
 1771 02e0 DBB2     		uxtb	r3, r3
 1772 02e2 2C2B     		cmp	r3, #44
 1773 02e4 06D0     		beq	.L66
 465:.\main.c      **** 							preset[3]=PC_rxBuffer[15] & 0x0F;
 1774              		.loc 1 465 0
 1775 02e6 894B     		ldr	r3, .L89
 1776 02e8 DB7B     		ldrb	r3, [r3, #15]
 1777 02ea DBB2     		uxtb	r3, r3
 1778 02ec 03F00F03 		and	r3, r3, #15
 1779 02f0 DBB2     		uxtb	r3, r3
 1780 02f2 FB70     		strb	r3, [r7, #3]
 1781              	.L66:
 466:.\main.c      **** 						}
 467:.\main.c      **** 						preset[4]=PC_rxBuffer[14];
 1782              		.loc 1 467 0
 1783 02f4 854B     		ldr	r3, .L89
 1784 02f6 9B7B     		ldrb	r3, [r3, #14]
 1785 02f8 DBB2     		uxtb	r3, r3
 1786 02fa 3B71     		strb	r3, [r7, #4]
 468:.\main.c      **** 						if(PC_rxBuffer[14]!=','){
 1787              		.loc 1 468 0
 1788 02fc 834B     		ldr	r3, .L89
 1789 02fe 9B7B     		ldrb	r3, [r3, #14]
 1790 0300 DBB2     		uxtb	r3, r3
 1791 0302 2C2B     		cmp	r3, #44
 1792 0304 06D0     		beq	.L67
 469:.\main.c      **** 							preset[4]=PC_rxBuffer[14] & 0x0F;
 1793              		.loc 1 469 0
 1794 0306 814B     		ldr	r3, .L89
 1795 0308 9B7B     		ldrb	r3, [r3, #14]
 1796 030a DBB2     		uxtb	r3, r3
 1797 030c 03F00F03 		and	r3, r3, #15
 1798 0310 DBB2     		uxtb	r3, r3
 1799 0312 3B71     		strb	r3, [r7, #4]
ARM GAS  C:\Users\diego\AppData\Local\Temp\ccW8UKJI.s 			page 41


 1800              	.L67:
 470:.\main.c      **** 						}
 471:.\main.c      **** 						preset[5]=PC_rxBuffer[13];
 1801              		.loc 1 471 0
 1802 0314 7D4B     		ldr	r3, .L89
 1803 0316 5B7B     		ldrb	r3, [r3, #13]
 1804 0318 DBB2     		uxtb	r3, r3
 1805 031a 7B71     		strb	r3, [r7, #5]
 472:.\main.c      **** 						if(PC_rxBuffer[13]!=','){
 1806              		.loc 1 472 0
 1807 031c 7B4B     		ldr	r3, .L89
 1808 031e 5B7B     		ldrb	r3, [r3, #13]
 1809 0320 DBB2     		uxtb	r3, r3
 1810 0322 2C2B     		cmp	r3, #44
 1811 0324 06D0     		beq	.L68
 473:.\main.c      **** 							preset[5]=PC_rxBuffer[13] & 0x0F;
 1812              		.loc 1 473 0
 1813 0326 794B     		ldr	r3, .L89
 1814 0328 5B7B     		ldrb	r3, [r3, #13]
 1815 032a DBB2     		uxtb	r3, r3
 1816 032c 03F00F03 		and	r3, r3, #15
 1817 0330 DBB2     		uxtb	r3, r3
 1818 0332 7B71     		strb	r3, [r7, #5]
 1819              	.L68:
 474:.\main.c      **** 						}
 475:.\main.c      **** 						preset[6]=PC_rxBuffer[12];
 1820              		.loc 1 475 0
 1821 0334 754B     		ldr	r3, .L89
 1822 0336 1B7B     		ldrb	r3, [r3, #12]
 1823 0338 DBB2     		uxtb	r3, r3
 1824 033a BB71     		strb	r3, [r7, #6]
 476:.\main.c      **** 						if(PC_rxBuffer[12]!=','){
 1825              		.loc 1 476 0
 1826 033c 734B     		ldr	r3, .L89
 1827 033e 1B7B     		ldrb	r3, [r3, #12]
 1828 0340 DBB2     		uxtb	r3, r3
 1829 0342 2C2B     		cmp	r3, #44
 1830 0344 06D0     		beq	.L69
 477:.\main.c      **** 							preset[6]=PC_rxBuffer[12] & 0x0F;
 1831              		.loc 1 477 0
 1832 0346 714B     		ldr	r3, .L89
 1833 0348 1B7B     		ldrb	r3, [r3, #12]
 1834 034a DBB2     		uxtb	r3, r3
 1835 034c 03F00F03 		and	r3, r3, #15
 1836 0350 DBB2     		uxtb	r3, r3
 1837 0352 BB71     		strb	r3, [r7, #6]
 1838              	.L69:
 478:.\main.c      **** 						}
 479:.\main.c      **** 						preset[7]=PC_rxBuffer[11];
 1839              		.loc 1 479 0
 1840 0354 6D4B     		ldr	r3, .L89
 1841 0356 DB7A     		ldrb	r3, [r3, #11]
 1842 0358 DBB2     		uxtb	r3, r3
 1843 035a FB71     		strb	r3, [r7, #7]
 480:.\main.c      **** 						if(PC_rxBuffer[11]!=','){
 1844              		.loc 1 480 0
 1845 035c 6B4B     		ldr	r3, .L89
ARM GAS  C:\Users\diego\AppData\Local\Temp\ccW8UKJI.s 			page 42


 1846 035e DB7A     		ldrb	r3, [r3, #11]
 1847 0360 DBB2     		uxtb	r3, r3
 1848 0362 2C2B     		cmp	r3, #44
 1849 0364 06D0     		beq	.L70
 481:.\main.c      **** 							preset[7]=PC_rxBuffer[11] & 0x0F;
 1850              		.loc 1 481 0
 1851 0366 694B     		ldr	r3, .L89
 1852 0368 DB7A     		ldrb	r3, [r3, #11]
 1853 036a DBB2     		uxtb	r3, r3
 1854 036c 03F00F03 		and	r3, r3, #15
 1855 0370 DBB2     		uxtb	r3, r3
 1856 0372 FB71     		strb	r3, [r7, #7]
 1857              	.L70:
 482:.\main.c      **** 						}
 483:.\main.c      **** 						t_preset=PC_rxBuffer[18];
 1858              		.loc 1 483 0
 1859 0374 654B     		ldr	r3, .L89
 1860 0376 9B7C     		ldrb	r3, [r3, #18]
 1861 0378 DBB2     		uxtb	r3, r3
 1862 037a 7B82     		strh	r3, [r7, #18]	@ movhi
 484:.\main.c      **** 						if(t_preset=='1'){
 1863              		.loc 1 484 0
 1864 037c 7B8A     		ldrh	r3, [r7, #18]
 1865 037e 312B     		cmp	r3, #49
 1866 0380 02D1     		bne	.L71
 485:.\main.c      **** 							t_preset=2;
 1867              		.loc 1 485 0
 1868 0382 0223     		movs	r3, #2
 1869 0384 7B82     		strh	r3, [r7, #18]	@ movhi
 1870 0386 01E0     		b	.L72
 1871              	.L71:
 486:.\main.c      **** 						}
 487:.\main.c      **** 						else{
 488:.\main.c      **** 							t_preset=1;
 1872              		.loc 1 488 0
 1873 0388 0123     		movs	r3, #1
 1874 038a 7B82     		strh	r3, [r7, #18]	@ movhi
 1875              	.L72:
 489:.\main.c      **** 						}
 490:.\main.c      **** 						if(programar((lado1.dir & 0x0F),rventa1.manguera,preset,t_preset)==1){		//Programar
 1876              		.loc 1 490 0
 1877 038c 604B     		ldr	r3, .L89+4
 1878 038e 1B78     		ldrb	r3, [r3]
 1879 0390 DBB2     		uxtb	r3, r3
 1880 0392 03F00F03 		and	r3, r3, #15
 1881 0396 D8B2     		uxtb	r0, r3
 1882 0398 5E4B     		ldr	r3, .L89+8
 1883 039a 997E     		ldrb	r1, [r3, #26]	@ zero_extendqisi2
 1884 039c 7B8A     		ldrh	r3, [r7, #18]	@ movhi
 1885 039e DBB2     		uxtb	r3, r3
 1886 03a0 3A46     		mov	r2, r7
 1887 03a2 FFF7FEFF 		bl	programar
 1888 03a6 0346     		mov	r3, r0
 1889 03a8 012B     		cmp	r3, #1
 1890 03aa 1BD1     		bne	.L73
 491:.\main.c      ****                             if(ppuinicial==0){                          
 492:.\main.c      **** //                                for(x=0;x<=4;x++){
ARM GAS  C:\Users\diego\AppData\Local\Temp\ccW8UKJI.s 			page 43


 493:.\main.c      **** //                            	    precio[x]=lado1.ppu[0][x];	    
 494:.\main.c      **** //                                }
 495:.\main.c      **** //                                cambiar_precio(lado1.dir,precio,1);    
 496:.\main.c      **** //                                for(x=0;x<=4;x++){
 497:.\main.c      **** //                            	    precio[x]=lado1.ppu[1][x];	    
 498:.\main.c      **** //                                }    
 499:.\main.c      **** //                                cambiar_precio(lado1.dir,precio,2);
 500:.\main.c      **** //                                for(x=0;x<=4;x++){
 501:.\main.c      **** //                            	    precio[x]=lado1.ppu[2][x];	    
 502:.\main.c      **** //                                }
 503:.\main.c      **** //                                cambiar_precio(lado1.dir,precio,3);       
 504:.\main.c      ****                             }
 505:.\main.c      ****                             CyDelay(10);
 1891              		.loc 1 505 0
 1892 03ac 0A20     		movs	r0, #10
 1893 03ae FFF7FEFF 		bl	CyDelay
 506:.\main.c      **** 							Surtidor_PutChar(0x10|(lado1.dir & 0x0F));							
 1894              		.loc 1 506 0
 1895 03b2 574B     		ldr	r3, .L89+4
 1896 03b4 1B78     		ldrb	r3, [r3]
 1897 03b6 DBB2     		uxtb	r3, r3
 1898 03b8 DBB2     		uxtb	r3, r3
 1899 03ba 03F00F03 		and	r3, r3, #15
 1900 03be DBB2     		uxtb	r3, r3
 1901 03c0 43F01003 		orr	r3, r3, #16
 1902 03c4 DBB2     		uxtb	r3, r3
 1903 03c6 DBB2     		uxtb	r3, r3
 1904 03c8 1846     		mov	r0, r3
 1905 03ca FFF7FEFF 		bl	Surtidor_PutChar
 507:.\main.c      **** 							lado1.estado=tanqueo;
 1906              		.loc 1 507 0
 1907 03ce 504B     		ldr	r3, .L89+4
 1908 03d0 0622     		movs	r2, #6
 1909 03d2 5A70     		strb	r2, [r3, #1]
 508:.\main.c      **** 							flujo_LCD1=8;
 1910              		.loc 1 508 0
 1911 03d4 504B     		ldr	r3, .L89+12
 1912 03d6 0822     		movs	r2, #8
 1913 03d8 1A70     		strb	r2, [r3]
 509:.\main.c      **** 							set_imagen(1,8);
 1914              		.loc 1 509 0
 1915 03da 0120     		movs	r0, #1
 1916 03dc 0821     		movs	r1, #8
 1917 03de FFF7FEFF 		bl	set_imagen
 510:.\main.c      **** 						}
 511:.\main.c      **** 						else{
 512:.\main.c      **** 							rf_mod[0]='M';
 513:.\main.c      **** 							rf_mod[1]='U';
 514:.\main.c      **** 							rf_mod[2]='X';
 515:.\main.c      **** 							rf_mod[3]=creset;
 516:.\main.c      **** 							rf_mod[4]=cautorizar;
 517:.\main.c      **** 							rf_mod[5]=PC_rxBuffer[4];
 518:.\main.c      **** 							rf_mod[6]='2';
 519:.\main.c      **** 							rf_mod[7]='*';
 520:.\main.c      **** 							size=8;
 521:.\main.c      **** 							ok_datosRF=1;							
 522:.\main.c      **** 						}
ARM GAS  C:\Users\diego\AppData\Local\Temp\ccW8UKJI.s 			page 44


 523:.\main.c      **** 					break;
 1918              		.loc 1 523 0
 1919 03e2 73E0     		b	.L55
 1920              	.L73:
 512:.\main.c      **** 							rf_mod[1]='U';
 1921              		.loc 1 512 0
 1922 03e4 4D4B     		ldr	r3, .L89+16
 1923 03e6 4D22     		movs	r2, #77
 1924 03e8 1A70     		strb	r2, [r3]
 513:.\main.c      **** 							rf_mod[2]='X';
 1925              		.loc 1 513 0
 1926 03ea 4C4B     		ldr	r3, .L89+16
 1927 03ec 5522     		movs	r2, #85
 1928 03ee 5A70     		strb	r2, [r3, #1]
 514:.\main.c      **** 							rf_mod[3]=creset;
 1929              		.loc 1 514 0
 1930 03f0 4A4B     		ldr	r3, .L89+16
 1931 03f2 5822     		movs	r2, #88
 1932 03f4 9A70     		strb	r2, [r3, #2]
 515:.\main.c      **** 							rf_mod[4]=cautorizar;
 1933              		.loc 1 515 0
 1934 03f6 494B     		ldr	r3, .L89+16
 1935 03f8 4522     		movs	r2, #69
 1936 03fa DA70     		strb	r2, [r3, #3]
 516:.\main.c      **** 							rf_mod[5]=PC_rxBuffer[4];
 1937              		.loc 1 516 0
 1938 03fc 474B     		ldr	r3, .L89+16
 1939 03fe 3022     		movs	r2, #48
 1940 0400 1A71     		strb	r2, [r3, #4]
 517:.\main.c      **** 							rf_mod[6]='2';
 1941              		.loc 1 517 0
 1942 0402 424B     		ldr	r3, .L89
 1943 0404 1B79     		ldrb	r3, [r3, #4]
 1944 0406 DAB2     		uxtb	r2, r3
 1945 0408 444B     		ldr	r3, .L89+16
 1946 040a 5A71     		strb	r2, [r3, #5]
 518:.\main.c      **** 							rf_mod[7]='*';
 1947              		.loc 1 518 0
 1948 040c 434B     		ldr	r3, .L89+16
 1949 040e 3222     		movs	r2, #50
 1950 0410 9A71     		strb	r2, [r3, #6]
 519:.\main.c      **** 							size=8;
 1951              		.loc 1 519 0
 1952 0412 424B     		ldr	r3, .L89+16
 1953 0414 2A22     		movs	r2, #42
 1954 0416 DA71     		strb	r2, [r3, #7]
 520:.\main.c      **** 							ok_datosRF=1;							
 1955              		.loc 1 520 0
 1956 0418 0823     		movs	r3, #8
 1957 041a FB82     		strh	r3, [r7, #22]	@ movhi
 521:.\main.c      **** 						}
 1958              		.loc 1 521 0
 1959 041c 404B     		ldr	r3, .L89+20
 1960 041e 0122     		movs	r2, #1
 1961 0420 1A70     		strb	r2, [r3]
 1962              		.loc 1 523 0
 1963 0422 53E0     		b	.L55
ARM GAS  C:\Users\diego\AppData\Local\Temp\ccW8UKJI.s 			page 45


 1964              	.L56:
 524:.\main.c      **** 					
 525:.\main.c      **** 					case cimprimir:
 526:.\main.c      **** 						set_imagen(1,55);					
 1965              		.loc 1 526 0
 1966 0424 0120     		movs	r0, #1
 1967 0426 3721     		movs	r1, #55
 1968 0428 FFF7FEFF 		bl	set_imagen
 527:.\main.c      **** 						if(lado1.dir==(lado1.dir & 0x0F)){
 1969              		.loc 1 527 0
 1970 042c 384B     		ldr	r3, .L89+4
 1971 042e 1B78     		ldrb	r3, [r3]
 1972 0430 DBB2     		uxtb	r3, r3
 1973 0432 1A46     		mov	r2, r3
 1974 0434 364B     		ldr	r3, .L89+4
 1975 0436 1B78     		ldrb	r3, [r3]
 1976 0438 DBB2     		uxtb	r3, r3
 1977 043a 03F00F03 		and	r3, r3, #15
 1978 043e 9A42     		cmp	r2, r3
 1979 0440 06D1     		bne	.L75
 528:.\main.c      **** 							lado1.estado=libre;
 1980              		.loc 1 528 0
 1981 0442 334B     		ldr	r3, .L89+4
 1982 0444 0122     		movs	r2, #1
 1983 0446 5A70     		strb	r2, [r3, #1]
 529:.\main.c      **** 							flujo_LCD1=0;
 1984              		.loc 1 529 0
 1985 0448 334B     		ldr	r3, .L89+12
 1986 044a 0022     		movs	r2, #0
 1987 044c 1A70     		strb	r2, [r3]
 1988 044e 11E0     		b	.L76
 1989              	.L75:
 530:.\main.c      **** 						}
 531:.\main.c      **** 						else if(lado2.dir==(PC_rxBuffer[4] & 0x0F)){
 1990              		.loc 1 531 0
 1991 0450 344B     		ldr	r3, .L89+24
 1992 0452 1B78     		ldrb	r3, [r3]
 1993 0454 DBB2     		uxtb	r3, r3
 1994 0456 1A46     		mov	r2, r3
 1995 0458 2C4B     		ldr	r3, .L89
 1996 045a 1B79     		ldrb	r3, [r3, #4]
 1997 045c DBB2     		uxtb	r3, r3
 1998 045e 03F00F03 		and	r3, r3, #15
 1999 0462 9A42     		cmp	r2, r3
 2000 0464 06D1     		bne	.L76
 532:.\main.c      **** 							lado2.estado=libre;
 2001              		.loc 1 532 0
 2002 0466 2F4B     		ldr	r3, .L89+24
 2003 0468 0122     		movs	r2, #1
 2004 046a 5A70     		strb	r2, [r3, #1]
 533:.\main.c      **** 							flujo_LCD1=0;
 2005              		.loc 1 533 0
 2006 046c 2A4B     		ldr	r3, .L89+12
 2007 046e 0022     		movs	r2, #0
 2008 0470 1A70     		strb	r2, [r3]
 534:.\main.c      **** 						}						
 535:.\main.c      **** 					break;
ARM GAS  C:\Users\diego\AppData\Local\Temp\ccW8UKJI.s 			page 46


 2009              		.loc 1 535 0
 2010 0472 2BE0     		b	.L55
 2011              	.L76:
 2012 0474 2AE0     		b	.L55
 2013              	.L57:
 536:.\main.c      **** 					
 537:.\main.c      **** 					case creset:                                   
 538:.\main.c      ****     						switch(PC_rxBuffer[5]){
 2014              		.loc 1 538 0
 2015 0476 254B     		ldr	r3, .L89
 2016 0478 5B79     		ldrb	r3, [r3, #5]
 2017 047a DBB2     		uxtb	r3, r3
 2018 047c 313B     		subs	r3, r3, #49
 2019 047e 032B     		cmp	r3, #3
 2020 0480 23D8     		bhi	.L85
 2021 0482 01A2     		adr	r2, .L79
 2022 0484 52F823F0 		ldr	pc, [r2, r3, lsl #2]
 2023              		.p2align 2
 2024              	.L79:
 2025 0488 99040000 		.word	.L78+1
 2026 048c A9040000 		.word	.L80+1
 2027 0490 B9040000 		.word	.L81+1
 2028 0494 C9040000 		.word	.L86+1
 2029              		.p2align 1
 2030              	.L78:
 539:.\main.c      ****     							case '1':														
 540:.\main.c      ****     								lado1.estado=libre;
 2031              		.loc 1 540 0
 2032 0498 1D4B     		ldr	r3, .L89+4
 2033 049a 0122     		movs	r2, #1
 2034 049c 5A70     		strb	r2, [r3, #1]
 541:.\main.c      ****     								error_op(1,28);					 //Error de id					
 2035              		.loc 1 541 0
 2036 049e 0120     		movs	r0, #1
 2037 04a0 1C21     		movs	r1, #28
 2038 04a2 FFF7FEFF 		bl	error_op
 542:.\main.c      ****     							break;
 2039              		.loc 1 542 0
 2040 04a6 10E0     		b	.L77
 2041              	.L80:
 543:.\main.c      ****     								
 544:.\main.c      ****     							case '2':
 545:.\main.c      ****     								lado1.estado=libre;
 2042              		.loc 1 545 0
 2043 04a8 194B     		ldr	r3, .L89+4
 2044 04aa 0122     		movs	r2, #1
 2045 04ac 5A70     		strb	r2, [r3, #1]
 546:.\main.c      ****     								error_op(1,12);					//Gracias por su compra
 2046              		.loc 1 546 0
 2047 04ae 0120     		movs	r0, #1
 2048 04b0 0C21     		movs	r1, #12
 2049 04b2 FFF7FEFF 		bl	error_op
 547:.\main.c      ****     							break;
 2050              		.loc 1 547 0
 2051 04b6 08E0     		b	.L77
 2052              	.L81:
 548:.\main.c      ****     								
ARM GAS  C:\Users\diego\AppData\Local\Temp\ccW8UKJI.s 			page 47


 549:.\main.c      ****     							case '3':
 550:.\main.c      ****     								lado1.estado=libre;
 2053              		.loc 1 550 0
 2054 04b8 154B     		ldr	r3, .L89+4
 2055 04ba 0122     		movs	r2, #1
 2056 04bc 5A70     		strb	r2, [r3, #1]
 551:.\main.c      ****     								error_op(1,12);					//Error de Operacion //85
 2057              		.loc 1 551 0
 2058 04be 0120     		movs	r0, #1
 2059 04c0 0C21     		movs	r1, #12
 2060 04c2 FFF7FEFF 		bl	error_op
 552:.\main.c      ****     							break;
 2061              		.loc 1 552 0
 2062 04c6 00E0     		b	.L77
 2063              	.L86:
 553:.\main.c      ****     								
 554:.\main.c      ****     							case '4':
 555:.\main.c      **** //    								lado1.estado=libre;//
 556:.\main.c      **** //    								error_op(1,12);		//			//Fin Corte
 557:.\main.c      ****     							break;								
 2064              		.loc 1 557 0
 2065 04c8 00BF     		nop
 2066              	.L77:
 2067              	.L85:
 558:.\main.c      ****     								
 559:.\main.c      ****     						}                        
 560:.\main.c      **** 					break;
 2068              		.loc 1 560 0
 2069 04ca 00BF     		nop
 2070              	.L55:
 561:.\main.c      **** 				}
 562:.\main.c      **** 				if(ok_datosRF==1){
 2071              		.loc 1 562 0
 2072 04cc 144B     		ldr	r3, .L89+20
 2073 04ce 1B78     		ldrb	r3, [r3]	@ zero_extendqisi2
 2074 04d0 012B     		cmp	r3, #1
 2075 04d2 0FD1     		bne	.L54
 563:.\main.c      **** 				    for(x=0;x<size;x++){
 2076              		.loc 1 563 0
 2077 04d4 0023     		movs	r3, #0
 2078 04d6 BB82     		strh	r3, [r7, #20]	@ movhi
 2079 04d8 08E0     		b	.L83
 2080              	.L84:
 564:.\main.c      **** 					   PC_PutChar(rf_mod[x]);
 2081              		.loc 1 564 0 discriminator 3
 2082 04da BB8A     		ldrh	r3, [r7, #20]
 2083 04dc 0F4A     		ldr	r2, .L89+16
 2084 04de D35C     		ldrb	r3, [r2, r3]	@ zero_extendqisi2
 2085 04e0 1846     		mov	r0, r3
 2086 04e2 FFF7FEFF 		bl	PC_PutChar
 563:.\main.c      **** 				    for(x=0;x<size;x++){
 2087              		.loc 1 563 0 discriminator 3
 2088 04e6 BB8A     		ldrh	r3, [r7, #20]
 2089 04e8 0133     		adds	r3, r3, #1
 2090 04ea BB82     		strh	r3, [r7, #20]	@ movhi
 2091              	.L83:
 563:.\main.c      **** 				    for(x=0;x<size;x++){
ARM GAS  C:\Users\diego\AppData\Local\Temp\ccW8UKJI.s 			page 48


 2092              		.loc 1 563 0 is_stmt 0 discriminator 1
 2093 04ec BA8A     		ldrh	r2, [r7, #20]
 2094 04ee FB8A     		ldrh	r3, [r7, #22]
 2095 04f0 9A42     		cmp	r2, r3
 2096 04f2 F2D3     		bcc	.L84
 2097              	.L54:
 565:.\main.c      **** 				    }	               
 566:.\main.c      **** 				}
 567:.\main.c      **** 			}
 568:.\main.c      **** 			PC_ClearRxBuffer();
 2098              		.loc 1 568 0 is_stmt 1
 2099 04f4 FFF7FEFF 		bl	PC_ClearRxBuffer
 569:.\main.c      ****             Surtidor_ClearRxBuffer();
 2100              		.loc 1 569 0
 2101 04f8 FFF7FEFF 		bl	Surtidor_ClearRxBuffer
 570:.\main.c      **** 			status1=0;
 2102              		.loc 1 570 0
 2103 04fc 0023     		movs	r3, #0
 2104 04fe 3B82     		strh	r3, [r7, #16]	@ movhi
 571:.\main.c      **** 			status2=0;			
 2105              		.loc 1 571 0
 2106 0500 0023     		movs	r3, #0
 2107 0502 FB81     		strh	r3, [r7, #14]	@ movhi
 2108              	.L52:
 572:.\main.c      **** 		}		
 573:.\main.c      **** 	}	
 574:.\main.c      **** }
 2109              		.loc 1 574 0
 2110 0504 1837     		adds	r7, r7, #24
 2111              		.cfi_def_cfa_offset 8
 2112 0506 BD46     		mov	sp, r7
 2113              		.cfi_def_cfa_register 13
 2114              		@ sp needed
 2115 0508 80BD     		pop	{r7, pc}
 2116              	.L90:
 2117 050a 00BF     		.align	2
 2118              	.L89:
 2119 050c 00000000 		.word	PC_rxBuffer
 2120 0510 00000000 		.word	lado1
 2121 0514 00000000 		.word	rventa1
 2122 0518 00000000 		.word	flujo_LCD1
 2123 051c 00000000 		.word	rf_mod
 2124 0520 00000000 		.word	ok_datosRF
 2125 0524 00000000 		.word	lado2
 2126              		.cfi_endproc
 2127              	.LFE67:
 2128              		.size	polling_rf, .-polling_rf
 2129              		.section	.text.polling_surt,"ax",%progbits
 2130              		.align	2
 2131              		.global	polling_surt
 2132              		.thumb
 2133              		.thumb_func
 2134              		.type	polling_surt, %function
 2135              	polling_surt:
 2136              	.LFB68:
 575:.\main.c      **** 
 576:.\main.c      **** /*
ARM GAS  C:\Users\diego\AppData\Local\Temp\ccW8UKJI.s 			page 49


 577:.\main.c      **** ***************************************************************************************************
 578:.\main.c      **** *                                         uint8 polling_surt(void)
 579:.\main.c      **** *
 580:.\main.c      **** * Description : 
 581:.\main.c      **** *               
 582:.\main.c      **** *
 583:.\main.c      **** * Argument(s) : none
 584:.\main.c      **** *
 585:.\main.c      **** * Return(s)   : none
 586:.\main.c      **** *
 587:.\main.c      **** * Caller(s)   : 
 588:.\main.c      **** *
 589:.\main.c      **** * Note(s)     : none.
 590:.\main.c      **** ***************************************************************************************************
 591:.\main.c      **** */
 592:.\main.c      **** 
 593:.\main.c      **** void polling_surt(void){
 2137              		.loc 1 593 0
 2138              		.cfi_startproc
 2139              		@ args = 0, pretend = 0, frame = 0
 2140              		@ frame_needed = 1, uses_anonymous_args = 0
 2141              		@ link register save eliminated.
 2142 0000 80B4     		push	{r7}
 2143              		.cfi_def_cfa_offset 4
 2144              		.cfi_offset 7, -4
 2145 0002 00AF     		add	r7, sp, #0
 2146              		.cfi_def_cfa_register 7
 594:.\main.c      **** 	         
 595:.\main.c      ****             
 596:.\main.c      **** }
 2147              		.loc 1 596 0
 2148 0004 BD46     		mov	sp, r7
 2149              		.cfi_def_cfa_register 13
 2150              		@ sp needed
 2151 0006 5DF8047B 		ldr	r7, [sp], #4
 2152              		.cfi_restore 7
 2153              		.cfi_def_cfa_offset 0
 2154 000a 7047     		bx	lr
 2155              		.cfi_endproc
 2156              	.LFE68:
 2157              		.size	polling_surt, .-polling_surt
 2158              		.global	__aeabi_dcmpge
 2159              		.global	__aeabi_dcmple
 2160              		.global	__aeabi_dcmpgt
 2161              		.section	.text.polling_LCD1,"ax",%progbits
 2162              		.align	2
 2163              		.global	polling_LCD1
 2164              		.thumb
 2165              		.thumb_func
 2166              		.type	polling_LCD1, %function
 2167              	polling_LCD1:
 2168              	.LFB69:
 597:.\main.c      **** 
 598:.\main.c      **** 
 599:.\main.c      **** 
 600:.\main.c      **** /*
 601:.\main.c      **** ***************************************************************************************************
ARM GAS  C:\Users\diego\AppData\Local\Temp\ccW8UKJI.s 			page 50


 602:.\main.c      **** *                                         void polling_LCD1(void)
 603:.\main.c      **** *
 604:.\main.c      **** * Description : 
 605:.\main.c      **** *               
 606:.\main.c      **** *
 607:.\main.c      **** * Argument(s) : none
 608:.\main.c      **** *
 609:.\main.c      **** * Return(s)   : none
 610:.\main.c      **** *
 611:.\main.c      **** * Caller(s)   : 
 612:.\main.c      **** *
 613:.\main.c      **** * Note(s)     : none.
 614:.\main.c      **** ***************************************************************************************************
 615:.\main.c      **** */
 616:.\main.c      **** 
 617:.\main.c      **** void polling_LCD1(void){
 2169              		.loc 1 617 0
 2170              		.cfi_startproc
 2171              		@ args = 0, pretend = 0, frame = 48
 2172              		@ frame_needed = 1, uses_anonymous_args = 0
 2173 0000 B0B5     		push	{r4, r5, r7, lr}
 2174              		.cfi_def_cfa_offset 16
 2175              		.cfi_offset 4, -16
 2176              		.cfi_offset 5, -12
 2177              		.cfi_offset 7, -8
 2178              		.cfi_offset 14, -4
 2179 0002 8EB0     		sub	sp, sp, #56
 2180              		.cfi_def_cfa_offset 72
 2181 0004 02AF     		add	r7, sp, #8
 2182              		.cfi_def_cfa 7, 64
 618:.\main.c      ****     uint8 x,y,aux[10],precio[5],x_1,xaux;
 619:.\main.c      **** 	char numero[8];
 620:.\main.c      **** 	double num_decimal;   
 621:.\main.c      ****     switch(flujo_LCD1){
 2183              		.loc 1 621 0
 2184 0006 DD4B     		ldr	r3, .L405
 2185 0008 1B78     		ldrb	r3, [r3]
 2186 000a DBB2     		uxtb	r3, r3
 2187 000c 662B     		cmp	r3, #102
 2188 000e 02F28085 		bhi	.L92
 2189 0012 01A2     		adr	r2, .L95
 2190 0014 52F823F0 		ldr	pc, [r2, r3, lsl #2]
 2191              		.p2align 2
 2192              	.L95:
 2193 0018 B5010000 		.word	.L94+1
 2194 001c CF010000 		.word	.L96+1
 2195 0020 FB010000 		.word	.L97+1
 2196 0024 D7040000 		.word	.L98+1
 2197 0028 87050000 		.word	.L99+1
 2198 002c AF070000 		.word	.L100+1
 2199 0030 7B080000 		.word	.L101+1
 2200 0034 132B0000 		.word	.L92+1
 2201 0038 D7080000 		.word	.L102+1
 2202 003c 510A0000 		.word	.L103+1
 2203 0040 132B0000 		.word	.L92+1
 2204 0044 F30E0000 		.word	.L104+1
 2205 0048 8D100000 		.word	.L105+1
ARM GAS  C:\Users\diego\AppData\Local\Temp\ccW8UKJI.s 			page 51


 2206 004c 551B0000 		.word	.L106+1
 2207 0050 DD200000 		.word	.L107+1
 2208 0054 03230000 		.word	.L108+1
 2209 0058 21240000 		.word	.L109+1
 2210 005c 0B250000 		.word	.L110+1
 2211 0060 AD250000 		.word	.L111+1
 2212 0064 0D2A0000 		.word	.L112+1
 2213 0068 132B0000 		.word	.L92+1
 2214 006c 132B0000 		.word	.L92+1
 2215 0070 132B0000 		.word	.L92+1
 2216 0074 132B0000 		.word	.L92+1
 2217 0078 132B0000 		.word	.L92+1
 2218 007c 132B0000 		.word	.L92+1
 2219 0080 132B0000 		.word	.L92+1
 2220 0084 132B0000 		.word	.L92+1
 2221 0088 132B0000 		.word	.L92+1
 2222 008c 132B0000 		.word	.L92+1
 2223 0090 132B0000 		.word	.L92+1
 2224 0094 132B0000 		.word	.L92+1
 2225 0098 132B0000 		.word	.L92+1
 2226 009c 132B0000 		.word	.L92+1
 2227 00a0 132B0000 		.word	.L92+1
 2228 00a4 132B0000 		.word	.L92+1
 2229 00a8 132B0000 		.word	.L92+1
 2230 00ac 132B0000 		.word	.L92+1
 2231 00b0 132B0000 		.word	.L92+1
 2232 00b4 132B0000 		.word	.L92+1
 2233 00b8 132B0000 		.word	.L92+1
 2234 00bc 132B0000 		.word	.L92+1
 2235 00c0 132B0000 		.word	.L92+1
 2236 00c4 132B0000 		.word	.L92+1
 2237 00c8 132B0000 		.word	.L92+1
 2238 00cc 132B0000 		.word	.L92+1
 2239 00d0 132B0000 		.word	.L92+1
 2240 00d4 132B0000 		.word	.L92+1
 2241 00d8 132B0000 		.word	.L92+1
 2242 00dc 132B0000 		.word	.L92+1
 2243 00e0 132B0000 		.word	.L92+1
 2244 00e4 132B0000 		.word	.L92+1
 2245 00e8 132B0000 		.word	.L92+1
 2246 00ec 132B0000 		.word	.L92+1
 2247 00f0 132B0000 		.word	.L92+1
 2248 00f4 132B0000 		.word	.L92+1
 2249 00f8 132B0000 		.word	.L92+1
 2250 00fc 132B0000 		.word	.L92+1
 2251 0100 132B0000 		.word	.L92+1
 2252 0104 132B0000 		.word	.L92+1
 2253 0108 132B0000 		.word	.L92+1
 2254 010c 132B0000 		.word	.L92+1
 2255 0110 132B0000 		.word	.L92+1
 2256 0114 132B0000 		.word	.L92+1
 2257 0118 132B0000 		.word	.L92+1
 2258 011c 132B0000 		.word	.L92+1
 2259 0120 132B0000 		.word	.L92+1
 2260 0124 132B0000 		.word	.L92+1
 2261 0128 132B0000 		.word	.L92+1
 2262 012c 132B0000 		.word	.L92+1
ARM GAS  C:\Users\diego\AppData\Local\Temp\ccW8UKJI.s 			page 52


 2263 0130 132B0000 		.word	.L92+1
 2264 0134 132B0000 		.word	.L92+1
 2265 0138 132B0000 		.word	.L92+1
 2266 013c 132B0000 		.word	.L92+1
 2267 0140 132B0000 		.word	.L92+1
 2268 0144 132B0000 		.word	.L92+1
 2269 0148 132B0000 		.word	.L92+1
 2270 014c 132B0000 		.word	.L92+1
 2271 0150 132B0000 		.word	.L92+1
 2272 0154 132B0000 		.word	.L92+1
 2273 0158 132B0000 		.word	.L92+1
 2274 015c 132B0000 		.word	.L92+1
 2275 0160 132B0000 		.word	.L92+1
 2276 0164 132B0000 		.word	.L92+1
 2277 0168 132B0000 		.word	.L92+1
 2278 016c 132B0000 		.word	.L92+1
 2279 0170 132B0000 		.word	.L92+1
 2280 0174 132B0000 		.word	.L92+1
 2281 0178 132B0000 		.word	.L92+1
 2282 017c 132B0000 		.word	.L92+1
 2283 0180 132B0000 		.word	.L92+1
 2284 0184 132B0000 		.word	.L92+1
 2285 0188 132B0000 		.word	.L92+1
 2286 018c 132B0000 		.word	.L92+1
 2287 0190 132B0000 		.word	.L92+1
 2288 0194 132B0000 		.word	.L92+1
 2289 0198 132B0000 		.word	.L92+1
 2290 019c 132B0000 		.word	.L92+1
 2291 01a0 132B0000 		.word	.L92+1
 2292 01a4 132B0000 		.word	.L92+1
 2293 01a8 F32A0000 		.word	.L113+1
 2294 01ac 132B0000 		.word	.L92+1
 2295 01b0 132B0000 		.word	.L92+1
 2296              		.p2align 1
 2297              	.L94:
 622:.\main.c      ****         case 0:
 623:.\main.c      ****          isr_3_StartEx(animacion); 
 2298              		.loc 1 623 0
 2299 01b4 7248     		ldr	r0, .L405+4
 2300 01b6 FFF7FEFF 		bl	isr_3_StartEx
 624:.\main.c      ****          Timer_Animacion_Start();
 2301              		.loc 1 624 0
 2302 01ba FFF7FEFF 		bl	Timer_Animacion_Start
 625:.\main.c      ****          count_protector=0;
 2303              		.loc 1 625 0
 2304 01be 714B     		ldr	r3, .L405+8
 2305 01c0 0022     		movs	r2, #0
 2306 01c2 1A70     		strb	r2, [r3]
 626:.\main.c      ****          flujo_LCD1=1;	       
 2307              		.loc 1 626 0
 2308 01c4 6D4B     		ldr	r3, .L405
 2309 01c6 0122     		movs	r2, #1
 2310 01c8 1A70     		strb	r2, [r3]
 627:.\main.c      ****         break;
 2311              		.loc 1 627 0
 2312 01ca 02F0A2BC 		b	.L92
 2313              	.L96:
ARM GAS  C:\Users\diego\AppData\Local\Temp\ccW8UKJI.s 			page 53


 628:.\main.c      ****         
 629:.\main.c      ****         case 1:
 630:.\main.c      ****          if(LCD_1_GetRxBufferSize()==8){ 
 2314              		.loc 1 630 0
 2315 01ce FFF7FEFF 		bl	LCD_1_GetRxBufferSize
 2316 01d2 0346     		mov	r3, r0
 2317 01d4 082B     		cmp	r3, #8
 2318 01d6 0ED1     		bne	.L115
 631:.\main.c      ****              isr_3_Stop(); 
 2319              		.loc 1 631 0
 2320 01d8 FFF7FEFF 		bl	isr_3_Stop
 632:.\main.c      ****              Timer_Animacion_Stop(); 
 2321              		.loc 1 632 0
 2322 01dc FFF7FEFF 		bl	Timer_Animacion_Stop
 633:.\main.c      **** 	         flujo_LCD1 = 2;
 2323              		.loc 1 633 0
 2324 01e0 664B     		ldr	r3, .L405
 2325 01e2 0222     		movs	r2, #2
 2326 01e4 1A70     		strb	r2, [r3]
 634:.\main.c      **** 	         set_imagen(1,99);				//Muestra imagen de inicio GRP700
 2327              		.loc 1 634 0
 2328 01e6 0120     		movs	r0, #1
 2329 01e8 6321     		movs	r1, #99
 2330 01ea FFF7FEFF 		bl	set_imagen
 635:.\main.c      ****              LCD_1_ClearRxBuffer();				
 2331              		.loc 1 635 0
 2332 01ee FFF7FEFF 		bl	LCD_1_ClearRxBuffer
 636:.\main.c      ****          }
 637:.\main.c      ****         break;
 2333              		.loc 1 637 0
 2334 01f2 02F08EBC 		b	.L92
 2335              	.L115:
 2336 01f6 02F08CBC 		b	.L92
 2337              	.L97:
 638:.\main.c      ****         
 639:.\main.c      ****         case 2:
 640:.\main.c      **** 	        if(LCD_1_GetRxBufferSize()==8){
 2338              		.loc 1 640 0
 2339 01fa FFF7FEFF 		bl	LCD_1_GetRxBufferSize
 2340 01fe 0346     		mov	r3, r0
 2341 0200 082B     		cmp	r3, #8
 2342 0202 40F06681 		bne	.L116
 641:.\main.c      **** 	            if((LCD_1_rxBuffer[0]==0xAA) && (LCD_1_rxBuffer[6]==0xC3) && (LCD_1_rxBuffer[7]==0x3C)
 2343              		.loc 1 641 0
 2344 0206 604B     		ldr	r3, .L405+12
 2345 0208 1B78     		ldrb	r3, [r3]
 2346 020a DBB2     		uxtb	r3, r3
 2347 020c AA2B     		cmp	r3, #170
 2348 020e 40F05981 		bne	.L117
 2349              		.loc 1 641 0 is_stmt 0 discriminator 1
 2350 0212 5D4B     		ldr	r3, .L405+12
 2351 0214 9B79     		ldrb	r3, [r3, #6]
 2352 0216 DBB2     		uxtb	r3, r3
 2353 0218 C32B     		cmp	r3, #195
 2354 021a 40F05381 		bne	.L117
 2355              		.loc 1 641 0 discriminator 2
 2356 021e 5A4B     		ldr	r3, .L405+12
ARM GAS  C:\Users\diego\AppData\Local\Temp\ccW8UKJI.s 			page 54


 2357 0220 DB79     		ldrb	r3, [r3, #7]
 2358 0222 DBB2     		uxtb	r3, r3
 2359 0224 3C2B     		cmp	r3, #60
 2360 0226 40F04D81 		bne	.L117
 642:.\main.c      ****                     switch(LCD_1_rxBuffer[3]){
 2361              		.loc 1 642 0 is_stmt 1
 2362 022a 574B     		ldr	r3, .L405+12
 2363 022c DB78     		ldrb	r3, [r3, #3]
 2364 022e DBB2     		uxtb	r3, r3
 2365 0230 592B     		cmp	r3, #89
 2366 0232 1AD0     		beq	.L118
 2367 0234 592B     		cmp	r3, #89
 2368 0236 02DC     		bgt	.L119
 2369 0238 452B     		cmp	r3, #69
 2370 023a 0ED0     		beq	.L120
 2371 023c 42E1     		b	.L117
 2372              	.L119:
 2373 023e 5C2B     		cmp	r3, #92
 2374 0240 03D0     		beq	.L121
 2375 0242 7E2B     		cmp	r3, #126
 2376 0244 00F03681 		beq	.L122
 2377 0248 3CE1     		b	.L117
 2378              	.L121:
 643:.\main.c      **** 	                    case 0x5C:                                  //Venta							
 644:.\main.c      **** 							set_imagen(1,73);
 2379              		.loc 1 644 0
 2380 024a 0120     		movs	r0, #1
 2381 024c 4921     		movs	r1, #73
 2382 024e FFF7FEFF 		bl	set_imagen
 645:.\main.c      ****                             flujo_LCD1 = 3;
 2383              		.loc 1 645 0
 2384 0252 4A4B     		ldr	r3, .L405
 2385 0254 0322     		movs	r2, #3
 2386 0256 1A70     		strb	r2, [r3]
 646:.\main.c      **** 	                    break;                
 2387              		.loc 1 646 0
 2388 0258 34E1     		b	.L117
 2389              	.L120:
 647:.\main.c      **** 	                    
 648:.\main.c      **** 	                    case 0x45:								    //Otras opciones
 649:.\main.c      ****                             set_imagen(1,114);
 2390              		.loc 1 649 0
 2391 025a 0120     		movs	r0, #1
 2392 025c 7221     		movs	r1, #114
 2393 025e FFF7FEFF 		bl	set_imagen
 650:.\main.c      ****                             flujo_LCD1 = 15;
 2394              		.loc 1 650 0
 2395 0262 464B     		ldr	r3, .L405
 2396 0264 0F22     		movs	r2, #15
 2397 0266 1A70     		strb	r2, [r3]
 651:.\main.c      **** 	                    break; 
 2398              		.loc 1 651 0
 2399 0268 2CE1     		b	.L117
 2400              	.L118:
 652:.\main.c      **** 
 653:.\main.c      **** 	                    case 0x59:									//Corte
 654:.\main.c      **** 							set_imagen(1,57);
ARM GAS  C:\Users\diego\AppData\Local\Temp\ccW8UKJI.s 			page 55


 2401              		.loc 1 654 0
 2402 026a 0120     		movs	r0, #1
 2403 026c 3921     		movs	r1, #57
 2404 026e FFF7FEFF 		bl	set_imagen
 655:.\main.c      **** 							rf_mod[0]='M';
 2405              		.loc 1 655 0
 2406 0272 464B     		ldr	r3, .L405+16
 2407 0274 4D22     		movs	r2, #77
 2408 0276 1A70     		strb	r2, [r3]
 656:.\main.c      **** 							rf_mod[1]='U';
 2409              		.loc 1 656 0
 2410 0278 444B     		ldr	r3, .L405+16
 2411 027a 5522     		movs	r2, #85
 2412 027c 5A70     		strb	r2, [r3, #1]
 657:.\main.c      **** 							rf_mod[2]='X';
 2413              		.loc 1 657 0
 2414 027e 434B     		ldr	r3, .L405+16
 2415 0280 5822     		movs	r2, #88
 2416 0282 9A70     		strb	r2, [r3, #2]
 658:.\main.c      **** 							rf_mod[3]='2';
 2417              		.loc 1 658 0
 2418 0284 414B     		ldr	r3, .L405+16
 2419 0286 3222     		movs	r2, #50
 2420 0288 DA70     		strb	r2, [r3, #3]
 659:.\main.c      ****                 			totales(lado1.dir, lado1.mangueras);
 2421              		.loc 1 659 0
 2422 028a 414B     		ldr	r3, .L405+20
 2423 028c 1B78     		ldrb	r3, [r3]
 2424 028e DAB2     		uxtb	r2, r3
 2425 0290 3F4B     		ldr	r3, .L405+20
 2426 0292 93F85C30 		ldrb	r3, [r3, #92]
 2427 0296 DBB2     		uxtb	r3, r3
 2428 0298 1046     		mov	r0, r2
 2429 029a 1946     		mov	r1, r3
 2430 029c FFF7FEFF 		bl	totales
 660:.\main.c      ****                 			CyDelay(50);  
 2431              		.loc 1 660 0
 2432 02a0 3220     		movs	r0, #50
 2433 02a2 FFF7FEFF 		bl	CyDelay
 661:.\main.c      ****                             x_1=4;
 2434              		.loc 1 661 0
 2435 02a6 0423     		movs	r3, #4
 2436 02a8 87F82D30 		strb	r3, [r7, #45]
 662:.\main.c      ****                             for(x=0;x<=11;x++){     //volumen_pro1 
 2437              		.loc 1 662 0
 2438 02ac 0023     		movs	r3, #0
 2439 02ae 87F82F30 		strb	r3, [r7, #47]
 2440 02b2 18E0     		b	.L123
 2441              	.L124:
 663:.\main.c      ****                                 rf_mod[x_1]=(lado1.totales[0][x]&0X0F)+48;
 2442              		.loc 1 663 0 discriminator 3
 2443 02b4 97F82D30 		ldrb	r3, [r7, #45]	@ zero_extendqisi2
 2444 02b8 97F82F20 		ldrb	r2, [r7, #47]	@ zero_extendqisi2
 2445 02bc 3449     		ldr	r1, .L405+20
 2446 02be 0A44     		add	r2, r2, r1
 2447 02c0 9278     		ldrb	r2, [r2, #2]
 2448 02c2 D2B2     		uxtb	r2, r2
ARM GAS  C:\Users\diego\AppData\Local\Temp\ccW8UKJI.s 			page 56


 2449 02c4 02F00F02 		and	r2, r2, #15
 2450 02c8 D2B2     		uxtb	r2, r2
 2451 02ca 3032     		adds	r2, r2, #48
 2452 02cc D1B2     		uxtb	r1, r2
 2453 02ce 2F4A     		ldr	r2, .L405+16
 2454 02d0 D154     		strb	r1, [r2, r3]
 664:.\main.c      ****                                 x_1++;
 2455              		.loc 1 664 0 discriminator 3
 2456 02d2 97F82D30 		ldrb	r3, [r7, #45]	@ zero_extendqisi2
 2457 02d6 0133     		adds	r3, r3, #1
 2458 02d8 87F82D30 		strb	r3, [r7, #45]
 662:.\main.c      ****                             for(x=0;x<=11;x++){     //volumen_pro1 
 2459              		.loc 1 662 0 discriminator 3
 2460 02dc 97F82F30 		ldrb	r3, [r7, #47]	@ zero_extendqisi2
 2461 02e0 0133     		adds	r3, r3, #1
 2462 02e2 87F82F30 		strb	r3, [r7, #47]
 2463              	.L123:
 662:.\main.c      ****                             for(x=0;x<=11;x++){     //volumen_pro1 
 2464              		.loc 1 662 0 is_stmt 0 discriminator 1
 2465 02e6 97F82F30 		ldrb	r3, [r7, #47]	@ zero_extendqisi2
 2466 02ea 0B2B     		cmp	r3, #11
 2467 02ec E2D9     		bls	.L124
 665:.\main.c      ****                             }
 666:.\main.c      ****                             for(x=12;x<=23;x++){    //dinero_pro1
 2468              		.loc 1 666 0 is_stmt 1
 2469 02ee 0C23     		movs	r3, #12
 2470 02f0 87F82F30 		strb	r3, [r7, #47]
 2471 02f4 18E0     		b	.L125
 2472              	.L126:
 667:.\main.c      ****                                 rf_mod[x_1]=(lado1.totales[0][x]&0X0F)+48;
 2473              		.loc 1 667 0 discriminator 3
 2474 02f6 97F82D30 		ldrb	r3, [r7, #45]	@ zero_extendqisi2
 2475 02fa 97F82F20 		ldrb	r2, [r7, #47]	@ zero_extendqisi2
 2476 02fe 2449     		ldr	r1, .L405+20
 2477 0300 0A44     		add	r2, r2, r1
 2478 0302 9278     		ldrb	r2, [r2, #2]
 2479 0304 D2B2     		uxtb	r2, r2
 2480 0306 02F00F02 		and	r2, r2, #15
 2481 030a D2B2     		uxtb	r2, r2
 2482 030c 3032     		adds	r2, r2, #48
 2483 030e D1B2     		uxtb	r1, r2
 2484 0310 1E4A     		ldr	r2, .L405+16
 2485 0312 D154     		strb	r1, [r2, r3]
 668:.\main.c      ****                                 x_1++;
 2486              		.loc 1 668 0 discriminator 3
 2487 0314 97F82D30 		ldrb	r3, [r7, #45]	@ zero_extendqisi2
 2488 0318 0133     		adds	r3, r3, #1
 2489 031a 87F82D30 		strb	r3, [r7, #45]
 666:.\main.c      ****                                 rf_mod[x_1]=(lado1.totales[0][x]&0X0F)+48;
 2490              		.loc 1 666 0 discriminator 3
 2491 031e 97F82F30 		ldrb	r3, [r7, #47]	@ zero_extendqisi2
 2492 0322 0133     		adds	r3, r3, #1
 2493 0324 87F82F30 		strb	r3, [r7, #47]
 2494              	.L125:
 666:.\main.c      ****                                 rf_mod[x_1]=(lado1.totales[0][x]&0X0F)+48;
 2495              		.loc 1 666 0 is_stmt 0 discriminator 1
 2496 0328 97F82F30 		ldrb	r3, [r7, #47]	@ zero_extendqisi2
ARM GAS  C:\Users\diego\AppData\Local\Temp\ccW8UKJI.s 			page 57


 2497 032c 172B     		cmp	r3, #23
 2498 032e E2D9     		bls	.L126
 669:.\main.c      ****                             }           
 670:.\main.c      ****                             for(x=0;x<=11;x++){     //volumen_pro2     
 2499              		.loc 1 670 0 is_stmt 1
 2500 0330 0023     		movs	r3, #0
 2501 0332 87F82F30 		strb	r3, [r7, #47]
 2502 0336 18E0     		b	.L127
 2503              	.L128:
 671:.\main.c      ****                                 rf_mod[x_1]=(lado1.totales[1][x]&0X0F)+48;
 2504              		.loc 1 671 0 discriminator 3
 2505 0338 97F82D30 		ldrb	r3, [r7, #45]	@ zero_extendqisi2
 2506 033c 97F82F20 		ldrb	r2, [r7, #47]	@ zero_extendqisi2
 2507 0340 1349     		ldr	r1, .L405+20
 2508 0342 0A44     		add	r2, r2, r1
 2509 0344 927E     		ldrb	r2, [r2, #26]
 2510 0346 D2B2     		uxtb	r2, r2
 2511 0348 02F00F02 		and	r2, r2, #15
 2512 034c D2B2     		uxtb	r2, r2
 2513 034e 3032     		adds	r2, r2, #48
 2514 0350 D1B2     		uxtb	r1, r2
 2515 0352 0E4A     		ldr	r2, .L405+16
 2516 0354 D154     		strb	r1, [r2, r3]
 672:.\main.c      ****                                 x_1++;
 2517              		.loc 1 672 0 discriminator 3
 2518 0356 97F82D30 		ldrb	r3, [r7, #45]	@ zero_extendqisi2
 2519 035a 0133     		adds	r3, r3, #1
 2520 035c 87F82D30 		strb	r3, [r7, #45]
 670:.\main.c      ****                                 rf_mod[x_1]=(lado1.totales[1][x]&0X0F)+48;
 2521              		.loc 1 670 0 discriminator 3
 2522 0360 97F82F30 		ldrb	r3, [r7, #47]	@ zero_extendqisi2
 2523 0364 0133     		adds	r3, r3, #1
 2524 0366 87F82F30 		strb	r3, [r7, #47]
 2525              	.L127:
 670:.\main.c      ****                                 rf_mod[x_1]=(lado1.totales[1][x]&0X0F)+48;
 2526              		.loc 1 670 0 is_stmt 0 discriminator 1
 2527 036a 97F82F30 		ldrb	r3, [r7, #47]	@ zero_extendqisi2
 2528 036e 0B2B     		cmp	r3, #11
 2529 0370 E2D9     		bls	.L128
 673:.\main.c      ****                             }
 674:.\main.c      ****                             for(x=12;x<=23;x++){    //dinero_pro2    
 2530              		.loc 1 674 0 is_stmt 1
 2531 0372 0C23     		movs	r3, #12
 2532 0374 87F82F30 		strb	r3, [r7, #47]
 2533 0378 25E0     		b	.L129
 2534              	.L406:
 2535 037a 00BF     		.align	2
 2536              	.L405:
 2537 037c 00000000 		.word	flujo_LCD1
 2538 0380 00000000 		.word	animacion
 2539 0384 00000000 		.word	count_protector
 2540 0388 00000000 		.word	LCD_1_rxBuffer
 2541 038c 00000000 		.word	rf_mod
 2542 0390 00000000 		.word	lado1
 2543              	.L130:
 675:.\main.c      ****                                 rf_mod[x_1]=(lado1.totales[1][x]&0X0F)+48;
 2544              		.loc 1 675 0 discriminator 3
ARM GAS  C:\Users\diego\AppData\Local\Temp\ccW8UKJI.s 			page 58


 2545 0394 97F82D30 		ldrb	r3, [r7, #45]	@ zero_extendqisi2
 2546 0398 97F82F20 		ldrb	r2, [r7, #47]	@ zero_extendqisi2
 2547 039c B249     		ldr	r1, .L407
 2548 039e 0A44     		add	r2, r2, r1
 2549 03a0 927E     		ldrb	r2, [r2, #26]
 2550 03a2 D2B2     		uxtb	r2, r2
 2551 03a4 02F00F02 		and	r2, r2, #15
 2552 03a8 D2B2     		uxtb	r2, r2
 2553 03aa 3032     		adds	r2, r2, #48
 2554 03ac D1B2     		uxtb	r1, r2
 2555 03ae AF4A     		ldr	r2, .L407+4
 2556 03b0 D154     		strb	r1, [r2, r3]
 676:.\main.c      ****                                 x_1++;
 2557              		.loc 1 676 0 discriminator 3
 2558 03b2 97F82D30 		ldrb	r3, [r7, #45]	@ zero_extendqisi2
 2559 03b6 0133     		adds	r3, r3, #1
 2560 03b8 87F82D30 		strb	r3, [r7, #45]
 674:.\main.c      ****                                 rf_mod[x_1]=(lado1.totales[1][x]&0X0F)+48;
 2561              		.loc 1 674 0 discriminator 3
 2562 03bc 97F82F30 		ldrb	r3, [r7, #47]	@ zero_extendqisi2
 2563 03c0 0133     		adds	r3, r3, #1
 2564 03c2 87F82F30 		strb	r3, [r7, #47]
 2565              	.L129:
 674:.\main.c      ****                                 rf_mod[x_1]=(lado1.totales[1][x]&0X0F)+48;
 2566              		.loc 1 674 0 is_stmt 0 discriminator 1
 2567 03c6 97F82F30 		ldrb	r3, [r7, #47]	@ zero_extendqisi2
 2568 03ca 172B     		cmp	r3, #23
 2569 03cc E2D9     		bls	.L130
 677:.\main.c      ****                             }           
 678:.\main.c      ****                             for(x=0;x<=11;x++){     //volumen_pro3   
 2570              		.loc 1 678 0 is_stmt 1
 2571 03ce 0023     		movs	r3, #0
 2572 03d0 87F82F30 		strb	r3, [r7, #47]
 2573 03d4 19E0     		b	.L131
 2574              	.L132:
 679:.\main.c      ****                                 rf_mod[x_1]=(lado1.totales[2][x]&0X0F)+48;
 2575              		.loc 1 679 0 discriminator 3
 2576 03d6 97F82D30 		ldrb	r3, [r7, #45]	@ zero_extendqisi2
 2577 03da 97F82F20 		ldrb	r2, [r7, #47]	@ zero_extendqisi2
 2578 03de A249     		ldr	r1, .L407
 2579 03e0 0A44     		add	r2, r2, r1
 2580 03e2 92F83220 		ldrb	r2, [r2, #50]
 2581 03e6 D2B2     		uxtb	r2, r2
 2582 03e8 02F00F02 		and	r2, r2, #15
 2583 03ec D2B2     		uxtb	r2, r2
 2584 03ee 3032     		adds	r2, r2, #48
 2585 03f0 D1B2     		uxtb	r1, r2
 2586 03f2 9E4A     		ldr	r2, .L407+4
 2587 03f4 D154     		strb	r1, [r2, r3]
 680:.\main.c      ****                                 x_1++;
 2588              		.loc 1 680 0 discriminator 3
 2589 03f6 97F82D30 		ldrb	r3, [r7, #45]	@ zero_extendqisi2
 2590 03fa 0133     		adds	r3, r3, #1
 2591 03fc 87F82D30 		strb	r3, [r7, #45]
 678:.\main.c      ****                                 rf_mod[x_1]=(lado1.totales[2][x]&0X0F)+48;
 2592              		.loc 1 678 0 discriminator 3
 2593 0400 97F82F30 		ldrb	r3, [r7, #47]	@ zero_extendqisi2
ARM GAS  C:\Users\diego\AppData\Local\Temp\ccW8UKJI.s 			page 59


 2594 0404 0133     		adds	r3, r3, #1
 2595 0406 87F82F30 		strb	r3, [r7, #47]
 2596              	.L131:
 678:.\main.c      ****                                 rf_mod[x_1]=(lado1.totales[2][x]&0X0F)+48;
 2597              		.loc 1 678 0 is_stmt 0 discriminator 1
 2598 040a 97F82F30 		ldrb	r3, [r7, #47]	@ zero_extendqisi2
 2599 040e 0B2B     		cmp	r3, #11
 2600 0410 E1D9     		bls	.L132
 681:.\main.c      ****                             }
 682:.\main.c      ****                             for(x=12;x<=23;x++){    //dinero_pro3    
 2601              		.loc 1 682 0 is_stmt 1
 2602 0412 0C23     		movs	r3, #12
 2603 0414 87F82F30 		strb	r3, [r7, #47]
 2604 0418 19E0     		b	.L133
 2605              	.L134:
 683:.\main.c      ****                                 rf_mod[x_1]=(lado1.totales[2][x]&0X0F)+48;
 2606              		.loc 1 683 0 discriminator 3
 2607 041a 97F82D30 		ldrb	r3, [r7, #45]	@ zero_extendqisi2
 2608 041e 97F82F20 		ldrb	r2, [r7, #47]	@ zero_extendqisi2
 2609 0422 9149     		ldr	r1, .L407
 2610 0424 0A44     		add	r2, r2, r1
 2611 0426 92F83220 		ldrb	r2, [r2, #50]
 2612 042a D2B2     		uxtb	r2, r2
 2613 042c 02F00F02 		and	r2, r2, #15
 2614 0430 D2B2     		uxtb	r2, r2
 2615 0432 3032     		adds	r2, r2, #48
 2616 0434 D1B2     		uxtb	r1, r2
 2617 0436 8D4A     		ldr	r2, .L407+4
 2618 0438 D154     		strb	r1, [r2, r3]
 684:.\main.c      ****                                 x_1++;
 2619              		.loc 1 684 0 discriminator 3
 2620 043a 97F82D30 		ldrb	r3, [r7, #45]	@ zero_extendqisi2
 2621 043e 0133     		adds	r3, r3, #1
 2622 0440 87F82D30 		strb	r3, [r7, #45]
 682:.\main.c      ****                                 rf_mod[x_1]=(lado1.totales[2][x]&0X0F)+48;
 2623              		.loc 1 682 0 discriminator 3
 2624 0444 97F82F30 		ldrb	r3, [r7, #47]	@ zero_extendqisi2
 2625 0448 0133     		adds	r3, r3, #1
 2626 044a 87F82F30 		strb	r3, [r7, #47]
 2627              	.L133:
 682:.\main.c      ****                                 rf_mod[x_1]=(lado1.totales[2][x]&0X0F)+48;
 2628              		.loc 1 682 0 is_stmt 0 discriminator 1
 2629 044e 97F82F30 		ldrb	r3, [r7, #47]	@ zero_extendqisi2
 2630 0452 172B     		cmp	r3, #23
 2631 0454 E1D9     		bls	.L134
 685:.\main.c      ****                             }
 686:.\main.c      ****                             rf_mod[75]='*';                            
 2632              		.loc 1 686 0 is_stmt 1
 2633 0456 854B     		ldr	r3, .L407+4
 2634 0458 2A22     		movs	r2, #42
 2635 045a 83F84B20 		strb	r2, [r3, #75]
 687:.\main.c      ****                             PC_ClearRxBuffer();
 2636              		.loc 1 687 0
 2637 045e FFF7FEFF 		bl	PC_ClearRxBuffer
 688:.\main.c      **** 						    for(x=0;x<=75;x++){
 2638              		.loc 1 688 0
 2639 0462 0023     		movs	r3, #0
ARM GAS  C:\Users\diego\AppData\Local\Temp\ccW8UKJI.s 			page 60


 2640 0464 87F82F30 		strb	r3, [r7, #47]
 2641 0468 0BE0     		b	.L135
 2642              	.L136:
 689:.\main.c      **** 							   PC_PutChar(rf_mod[x]);
 2643              		.loc 1 689 0 discriminator 3
 2644 046a 97F82F30 		ldrb	r3, [r7, #47]	@ zero_extendqisi2
 2645 046e 7F4A     		ldr	r2, .L407+4
 2646 0470 D35C     		ldrb	r3, [r2, r3]	@ zero_extendqisi2
 2647 0472 1846     		mov	r0, r3
 2648 0474 FFF7FEFF 		bl	PC_PutChar
 688:.\main.c      **** 						    for(x=0;x<=75;x++){
 2649              		.loc 1 688 0 discriminator 3
 2650 0478 97F82F30 		ldrb	r3, [r7, #47]	@ zero_extendqisi2
 2651 047c 0133     		adds	r3, r3, #1
 2652 047e 87F82F30 		strb	r3, [r7, #47]
 2653              	.L135:
 688:.\main.c      **** 						    for(x=0;x<=75;x++){
 2654              		.loc 1 688 0 is_stmt 0 discriminator 1
 2655 0482 97F82F30 		ldrb	r3, [r7, #47]	@ zero_extendqisi2
 2656 0486 4B2B     		cmp	r3, #75
 2657 0488 EFD9     		bls	.L136
 690:.\main.c      **** 						    }                                 
 691:.\main.c      **** 							CyDelay(250);                
 2658              		.loc 1 691 0 is_stmt 1
 2659 048a FA20     		movs	r0, #250
 2660 048c FFF7FEFF 		bl	CyDelay
 692:.\main.c      **** 							if(PC_GetRxBufferSize()>=2){
 2661              		.loc 1 692 0
 2662 0490 FFF7FEFF 		bl	PC_GetRxBufferSize
 2663 0494 0346     		mov	r3, r0
 2664 0496 012B     		cmp	r3, #1
 2665 0498 09D9     		bls	.L137
 693:.\main.c      **** 
 694:.\main.c      ****  							        set_imagen(1,74);
 2666              		.loc 1 694 0
 2667 049a 0120     		movs	r0, #1
 2668 049c 4A21     		movs	r1, #74
 2669 049e FFF7FEFF 		bl	set_imagen
 695:.\main.c      **** 							        flujo_LCD1=0;
 2670              		.loc 1 695 0
 2671 04a2 734B     		ldr	r3, .L407+8
 2672 04a4 0022     		movs	r2, #0
 2673 04a6 1A70     		strb	r2, [r3]
 696:.\main.c      **** 							        lado1.estado=libre;     //Fin de reimpresion                                        
 2674              		.loc 1 696 0
 2675 04a8 6F4B     		ldr	r3, .L407
 2676 04aa 0122     		movs	r2, #1
 2677 04ac 5A70     		strb	r2, [r3, #1]
 2678              	.L137:
 697:.\main.c      ****                      
 698:.\main.c      **** 							}    
 699:.\main.c      **** 							PC_ClearRxBuffer();                                                                         
 2679              		.loc 1 699 0
 2680 04ae FFF7FEFF 		bl	PC_ClearRxBuffer
 700:.\main.c      **** 	                    break;					
 2681              		.loc 1 700 0
 2682 04b2 07E0     		b	.L117
ARM GAS  C:\Users\diego\AppData\Local\Temp\ccW8UKJI.s 			page 61


 2683              	.L122:
 701:.\main.c      **** 						
 702:.\main.c      **** 	                    case 0x7E:									//ir a menu
 703:.\main.c      **** 						  set_imagen(1,74);	
 2684              		.loc 1 703 0
 2685 04b4 0120     		movs	r0, #1
 2686 04b6 4A21     		movs	r1, #74
 2687 04b8 FFF7FEFF 		bl	set_imagen
 704:.\main.c      **** 	                      flujo_LCD1=0;     
 2688              		.loc 1 704 0
 2689 04bc 6C4B     		ldr	r3, .L407+8
 2690 04be 0022     		movs	r2, #0
 2691 04c0 1A70     		strb	r2, [r3]
 705:.\main.c      **** 	                    break;					
 2692              		.loc 1 705 0
 2693 04c2 00BF     		nop
 2694              	.L117:
 706:.\main.c      **** 	                }
 707:.\main.c      **** 	            }
 708:.\main.c      **** 	            CyDelay(100);
 2695              		.loc 1 708 0
 2696 04c4 6420     		movs	r0, #100
 2697 04c6 FFF7FEFF 		bl	CyDelay
 709:.\main.c      **** 	            LCD_1_ClearRxBuffer();
 2698              		.loc 1 709 0
 2699 04ca FFF7FEFF 		bl	LCD_1_ClearRxBuffer
 710:.\main.c      **** 	        }				
 711:.\main.c      **** 		break;
 2700              		.loc 1 711 0
 2701 04ce 02F020BB 		b	.L92
 2702              	.L116:
 2703              		.loc 1 711 0 is_stmt 0 discriminator 2
 2704 04d2 02F01EBB 		b	.L92
 2705              	.L98:
 712:.\main.c      ****             
 713:.\main.c      ****          case 3:     
 714:.\main.c      ****          if(LCD_1_GetRxBufferSize()==8){
 2706              		.loc 1 714 0 is_stmt 1
 2707 04d6 FFF7FEFF 		bl	LCD_1_GetRxBufferSize
 2708 04da 0346     		mov	r3, r0
 2709 04dc 082B     		cmp	r3, #8
 2710 04de 50D1     		bne	.L138
 715:.\main.c      ****             if((LCD_1_rxBuffer[0]==0xAA) && (LCD_1_rxBuffer[6]==0xC3) && (LCD_1_rxBuffer[7]==0x3C))
 2711              		.loc 1 715 0
 2712 04e0 644B     		ldr	r3, .L407+12
 2713 04e2 1B78     		ldrb	r3, [r3]
 2714 04e4 DBB2     		uxtb	r3, r3
 2715 04e6 AA2B     		cmp	r3, #170
 2716 04e8 44D1     		bne	.L139
 2717              		.loc 1 715 0 is_stmt 0 discriminator 1
 2718 04ea 624B     		ldr	r3, .L407+12
 2719 04ec 9B79     		ldrb	r3, [r3, #6]
 2720 04ee DBB2     		uxtb	r3, r3
 2721 04f0 C32B     		cmp	r3, #195
 2722 04f2 3FD1     		bne	.L139
 2723              		.loc 1 715 0 discriminator 2
 2724 04f4 5F4B     		ldr	r3, .L407+12
ARM GAS  C:\Users\diego\AppData\Local\Temp\ccW8UKJI.s 			page 62


 2725 04f6 DB79     		ldrb	r3, [r3, #7]
 2726 04f8 DBB2     		uxtb	r3, r3
 2727 04fa 3C2B     		cmp	r3, #60
 2728 04fc 3AD1     		bne	.L139
 716:.\main.c      ****                 switch(LCD_1_rxBuffer[3]){
 2729              		.loc 1 716 0 is_stmt 1
 2730 04fe 5D4B     		ldr	r3, .L407+12
 2731 0500 DB78     		ldrb	r3, [r3, #3]
 2732 0502 DBB2     		uxtb	r3, r3
 2733 0504 5F2B     		cmp	r3, #95
 2734 0506 09D0     		beq	.L140
 2735 0508 5F2B     		cmp	r3, #95
 2736 050a 02DC     		bgt	.L141
 2737 050c 5E2B     		cmp	r3, #94
 2738 050e 13D0     		beq	.L142
 2739 0510 30E0     		b	.L139
 2740              	.L141:
 2741 0512 7E2B     		cmp	r3, #126
 2742 0514 1ED0     		beq	.L143
 2743 0516 942B     		cmp	r3, #148
 2744 0518 24D0     		beq	.L144
 2745 051a 2BE0     		b	.L139
 2746              	.L140:
 717:.\main.c      ****                     case 0x5F:							//Sin ID	                                                     
 718:.\main.c      ****                       set_imagen(1,18);                 //Pasa a pantalla de tipo de venta viejo:5
 2747              		.loc 1 718 0
 2748 051c 0120     		movs	r0, #1
 2749 051e 1221     		movs	r1, #18
 2750 0520 FFF7FEFF 		bl	set_imagen
 719:.\main.c      ****                       tipo_venta = 0;
 2751              		.loc 1 719 0
 2752 0524 544B     		ldr	r3, .L407+16
 2753 0526 0022     		movs	r2, #0
 2754 0528 1A70     		strb	r2, [r3]
 720:.\main.c      ****                       id_teclado1 = 8;
 2755              		.loc 1 720 0
 2756 052a 544B     		ldr	r3, .L407+20
 2757 052c 0822     		movs	r2, #8
 2758 052e 1A70     		strb	r2, [r3]
 721:.\main.c      ****                       flujo_LCD1 = 11;                 // viejo: 4
 2759              		.loc 1 721 0
 2760 0530 4F4B     		ldr	r3, .L407+8
 2761 0532 0B22     		movs	r2, #11
 2762 0534 1A70     		strb	r2, [r3]
 722:.\main.c      ****                     break;
 2763              		.loc 1 722 0
 2764 0536 1DE0     		b	.L139
 2765              	.L142:
 723:.\main.c      ****                     
 724:.\main.c      ****                     case 0x5E:  						//Con ID                                         
 725:.\main.c      ****                       set_imagen(1,18);
 2766              		.loc 1 725 0
 2767 0538 0120     		movs	r0, #1
 2768 053a 1221     		movs	r1, #18
 2769 053c FFF7FEFF 		bl	set_imagen
 726:.\main.c      ****                       tipo_venta = 1;
 2770              		.loc 1 726 0
ARM GAS  C:\Users\diego\AppData\Local\Temp\ccW8UKJI.s 			page 63


 2771 0540 4D4B     		ldr	r3, .L407+16
 2772 0542 0122     		movs	r2, #1
 2773 0544 1A70     		strb	r2, [r3]
 727:.\main.c      ****                       flujo_LCD1 = 11;
 2774              		.loc 1 727 0
 2775 0546 4A4B     		ldr	r3, .L407+8
 2776 0548 0B22     		movs	r2, #11
 2777 054a 1A70     		strb	r2, [r3]
 728:.\main.c      ****                       id_teclado1 = 0;
 2778              		.loc 1 728 0
 2779 054c 4B4B     		ldr	r3, .L407+20
 2780 054e 0022     		movs	r2, #0
 2781 0550 1A70     		strb	r2, [r3]
 729:.\main.c      ****                     break;	
 2782              		.loc 1 729 0
 2783 0552 0FE0     		b	.L139
 2784              	.L143:
 730:.\main.c      **** 
 731:.\main.c      ****                     case 0x7E:						    //ir a menu
 732:.\main.c      **** 					  set_imagen(1,74);	
 2785              		.loc 1 732 0
 2786 0554 0120     		movs	r0, #1
 2787 0556 4A21     		movs	r1, #74
 2788 0558 FFF7FEFF 		bl	set_imagen
 733:.\main.c      ****                       flujo_LCD1 = 0;     
 2789              		.loc 1 733 0
 2790 055c 444B     		ldr	r3, .L407+8
 2791 055e 0022     		movs	r2, #0
 2792 0560 1A70     		strb	r2, [r3]
 734:.\main.c      ****                     break;	
 2793              		.loc 1 734 0
 2794 0562 07E0     		b	.L139
 2795              	.L144:
 735:.\main.c      ****                     
 736:.\main.c      ****                     case 0x94:
 737:.\main.c      ****                         set_imagen(1,99); //Regreso a pantalla de opcion de venta
 2796              		.loc 1 737 0
 2797 0564 0120     		movs	r0, #1
 2798 0566 6321     		movs	r1, #99
 2799 0568 FFF7FEFF 		bl	set_imagen
 738:.\main.c      ****                         flujo_LCD1 = 1;
 2800              		.loc 1 738 0
 2801 056c 404B     		ldr	r3, .L407+8
 2802 056e 0122     		movs	r2, #1
 2803 0570 1A70     		strb	r2, [r3]
 739:.\main.c      ****                     break;
 2804              		.loc 1 739 0
 2805 0572 00BF     		nop
 2806              	.L139:
 740:.\main.c      ****                 }
 741:.\main.c      ****             }
 742:.\main.c      ****             CyDelay(100);
 2807              		.loc 1 742 0
 2808 0574 6420     		movs	r0, #100
 2809 0576 FFF7FEFF 		bl	CyDelay
 743:.\main.c      ****             LCD_1_ClearRxBuffer();
 2810              		.loc 1 743 0
ARM GAS  C:\Users\diego\AppData\Local\Temp\ccW8UKJI.s 			page 64


 2811 057a FFF7FEFF 		bl	LCD_1_ClearRxBuffer
 744:.\main.c      ****         }        
 745:.\main.c      ****         break;    
 2812              		.loc 1 745 0
 2813 057e 02F0C8BA 		b	.L92
 2814              	.L138:
 2815              		.loc 1 745 0 is_stmt 0 discriminator 3
 2816 0582 02F0C6BA 		b	.L92
 2817              	.L99:
 746:.\main.c      ****             
 747:.\main.c      ****         case 4:
 748:.\main.c      ****          if(LCD_1_GetRxBufferSize()==8){
 2818              		.loc 1 748 0 is_stmt 1
 2819 0586 FFF7FEFF 		bl	LCD_1_GetRxBufferSize
 2820 058a 0346     		mov	r3, r0
 2821 058c 082B     		cmp	r3, #8
 2822 058e 40F00C81 		bne	.L145
 749:.\main.c      ****             if((LCD_1_rxBuffer[0]==0xAA) && (LCD_1_rxBuffer[6]==0xC3) && (LCD_1_rxBuffer[7]==0x3C))
 2823              		.loc 1 749 0
 2824 0592 384B     		ldr	r3, .L407+12
 2825 0594 1B78     		ldrb	r3, [r3]
 2826 0596 DBB2     		uxtb	r3, r3
 2827 0598 AA2B     		cmp	r3, #170
 2828 059a 40F0FF80 		bne	.L146
 2829              		.loc 1 749 0 is_stmt 0 discriminator 1
 2830 059e 354B     		ldr	r3, .L407+12
 2831 05a0 9B79     		ldrb	r3, [r3, #6]
 2832 05a2 DBB2     		uxtb	r3, r3
 2833 05a4 C32B     		cmp	r3, #195
 2834 05a6 40F0F980 		bne	.L146
 2835              		.loc 1 749 0 discriminator 2
 2836 05aa 324B     		ldr	r3, .L407+12
 2837 05ac DB79     		ldrb	r3, [r3, #7]
 2838 05ae DBB2     		uxtb	r3, r3
 2839 05b0 3C2B     		cmp	r3, #60
 2840 05b2 40F0F380 		bne	.L146
 750:.\main.c      ****                 switch(LCD_1_rxBuffer[3]){
 2841              		.loc 1 750 0 is_stmt 1
 2842 05b6 2F4B     		ldr	r3, .L407+12
 2843 05b8 DB78     		ldrb	r3, [r3, #3]
 2844 05ba DBB2     		uxtb	r3, r3
 2845 05bc 3B2B     		cmp	r3, #59
 2846 05be 00F0E180 		beq	.L147
 2847 05c2 3B2B     		cmp	r3, #59
 2848 05c4 04DC     		bgt	.L148
 2849 05c6 0F2B     		cmp	r3, #15
 2850 05c8 09D0     		beq	.L149
 2851 05ca 102B     		cmp	r3, #16
 2852 05cc 47D0     		beq	.L150
 2853 05ce E5E0     		b	.L146
 2854              	.L148:
 2855 05d0 432B     		cmp	r3, #67
 2856 05d2 00F0A380 		beq	.L151
 2857 05d6 7E2B     		cmp	r3, #126
 2858 05d8 00F0D880 		beq	.L152
 2859 05dc DEE0     		b	.L146
 2860              	.L149:
ARM GAS  C:\Users\diego\AppData\Local\Temp\ccW8UKJI.s 			page 65


 751:.\main.c      ****                     case 0x0F:                               	//$
 752:.\main.c      **** 					  for(x=0;x<=7;x++){
 2861              		.loc 1 752 0
 2862 05de 0023     		movs	r3, #0
 2863 05e0 87F82F30 		strb	r3, [r7, #47]
 2864 05e4 0AE0     		b	.L153
 2865              	.L154:
 753:.\main.c      **** 					 	rventa1.preset[x]=0;
 2866              		.loc 1 753 0 discriminator 3
 2867 05e6 97F82F30 		ldrb	r3, [r7, #47]	@ zero_extendqisi2
 2868 05ea 254A     		ldr	r2, .L407+24
 2869 05ec 1344     		add	r3, r3, r2
 2870 05ee 0022     		movs	r2, #0
 2871 05f0 DA76     		strb	r2, [r3, #27]
 752:.\main.c      **** 					 	rventa1.preset[x]=0;
 2872              		.loc 1 752 0 discriminator 3
 2873 05f2 97F82F30 		ldrb	r3, [r7, #47]	@ zero_extendqisi2
 2874 05f6 0133     		adds	r3, r3, #1
 2875 05f8 87F82F30 		strb	r3, [r7, #47]
 2876              	.L153:
 752:.\main.c      **** 					 	rventa1.preset[x]=0;
 2877              		.loc 1 752 0 is_stmt 0 discriminator 1
 2878 05fc 97F82F30 		ldrb	r3, [r7, #47]	@ zero_extendqisi2
 2879 0600 072B     		cmp	r3, #7
 2880 0602 F0D9     		bls	.L154
 754:.\main.c      **** 					  }					                      
 755:.\main.c      **** 					  count_teclas1=0;							//Inicia el contador de teclas	
 2881              		.loc 1 755 0 is_stmt 1
 2882 0604 1F4B     		ldr	r3, .L407+28
 2883 0606 0022     		movs	r2, #0
 2884 0608 1A70     		strb	r2, [r3]
 756:.\main.c      **** 					  id_teclado1=1;
 2885              		.loc 1 756 0
 2886 060a 1C4B     		ldr	r3, .L407+20
 2887 060c 0122     		movs	r2, #1
 2888 060e 1A70     		strb	r2, [r3]
 757:.\main.c      **** 					  id_coma1=',';	
 2889              		.loc 1 757 0
 2890 0610 1D4B     		ldr	r3, .L407+32
 2891 0612 2C22     		movs	r2, #44
 2892 0614 1A70     		strb	r2, [r3]
 758:.\main.c      ****                       teclas1=version[1]; 						//cantidad de teclas q puede digitar
 2893              		.loc 1 758 0
 2894 0616 1D4B     		ldr	r3, .L407+36
 2895 0618 5B78     		ldrb	r3, [r3, #1]
 2896 061a DAB2     		uxtb	r2, r3
 2897 061c 1C4B     		ldr	r3, .L407+40
 2898 061e 1A70     		strb	r2, [r3]
 759:.\main.c      **** 					  rventa1.preset[0]=1;
 2899              		.loc 1 759 0
 2900 0620 174B     		ldr	r3, .L407+24
 2901 0622 0122     		movs	r2, #1
 2902 0624 DA76     		strb	r2, [r3, #27]
 760:.\main.c      ****                       comas1=0;									
 2903              		.loc 1 760 0
 2904 0626 1B4B     		ldr	r3, .L407+44
 2905 0628 0022     		movs	r2, #0
ARM GAS  C:\Users\diego\AppData\Local\Temp\ccW8UKJI.s 			page 66


 2906 062a 1A70     		strb	r2, [r3]
 761:.\main.c      ****                       set_imagen(1,6); 
 2907              		.loc 1 761 0
 2908 062c 0120     		movs	r0, #1
 2909 062e 0621     		movs	r1, #6
 2910 0630 FFF7FEFF 		bl	set_imagen
 762:.\main.c      **** 					  posx1=4;
 2911              		.loc 1 762 0
 2912 0634 184B     		ldr	r3, .L407+48
 2913 0636 0422     		movs	r2, #4
 2914 0638 1A80     		strh	r2, [r3]	@ movhi
 763:.\main.c      **** 					  posy1=3;
 2915              		.loc 1 763 0
 2916 063a 184B     		ldr	r3, .L407+52
 2917 063c 0322     		movs	r2, #3
 2918 063e 1A80     		strh	r2, [r3]	@ movhi
 764:.\main.c      **** 					  sizeletra1=1;	
 2919              		.loc 1 764 0
 2920 0640 174B     		ldr	r3, .L407+56
 2921 0642 0122     		movs	r2, #1
 2922 0644 1A80     		strh	r2, [r3]	@ movhi
 765:.\main.c      **** 					  write_LCD(1,'$', 3, 4, 1);
 2923              		.loc 1 765 0
 2924 0646 0123     		movs	r3, #1
 2925 0648 0093     		str	r3, [sp]
 2926 064a 0120     		movs	r0, #1
 2927 064c 2421     		movs	r1, #36
 2928 064e 0322     		movs	r2, #3
 2929 0650 0423     		movs	r3, #4
 2930 0652 FFF7FEFF 		bl	write_LCD
 766:.\main.c      ****                       flujo_LCD1 = 12; 
 2931              		.loc 1 766 0
 2932 0656 064B     		ldr	r3, .L407+8
 2933 0658 0C22     		movs	r2, #12
 2934 065a 1A70     		strb	r2, [r3]
 767:.\main.c      ****                     break;
 2935              		.loc 1 767 0
 2936 065c 9EE0     		b	.L146
 2937              	.L150:
 768:.\main.c      ****                     
 769:.\main.c      ****                     case 0x10: 									//L 
 770:.\main.c      **** 					  for(x=0;x<=7;x++){
 2938              		.loc 1 770 0
 2939 065e 0023     		movs	r3, #0
 2940 0660 87F82F30 		strb	r3, [r7, #47]
 2941 0664 29E0     		b	.L155
 2942              	.L408:
 2943 0666 00BF     		.align	2
 2944              	.L407:
 2945 0668 00000000 		.word	lado1
 2946 066c 00000000 		.word	rf_mod
 2947 0670 00000000 		.word	flujo_LCD1
 2948 0674 00000000 		.word	LCD_1_rxBuffer
 2949 0678 00000000 		.word	tipo_venta
 2950 067c 00000000 		.word	id_teclado1
 2951 0680 00000000 		.word	rventa1
 2952 0684 00000000 		.word	count_teclas1
ARM GAS  C:\Users\diego\AppData\Local\Temp\ccW8UKJI.s 			page 67


 2953 0688 00000000 		.word	id_coma1
 2954 068c 00000000 		.word	version
 2955 0690 00000000 		.word	teclas1
 2956 0694 00000000 		.word	comas1
 2957 0698 00000000 		.word	posx1
 2958 069c 00000000 		.word	posy1
 2959 06a0 00000000 		.word	sizeletra1
 2960              	.L156:
 771:.\main.c      **** 					 	rventa1.preset[x]=0;
 2961              		.loc 1 771 0 discriminator 3
 2962 06a4 97F82F30 		ldrb	r3, [r7, #47]	@ zero_extendqisi2
 2963 06a8 C24A     		ldr	r2, .L409
 2964 06aa 1344     		add	r3, r3, r2
 2965 06ac 0022     		movs	r2, #0
 2966 06ae DA76     		strb	r2, [r3, #27]
 770:.\main.c      **** 					 	rventa1.preset[x]=0;
 2967              		.loc 1 770 0 discriminator 3
 2968 06b0 97F82F30 		ldrb	r3, [r7, #47]	@ zero_extendqisi2
 2969 06b4 0133     		adds	r3, r3, #1
 2970 06b6 87F82F30 		strb	r3, [r7, #47]
 2971              	.L155:
 770:.\main.c      **** 					 	rventa1.preset[x]=0;
 2972              		.loc 1 770 0 is_stmt 0 discriminator 1
 2973 06ba 97F82F30 		ldrb	r3, [r7, #47]	@ zero_extendqisi2
 2974 06be 072B     		cmp	r3, #7
 2975 06c0 F0D9     		bls	.L156
 772:.\main.c      **** 					  }						                      
 773:.\main.c      **** 					  count_teclas1=0;							//Inicia el contador de teclas	
 2976              		.loc 1 773 0 is_stmt 1
 2977 06c2 BD4B     		ldr	r3, .L409+4
 2978 06c4 0022     		movs	r2, #0
 2979 06c6 1A70     		strb	r2, [r3]
 774:.\main.c      **** 					  id_teclado1=1;
 2980              		.loc 1 774 0
 2981 06c8 BC4B     		ldr	r3, .L409+8
 2982 06ca 0122     		movs	r2, #1
 2983 06cc 1A70     		strb	r2, [r3]
 775:.\main.c      **** 					  id_coma1=',';	
 2984              		.loc 1 775 0
 2985 06ce BC4B     		ldr	r3, .L409+12
 2986 06d0 2C22     		movs	r2, #44
 2987 06d2 1A70     		strb	r2, [r3]
 776:.\main.c      ****                       teclas1=version[1]; 
 2988              		.loc 1 776 0
 2989 06d4 BB4B     		ldr	r3, .L409+16
 2990 06d6 5B78     		ldrb	r3, [r3, #1]
 2991 06d8 DAB2     		uxtb	r2, r3
 2992 06da BB4B     		ldr	r3, .L409+20
 2993 06dc 1A70     		strb	r2, [r3]
 777:.\main.c      **** 					  rventa1.preset[0]=2;
 2994              		.loc 1 777 0
 2995 06de B54B     		ldr	r3, .L409
 2996 06e0 0222     		movs	r2, #2
 2997 06e2 DA76     		strb	r2, [r3, #27]
 778:.\main.c      ****                       comas1=0;									
 2998              		.loc 1 778 0
 2999 06e4 B94B     		ldr	r3, .L409+24
ARM GAS  C:\Users\diego\AppData\Local\Temp\ccW8UKJI.s 			page 68


 3000 06e6 0022     		movs	r2, #0
 3001 06e8 1A70     		strb	r2, [r3]
 779:.\main.c      ****                       set_imagen(1,13); 
 3002              		.loc 1 779 0
 3003 06ea 0120     		movs	r0, #1
 3004 06ec 0D21     		movs	r1, #13
 3005 06ee FFF7FEFF 		bl	set_imagen
 780:.\main.c      **** 					  posx1=4;
 3006              		.loc 1 780 0
 3007 06f2 B74B     		ldr	r3, .L409+28
 3008 06f4 0422     		movs	r2, #4
 3009 06f6 1A80     		strh	r2, [r3]	@ movhi
 781:.\main.c      **** 					  posy1=3;
 3010              		.loc 1 781 0
 3011 06f8 B64B     		ldr	r3, .L409+32
 3012 06fa 0322     		movs	r2, #3
 3013 06fc 1A80     		strh	r2, [r3]	@ movhi
 782:.\main.c      **** 					  sizeletra1=1;					
 3014              		.loc 1 782 0
 3015 06fe B64B     		ldr	r3, .L409+36
 3016 0700 0122     		movs	r2, #1
 3017 0702 1A80     		strh	r2, [r3]	@ movhi
 783:.\main.c      **** 					  write_LCD(1,'L', 3, 4, 1);
 3018              		.loc 1 783 0
 3019 0704 0123     		movs	r3, #1
 3020 0706 0093     		str	r3, [sp]
 3021 0708 0120     		movs	r0, #1
 3022 070a 4C21     		movs	r1, #76
 3023 070c 0322     		movs	r2, #3
 3024 070e 0423     		movs	r3, #4
 3025 0710 FFF7FEFF 		bl	write_LCD
 784:.\main.c      ****                       flujo_LCD1=12; 
 3026              		.loc 1 784 0
 3027 0714 B14B     		ldr	r3, .L409+40
 3028 0716 0C22     		movs	r2, #12
 3029 0718 1A70     		strb	r2, [r3]
 785:.\main.c      ****                     break;
 3030              		.loc 1 785 0
 3031 071a 3FE0     		b	.L146
 3032              	.L151:
 786:.\main.c      ****                     
 787:.\main.c      ****                     case 0x43:  								//Full 
 788:.\main.c      **** 					  for(x=0;x<=7;x++){
 3033              		.loc 1 788 0
 3034 071c 0023     		movs	r3, #0
 3035 071e 87F82F30 		strb	r3, [r7, #47]
 3036 0722 0AE0     		b	.L157
 3037              	.L158:
 789:.\main.c      **** 					 	rventa1.preset[x]=0;
 3038              		.loc 1 789 0 discriminator 3
 3039 0724 97F82F30 		ldrb	r3, [r7, #47]	@ zero_extendqisi2
 3040 0728 A24A     		ldr	r2, .L409
 3041 072a 1344     		add	r3, r3, r2
 3042 072c 0022     		movs	r2, #0
 3043 072e DA76     		strb	r2, [r3, #27]
 788:.\main.c      **** 					 	rventa1.preset[x]=0;
 3044              		.loc 1 788 0 discriminator 3
ARM GAS  C:\Users\diego\AppData\Local\Temp\ccW8UKJI.s 			page 69


 3045 0730 97F82F30 		ldrb	r3, [r7, #47]	@ zero_extendqisi2
 3046 0734 0133     		adds	r3, r3, #1
 3047 0736 87F82F30 		strb	r3, [r7, #47]
 3048              	.L157:
 788:.\main.c      **** 					 	rventa1.preset[x]=0;
 3049              		.loc 1 788 0 is_stmt 0 discriminator 1
 3050 073a 97F82F30 		ldrb	r3, [r7, #47]	@ zero_extendqisi2
 3051 073e 072B     		cmp	r3, #7
 3052 0740 F0D9     		bls	.L158
 790:.\main.c      **** 					  }
 791:.\main.c      ****                       rventa1.preset[0]=3;					
 3053              		.loc 1 791 0 is_stmt 1
 3054 0742 9C4B     		ldr	r3, .L409
 3055 0744 0322     		movs	r2, #3
 3056 0746 DA76     		strb	r2, [r3, #27]
 792:.\main.c      **** 					  for(x=5;x<=7;x++){
 3057              		.loc 1 792 0
 3058 0748 0523     		movs	r3, #5
 3059 074a 87F82F30 		strb	r3, [r7, #47]
 3060 074e 0AE0     		b	.L159
 3061              	.L160:
 793:.\main.c      **** 						rventa1.preset[x]=9;		
 3062              		.loc 1 793 0 discriminator 3
 3063 0750 97F82F30 		ldrb	r3, [r7, #47]	@ zero_extendqisi2
 3064 0754 974A     		ldr	r2, .L409
 3065 0756 1344     		add	r3, r3, r2
 3066 0758 0922     		movs	r2, #9
 3067 075a DA76     		strb	r2, [r3, #27]
 792:.\main.c      **** 					  for(x=5;x<=7;x++){
 3068              		.loc 1 792 0 discriminator 3
 3069 075c 97F82F30 		ldrb	r3, [r7, #47]	@ zero_extendqisi2
 3070 0760 0133     		adds	r3, r3, #1
 3071 0762 87F82F30 		strb	r3, [r7, #47]
 3072              	.L159:
 792:.\main.c      **** 					  for(x=5;x<=7;x++){
 3073              		.loc 1 792 0 is_stmt 0 discriminator 1
 3074 0766 97F82F30 		ldrb	r3, [r7, #47]	@ zero_extendqisi2
 3075 076a 072B     		cmp	r3, #7
 3076 076c F0D9     		bls	.L160
 794:.\main.c      **** 					  }								                                     
 795:.\main.c      **** 		              set_imagen(1,7);
 3077              		.loc 1 795 0 is_stmt 1
 3078 076e 0120     		movs	r0, #1
 3079 0770 0721     		movs	r1, #7
 3080 0772 FFF7FEFF 		bl	set_imagen
 796:.\main.c      **** 					  lado1.estado=espera;
 3081              		.loc 1 796 0
 3082 0776 9A4B     		ldr	r3, .L409+44
 3083 0778 0222     		movs	r2, #2
 3084 077a 5A70     		strb	r2, [r3, #1]
 797:.\main.c      ****                       flujo_LCD1 = 6;  
 3085              		.loc 1 797 0
 3086 077c 974B     		ldr	r3, .L409+40
 3087 077e 0622     		movs	r2, #6
 3088 0780 1A70     		strb	r2, [r3]
 798:.\main.c      ****                     break;
 3089              		.loc 1 798 0
ARM GAS  C:\Users\diego\AppData\Local\Temp\ccW8UKJI.s 			page 70


 3090 0782 0BE0     		b	.L146
 3091              	.L147:
 799:.\main.c      ****                     
 800:.\main.c      ****                     case 0x3B:                                //Cancel                     
 801:.\main.c      ****                       flujo_LCD1=0;
 3092              		.loc 1 801 0
 3093 0784 954B     		ldr	r3, .L409+40
 3094 0786 0022     		movs	r2, #0
 3095 0788 1A70     		strb	r2, [r3]
 802:.\main.c      ****                     break;     
 3096              		.loc 1 802 0
 3097 078a 07E0     		b	.L146
 3098              	.L152:
 803:.\main.c      ****                     
 804:.\main.c      ****                     case 0x7E:                                //Símbolo de inicio                 
 805:.\main.c      ****                         set_imagen(1,74);	
 3099              		.loc 1 805 0
 3100 078c 0120     		movs	r0, #1
 3101 078e 4A21     		movs	r1, #74
 3102 0790 FFF7FEFF 		bl	set_imagen
 806:.\main.c      ****                         flujo_LCD1=0;
 3103              		.loc 1 806 0
 3104 0794 914B     		ldr	r3, .L409+40
 3105 0796 0022     		movs	r2, #0
 3106 0798 1A70     		strb	r2, [r3]
 807:.\main.c      ****                     break;
 3107              		.loc 1 807 0
 3108 079a 00BF     		nop
 3109              	.L146:
 808:.\main.c      ****                 }
 809:.\main.c      ****             }
 810:.\main.c      ****             CyDelay(100);            
 3110              		.loc 1 810 0
 3111 079c 6420     		movs	r0, #100
 3112 079e FFF7FEFF 		bl	CyDelay
 811:.\main.c      ****             LCD_1_ClearRxBuffer();
 3113              		.loc 1 811 0
 3114 07a2 FFF7FEFF 		bl	LCD_1_ClearRxBuffer
 812:.\main.c      ****          } 
 813:.\main.c      ****         break;
 3115              		.loc 1 813 0
 3116 07a6 02F0B4B9 		b	.L92
 3117              	.L145:
 3118              		.loc 1 813 0 is_stmt 0 discriminator 4
 3119 07aa 02F0B2B9 		b	.L92
 3120              	.L100:
 814:.\main.c      ****         
 815:.\main.c      ****         case 5:
 816:.\main.c      **** 		 CyDelay(50);
 3121              		.loc 1 816 0 is_stmt 1
 3122 07ae 3220     		movs	r0, #50
 3123 07b0 FFF7FEFF 		bl	CyDelay
 817:.\main.c      ****          if(LCD_1_GetRxBufferSize()==8){
 3124              		.loc 1 817 0
 3125 07b4 FFF7FEFF 		bl	LCD_1_GetRxBufferSize
 3126 07b8 0346     		mov	r3, r0
 3127 07ba 082B     		cmp	r3, #8
ARM GAS  C:\Users\diego\AppData\Local\Temp\ccW8UKJI.s 			page 71


 3128 07bc 1AD1     		bne	.L161
 818:.\main.c      ****             if((LCD_1_rxBuffer[0]==0xAA) && (LCD_1_rxBuffer[6]==0xC3) && (LCD_1_rxBuffer[7]==0x3C))
 3129              		.loc 1 818 0
 3130 07be 894B     		ldr	r3, .L409+48
 3131 07c0 1B78     		ldrb	r3, [r3]
 3132 07c2 DBB2     		uxtb	r3, r3
 3133 07c4 AA2B     		cmp	r3, #170
 3134 07c6 11D1     		bne	.L162
 3135              		.loc 1 818 0 is_stmt 0 discriminator 1
 3136 07c8 864B     		ldr	r3, .L409+48
 3137 07ca 9B79     		ldrb	r3, [r3, #6]
 3138 07cc DBB2     		uxtb	r3, r3
 3139 07ce C32B     		cmp	r3, #195
 3140 07d0 0CD1     		bne	.L162
 3141              		.loc 1 818 0 discriminator 2
 3142 07d2 844B     		ldr	r3, .L409+48
 3143 07d4 DB79     		ldrb	r3, [r3, #7]
 3144 07d6 DBB2     		uxtb	r3, r3
 3145 07d8 3C2B     		cmp	r3, #60
 3146 07da 07D1     		bne	.L162
 819:.\main.c      ****                 if(LCD_1_rxBuffer[3]==0x7E){					//Cancel
 3147              		.loc 1 819 0 is_stmt 1
 3148 07dc 814B     		ldr	r3, .L409+48
 3149 07de DB78     		ldrb	r3, [r3, #3]
 3150 07e0 DBB2     		uxtb	r3, r3
 3151 07e2 7E2B     		cmp	r3, #126
 3152 07e4 02D1     		bne	.L162
 820:.\main.c      **** 					flujo_LCD1=0;
 3153              		.loc 1 820 0
 3154 07e6 7D4B     		ldr	r3, .L409+40
 3155 07e8 0022     		movs	r2, #0
 3156 07ea 1A70     		strb	r2, [r3]
 3157              	.L162:
 821:.\main.c      ****                 }												
 822:.\main.c      **** 			}                       
 823:.\main.c      ****             LCD_1_ClearRxBuffer();
 3158              		.loc 1 823 0
 3159 07ec FFF7FEFF 		bl	LCD_1_ClearRxBuffer
 824:.\main.c      **** 			break;
 3160              		.loc 1 824 0
 3161 07f0 02F08FB9 		b	.L92
 3162              	.L161:
 825:.\main.c      **** 		 }
 826:.\main.c      ****          x=get_estado(lado1.dir);
 3163              		.loc 1 826 0
 3164 07f4 7A4B     		ldr	r3, .L409+44
 3165 07f6 1B78     		ldrb	r3, [r3]
 3166 07f8 DBB2     		uxtb	r3, r3
 3167 07fa 1846     		mov	r0, r3
 3168 07fc FFF7FEFF 		bl	get_estado
 3169 0800 0346     		mov	r3, r0
 3170 0802 87F82F30 		strb	r3, [r7, #47]
 827:.\main.c      ****          if(x==7){								//Espera a que este en listo el equipo	
 3171              		.loc 1 827 0
 3172 0806 97F82F30 		ldrb	r3, [r7, #47]	@ zero_extendqisi2
 3173 080a 072B     		cmp	r3, #7
 3174 080c 06D1     		bne	.L163
ARM GAS  C:\Users\diego\AppData\Local\Temp\ccW8UKJI.s 			page 72


 828:.\main.c      **** 			flujo_LCD1=6;
 3175              		.loc 1 828 0
 3176 080e 734B     		ldr	r3, .L409+40
 3177 0810 0622     		movs	r2, #6
 3178 0812 1A70     		strb	r2, [r3]
 829:.\main.c      ****             CyDelay(50);
 3179              		.loc 1 829 0
 3180 0814 3220     		movs	r0, #50
 3181 0816 FFF7FEFF 		bl	CyDelay
 3182 081a 2CE0     		b	.L164
 3183              	.L163:
 830:.\main.c      ****          }
 831:.\main.c      ****          else if(x==0){
 3184              		.loc 1 831 0
 3185 081c 97F82F30 		ldrb	r3, [r7, #47]	@ zero_extendqisi2
 3186 0820 002B     		cmp	r3, #0
 3187 0822 0ED1     		bne	.L165
 832:.\main.c      **** 			CyDelay(50);
 3188              		.loc 1 832 0
 3189 0824 3220     		movs	r0, #50
 3190 0826 FFF7FEFF 		bl	CyDelay
 833:.\main.c      **** 			programar(lado1.dir,1,aux,2);
 3191              		.loc 1 833 0
 3192 082a 6D4B     		ldr	r3, .L409+44
 3193 082c 1B78     		ldrb	r3, [r3]
 3194 082e DAB2     		uxtb	r2, r3
 3195 0830 07F11403 		add	r3, r7, #20
 3196 0834 1046     		mov	r0, r2
 3197 0836 0121     		movs	r1, #1
 3198 0838 1A46     		mov	r2, r3
 3199 083a 0223     		movs	r3, #2
 3200 083c FFF7FEFF 		bl	programar
 3201 0840 19E0     		b	.L164
 3202              	.L165:
 834:.\main.c      ****          }
 835:.\main.c      ****          else if(x==0x0C){
 3203              		.loc 1 835 0
 3204 0842 97F82F30 		ldrb	r3, [r7, #47]	@ zero_extendqisi2
 3205 0846 0C2B     		cmp	r3, #12
 3206 0848 04D1     		bne	.L166
 836:.\main.c      ****             error_op(1,85);
 3207              		.loc 1 836 0
 3208 084a 0120     		movs	r0, #1
 3209 084c 5521     		movs	r1, #85
 3210 084e FFF7FEFF 		bl	error_op
 3211 0852 10E0     		b	.L164
 3212              	.L166:
 837:.\main.c      ****          }
 838:.\main.c      **** 		 else if(x==0x0B){                   //Termino venta
 3213              		.loc 1 838 0
 3214 0854 97F82F30 		ldrb	r3, [r7, #47]	@ zero_extendqisi2
 3215 0858 0B2B     		cmp	r3, #11
 3216 085a 03D1     		bne	.L167
 839:.\main.c      **** 			flujo_LCD1=13;
 3217              		.loc 1 839 0
 3218 085c 5F4B     		ldr	r3, .L409+40
 3219 085e 0D22     		movs	r2, #13
ARM GAS  C:\Users\diego\AppData\Local\Temp\ccW8UKJI.s 			page 73


 3220 0860 1A70     		strb	r2, [r3]
 3221 0862 08E0     		b	.L164
 3222              	.L167:
 840:.\main.c      ****          }						
 841:.\main.c      **** 		 else if(x==0x0A){					//Termino venta
 3223              		.loc 1 841 0
 3224 0864 97F82F30 		ldrb	r3, [r7, #47]	@ zero_extendqisi2
 3225 0868 0A2B     		cmp	r3, #10
 3226 086a 04D1     		bne	.L164
 842:.\main.c      **** 			flujo_LCD1=13;
 3227              		.loc 1 842 0
 3228 086c 5B4B     		ldr	r3, .L409+40
 3229 086e 0D22     		movs	r2, #13
 3230 0870 1A70     		strb	r2, [r3]
 843:.\main.c      **** 		 }        
 844:.\main.c      ****         break;
 3231              		.loc 1 844 0
 3232 0872 02F04EB9 		b	.L92
 3233              	.L164:
 3234              		.loc 1 844 0 is_stmt 0 discriminator 5
 3235 0876 02F04CB9 		b	.L92
 3236              	.L101:
 845:.\main.c      ****         
 846:.\main.c      ****         case 6:
 847:.\main.c      **** 		 CyDelay(10);
 3237              		.loc 1 847 0 is_stmt 1
 3238 087a 0A20     		movs	r0, #10
 3239 087c FFF7FEFF 		bl	CyDelay
 848:.\main.c      **** 		 rventa1.manguera=estado_ex(lado1.dir);
 3240              		.loc 1 848 0
 3241 0880 574B     		ldr	r3, .L409+44
 3242 0882 1B78     		ldrb	r3, [r3]
 3243 0884 DBB2     		uxtb	r3, r3
 3244 0886 1846     		mov	r0, r3
 3245 0888 FFF7FEFF 		bl	estado_ex
 3246 088c 0346     		mov	r3, r0
 3247 088e 1A46     		mov	r2, r3
 3248 0890 484B     		ldr	r3, .L409
 3249 0892 9A76     		strb	r2, [r3, #26]
 849:.\main.c      **** 		 if(rventa1.manguera!=0){			 
 3250              		.loc 1 849 0
 3251 0894 474B     		ldr	r3, .L409
 3252 0896 9B7E     		ldrb	r3, [r3, #26]	@ zero_extendqisi2
 3253 0898 002B     		cmp	r3, #0
 3254 089a 1AD0     		beq	.L168
 850:.\main.c      ****             CyDelay(20);            
 3255              		.loc 1 850 0
 3256 089c 1420     		movs	r0, #20
 3257 089e FFF7FEFF 		bl	CyDelay
 851:.\main.c      **** 		    if(get_estado(lado1.dir)==7){     			    
 3258              		.loc 1 851 0
 3259 08a2 4F4B     		ldr	r3, .L409+44
 3260 08a4 1B78     		ldrb	r3, [r3]
 3261 08a6 DBB2     		uxtb	r3, r3
 3262 08a8 1846     		mov	r0, r3
 3263 08aa FFF7FEFF 		bl	get_estado
 3264 08ae 0346     		mov	r3, r0
ARM GAS  C:\Users\diego\AppData\Local\Temp\ccW8UKJI.s 			page 74


 3265 08b0 072B     		cmp	r3, #7
 3266 08b2 0ED1     		bne	.L168
 852:.\main.c      ****                 timeout_autorizacion=0;
 3267              		.loc 1 852 0
 3268 08b4 4C4B     		ldr	r3, .L409+52
 3269 08b6 0022     		movs	r2, #0
 3270 08b8 1A80     		strh	r2, [r3]	@ movhi
 853:.\main.c      **** 			    lado1.estado=listo;
 3271              		.loc 1 853 0
 3272 08ba 494B     		ldr	r3, .L409+44
 3273 08bc 0422     		movs	r2, #4
 3274 08be 5A70     		strb	r2, [r3, #1]
 854:.\main.c      ****                 set_imagen(1,57);                                
 3275              		.loc 1 854 0
 3276 08c0 0120     		movs	r0, #1
 3277 08c2 3921     		movs	r1, #57
 3278 08c4 FFF7FEFF 		bl	set_imagen
 855:.\main.c      ****                 flujo_LCD1 = 9;
 3279              		.loc 1 855 0
 3280 08c8 444B     		ldr	r3, .L409+40
 3281 08ca 0922     		movs	r2, #9
 3282 08cc 1A70     		strb	r2, [r3]
 856:.\main.c      **** 		    }
 857:.\main.c      **** 		 }
 858:.\main.c      **** 		break;
 3283              		.loc 1 858 0
 3284 08ce 02F020B9 		b	.L92
 3285              	.L168:
 3286              		.loc 1 858 0 is_stmt 0 discriminator 6
 3287 08d2 02F01EB9 		b	.L92
 3288              	.L102:
 859:.\main.c      ****         
 860:.\main.c      ****         case 8:        
 861:.\main.c      **** 		 CyDelay(50);
 3289              		.loc 1 861 0 is_stmt 1
 3290 08d6 3220     		movs	r0, #50
 3291 08d8 FFF7FEFF 		bl	CyDelay
 862:.\main.c      **** 		 switch(get_estado(lado1.dir)){
 3292              		.loc 1 862 0
 3293 08dc 404B     		ldr	r3, .L409+44
 3294 08de 1B78     		ldrb	r3, [r3]
 3295 08e0 DBB2     		uxtb	r3, r3
 3296 08e2 1846     		mov	r0, r3
 3297 08e4 FFF7FEFF 		bl	get_estado
 3298 08e8 0346     		mov	r3, r0
 3299 08ea 0A2B     		cmp	r3, #10
 3300 08ec 33D0     		beq	.L170
 3301 08ee 0B2B     		cmp	r3, #11
 3302 08f0 03D0     		beq	.L171
 3303 08f2 062B     		cmp	r3, #6
 3304 08f4 5AD0     		beq	.L172
 863:.\main.c      **** 	         case 0x0B:                     //Termino venta
 864:.\main.c      **** 				CyDelay(100);
 865:.\main.c      **** 				for(x=0;x<=8;x++){
 866:.\main.c      **** 					rventa1.dinero[x]=0;
 867:.\main.c      **** 					rventa1.volumen[x]=0;
 868:.\main.c      **** 				}					
ARM GAS  C:\Users\diego\AppData\Local\Temp\ccW8UKJI.s 			page 75


 869:.\main.c      **** 				if(venta(lado1.dir)==1){
 870:.\main.c      **** 					flujo_LCD1 = 13;
 871:.\main.c      **** 					set_imagen(1,57);
 872:.\main.c      **** 				}	
 873:.\main.c      **** 			 break;	
 874:.\main.c      **** 				
 875:.\main.c      **** 	         case 0x0A:						//Termino venta
 876:.\main.c      **** 				for(x=0;x<=8;x++){
 877:.\main.c      **** 					rventa1.dinero[x]=0;
 878:.\main.c      **** 					rventa1.volumen[x]=0;
 879:.\main.c      **** 				}				
 880:.\main.c      **** 				if(venta(lado1.dir)==1){
 881:.\main.c      **** 					flujo_LCD1 = 13;
 882:.\main.c      **** 					set_imagen(1,57);
 883:.\main.c      **** 				}	
 884:.\main.c      **** 			 break;
 885:.\main.c      **** 
 886:.\main.c      **** 	         case 0x06:                     //No hizo venta
 887:.\main.c      **** 				for(x=0;x<=8;x++){
 888:.\main.c      **** 					rventa1.dinero[x]=0;
 889:.\main.c      **** 					rventa1.volumen[x]=0;
 890:.\main.c      **** 				}
 891:.\main.c      **** 				for(x=0;x<=4;x++){
 892:.\main.c      **** 					rventa1.ppu[x]=0;
 893:.\main.c      **** 				}				
 894:.\main.c      **** 				flujo_LCD1 = 13;
 895:.\main.c      **** 				set_imagen(1,57);		
 896:.\main.c      **** 			 break;				 	
 897:.\main.c      ****          }		 	
 898:.\main.c      **** 		break;
 3305              		.loc 1 898 0
 3306 08f6 02F00CB9 		b	.L92
 3307              	.L171:
 864:.\main.c      **** 				for(x=0;x<=8;x++){
 3308              		.loc 1 864 0
 3309 08fa 6420     		movs	r0, #100
 3310 08fc FFF7FEFF 		bl	CyDelay
 865:.\main.c      **** 					rventa1.dinero[x]=0;
 3311              		.loc 1 865 0
 3312 0900 0023     		movs	r3, #0
 3313 0902 87F82F30 		strb	r3, [r7, #47]
 3314 0906 10E0     		b	.L173
 3315              	.L174:
 866:.\main.c      **** 					rventa1.volumen[x]=0;
 3316              		.loc 1 866 0 discriminator 3
 3317 0908 97F82F30 		ldrb	r3, [r7, #47]	@ zero_extendqisi2
 3318 090c 294A     		ldr	r2, .L409
 3319 090e 1344     		add	r3, r3, r2
 3320 0910 0022     		movs	r2, #0
 3321 0912 DA71     		strb	r2, [r3, #7]
 867:.\main.c      **** 				}					
 3322              		.loc 1 867 0 discriminator 3
 3323 0914 97F82F30 		ldrb	r3, [r7, #47]	@ zero_extendqisi2
 3324 0918 264A     		ldr	r2, .L409
 3325 091a 1344     		add	r3, r3, r2
 3326 091c 0022     		movs	r2, #0
 3327 091e 1A74     		strb	r2, [r3, #16]
ARM GAS  C:\Users\diego\AppData\Local\Temp\ccW8UKJI.s 			page 76


 865:.\main.c      **** 					rventa1.dinero[x]=0;
 3328              		.loc 1 865 0 discriminator 3
 3329 0920 97F82F30 		ldrb	r3, [r7, #47]	@ zero_extendqisi2
 3330 0924 0133     		adds	r3, r3, #1
 3331 0926 87F82F30 		strb	r3, [r7, #47]
 3332              	.L173:
 865:.\main.c      **** 					rventa1.dinero[x]=0;
 3333              		.loc 1 865 0 is_stmt 0 discriminator 1
 3334 092a 97F82F30 		ldrb	r3, [r7, #47]	@ zero_extendqisi2
 3335 092e 082B     		cmp	r3, #8
 3336 0930 EAD9     		bls	.L174
 869:.\main.c      **** 					flujo_LCD1 = 13;
 3337              		.loc 1 869 0 is_stmt 1
 3338 0932 2B4B     		ldr	r3, .L409+44
 3339 0934 1B78     		ldrb	r3, [r3]
 3340 0936 DBB2     		uxtb	r3, r3
 3341 0938 1846     		mov	r0, r3
 3342 093a FFF7FEFF 		bl	venta
 3343 093e 0346     		mov	r3, r0
 3344 0940 012B     		cmp	r3, #1
 3345 0942 07D1     		bne	.L175
 870:.\main.c      **** 					set_imagen(1,57);
 3346              		.loc 1 870 0
 3347 0944 254B     		ldr	r3, .L409+40
 3348 0946 0D22     		movs	r2, #13
 3349 0948 1A70     		strb	r2, [r3]
 871:.\main.c      **** 				}	
 3350              		.loc 1 871 0
 3351 094a 0120     		movs	r0, #1
 3352 094c 3921     		movs	r1, #57
 3353 094e FFF7FEFF 		bl	set_imagen
 873:.\main.c      **** 				
 3354              		.loc 1 873 0
 3355 0952 7BE0     		b	.L169
 3356              	.L175:
 3357 0954 7AE0     		b	.L169
 3358              	.L170:
 876:.\main.c      **** 					rventa1.dinero[x]=0;
 3359              		.loc 1 876 0
 3360 0956 0023     		movs	r3, #0
 3361 0958 87F82F30 		strb	r3, [r7, #47]
 3362 095c 10E0     		b	.L176
 3363              	.L177:
 877:.\main.c      **** 					rventa1.volumen[x]=0;
 3364              		.loc 1 877 0 discriminator 3
 3365 095e 97F82F30 		ldrb	r3, [r7, #47]	@ zero_extendqisi2
 3366 0962 144A     		ldr	r2, .L409
 3367 0964 1344     		add	r3, r3, r2
 3368 0966 0022     		movs	r2, #0
 3369 0968 DA71     		strb	r2, [r3, #7]
 878:.\main.c      **** 				}				
 3370              		.loc 1 878 0 discriminator 3
 3371 096a 97F82F30 		ldrb	r3, [r7, #47]	@ zero_extendqisi2
 3372 096e 114A     		ldr	r2, .L409
 3373 0970 1344     		add	r3, r3, r2
 3374 0972 0022     		movs	r2, #0
 3375 0974 1A74     		strb	r2, [r3, #16]
ARM GAS  C:\Users\diego\AppData\Local\Temp\ccW8UKJI.s 			page 77


 876:.\main.c      **** 					rventa1.dinero[x]=0;
 3376              		.loc 1 876 0 discriminator 3
 3377 0976 97F82F30 		ldrb	r3, [r7, #47]	@ zero_extendqisi2
 3378 097a 0133     		adds	r3, r3, #1
 3379 097c 87F82F30 		strb	r3, [r7, #47]
 3380              	.L176:
 876:.\main.c      **** 					rventa1.dinero[x]=0;
 3381              		.loc 1 876 0 is_stmt 0 discriminator 1
 3382 0980 97F82F30 		ldrb	r3, [r7, #47]	@ zero_extendqisi2
 3383 0984 082B     		cmp	r3, #8
 3384 0986 EAD9     		bls	.L177
 880:.\main.c      **** 					flujo_LCD1 = 13;
 3385              		.loc 1 880 0 is_stmt 1
 3386 0988 154B     		ldr	r3, .L409+44
 3387 098a 1B78     		ldrb	r3, [r3]
 3388 098c DBB2     		uxtb	r3, r3
 3389 098e 1846     		mov	r0, r3
 3390 0990 FFF7FEFF 		bl	venta
 3391 0994 0346     		mov	r3, r0
 3392 0996 012B     		cmp	r3, #1
 3393 0998 07D1     		bne	.L178
 881:.\main.c      **** 					set_imagen(1,57);
 3394              		.loc 1 881 0
 3395 099a 104B     		ldr	r3, .L409+40
 3396 099c 0D22     		movs	r2, #13
 3397 099e 1A70     		strb	r2, [r3]
 882:.\main.c      **** 				}	
 3398              		.loc 1 882 0
 3399 09a0 0120     		movs	r0, #1
 3400 09a2 3921     		movs	r1, #57
 3401 09a4 FFF7FEFF 		bl	set_imagen
 884:.\main.c      **** 
 3402              		.loc 1 884 0
 3403 09a8 50E0     		b	.L169
 3404              	.L178:
 884:.\main.c      **** 
 3405              		.loc 1 884 0 is_stmt 0 discriminator 8
 3406 09aa 4FE0     		b	.L169
 3407              	.L172:
 887:.\main.c      **** 					rventa1.dinero[x]=0;
 3408              		.loc 1 887 0 is_stmt 1
 3409 09ac 0023     		movs	r3, #0
 3410 09ae 87F82F30 		strb	r3, [r7, #47]
 3411 09b2 2CE0     		b	.L179
 3412              	.L410:
 3413              		.align	2
 3414              	.L409:
 3415 09b4 00000000 		.word	rventa1
 3416 09b8 00000000 		.word	count_teclas1
 3417 09bc 00000000 		.word	id_teclado1
 3418 09c0 00000000 		.word	id_coma1
 3419 09c4 00000000 		.word	version
 3420 09c8 00000000 		.word	teclas1
 3421 09cc 00000000 		.word	comas1
 3422 09d0 00000000 		.word	posx1
 3423 09d4 00000000 		.word	posy1
 3424 09d8 00000000 		.word	sizeletra1
ARM GAS  C:\Users\diego\AppData\Local\Temp\ccW8UKJI.s 			page 78


 3425 09dc 00000000 		.word	flujo_LCD1
 3426 09e0 00000000 		.word	lado1
 3427 09e4 00000000 		.word	LCD_1_rxBuffer
 3428 09e8 00000000 		.word	timeout_autorizacion
 3429              	.L180:
 888:.\main.c      **** 					rventa1.volumen[x]=0;
 3430              		.loc 1 888 0 discriminator 3
 3431 09ec 97F82F30 		ldrb	r3, [r7, #47]	@ zero_extendqisi2
 3432 09f0 454A     		ldr	r2, .L411
 3433 09f2 1344     		add	r3, r3, r2
 3434 09f4 0022     		movs	r2, #0
 3435 09f6 DA71     		strb	r2, [r3, #7]
 889:.\main.c      **** 				}
 3436              		.loc 1 889 0 discriminator 3
 3437 09f8 97F82F30 		ldrb	r3, [r7, #47]	@ zero_extendqisi2
 3438 09fc 424A     		ldr	r2, .L411
 3439 09fe 1344     		add	r3, r3, r2
 3440 0a00 0022     		movs	r2, #0
 3441 0a02 1A74     		strb	r2, [r3, #16]
 887:.\main.c      **** 					rventa1.dinero[x]=0;
 3442              		.loc 1 887 0 discriminator 3
 3443 0a04 97F82F30 		ldrb	r3, [r7, #47]	@ zero_extendqisi2
 3444 0a08 0133     		adds	r3, r3, #1
 3445 0a0a 87F82F30 		strb	r3, [r7, #47]
 3446              	.L179:
 887:.\main.c      **** 					rventa1.dinero[x]=0;
 3447              		.loc 1 887 0 is_stmt 0 discriminator 1
 3448 0a0e 97F82F30 		ldrb	r3, [r7, #47]	@ zero_extendqisi2
 3449 0a12 082B     		cmp	r3, #8
 3450 0a14 EAD9     		bls	.L180
 891:.\main.c      **** 					rventa1.ppu[x]=0;
 3451              		.loc 1 891 0 is_stmt 1
 3452 0a16 0023     		movs	r3, #0
 3453 0a18 87F82F30 		strb	r3, [r7, #47]
 3454 0a1c 0AE0     		b	.L181
 3455              	.L182:
 892:.\main.c      **** 				}				
 3456              		.loc 1 892 0 discriminator 3
 3457 0a1e 97F82F30 		ldrb	r3, [r7, #47]	@ zero_extendqisi2
 3458 0a22 394A     		ldr	r2, .L411
 3459 0a24 1344     		add	r3, r3, r2
 3460 0a26 0022     		movs	r2, #0
 3461 0a28 9A70     		strb	r2, [r3, #2]
 891:.\main.c      **** 					rventa1.ppu[x]=0;
 3462              		.loc 1 891 0 discriminator 3
 3463 0a2a 97F82F30 		ldrb	r3, [r7, #47]	@ zero_extendqisi2
 3464 0a2e 0133     		adds	r3, r3, #1
 3465 0a30 87F82F30 		strb	r3, [r7, #47]
 3466              	.L181:
 891:.\main.c      **** 					rventa1.ppu[x]=0;
 3467              		.loc 1 891 0 is_stmt 0 discriminator 1
 3468 0a34 97F82F30 		ldrb	r3, [r7, #47]	@ zero_extendqisi2
 3469 0a38 042B     		cmp	r3, #4
 3470 0a3a F0D9     		bls	.L182
 894:.\main.c      **** 				set_imagen(1,57);		
 3471              		.loc 1 894 0 is_stmt 1
 3472 0a3c 334B     		ldr	r3, .L411+4
ARM GAS  C:\Users\diego\AppData\Local\Temp\ccW8UKJI.s 			page 79


 3473 0a3e 0D22     		movs	r2, #13
 3474 0a40 1A70     		strb	r2, [r3]
 895:.\main.c      **** 			 break;				 	
 3475              		.loc 1 895 0
 3476 0a42 0120     		movs	r0, #1
 3477 0a44 3921     		movs	r1, #57
 3478 0a46 FFF7FEFF 		bl	set_imagen
 896:.\main.c      ****          }		 	
 3479              		.loc 1 896 0
 3480 0a4a 00BF     		nop
 3481              	.L169:
 3482              		.loc 1 898 0 discriminator 7
 3483 0a4c 02F061B8 		b	.L92
 3484              	.L103:
 899:.\main.c      ****         
 900:.\main.c      ****         case 9:
 901:.\main.c      **** 			rf_mod[0]='M';
 3485              		.loc 1 901 0
 3486 0a50 2F4B     		ldr	r3, .L411+8
 3487 0a52 4D22     		movs	r2, #77
 3488 0a54 1A70     		strb	r2, [r3]
 902:.\main.c      **** 			rf_mod[1]='U';
 3489              		.loc 1 902 0
 3490 0a56 2E4B     		ldr	r3, .L411+8
 3491 0a58 5522     		movs	r2, #85
 3492 0a5a 5A70     		strb	r2, [r3, #1]
 903:.\main.c      **** 			rf_mod[2]='X';
 3493              		.loc 1 903 0
 3494 0a5c 2C4B     		ldr	r3, .L411+8
 3495 0a5e 5822     		movs	r2, #88
 3496 0a60 9A70     		strb	r2, [r3, #2]
 904:.\main.c      **** 			rf_mod[3]='0';
 3497              		.loc 1 904 0
 3498 0a62 2B4B     		ldr	r3, .L411+8
 3499 0a64 3022     		movs	r2, #48
 3500 0a66 DA70     		strb	r2, [r3, #3]
 905:.\main.c      ****             if (tipo_venta == 1){
 3501              		.loc 1 905 0
 3502 0a68 2A4B     		ldr	r3, .L411+12
 3503 0a6a 1B78     		ldrb	r3, [r3]	@ zero_extendqisi2
 3504 0a6c 012B     		cmp	r3, #1
 3505 0a6e 42D1     		bne	.L183
 906:.\main.c      **** 			    for(x=0;x<=15;x++){						//Serial				
 3506              		.loc 1 906 0
 3507 0a70 0023     		movs	r3, #0
 3508 0a72 87F82F30 		strb	r3, [r7, #47]
 3509 0a76 3AE0     		b	.L184
 3510              	.L187:
 907:.\main.c      **** 				    y=(rventa1.id[x/2]>>4)&0x0F;
 3511              		.loc 1 907 0
 3512 0a78 97F82F30 		ldrb	r3, [r7, #47]	@ zero_extendqisi2
 3513 0a7c 5B08     		lsrs	r3, r3, #1
 3514 0a7e DBB2     		uxtb	r3, r3
 3515 0a80 1A46     		mov	r2, r3
 3516 0a82 214B     		ldr	r3, .L411
 3517 0a84 1344     		add	r3, r3, r2
 3518 0a86 93F82330 		ldrb	r3, [r3, #35]	@ zero_extendqisi2
ARM GAS  C:\Users\diego\AppData\Local\Temp\ccW8UKJI.s 			page 80


 3519 0a8a 1B09     		lsrs	r3, r3, #4
 3520 0a8c 87F82E30 		strb	r3, [r7, #46]
 908:.\main.c      **** 				    if((x%2)==0){
 3521              		.loc 1 908 0
 3522 0a90 97F82F30 		ldrb	r3, [r7, #47]
 3523 0a94 03F00103 		and	r3, r3, #1
 3524 0a98 DBB2     		uxtb	r3, r3
 3525 0a9a 002B     		cmp	r3, #0
 3526 0a9c 0CD1     		bne	.L185
 909:.\main.c      **** 					    y=rventa1.id[x/2]&0x0F;
 3527              		.loc 1 909 0
 3528 0a9e 97F82F30 		ldrb	r3, [r7, #47]	@ zero_extendqisi2
 3529 0aa2 5B08     		lsrs	r3, r3, #1
 3530 0aa4 DBB2     		uxtb	r3, r3
 3531 0aa6 1A46     		mov	r2, r3
 3532 0aa8 174B     		ldr	r3, .L411
 3533 0aaa 1344     		add	r3, r3, r2
 3534 0aac 93F82330 		ldrb	r3, [r3, #35]	@ zero_extendqisi2
 3535 0ab0 03F00F03 		and	r3, r3, #15
 3536 0ab4 87F82E30 		strb	r3, [r7, #46]
 3537              	.L185:
 910:.\main.c      **** 				    }
 911:.\main.c      **** 				    rf_mod[x+4] = y+48;
 3538              		.loc 1 911 0
 3539 0ab8 97F82F30 		ldrb	r3, [r7, #47]	@ zero_extendqisi2
 3540 0abc 0433     		adds	r3, r3, #4
 3541 0abe 97F82E20 		ldrb	r2, [r7, #46]
 3542 0ac2 3032     		adds	r2, r2, #48
 3543 0ac4 D1B2     		uxtb	r1, r2
 3544 0ac6 124A     		ldr	r2, .L411+8
 3545 0ac8 D154     		strb	r1, [r2, r3]
 912:.\main.c      **** 				    if(y>9){
 3546              		.loc 1 912 0
 3547 0aca 97F82E30 		ldrb	r3, [r7, #46]	@ zero_extendqisi2
 3548 0ace 092B     		cmp	r3, #9
 3549 0ad0 08D9     		bls	.L186
 913:.\main.c      **** 					    rf_mod[x+4] = y+55;
 3550              		.loc 1 913 0
 3551 0ad2 97F82F30 		ldrb	r3, [r7, #47]	@ zero_extendqisi2
 3552 0ad6 0433     		adds	r3, r3, #4
 3553 0ad8 97F82E20 		ldrb	r2, [r7, #46]
 3554 0adc 3732     		adds	r2, r2, #55
 3555 0ade D1B2     		uxtb	r1, r2
 3556 0ae0 0B4A     		ldr	r2, .L411+8
 3557 0ae2 D154     		strb	r1, [r2, r3]
 3558              	.L186:
 906:.\main.c      **** 				    y=(rventa1.id[x/2]>>4)&0x0F;
 3559              		.loc 1 906 0 discriminator 2
 3560 0ae4 97F82F30 		ldrb	r3, [r7, #47]	@ zero_extendqisi2
 3561 0ae8 0133     		adds	r3, r3, #1
 3562 0aea 87F82F30 		strb	r3, [r7, #47]
 3563              	.L184:
 906:.\main.c      **** 				    y=(rventa1.id[x/2]>>4)&0x0F;
 3564              		.loc 1 906 0 is_stmt 0 discriminator 1
 3565 0aee 97F82F30 		ldrb	r3, [r7, #47]	@ zero_extendqisi2
 3566 0af2 0F2B     		cmp	r3, #15
 3567 0af4 C0D9     		bls	.L187
ARM GAS  C:\Users\diego\AppData\Local\Temp\ccW8UKJI.s 			page 81


 3568              	.L183:
 914:.\main.c      **** 				    }
 915:.\main.c      **** 			    }
 916:.\main.c      ****                 
 917:.\main.c      ****             }
 918:.\main.c      ****             if(tipo_venta == 0){
 3569              		.loc 1 918 0 is_stmt 1
 3570 0af6 074B     		ldr	r3, .L411+12
 3571 0af8 1B78     		ldrb	r3, [r3]	@ zero_extendqisi2
 3572 0afa 002B     		cmp	r3, #0
 3573 0afc 4BD1     		bne	.L188
 919:.\main.c      ****                 for(x=0;x<=15;x++){						//Serial				
 3574              		.loc 1 919 0
 3575 0afe 0023     		movs	r3, #0
 3576 0b00 87F82F30 		strb	r3, [r7, #47]
 3577 0b04 43E0     		b	.L189
 3578              	.L412:
 3579 0b06 00BF     		.align	2
 3580              	.L411:
 3581 0b08 00000000 		.word	rventa1
 3582 0b0c 00000000 		.word	flujo_LCD1
 3583 0b10 00000000 		.word	rf_mod
 3584 0b14 00000000 		.word	tipo_venta
 3585              	.L192:
 920:.\main.c      **** 				    y=(rventa1.id[x/2]>>4)&0x0F;
 3586              		.loc 1 920 0
 3587 0b18 97F82F30 		ldrb	r3, [r7, #47]	@ zero_extendqisi2
 3588 0b1c 5B08     		lsrs	r3, r3, #1
 3589 0b1e DBB2     		uxtb	r3, r3
 3590 0b20 1A46     		mov	r2, r3
 3591 0b22 B54B     		ldr	r3, .L413
 3592 0b24 1344     		add	r3, r3, r2
 3593 0b26 93F82330 		ldrb	r3, [r3, #35]	@ zero_extendqisi2
 3594 0b2a 1B09     		lsrs	r3, r3, #4
 3595 0b2c 87F82E30 		strb	r3, [r7, #46]
 921:.\main.c      **** 				    if((x%2)==0){
 3596              		.loc 1 921 0
 3597 0b30 97F82F30 		ldrb	r3, [r7, #47]
 3598 0b34 03F00103 		and	r3, r3, #1
 3599 0b38 DBB2     		uxtb	r3, r3
 3600 0b3a 002B     		cmp	r3, #0
 3601 0b3c 0CD1     		bne	.L190
 922:.\main.c      **** 					    y=rventa1.id[x/2]&0x0F;
 3602              		.loc 1 922 0
 3603 0b3e 97F82F30 		ldrb	r3, [r7, #47]	@ zero_extendqisi2
 3604 0b42 5B08     		lsrs	r3, r3, #1
 3605 0b44 DBB2     		uxtb	r3, r3
 3606 0b46 1A46     		mov	r2, r3
 3607 0b48 AB4B     		ldr	r3, .L413
 3608 0b4a 1344     		add	r3, r3, r2
 3609 0b4c 93F82330 		ldrb	r3, [r3, #35]	@ zero_extendqisi2
 3610 0b50 03F00F03 		and	r3, r3, #15
 3611 0b54 87F82E30 		strb	r3, [r7, #46]
 3612              	.L190:
 923:.\main.c      **** 				    }
 924:.\main.c      **** 				    rf_mod[x+4] = y+48;
 3613              		.loc 1 924 0
ARM GAS  C:\Users\diego\AppData\Local\Temp\ccW8UKJI.s 			page 82


 3614 0b58 97F82F30 		ldrb	r3, [r7, #47]	@ zero_extendqisi2
 3615 0b5c 0433     		adds	r3, r3, #4
 3616 0b5e 97F82E20 		ldrb	r2, [r7, #46]
 3617 0b62 3032     		adds	r2, r2, #48
 3618 0b64 D1B2     		uxtb	r1, r2
 3619 0b66 A54A     		ldr	r2, .L413+4
 3620 0b68 D154     		strb	r1, [r2, r3]
 925:.\main.c      **** 				    if(y>9){
 3621              		.loc 1 925 0
 3622 0b6a 97F82E30 		ldrb	r3, [r7, #46]	@ zero_extendqisi2
 3623 0b6e 092B     		cmp	r3, #9
 3624 0b70 08D9     		bls	.L191
 926:.\main.c      **** 					    rf_mod[x+4] = y+55;
 3625              		.loc 1 926 0
 3626 0b72 97F82F30 		ldrb	r3, [r7, #47]	@ zero_extendqisi2
 3627 0b76 0433     		adds	r3, r3, #4
 3628 0b78 97F82E20 		ldrb	r2, [r7, #46]
 3629 0b7c 3732     		adds	r2, r2, #55
 3630 0b7e D1B2     		uxtb	r1, r2
 3631 0b80 9E4A     		ldr	r2, .L413+4
 3632 0b82 D154     		strb	r1, [r2, r3]
 3633              	.L191:
 919:.\main.c      **** 				    y=(rventa1.id[x/2]>>4)&0x0F;
 3634              		.loc 1 919 0 discriminator 2
 3635 0b84 97F82F30 		ldrb	r3, [r7, #47]	@ zero_extendqisi2
 3636 0b88 0133     		adds	r3, r3, #1
 3637 0b8a 87F82F30 		strb	r3, [r7, #47]
 3638              	.L189:
 919:.\main.c      **** 				    y=(rventa1.id[x/2]>>4)&0x0F;
 3639              		.loc 1 919 0 is_stmt 0 discriminator 1
 3640 0b8e 97F82F30 		ldrb	r3, [r7, #47]	@ zero_extendqisi2
 3641 0b92 0F2B     		cmp	r3, #15
 3642 0b94 C0D9     		bls	.L192
 3643              	.L188:
 927:.\main.c      **** 				    }
 928:.\main.c      **** 			    }
 929:.\main.c      **** //                for(x=0;x<=15;x++){						//Serial efectivo				
 930:.\main.c      **** //				    y=(rventa1.id_ef[x])&0x0F;
 931:.\main.c      **** //                    rf_mod[x+4] = y+48;
 932:.\main.c      **** //				    if((x%2)==0){
 933:.\main.c      **** //					    y=rventa1.id_ef[x]&0x0F;
 934:.\main.c      **** //				    }				    
 935:.\main.c      **** //				    if(y>9){
 936:.\main.c      **** //					    rf_mod[x+4] = y+55;
 937:.\main.c      **** //				    }
 938:.\main.c      **** //                }
 939:.\main.c      ****             }
 940:.\main.c      **** 			rf_mod[20]=(lado1.grado[rventa1.manguera-1][0])+48;			//Id Producto
 3644              		.loc 1 940 0 is_stmt 1
 3645 0b96 984B     		ldr	r3, .L413
 3646 0b98 9B7E     		ldrb	r3, [r3, #26]	@ zero_extendqisi2
 3647 0b9a 013B     		subs	r3, r3, #1
 3648 0b9c 984A     		ldr	r2, .L413+8
 3649 0b9e 1344     		add	r3, r3, r2
 3650 0ba0 93F85930 		ldrb	r3, [r3, #89]
 3651 0ba4 DBB2     		uxtb	r3, r3
 3652 0ba6 3033     		adds	r3, r3, #48
ARM GAS  C:\Users\diego\AppData\Local\Temp\ccW8UKJI.s 			page 83


 3653 0ba8 DAB2     		uxtb	r2, r3
 3654 0baa 944B     		ldr	r3, .L413+4
 3655 0bac 1A75     		strb	r2, [r3, #20]
 941:.\main.c      ****             if(tipo_venta == 0){
 3656              		.loc 1 941 0
 3657 0bae 954B     		ldr	r3, .L413+12
 3658 0bb0 1B78     		ldrb	r3, [r3]	@ zero_extendqisi2
 3659 0bb2 002B     		cmp	r3, #0
 3660 0bb4 13D1     		bne	.L193
 942:.\main.c      ****                 rf_mod[21]= id_estacion[4];								    //Id vehiculo
 3661              		.loc 1 942 0
 3662 0bb6 944B     		ldr	r3, .L413+16
 3663 0bb8 1B79     		ldrb	r3, [r3, #4]
 3664 0bba DAB2     		uxtb	r2, r3
 3665 0bbc 8F4B     		ldr	r3, .L413+4
 3666 0bbe 5A75     		strb	r2, [r3, #21]
 943:.\main.c      **** 			    rf_mod[22]= id_estacion[3];
 3667              		.loc 1 943 0
 3668 0bc0 914B     		ldr	r3, .L413+16
 3669 0bc2 DB78     		ldrb	r3, [r3, #3]
 3670 0bc4 DAB2     		uxtb	r2, r3
 3671 0bc6 8D4B     		ldr	r3, .L413+4
 3672 0bc8 9A75     		strb	r2, [r3, #22]
 944:.\main.c      **** 			    rf_mod[23]= id_estacion[2];
 3673              		.loc 1 944 0
 3674 0bca 8F4B     		ldr	r3, .L413+16
 3675 0bcc 9B78     		ldrb	r3, [r3, #2]
 3676 0bce DAB2     		uxtb	r2, r3
 3677 0bd0 8A4B     		ldr	r3, .L413+4
 3678 0bd2 DA75     		strb	r2, [r3, #23]
 945:.\main.c      **** 			    rf_mod[24]= id_estacion[1];  
 3679              		.loc 1 945 0
 3680 0bd4 8C4B     		ldr	r3, .L413+16
 3681 0bd6 5B78     		ldrb	r3, [r3, #1]
 3682 0bd8 DAB2     		uxtb	r2, r3
 3683 0bda 884B     		ldr	r3, .L413+4
 3684 0bdc 1A76     		strb	r2, [r3, #24]
 3685              	.L193:
 946:.\main.c      ****             }
 947:.\main.c      **** 			if(tipo_venta == 1){
 3686              		.loc 1 947 0
 3687 0bde 894B     		ldr	r3, .L413+12
 3688 0be0 1B78     		ldrb	r3, [r3]	@ zero_extendqisi2
 3689 0be2 012B     		cmp	r3, #1
 3690 0be4 0BD1     		bne	.L194
 948:.\main.c      ****                 rf_mod[21]= '0';								    //Id Estación
 3691              		.loc 1 948 0
 3692 0be6 854B     		ldr	r3, .L413+4
 3693 0be8 3022     		movs	r2, #48
 3694 0bea 5A75     		strb	r2, [r3, #21]
 949:.\main.c      **** 			    rf_mod[22]= '0';
 3695              		.loc 1 949 0
 3696 0bec 834B     		ldr	r3, .L413+4
 3697 0bee 3022     		movs	r2, #48
 3698 0bf0 9A75     		strb	r2, [r3, #22]
 950:.\main.c      **** 			    rf_mod[23]= '0';
 3699              		.loc 1 950 0
ARM GAS  C:\Users\diego\AppData\Local\Temp\ccW8UKJI.s 			page 84


 3700 0bf2 824B     		ldr	r3, .L413+4
 3701 0bf4 3022     		movs	r2, #48
 3702 0bf6 DA75     		strb	r2, [r3, #23]
 951:.\main.c      **** 			    rf_mod[24]= '0';  
 3703              		.loc 1 951 0
 3704 0bf8 804B     		ldr	r3, .L413+4
 3705 0bfa 3022     		movs	r2, #48
 3706 0bfc 1A76     		strb	r2, [r3, #24]
 3707              	.L194:
 952:.\main.c      ****             } 
 953:.\main.c      ****             
 954:.\main.c      ****             if(ppux10==0){
 3708              		.loc 1 954 0
 3709 0bfe 834B     		ldr	r3, .L413+20
 3710 0c00 1B78     		ldrb	r3, [r3]
 3711 0c02 DBB2     		uxtb	r3, r3
 3712 0c04 002B     		cmp	r3, #0
 3713 0c06 59D1     		bne	.L195
 955:.\main.c      ****     			rf_mod[25]=(lado1.ppu[rventa1.manguera-1][4]&0x0F)+0x30;		//PPU
 3714              		.loc 1 955 0
 3715 0c08 7B4B     		ldr	r3, .L413
 3716 0c0a 9B7E     		ldrb	r3, [r3, #26]	@ zero_extendqisi2
 3717 0c0c 5A1E     		subs	r2, r3, #1
 3718 0c0e 7C49     		ldr	r1, .L413+8
 3719 0c10 1346     		mov	r3, r2
 3720 0c12 9B00     		lsls	r3, r3, #2
 3721 0c14 1344     		add	r3, r3, r2
 3722 0c16 0B44     		add	r3, r3, r1
 3723 0c18 4C33     		adds	r3, r3, #76
 3724 0c1a 9B78     		ldrb	r3, [r3, #2]
 3725 0c1c DBB2     		uxtb	r3, r3
 3726 0c1e 03F00F03 		and	r3, r3, #15
 3727 0c22 DBB2     		uxtb	r3, r3
 3728 0c24 3033     		adds	r3, r3, #48
 3729 0c26 DAB2     		uxtb	r2, r3
 3730 0c28 744B     		ldr	r3, .L413+4
 3731 0c2a 5A76     		strb	r2, [r3, #25]
 956:.\main.c      ****     			rf_mod[26]=(lado1.ppu[rventa1.manguera-1][3]&0x0F)+0x30;
 3732              		.loc 1 956 0
 3733 0c2c 724B     		ldr	r3, .L413
 3734 0c2e 9B7E     		ldrb	r3, [r3, #26]	@ zero_extendqisi2
 3735 0c30 5A1E     		subs	r2, r3, #1
 3736 0c32 7349     		ldr	r1, .L413+8
 3737 0c34 1346     		mov	r3, r2
 3738 0c36 9B00     		lsls	r3, r3, #2
 3739 0c38 1344     		add	r3, r3, r2
 3740 0c3a 0B44     		add	r3, r3, r1
 3741 0c3c 4B33     		adds	r3, r3, #75
 3742 0c3e 9B78     		ldrb	r3, [r3, #2]
 3743 0c40 DBB2     		uxtb	r3, r3
 3744 0c42 03F00F03 		and	r3, r3, #15
 3745 0c46 DBB2     		uxtb	r3, r3
 3746 0c48 3033     		adds	r3, r3, #48
 3747 0c4a DAB2     		uxtb	r2, r3
 3748 0c4c 6B4B     		ldr	r3, .L413+4
 3749 0c4e 9A76     		strb	r2, [r3, #26]
 957:.\main.c      ****     			rf_mod[27]=(lado1.ppu[rventa1.manguera-1][2]&0x0F)+0x30;
ARM GAS  C:\Users\diego\AppData\Local\Temp\ccW8UKJI.s 			page 85


 3750              		.loc 1 957 0
 3751 0c50 694B     		ldr	r3, .L413
 3752 0c52 9B7E     		ldrb	r3, [r3, #26]	@ zero_extendqisi2
 3753 0c54 5A1E     		subs	r2, r3, #1
 3754 0c56 6A49     		ldr	r1, .L413+8
 3755 0c58 1346     		mov	r3, r2
 3756 0c5a 9B00     		lsls	r3, r3, #2
 3757 0c5c 1344     		add	r3, r3, r2
 3758 0c5e 0B44     		add	r3, r3, r1
 3759 0c60 4A33     		adds	r3, r3, #74
 3760 0c62 9B78     		ldrb	r3, [r3, #2]
 3761 0c64 DBB2     		uxtb	r3, r3
 3762 0c66 03F00F03 		and	r3, r3, #15
 3763 0c6a DBB2     		uxtb	r3, r3
 3764 0c6c 3033     		adds	r3, r3, #48
 3765 0c6e DAB2     		uxtb	r2, r3
 3766 0c70 624B     		ldr	r3, .L413+4
 3767 0c72 DA76     		strb	r2, [r3, #27]
 958:.\main.c      ****     			rf_mod[28]=(lado1.ppu[rventa1.manguera-1][1]&0x0F)+0x30;
 3768              		.loc 1 958 0
 3769 0c74 604B     		ldr	r3, .L413
 3770 0c76 9B7E     		ldrb	r3, [r3, #26]	@ zero_extendqisi2
 3771 0c78 5A1E     		subs	r2, r3, #1
 3772 0c7a 6149     		ldr	r1, .L413+8
 3773 0c7c 1346     		mov	r3, r2
 3774 0c7e 9B00     		lsls	r3, r3, #2
 3775 0c80 1344     		add	r3, r3, r2
 3776 0c82 0B44     		add	r3, r3, r1
 3777 0c84 4933     		adds	r3, r3, #73
 3778 0c86 9B78     		ldrb	r3, [r3, #2]
 3779 0c88 DBB2     		uxtb	r3, r3
 3780 0c8a 03F00F03 		and	r3, r3, #15
 3781 0c8e DBB2     		uxtb	r3, r3
 3782 0c90 3033     		adds	r3, r3, #48
 3783 0c92 DAB2     		uxtb	r2, r3
 3784 0c94 594B     		ldr	r3, .L413+4
 3785 0c96 1A77     		strb	r2, [r3, #28]
 959:.\main.c      ****     			rf_mod[29]=(lado1.ppu[rventa1.manguera-1][0]&0x0F)+0x30;
 3786              		.loc 1 959 0
 3787 0c98 574B     		ldr	r3, .L413
 3788 0c9a 9B7E     		ldrb	r3, [r3, #26]	@ zero_extendqisi2
 3789 0c9c 5A1E     		subs	r2, r3, #1
 3790 0c9e 5849     		ldr	r1, .L413+8
 3791 0ca0 1346     		mov	r3, r2
 3792 0ca2 9B00     		lsls	r3, r3, #2
 3793 0ca4 1344     		add	r3, r3, r2
 3794 0ca6 0B44     		add	r3, r3, r1
 3795 0ca8 4833     		adds	r3, r3, #72
 3796 0caa 9B78     		ldrb	r3, [r3, #2]
 3797 0cac DBB2     		uxtb	r3, r3
 3798 0cae 03F00F03 		and	r3, r3, #15
 3799 0cb2 DBB2     		uxtb	r3, r3
 3800 0cb4 3033     		adds	r3, r3, #48
 3801 0cb6 DAB2     		uxtb	r2, r3
 3802 0cb8 504B     		ldr	r3, .L413+4
 3803 0cba 5A77     		strb	r2, [r3, #29]
 3804              	.L195:
ARM GAS  C:\Users\diego\AppData\Local\Temp\ccW8UKJI.s 			page 86


 960:.\main.c      ****             }
 961:.\main.c      ****             if(ppux10==1){
 3805              		.loc 1 961 0
 3806 0cbc 534B     		ldr	r3, .L413+20
 3807 0cbe 1B78     		ldrb	r3, [r3]
 3808 0cc0 DBB2     		uxtb	r3, r3
 3809 0cc2 012B     		cmp	r3, #1
 3810 0cc4 4AD1     		bne	.L196
 962:.\main.c      ****     			rf_mod[25]=(lado1.ppu[rventa1.manguera-1][3]&0x0F)+0x30;		//PPUx10
 3811              		.loc 1 962 0
 3812 0cc6 4C4B     		ldr	r3, .L413
 3813 0cc8 9B7E     		ldrb	r3, [r3, #26]	@ zero_extendqisi2
 3814 0cca 5A1E     		subs	r2, r3, #1
 3815 0ccc 4C49     		ldr	r1, .L413+8
 3816 0cce 1346     		mov	r3, r2
 3817 0cd0 9B00     		lsls	r3, r3, #2
 3818 0cd2 1344     		add	r3, r3, r2
 3819 0cd4 0B44     		add	r3, r3, r1
 3820 0cd6 4B33     		adds	r3, r3, #75
 3821 0cd8 9B78     		ldrb	r3, [r3, #2]
 3822 0cda DBB2     		uxtb	r3, r3
 3823 0cdc 03F00F03 		and	r3, r3, #15
 3824 0ce0 DBB2     		uxtb	r3, r3
 3825 0ce2 3033     		adds	r3, r3, #48
 3826 0ce4 DAB2     		uxtb	r2, r3
 3827 0ce6 454B     		ldr	r3, .L413+4
 3828 0ce8 5A76     		strb	r2, [r3, #25]
 963:.\main.c      ****     			rf_mod[26]=(lado1.ppu[rventa1.manguera-1][2]&0x0F)+0x30;
 3829              		.loc 1 963 0
 3830 0cea 434B     		ldr	r3, .L413
 3831 0cec 9B7E     		ldrb	r3, [r3, #26]	@ zero_extendqisi2
 3832 0cee 5A1E     		subs	r2, r3, #1
 3833 0cf0 4349     		ldr	r1, .L413+8
 3834 0cf2 1346     		mov	r3, r2
 3835 0cf4 9B00     		lsls	r3, r3, #2
 3836 0cf6 1344     		add	r3, r3, r2
 3837 0cf8 0B44     		add	r3, r3, r1
 3838 0cfa 4A33     		adds	r3, r3, #74
 3839 0cfc 9B78     		ldrb	r3, [r3, #2]
 3840 0cfe DBB2     		uxtb	r3, r3
 3841 0d00 03F00F03 		and	r3, r3, #15
 3842 0d04 DBB2     		uxtb	r3, r3
 3843 0d06 3033     		adds	r3, r3, #48
 3844 0d08 DAB2     		uxtb	r2, r3
 3845 0d0a 3C4B     		ldr	r3, .L413+4
 3846 0d0c 9A76     		strb	r2, [r3, #26]
 964:.\main.c      ****     			rf_mod[27]=(lado1.ppu[rventa1.manguera-1][1]&0x0F)+0x30;
 3847              		.loc 1 964 0
 3848 0d0e 3A4B     		ldr	r3, .L413
 3849 0d10 9B7E     		ldrb	r3, [r3, #26]	@ zero_extendqisi2
 3850 0d12 5A1E     		subs	r2, r3, #1
 3851 0d14 3A49     		ldr	r1, .L413+8
 3852 0d16 1346     		mov	r3, r2
 3853 0d18 9B00     		lsls	r3, r3, #2
 3854 0d1a 1344     		add	r3, r3, r2
 3855 0d1c 0B44     		add	r3, r3, r1
 3856 0d1e 4933     		adds	r3, r3, #73
ARM GAS  C:\Users\diego\AppData\Local\Temp\ccW8UKJI.s 			page 87


 3857 0d20 9B78     		ldrb	r3, [r3, #2]
 3858 0d22 DBB2     		uxtb	r3, r3
 3859 0d24 03F00F03 		and	r3, r3, #15
 3860 0d28 DBB2     		uxtb	r3, r3
 3861 0d2a 3033     		adds	r3, r3, #48
 3862 0d2c DAB2     		uxtb	r2, r3
 3863 0d2e 334B     		ldr	r3, .L413+4
 3864 0d30 DA76     		strb	r2, [r3, #27]
 965:.\main.c      ****     			rf_mod[28]=(lado1.ppu[rventa1.manguera-1][0]&0x0F)+0x30;
 3865              		.loc 1 965 0
 3866 0d32 314B     		ldr	r3, .L413
 3867 0d34 9B7E     		ldrb	r3, [r3, #26]	@ zero_extendqisi2
 3868 0d36 5A1E     		subs	r2, r3, #1
 3869 0d38 3149     		ldr	r1, .L413+8
 3870 0d3a 1346     		mov	r3, r2
 3871 0d3c 9B00     		lsls	r3, r3, #2
 3872 0d3e 1344     		add	r3, r3, r2
 3873 0d40 0B44     		add	r3, r3, r1
 3874 0d42 4833     		adds	r3, r3, #72
 3875 0d44 9B78     		ldrb	r3, [r3, #2]
 3876 0d46 DBB2     		uxtb	r3, r3
 3877 0d48 03F00F03 		and	r3, r3, #15
 3878 0d4c DBB2     		uxtb	r3, r3
 3879 0d4e 3033     		adds	r3, r3, #48
 3880 0d50 DAB2     		uxtb	r2, r3
 3881 0d52 2A4B     		ldr	r3, .L413+4
 3882 0d54 1A77     		strb	r2, [r3, #28]
 966:.\main.c      ****     			rf_mod[29]=0x30;   
 3883              		.loc 1 966 0
 3884 0d56 294B     		ldr	r3, .L413+4
 3885 0d58 3022     		movs	r2, #48
 3886 0d5a 5A77     		strb	r2, [r3, #29]
 3887              	.L196:
 967:.\main.c      ****             }
 968:.\main.c      **** 			rf_mod[30]=(rventa1.preset[0]+48);								//Tipo de Preset
 3888              		.loc 1 968 0
 3889 0d5c 264B     		ldr	r3, .L413
 3890 0d5e DB7E     		ldrb	r3, [r3, #27]	@ zero_extendqisi2
 3891 0d60 3033     		adds	r3, r3, #48
 3892 0d62 DAB2     		uxtb	r2, r3
 3893 0d64 254B     		ldr	r3, .L413+4
 3894 0d66 9A77     		strb	r2, [r3, #30]
 969:.\main.c      **** 			rf_mod[31]=rventa1.preset[7];									//Preset
 3895              		.loc 1 969 0
 3896 0d68 234B     		ldr	r3, .L413
 3897 0d6a 93F82220 		ldrb	r2, [r3, #34]	@ zero_extendqisi2
 3898 0d6e 234B     		ldr	r3, .L413+4
 3899 0d70 DA77     		strb	r2, [r3, #31]
 970:.\main.c      **** 			if(rventa1.preset[7]<10){				
 3900              		.loc 1 970 0
 3901 0d72 214B     		ldr	r3, .L413
 3902 0d74 93F82230 		ldrb	r3, [r3, #34]	@ zero_extendqisi2
 3903 0d78 092B     		cmp	r3, #9
 3904 0d7a 06D8     		bhi	.L197
 971:.\main.c      **** 				rf_mod[31]=rventa1.preset[7]+0x30;							
 3905              		.loc 1 971 0
 3906 0d7c 1E4B     		ldr	r3, .L413
ARM GAS  C:\Users\diego\AppData\Local\Temp\ccW8UKJI.s 			page 88


 3907 0d7e 93F82230 		ldrb	r3, [r3, #34]	@ zero_extendqisi2
 3908 0d82 3033     		adds	r3, r3, #48
 3909 0d84 DAB2     		uxtb	r2, r3
 3910 0d86 1D4B     		ldr	r3, .L413+4
 3911 0d88 DA77     		strb	r2, [r3, #31]
 3912              	.L197:
 972:.\main.c      **** 			}
 973:.\main.c      **** 			rf_mod[32]=rventa1.preset[6];
 3913              		.loc 1 973 0
 3914 0d8a 1B4B     		ldr	r3, .L413
 3915 0d8c 93F82120 		ldrb	r2, [r3, #33]	@ zero_extendqisi2
 3916 0d90 1A4B     		ldr	r3, .L413+4
 3917 0d92 83F82020 		strb	r2, [r3, #32]
 974:.\main.c      **** 			if(rventa1.preset[6]<10){				
 3918              		.loc 1 974 0
 3919 0d96 184B     		ldr	r3, .L413
 3920 0d98 93F82130 		ldrb	r3, [r3, #33]	@ zero_extendqisi2
 3921 0d9c 092B     		cmp	r3, #9
 3922 0d9e 07D8     		bhi	.L198
 975:.\main.c      **** 				rf_mod[32]=rventa1.preset[6]+0x30;
 3923              		.loc 1 975 0
 3924 0da0 154B     		ldr	r3, .L413
 3925 0da2 93F82130 		ldrb	r3, [r3, #33]	@ zero_extendqisi2
 3926 0da6 3033     		adds	r3, r3, #48
 3927 0da8 DAB2     		uxtb	r2, r3
 3928 0daa 144B     		ldr	r3, .L413+4
 3929 0dac 83F82020 		strb	r2, [r3, #32]
 3930              	.L198:
 976:.\main.c      **** 			}
 977:.\main.c      **** 			rf_mod[33]=rventa1.preset[5];
 3931              		.loc 1 977 0
 3932 0db0 114B     		ldr	r3, .L413
 3933 0db2 93F82020 		ldrb	r2, [r3, #32]	@ zero_extendqisi2
 3934 0db6 114B     		ldr	r3, .L413+4
 3935 0db8 83F82120 		strb	r2, [r3, #33]
 978:.\main.c      **** 			if(rventa1.preset[5]<10){				
 3936              		.loc 1 978 0
 3937 0dbc 0E4B     		ldr	r3, .L413
 3938 0dbe 93F82030 		ldrb	r3, [r3, #32]	@ zero_extendqisi2
 3939 0dc2 092B     		cmp	r3, #9
 3940 0dc4 07D8     		bhi	.L199
 979:.\main.c      **** 				rf_mod[33]=rventa1.preset[5]+0x30;
 3941              		.loc 1 979 0
 3942 0dc6 0C4B     		ldr	r3, .L413
 3943 0dc8 93F82030 		ldrb	r3, [r3, #32]	@ zero_extendqisi2
 3944 0dcc 3033     		adds	r3, r3, #48
 3945 0dce DAB2     		uxtb	r2, r3
 3946 0dd0 0A4B     		ldr	r3, .L413+4
 3947 0dd2 83F82120 		strb	r2, [r3, #33]
 3948              	.L199:
 980:.\main.c      **** 			}
 981:.\main.c      **** 			rf_mod[34]=rventa1.preset[4];
 3949              		.loc 1 981 0
 3950 0dd6 084B     		ldr	r3, .L413
 3951 0dd8 DA7F     		ldrb	r2, [r3, #31]	@ zero_extendqisi2
 3952 0dda 084B     		ldr	r3, .L413+4
 3953 0ddc 83F82220 		strb	r2, [r3, #34]
ARM GAS  C:\Users\diego\AppData\Local\Temp\ccW8UKJI.s 			page 89


 982:.\main.c      **** 			if(rventa1.preset[4]<10){				
 3954              		.loc 1 982 0
 3955 0de0 054B     		ldr	r3, .L413
 3956 0de2 DB7F     		ldrb	r3, [r3, #31]	@ zero_extendqisi2
 3957 0de4 092B     		cmp	r3, #9
 3958 0de6 13D8     		bhi	.L200
 983:.\main.c      **** 				rf_mod[34]=rventa1.preset[4]+0x30;
 3959              		.loc 1 983 0
 3960 0de8 034B     		ldr	r3, .L413
 3961 0dea DB7F     		ldrb	r3, [r3, #31]	@ zero_extendqisi2
 3962 0dec 3033     		adds	r3, r3, #48
 3963 0dee DAB2     		uxtb	r2, r3
 3964 0df0 024B     		ldr	r3, .L413+4
 3965 0df2 83F82220 		strb	r2, [r3, #34]
 3966 0df6 0BE0     		b	.L414
 3967              	.L415:
 3968              		.align	2
 3969              	.L413:
 3970 0df8 00000000 		.word	rventa1
 3971 0dfc 00000000 		.word	rf_mod
 3972 0e00 00000000 		.word	lado1
 3973 0e04 00000000 		.word	tipo_venta
 3974 0e08 00000000 		.word	id_estacion
 3975 0e0c 00000000 		.word	ppux10
 3976              	.L414:
 3977              	.L200:
 984:.\main.c      **** 			}
 985:.\main.c      **** 			rf_mod[35]=rventa1.preset[3];
 3978              		.loc 1 985 0
 3979 0e10 934B     		ldr	r3, .L416
 3980 0e12 9A7F     		ldrb	r2, [r3, #30]	@ zero_extendqisi2
 3981 0e14 934B     		ldr	r3, .L416+4
 3982 0e16 83F82320 		strb	r2, [r3, #35]
 986:.\main.c      **** 			if(rventa1.preset[3]<10){				
 3983              		.loc 1 986 0
 3984 0e1a 914B     		ldr	r3, .L416
 3985 0e1c 9B7F     		ldrb	r3, [r3, #30]	@ zero_extendqisi2
 3986 0e1e 092B     		cmp	r3, #9
 3987 0e20 06D8     		bhi	.L201
 987:.\main.c      **** 				rf_mod[35]=rventa1.preset[3]+0x30;
 3988              		.loc 1 987 0
 3989 0e22 8F4B     		ldr	r3, .L416
 3990 0e24 9B7F     		ldrb	r3, [r3, #30]	@ zero_extendqisi2
 3991 0e26 3033     		adds	r3, r3, #48
 3992 0e28 DAB2     		uxtb	r2, r3
 3993 0e2a 8E4B     		ldr	r3, .L416+4
 3994 0e2c 83F82320 		strb	r2, [r3, #35]
 3995              	.L201:
 988:.\main.c      **** 			}
 989:.\main.c      **** 			rf_mod[36]=rventa1.preset[2];
 3996              		.loc 1 989 0
 3997 0e30 8B4B     		ldr	r3, .L416
 3998 0e32 5A7F     		ldrb	r2, [r3, #29]	@ zero_extendqisi2
 3999 0e34 8B4B     		ldr	r3, .L416+4
 4000 0e36 83F82420 		strb	r2, [r3, #36]
 990:.\main.c      **** 			if(rventa1.preset[2]<10){				
 4001              		.loc 1 990 0
ARM GAS  C:\Users\diego\AppData\Local\Temp\ccW8UKJI.s 			page 90


 4002 0e3a 894B     		ldr	r3, .L416
 4003 0e3c 5B7F     		ldrb	r3, [r3, #29]	@ zero_extendqisi2
 4004 0e3e 092B     		cmp	r3, #9
 4005 0e40 06D8     		bhi	.L202
 991:.\main.c      **** 				rf_mod[36]=rventa1.preset[2]+0x30;
 4006              		.loc 1 991 0
 4007 0e42 874B     		ldr	r3, .L416
 4008 0e44 5B7F     		ldrb	r3, [r3, #29]	@ zero_extendqisi2
 4009 0e46 3033     		adds	r3, r3, #48
 4010 0e48 DAB2     		uxtb	r2, r3
 4011 0e4a 864B     		ldr	r3, .L416+4
 4012 0e4c 83F82420 		strb	r2, [r3, #36]
 4013              	.L202:
 992:.\main.c      **** 			}
 993:.\main.c      **** 			rf_mod[37]=rventa1.preset[1];
 4014              		.loc 1 993 0
 4015 0e50 834B     		ldr	r3, .L416
 4016 0e52 1A7F     		ldrb	r2, [r3, #28]	@ zero_extendqisi2
 4017 0e54 834B     		ldr	r3, .L416+4
 4018 0e56 83F82520 		strb	r2, [r3, #37]
 994:.\main.c      **** 			if(rventa1.preset[1]<10){				
 4019              		.loc 1 994 0
 4020 0e5a 814B     		ldr	r3, .L416
 4021 0e5c 1B7F     		ldrb	r3, [r3, #28]	@ zero_extendqisi2
 4022 0e5e 092B     		cmp	r3, #9
 4023 0e60 06D8     		bhi	.L203
 995:.\main.c      **** 				rf_mod[37]=rventa1.preset[1]+0x30;
 4024              		.loc 1 995 0
 4025 0e62 7F4B     		ldr	r3, .L416
 4026 0e64 1B7F     		ldrb	r3, [r3, #28]	@ zero_extendqisi2
 4027 0e66 3033     		adds	r3, r3, #48
 4028 0e68 DAB2     		uxtb	r2, r3
 4029 0e6a 7E4B     		ldr	r3, .L416+4
 4030 0e6c 83F82520 		strb	r2, [r3, #37]
 4031              	.L203:
 996:.\main.c      **** 			}
 997:.\main.c      **** 			for(x=0;x<=6;x++){
 4032              		.loc 1 997 0
 4033 0e70 0023     		movs	r3, #0
 4034 0e72 87F82F30 		strb	r3, [r7, #47]
 4035 0e76 12E0     		b	.L204
 4036              	.L205:
 998:.\main.c      **** 				rf_mod[38+x]=rventa1.km[x+1] + 48;
 4037              		.loc 1 998 0 discriminator 3
 4038 0e78 97F82F30 		ldrb	r3, [r7, #47]	@ zero_extendqisi2
 4039 0e7c 2633     		adds	r3, r3, #38
 4040 0e7e 97F82F20 		ldrb	r2, [r7, #47]	@ zero_extendqisi2
 4041 0e82 0132     		adds	r2, r2, #1
 4042 0e84 7649     		ldr	r1, .L416
 4043 0e86 0A44     		add	r2, r2, r1
 4044 0e88 92F84320 		ldrb	r2, [r2, #67]	@ zero_extendqisi2
 4045 0e8c 3032     		adds	r2, r2, #48
 4046 0e8e D1B2     		uxtb	r1, r2
 4047 0e90 744A     		ldr	r2, .L416+4
 4048 0e92 D154     		strb	r1, [r2, r3]
 997:.\main.c      **** 				rf_mod[38+x]=rventa1.km[x+1] + 48;
 4049              		.loc 1 997 0 discriminator 3
ARM GAS  C:\Users\diego\AppData\Local\Temp\ccW8UKJI.s 			page 91


 4050 0e94 97F82F30 		ldrb	r3, [r7, #47]	@ zero_extendqisi2
 4051 0e98 0133     		adds	r3, r3, #1
 4052 0e9a 87F82F30 		strb	r3, [r7, #47]
 4053              	.L204:
 997:.\main.c      **** 				rf_mod[38+x]=rventa1.km[x+1] + 48;
 4054              		.loc 1 997 0 is_stmt 0 discriminator 1
 4055 0e9e 97F82F30 		ldrb	r3, [r7, #47]	@ zero_extendqisi2
 4056 0ea2 062B     		cmp	r3, #6
 4057 0ea4 E8D9     		bls	.L205
 999:.\main.c      **** 			}
1000:.\main.c      **** 			rf_mod[45]=0x31;
 4058              		.loc 1 1000 0 is_stmt 1
 4059 0ea6 6F4B     		ldr	r3, .L416+4
 4060 0ea8 3122     		movs	r2, #49
 4061 0eaa 83F82D20 		strb	r2, [r3, #45]
1001:.\main.c      **** 			rf_mod[46]='*';
 4062              		.loc 1 1001 0
 4063 0eae 6D4B     		ldr	r3, .L416+4
 4064 0eb0 2A22     		movs	r2, #42
 4065 0eb2 83F82E20 		strb	r2, [r3, #46]
1002:.\main.c      **** 			PC_ClearRxBuffer();				
 4066              		.loc 1 1002 0
 4067 0eb6 FFF7FEFF 		bl	PC_ClearRxBuffer
1003:.\main.c      **** 		    for(x=0;x<=46;x++){
 4068              		.loc 1 1003 0
 4069 0eba 0023     		movs	r3, #0
 4070 0ebc 87F82F30 		strb	r3, [r7, #47]
 4071 0ec0 0BE0     		b	.L206
 4072              	.L207:
1004:.\main.c      **** 			   PC_PutChar(rf_mod[x]);
 4073              		.loc 1 1004 0 discriminator 3
 4074 0ec2 97F82F30 		ldrb	r3, [r7, #47]	@ zero_extendqisi2
 4075 0ec6 674A     		ldr	r2, .L416+4
 4076 0ec8 D35C     		ldrb	r3, [r2, r3]	@ zero_extendqisi2
 4077 0eca 1846     		mov	r0, r3
 4078 0ecc FFF7FEFF 		bl	PC_PutChar
1003:.\main.c      **** 		    for(x=0;x<=46;x++){
 4079              		.loc 1 1003 0 discriminator 3
 4080 0ed0 97F82F30 		ldrb	r3, [r7, #47]	@ zero_extendqisi2
 4081 0ed4 0133     		adds	r3, r3, #1
 4082 0ed6 87F82F30 		strb	r3, [r7, #47]
 4083              	.L206:
1003:.\main.c      **** 		    for(x=0;x<=46;x++){
 4084              		.loc 1 1003 0 is_stmt 0 discriminator 1
 4085 0eda 97F82F30 		ldrb	r3, [r7, #47]	@ zero_extendqisi2
 4086 0ede 2E2B     		cmp	r3, #46
 4087 0ee0 EFD9     		bls	.L207
1005:.\main.c      **** 		    }	            
1006:.\main.c      **** 			CyDelay(350);			
 4088              		.loc 1 1006 0 is_stmt 1
 4089 0ee2 4FF4AF70 		mov	r0, #350
 4090 0ee6 FFF7FEFF 		bl	CyDelay
1007:.\main.c      ****             PC_ClearTxBuffer();
 4091              		.loc 1 1007 0
 4092 0eea FFF7FEFF 		bl	PC_ClearTxBuffer
1008:.\main.c      **** 		break;
 4093              		.loc 1 1008 0
ARM GAS  C:\Users\diego\AppData\Local\Temp\ccW8UKJI.s 			page 92


 4094 0eee 01F010BE 		b	.L92
 4095              	.L104:
1009:.\main.c      ****             
1010:.\main.c      ****         
1011:.\main.c      ****             
1012:.\main.c      ****         case 11:         
1013:.\main.c      ****             if(touch_present(1)==1){
 4096              		.loc 1 1013 0
 4097 0ef2 0120     		movs	r0, #1
 4098 0ef4 FFF7FEFF 		bl	touch_present
 4099 0ef8 0346     		mov	r3, r0
 4100 0efa 012B     		cmp	r3, #1
 4101 0efc 40F08A80 		bne	.L208
1014:.\main.c      ****                 if(touch_write(1,0x33)){
 4102              		.loc 1 1014 0
 4103 0f00 0120     		movs	r0, #1
 4104 0f02 3321     		movs	r1, #51
 4105 0f04 FFF7FEFF 		bl	touch_write
 4106 0f08 0346     		mov	r3, r0
 4107 0f0a 002B     		cmp	r3, #0
 4108 0f0c 00F08280 		beq	.L208
1015:.\main.c      **** 	                for(x=0;x<=7;x++){
 4109              		.loc 1 1015 0
 4110 0f10 0023     		movs	r3, #0
 4111 0f12 87F82F30 		strb	r3, [r7, #47]
 4112 0f16 0FE0     		b	.L209
 4113              	.L210:
1016:.\main.c      **** 	                    rventa1.id[x]=touch_read_byte(1);
 4114              		.loc 1 1016 0 discriminator 3
 4115 0f18 97F82F40 		ldrb	r4, [r7, #47]	@ zero_extendqisi2
 4116 0f1c 0120     		movs	r0, #1
 4117 0f1e FFF7FEFF 		bl	touch_read_byte
 4118 0f22 0346     		mov	r3, r0
 4119 0f24 1A46     		mov	r2, r3
 4120 0f26 4E4B     		ldr	r3, .L416
 4121 0f28 2344     		add	r3, r3, r4
 4122 0f2a 83F82320 		strb	r2, [r3, #35]
1015:.\main.c      **** 	                for(x=0;x<=7;x++){
 4123              		.loc 1 1015 0 discriminator 3
 4124 0f2e 97F82F30 		ldrb	r3, [r7, #47]	@ zero_extendqisi2
 4125 0f32 0133     		adds	r3, r3, #1
 4126 0f34 87F82F30 		strb	r3, [r7, #47]
 4127              	.L209:
1015:.\main.c      **** 	                for(x=0;x<=7;x++){
 4128              		.loc 1 1015 0 is_stmt 0 discriminator 1
 4129 0f38 97F82F30 		ldrb	r3, [r7, #47]	@ zero_extendqisi2
 4130 0f3c 072B     		cmp	r3, #7
 4131 0f3e EBD9     		bls	.L210
1017:.\main.c      **** 	                }
1018:.\main.c      **** 				    crc_total=0;
 4132              		.loc 1 1018 0 is_stmt 1
 4133 0f40 494B     		ldr	r3, .L416+8
 4134 0f42 0022     		movs	r2, #0
 4135 0f44 1A70     		strb	r2, [r3]
1019:.\main.c      **** 				    for(x=0;x<7;x++){
 4136              		.loc 1 1019 0
 4137 0f46 0023     		movs	r3, #0
ARM GAS  C:\Users\diego\AppData\Local\Temp\ccW8UKJI.s 			page 93


 4138 0f48 87F82F30 		strb	r3, [r7, #47]
 4139 0f4c 14E0     		b	.L211
 4140              	.L212:
1020:.\main.c      **** 				 	    crc_total=crc_check(crc_total,rventa1.id[x]);
 4141              		.loc 1 1020 0 discriminator 3
 4142 0f4e 464B     		ldr	r3, .L416+8
 4143 0f50 1978     		ldrb	r1, [r3]	@ zero_extendqisi2
 4144 0f52 97F82F30 		ldrb	r3, [r7, #47]	@ zero_extendqisi2
 4145 0f56 424A     		ldr	r2, .L416
 4146 0f58 1344     		add	r3, r3, r2
 4147 0f5a 93F82330 		ldrb	r3, [r3, #35]	@ zero_extendqisi2
 4148 0f5e 0846     		mov	r0, r1
 4149 0f60 1946     		mov	r1, r3
 4150 0f62 FFF7FEFF 		bl	crc_check
 4151 0f66 0346     		mov	r3, r0
 4152 0f68 1A46     		mov	r2, r3
 4153 0f6a 3F4B     		ldr	r3, .L416+8
 4154 0f6c 1A70     		strb	r2, [r3]
1019:.\main.c      **** 				    for(x=0;x<7;x++){
 4155              		.loc 1 1019 0 discriminator 3
 4156 0f6e 97F82F30 		ldrb	r3, [r7, #47]	@ zero_extendqisi2
 4157 0f72 0133     		adds	r3, r3, #1
 4158 0f74 87F82F30 		strb	r3, [r7, #47]
 4159              	.L211:
1019:.\main.c      **** 				    for(x=0;x<7;x++){
 4160              		.loc 1 1019 0 is_stmt 0 discriminator 1
 4161 0f78 97F82F30 		ldrb	r3, [r7, #47]	@ zero_extendqisi2
 4162 0f7c 062B     		cmp	r3, #6
 4163 0f7e E6D9     		bls	.L212
1021:.\main.c      **** 				    }					
1022:.\main.c      **** 				    if(crc_total==rventa1.id[7]){
 4164              		.loc 1 1022 0 is_stmt 1
 4165 0f80 374B     		ldr	r3, .L416
 4166 0f82 93F82A20 		ldrb	r2, [r3, #42]	@ zero_extendqisi2
 4167 0f86 384B     		ldr	r3, .L416+8
 4168 0f88 1B78     		ldrb	r3, [r3]	@ zero_extendqisi2
 4169 0f8a 9A42     		cmp	r2, r3
 4170 0f8c 42D1     		bne	.L208
1023:.\main.c      **** 		                set_imagen(1,19);
 4171              		.loc 1 1023 0
 4172 0f8e 0120     		movs	r0, #1
 4173 0f90 1321     		movs	r1, #19
 4174 0f92 FFF7FEFF 		bl	set_imagen
1024:.\main.c      **** 		                CyDelay(500);					 				 
 4175              		.loc 1 1024 0
 4176 0f96 4FF4FA70 		mov	r0, #500
 4177 0f9a FFF7FEFF 		bl	CyDelay
1025:.\main.c      **** 					    count_teclas1=0;							//Inicia el contador de teclas						    
 4178              		.loc 1 1025 0
 4179 0f9e 334B     		ldr	r3, .L416+12
 4180 0fa0 0022     		movs	r2, #0
 4181 0fa2 1A70     		strb	r2, [r3]
1026:.\main.c      **** 					    teclas1=10;
 4182              		.loc 1 1026 0
 4183 0fa4 324B     		ldr	r3, .L416+16
 4184 0fa6 0A22     		movs	r2, #10
 4185 0fa8 1A70     		strb	r2, [r3]
ARM GAS  C:\Users\diego\AppData\Local\Temp\ccW8UKJI.s 			page 94


1027:.\main.c      **** 					    posx1=2;
 4186              		.loc 1 1027 0
 4187 0faa 324B     		ldr	r3, .L416+20
 4188 0fac 0222     		movs	r2, #2
 4189 0fae 1A80     		strh	r2, [r3]	@ movhi
1028:.\main.c      **** 					    posy1=3;
 4190              		.loc 1 1028 0
 4191 0fb0 314B     		ldr	r3, .L416+24
 4192 0fb2 0322     		movs	r2, #3
 4193 0fb4 1A80     		strh	r2, [r3]	@ movhi
1029:.\main.c      **** 					    sizeletra1=1;	                        
 4194              		.loc 1 1029 0
 4195 0fb6 314B     		ldr	r3, .L416+28
 4196 0fb8 0122     		movs	r2, #1
 4197 0fba 1A80     		strh	r2, [r3]	@ movhi
1030:.\main.c      ****                         if(id_teclado1 ==10){
 4198              		.loc 1 1030 0
 4199 0fbc 304B     		ldr	r3, .L416+32
 4200 0fbe 1B78     		ldrb	r3, [r3]
 4201 0fc0 DBB2     		uxtb	r3, r3
 4202 0fc2 0A2B     		cmp	r3, #10
 4203 0fc4 06D1     		bne	.L213
1031:.\main.c      ****                             set_imagen(1,19);
 4204              		.loc 1 1031 0
 4205 0fc6 0120     		movs	r0, #1
 4206 0fc8 1321     		movs	r1, #19
 4207 0fca FFF7FEFF 		bl	set_imagen
1032:.\main.c      ****                             flujo_LCD1 = 19;
 4208              		.loc 1 1032 0
 4209 0fce 2D4B     		ldr	r3, .L416+36
 4210 0fd0 1322     		movs	r2, #19
 4211 0fd2 1A70     		strb	r2, [r3]
 4212              	.L213:
1033:.\main.c      ****                         }
1034:.\main.c      ****                         if(id_teclado1 ==8){
 4213              		.loc 1 1034 0
 4214 0fd4 2A4B     		ldr	r3, .L416+32
 4215 0fd6 1B78     		ldrb	r3, [r3]
 4216 0fd8 DBB2     		uxtb	r3, r3
 4217 0fda 082B     		cmp	r3, #8
 4218 0fdc 06D1     		bne	.L214
1035:.\main.c      ****                             set_imagen(1,36);
 4219              		.loc 1 1035 0
 4220 0fde 0120     		movs	r0, #1
 4221 0fe0 2421     		movs	r1, #36
 4222 0fe2 FFF7FEFF 		bl	set_imagen
1036:.\main.c      ****                             flujo_LCD1 = 12;
 4223              		.loc 1 1036 0
 4224 0fe6 274B     		ldr	r3, .L416+36
 4225 0fe8 0C22     		movs	r2, #12
 4226 0fea 1A70     		strb	r2, [r3]
 4227              	.L214:
1037:.\main.c      ****                         }
1038:.\main.c      ****                         if(id_teclado1 !=8 && id_teclado1 !=10){
 4228              		.loc 1 1038 0
 4229 0fec 244B     		ldr	r3, .L416+32
 4230 0fee 1B78     		ldrb	r3, [r3]
ARM GAS  C:\Users\diego\AppData\Local\Temp\ccW8UKJI.s 			page 95


 4231 0ff0 DBB2     		uxtb	r3, r3
 4232 0ff2 082B     		cmp	r3, #8
 4233 0ff4 0ED0     		beq	.L208
 4234              		.loc 1 1038 0 is_stmt 0 discriminator 1
 4235 0ff6 224B     		ldr	r3, .L416+32
 4236 0ff8 1B78     		ldrb	r3, [r3]
 4237 0ffa DBB2     		uxtb	r3, r3
 4238 0ffc 0A2B     		cmp	r3, #10
 4239 0ffe 09D0     		beq	.L208
1039:.\main.c      ****                             id_teclado1=2;
 4240              		.loc 1 1039 0 is_stmt 1
 4241 1000 1F4B     		ldr	r3, .L416+32
 4242 1002 0222     		movs	r2, #2
 4243 1004 1A70     		strb	r2, [r3]
1040:.\main.c      ****                             set_imagen(1,14);
 4244              		.loc 1 1040 0
 4245 1006 0120     		movs	r0, #1
 4246 1008 0E21     		movs	r1, #14
 4247 100a FFF7FEFF 		bl	set_imagen
1041:.\main.c      ****                             flujo_LCD1=12;
 4248              		.loc 1 1041 0
 4249 100e 1D4B     		ldr	r3, .L416+36
 4250 1010 0C22     		movs	r2, #12
 4251 1012 1A70     		strb	r2, [r3]
 4252              	.L208:
1042:.\main.c      ****                         }
1043:.\main.c      **** 					    	
1044:.\main.c      **** 				    }
1045:.\main.c      ****                 }
1046:.\main.c      ****             }        
1047:.\main.c      ****             if(LCD_1_GetRxBufferSize()==8){
 4253              		.loc 1 1047 0
 4254 1014 FFF7FEFF 		bl	LCD_1_GetRxBufferSize
 4255 1018 0346     		mov	r3, r0
 4256 101a 082B     		cmp	r3, #8
 4257 101c 1ED1     		bne	.L215
1048:.\main.c      ****                 if((LCD_1_rxBuffer[0]==0xAA) && (LCD_1_rxBuffer[6]==0xC3) && (LCD_1_rxBuffer[7]==0x
 4258              		.loc 1 1048 0
 4259 101e 1A4B     		ldr	r3, .L416+40
 4260 1020 1B78     		ldrb	r3, [r3]
 4261 1022 DBB2     		uxtb	r3, r3
 4262 1024 AA2B     		cmp	r3, #170
 4263 1026 12D1     		bne	.L216
 4264              		.loc 1 1048 0 is_stmt 0 discriminator 1
 4265 1028 174B     		ldr	r3, .L416+40
 4266 102a 9B79     		ldrb	r3, [r3, #6]
 4267 102c DBB2     		uxtb	r3, r3
 4268 102e C32B     		cmp	r3, #195
 4269 1030 0DD1     		bne	.L216
 4270              		.loc 1 1048 0 discriminator 2
 4271 1032 154B     		ldr	r3, .L416+40
 4272 1034 DB79     		ldrb	r3, [r3, #7]
 4273 1036 DBB2     		uxtb	r3, r3
 4274 1038 3C2B     		cmp	r3, #60
 4275 103a 08D1     		bne	.L216
1049:.\main.c      ****                     switch(LCD_1_rxBuffer[3]){
 4276              		.loc 1 1049 0 is_stmt 1
ARM GAS  C:\Users\diego\AppData\Local\Temp\ccW8UKJI.s 			page 96


 4277 103c 124B     		ldr	r3, .L416+40
 4278 103e DB78     		ldrb	r3, [r3, #3]
 4279 1040 DBB2     		uxtb	r3, r3
 4280 1042 3B2B     		cmp	r3, #59
 4281 1044 03D1     		bne	.L216
1050:.\main.c      ****                         case 0x3B:
1051:.\main.c      ****                             flujo_LCD1=0; 
 4282              		.loc 1 1051 0
 4283 1046 0F4B     		ldr	r3, .L416+36
 4284 1048 0022     		movs	r2, #0
 4285 104a 1A70     		strb	r2, [r3]
1052:.\main.c      ****                         break; 
 4286              		.loc 1 1052 0
 4287 104c 00BF     		nop
 4288              	.L216:
1053:.\main.c      ****                     }
1054:.\main.c      ****                 }
1055:.\main.c      ****                 CyDelay(100);            
 4289              		.loc 1 1055 0
 4290 104e 6420     		movs	r0, #100
 4291 1050 FFF7FEFF 		bl	CyDelay
1056:.\main.c      ****                 LCD_1_ClearRxBuffer();            
 4292              		.loc 1 1056 0
 4293 1054 FFF7FEFF 		bl	LCD_1_ClearRxBuffer
1057:.\main.c      ****         }		
1058:.\main.c      **** 		break;
 4294              		.loc 1 1058 0
 4295 1058 01F05BBD 		b	.L92
 4296              	.L215:
 4297              		.loc 1 1058 0 is_stmt 0 discriminator 10
 4298 105c 01F059BD 		b	.L92
 4299              	.L417:
 4300              		.align	2
 4301              	.L416:
 4302 1060 00000000 		.word	rventa1
 4303 1064 00000000 		.word	rf_mod
 4304 1068 00000000 		.word	crc_total
 4305 106c 00000000 		.word	count_teclas1
 4306 1070 00000000 		.word	teclas1
 4307 1074 00000000 		.word	posx1
 4308 1078 00000000 		.word	posy1
 4309 107c 00000000 		.word	sizeletra1
 4310 1080 00000000 		.word	id_teclado1
 4311 1084 00000000 		.word	flujo_LCD1
 4312 1088 00000000 		.word	LCD_1_rxBuffer
 4313              	.L105:
1059:.\main.c      ****         
1060:.\main.c      ****         
1061:.\main.c      ****         case 12: 
1062:.\main.c      ****          if(LCD_1_GetRxBufferSize()==8){
 4314              		.loc 1 1062 0 is_stmt 1
 4315 108c FFF7FEFF 		bl	LCD_1_GetRxBufferSize
 4316 1090 0346     		mov	r3, r0
 4317 1092 082B     		cmp	r3, #8
 4318 1094 40F04C85 		bne	.L218
1063:.\main.c      ****             if((LCD_1_rxBuffer[0]==0xAA) && (LCD_1_rxBuffer[6]==0xC3) && (LCD_1_rxBuffer[7]==0x3C))
 4319              		.loc 1 1063 0
ARM GAS  C:\Users\diego\AppData\Local\Temp\ccW8UKJI.s 			page 97


 4320 1098 A14B     		ldr	r3, .L418
 4321 109a 1B78     		ldrb	r3, [r3]
 4322 109c DBB2     		uxtb	r3, r3
 4323 109e AA2B     		cmp	r3, #170
 4324 10a0 40F04285 		bne	.L219
 4325              		.loc 1 1063 0 is_stmt 0 discriminator 1
 4326 10a4 9E4B     		ldr	r3, .L418
 4327 10a6 9B79     		ldrb	r3, [r3, #6]
 4328 10a8 DBB2     		uxtb	r3, r3
 4329 10aa C32B     		cmp	r3, #195
 4330 10ac 40F03C85 		bne	.L219
 4331              		.loc 1 1063 0 discriminator 2
 4332 10b0 9B4B     		ldr	r3, .L418
 4333 10b2 DB79     		ldrb	r3, [r3, #7]
 4334 10b4 DBB2     		uxtb	r3, r3
 4335 10b6 3C2B     		cmp	r3, #60
 4336 10b8 40F03685 		bne	.L219
1064:.\main.c      **** 				count_protector=0;
 4337              		.loc 1 1064 0 is_stmt 1
 4338 10bc 994B     		ldr	r3, .L418+4
 4339 10be 0022     		movs	r2, #0
 4340 10c0 1A70     		strb	r2, [r3]
1065:.\main.c      ****                 if(count_teclas1<teclas1){									
 4341              		.loc 1 1065 0
 4342 10c2 994B     		ldr	r3, .L418+8
 4343 10c4 1B78     		ldrb	r3, [r3]
 4344 10c6 DAB2     		uxtb	r2, r3
 4345 10c8 984B     		ldr	r3, .L418+12
 4346 10ca 1B78     		ldrb	r3, [r3]
 4347 10cc DBB2     		uxtb	r3, r3
 4348 10ce 9A42     		cmp	r2, r3
 4349 10d0 80F0BD80 		bcs	.L220
1066:.\main.c      ****                     if(LCD_1_rxBuffer[3]<=9){								//Numero de 1-9
 4350              		.loc 1 1066 0
 4351 10d4 924B     		ldr	r3, .L418
 4352 10d6 DB78     		ldrb	r3, [r3, #3]
 4353 10d8 DBB2     		uxtb	r3, r3
 4354 10da 092B     		cmp	r3, #9
 4355 10dc 32D8     		bhi	.L221
1067:.\main.c      ****                         count_teclas1++;
 4356              		.loc 1 1067 0
 4357 10de 924B     		ldr	r3, .L418+8
 4358 10e0 1B78     		ldrb	r3, [r3]
 4359 10e2 DBB2     		uxtb	r3, r3
 4360 10e4 0133     		adds	r3, r3, #1
 4361 10e6 DAB2     		uxtb	r2, r3
 4362 10e8 8F4B     		ldr	r3, .L418+8
 4363 10ea 1A70     		strb	r2, [r3]
1068:.\main.c      ****                         Buffer_LCD1[count_teclas1]=LCD_1_rxBuffer[3];
 4364              		.loc 1 1068 0
 4365 10ec 8E4B     		ldr	r3, .L418+8
 4366 10ee 1B78     		ldrb	r3, [r3]
 4367 10f0 DBB2     		uxtb	r3, r3
 4368 10f2 1A46     		mov	r2, r3
 4369 10f4 8A4B     		ldr	r3, .L418
 4370 10f6 DB78     		ldrb	r3, [r3, #3]
 4371 10f8 D9B2     		uxtb	r1, r3
ARM GAS  C:\Users\diego\AppData\Local\Temp\ccW8UKJI.s 			page 98


 4372 10fa 8D4B     		ldr	r3, .L418+16
 4373 10fc 9954     		strb	r1, [r3, r2]
1069:.\main.c      ****                         write_LCD(1,(LCD_1_rxBuffer[3]+0x30), posy1, ((count_teclas1*(sizeletra1+1)
 4374              		.loc 1 1069 0
 4375 10fe 884B     		ldr	r3, .L418
 4376 1100 DB78     		ldrb	r3, [r3, #3]
 4377 1102 DBB2     		uxtb	r3, r3
 4378 1104 3033     		adds	r3, r3, #48
 4379 1106 D9B2     		uxtb	r1, r3
 4380 1108 8A4B     		ldr	r3, .L418+20
 4381 110a 1B88     		ldrh	r3, [r3]	@ movhi
 4382 110c 9DB2     		uxth	r5, r3
 4383 110e 864B     		ldr	r3, .L418+8
 4384 1110 1B78     		ldrb	r3, [r3]
 4385 1112 DBB2     		uxtb	r3, r3
 4386 1114 9BB2     		uxth	r3, r3
 4387 1116 884A     		ldr	r2, .L418+24
 4388 1118 1288     		ldrh	r2, [r2]	@ movhi
 4389 111a 92B2     		uxth	r2, r2
 4390 111c 0132     		adds	r2, r2, #1
 4391 111e 92B2     		uxth	r2, r2
 4392 1120 02FB03F3 		mul	r3, r2, r3
 4393 1124 9AB2     		uxth	r2, r3
 4394 1126 854B     		ldr	r3, .L418+28
 4395 1128 1B88     		ldrh	r3, [r3]	@ movhi
 4396 112a 9BB2     		uxth	r3, r3
 4397 112c 1344     		add	r3, r3, r2
 4398 112e 9CB2     		uxth	r4, r3
 4399 1130 814B     		ldr	r3, .L418+24
 4400 1132 1B88     		ldrh	r3, [r3]	@ movhi
 4401 1134 9BB2     		uxth	r3, r3
 4402 1136 DBB2     		uxtb	r3, r3
 4403 1138 0093     		str	r3, [sp]
 4404 113a 0120     		movs	r0, #1
 4405 113c 2A46     		mov	r2, r5
 4406 113e 2346     		mov	r3, r4
 4407 1140 FFF7FEFF 		bl	write_LCD
 4408              	.L221:
1070:.\main.c      ****                     }
1071:.\main.c      ****                     if(LCD_1_rxBuffer[3]==0x0A){            				//Comando de 0
 4409              		.loc 1 1071 0
 4410 1144 764B     		ldr	r3, .L418
 4411 1146 DB78     		ldrb	r3, [r3, #3]
 4412 1148 DBB2     		uxtb	r3, r3
 4413 114a 0A2B     		cmp	r3, #10
 4414 114c 3CD1     		bne	.L222
1072:.\main.c      **** 						if((id_teclado1==1)&&(count_teclas1==1)&&(Buffer_LCD1[1]==0)){
 4415              		.loc 1 1072 0
 4416 114e 7C4B     		ldr	r3, .L418+32
 4417 1150 1B78     		ldrb	r3, [r3]
 4418 1152 DBB2     		uxtb	r3, r3
 4419 1154 012B     		cmp	r3, #1
 4420 1156 0AD1     		bne	.L223
 4421              		.loc 1 1072 0 is_stmt 0 discriminator 1
 4422 1158 734B     		ldr	r3, .L418+8
 4423 115a 1B78     		ldrb	r3, [r3]
 4424 115c DBB2     		uxtb	r3, r3
ARM GAS  C:\Users\diego\AppData\Local\Temp\ccW8UKJI.s 			page 99


 4425 115e 012B     		cmp	r3, #1
 4426 1160 05D1     		bne	.L223
 4427              		.loc 1 1072 0 discriminator 2
 4428 1162 734B     		ldr	r3, .L418+16
 4429 1164 5B78     		ldrb	r3, [r3, #1]
 4430 1166 DBB2     		uxtb	r3, r3
 4431 1168 002B     		cmp	r3, #0
 4432 116a 00D1     		bne	.L223
 4433              		.loc 1 1072 0
 4434 116c 2CE0     		b	.L222
 4435              	.L223:
1073:.\main.c      **** 						}
1074:.\main.c      **** 						else{
1075:.\main.c      **** 	                        count_teclas1++;
 4436              		.loc 1 1075 0 is_stmt 1
 4437 116e 6E4B     		ldr	r3, .L418+8
 4438 1170 1B78     		ldrb	r3, [r3]
 4439 1172 DBB2     		uxtb	r3, r3
 4440 1174 0133     		adds	r3, r3, #1
 4441 1176 DAB2     		uxtb	r2, r3
 4442 1178 6B4B     		ldr	r3, .L418+8
 4443 117a 1A70     		strb	r2, [r3]
1076:.\main.c      **** 	                        Buffer_LCD1[count_teclas1]=0;
 4444              		.loc 1 1076 0
 4445 117c 6A4B     		ldr	r3, .L418+8
 4446 117e 1B78     		ldrb	r3, [r3]
 4447 1180 DBB2     		uxtb	r3, r3
 4448 1182 1A46     		mov	r2, r3
 4449 1184 6A4B     		ldr	r3, .L418+16
 4450 1186 0021     		movs	r1, #0
 4451 1188 9954     		strb	r1, [r3, r2]
1077:.\main.c      **** 							write_LCD(1,0x30, posy1, ((count_teclas1*(sizeletra1+1))+posx1), sizeletra1);
 4452              		.loc 1 1077 0
 4453 118a 6A4B     		ldr	r3, .L418+20
 4454 118c 1B88     		ldrh	r3, [r3]	@ movhi
 4455 118e 9DB2     		uxth	r5, r3
 4456 1190 654B     		ldr	r3, .L418+8
 4457 1192 1B78     		ldrb	r3, [r3]
 4458 1194 DBB2     		uxtb	r3, r3
 4459 1196 9BB2     		uxth	r3, r3
 4460 1198 674A     		ldr	r2, .L418+24
 4461 119a 1288     		ldrh	r2, [r2]	@ movhi
 4462 119c 92B2     		uxth	r2, r2
 4463 119e 0132     		adds	r2, r2, #1
 4464 11a0 92B2     		uxth	r2, r2
 4465 11a2 02FB03F3 		mul	r3, r2, r3
 4466 11a6 9AB2     		uxth	r2, r3
 4467 11a8 644B     		ldr	r3, .L418+28
 4468 11aa 1B88     		ldrh	r3, [r3]	@ movhi
 4469 11ac 9BB2     		uxth	r3, r3
 4470 11ae 1344     		add	r3, r3, r2
 4471 11b0 9CB2     		uxth	r4, r3
 4472 11b2 614B     		ldr	r3, .L418+24
 4473 11b4 1B88     		ldrh	r3, [r3]	@ movhi
 4474 11b6 9BB2     		uxth	r3, r3
 4475 11b8 DBB2     		uxtb	r3, r3
 4476 11ba 0093     		str	r3, [sp]
ARM GAS  C:\Users\diego\AppData\Local\Temp\ccW8UKJI.s 			page 100


 4477 11bc 0120     		movs	r0, #1
 4478 11be 3021     		movs	r1, #48
 4479 11c0 2A46     		mov	r2, r5
 4480 11c2 2346     		mov	r3, r4
 4481 11c4 FFF7FEFF 		bl	write_LCD
 4482              	.L222:
1078:.\main.c      **** 						}
1079:.\main.c      ****                     }  
1080:.\main.c      ****                     if(LCD_1_rxBuffer[3]==0x51){            	 			//Comando de Coma
 4483              		.loc 1 1080 0
 4484 11c8 554B     		ldr	r3, .L418
 4485 11ca DB78     		ldrb	r3, [r3, #3]
 4486 11cc DBB2     		uxtb	r3, r3
 4487 11ce 512B     		cmp	r3, #81
 4488 11d0 3DD1     		bne	.L220
1081:.\main.c      ****                         if(count_teclas1>=1 && comas1==0){
 4489              		.loc 1 1081 0
 4490 11d2 554B     		ldr	r3, .L418+8
 4491 11d4 1B78     		ldrb	r3, [r3]
 4492 11d6 DBB2     		uxtb	r3, r3
 4493 11d8 002B     		cmp	r3, #0
 4494 11da 38D0     		beq	.L220
 4495              		.loc 1 1081 0 is_stmt 0 discriminator 1
 4496 11dc 594B     		ldr	r3, .L418+36
 4497 11de 1B78     		ldrb	r3, [r3]
 4498 11e0 DBB2     		uxtb	r3, r3
 4499 11e2 002B     		cmp	r3, #0
 4500 11e4 33D1     		bne	.L220
1082:.\main.c      ****                             count_teclas1++;
 4501              		.loc 1 1082 0 is_stmt 1
 4502 11e6 504B     		ldr	r3, .L418+8
 4503 11e8 1B78     		ldrb	r3, [r3]
 4504 11ea DBB2     		uxtb	r3, r3
 4505 11ec 0133     		adds	r3, r3, #1
 4506 11ee DAB2     		uxtb	r2, r3
 4507 11f0 4D4B     		ldr	r3, .L418+8
 4508 11f2 1A70     		strb	r2, [r3]
1083:.\main.c      ****                             Buffer_LCD1[count_teclas1]=id_coma1;
 4509              		.loc 1 1083 0
 4510 11f4 4C4B     		ldr	r3, .L418+8
 4511 11f6 1B78     		ldrb	r3, [r3]
 4512 11f8 DBB2     		uxtb	r3, r3
 4513 11fa 1A46     		mov	r2, r3
 4514 11fc 524B     		ldr	r3, .L418+40
 4515 11fe 1B78     		ldrb	r3, [r3]
 4516 1200 D9B2     		uxtb	r1, r3
 4517 1202 4B4B     		ldr	r3, .L418+16
 4518 1204 9954     		strb	r1, [r3, r2]
1084:.\main.c      **** 							write_LCD(1,id_coma1, posy1, ((count_teclas1*(sizeletra1+1))+posx1), sizeletra1);
 4519              		.loc 1 1084 0
 4520 1206 504B     		ldr	r3, .L418+40
 4521 1208 1B78     		ldrb	r3, [r3]
 4522 120a D9B2     		uxtb	r1, r3
 4523 120c 494B     		ldr	r3, .L418+20
 4524 120e 1B88     		ldrh	r3, [r3]	@ movhi
 4525 1210 9DB2     		uxth	r5, r3
 4526 1212 454B     		ldr	r3, .L418+8
ARM GAS  C:\Users\diego\AppData\Local\Temp\ccW8UKJI.s 			page 101


 4527 1214 1B78     		ldrb	r3, [r3]
 4528 1216 DBB2     		uxtb	r3, r3
 4529 1218 9BB2     		uxth	r3, r3
 4530 121a 474A     		ldr	r2, .L418+24
 4531 121c 1288     		ldrh	r2, [r2]	@ movhi
 4532 121e 92B2     		uxth	r2, r2
 4533 1220 0132     		adds	r2, r2, #1
 4534 1222 92B2     		uxth	r2, r2
 4535 1224 02FB03F3 		mul	r3, r2, r3
 4536 1228 9AB2     		uxth	r2, r3
 4537 122a 444B     		ldr	r3, .L418+28
 4538 122c 1B88     		ldrh	r3, [r3]	@ movhi
 4539 122e 9BB2     		uxth	r3, r3
 4540 1230 1344     		add	r3, r3, r2
 4541 1232 9CB2     		uxth	r4, r3
 4542 1234 404B     		ldr	r3, .L418+24
 4543 1236 1B88     		ldrh	r3, [r3]	@ movhi
 4544 1238 9BB2     		uxth	r3, r3
 4545 123a DBB2     		uxtb	r3, r3
 4546 123c 0093     		str	r3, [sp]
 4547 123e 0120     		movs	r0, #1
 4548 1240 2A46     		mov	r2, r5
 4549 1242 2346     		mov	r3, r4
 4550 1244 FFF7FEFF 		bl	write_LCD
1085:.\main.c      ****                             comas1=1;
 4551              		.loc 1 1085 0
 4552 1248 3E4B     		ldr	r3, .L418+36
 4553 124a 0122     		movs	r2, #1
 4554 124c 1A70     		strb	r2, [r3]
 4555              	.L220:
1086:.\main.c      ****                         }
1087:.\main.c      ****                     }                    
1088:.\main.c      ****                 }
1089:.\main.c      ****                 if(LCD_1_rxBuffer[3]==0x0B){								//Cancel
 4556              		.loc 1 1089 0
 4557 124e 344B     		ldr	r3, .L418
 4558 1250 DB78     		ldrb	r3, [r3, #3]
 4559 1252 DBB2     		uxtb	r3, r3
 4560 1254 0B2B     		cmp	r3, #11
 4561 1256 40F0B980 		bne	.L224
1090:.\main.c      ****                     if(count_teclas1==0){
 4562              		.loc 1 1090 0
 4563 125a 334B     		ldr	r3, .L418+8
 4564 125c 1B78     		ldrb	r3, [r3]
 4565 125e DBB2     		uxtb	r3, r3
 4566 1260 002B     		cmp	r3, #0
 4567 1262 77D1     		bne	.L225
1091:.\main.c      **** 						switch(id_teclado1){
 4568              		.loc 1 1091 0
 4569 1264 364B     		ldr	r3, .L418+32
 4570 1266 1B78     		ldrb	r3, [r3]
 4571 1268 DBB2     		uxtb	r3, r3
 4572 126a 013B     		subs	r3, r3, #1
 4573 126c 072B     		cmp	r3, #7
 4574 126e 00F2AD80 		bhi	.L224
 4575 1272 01A2     		adr	r2, .L228
 4576 1274 52F823F0 		ldr	pc, [r2, r3, lsl #2]
ARM GAS  C:\Users\diego\AppData\Local\Temp\ccW8UKJI.s 			page 102


 4577              		.p2align 2
 4578              	.L228:
 4579 1278 99120000 		.word	.L227+1
 4580 127c A9120000 		.word	.L229+1
 4581 1280 B1120000 		.word	.L230+1
 4582 1284 C7120000 		.word	.L231+1
 4583 1288 DD120000 		.word	.L232+1
 4584 128c F3120000 		.word	.L233+1
 4585 1290 CD130000 		.word	.L224+1
 4586 1294 09130000 		.word	.L234+1
 4587              		.p2align 1
 4588              	.L227:
1092:.\main.c      **** 							case 1:
1093:.\main.c      **** 							set_imagen(1,5);
 4589              		.loc 1 1093 0
 4590 1298 0120     		movs	r0, #1
 4591 129a 0521     		movs	r1, #5
 4592 129c FFF7FEFF 		bl	set_imagen
1094:.\main.c      **** 							flujo_LCD1=4;
 4593              		.loc 1 1094 0
 4594 12a0 2A4B     		ldr	r3, .L418+44
 4595 12a2 0422     		movs	r2, #4
 4596 12a4 1A70     		strb	r2, [r3]
1095:.\main.c      **** 							break;
 4597              		.loc 1 1095 0
 4598 12a6 3AE0     		b	.L226
 4599              	.L229:
1096:.\main.c      **** 							case 2:
1097:.\main.c      **** 	                        flujo_LCD1=0;	
 4600              		.loc 1 1097 0
 4601 12a8 284B     		ldr	r3, .L418+44
 4602 12aa 0022     		movs	r2, #0
 4603 12ac 1A70     		strb	r2, [r3]
1098:.\main.c      **** 							break;
 4604              		.loc 1 1098 0
 4605 12ae 36E0     		b	.L226
 4606              	.L230:
1099:.\main.c      **** 							case 3:
1100:.\main.c      **** 							set_imagen(1,0);
 4607              		.loc 1 1100 0
 4608 12b0 0120     		movs	r0, #1
 4609 12b2 0021     		movs	r1, #0
 4610 12b4 FFF7FEFF 		bl	set_imagen
1101:.\main.c      **** 							flujo_LCD1=0;
 4611              		.loc 1 1101 0
 4612 12b8 244B     		ldr	r3, .L418+44
 4613 12ba 0022     		movs	r2, #0
 4614 12bc 1A70     		strb	r2, [r3]
1102:.\main.c      **** 							lado1.estado=libre;
 4615              		.loc 1 1102 0
 4616 12be 244B     		ldr	r3, .L418+48
 4617 12c0 0122     		movs	r2, #1
 4618 12c2 5A70     		strb	r2, [r3, #1]
1103:.\main.c      **** 							break;
 4619              		.loc 1 1103 0
 4620 12c4 2BE0     		b	.L226
 4621              	.L231:
ARM GAS  C:\Users\diego\AppData\Local\Temp\ccW8UKJI.s 			page 103


1104:.\main.c      **** 							case 4:
1105:.\main.c      **** 							set_imagen(1,0);
 4622              		.loc 1 1105 0
 4623 12c6 0120     		movs	r0, #1
 4624 12c8 0021     		movs	r1, #0
 4625 12ca FFF7FEFF 		bl	set_imagen
1106:.\main.c      **** 							flujo_LCD1=0;
 4626              		.loc 1 1106 0
 4627 12ce 1F4B     		ldr	r3, .L418+44
 4628 12d0 0022     		movs	r2, #0
 4629 12d2 1A70     		strb	r2, [r3]
1107:.\main.c      **** 							lado1.estado=libre;
 4630              		.loc 1 1107 0
 4631 12d4 1E4B     		ldr	r3, .L418+48
 4632 12d6 0122     		movs	r2, #1
 4633 12d8 5A70     		strb	r2, [r3, #1]
1108:.\main.c      **** 							break;
 4634              		.loc 1 1108 0
 4635 12da 20E0     		b	.L226
 4636              	.L232:
1109:.\main.c      ****                             case 5:
1110:.\main.c      **** 							set_imagen(1,0);
 4637              		.loc 1 1110 0
 4638 12dc 0120     		movs	r0, #1
 4639 12de 0021     		movs	r1, #0
 4640 12e0 FFF7FEFF 		bl	set_imagen
1111:.\main.c      **** 							flujo_LCD1=0;
 4641              		.loc 1 1111 0
 4642 12e4 194B     		ldr	r3, .L418+44
 4643 12e6 0022     		movs	r2, #0
 4644 12e8 1A70     		strb	r2, [r3]
1112:.\main.c      **** 							lado1.estado=libre;                            
 4645              		.loc 1 1112 0
 4646 12ea 194B     		ldr	r3, .L418+48
 4647 12ec 0122     		movs	r2, #1
 4648 12ee 5A70     		strb	r2, [r3, #1]
1113:.\main.c      ****                             break;
 4649              		.loc 1 1113 0
 4650 12f0 15E0     		b	.L226
 4651              	.L233:
1114:.\main.c      ****                             case 6:
1115:.\main.c      **** 							set_imagen(1,0);
 4652              		.loc 1 1115 0
 4653 12f2 0120     		movs	r0, #1
 4654 12f4 0021     		movs	r1, #0
 4655 12f6 FFF7FEFF 		bl	set_imagen
1116:.\main.c      **** 							flujo_LCD1=0;
 4656              		.loc 1 1116 0
 4657 12fa 144B     		ldr	r3, .L418+44
 4658 12fc 0022     		movs	r2, #0
 4659 12fe 1A70     		strb	r2, [r3]
1117:.\main.c      **** 							lado1.estado=libre;                            
 4660              		.loc 1 1117 0
 4661 1300 134B     		ldr	r3, .L418+48
 4662 1302 0122     		movs	r2, #1
 4663 1304 5A70     		strb	r2, [r3, #1]
1118:.\main.c      ****                             break;  
ARM GAS  C:\Users\diego\AppData\Local\Temp\ccW8UKJI.s 			page 104


 4664              		.loc 1 1118 0
 4665 1306 0AE0     		b	.L226
 4666              	.L234:
1119:.\main.c      ****                             case 8:
1120:.\main.c      **** 							set_imagen(1,0);
 4667              		.loc 1 1120 0
 4668 1308 0120     		movs	r0, #1
 4669 130a 0021     		movs	r1, #0
 4670 130c FFF7FEFF 		bl	set_imagen
1121:.\main.c      **** 							flujo_LCD1 = 0;
 4671              		.loc 1 1121 0
 4672 1310 0E4B     		ldr	r3, .L418+44
 4673 1312 0022     		movs	r2, #0
 4674 1314 1A70     		strb	r2, [r3]
1122:.\main.c      **** 							lado1.estado=libre;                            
 4675              		.loc 1 1122 0
 4676 1316 0E4B     		ldr	r3, .L418+48
 4677 1318 0122     		movs	r2, #1
 4678 131a 5A70     		strb	r2, [r3, #1]
1123:.\main.c      ****                             break;                             
 4679              		.loc 1 1123 0
 4680 131c 00BF     		nop
 4681              	.L226:
 4682 131e 55E0     		b	.L224
 4683              	.L419:
 4684              		.align	2
 4685              	.L418:
 4686 1320 00000000 		.word	LCD_1_rxBuffer
 4687 1324 00000000 		.word	count_protector
 4688 1328 00000000 		.word	count_teclas1
 4689 132c 00000000 		.word	teclas1
 4690 1330 00000000 		.word	Buffer_LCD1
 4691 1334 00000000 		.word	posy1
 4692 1338 00000000 		.word	sizeletra1
 4693 133c 00000000 		.word	posx1
 4694 1340 00000000 		.word	id_teclado1
 4695 1344 00000000 		.word	comas1
 4696 1348 00000000 		.word	id_coma1
 4697 134c 00000000 		.word	flujo_LCD1
 4698 1350 00000000 		.word	lado1
 4699              	.L225:
1124:.\main.c      **** 						}
1125:.\main.c      ****                     }
1126:.\main.c      ****                     else{
1127:.\main.c      **** 						write_LCD(1,0x20, posy1, ((count_teclas1*(sizeletra1+1))+posx1), sizeletra1);
 4700              		.loc 1 1127 0
 4701 1354 A74B     		ldr	r3, .L420
 4702 1356 1B88     		ldrh	r3, [r3]	@ movhi
 4703 1358 9DB2     		uxth	r5, r3
 4704 135a A74B     		ldr	r3, .L420+4
 4705 135c 1B78     		ldrb	r3, [r3]
 4706 135e DBB2     		uxtb	r3, r3
 4707 1360 9BB2     		uxth	r3, r3
 4708 1362 A64A     		ldr	r2, .L420+8
 4709 1364 1288     		ldrh	r2, [r2]	@ movhi
 4710 1366 92B2     		uxth	r2, r2
 4711 1368 0132     		adds	r2, r2, #1
ARM GAS  C:\Users\diego\AppData\Local\Temp\ccW8UKJI.s 			page 105


 4712 136a 92B2     		uxth	r2, r2
 4713 136c 02FB03F3 		mul	r3, r2, r3
 4714 1370 9AB2     		uxth	r2, r3
 4715 1372 A34B     		ldr	r3, .L420+12
 4716 1374 1B88     		ldrh	r3, [r3]	@ movhi
 4717 1376 9BB2     		uxth	r3, r3
 4718 1378 1344     		add	r3, r3, r2
 4719 137a 9CB2     		uxth	r4, r3
 4720 137c 9F4B     		ldr	r3, .L420+8
 4721 137e 1B88     		ldrh	r3, [r3]	@ movhi
 4722 1380 9BB2     		uxth	r3, r3
 4723 1382 DBB2     		uxtb	r3, r3
 4724 1384 0093     		str	r3, [sp]
 4725 1386 0120     		movs	r0, #1
 4726 1388 2021     		movs	r1, #32
 4727 138a 2A46     		mov	r2, r5
 4728 138c 2346     		mov	r3, r4
 4729 138e FFF7FEFF 		bl	write_LCD
1128:.\main.c      ****                         if(Buffer_LCD1[count_teclas1]==id_coma1){
 4730              		.loc 1 1128 0
 4731 1392 994B     		ldr	r3, .L420+4
 4732 1394 1B78     		ldrb	r3, [r3]
 4733 1396 DBB2     		uxtb	r3, r3
 4734 1398 1A46     		mov	r2, r3
 4735 139a 9A4B     		ldr	r3, .L420+16
 4736 139c 9B5C     		ldrb	r3, [r3, r2]
 4737 139e DAB2     		uxtb	r2, r3
 4738 13a0 994B     		ldr	r3, .L420+20
 4739 13a2 1B78     		ldrb	r3, [r3]
 4740 13a4 DBB2     		uxtb	r3, r3
 4741 13a6 9A42     		cmp	r2, r3
 4742 13a8 02D1     		bne	.L235
1129:.\main.c      ****                             comas1=0;
 4743              		.loc 1 1129 0
 4744 13aa 984B     		ldr	r3, .L420+24
 4745 13ac 0022     		movs	r2, #0
 4746 13ae 1A70     		strb	r2, [r3]
 4747              	.L235:
1130:.\main.c      ****                         }
1131:.\main.c      **** 						Buffer_LCD1[count_teclas1]=0;
 4748              		.loc 1 1131 0
 4749 13b0 914B     		ldr	r3, .L420+4
 4750 13b2 1B78     		ldrb	r3, [r3]
 4751 13b4 DBB2     		uxtb	r3, r3
 4752 13b6 1A46     		mov	r2, r3
 4753 13b8 924B     		ldr	r3, .L420+16
 4754 13ba 0021     		movs	r1, #0
 4755 13bc 9954     		strb	r1, [r3, r2]
1132:.\main.c      ****                         count_teclas1--;
 4756              		.loc 1 1132 0
 4757 13be 8E4B     		ldr	r3, .L420+4
 4758 13c0 1B78     		ldrb	r3, [r3]
 4759 13c2 DBB2     		uxtb	r3, r3
 4760 13c4 013B     		subs	r3, r3, #1
 4761 13c6 DAB2     		uxtb	r2, r3
 4762 13c8 8B4B     		ldr	r3, .L420+4
 4763 13ca 1A70     		strb	r2, [r3]
ARM GAS  C:\Users\diego\AppData\Local\Temp\ccW8UKJI.s 			page 106


 4764              	.L224:
1133:.\main.c      ****                     }
1134:.\main.c      ****                 }
1135:.\main.c      ****                 if(LCD_1_rxBuffer[3]==0x0C){								//Enter
 4765              		.loc 1 1135 0
 4766 13cc 904B     		ldr	r3, .L420+28
 4767 13ce DB78     		ldrb	r3, [r3, #3]
 4768 13d0 DBB2     		uxtb	r3, r3
 4769 13d2 0C2B     		cmp	r3, #12
 4770 13d4 40F0A883 		bne	.L219
1136:.\main.c      **** 					switch(id_teclado1){
 4771              		.loc 1 1136 0
 4772 13d8 8E4B     		ldr	r3, .L420+32
 4773 13da 1B78     		ldrb	r3, [r3]
 4774 13dc DBB2     		uxtb	r3, r3
 4775 13de 013B     		subs	r3, r3, #1
 4776 13e0 072B     		cmp	r3, #7
 4777 13e2 00F2A183 		bhi	.L219
 4778 13e6 01A2     		adr	r2, .L237
 4779 13e8 52F823F0 		ldr	pc, [r2, r3, lsl #2]
 4780              		.p2align 2
 4781              	.L237:
 4782 13ec 0D140000 		.word	.L236+1
 4783 13f0 73150000 		.word	.L238+1
 4784 13f4 EB150000 		.word	.L239+1
 4785 13f8 97160000 		.word	.L240+1
 4786 13fc F1160000 		.word	.L241+1
 4787 1400 AF170000 		.word	.L242+1
 4788 1404 E1170000 		.word	.L243+1
 4789 1408 C9190000 		.word	.L244+1
 4790              		.p2align 1
 4791              	.L236:
1137:.\main.c      **** 						case 1:
1138:.\main.c      **** 							for(x=0;x<=7;x++){
 4792              		.loc 1 1138 0
 4793 140c 0023     		movs	r3, #0
 4794 140e 87F82F30 		strb	r3, [r7, #47]
 4795 1412 0CE0     		b	.L245
 4796              	.L246:
1139:.\main.c      **** 								numero[x]=0;
 4797              		.loc 1 1139 0 discriminator 3
 4798 1414 97F82F30 		ldrb	r3, [r7, #47]	@ zero_extendqisi2
 4799 1418 07F13002 		add	r2, r7, #48
 4800 141c 1344     		add	r3, r3, r2
 4801 141e 0022     		movs	r2, #0
 4802 1420 03F82C2C 		strb	r2, [r3, #-44]
1138:.\main.c      **** 								numero[x]=0;
 4803              		.loc 1 1138 0 discriminator 3
 4804 1424 97F82F30 		ldrb	r3, [r7, #47]	@ zero_extendqisi2
 4805 1428 0133     		adds	r3, r3, #1
 4806 142a 87F82F30 		strb	r3, [r7, #47]
 4807              	.L245:
1138:.\main.c      **** 								numero[x]=0;
 4808              		.loc 1 1138 0 is_stmt 0 discriminator 1
 4809 142e 97F82F30 		ldrb	r3, [r7, #47]	@ zero_extendqisi2
 4810 1432 072B     		cmp	r3, #7
 4811 1434 EED9     		bls	.L246
ARM GAS  C:\Users\diego\AppData\Local\Temp\ccW8UKJI.s 			page 107


1140:.\main.c      **** 							}						
1141:.\main.c      **** 							if((count_teclas1>=1)&&(Buffer_LCD1[count_teclas1]!=',')){
 4812              		.loc 1 1141 0 is_stmt 1
 4813 1436 704B     		ldr	r3, .L420+4
 4814 1438 1B78     		ldrb	r3, [r3]
 4815 143a DBB2     		uxtb	r3, r3
 4816 143c 002B     		cmp	r3, #0
 4817 143e 00F09780 		beq	.L247
 4818              		.loc 1 1141 0 is_stmt 0 discriminator 1
 4819 1442 6D4B     		ldr	r3, .L420+4
 4820 1444 1B78     		ldrb	r3, [r3]
 4821 1446 DBB2     		uxtb	r3, r3
 4822 1448 1A46     		mov	r2, r3
 4823 144a 6E4B     		ldr	r3, .L420+16
 4824 144c 9B5C     		ldrb	r3, [r3, r2]
 4825 144e DBB2     		uxtb	r3, r3
 4826 1450 2C2B     		cmp	r3, #44
 4827 1452 00F08D80 		beq	.L247
1142:.\main.c      **** 								for(x=1;x<=count_teclas1;x++){
 4828              		.loc 1 1142 0 is_stmt 1
 4829 1456 0123     		movs	r3, #1
 4830 1458 87F82F30 		strb	r3, [r7, #47]
 4831 145c 28E0     		b	.L248
 4832              	.L251:
1143:.\main.c      **** 									if(Buffer_LCD1[x]!=','){
 4833              		.loc 1 1143 0
 4834 145e 97F82F30 		ldrb	r3, [r7, #47]	@ zero_extendqisi2
 4835 1462 684A     		ldr	r2, .L420+16
 4836 1464 D35C     		ldrb	r3, [r2, r3]
 4837 1466 DBB2     		uxtb	r3, r3
 4838 1468 2C2B     		cmp	r3, #44
 4839 146a 0FD0     		beq	.L249
1144:.\main.c      **** 										numero[x-1]=Buffer_LCD1[x]+48;
 4840              		.loc 1 1144 0
 4841 146c 97F82F30 		ldrb	r3, [r7, #47]	@ zero_extendqisi2
 4842 1470 013B     		subs	r3, r3, #1
 4843 1472 97F82F20 		ldrb	r2, [r7, #47]	@ zero_extendqisi2
 4844 1476 6349     		ldr	r1, .L420+16
 4845 1478 8A5C     		ldrb	r2, [r1, r2]
 4846 147a D2B2     		uxtb	r2, r2
 4847 147c 3032     		adds	r2, r2, #48
 4848 147e D2B2     		uxtb	r2, r2
 4849 1480 07F13001 		add	r1, r7, #48
 4850 1484 0B44     		add	r3, r3, r1
 4851 1486 03F82C2C 		strb	r2, [r3, #-44]
 4852 148a 0CE0     		b	.L250
 4853              	.L249:
1145:.\main.c      **** 									}
1146:.\main.c      **** 									else{
1147:.\main.c      **** 										numero[x-1]=Buffer_LCD1[x];
 4854              		.loc 1 1147 0
 4855 148c 97F82F30 		ldrb	r3, [r7, #47]	@ zero_extendqisi2
 4856 1490 013B     		subs	r3, r3, #1
 4857 1492 97F82F20 		ldrb	r2, [r7, #47]	@ zero_extendqisi2
 4858 1496 5B49     		ldr	r1, .L420+16
 4859 1498 8A5C     		ldrb	r2, [r1, r2]
 4860 149a D2B2     		uxtb	r2, r2
ARM GAS  C:\Users\diego\AppData\Local\Temp\ccW8UKJI.s 			page 108


 4861 149c 07F13001 		add	r1, r7, #48
 4862 14a0 0B44     		add	r3, r3, r1
 4863 14a2 03F82C2C 		strb	r2, [r3, #-44]
 4864              	.L250:
1142:.\main.c      **** 									if(Buffer_LCD1[x]!=','){
 4865              		.loc 1 1142 0 discriminator 2
 4866 14a6 97F82F30 		ldrb	r3, [r7, #47]	@ zero_extendqisi2
 4867 14aa 0133     		adds	r3, r3, #1
 4868 14ac 87F82F30 		strb	r3, [r7, #47]
 4869              	.L248:
1142:.\main.c      **** 									if(Buffer_LCD1[x]!=','){
 4870              		.loc 1 1142 0 is_stmt 0 discriminator 1
 4871 14b0 514B     		ldr	r3, .L420+4
 4872 14b2 1B78     		ldrb	r3, [r3]
 4873 14b4 DBB2     		uxtb	r3, r3
 4874 14b6 97F82F20 		ldrb	r2, [r7, #47]	@ zero_extendqisi2
 4875 14ba 9A42     		cmp	r2, r3
 4876 14bc CFD9     		bls	.L251
1148:.\main.c      **** 									}
1149:.\main.c      **** 								}
1150:.\main.c      **** 								num_decimal=atof(numero);
 4877              		.loc 1 1150 0 is_stmt 1
 4878 14be 3B1D     		adds	r3, r7, #4
 4879 14c0 1846     		mov	r0, r3
 4880 14c2 FFF7FEFF 		bl	atof
 4881 14c6 C7E90801 		strd	r0, [r7, #32]
1151:.\main.c      **** 								if(((rventa1.preset[0]==1)&&(num_decimal>=5))||((rventa1.preset[0]==2)&&(num_decimal<=5)&&(
 4882              		.loc 1 1151 0
 4883 14ca 534B     		ldr	r3, .L420+36
 4884 14cc DB7E     		ldrb	r3, [r3, #27]	@ zero_extendqisi2
 4885 14ce 012B     		cmp	r3, #1
 4886 14d0 09D1     		bne	.L252
 4887              		.loc 1 1151 0 is_stmt 0 discriminator 1
 4888 14d2 D7E90801 		ldrd	r0, [r7, #32]
 4889 14d6 4FF00002 		mov	r2, #0
 4890 14da 504B     		ldr	r3, .L420+40
 4891 14dc FFF7FEFF 		bl	__aeabi_dcmpge
 4892 14e0 0346     		mov	r3, r0
 4893 14e2 002B     		cmp	r3, #0
 4894 14e4 1AD1     		bne	.L253
 4895              	.L252:
 4896              		.loc 1 1151 0 discriminator 3
 4897 14e6 4C4B     		ldr	r3, .L420+36
 4898 14e8 DB7E     		ldrb	r3, [r3, #27]	@ zero_extendqisi2
 4899 14ea 022B     		cmp	r3, #2
 4900 14ec 40D1     		bne	.L247
 4901              		.loc 1 1151 0 discriminator 4
 4902 14ee D7E90801 		ldrd	r0, [r7, #32]
 4903 14f2 4FF00002 		mov	r2, #0
 4904 14f6 494B     		ldr	r3, .L420+40
 4905 14f8 FFF7FEFF 		bl	__aeabi_dcmple
 4906 14fc 0346     		mov	r3, r0
 4907 14fe 002B     		cmp	r3, #0
 4908 1500 00D1     		bne	.L400
1152:.\main.c      **** 									for(x=count_teclas1;x>=1;x--){
1153:.\main.c      **** 										rventa1.preset[x]=Buffer_LCD1[(count_teclas1-x)+1];
1154:.\main.c      **** 									}
ARM GAS  C:\Users\diego\AppData\Local\Temp\ccW8UKJI.s 			page 109


1155:.\main.c      **** 									flujo_LCD1=5;								
1156:.\main.c      ****                          			lado1.estado=espera;
1157:.\main.c      **** 						            set_imagen(1,7);
1158:.\main.c      **** 								}
1159:.\main.c      **** 							}
1160:.\main.c      **** 						break;
 4909              		.loc 1 1160 0 is_stmt 1 discriminator 4
 4910 1502 11E3     		b	.L219
 4911              	.L400:
1151:.\main.c      **** 								if(((rventa1.preset[0]==1)&&(num_decimal>=5))||((rventa1.preset[0]==2)&&(num_decimal<=5)&&(
 4912              		.loc 1 1151 0 discriminator 5
 4913 1504 D7E90801 		ldrd	r0, [r7, #32]
 4914 1508 4FF00002 		mov	r2, #0
 4915 150c 4FF00003 		mov	r3, #0
 4916 1510 FFF7FEFF 		bl	__aeabi_dcmpgt
 4917 1514 0346     		mov	r3, r0
 4918 1516 002B     		cmp	r3, #0
 4919 1518 00D1     		bne	.L253
 4920              		.loc 1 1160 0 discriminator 5
 4921 151a 05E3     		b	.L219
 4922              	.L253:
1152:.\main.c      **** 									for(x=count_teclas1;x>=1;x--){
 4923              		.loc 1 1152 0
 4924 151c 364B     		ldr	r3, .L420+4
 4925 151e 1B78     		ldrb	r3, [r3]
 4926 1520 87F82F30 		strb	r3, [r7, #47]
 4927 1524 15E0     		b	.L256
 4928              	.L257:
1153:.\main.c      **** 									}
 4929              		.loc 1 1153 0 discriminator 3
 4930 1526 97F82F30 		ldrb	r3, [r7, #47]	@ zero_extendqisi2
 4931 152a 334A     		ldr	r2, .L420+4
 4932 152c 1278     		ldrb	r2, [r2]
 4933 152e D2B2     		uxtb	r2, r2
 4934 1530 1146     		mov	r1, r2
 4935 1532 97F82F20 		ldrb	r2, [r7, #47]	@ zero_extendqisi2
 4936 1536 8A1A     		subs	r2, r1, r2
 4937 1538 0132     		adds	r2, r2, #1
 4938 153a 3249     		ldr	r1, .L420+16
 4939 153c 8A5C     		ldrb	r2, [r1, r2]
 4940 153e D1B2     		uxtb	r1, r2
 4941 1540 354A     		ldr	r2, .L420+36
 4942 1542 1344     		add	r3, r3, r2
 4943 1544 0A46     		mov	r2, r1
 4944 1546 DA76     		strb	r2, [r3, #27]
1152:.\main.c      **** 									for(x=count_teclas1;x>=1;x--){
 4945              		.loc 1 1152 0 discriminator 3
 4946 1548 97F82F30 		ldrb	r3, [r7, #47]	@ zero_extendqisi2
 4947 154c 013B     		subs	r3, r3, #1
 4948 154e 87F82F30 		strb	r3, [r7, #47]
 4949              	.L256:
1152:.\main.c      **** 									for(x=count_teclas1;x>=1;x--){
 4950              		.loc 1 1152 0 is_stmt 0 discriminator 1
 4951 1552 97F82F30 		ldrb	r3, [r7, #47]	@ zero_extendqisi2
 4952 1556 002B     		cmp	r3, #0
 4953 1558 E5D1     		bne	.L257
1155:.\main.c      ****                          			lado1.estado=espera;
ARM GAS  C:\Users\diego\AppData\Local\Temp\ccW8UKJI.s 			page 110


 4954              		.loc 1 1155 0 is_stmt 1
 4955 155a 314B     		ldr	r3, .L420+44
 4956 155c 0522     		movs	r2, #5
 4957 155e 1A70     		strb	r2, [r3]
1156:.\main.c      **** 						            set_imagen(1,7);
 4958              		.loc 1 1156 0
 4959 1560 304B     		ldr	r3, .L420+48
 4960 1562 0222     		movs	r2, #2
 4961 1564 5A70     		strb	r2, [r3, #1]
1157:.\main.c      **** 								}
 4962              		.loc 1 1157 0
 4963 1566 0120     		movs	r0, #1
 4964 1568 0721     		movs	r1, #7
 4965 156a FFF7FEFF 		bl	set_imagen
 4966              		.loc 1 1160 0
 4967 156e DBE2     		b	.L219
 4968              	.L247:
 4969 1570 DAE2     		b	.L219
 4970              	.L238:
1161:.\main.c      **** 						case 2:	
1162:.\main.c      ****                             set_imagen(1,5);
 4971              		.loc 1 1162 0
 4972 1572 0120     		movs	r0, #1
 4973 1574 0521     		movs	r1, #5
 4974 1576 FFF7FEFF 		bl	set_imagen
1163:.\main.c      ****                             for(x=0;x<=10;x++){
 4975              		.loc 1 1163 0
 4976 157a 0023     		movs	r3, #0
 4977 157c 87F82F30 		strb	r3, [r7, #47]
 4978 1580 0BE0     		b	.L258
 4979              	.L259:
1164:.\main.c      ****                               rventa1.km[x]=0;
 4980              		.loc 1 1164 0 discriminator 3
 4981 1582 97F82F30 		ldrb	r3, [r7, #47]	@ zero_extendqisi2
 4982 1586 244A     		ldr	r2, .L420+36
 4983 1588 1344     		add	r3, r3, r2
 4984 158a 0022     		movs	r2, #0
 4985 158c 83F84320 		strb	r2, [r3, #67]
1163:.\main.c      ****                             for(x=0;x<=10;x++){
 4986              		.loc 1 1163 0 discriminator 3
 4987 1590 97F82F30 		ldrb	r3, [r7, #47]	@ zero_extendqisi2
 4988 1594 0133     		adds	r3, r3, #1
 4989 1596 87F82F30 		strb	r3, [r7, #47]
 4990              	.L258:
1163:.\main.c      ****                             for(x=0;x<=10;x++){
 4991              		.loc 1 1163 0 is_stmt 0 discriminator 1
 4992 159a 97F82F30 		ldrb	r3, [r7, #47]	@ zero_extendqisi2
 4993 159e 0A2B     		cmp	r3, #10
 4994 15a0 EFD9     		bls	.L259
1165:.\main.c      ****                             }
1166:.\main.c      **** 							for(x=count_teclas1;x>=1;x--){
 4995              		.loc 1 1166 0 is_stmt 1
 4996 15a2 154B     		ldr	r3, .L420+4
 4997 15a4 1B78     		ldrb	r3, [r3]
 4998 15a6 87F82F30 		strb	r3, [r7, #47]
 4999 15aa 16E0     		b	.L260
 5000              	.L261:
ARM GAS  C:\Users\diego\AppData\Local\Temp\ccW8UKJI.s 			page 111


1167:.\main.c      **** 								rventa1.km[x]=Buffer_LCD1[(count_teclas1-x)+1];
 5001              		.loc 1 1167 0 discriminator 3
 5002 15ac 97F82F30 		ldrb	r3, [r7, #47]	@ zero_extendqisi2
 5003 15b0 114A     		ldr	r2, .L420+4
 5004 15b2 1278     		ldrb	r2, [r2]
 5005 15b4 D2B2     		uxtb	r2, r2
 5006 15b6 1146     		mov	r1, r2
 5007 15b8 97F82F20 		ldrb	r2, [r7, #47]	@ zero_extendqisi2
 5008 15bc 8A1A     		subs	r2, r1, r2
 5009 15be 0132     		adds	r2, r2, #1
 5010 15c0 1049     		ldr	r1, .L420+16
 5011 15c2 8A5C     		ldrb	r2, [r1, r2]
 5012 15c4 D1B2     		uxtb	r1, r2
 5013 15c6 144A     		ldr	r2, .L420+36
 5014 15c8 1344     		add	r3, r3, r2
 5015 15ca 0A46     		mov	r2, r1
 5016 15cc 83F84320 		strb	r2, [r3, #67]
1166:.\main.c      **** 								rventa1.km[x]=Buffer_LCD1[(count_teclas1-x)+1];
 5017              		.loc 1 1166 0 discriminator 3
 5018 15d0 97F82F30 		ldrb	r3, [r7, #47]	@ zero_extendqisi2
 5019 15d4 013B     		subs	r3, r3, #1
 5020 15d6 87F82F30 		strb	r3, [r7, #47]
 5021              	.L260:
1166:.\main.c      **** 								rventa1.km[x]=Buffer_LCD1[(count_teclas1-x)+1];
 5022              		.loc 1 1166 0 is_stmt 0 discriminator 1
 5023 15da 97F82F30 		ldrb	r3, [r7, #47]	@ zero_extendqisi2
 5024 15de 002B     		cmp	r3, #0
 5025 15e0 E4D1     		bne	.L261
1168:.\main.c      **** 							}
1169:.\main.c      **** 	                        flujo_LCD1=4;		                        
 5026              		.loc 1 1169 0 is_stmt 1
 5027 15e2 0F4B     		ldr	r3, .L420+44
 5028 15e4 0422     		movs	r2, #4
 5029 15e6 1A70     		strb	r2, [r3]
1170:.\main.c      **** 						break;
 5030              		.loc 1 1170 0
 5031 15e8 9EE2     		b	.L219
 5032              	.L239:
1171:.\main.c      **** 						case 3:
1172:.\main.c      **** 							for(x=count_teclas1;x>=1;x--){
 5033              		.loc 1 1172 0
 5034 15ea 034B     		ldr	r3, .L420+4
 5035 15ec 1B78     		ldrb	r3, [r3]
 5036 15ee 87F82F30 		strb	r3, [r7, #47]
 5037 15f2 32E0     		b	.L262
 5038              	.L421:
 5039              		.align	2
 5040              	.L420:
 5041 15f4 00000000 		.word	posy1
 5042 15f8 00000000 		.word	count_teclas1
 5043 15fc 00000000 		.word	sizeletra1
 5044 1600 00000000 		.word	posx1
 5045 1604 00000000 		.word	Buffer_LCD1
 5046 1608 00000000 		.word	id_coma1
 5047 160c 00000000 		.word	comas1
 5048 1610 00000000 		.word	LCD_1_rxBuffer
 5049 1614 00000000 		.word	id_teclado1
ARM GAS  C:\Users\diego\AppData\Local\Temp\ccW8UKJI.s 			page 112


 5050 1618 00000000 		.word	rventa1
 5051 161c 00001440 		.word	1075052544
 5052 1620 00000000 		.word	flujo_LCD1
 5053 1624 00000000 		.word	lado1
 5054              	.L263:
1173:.\main.c      **** 								rventa1.cedula[x]=Buffer_LCD1[(count_teclas1-x)+1]+48;
 5055              		.loc 1 1173 0 discriminator 3
 5056 1628 97F82F30 		ldrb	r3, [r7, #47]	@ zero_extendqisi2
 5057 162c B74A     		ldr	r2, .L422
 5058 162e 1278     		ldrb	r2, [r2]
 5059 1630 D2B2     		uxtb	r2, r2
 5060 1632 1146     		mov	r1, r2
 5061 1634 97F82F20 		ldrb	r2, [r7, #47]	@ zero_extendqisi2
 5062 1638 8A1A     		subs	r2, r1, r2
 5063 163a 0132     		adds	r2, r2, #1
 5064 163c B449     		ldr	r1, .L422+4
 5065 163e 8A5C     		ldrb	r2, [r1, r2]
 5066 1640 D2B2     		uxtb	r2, r2
 5067 1642 3032     		adds	r2, r2, #48
 5068 1644 D1B2     		uxtb	r1, r2
 5069 1646 B34A     		ldr	r2, .L422+8
 5070 1648 1344     		add	r3, r3, r2
 5071 164a 0A46     		mov	r2, r1
 5072 164c 83F85920 		strb	r2, [r3, #89]
1172:.\main.c      **** 								rventa1.cedula[x]=Buffer_LCD1[(count_teclas1-x)+1]+48;
 5073              		.loc 1 1172 0 discriminator 3
 5074 1650 97F82F30 		ldrb	r3, [r7, #47]	@ zero_extendqisi2
 5075 1654 013B     		subs	r3, r3, #1
 5076 1656 87F82F30 		strb	r3, [r7, #47]
 5077              	.L262:
1172:.\main.c      **** 								rventa1.cedula[x]=Buffer_LCD1[(count_teclas1-x)+1]+48;
 5078              		.loc 1 1172 0 is_stmt 0 discriminator 1
 5079 165a 97F82F30 		ldrb	r3, [r7, #47]	@ zero_extendqisi2
 5080 165e 002B     		cmp	r3, #0
 5081 1660 E2D1     		bne	.L263
1174:.\main.c      **** 							}
1175:.\main.c      ****                         	flujo_LCD1=2;	
 5082              		.loc 1 1175 0 is_stmt 1
 5083 1662 AD4B     		ldr	r3, .L422+12
 5084 1664 0222     		movs	r2, #2
 5085 1666 1A70     		strb	r2, [r3]
1176:.\main.c      ****                         	set_imagen(1,5);
 5086              		.loc 1 1176 0
 5087 1668 0120     		movs	r0, #1
 5088 166a 0521     		movs	r1, #5
 5089 166c FFF7FEFF 		bl	set_imagen
1177:.\main.c      **** 							count_teclas1=0;
 5090              		.loc 1 1177 0
 5091 1670 A64B     		ldr	r3, .L422
 5092 1672 0022     		movs	r2, #0
 5093 1674 1A70     		strb	r2, [r3]
1178:.\main.c      **** 							id_teclado1=4;
 5094              		.loc 1 1178 0
 5095 1676 A94B     		ldr	r3, .L422+16
 5096 1678 0422     		movs	r2, #4
 5097 167a 1A70     		strb	r2, [r3]
1179:.\main.c      **** 							teclas1=10;
ARM GAS  C:\Users\diego\AppData\Local\Temp\ccW8UKJI.s 			page 113


 5098              		.loc 1 1179 0
 5099 167c A84B     		ldr	r3, .L422+20
 5100 167e 0A22     		movs	r2, #10
 5101 1680 1A70     		strb	r2, [r3]
1180:.\main.c      **** 							posx1=2;
 5102              		.loc 1 1180 0
 5103 1682 A84B     		ldr	r3, .L422+24
 5104 1684 0222     		movs	r2, #2
 5105 1686 1A80     		strh	r2, [r3]	@ movhi
1181:.\main.c      **** 							posy1=3;
 5106              		.loc 1 1181 0
 5107 1688 A74B     		ldr	r3, .L422+28
 5108 168a 0322     		movs	r2, #3
 5109 168c 1A80     		strh	r2, [r3]	@ movhi
1182:.\main.c      **** 							sizeletra1=1;								
 5110              		.loc 1 1182 0
 5111 168e A74B     		ldr	r3, .L422+32
 5112 1690 0122     		movs	r2, #1
 5113 1692 1A80     		strh	r2, [r3]	@ movhi
1183:.\main.c      **** 						break;
 5114              		.loc 1 1183 0
 5115 1694 48E2     		b	.L219
 5116              	.L240:
1184:.\main.c      **** 						case 4:
1185:.\main.c      **** 							for(x=count_teclas1;x>=1;x--){
 5117              		.loc 1 1185 0
 5118 1696 9D4B     		ldr	r3, .L422
 5119 1698 1B78     		ldrb	r3, [r3]
 5120 169a 87F82F30 		strb	r3, [r7, #47]
 5121 169e 18E0     		b	.L264
 5122              	.L265:
1186:.\main.c      **** 								rventa1.password[x]=Buffer_LCD1[(count_teclas1-x)+1]+48;
 5123              		.loc 1 1186 0 discriminator 3
 5124 16a0 97F82F30 		ldrb	r3, [r7, #47]	@ zero_extendqisi2
 5125 16a4 994A     		ldr	r2, .L422
 5126 16a6 1278     		ldrb	r2, [r2]
 5127 16a8 D2B2     		uxtb	r2, r2
 5128 16aa 1146     		mov	r1, r2
 5129 16ac 97F82F20 		ldrb	r2, [r7, #47]	@ zero_extendqisi2
 5130 16b0 8A1A     		subs	r2, r1, r2
 5131 16b2 0132     		adds	r2, r2, #1
 5132 16b4 9649     		ldr	r1, .L422+4
 5133 16b6 8A5C     		ldrb	r2, [r1, r2]
 5134 16b8 D2B2     		uxtb	r2, r2
 5135 16ba 3032     		adds	r2, r2, #48
 5136 16bc D1B2     		uxtb	r1, r2
 5137 16be 954A     		ldr	r2, .L422+8
 5138 16c0 1344     		add	r3, r3, r2
 5139 16c2 0A46     		mov	r2, r1
 5140 16c4 83F86420 		strb	r2, [r3, #100]
1185:.\main.c      **** 								rventa1.password[x]=Buffer_LCD1[(count_teclas1-x)+1]+48;
 5141              		.loc 1 1185 0 discriminator 3
 5142 16c8 97F82F30 		ldrb	r3, [r7, #47]	@ zero_extendqisi2
 5143 16cc 013B     		subs	r3, r3, #1
 5144 16ce 87F82F30 		strb	r3, [r7, #47]
 5145              	.L264:
1185:.\main.c      **** 								rventa1.password[x]=Buffer_LCD1[(count_teclas1-x)+1]+48;
ARM GAS  C:\Users\diego\AppData\Local\Temp\ccW8UKJI.s 			page 114


 5146              		.loc 1 1185 0 is_stmt 0 discriminator 1
 5147 16d2 97F82F30 		ldrb	r3, [r7, #47]	@ zero_extendqisi2
 5148 16d6 002B     		cmp	r3, #0
 5149 16d8 E2D1     		bne	.L265
1187:.\main.c      **** 							}
1188:.\main.c      ****                         	flujo_LCD1=102;	
 5150              		.loc 1 1188 0 is_stmt 1
 5151 16da 8F4B     		ldr	r3, .L422+12
 5152 16dc 6622     		movs	r2, #102
 5153 16de 1A70     		strb	r2, [r3]
1189:.\main.c      ****                         	set_imagen(1,57);
 5154              		.loc 1 1189 0
 5155 16e0 0120     		movs	r0, #1
 5156 16e2 3921     		movs	r1, #57
 5157 16e4 FFF7FEFF 		bl	set_imagen
1190:.\main.c      **** 							lado1.estado=16;
 5158              		.loc 1 1190 0
 5159 16e8 914B     		ldr	r3, .L422+36
 5160 16ea 1022     		movs	r2, #16
 5161 16ec 5A70     		strb	r2, [r3, #1]
1191:.\main.c      **** 						break;	
 5162              		.loc 1 1191 0
 5163 16ee 1BE2     		b	.L219
 5164              	.L241:
1192:.\main.c      ****                         case 5:
1193:.\main.c      **** 							for(x=count_teclas1;x>=1;x--){
 5165              		.loc 1 1193 0
 5166 16f0 864B     		ldr	r3, .L422
 5167 16f2 1B78     		ldrb	r3, [r3]
 5168 16f4 87F82F30 		strb	r3, [r7, #47]
 5169 16f8 18E0     		b	.L266
 5170              	.L267:
1194:.\main.c      **** 								rventa1.password_local[x]=Buffer_LCD1[(count_teclas1-x)+1]+48;
 5171              		.loc 1 1194 0 discriminator 3
 5172 16fa 97F82F30 		ldrb	r3, [r7, #47]	@ zero_extendqisi2
 5173 16fe 834A     		ldr	r2, .L422
 5174 1700 1278     		ldrb	r2, [r2]
 5175 1702 D2B2     		uxtb	r2, r2
 5176 1704 1146     		mov	r1, r2
 5177 1706 97F82F20 		ldrb	r2, [r7, #47]	@ zero_extendqisi2
 5178 170a 8A1A     		subs	r2, r1, r2
 5179 170c 0132     		adds	r2, r2, #1
 5180 170e 8049     		ldr	r1, .L422+4
 5181 1710 8A5C     		ldrb	r2, [r1, r2]
 5182 1712 D2B2     		uxtb	r2, r2
 5183 1714 3032     		adds	r2, r2, #48
 5184 1716 D1B2     		uxtb	r1, r2
 5185 1718 7E4A     		ldr	r2, .L422+8
 5186 171a 1344     		add	r3, r3, r2
 5187 171c 0A46     		mov	r2, r1
 5188 171e 83F87120 		strb	r2, [r3, #113]
1193:.\main.c      **** 								rventa1.password_local[x]=Buffer_LCD1[(count_teclas1-x)+1]+48;
 5189              		.loc 1 1193 0 discriminator 3
 5190 1722 97F82F30 		ldrb	r3, [r7, #47]	@ zero_extendqisi2
 5191 1726 013B     		subs	r3, r3, #1
 5192 1728 87F82F30 		strb	r3, [r7, #47]
 5193              	.L266:
ARM GAS  C:\Users\diego\AppData\Local\Temp\ccW8UKJI.s 			page 115


1193:.\main.c      **** 								rventa1.password_local[x]=Buffer_LCD1[(count_teclas1-x)+1]+48;
 5194              		.loc 1 1193 0 is_stmt 0 discriminator 1
 5195 172c 97F82F30 		ldrb	r3, [r7, #47]	@ zero_extendqisi2
 5196 1730 002B     		cmp	r3, #0
 5197 1732 E2D1     		bne	.L267
1195:.\main.c      **** 							}
1196:.\main.c      ****                             if(clave_local[0]==rventa1.password_local[4] && clave_local[1]==rventa1
 5198              		.loc 1 1196 0 is_stmt 1
 5199 1734 7F4B     		ldr	r3, .L422+40
 5200 1736 1A78     		ldrb	r2, [r3]	@ zero_extendqisi2
 5201 1738 764B     		ldr	r3, .L422+8
 5202 173a 93F87530 		ldrb	r3, [r3, #117]	@ zero_extendqisi2
 5203 173e 9A42     		cmp	r2, r3
 5204 1740 23D1     		bne	.L268
 5205              		.loc 1 1196 0 is_stmt 0 discriminator 1
 5206 1742 7C4B     		ldr	r3, .L422+40
 5207 1744 5A78     		ldrb	r2, [r3, #1]	@ zero_extendqisi2
 5208 1746 734B     		ldr	r3, .L422+8
 5209 1748 93F87430 		ldrb	r3, [r3, #116]	@ zero_extendqisi2
 5210 174c 9A42     		cmp	r2, r3
 5211 174e 1CD1     		bne	.L268
 5212              		.loc 1 1196 0 discriminator 2
 5213 1750 784B     		ldr	r3, .L422+40
 5214 1752 9A78     		ldrb	r2, [r3, #2]	@ zero_extendqisi2
 5215 1754 6F4B     		ldr	r3, .L422+8
 5216 1756 93F87330 		ldrb	r3, [r3, #115]	@ zero_extendqisi2
 5217 175a 9A42     		cmp	r2, r3
 5218 175c 15D1     		bne	.L268
 5219              		.loc 1 1196 0 discriminator 3
 5220 175e 754B     		ldr	r3, .L422+40
 5221 1760 DA78     		ldrb	r2, [r3, #3]	@ zero_extendqisi2
 5222 1762 6C4B     		ldr	r3, .L422+8
 5223 1764 93F87230 		ldrb	r3, [r3, #114]	@ zero_extendqisi2
 5224 1768 9A42     		cmp	r2, r3
 5225 176a 0ED1     		bne	.L268
1197:.\main.c      ****                         	    set_imagen(1,38); 
 5226              		.loc 1 1197 0 is_stmt 1
 5227 176c 0120     		movs	r0, #1
 5228 176e 2621     		movs	r1, #38
 5229 1770 FFF7FEFF 		bl	set_imagen
1198:.\main.c      ****                                 CyDelay(200);
 5230              		.loc 1 1198 0
 5231 1774 C820     		movs	r0, #200
 5232 1776 FFF7FEFF 		bl	CyDelay
1199:.\main.c      **** 							    set_imagen(1,70);  
 5233              		.loc 1 1199 0
 5234 177a 0120     		movs	r0, #1
 5235 177c 4621     		movs	r1, #70
 5236 177e FFF7FEFF 		bl	set_imagen
1200:.\main.c      ****                                 flujo_LCD1 = 16;
 5237              		.loc 1 1200 0
 5238 1782 654B     		ldr	r3, .L422+12
 5239 1784 1022     		movs	r2, #16
 5240 1786 1A70     		strb	r2, [r3]
1201:.\main.c      ****                             }else{
1202:.\main.c      ****                         	    flujo_LCD1=0;	
1203:.\main.c      ****                         	    set_imagen(1,39); 
ARM GAS  C:\Users\diego\AppData\Local\Temp\ccW8UKJI.s 			page 116


1204:.\main.c      **** 							    lado1.estado=libre;                                 
1205:.\main.c      ****                                 CyDelay(200);
1206:.\main.c      **** 							    set_imagen(1,0);                                 
1207:.\main.c      ****                             }
1208:.\main.c      ****                         break; 
 5241              		.loc 1 1208 0
 5242 1788 CEE1     		b	.L219
 5243              	.L268:
1202:.\main.c      ****                         	    set_imagen(1,39); 
 5244              		.loc 1 1202 0
 5245 178a 634B     		ldr	r3, .L422+12
 5246 178c 0022     		movs	r2, #0
 5247 178e 1A70     		strb	r2, [r3]
1203:.\main.c      **** 							    lado1.estado=libre;                                 
 5248              		.loc 1 1203 0
 5249 1790 0120     		movs	r0, #1
 5250 1792 2721     		movs	r1, #39
 5251 1794 FFF7FEFF 		bl	set_imagen
1204:.\main.c      ****                                 CyDelay(200);
 5252              		.loc 1 1204 0
 5253 1798 654B     		ldr	r3, .L422+36
 5254 179a 0122     		movs	r2, #1
 5255 179c 5A70     		strb	r2, [r3, #1]
1205:.\main.c      **** 							    set_imagen(1,0);                                 
 5256              		.loc 1 1205 0
 5257 179e C820     		movs	r0, #200
 5258 17a0 FFF7FEFF 		bl	CyDelay
1206:.\main.c      ****                             }
 5259              		.loc 1 1206 0
 5260 17a4 0120     		movs	r0, #1
 5261 17a6 0021     		movs	r1, #0
 5262 17a8 FFF7FEFF 		bl	set_imagen
 5263              		.loc 1 1208 0
 5264 17ac BCE1     		b	.L219
 5265              	.L242:
1209:.\main.c      ****                         case 6:                        
1210:.\main.c      **** 						    EEPROM_WriteByte(Buffer_LCD1[count_teclas1],30);
 5266              		.loc 1 1210 0
 5267 17ae 574B     		ldr	r3, .L422
 5268 17b0 1B78     		ldrb	r3, [r3]
 5269 17b2 DBB2     		uxtb	r3, r3
 5270 17b4 1A46     		mov	r2, r3
 5271 17b6 564B     		ldr	r3, .L422+4
 5272 17b8 9B5C     		ldrb	r3, [r3, r2]
 5273 17ba DBB2     		uxtb	r3, r3
 5274 17bc 1846     		mov	r0, r3
 5275 17be 1E21     		movs	r1, #30
 5276 17c0 FFF7FEFF 		bl	EEPROM_WriteByte
1211:.\main.c      ****                         	flujo_LCD1 = 0;	
 5277              		.loc 1 1211 0
 5278 17c4 544B     		ldr	r3, .L422+12
 5279 17c6 0022     		movs	r2, #0
 5280 17c8 1A70     		strb	r2, [r3]
1212:.\main.c      ****                         	set_imagen(1,60);
 5281              		.loc 1 1212 0
 5282 17ca 0120     		movs	r0, #1
 5283 17cc 3C21     		movs	r1, #60
ARM GAS  C:\Users\diego\AppData\Local\Temp\ccW8UKJI.s 			page 117


 5284 17ce FFF7FEFF 		bl	set_imagen
1213:.\main.c      ****                             CyDelay(200);
 5285              		.loc 1 1213 0
 5286 17d2 C820     		movs	r0, #200
 5287 17d4 FFF7FEFF 		bl	CyDelay
1214:.\main.c      **** 							lado1.estado=libre;                                                     
 5288              		.loc 1 1214 0
 5289 17d8 554B     		ldr	r3, .L422+36
 5290 17da 0122     		movs	r2, #1
 5291 17dc 5A70     		strb	r2, [r3, #1]
1215:.\main.c      ****                         break;   
 5292              		.loc 1 1215 0
 5293 17de A3E1     		b	.L219
 5294              	.L243:
1216:.\main.c      ****                         case 7:
1217:.\main.c      ****                             flujo_LCD1=18;
 5295              		.loc 1 1217 0
 5296 17e0 4D4B     		ldr	r3, .L422+12
 5297 17e2 1222     		movs	r2, #18
 5298 17e4 1A70     		strb	r2, [r3]
1218:.\main.c      ****                             set_imagen(1,88);
 5299              		.loc 1 1218 0
 5300 17e6 0120     		movs	r0, #1
 5301 17e8 5821     		movs	r1, #88
 5302 17ea FFF7FEFF 		bl	set_imagen
1219:.\main.c      ****                             switch(Producto){
 5303              		.loc 1 1219 0
 5304 17ee 524B     		ldr	r3, .L422+44
 5305 17f0 1B78     		ldrb	r3, [r3]	@ zero_extendqisi2
 5306 17f2 013B     		subs	r3, r3, #1
 5307 17f4 032B     		cmp	r3, #3
 5308 17f6 00F2B880 		bhi	.L270
 5309 17fa 01A2     		adr	r2, .L272
 5310 17fc 52F823F0 		ldr	pc, [r2, r3, lsl #2]
 5311              		.p2align 2
 5312              	.L272:
 5313 1800 11180000 		.word	.L271+1
 5314 1804 57180000 		.word	.L273+1
 5315 1808 9D180000 		.word	.L274+1
 5316 180c E3180000 		.word	.L275+1
 5317              		.p2align 1
 5318              	.L271:
1220:.\main.c      ****                                 case 1:// 1=diesel, siempre para Autogas, 
1221:.\main.c      ****                                     Productos[0]=Buffer_LCD1[1]+48;//para la estacion seria el digi
 5319              		.loc 1 1221 0
 5320 1810 3F4B     		ldr	r3, .L422+4
 5321 1812 5B78     		ldrb	r3, [r3, #1]
 5322 1814 DBB2     		uxtb	r3, r3
 5323 1816 3033     		adds	r3, r3, #48
 5324 1818 DAB2     		uxtb	r2, r3
 5325 181a 484B     		ldr	r3, .L422+48
 5326 181c 1A70     		strb	r2, [r3]
1222:.\main.c      ****                                     switch(Productos[0]){
 5327              		.loc 1 1222 0
 5328 181e 474B     		ldr	r3, .L422+48
 5329 1820 1B78     		ldrb	r3, [r3]	@ zero_extendqisi2
 5330 1822 322B     		cmp	r3, #50
ARM GAS  C:\Users\diego\AppData\Local\Temp\ccW8UKJI.s 			page 118


 5331 1824 08D0     		beq	.L277
 5332 1826 332B     		cmp	r3, #51
 5333 1828 0BD0     		beq	.L278
 5334 182a 312B     		cmp	r3, #49
 5335 182c 0ED1     		bne	.L401
1223:.\main.c      ****                                         case '1':
1224:.\main.c      ****                                         lado1.grado[0][0]=1;                                       
 5336              		.loc 1 1224 0
 5337 182e 404B     		ldr	r3, .L422+36
 5338 1830 0122     		movs	r2, #1
 5339 1832 83F85920 		strb	r2, [r3, #89]
1225:.\main.c      ****                                         break;
 5340              		.loc 1 1225 0
 5341 1836 0DE0     		b	.L280
 5342              	.L277:
1226:.\main.c      ****                                         case '2':
1227:.\main.c      ****                                         lado1.grado[1][0]=1;                                       
 5343              		.loc 1 1227 0
 5344 1838 3D4B     		ldr	r3, .L422+36
 5345 183a 0122     		movs	r2, #1
 5346 183c 83F85A20 		strb	r2, [r3, #90]
1228:.\main.c      ****                                         break;
 5347              		.loc 1 1228 0
 5348 1840 08E0     		b	.L280
 5349              	.L278:
1229:.\main.c      ****                                         case '3':
1230:.\main.c      ****                                         lado1.grado[2][0]=1;                                       
 5350              		.loc 1 1230 0
 5351 1842 3B4B     		ldr	r3, .L422+36
 5352 1844 0122     		movs	r2, #1
 5353 1846 83F85B20 		strb	r2, [r3, #91]
1231:.\main.c      ****                                         break;                    
 5354              		.loc 1 1231 0
 5355 184a 03E0     		b	.L280
 5356              	.L401:
1232:.\main.c      ****                                         default:
1233:.\main.c      ****                                         producto1 = 0;
 5357              		.loc 1 1233 0
 5358 184c 3C4B     		ldr	r3, .L422+52
 5359 184e 0022     		movs	r2, #0
 5360 1850 1A70     		strb	r2, [r3]
1234:.\main.c      ****                                         break;
 5361              		.loc 1 1234 0
 5362 1852 00BF     		nop
 5363              	.L280:
1235:.\main.c      ****                                     }                                   
1236:.\main.c      ****                                 break;
 5364              		.loc 1 1236 0
 5365 1854 89E0     		b	.L270
 5366              	.L273:
1237:.\main.c      ****                                 case 2:// 2=corriente, siempre para Autogas,
1238:.\main.c      ****                                     Productos[1]=Buffer_LCD1[1]+48;
 5367              		.loc 1 1238 0
 5368 1856 2E4B     		ldr	r3, .L422+4
 5369 1858 5B78     		ldrb	r3, [r3, #1]
 5370 185a DBB2     		uxtb	r3, r3
 5371 185c 3033     		adds	r3, r3, #48
ARM GAS  C:\Users\diego\AppData\Local\Temp\ccW8UKJI.s 			page 119


 5372 185e DAB2     		uxtb	r2, r3
 5373 1860 364B     		ldr	r3, .L422+48
 5374 1862 5A70     		strb	r2, [r3, #1]
1239:.\main.c      ****                                     switch(Productos[1]){
 5375              		.loc 1 1239 0
 5376 1864 354B     		ldr	r3, .L422+48
 5377 1866 5B78     		ldrb	r3, [r3, #1]	@ zero_extendqisi2
 5378 1868 322B     		cmp	r3, #50
 5379 186a 08D0     		beq	.L282
 5380 186c 332B     		cmp	r3, #51
 5381 186e 0BD0     		beq	.L283
 5382 1870 312B     		cmp	r3, #49
 5383 1872 0ED1     		bne	.L402
1240:.\main.c      ****                                         case '1':
1241:.\main.c      ****                                         lado1.grado[0][0]=2;                                       
 5384              		.loc 1 1241 0
 5385 1874 2E4B     		ldr	r3, .L422+36
 5386 1876 0222     		movs	r2, #2
 5387 1878 83F85920 		strb	r2, [r3, #89]
1242:.\main.c      ****                                         break;
 5388              		.loc 1 1242 0
 5389 187c 0DE0     		b	.L285
 5390              	.L282:
1243:.\main.c      ****                                         case '2':
1244:.\main.c      ****                                         lado1.grado[1][0]=2;                                       
 5391              		.loc 1 1244 0
 5392 187e 2C4B     		ldr	r3, .L422+36
 5393 1880 0222     		movs	r2, #2
 5394 1882 83F85A20 		strb	r2, [r3, #90]
1245:.\main.c      ****                                         break;
 5395              		.loc 1 1245 0
 5396 1886 08E0     		b	.L285
 5397              	.L283:
1246:.\main.c      ****                                         case '3':
1247:.\main.c      ****                                         lado1.grado[2][0]=2;                                       
 5398              		.loc 1 1247 0
 5399 1888 294B     		ldr	r3, .L422+36
 5400 188a 0222     		movs	r2, #2
 5401 188c 83F85B20 		strb	r2, [r3, #91]
1248:.\main.c      ****                                         break; 
 5402              		.loc 1 1248 0
 5403 1890 03E0     		b	.L285
 5404              	.L402:
1249:.\main.c      ****                                         default:
1250:.\main.c      ****                                         producto2=0;
 5405              		.loc 1 1250 0
 5406 1892 2C4B     		ldr	r3, .L422+56
 5407 1894 0022     		movs	r2, #0
 5408 1896 1A70     		strb	r2, [r3]
1251:.\main.c      ****                                         break;                                        
 5409              		.loc 1 1251 0
 5410 1898 00BF     		nop
 5411              	.L285:
1252:.\main.c      ****                                     }                                      
1253:.\main.c      ****                                 break;
 5412              		.loc 1 1253 0
 5413 189a 66E0     		b	.L270
ARM GAS  C:\Users\diego\AppData\Local\Temp\ccW8UKJI.s 			page 120


 5414              	.L274:
1254:.\main.c      ****                                 case 3:// 3=extra, siempre para Autogas,
1255:.\main.c      ****                                     Productos[2]=Buffer_LCD1[1]+48;
 5415              		.loc 1 1255 0
 5416 189c 1C4B     		ldr	r3, .L422+4
 5417 189e 5B78     		ldrb	r3, [r3, #1]
 5418 18a0 DBB2     		uxtb	r3, r3
 5419 18a2 3033     		adds	r3, r3, #48
 5420 18a4 DAB2     		uxtb	r2, r3
 5421 18a6 254B     		ldr	r3, .L422+48
 5422 18a8 9A70     		strb	r2, [r3, #2]
1256:.\main.c      ****                                     switch(Productos[2]){
 5423              		.loc 1 1256 0
 5424 18aa 244B     		ldr	r3, .L422+48
 5425 18ac 9B78     		ldrb	r3, [r3, #2]	@ zero_extendqisi2
 5426 18ae 322B     		cmp	r3, #50
 5427 18b0 08D0     		beq	.L287
 5428 18b2 332B     		cmp	r3, #51
 5429 18b4 0BD0     		beq	.L288
 5430 18b6 312B     		cmp	r3, #49
 5431 18b8 0ED1     		bne	.L403
1257:.\main.c      ****                                         case '1':
1258:.\main.c      ****                                         lado1.grado[0][0]=3;                                       
 5432              		.loc 1 1258 0
 5433 18ba 1D4B     		ldr	r3, .L422+36
 5434 18bc 0322     		movs	r2, #3
 5435 18be 83F85920 		strb	r2, [r3, #89]
1259:.\main.c      ****                                         break;
 5436              		.loc 1 1259 0
 5437 18c2 0DE0     		b	.L290
 5438              	.L287:
1260:.\main.c      ****                                         case '2':
1261:.\main.c      ****                                         lado1.grado[1][0]=3;                                       
 5439              		.loc 1 1261 0
 5440 18c4 1A4B     		ldr	r3, .L422+36
 5441 18c6 0322     		movs	r2, #3
 5442 18c8 83F85A20 		strb	r2, [r3, #90]
1262:.\main.c      ****                                         break;
 5443              		.loc 1 1262 0
 5444 18cc 08E0     		b	.L290
 5445              	.L288:
1263:.\main.c      ****                                         case '3':
1264:.\main.c      ****                                         lado1.grado[2][0]=3;                                       
 5446              		.loc 1 1264 0
 5447 18ce 184B     		ldr	r3, .L422+36
 5448 18d0 0322     		movs	r2, #3
 5449 18d2 83F85B20 		strb	r2, [r3, #91]
1265:.\main.c      ****                                         break; 
 5450              		.loc 1 1265 0
 5451 18d6 03E0     		b	.L290
 5452              	.L403:
1266:.\main.c      ****                                         default:
1267:.\main.c      ****                                         producto3=0;
 5453              		.loc 1 1267 0
 5454 18d8 1B4B     		ldr	r3, .L422+60
 5455 18da 0022     		movs	r2, #0
 5456 18dc 1A70     		strb	r2, [r3]
ARM GAS  C:\Users\diego\AppData\Local\Temp\ccW8UKJI.s 			page 121


1268:.\main.c      ****                                         break;                                        
 5457              		.loc 1 1268 0
 5458 18de 00BF     		nop
 5459              	.L290:
1269:.\main.c      ****                                     }                                      
1270:.\main.c      ****                                 break;
 5460              		.loc 1 1270 0
 5461 18e0 43E0     		b	.L270
 5462              	.L275:
1271:.\main.c      ****                                 case 4:// 4=supreme diesel, siempre para Autogas,
1272:.\main.c      ****                                     Productos[3]=Buffer_LCD1[1]+48;
 5463              		.loc 1 1272 0
 5464 18e2 0B4B     		ldr	r3, .L422+4
 5465 18e4 5B78     		ldrb	r3, [r3, #1]
 5466 18e6 DBB2     		uxtb	r3, r3
 5467 18e8 3033     		adds	r3, r3, #48
 5468 18ea DAB2     		uxtb	r2, r3
 5469 18ec 134B     		ldr	r3, .L422+48
 5470 18ee DA70     		strb	r2, [r3, #3]
1273:.\main.c      ****                                     switch(Productos[3]){
 5471              		.loc 1 1273 0
 5472 18f0 124B     		ldr	r3, .L422+48
 5473 18f2 DB78     		ldrb	r3, [r3, #3]	@ zero_extendqisi2
 5474 18f4 322B     		cmp	r3, #50
 5475 18f6 29D0     		beq	.L292
 5476 18f8 332B     		cmp	r3, #51
 5477 18fa 2CD0     		beq	.L293
 5478 18fc 312B     		cmp	r3, #49
 5479 18fe 2FD1     		bne	.L404
1274:.\main.c      ****                                         case '1':
1275:.\main.c      ****                                         lado1.grado[0][0]=4;                                       
 5480              		.loc 1 1275 0
 5481 1900 0B4B     		ldr	r3, .L422+36
 5482 1902 0422     		movs	r2, #4
 5483 1904 83F85920 		strb	r2, [r3, #89]
1276:.\main.c      ****                                         break;
 5484              		.loc 1 1276 0
 5485 1908 2EE0     		b	.L295
 5486              	.L423:
 5487 190a 00BF     		.align	2
 5488              	.L422:
 5489 190c 00000000 		.word	count_teclas1
 5490 1910 00000000 		.word	Buffer_LCD1
 5491 1914 00000000 		.word	rventa1
 5492 1918 00000000 		.word	flujo_LCD1
 5493 191c 00000000 		.word	id_teclado1
 5494 1920 00000000 		.word	teclas1
 5495 1924 00000000 		.word	posx1
 5496 1928 00000000 		.word	posy1
 5497 192c 00000000 		.word	sizeletra1
 5498 1930 00000000 		.word	lado1
 5499 1934 00000000 		.word	clave_local
 5500 1938 00000000 		.word	Producto
 5501 193c 00000000 		.word	Productos
 5502 1940 00000000 		.word	producto1
 5503 1944 00000000 		.word	producto2
 5504 1948 00000000 		.word	producto3
ARM GAS  C:\Users\diego\AppData\Local\Temp\ccW8UKJI.s 			page 122


 5505              	.L292:
1277:.\main.c      ****                                         case '2':
1278:.\main.c      ****                                         lado1.grado[1][0]=4;                                       
 5506              		.loc 1 1278 0
 5507 194c 794B     		ldr	r3, .L424
 5508 194e 0422     		movs	r2, #4
 5509 1950 83F85A20 		strb	r2, [r3, #90]
1279:.\main.c      ****                                         break;
 5510              		.loc 1 1279 0
 5511 1954 08E0     		b	.L295
 5512              	.L293:
1280:.\main.c      ****                                         case '3':
1281:.\main.c      ****                                         lado1.grado[2][0]=4;                                       
 5513              		.loc 1 1281 0
 5514 1956 774B     		ldr	r3, .L424
 5515 1958 0422     		movs	r2, #4
 5516 195a 83F85B20 		strb	r2, [r3, #91]
1282:.\main.c      ****                                         break;
 5517              		.loc 1 1282 0
 5518 195e 03E0     		b	.L295
 5519              	.L404:
1283:.\main.c      ****                                         default:
1284:.\main.c      ****                                         producto4=0;
 5520              		.loc 1 1284 0
 5521 1960 754B     		ldr	r3, .L424+4
 5522 1962 0022     		movs	r2, #0
 5523 1964 1A70     		strb	r2, [r3]
1285:.\main.c      ****                                         break;                                      
 5524              		.loc 1 1285 0
 5525 1966 00BF     		nop
 5526              	.L295:
1286:.\main.c      ****                                     }                                      
1287:.\main.c      ****                                 break;                                    
 5527              		.loc 1 1287 0
 5528 1968 00BF     		nop
 5529              	.L270:
1288:.\main.c      ****                             }
1289:.\main.c      ****                             write_LCD(1,Productos[0], 7, 44, 1);
 5530              		.loc 1 1289 0
 5531 196a 744B     		ldr	r3, .L424+8
 5532 196c 1A78     		ldrb	r2, [r3]	@ zero_extendqisi2
 5533 196e 0123     		movs	r3, #1
 5534 1970 0093     		str	r3, [sp]
 5535 1972 0120     		movs	r0, #1
 5536 1974 1146     		mov	r1, r2
 5537 1976 0722     		movs	r2, #7
 5538 1978 2C23     		movs	r3, #44
 5539 197a FFF7FEFF 		bl	write_LCD
1290:.\main.c      ****                             write_LCD(1,Productos[1], 14, 44, 1); 
 5540              		.loc 1 1290 0
 5541 197e 6F4B     		ldr	r3, .L424+8
 5542 1980 5A78     		ldrb	r2, [r3, #1]	@ zero_extendqisi2
 5543 1982 0123     		movs	r3, #1
 5544 1984 0093     		str	r3, [sp]
 5545 1986 0120     		movs	r0, #1
 5546 1988 1146     		mov	r1, r2
 5547 198a 0E22     		movs	r2, #14
ARM GAS  C:\Users\diego\AppData\Local\Temp\ccW8UKJI.s 			page 123


 5548 198c 2C23     		movs	r3, #44
 5549 198e FFF7FEFF 		bl	write_LCD
1291:.\main.c      ****                             write_LCD(1,Productos[2], 19, 44, 1);
 5550              		.loc 1 1291 0
 5551 1992 6A4B     		ldr	r3, .L424+8
 5552 1994 9A78     		ldrb	r2, [r3, #2]	@ zero_extendqisi2
 5553 1996 0123     		movs	r3, #1
 5554 1998 0093     		str	r3, [sp]
 5555 199a 0120     		movs	r0, #1
 5556 199c 1146     		mov	r1, r2
 5557 199e 1322     		movs	r2, #19
 5558 19a0 2C23     		movs	r3, #44
 5559 19a2 FFF7FEFF 		bl	write_LCD
1292:.\main.c      ****                             write_LCD(1,Productos[3], 25, 44, 1); 
 5560              		.loc 1 1292 0
 5561 19a6 654B     		ldr	r3, .L424+8
 5562 19a8 DA78     		ldrb	r2, [r3, #3]	@ zero_extendqisi2
 5563 19aa 0123     		movs	r3, #1
 5564 19ac 0093     		str	r3, [sp]
 5565 19ae 0120     		movs	r0, #1
 5566 19b0 1146     		mov	r1, r2
 5567 19b2 1922     		movs	r2, #25
 5568 19b4 2C23     		movs	r3, #44
 5569 19b6 FFF7FEFF 		bl	write_LCD
1293:.\main.c      **** 							lado1.estado=libre;                                 
 5570              		.loc 1 1293 0
 5571 19ba 5E4B     		ldr	r3, .L424
 5572 19bc 0122     		movs	r2, #1
 5573 19be 5A70     		strb	r2, [r3, #1]
1294:.\main.c      ****                             CyDelay(200);                             
 5574              		.loc 1 1294 0
 5575 19c0 C820     		movs	r0, #200
 5576 19c2 FFF7FEFF 		bl	CyDelay
1295:.\main.c      ****                         break;          
 5577              		.loc 1 1295 0
 5578 19c6 AFE0     		b	.L219
 5579              	.L244:
1296:.\main.c      ****                         case 8:
1297:.\main.c      ****                             for(x=1;x<=4;x++){
 5580              		.loc 1 1297 0
 5581 19c8 0123     		movs	r3, #1
 5582 19ca 87F82F30 		strb	r3, [r7, #47]
 5583 19ce 09E0     		b	.L296
 5584              	.L297:
1298:.\main.c      ****                               id_estacion[x]=0;
 5585              		.loc 1 1298 0 discriminator 3
 5586 19d0 97F82F30 		ldrb	r3, [r7, #47]	@ zero_extendqisi2
 5587 19d4 5A4A     		ldr	r2, .L424+12
 5588 19d6 0021     		movs	r1, #0
 5589 19d8 D154     		strb	r1, [r2, r3]
1297:.\main.c      ****                               id_estacion[x]=0;
 5590              		.loc 1 1297 0 discriminator 3
 5591 19da 97F82F30 		ldrb	r3, [r7, #47]	@ zero_extendqisi2
 5592 19de 0133     		adds	r3, r3, #1
 5593 19e0 87F82F30 		strb	r3, [r7, #47]
 5594              	.L296:
1297:.\main.c      ****                               id_estacion[x]=0;
ARM GAS  C:\Users\diego\AppData\Local\Temp\ccW8UKJI.s 			page 124


 5595              		.loc 1 1297 0 is_stmt 0 discriminator 1
 5596 19e4 97F82F30 		ldrb	r3, [r7, #47]	@ zero_extendqisi2
 5597 19e8 042B     		cmp	r3, #4
 5598 19ea F1D9     		bls	.L297
1299:.\main.c      ****                             }
1300:.\main.c      ****                             id_estacion[0]=4;
 5599              		.loc 1 1300 0 is_stmt 1
 5600 19ec 544B     		ldr	r3, .L424+12
 5601 19ee 0422     		movs	r2, #4
 5602 19f0 1A70     		strb	r2, [r3]
1301:.\main.c      **** 							for(x=count_teclas1;x>=1;x--){
 5603              		.loc 1 1301 0
 5604 19f2 544B     		ldr	r3, .L424+16
 5605 19f4 1B78     		ldrb	r3, [r3]
 5606 19f6 87F82F30 		strb	r3, [r7, #47]
 5607 19fa 15E0     		b	.L298
 5608              	.L299:
1302:.\main.c      **** 								id_estacion[x]=Buffer_LCD1[(count_teclas1-x)+1]+0X30;
 5609              		.loc 1 1302 0 discriminator 3
 5610 19fc 97F82F30 		ldrb	r3, [r7, #47]	@ zero_extendqisi2
 5611 1a00 504A     		ldr	r2, .L424+16
 5612 1a02 1278     		ldrb	r2, [r2]
 5613 1a04 D2B2     		uxtb	r2, r2
 5614 1a06 1146     		mov	r1, r2
 5615 1a08 97F82F20 		ldrb	r2, [r7, #47]	@ zero_extendqisi2
 5616 1a0c 8A1A     		subs	r2, r1, r2
 5617 1a0e 0132     		adds	r2, r2, #1
 5618 1a10 4D49     		ldr	r1, .L424+20
 5619 1a12 8A5C     		ldrb	r2, [r1, r2]
 5620 1a14 D2B2     		uxtb	r2, r2
 5621 1a16 3032     		adds	r2, r2, #48
 5622 1a18 D1B2     		uxtb	r1, r2
 5623 1a1a 494A     		ldr	r2, .L424+12
 5624 1a1c D154     		strb	r1, [r2, r3]
1301:.\main.c      **** 							for(x=count_teclas1;x>=1;x--){
 5625              		.loc 1 1301 0 discriminator 3
 5626 1a1e 97F82F30 		ldrb	r3, [r7, #47]	@ zero_extendqisi2
 5627 1a22 013B     		subs	r3, r3, #1
 5628 1a24 87F82F30 		strb	r3, [r7, #47]
 5629              	.L298:
1301:.\main.c      **** 							for(x=count_teclas1;x>=1;x--){
 5630              		.loc 1 1301 0 is_stmt 0 discriminator 1
 5631 1a28 97F82F30 		ldrb	r3, [r7, #47]	@ zero_extendqisi2
 5632 1a2c 002B     		cmp	r3, #0
 5633 1a2e E5D1     		bne	.L299
1303:.\main.c      **** 							}                            
1304:.\main.c      ****                             if(id_estacion[1]>=0x30 && id_estacion[2]<0x30 && id_estacion[3]<0x30 &
 5634              		.loc 1 1304 0 is_stmt 1
 5635 1a30 434B     		ldr	r3, .L424+12
 5636 1a32 5B78     		ldrb	r3, [r3, #1]
 5637 1a34 DBB2     		uxtb	r3, r3
 5638 1a36 2F2B     		cmp	r3, #47
 5639 1a38 17D9     		bls	.L300
 5640              		.loc 1 1304 0 is_stmt 0 discriminator 1
 5641 1a3a 414B     		ldr	r3, .L424+12
 5642 1a3c 9B78     		ldrb	r3, [r3, #2]
 5643 1a3e DBB2     		uxtb	r3, r3
ARM GAS  C:\Users\diego\AppData\Local\Temp\ccW8UKJI.s 			page 125


 5644 1a40 2F2B     		cmp	r3, #47
 5645 1a42 12D8     		bhi	.L300
 5646              		.loc 1 1304 0 discriminator 2
 5647 1a44 3E4B     		ldr	r3, .L424+12
 5648 1a46 DB78     		ldrb	r3, [r3, #3]
 5649 1a48 DBB2     		uxtb	r3, r3
 5650 1a4a 2F2B     		cmp	r3, #47
 5651 1a4c 0DD8     		bhi	.L300
 5652              		.loc 1 1304 0 discriminator 3
 5653 1a4e 3C4B     		ldr	r3, .L424+12
 5654 1a50 1B79     		ldrb	r3, [r3, #4]
 5655 1a52 DBB2     		uxtb	r3, r3
 5656 1a54 2F2B     		cmp	r3, #47
 5657 1a56 08D8     		bhi	.L300
1305:.\main.c      ****                                 id_estacion[2]='0';
 5658              		.loc 1 1305 0 is_stmt 1
 5659 1a58 394B     		ldr	r3, .L424+12
 5660 1a5a 3022     		movs	r2, #48
 5661 1a5c 9A70     		strb	r2, [r3, #2]
1306:.\main.c      ****                                 id_estacion[3]='0';
 5662              		.loc 1 1306 0
 5663 1a5e 384B     		ldr	r3, .L424+12
 5664 1a60 3022     		movs	r2, #48
 5665 1a62 DA70     		strb	r2, [r3, #3]
1307:.\main.c      ****                                 id_estacion[4]='0';                                
 5666              		.loc 1 1307 0
 5667 1a64 364B     		ldr	r3, .L424+12
 5668 1a66 3022     		movs	r2, #48
 5669 1a68 1A71     		strb	r2, [r3, #4]
 5670              	.L300:
1308:.\main.c      ****                             }
1309:.\main.c      ****                             if(id_estacion[1]>=0x30 && id_estacion[2]>=0x30 && id_estacion[3]<0x30 
 5671              		.loc 1 1309 0
 5672 1a6a 354B     		ldr	r3, .L424+12
 5673 1a6c 5B78     		ldrb	r3, [r3, #1]
 5674 1a6e DBB2     		uxtb	r3, r3
 5675 1a70 2F2B     		cmp	r3, #47
 5676 1a72 14D9     		bls	.L301
 5677              		.loc 1 1309 0 is_stmt 0 discriminator 1
 5678 1a74 324B     		ldr	r3, .L424+12
 5679 1a76 9B78     		ldrb	r3, [r3, #2]
 5680 1a78 DBB2     		uxtb	r3, r3
 5681 1a7a 2F2B     		cmp	r3, #47
 5682 1a7c 0FD9     		bls	.L301
 5683              		.loc 1 1309 0 discriminator 2
 5684 1a7e 304B     		ldr	r3, .L424+12
 5685 1a80 DB78     		ldrb	r3, [r3, #3]
 5686 1a82 DBB2     		uxtb	r3, r3
 5687 1a84 2F2B     		cmp	r3, #47
 5688 1a86 0AD8     		bhi	.L301
 5689              		.loc 1 1309 0 discriminator 3
 5690 1a88 2D4B     		ldr	r3, .L424+12
 5691 1a8a 1B79     		ldrb	r3, [r3, #4]
 5692 1a8c DBB2     		uxtb	r3, r3
 5693 1a8e 2F2B     		cmp	r3, #47
 5694 1a90 05D8     		bhi	.L301
1310:.\main.c      ****                                 id_estacion[3]='0';
ARM GAS  C:\Users\diego\AppData\Local\Temp\ccW8UKJI.s 			page 126


 5695              		.loc 1 1310 0 is_stmt 1
 5696 1a92 2B4B     		ldr	r3, .L424+12
 5697 1a94 3022     		movs	r2, #48
 5698 1a96 DA70     		strb	r2, [r3, #3]
1311:.\main.c      ****                                 id_estacion[4]='0';                             
 5699              		.loc 1 1311 0
 5700 1a98 294B     		ldr	r3, .L424+12
 5701 1a9a 3022     		movs	r2, #48
 5702 1a9c 1A71     		strb	r2, [r3, #4]
 5703              	.L301:
1312:.\main.c      ****                             }  
1313:.\main.c      ****                             if(id_estacion[1]>=0x30 && id_estacion[2]>=0x30 && id_estacion[3]>=0x30
 5704              		.loc 1 1313 0
 5705 1a9e 284B     		ldr	r3, .L424+12
 5706 1aa0 5B78     		ldrb	r3, [r3, #1]
 5707 1aa2 DBB2     		uxtb	r3, r3
 5708 1aa4 2F2B     		cmp	r3, #47
 5709 1aa6 11D9     		bls	.L302
 5710              		.loc 1 1313 0 is_stmt 0 discriminator 1
 5711 1aa8 254B     		ldr	r3, .L424+12
 5712 1aaa 9B78     		ldrb	r3, [r3, #2]
 5713 1aac DBB2     		uxtb	r3, r3
 5714 1aae 2F2B     		cmp	r3, #47
 5715 1ab0 0CD9     		bls	.L302
 5716              		.loc 1 1313 0 discriminator 2
 5717 1ab2 234B     		ldr	r3, .L424+12
 5718 1ab4 DB78     		ldrb	r3, [r3, #3]
 5719 1ab6 DBB2     		uxtb	r3, r3
 5720 1ab8 2F2B     		cmp	r3, #47
 5721 1aba 07D9     		bls	.L302
 5722              		.loc 1 1313 0 discriminator 3
 5723 1abc 204B     		ldr	r3, .L424+12
 5724 1abe 1B79     		ldrb	r3, [r3, #4]
 5725 1ac0 DBB2     		uxtb	r3, r3
 5726 1ac2 2F2B     		cmp	r3, #47
 5727 1ac4 02D8     		bhi	.L302
1314:.\main.c      ****                                 id_estacion[4]='0';                              
 5728              		.loc 1 1314 0 is_stmt 1
 5729 1ac6 1E4B     		ldr	r3, .L424+12
 5730 1ac8 3022     		movs	r2, #48
 5731 1aca 1A71     		strb	r2, [r3, #4]
 5732              	.L302:
1315:.\main.c      ****                             }
1316:.\main.c      ****                     		for(x=8;x<=12;x++){	
 5733              		.loc 1 1316 0
 5734 1acc 0823     		movs	r3, #8
 5735 1ace 87F82F30 		strb	r3, [r7, #47]
 5736 1ad2 11E0     		b	.L303
 5737              	.L304:
1317:.\main.c      ****                     			EEPROM_WriteByte(id_estacion[x-8], x);
 5738              		.loc 1 1317 0 discriminator 3
 5739 1ad4 97F82F30 		ldrb	r3, [r7, #47]	@ zero_extendqisi2
 5740 1ad8 083B     		subs	r3, r3, #8
 5741 1ada 194A     		ldr	r2, .L424+12
 5742 1adc D35C     		ldrb	r3, [r2, r3]
 5743 1ade DAB2     		uxtb	r2, r3
 5744 1ae0 97F82F30 		ldrb	r3, [r7, #47]	@ zero_extendqisi2
ARM GAS  C:\Users\diego\AppData\Local\Temp\ccW8UKJI.s 			page 127


 5745 1ae4 9BB2     		uxth	r3, r3
 5746 1ae6 1046     		mov	r0, r2
 5747 1ae8 1946     		mov	r1, r3
 5748 1aea FFF7FEFF 		bl	EEPROM_WriteByte
1316:.\main.c      ****                     			EEPROM_WriteByte(id_estacion[x-8], x);
 5749              		.loc 1 1316 0 discriminator 3
 5750 1aee 97F82F30 		ldrb	r3, [r7, #47]	@ zero_extendqisi2
 5751 1af2 0133     		adds	r3, r3, #1
 5752 1af4 87F82F30 		strb	r3, [r7, #47]
 5753              	.L303:
1316:.\main.c      ****                     			EEPROM_WriteByte(id_estacion[x-8], x);
 5754              		.loc 1 1316 0 is_stmt 0 discriminator 1
 5755 1af8 97F82F30 		ldrb	r3, [r7, #47]	@ zero_extendqisi2
 5756 1afc 0C2B     		cmp	r3, #12
 5757 1afe E9D9     		bls	.L304
1318:.\main.c      ****                     		}   
1319:.\main.c      ****                         	flujo_LCD1 = 12;	//viejo: 0
 5758              		.loc 1 1319 0 is_stmt 1
 5759 1b00 124B     		ldr	r3, .L424+24
 5760 1b02 0C22     		movs	r2, #12
 5761 1b04 1A70     		strb	r2, [r3]
1320:.\main.c      ****                             id_teclado1 = 2;
 5762              		.loc 1 1320 0
 5763 1b06 124B     		ldr	r3, .L424+28
 5764 1b08 0222     		movs	r2, #2
 5765 1b0a 1A70     		strb	r2, [r3]
1321:.\main.c      ****                         	set_imagen(1,14); //viejo: 60
 5766              		.loc 1 1321 0
 5767 1b0c 0120     		movs	r0, #1
 5768 1b0e 0E21     		movs	r1, #14
 5769 1b10 FFF7FEFF 		bl	set_imagen
1322:.\main.c      ****                             CyDelay(200);
 5770              		.loc 1 1322 0
 5771 1b14 C820     		movs	r0, #200
 5772 1b16 FFF7FEFF 		bl	CyDelay
1323:.\main.c      ****                             count_teclas1 = 0;
 5773              		.loc 1 1323 0
 5774 1b1a 0A4B     		ldr	r3, .L424+16
 5775 1b1c 0022     		movs	r2, #0
 5776 1b1e 1A70     		strb	r2, [r3]
1324:.\main.c      **** 							lado1.estado=libre;                                    
 5777              		.loc 1 1324 0
 5778 1b20 044B     		ldr	r3, .L424
 5779 1b22 0122     		movs	r2, #1
 5780 1b24 5A70     		strb	r2, [r3, #1]
1325:.\main.c      ****                         break;
 5781              		.loc 1 1325 0
 5782 1b26 00BF     		nop
 5783              	.L219:
1326:.\main.c      **** 					}					
1327:.\main.c      ****                 }
1328:.\main.c      ****             }
1329:.\main.c      ****             //CyDelay(100);            
1330:.\main.c      ****             LCD_1_ClearRxBuffer();
 5784              		.loc 1 1330 0
 5785 1b28 FFF7FEFF 		bl	LCD_1_ClearRxBuffer
1331:.\main.c      ****          }
ARM GAS  C:\Users\diego\AppData\Local\Temp\ccW8UKJI.s 			page 128


1332:.\main.c      **** //		 if((count_protector>=30)&&(rventa1.tipo_venta==0)&&(id_teclado1==2)){
1333:.\main.c      **** //			count_teclas1=0;
1334:.\main.c      **** //			teclas1=7;
1335:.\main.c      **** //			posx1=4;
1336:.\main.c      **** //			posy1=3;
1337:.\main.c      **** //			sizeletra1=1;				
1338:.\main.c      **** //			set_imagen(1,10);
1339:.\main.c      **** //			flujo_LCD1=13;
1340:.\main.c      **** //			count_protector=0;
1341:.\main.c      **** //		 }		
1342:.\main.c      ****         break;	
 5786              		.loc 1 1342 0
 5787 1b2c 00F0F1BF 		b	.L92
 5788              	.L218:
 5789              		.loc 1 1342 0 is_stmt 0 discriminator 11
 5790 1b30 00F0EFBF 		b	.L92
 5791              	.L425:
 5792              		.align	2
 5793              	.L424:
 5794 1b34 00000000 		.word	lado1
 5795 1b38 00000000 		.word	producto4
 5796 1b3c 00000000 		.word	Productos
 5797 1b40 00000000 		.word	id_estacion
 5798 1b44 00000000 		.word	count_teclas1
 5799 1b48 00000000 		.word	Buffer_LCD1
 5800 1b4c 00000000 		.word	flujo_LCD1
 5801 1b50 00000000 		.word	id_teclado1
 5802              	.L106:
1343:.\main.c      ****             
1344:.\main.c      ****         case 13:      
1345:.\main.c      **** 			rf_mod[0]='M';
 5803              		.loc 1 1345 0 is_stmt 1
 5804 1b54 9F4B     		ldr	r3, .L426
 5805 1b56 4D22     		movs	r2, #77
 5806 1b58 1A70     		strb	r2, [r3]
1346:.\main.c      **** 			rf_mod[1]='U';
 5807              		.loc 1 1346 0
 5808 1b5a 9E4B     		ldr	r3, .L426
 5809 1b5c 5522     		movs	r2, #85
 5810 1b5e 5A70     		strb	r2, [r3, #1]
1347:.\main.c      **** 			rf_mod[2]='X';
 5811              		.loc 1 1347 0
 5812 1b60 9C4B     		ldr	r3, .L426
 5813 1b62 5822     		movs	r2, #88
 5814 1b64 9A70     		strb	r2, [r3, #2]
1348:.\main.c      **** 			rf_mod[3]='1';
 5815              		.loc 1 1348 0
 5816 1b66 9B4B     		ldr	r3, .L426
 5817 1b68 3122     		movs	r2, #49
 5818 1b6a DA70     		strb	r2, [r3, #3]
1349:.\main.c      **** 			rf_mod[4]=1 + 48;								//Cara
 5819              		.loc 1 1349 0
 5820 1b6c 994B     		ldr	r3, .L426
 5821 1b6e 3122     		movs	r2, #49
 5822 1b70 1A71     		strb	r2, [r3, #4]
1350:.\main.c      **** 			rf_mod[5]=(lado1.grado[rventa1.producto-1][0] + 48);	//Id Producto	
 5823              		.loc 1 1350 0
ARM GAS  C:\Users\diego\AppData\Local\Temp\ccW8UKJI.s 			page 129


 5824 1b72 994B     		ldr	r3, .L426+4
 5825 1b74 5B7E     		ldrb	r3, [r3, #25]	@ zero_extendqisi2
 5826 1b76 013B     		subs	r3, r3, #1
 5827 1b78 984A     		ldr	r2, .L426+8
 5828 1b7a 1344     		add	r3, r3, r2
 5829 1b7c 93F85930 		ldrb	r3, [r3, #89]
 5830 1b80 DBB2     		uxtb	r3, r3
 5831 1b82 3033     		adds	r3, r3, #48
 5832 1b84 DAB2     		uxtb	r2, r3
 5833 1b86 934B     		ldr	r3, .L426
 5834 1b88 5A71     		strb	r2, [r3, #5]
1351:.\main.c      **** 			rf_mod[6]=rventa1.volumen[5] + 48;						//Volumen
 5835              		.loc 1 1351 0
 5836 1b8a 934B     		ldr	r3, .L426+4
 5837 1b8c 5B7D     		ldrb	r3, [r3, #21]	@ zero_extendqisi2
 5838 1b8e 3033     		adds	r3, r3, #48
 5839 1b90 DAB2     		uxtb	r2, r3
 5840 1b92 904B     		ldr	r3, .L426
 5841 1b94 9A71     		strb	r2, [r3, #6]
1352:.\main.c      **** 			rf_mod[7]=rventa1.volumen[4] + 48;
 5842              		.loc 1 1352 0
 5843 1b96 904B     		ldr	r3, .L426+4
 5844 1b98 1B7D     		ldrb	r3, [r3, #20]	@ zero_extendqisi2
 5845 1b9a 3033     		adds	r3, r3, #48
 5846 1b9c DAB2     		uxtb	r2, r3
 5847 1b9e 8D4B     		ldr	r3, .L426
 5848 1ba0 DA71     		strb	r2, [r3, #7]
1353:.\main.c      **** 			rf_mod[8]=rventa1.volumen[3] + 48;
 5849              		.loc 1 1353 0
 5850 1ba2 8D4B     		ldr	r3, .L426+4
 5851 1ba4 DB7C     		ldrb	r3, [r3, #19]	@ zero_extendqisi2
 5852 1ba6 3033     		adds	r3, r3, #48
 5853 1ba8 DAB2     		uxtb	r2, r3
 5854 1baa 8A4B     		ldr	r3, .L426
 5855 1bac 1A72     		strb	r2, [r3, #8]
1354:.\main.c      **** 			rf_mod[9]=',';
 5856              		.loc 1 1354 0
 5857 1bae 894B     		ldr	r3, .L426
 5858 1bb0 2C22     		movs	r2, #44
 5859 1bb2 5A72     		strb	r2, [r3, #9]
1355:.\main.c      **** 			rf_mod[10]=rventa1.volumen[2] + 48;
 5860              		.loc 1 1355 0
 5861 1bb4 884B     		ldr	r3, .L426+4
 5862 1bb6 9B7C     		ldrb	r3, [r3, #18]	@ zero_extendqisi2
 5863 1bb8 3033     		adds	r3, r3, #48
 5864 1bba DAB2     		uxtb	r2, r3
 5865 1bbc 854B     		ldr	r3, .L426
 5866 1bbe 9A72     		strb	r2, [r3, #10]
1356:.\main.c      **** 			rf_mod[11]=rventa1.volumen[1] + 48;
 5867              		.loc 1 1356 0
 5868 1bc0 854B     		ldr	r3, .L426+4
 5869 1bc2 5B7C     		ldrb	r3, [r3, #17]	@ zero_extendqisi2
 5870 1bc4 3033     		adds	r3, r3, #48
 5871 1bc6 DAB2     		uxtb	r2, r3
 5872 1bc8 824B     		ldr	r3, .L426
 5873 1bca DA72     		strb	r2, [r3, #11]
1357:.\main.c      **** 			rf_mod[12]=rventa1.volumen[0] + 48;
ARM GAS  C:\Users\diego\AppData\Local\Temp\ccW8UKJI.s 			page 130


 5874              		.loc 1 1357 0
 5875 1bcc 824B     		ldr	r3, .L426+4
 5876 1bce 1B7C     		ldrb	r3, [r3, #16]	@ zero_extendqisi2
 5877 1bd0 3033     		adds	r3, r3, #48
 5878 1bd2 DAB2     		uxtb	r2, r3
 5879 1bd4 7F4B     		ldr	r3, .L426
 5880 1bd6 1A73     		strb	r2, [r3, #12]
1358:.\main.c      **** 			if(version[1]==7){
 5881              		.loc 1 1358 0
 5882 1bd8 814B     		ldr	r3, .L426+12
 5883 1bda 5B78     		ldrb	r3, [r3, #1]
 5884 1bdc DBB2     		uxtb	r3, r3
 5885 1bde 072B     		cmp	r3, #7
 5886 1be0 2AD1     		bne	.L305
1359:.\main.c      **** 				rf_mod[13]=rventa1.dinero[7] + 48;	//Dinero 7 digitos
 5887              		.loc 1 1359 0
 5888 1be2 7D4B     		ldr	r3, .L426+4
 5889 1be4 9B7B     		ldrb	r3, [r3, #14]	@ zero_extendqisi2
 5890 1be6 3033     		adds	r3, r3, #48
 5891 1be8 DAB2     		uxtb	r2, r3
 5892 1bea 7A4B     		ldr	r3, .L426
 5893 1bec 5A73     		strb	r2, [r3, #13]
1360:.\main.c      **** 				rf_mod[14]=rventa1.dinero[6] + 48;
 5894              		.loc 1 1360 0
 5895 1bee 7A4B     		ldr	r3, .L426+4
 5896 1bf0 5B7B     		ldrb	r3, [r3, #13]	@ zero_extendqisi2
 5897 1bf2 3033     		adds	r3, r3, #48
 5898 1bf4 DAB2     		uxtb	r2, r3
 5899 1bf6 774B     		ldr	r3, .L426
 5900 1bf8 9A73     		strb	r2, [r3, #14]
1361:.\main.c      **** 				rf_mod[15]=rventa1.dinero[5] + 48;
 5901              		.loc 1 1361 0
 5902 1bfa 774B     		ldr	r3, .L426+4
 5903 1bfc 1B7B     		ldrb	r3, [r3, #12]	@ zero_extendqisi2
 5904 1bfe 3033     		adds	r3, r3, #48
 5905 1c00 DAB2     		uxtb	r2, r3
 5906 1c02 744B     		ldr	r3, .L426
 5907 1c04 DA73     		strb	r2, [r3, #15]
1362:.\main.c      **** 				rf_mod[16]=rventa1.dinero[4] + 48;
 5908              		.loc 1 1362 0
 5909 1c06 744B     		ldr	r3, .L426+4
 5910 1c08 DB7A     		ldrb	r3, [r3, #11]	@ zero_extendqisi2
 5911 1c0a 3033     		adds	r3, r3, #48
 5912 1c0c DAB2     		uxtb	r2, r3
 5913 1c0e 714B     		ldr	r3, .L426
 5914 1c10 1A74     		strb	r2, [r3, #16]
1363:.\main.c      **** 				rf_mod[17]=rventa1.dinero[3] + 48;
 5915              		.loc 1 1363 0
 5916 1c12 714B     		ldr	r3, .L426+4
 5917 1c14 9B7A     		ldrb	r3, [r3, #10]	@ zero_extendqisi2
 5918 1c16 3033     		adds	r3, r3, #48
 5919 1c18 DAB2     		uxtb	r2, r3
 5920 1c1a 6E4B     		ldr	r3, .L426
 5921 1c1c 5A74     		strb	r2, [r3, #17]
1364:.\main.c      **** 				rf_mod[18]=rventa1.dinero[2] + 48;
 5922              		.loc 1 1364 0
 5923 1c1e 6E4B     		ldr	r3, .L426+4
ARM GAS  C:\Users\diego\AppData\Local\Temp\ccW8UKJI.s 			page 131


 5924 1c20 5B7A     		ldrb	r3, [r3, #9]	@ zero_extendqisi2
 5925 1c22 3033     		adds	r3, r3, #48
 5926 1c24 DAB2     		uxtb	r2, r3
 5927 1c26 6B4B     		ldr	r3, .L426
 5928 1c28 9A74     		strb	r2, [r3, #18]
1365:.\main.c      **** 				rf_mod[19]=rventa1.dinero[1] + 48;					
 5929              		.loc 1 1365 0
 5930 1c2a 6B4B     		ldr	r3, .L426+4
 5931 1c2c 1B7A     		ldrb	r3, [r3, #8]	@ zero_extendqisi2
 5932 1c2e 3033     		adds	r3, r3, #48
 5933 1c30 DAB2     		uxtb	r2, r3
 5934 1c32 684B     		ldr	r3, .L426
 5935 1c34 DA74     		strb	r2, [r3, #19]
 5936 1c36 29E0     		b	.L306
 5937              	.L305:
1366:.\main.c      **** 			}
1367:.\main.c      **** 			else{
1368:.\main.c      **** 				rf_mod[13]=rventa1.dinero[6] + 48;	//Dinero 6 digitos 
 5938              		.loc 1 1368 0
 5939 1c38 674B     		ldr	r3, .L426+4
 5940 1c3a 5B7B     		ldrb	r3, [r3, #13]	@ zero_extendqisi2
 5941 1c3c 3033     		adds	r3, r3, #48
 5942 1c3e DAB2     		uxtb	r2, r3
 5943 1c40 644B     		ldr	r3, .L426
 5944 1c42 5A73     		strb	r2, [r3, #13]
1369:.\main.c      **** 				rf_mod[14]=rventa1.dinero[5] + 48;
 5945              		.loc 1 1369 0
 5946 1c44 644B     		ldr	r3, .L426+4
 5947 1c46 1B7B     		ldrb	r3, [r3, #12]	@ zero_extendqisi2
 5948 1c48 3033     		adds	r3, r3, #48
 5949 1c4a DAB2     		uxtb	r2, r3
 5950 1c4c 614B     		ldr	r3, .L426
 5951 1c4e 9A73     		strb	r2, [r3, #14]
1370:.\main.c      **** 				rf_mod[15]=rventa1.dinero[4] + 48;
 5952              		.loc 1 1370 0
 5953 1c50 614B     		ldr	r3, .L426+4
 5954 1c52 DB7A     		ldrb	r3, [r3, #11]	@ zero_extendqisi2
 5955 1c54 3033     		adds	r3, r3, #48
 5956 1c56 DAB2     		uxtb	r2, r3
 5957 1c58 5E4B     		ldr	r3, .L426
 5958 1c5a DA73     		strb	r2, [r3, #15]
1371:.\main.c      **** 				rf_mod[16]=rventa1.dinero[3] + 48;
 5959              		.loc 1 1371 0
 5960 1c5c 5E4B     		ldr	r3, .L426+4
 5961 1c5e 9B7A     		ldrb	r3, [r3, #10]	@ zero_extendqisi2
 5962 1c60 3033     		adds	r3, r3, #48
 5963 1c62 DAB2     		uxtb	r2, r3
 5964 1c64 5B4B     		ldr	r3, .L426
 5965 1c66 1A74     		strb	r2, [r3, #16]
1372:.\main.c      **** 				rf_mod[17]=rventa1.dinero[2] + 48;
 5966              		.loc 1 1372 0
 5967 1c68 5B4B     		ldr	r3, .L426+4
 5968 1c6a 5B7A     		ldrb	r3, [r3, #9]	@ zero_extendqisi2
 5969 1c6c 3033     		adds	r3, r3, #48
 5970 1c6e DAB2     		uxtb	r2, r3
 5971 1c70 584B     		ldr	r3, .L426
 5972 1c72 5A74     		strb	r2, [r3, #17]
ARM GAS  C:\Users\diego\AppData\Local\Temp\ccW8UKJI.s 			page 132


1373:.\main.c      **** 				rf_mod[18]=rventa1.dinero[1] + 48;					
 5973              		.loc 1 1373 0
 5974 1c74 584B     		ldr	r3, .L426+4
 5975 1c76 1B7A     		ldrb	r3, [r3, #8]	@ zero_extendqisi2
 5976 1c78 3033     		adds	r3, r3, #48
 5977 1c7a DAB2     		uxtb	r2, r3
 5978 1c7c 554B     		ldr	r3, .L426
 5979 1c7e 9A74     		strb	r2, [r3, #18]
1374:.\main.c      **** 				rf_mod[19]=rventa1.dinero[0] + 48;
 5980              		.loc 1 1374 0
 5981 1c80 554B     		ldr	r3, .L426+4
 5982 1c82 DB79     		ldrb	r3, [r3, #7]	@ zero_extendqisi2
 5983 1c84 3033     		adds	r3, r3, #48
 5984 1c86 DAB2     		uxtb	r2, r3
 5985 1c88 524B     		ldr	r3, .L426
 5986 1c8a DA74     		strb	r2, [r3, #19]
 5987              	.L306:
1375:.\main.c      **** 			}
1376:.\main.c      ****             if(ppux10==0){
 5988              		.loc 1 1376 0
 5989 1c8c 554B     		ldr	r3, .L426+16
 5990 1c8e 1B78     		ldrb	r3, [r3]
 5991 1c90 DBB2     		uxtb	r3, r3
 5992 1c92 002B     		cmp	r3, #0
 5993 1c94 1DD1     		bne	.L307
1377:.\main.c      ****     			rf_mod[20]=rventa1.ppu[4] + 48;			//PPU
 5994              		.loc 1 1377 0
 5995 1c96 504B     		ldr	r3, .L426+4
 5996 1c98 9B79     		ldrb	r3, [r3, #6]	@ zero_extendqisi2
 5997 1c9a 3033     		adds	r3, r3, #48
 5998 1c9c DAB2     		uxtb	r2, r3
 5999 1c9e 4D4B     		ldr	r3, .L426
 6000 1ca0 1A75     		strb	r2, [r3, #20]
1378:.\main.c      ****     			rf_mod[21]=rventa1.ppu[3] + 48;
 6001              		.loc 1 1378 0
 6002 1ca2 4D4B     		ldr	r3, .L426+4
 6003 1ca4 5B79     		ldrb	r3, [r3, #5]	@ zero_extendqisi2
 6004 1ca6 3033     		adds	r3, r3, #48
 6005 1ca8 DAB2     		uxtb	r2, r3
 6006 1caa 4A4B     		ldr	r3, .L426
 6007 1cac 5A75     		strb	r2, [r3, #21]
1379:.\main.c      ****     			rf_mod[22]=rventa1.ppu[2] + 48;
 6008              		.loc 1 1379 0
 6009 1cae 4A4B     		ldr	r3, .L426+4
 6010 1cb0 1B79     		ldrb	r3, [r3, #4]	@ zero_extendqisi2
 6011 1cb2 3033     		adds	r3, r3, #48
 6012 1cb4 DAB2     		uxtb	r2, r3
 6013 1cb6 474B     		ldr	r3, .L426
 6014 1cb8 9A75     		strb	r2, [r3, #22]
1380:.\main.c      ****     			rf_mod[23]=rventa1.ppu[1] + 48;
 6015              		.loc 1 1380 0
 6016 1cba 474B     		ldr	r3, .L426+4
 6017 1cbc DB78     		ldrb	r3, [r3, #3]	@ zero_extendqisi2
 6018 1cbe 3033     		adds	r3, r3, #48
 6019 1cc0 DAB2     		uxtb	r2, r3
 6020 1cc2 444B     		ldr	r3, .L426
 6021 1cc4 DA75     		strb	r2, [r3, #23]
ARM GAS  C:\Users\diego\AppData\Local\Temp\ccW8UKJI.s 			page 133


1381:.\main.c      ****     			rf_mod[24]=rventa1.ppu[0] + 48;
 6022              		.loc 1 1381 0
 6023 1cc6 444B     		ldr	r3, .L426+4
 6024 1cc8 9B78     		ldrb	r3, [r3, #2]	@ zero_extendqisi2
 6025 1cca 3033     		adds	r3, r3, #48
 6026 1ccc DAB2     		uxtb	r2, r3
 6027 1cce 414B     		ldr	r3, .L426
 6028 1cd0 1A76     		strb	r2, [r3, #24]
 6029              	.L307:
1382:.\main.c      ****             }
1383:.\main.c      ****             if(ppux10==1){
 6030              		.loc 1 1383 0
 6031 1cd2 444B     		ldr	r3, .L426+16
 6032 1cd4 1B78     		ldrb	r3, [r3]
 6033 1cd6 DBB2     		uxtb	r3, r3
 6034 1cd8 012B     		cmp	r3, #1
 6035 1cda 1AD1     		bne	.L308
1384:.\main.c      ****     			rf_mod[20]=rventa1.ppu[3] + 48;			//PPU x10
 6036              		.loc 1 1384 0
 6037 1cdc 3E4B     		ldr	r3, .L426+4
 6038 1cde 5B79     		ldrb	r3, [r3, #5]	@ zero_extendqisi2
 6039 1ce0 3033     		adds	r3, r3, #48
 6040 1ce2 DAB2     		uxtb	r2, r3
 6041 1ce4 3B4B     		ldr	r3, .L426
 6042 1ce6 1A75     		strb	r2, [r3, #20]
1385:.\main.c      ****     			rf_mod[21]=rventa1.ppu[2] + 48;
 6043              		.loc 1 1385 0
 6044 1ce8 3B4B     		ldr	r3, .L426+4
 6045 1cea 1B79     		ldrb	r3, [r3, #4]	@ zero_extendqisi2
 6046 1cec 3033     		adds	r3, r3, #48
 6047 1cee DAB2     		uxtb	r2, r3
 6048 1cf0 384B     		ldr	r3, .L426
 6049 1cf2 5A75     		strb	r2, [r3, #21]
1386:.\main.c      ****     			rf_mod[22]=rventa1.ppu[1] + 48;
 6050              		.loc 1 1386 0
 6051 1cf4 384B     		ldr	r3, .L426+4
 6052 1cf6 DB78     		ldrb	r3, [r3, #3]	@ zero_extendqisi2
 6053 1cf8 3033     		adds	r3, r3, #48
 6054 1cfa DAB2     		uxtb	r2, r3
 6055 1cfc 354B     		ldr	r3, .L426
 6056 1cfe 9A75     		strb	r2, [r3, #22]
1387:.\main.c      ****     			rf_mod[23]=rventa1.ppu[0] + 48;
 6057              		.loc 1 1387 0
 6058 1d00 354B     		ldr	r3, .L426+4
 6059 1d02 9B78     		ldrb	r3, [r3, #2]	@ zero_extendqisi2
 6060 1d04 3033     		adds	r3, r3, #48
 6061 1d06 DAB2     		uxtb	r2, r3
 6062 1d08 324B     		ldr	r3, .L426
 6063 1d0a DA75     		strb	r2, [r3, #23]
1388:.\main.c      ****     			rf_mod[24]=48;
 6064              		.loc 1 1388 0
 6065 1d0c 314B     		ldr	r3, .L426
 6066 1d0e 3022     		movs	r2, #48
 6067 1d10 1A76     		strb	r2, [r3, #24]
 6068              	.L308:
1389:.\main.c      ****             }
1390:.\main.c      **** 			rf_mod[25]=id_estacion[4];				//Id Estacion	
ARM GAS  C:\Users\diego\AppData\Local\Temp\ccW8UKJI.s 			page 134


 6069              		.loc 1 1390 0
 6070 1d12 354B     		ldr	r3, .L426+20
 6071 1d14 1B79     		ldrb	r3, [r3, #4]
 6072 1d16 DAB2     		uxtb	r2, r3
 6073 1d18 2E4B     		ldr	r3, .L426
 6074 1d1a 5A76     		strb	r2, [r3, #25]
1391:.\main.c      **** 			rf_mod[26]=id_estacion[3];
 6075              		.loc 1 1391 0
 6076 1d1c 324B     		ldr	r3, .L426+20
 6077 1d1e DB78     		ldrb	r3, [r3, #3]
 6078 1d20 DAB2     		uxtb	r2, r3
 6079 1d22 2C4B     		ldr	r3, .L426
 6080 1d24 9A76     		strb	r2, [r3, #26]
1392:.\main.c      **** 			rf_mod[27]=id_estacion[2];
 6081              		.loc 1 1392 0
 6082 1d26 304B     		ldr	r3, .L426+20
 6083 1d28 9B78     		ldrb	r3, [r3, #2]
 6084 1d2a DAB2     		uxtb	r2, r3
 6085 1d2c 294B     		ldr	r3, .L426
 6086 1d2e DA76     		strb	r2, [r3, #27]
1393:.\main.c      **** 			rf_mod[28]=id_estacion[1];
 6087              		.loc 1 1393 0
 6088 1d30 2D4B     		ldr	r3, .L426+20
 6089 1d32 5B78     		ldrb	r3, [r3, #1]
 6090 1d34 DAB2     		uxtb	r2, r3
 6091 1d36 274B     		ldr	r3, .L426
 6092 1d38 1A77     		strb	r2, [r3, #28]
1394:.\main.c      **** 			
1395:.\main.c      ****             if(tipo_venta == 1){
 6093              		.loc 1 1395 0
 6094 1d3a 2C4B     		ldr	r3, .L426+24
 6095 1d3c 1B78     		ldrb	r3, [r3]	@ zero_extendqisi2
 6096 1d3e 012B     		cmp	r3, #1
 6097 1d40 43D1     		bne	.L309
1396:.\main.c      ****                 for(x=0;x<=15;x++){						//Serial				
 6098              		.loc 1 1396 0
 6099 1d42 0023     		movs	r3, #0
 6100 1d44 87F82F30 		strb	r3, [r7, #47]
 6101 1d48 3AE0     		b	.L310
 6102              	.L313:
1397:.\main.c      **** 				    y=(rventa1.id[x/2]>>4)&0x0F;
 6103              		.loc 1 1397 0
 6104 1d4a 97F82F30 		ldrb	r3, [r7, #47]	@ zero_extendqisi2
 6105 1d4e 5B08     		lsrs	r3, r3, #1
 6106 1d50 DBB2     		uxtb	r3, r3
 6107 1d52 1A46     		mov	r2, r3
 6108 1d54 204B     		ldr	r3, .L426+4
 6109 1d56 1344     		add	r3, r3, r2
 6110 1d58 93F82330 		ldrb	r3, [r3, #35]	@ zero_extendqisi2
 6111 1d5c 1B09     		lsrs	r3, r3, #4
 6112 1d5e 87F82E30 		strb	r3, [r7, #46]
1398:.\main.c      **** 				    if((x%2)==0){
 6113              		.loc 1 1398 0
 6114 1d62 97F82F30 		ldrb	r3, [r7, #47]
 6115 1d66 03F00103 		and	r3, r3, #1
 6116 1d6a DBB2     		uxtb	r3, r3
 6117 1d6c 002B     		cmp	r3, #0
ARM GAS  C:\Users\diego\AppData\Local\Temp\ccW8UKJI.s 			page 135


 6118 1d6e 0CD1     		bne	.L311
1399:.\main.c      **** 					    y=rventa1.id[x/2]&0x0F;
 6119              		.loc 1 1399 0
 6120 1d70 97F82F30 		ldrb	r3, [r7, #47]	@ zero_extendqisi2
 6121 1d74 5B08     		lsrs	r3, r3, #1
 6122 1d76 DBB2     		uxtb	r3, r3
 6123 1d78 1A46     		mov	r2, r3
 6124 1d7a 174B     		ldr	r3, .L426+4
 6125 1d7c 1344     		add	r3, r3, r2
 6126 1d7e 93F82330 		ldrb	r3, [r3, #35]	@ zero_extendqisi2
 6127 1d82 03F00F03 		and	r3, r3, #15
 6128 1d86 87F82E30 		strb	r3, [r7, #46]
 6129              	.L311:
1400:.\main.c      **** 				    }
1401:.\main.c      **** 				    rf_mod[x+29] = y+48;
 6130              		.loc 1 1401 0
 6131 1d8a 97F82F30 		ldrb	r3, [r7, #47]	@ zero_extendqisi2
 6132 1d8e 1D33     		adds	r3, r3, #29
 6133 1d90 97F82E20 		ldrb	r2, [r7, #46]
 6134 1d94 3032     		adds	r2, r2, #48
 6135 1d96 D1B2     		uxtb	r1, r2
 6136 1d98 0E4A     		ldr	r2, .L426
 6137 1d9a D154     		strb	r1, [r2, r3]
1402:.\main.c      **** 				    if(y>9){
 6138              		.loc 1 1402 0
 6139 1d9c 97F82E30 		ldrb	r3, [r7, #46]	@ zero_extendqisi2
 6140 1da0 092B     		cmp	r3, #9
 6141 1da2 08D9     		bls	.L312
1403:.\main.c      **** 					    rf_mod[x+29] = y+55;
 6142              		.loc 1 1403 0
 6143 1da4 97F82F30 		ldrb	r3, [r7, #47]	@ zero_extendqisi2
 6144 1da8 1D33     		adds	r3, r3, #29
 6145 1daa 97F82E20 		ldrb	r2, [r7, #46]
 6146 1dae 3732     		adds	r2, r2, #55
 6147 1db0 D1B2     		uxtb	r1, r2
 6148 1db2 084A     		ldr	r2, .L426
 6149 1db4 D154     		strb	r1, [r2, r3]
 6150              	.L312:
1396:.\main.c      **** 				    y=(rventa1.id[x/2]>>4)&0x0F;
 6151              		.loc 1 1396 0 discriminator 2
 6152 1db6 97F82F30 		ldrb	r3, [r7, #47]	@ zero_extendqisi2
 6153 1dba 0133     		adds	r3, r3, #1
 6154 1dbc 87F82F30 		strb	r3, [r7, #47]
 6155              	.L310:
1396:.\main.c      **** 				    y=(rventa1.id[x/2]>>4)&0x0F;
 6156              		.loc 1 1396 0 is_stmt 0 discriminator 1
 6157 1dc0 97F82F30 		ldrb	r3, [r7, #47]	@ zero_extendqisi2
 6158 1dc4 0F2B     		cmp	r3, #15
 6159 1dc6 C0D9     		bls	.L313
 6160 1dc8 51E0     		b	.L314
 6161              	.L309:
1404:.\main.c      **** 				    }
1405:.\main.c      **** 			    }
1406:.\main.c      ****             }else{
1407:.\main.c      ****                 for(x=0;x<=15;x++){						//Serial				
 6162              		.loc 1 1407 0 is_stmt 1
 6163 1dca 0023     		movs	r3, #0
ARM GAS  C:\Users\diego\AppData\Local\Temp\ccW8UKJI.s 			page 136


 6164 1dcc 87F82F30 		strb	r3, [r7, #47]
 6165 1dd0 49E0     		b	.L315
 6166              	.L427:
 6167 1dd2 00BF     		.align	2
 6168              	.L426:
 6169 1dd4 00000000 		.word	rf_mod
 6170 1dd8 00000000 		.word	rventa1
 6171 1ddc 00000000 		.word	lado1
 6172 1de0 00000000 		.word	version
 6173 1de4 00000000 		.word	ppux10
 6174 1de8 00000000 		.word	id_estacion
 6175 1dec 00000000 		.word	tipo_venta
 6176              	.L318:
1408:.\main.c      **** 				    y=(rventa1.id[x/2]>>4)&0x0F;
 6177              		.loc 1 1408 0
 6178 1df0 97F82F30 		ldrb	r3, [r7, #47]	@ zero_extendqisi2
 6179 1df4 5B08     		lsrs	r3, r3, #1
 6180 1df6 DBB2     		uxtb	r3, r3
 6181 1df8 1A46     		mov	r2, r3
 6182 1dfa AF4B     		ldr	r3, .L428
 6183 1dfc 1344     		add	r3, r3, r2
 6184 1dfe 93F82330 		ldrb	r3, [r3, #35]	@ zero_extendqisi2
 6185 1e02 1B09     		lsrs	r3, r3, #4
 6186 1e04 87F82E30 		strb	r3, [r7, #46]
1409:.\main.c      **** 				    if((x%2)==0){
 6187              		.loc 1 1409 0
 6188 1e08 97F82F30 		ldrb	r3, [r7, #47]
 6189 1e0c 03F00103 		and	r3, r3, #1
 6190 1e10 DBB2     		uxtb	r3, r3
 6191 1e12 002B     		cmp	r3, #0
 6192 1e14 0CD1     		bne	.L316
1410:.\main.c      **** 					    y=rventa1.id[x/2]&0x0F;
 6193              		.loc 1 1410 0
 6194 1e16 97F82F30 		ldrb	r3, [r7, #47]	@ zero_extendqisi2
 6195 1e1a 5B08     		lsrs	r3, r3, #1
 6196 1e1c DBB2     		uxtb	r3, r3
 6197 1e1e 1A46     		mov	r2, r3
 6198 1e20 A54B     		ldr	r3, .L428
 6199 1e22 1344     		add	r3, r3, r2
 6200 1e24 93F82330 		ldrb	r3, [r3, #35]	@ zero_extendqisi2
 6201 1e28 03F00F03 		and	r3, r3, #15
 6202 1e2c 87F82E30 		strb	r3, [r7, #46]
 6203              	.L316:
1411:.\main.c      **** 				    }
1412:.\main.c      **** 				    rf_mod[x+29] = y+48;
 6204              		.loc 1 1412 0
 6205 1e30 97F82F30 		ldrb	r3, [r7, #47]	@ zero_extendqisi2
 6206 1e34 1D33     		adds	r3, r3, #29
 6207 1e36 97F82E20 		ldrb	r2, [r7, #46]
 6208 1e3a 3032     		adds	r2, r2, #48
 6209 1e3c D1B2     		uxtb	r1, r2
 6210 1e3e 9F4A     		ldr	r2, .L428+4
 6211 1e40 D154     		strb	r1, [r2, r3]
1413:.\main.c      **** 				    if(y>9){
 6212              		.loc 1 1413 0
 6213 1e42 97F82E30 		ldrb	r3, [r7, #46]	@ zero_extendqisi2
 6214 1e46 092B     		cmp	r3, #9
ARM GAS  C:\Users\diego\AppData\Local\Temp\ccW8UKJI.s 			page 137


 6215 1e48 08D9     		bls	.L317
1414:.\main.c      **** 					    rf_mod[x+29] = y+55;
 6216              		.loc 1 1414 0
 6217 1e4a 97F82F30 		ldrb	r3, [r7, #47]	@ zero_extendqisi2
 6218 1e4e 1D33     		adds	r3, r3, #29
 6219 1e50 97F82E20 		ldrb	r2, [r7, #46]
 6220 1e54 3732     		adds	r2, r2, #55
 6221 1e56 D1B2     		uxtb	r1, r2
 6222 1e58 984A     		ldr	r2, .L428+4
 6223 1e5a D154     		strb	r1, [r2, r3]
 6224              	.L317:
1407:.\main.c      **** 				    y=(rventa1.id[x/2]>>4)&0x0F;
 6225              		.loc 1 1407 0 discriminator 2
 6226 1e5c 97F82F30 		ldrb	r3, [r7, #47]	@ zero_extendqisi2
 6227 1e60 0133     		adds	r3, r3, #1
 6228 1e62 87F82F30 		strb	r3, [r7, #47]
 6229              	.L315:
1407:.\main.c      **** 				    y=(rventa1.id[x/2]>>4)&0x0F;
 6230              		.loc 1 1407 0 is_stmt 0 discriminator 1
 6231 1e66 97F82F30 		ldrb	r3, [r7, #47]	@ zero_extendqisi2
 6232 1e6a 0F2B     		cmp	r3, #15
 6233 1e6c C0D9     		bls	.L318
 6234              	.L314:
1415:.\main.c      **** 				    }
1416:.\main.c      **** 			    }
1417:.\main.c      **** //                for(x=0;x<=15;x++){						//Serial efectivo				
1418:.\main.c      **** //				    y=(rventa1.id[x])&0x0F;
1419:.\main.c      **** //				    if((x%2)==0){
1420:.\main.c      **** //					    y=rventa1.id[x]&0x0F;
1421:.\main.c      **** //				    }
1422:.\main.c      **** //				    rf_mod[x+29] = y+48;
1423:.\main.c      **** //				    if(y>9){
1424:.\main.c      **** //					    rf_mod[x+29] = y+55;
1425:.\main.c      **** //				    }
1426:.\main.c      **** //			    }                
1427:.\main.c      ****             }
1428:.\main.c      **** 			num_decimal2++;
 6235              		.loc 1 1428 0 is_stmt 1
 6236 1e6e 944B     		ldr	r3, .L428+8
 6237 1e70 1B88     		ldrh	r3, [r3]
 6238 1e72 0133     		adds	r3, r3, #1
 6239 1e74 9AB2     		uxth	r2, r3
 6240 1e76 924B     		ldr	r3, .L428+8
 6241 1e78 1A80     		strh	r2, [r3]	@ movhi
1429:.\main.c      **** 			id_venta[4]=(num_decimal2/1000)+48;
 6242              		.loc 1 1429 0
 6243 1e7a 914B     		ldr	r3, .L428+8
 6244 1e7c 1B88     		ldrh	r3, [r3]
 6245 1e7e 914A     		ldr	r2, .L428+12
 6246 1e80 A2FB0323 		umull	r2, r3, r2, r3
 6247 1e84 9B09     		lsrs	r3, r3, #6
 6248 1e86 9BB2     		uxth	r3, r3
 6249 1e88 DBB2     		uxtb	r3, r3
 6250 1e8a 3033     		adds	r3, r3, #48
 6251 1e8c DAB2     		uxtb	r2, r3
 6252 1e8e 8E4B     		ldr	r3, .L428+16
 6253 1e90 1A71     		strb	r2, [r3, #4]
ARM GAS  C:\Users\diego\AppData\Local\Temp\ccW8UKJI.s 			page 138


1430:.\main.c      **** 			id_venta[3]=((num_decimal2%1000)/100)+48;
 6254              		.loc 1 1430 0
 6255 1e92 8B4B     		ldr	r3, .L428+8
 6256 1e94 1B88     		ldrh	r3, [r3]
 6257 1e96 8B4A     		ldr	r2, .L428+12
 6258 1e98 A2FB0312 		umull	r1, r2, r2, r3
 6259 1e9c 9209     		lsrs	r2, r2, #6
 6260 1e9e 4FF47A71 		mov	r1, #1000
 6261 1ea2 01FB02F2 		mul	r2, r1, r2
 6262 1ea6 9B1A     		subs	r3, r3, r2
 6263 1ea8 9BB2     		uxth	r3, r3
 6264 1eaa 884A     		ldr	r2, .L428+20
 6265 1eac A2FB0323 		umull	r2, r3, r2, r3
 6266 1eb0 5B09     		lsrs	r3, r3, #5
 6267 1eb2 9BB2     		uxth	r3, r3
 6268 1eb4 DBB2     		uxtb	r3, r3
 6269 1eb6 3033     		adds	r3, r3, #48
 6270 1eb8 DAB2     		uxtb	r2, r3
 6271 1eba 834B     		ldr	r3, .L428+16
 6272 1ebc DA70     		strb	r2, [r3, #3]
1431:.\main.c      **** 			id_venta[2]=(((num_decimal2%1000)%100)/10)+48;
 6273              		.loc 1 1431 0
 6274 1ebe 804B     		ldr	r3, .L428+8
 6275 1ec0 1B88     		ldrh	r3, [r3]
 6276 1ec2 804A     		ldr	r2, .L428+12
 6277 1ec4 A2FB0312 		umull	r1, r2, r2, r3
 6278 1ec8 9209     		lsrs	r2, r2, #6
 6279 1eca 4FF47A71 		mov	r1, #1000
 6280 1ece 01FB02F2 		mul	r2, r1, r2
 6281 1ed2 9B1A     		subs	r3, r3, r2
 6282 1ed4 9BB2     		uxth	r3, r3
 6283 1ed6 7D4A     		ldr	r2, .L428+20
 6284 1ed8 A2FB0312 		umull	r1, r2, r2, r3
 6285 1edc 5209     		lsrs	r2, r2, #5
 6286 1ede 6421     		movs	r1, #100
 6287 1ee0 01FB02F2 		mul	r2, r1, r2
 6288 1ee4 9B1A     		subs	r3, r3, r2
 6289 1ee6 9BB2     		uxth	r3, r3
 6290 1ee8 794A     		ldr	r2, .L428+24
 6291 1eea A2FB0323 		umull	r2, r3, r2, r3
 6292 1eee DB08     		lsrs	r3, r3, #3
 6293 1ef0 9BB2     		uxth	r3, r3
 6294 1ef2 DBB2     		uxtb	r3, r3
 6295 1ef4 3033     		adds	r3, r3, #48
 6296 1ef6 DAB2     		uxtb	r2, r3
 6297 1ef8 734B     		ldr	r3, .L428+16
 6298 1efa 9A70     		strb	r2, [r3, #2]
1432:.\main.c      **** 			id_venta[1]=(((num_decimal2%1000)%100)%10)+48; 
 6299              		.loc 1 1432 0
 6300 1efc 704B     		ldr	r3, .L428+8
 6301 1efe 1B88     		ldrh	r3, [r3]
 6302 1f00 704A     		ldr	r2, .L428+12
 6303 1f02 A2FB0312 		umull	r1, r2, r2, r3
 6304 1f06 9209     		lsrs	r2, r2, #6
 6305 1f08 4FF47A71 		mov	r1, #1000
 6306 1f0c 01FB02F2 		mul	r2, r1, r2
 6307 1f10 9B1A     		subs	r3, r3, r2
ARM GAS  C:\Users\diego\AppData\Local\Temp\ccW8UKJI.s 			page 139


 6308 1f12 9BB2     		uxth	r3, r3
 6309 1f14 6D4A     		ldr	r2, .L428+20
 6310 1f16 A2FB0312 		umull	r1, r2, r2, r3
 6311 1f1a 5209     		lsrs	r2, r2, #5
 6312 1f1c 6421     		movs	r1, #100
 6313 1f1e 01FB02F2 		mul	r2, r1, r2
 6314 1f22 9B1A     		subs	r3, r3, r2
 6315 1f24 9AB2     		uxth	r2, r3
 6316 1f26 6A4B     		ldr	r3, .L428+24
 6317 1f28 A3FB0213 		umull	r1, r3, r3, r2
 6318 1f2c D908     		lsrs	r1, r3, #3
 6319 1f2e 0B46     		mov	r3, r1
 6320 1f30 9B00     		lsls	r3, r3, #2
 6321 1f32 0B44     		add	r3, r3, r1
 6322 1f34 5B00     		lsls	r3, r3, #1
 6323 1f36 D31A     		subs	r3, r2, r3
 6324 1f38 9BB2     		uxth	r3, r3
 6325 1f3a DBB2     		uxtb	r3, r3
 6326 1f3c 3033     		adds	r3, r3, #48
 6327 1f3e DAB2     		uxtb	r2, r3
 6328 1f40 614B     		ldr	r3, .L428+16
 6329 1f42 5A70     		strb	r2, [r3, #1]
1433:.\main.c      **** 			for(x=1;x<=7;x++){						//Id de Venta
 6330              		.loc 1 1433 0
 6331 1f44 0123     		movs	r3, #1
 6332 1f46 87F82F30 		strb	r3, [r7, #47]
 6333 1f4a 0EE0     		b	.L319
 6334              	.L320:
1434:.\main.c      **** 				rf_mod[44+x]=id_venta[x];
 6335              		.loc 1 1434 0 discriminator 3
 6336 1f4c 97F82F30 		ldrb	r3, [r7, #47]	@ zero_extendqisi2
 6337 1f50 2C33     		adds	r3, r3, #44
 6338 1f52 97F82F20 		ldrb	r2, [r7, #47]	@ zero_extendqisi2
 6339 1f56 5C49     		ldr	r1, .L428+16
 6340 1f58 8A5C     		ldrb	r2, [r1, r2]
 6341 1f5a D1B2     		uxtb	r1, r2
 6342 1f5c 574A     		ldr	r2, .L428+4
 6343 1f5e D154     		strb	r1, [r2, r3]
1433:.\main.c      **** 			for(x=1;x<=7;x++){						//Id de Venta
 6344              		.loc 1 1433 0 discriminator 3
 6345 1f60 97F82F30 		ldrb	r3, [r7, #47]	@ zero_extendqisi2
 6346 1f64 0133     		adds	r3, r3, #1
 6347 1f66 87F82F30 		strb	r3, [r7, #47]
 6348              	.L319:
1433:.\main.c      **** 			for(x=1;x<=7;x++){						//Id de Venta
 6349              		.loc 1 1433 0 is_stmt 0 discriminator 1
 6350 1f6a 97F82F30 		ldrb	r3, [r7, #47]	@ zero_extendqisi2
 6351 1f6e 072B     		cmp	r3, #7
 6352 1f70 ECD9     		bls	.L320
1435:.\main.c      **** 			}
1436:.\main.c      **** 			for(x=1;x<=4;x++){						//Guarda Id venta
 6353              		.loc 1 1436 0 is_stmt 1
 6354 1f72 0123     		movs	r3, #1
 6355 1f74 87F82F30 		strb	r3, [r7, #47]
 6356 1f78 10E0     		b	.L321
 6357              	.L322:
1437:.\main.c      **** 				EEPROM_WriteByte(id_venta[x],x);
ARM GAS  C:\Users\diego\AppData\Local\Temp\ccW8UKJI.s 			page 140


 6358              		.loc 1 1437 0 discriminator 3
 6359 1f7a 97F82F30 		ldrb	r3, [r7, #47]	@ zero_extendqisi2
 6360 1f7e 524A     		ldr	r2, .L428+16
 6361 1f80 D35C     		ldrb	r3, [r2, r3]
 6362 1f82 DAB2     		uxtb	r2, r3
 6363 1f84 97F82F30 		ldrb	r3, [r7, #47]	@ zero_extendqisi2
 6364 1f88 9BB2     		uxth	r3, r3
 6365 1f8a 1046     		mov	r0, r2
 6366 1f8c 1946     		mov	r1, r3
 6367 1f8e FFF7FEFF 		bl	EEPROM_WriteByte
1436:.\main.c      **** 				EEPROM_WriteByte(id_venta[x],x);
 6368              		.loc 1 1436 0 discriminator 3
 6369 1f92 97F82F30 		ldrb	r3, [r7, #47]	@ zero_extendqisi2
 6370 1f96 0133     		adds	r3, r3, #1
 6371 1f98 87F82F30 		strb	r3, [r7, #47]
 6372              	.L321:
1436:.\main.c      **** 				EEPROM_WriteByte(id_venta[x],x);
 6373              		.loc 1 1436 0 is_stmt 0 discriminator 1
 6374 1f9c 97F82F30 		ldrb	r3, [r7, #47]	@ zero_extendqisi2
 6375 1fa0 042B     		cmp	r3, #4
 6376 1fa2 EAD9     		bls	.L322
1438:.\main.c      **** 			}
1439:.\main.c      **** 			for(x=0;x<=6;x++){						//Km
 6377              		.loc 1 1439 0 is_stmt 1
 6378 1fa4 0023     		movs	r3, #0
 6379 1fa6 87F82F30 		strb	r3, [r7, #47]
 6380 1faa 12E0     		b	.L323
 6381              	.L324:
1440:.\main.c      **** 				rf_mod[52+x]=rventa1.km[x+1] + 48;
 6382              		.loc 1 1440 0 discriminator 3
 6383 1fac 97F82F30 		ldrb	r3, [r7, #47]	@ zero_extendqisi2
 6384 1fb0 3433     		adds	r3, r3, #52
 6385 1fb2 97F82F20 		ldrb	r2, [r7, #47]	@ zero_extendqisi2
 6386 1fb6 0132     		adds	r2, r2, #1
 6387 1fb8 3F49     		ldr	r1, .L428
 6388 1fba 0A44     		add	r2, r2, r1
 6389 1fbc 92F84320 		ldrb	r2, [r2, #67]	@ zero_extendqisi2
 6390 1fc0 3032     		adds	r2, r2, #48
 6391 1fc2 D1B2     		uxtb	r1, r2
 6392 1fc4 3D4A     		ldr	r2, .L428+4
 6393 1fc6 D154     		strb	r1, [r2, r3]
1439:.\main.c      **** 				rf_mod[52+x]=rventa1.km[x+1] + 48;
 6394              		.loc 1 1439 0 discriminator 3
 6395 1fc8 97F82F30 		ldrb	r3, [r7, #47]	@ zero_extendqisi2
 6396 1fcc 0133     		adds	r3, r3, #1
 6397 1fce 87F82F30 		strb	r3, [r7, #47]
 6398              	.L323:
1439:.\main.c      **** 				rf_mod[52+x]=rventa1.km[x+1] + 48;
 6399              		.loc 1 1439 0 is_stmt 0 discriminator 1
 6400 1fd2 97F82F30 		ldrb	r3, [r7, #47]	@ zero_extendqisi2
 6401 1fd6 062B     		cmp	r3, #6
 6402 1fd8 E8D9     		bls	.L324
1441:.\main.c      **** 			}				
1442:.\main.c      **** 			rf_mod[59]='*';
 6403              		.loc 1 1442 0 is_stmt 1
 6404 1fda 384B     		ldr	r3, .L428+4
 6405 1fdc 2A22     		movs	r2, #42
ARM GAS  C:\Users\diego\AppData\Local\Temp\ccW8UKJI.s 			page 141


 6406 1fde 83F83B20 		strb	r2, [r3, #59]
1443:.\main.c      **** 			PC_ClearRxBuffer();				
 6407              		.loc 1 1443 0
 6408 1fe2 FFF7FEFF 		bl	PC_ClearRxBuffer
1444:.\main.c      **** 		    for(x=0;x<=59;x++){
 6409              		.loc 1 1444 0
 6410 1fe6 0023     		movs	r3, #0
 6411 1fe8 87F82F30 		strb	r3, [r7, #47]
 6412 1fec 0BE0     		b	.L325
 6413              	.L326:
1445:.\main.c      **** 			   PC_PutChar(rf_mod[x]);
 6414              		.loc 1 1445 0 discriminator 3
 6415 1fee 97F82F30 		ldrb	r3, [r7, #47]	@ zero_extendqisi2
 6416 1ff2 324A     		ldr	r2, .L428+4
 6417 1ff4 D35C     		ldrb	r3, [r2, r3]	@ zero_extendqisi2
 6418 1ff6 1846     		mov	r0, r3
 6419 1ff8 FFF7FEFF 		bl	PC_PutChar
1444:.\main.c      **** 		    for(x=0;x<=59;x++){
 6420              		.loc 1 1444 0 discriminator 3
 6421 1ffc 97F82F30 		ldrb	r3, [r7, #47]	@ zero_extendqisi2
 6422 2000 0133     		adds	r3, r3, #1
 6423 2002 87F82F30 		strb	r3, [r7, #47]
 6424              	.L325:
1444:.\main.c      **** 		    for(x=0;x<=59;x++){
 6425              		.loc 1 1444 0 is_stmt 0 discriminator 1
 6426 2006 97F82F30 		ldrb	r3, [r7, #47]	@ zero_extendqisi2
 6427 200a 3B2B     		cmp	r3, #59
 6428 200c EFD9     		bls	.L326
1446:.\main.c      **** 		    }            
1447:.\main.c      ****             PC_ClearRxBuffer();
 6429              		.loc 1 1447 0 is_stmt 1
 6430 200e FFF7FEFF 		bl	PC_ClearRxBuffer
1448:.\main.c      **** 			CyDelay(300);
 6431              		.loc 1 1448 0
 6432 2012 4FF49670 		mov	r0, #300
 6433 2016 FFF7FEFF 		bl	CyDelay
1449:.\main.c      ****             PC_ClearTxBuffer();
 6434              		.loc 1 1449 0
 6435 201a FFF7FEFF 		bl	PC_ClearTxBuffer
1450:.\main.c      **** //			if(PC_GetRxBufferSize()>=2){
1451:.\main.c      **** //				if((PC_rxBuffer[0]=='B') && (PC_rxBuffer[1]=='B')){
1452:.\main.c      **** //					lado1.estado=espera;				
1453:.\main.c      ****             estado_tanqueando=0;
 6436              		.loc 1 1453 0
 6437 201e 2D4B     		ldr	r3, .L428+28
 6438 2020 0022     		movs	r2, #0
 6439 2022 1A70     		strb	r2, [r3]
1454:.\main.c      ****             //
1455:.\main.c      **** //				}
1456:.\main.c      **** 				
1457:.\main.c      **** 				precio[0]=lado1.ppu[rventa1.producto-1][0];
 6440              		.loc 1 1457 0
 6441 2024 244B     		ldr	r3, .L428
 6442 2026 5B7E     		ldrb	r3, [r3, #25]	@ zero_extendqisi2
 6443 2028 5A1E     		subs	r2, r3, #1
 6444 202a 2B49     		ldr	r1, .L428+32
 6445 202c 1346     		mov	r3, r2
ARM GAS  C:\Users\diego\AppData\Local\Temp\ccW8UKJI.s 			page 142


 6446 202e 9B00     		lsls	r3, r3, #2
 6447 2030 1344     		add	r3, r3, r2
 6448 2032 0B44     		add	r3, r3, r1
 6449 2034 4833     		adds	r3, r3, #72
 6450 2036 9B78     		ldrb	r3, [r3, #2]
 6451 2038 DBB2     		uxtb	r3, r3
 6452 203a 3B73     		strb	r3, [r7, #12]
1458:.\main.c      **** 				precio[1]=lado1.ppu[rventa1.producto-1][1];
 6453              		.loc 1 1458 0
 6454 203c 1E4B     		ldr	r3, .L428
 6455 203e 5B7E     		ldrb	r3, [r3, #25]	@ zero_extendqisi2
 6456 2040 5A1E     		subs	r2, r3, #1
 6457 2042 2549     		ldr	r1, .L428+32
 6458 2044 1346     		mov	r3, r2
 6459 2046 9B00     		lsls	r3, r3, #2
 6460 2048 1344     		add	r3, r3, r2
 6461 204a 0B44     		add	r3, r3, r1
 6462 204c 4933     		adds	r3, r3, #73
 6463 204e 9B78     		ldrb	r3, [r3, #2]
 6464 2050 DBB2     		uxtb	r3, r3
 6465 2052 7B73     		strb	r3, [r7, #13]
1459:.\main.c      **** 				precio[2]=lado1.ppu[rventa1.producto-1][2];
 6466              		.loc 1 1459 0
 6467 2054 184B     		ldr	r3, .L428
 6468 2056 5B7E     		ldrb	r3, [r3, #25]	@ zero_extendqisi2
 6469 2058 5A1E     		subs	r2, r3, #1
 6470 205a 1F49     		ldr	r1, .L428+32
 6471 205c 1346     		mov	r3, r2
 6472 205e 9B00     		lsls	r3, r3, #2
 6473 2060 1344     		add	r3, r3, r2
 6474 2062 0B44     		add	r3, r3, r1
 6475 2064 4A33     		adds	r3, r3, #74
 6476 2066 9B78     		ldrb	r3, [r3, #2]
 6477 2068 DBB2     		uxtb	r3, r3
 6478 206a BB73     		strb	r3, [r7, #14]
1460:.\main.c      **** 				precio[3]=lado1.ppu[rventa1.producto-1][3];
 6479              		.loc 1 1460 0
 6480 206c 124B     		ldr	r3, .L428
 6481 206e 5B7E     		ldrb	r3, [r3, #25]	@ zero_extendqisi2
 6482 2070 5A1E     		subs	r2, r3, #1
 6483 2072 1949     		ldr	r1, .L428+32
 6484 2074 1346     		mov	r3, r2
 6485 2076 9B00     		lsls	r3, r3, #2
 6486 2078 1344     		add	r3, r3, r2
 6487 207a 0B44     		add	r3, r3, r1
 6488 207c 4B33     		adds	r3, r3, #75
 6489 207e 9B78     		ldrb	r3, [r3, #2]
 6490 2080 DBB2     		uxtb	r3, r3
 6491 2082 FB73     		strb	r3, [r7, #15]
1461:.\main.c      **** 				precio[4]=lado1.ppu[rventa1.producto-1][4];
 6492              		.loc 1 1461 0
 6493 2084 0C4B     		ldr	r3, .L428
 6494 2086 5B7E     		ldrb	r3, [r3, #25]	@ zero_extendqisi2
 6495 2088 5A1E     		subs	r2, r3, #1
 6496 208a 1349     		ldr	r1, .L428+32
 6497 208c 1346     		mov	r3, r2
 6498 208e 9B00     		lsls	r3, r3, #2
ARM GAS  C:\Users\diego\AppData\Local\Temp\ccW8UKJI.s 			page 143


 6499 2090 1344     		add	r3, r3, r2
 6500 2092 0B44     		add	r3, r3, r1
 6501 2094 4C33     		adds	r3, r3, #76
 6502 2096 9B78     		ldrb	r3, [r3, #2]
 6503 2098 DBB2     		uxtb	r3, r3
 6504 209a 3B74     		strb	r3, [r7, #16]
1462:.\main.c      **** 				cambiar_precio(lado1.dir,precio,rventa1.producto);
 6505              		.loc 1 1462 0
 6506 209c 0E4B     		ldr	r3, .L428+32
 6507 209e 1B78     		ldrb	r3, [r3]
 6508 20a0 D9B2     		uxtb	r1, r3
 6509 20a2 054B     		ldr	r3, .L428
 6510 20a4 5B7E     		ldrb	r3, [r3, #25]	@ zero_extendqisi2
 6511 20a6 07F10C02 		add	r2, r7, #12
 6512 20aa 0846     		mov	r0, r1
 6513 20ac 1146     		mov	r1, r2
 6514 20ae 1A46     		mov	r2, r3
 6515 20b0 FFF7FEFF 		bl	cambiar_precio
1463:.\main.c      **** //			}  
1464:.\main.c      **** 		break;
 6516              		.loc 1 1464 0
 6517 20b4 00F02DBD 		b	.L92
 6518              	.L429:
 6519              		.align	2
 6520              	.L428:
 6521 20b8 00000000 		.word	rventa1
 6522 20bc 00000000 		.word	rf_mod
 6523 20c0 00000000 		.word	num_decimal2
 6524 20c4 D34D6210 		.word	274877907
 6525 20c8 00000000 		.word	id_venta
 6526 20cc 1F85EB51 		.word	1374389535
 6527 20d0 CDCCCCCC 		.word	-858993459
 6528 20d4 00000000 		.word	estado_tanqueando
 6529 20d8 00000000 		.word	lado1
 6530              	.L107:
1465:.\main.c      ****          
1466:.\main.c      ****         case 14:
1467:.\main.c      **** 	        if(LCD_1_GetRxBufferSize()==8){
 6531              		.loc 1 1467 0
 6532 20dc FFF7FEFF 		bl	LCD_1_GetRxBufferSize
 6533 20e0 0346     		mov	r3, r0
 6534 20e2 082B     		cmp	r3, #8
 6535 20e4 40F00B81 		bne	.L327
1468:.\main.c      **** 	            if((LCD_1_rxBuffer[0]==0xAA) && (LCD_1_rxBuffer[6]==0xC3) && (LCD_1_rxBuffer[7]==0x3C)
 6536              		.loc 1 1468 0
 6537 20e8 AF4B     		ldr	r3, .L430
 6538 20ea 1B78     		ldrb	r3, [r3]
 6539 20ec DBB2     		uxtb	r3, r3
 6540 20ee AA2B     		cmp	r3, #170
 6541 20f0 40F0FE80 		bne	.L328
 6542              		.loc 1 1468 0 is_stmt 0 discriminator 1
 6543 20f4 AC4B     		ldr	r3, .L430
 6544 20f6 9B79     		ldrb	r3, [r3, #6]
 6545 20f8 DBB2     		uxtb	r3, r3
 6546 20fa C32B     		cmp	r3, #195
 6547 20fc 40F0F880 		bne	.L328
 6548              		.loc 1 1468 0 discriminator 2
ARM GAS  C:\Users\diego\AppData\Local\Temp\ccW8UKJI.s 			page 144


 6549 2100 A94B     		ldr	r3, .L430
 6550 2102 DB79     		ldrb	r3, [r3, #7]
 6551 2104 DBB2     		uxtb	r3, r3
 6552 2106 3C2B     		cmp	r3, #60
 6553 2108 40F0F280 		bne	.L328
1469:.\main.c      **** 	                if(count_teclas1<teclas1){
 6554              		.loc 1 1469 0 is_stmt 1
 6555 210c A74B     		ldr	r3, .L430+4
 6556 210e 1B78     		ldrb	r3, [r3]
 6557 2110 DAB2     		uxtb	r2, r3
 6558 2112 A74B     		ldr	r3, .L430+8
 6559 2114 1B78     		ldrb	r3, [r3]
 6560 2116 DBB2     		uxtb	r3, r3
 6561 2118 9A42     		cmp	r2, r3
 6562 211a 6CD2     		bcs	.L329
1470:.\main.c      **** 	                    if(LCD_1_rxBuffer[3]<=9){
 6563              		.loc 1 1470 0
 6564 211c A24B     		ldr	r3, .L430
 6565 211e DB78     		ldrb	r3, [r3, #3]
 6566 2120 DBB2     		uxtb	r3, r3
 6567 2122 092B     		cmp	r3, #9
 6568 2124 33D8     		bhi	.L330
1471:.\main.c      **** 	                        rventa1.password[count_teclas1+1]=LCD_1_rxBuffer[3]+0x30;
 6569              		.loc 1 1471 0
 6570 2126 A14B     		ldr	r3, .L430+4
 6571 2128 1B78     		ldrb	r3, [r3]
 6572 212a DBB2     		uxtb	r3, r3
 6573 212c 0133     		adds	r3, r3, #1
 6574 212e 9E4A     		ldr	r2, .L430
 6575 2130 D278     		ldrb	r2, [r2, #3]
 6576 2132 D2B2     		uxtb	r2, r2
 6577 2134 3032     		adds	r2, r2, #48
 6578 2136 D1B2     		uxtb	r1, r2
 6579 2138 9E4A     		ldr	r2, .L430+12
 6580 213a 1344     		add	r3, r3, r2
 6581 213c 0A46     		mov	r2, r1
 6582 213e 83F86420 		strb	r2, [r3, #100]
1472:.\main.c      **** 	                        write_LCD(1,'*', posy1, ((count_teclas1*(sizeletra1+1))+posx1), sizeletra1
 6583              		.loc 1 1472 0
 6584 2142 9D4B     		ldr	r3, .L430+16
 6585 2144 1B88     		ldrh	r3, [r3]	@ movhi
 6586 2146 9DB2     		uxth	r5, r3
 6587 2148 984B     		ldr	r3, .L430+4
 6588 214a 1B78     		ldrb	r3, [r3]
 6589 214c DBB2     		uxtb	r3, r3
 6590 214e 9BB2     		uxth	r3, r3
 6591 2150 9A4A     		ldr	r2, .L430+20
 6592 2152 1288     		ldrh	r2, [r2]	@ movhi
 6593 2154 92B2     		uxth	r2, r2
 6594 2156 0132     		adds	r2, r2, #1
 6595 2158 92B2     		uxth	r2, r2
 6596 215a 02FB03F3 		mul	r3, r2, r3
 6597 215e 9AB2     		uxth	r2, r3
 6598 2160 974B     		ldr	r3, .L430+24
 6599 2162 1B88     		ldrh	r3, [r3]	@ movhi
 6600 2164 9BB2     		uxth	r3, r3
 6601 2166 1344     		add	r3, r3, r2
ARM GAS  C:\Users\diego\AppData\Local\Temp\ccW8UKJI.s 			page 145


 6602 2168 9CB2     		uxth	r4, r3
 6603 216a 944B     		ldr	r3, .L430+20
 6604 216c 1B88     		ldrh	r3, [r3]	@ movhi
 6605 216e 9BB2     		uxth	r3, r3
 6606 2170 DBB2     		uxtb	r3, r3
 6607 2172 0093     		str	r3, [sp]
 6608 2174 0120     		movs	r0, #1
 6609 2176 2A21     		movs	r1, #42
 6610 2178 2A46     		mov	r2, r5
 6611 217a 2346     		mov	r3, r4
 6612 217c FFF7FEFF 		bl	write_LCD
1473:.\main.c      **** 	                        count_teclas1++;                        
 6613              		.loc 1 1473 0
 6614 2180 8A4B     		ldr	r3, .L430+4
 6615 2182 1B78     		ldrb	r3, [r3]
 6616 2184 DBB2     		uxtb	r3, r3
 6617 2186 0133     		adds	r3, r3, #1
 6618 2188 DAB2     		uxtb	r2, r3
 6619 218a 884B     		ldr	r3, .L430+4
 6620 218c 1A70     		strb	r2, [r3]
 6621              	.L330:
1474:.\main.c      **** 	                    }
1475:.\main.c      **** 	                    if(LCD_1_rxBuffer[3]==0x0A){            //Comando de 0
 6622              		.loc 1 1475 0
 6623 218e 864B     		ldr	r3, .L430
 6624 2190 DB78     		ldrb	r3, [r3, #3]
 6625 2192 DBB2     		uxtb	r3, r3
 6626 2194 0A2B     		cmp	r3, #10
 6627 2196 2ED1     		bne	.L329
1476:.\main.c      **** 	                        rventa1.password[count_teclas1+1]=0x30;
 6628              		.loc 1 1476 0
 6629 2198 844B     		ldr	r3, .L430+4
 6630 219a 1B78     		ldrb	r3, [r3]
 6631 219c DBB2     		uxtb	r3, r3
 6632 219e 0133     		adds	r3, r3, #1
 6633 21a0 844A     		ldr	r2, .L430+12
 6634 21a2 1344     		add	r3, r3, r2
 6635 21a4 3022     		movs	r2, #48
 6636 21a6 83F86420 		strb	r2, [r3, #100]
1477:.\main.c      **** 	                        write_LCD(1,'*', posy1, ((count_teclas1*(sizeletra1+1))+posx1), sizeletra1
 6637              		.loc 1 1477 0
 6638 21aa 834B     		ldr	r3, .L430+16
 6639 21ac 1B88     		ldrh	r3, [r3]	@ movhi
 6640 21ae 9DB2     		uxth	r5, r3
 6641 21b0 7E4B     		ldr	r3, .L430+4
 6642 21b2 1B78     		ldrb	r3, [r3]
 6643 21b4 DBB2     		uxtb	r3, r3
 6644 21b6 9BB2     		uxth	r3, r3
 6645 21b8 804A     		ldr	r2, .L430+20
 6646 21ba 1288     		ldrh	r2, [r2]	@ movhi
 6647 21bc 92B2     		uxth	r2, r2
 6648 21be 0132     		adds	r2, r2, #1
 6649 21c0 92B2     		uxth	r2, r2
 6650 21c2 02FB03F3 		mul	r3, r2, r3
 6651 21c6 9AB2     		uxth	r2, r3
 6652 21c8 7D4B     		ldr	r3, .L430+24
 6653 21ca 1B88     		ldrh	r3, [r3]	@ movhi
ARM GAS  C:\Users\diego\AppData\Local\Temp\ccW8UKJI.s 			page 146


 6654 21cc 9BB2     		uxth	r3, r3
 6655 21ce 1344     		add	r3, r3, r2
 6656 21d0 9CB2     		uxth	r4, r3
 6657 21d2 7A4B     		ldr	r3, .L430+20
 6658 21d4 1B88     		ldrh	r3, [r3]	@ movhi
 6659 21d6 9BB2     		uxth	r3, r3
 6660 21d8 DBB2     		uxtb	r3, r3
 6661 21da 0093     		str	r3, [sp]
 6662 21dc 0120     		movs	r0, #1
 6663 21de 2A21     		movs	r1, #42
 6664 21e0 2A46     		mov	r2, r5
 6665 21e2 2346     		mov	r3, r4
 6666 21e4 FFF7FEFF 		bl	write_LCD
1478:.\main.c      **** 	                        count_teclas1++;                        
 6667              		.loc 1 1478 0
 6668 21e8 704B     		ldr	r3, .L430+4
 6669 21ea 1B78     		ldrb	r3, [r3]
 6670 21ec DBB2     		uxtb	r3, r3
 6671 21ee 0133     		adds	r3, r3, #1
 6672 21f0 DAB2     		uxtb	r2, r3
 6673 21f2 6E4B     		ldr	r3, .L430+4
 6674 21f4 1A70     		strb	r2, [r3]
 6675              	.L329:
1479:.\main.c      **** 	                    }                    
1480:.\main.c      **** 	                }
1481:.\main.c      **** 	                if(LCD_1_rxBuffer[3]==0x0B){                //Cancelar      
 6676              		.loc 1 1481 0
 6677 21f6 6C4B     		ldr	r3, .L430
 6678 21f8 DB78     		ldrb	r3, [r3, #3]
 6679 21fa DBB2     		uxtb	r3, r3
 6680 21fc 0B2B     		cmp	r3, #11
 6681 21fe 2ED1     		bne	.L331
1482:.\main.c      **** 	                    if(teclas1==0){
 6682              		.loc 1 1482 0
 6683 2200 6B4B     		ldr	r3, .L430+8
 6684 2202 1B78     		ldrb	r3, [r3]
 6685 2204 DBB2     		uxtb	r3, r3
 6686 2206 002B     		cmp	r3, #0
 6687 2208 03D1     		bne	.L332
1483:.\main.c      **** 	                        flujo_LCD1=0;
 6688              		.loc 1 1483 0
 6689 220a 6E4B     		ldr	r3, .L430+28
 6690 220c 0022     		movs	r2, #0
 6691 220e 1A70     		strb	r2, [r3]
 6692 2210 25E0     		b	.L331
 6693              	.L332:
1484:.\main.c      **** 	                    }
1485:.\main.c      **** 	                    else{
1486:.\main.c      **** 	                        count_teclas1--;                                        
 6694              		.loc 1 1486 0
 6695 2212 664B     		ldr	r3, .L430+4
 6696 2214 1B78     		ldrb	r3, [r3]
 6697 2216 DBB2     		uxtb	r3, r3
 6698 2218 013B     		subs	r3, r3, #1
 6699 221a DAB2     		uxtb	r2, r3
 6700 221c 634B     		ldr	r3, .L430+4
 6701 221e 1A70     		strb	r2, [r3]
ARM GAS  C:\Users\diego\AppData\Local\Temp\ccW8UKJI.s 			page 147


1487:.\main.c      **** 	                        write_LCD(1,0x20, posy1, ((count_teclas1*(sizeletra1+1))+posx1), sizeletra
 6702              		.loc 1 1487 0
 6703 2220 654B     		ldr	r3, .L430+16
 6704 2222 1B88     		ldrh	r3, [r3]	@ movhi
 6705 2224 9DB2     		uxth	r5, r3
 6706 2226 614B     		ldr	r3, .L430+4
 6707 2228 1B78     		ldrb	r3, [r3]
 6708 222a DBB2     		uxtb	r3, r3
 6709 222c 9BB2     		uxth	r3, r3
 6710 222e 634A     		ldr	r2, .L430+20
 6711 2230 1288     		ldrh	r2, [r2]	@ movhi
 6712 2232 92B2     		uxth	r2, r2
 6713 2234 0132     		adds	r2, r2, #1
 6714 2236 92B2     		uxth	r2, r2
 6715 2238 02FB03F3 		mul	r3, r2, r3
 6716 223c 9AB2     		uxth	r2, r3
 6717 223e 604B     		ldr	r3, .L430+24
 6718 2240 1B88     		ldrh	r3, [r3]	@ movhi
 6719 2242 9BB2     		uxth	r3, r3
 6720 2244 1344     		add	r3, r3, r2
 6721 2246 9CB2     		uxth	r4, r3
 6722 2248 5C4B     		ldr	r3, .L430+20
 6723 224a 1B88     		ldrh	r3, [r3]	@ movhi
 6724 224c 9BB2     		uxth	r3, r3
 6725 224e DBB2     		uxtb	r3, r3
 6726 2250 0093     		str	r3, [sp]
 6727 2252 0120     		movs	r0, #1
 6728 2254 2021     		movs	r1, #32
 6729 2256 2A46     		mov	r2, r5
 6730 2258 2346     		mov	r3, r4
 6731 225a FFF7FEFF 		bl	write_LCD
 6732              	.L331:
1488:.\main.c      **** 	                    }
1489:.\main.c      **** 	                }
1490:.\main.c      **** 	                if(LCD_1_rxBuffer[3]==0x0C){                //Enter
 6733              		.loc 1 1490 0
 6734 225e 524B     		ldr	r3, .L430
 6735 2260 DB78     		ldrb	r3, [r3, #3]
 6736 2262 DBB2     		uxtb	r3, r3
 6737 2264 0C2B     		cmp	r3, #12
 6738 2266 43D1     		bne	.L328
1491:.\main.c      **** 	                    if(count_teclas1>=1){
 6739              		.loc 1 1491 0
 6740 2268 504B     		ldr	r3, .L430+4
 6741 226a 1B78     		ldrb	r3, [r3]
 6742 226c DBB2     		uxtb	r3, r3
 6743 226e 002B     		cmp	r3, #0
 6744 2270 3ED0     		beq	.L328
1492:.\main.c      **** 	                        rventa1.password[0]=count_teclas1;
 6745              		.loc 1 1492 0
 6746 2272 4E4B     		ldr	r3, .L430+4
 6747 2274 1B78     		ldrb	r3, [r3]
 6748 2276 DAB2     		uxtb	r2, r3
 6749 2278 4E4B     		ldr	r3, .L430+12
 6750 227a 83F86420 		strb	r2, [r3, #100]
1493:.\main.c      **** 							y=0;
 6751              		.loc 1 1493 0
ARM GAS  C:\Users\diego\AppData\Local\Temp\ccW8UKJI.s 			page 148


 6752 227e 0023     		movs	r3, #0
 6753 2280 87F82E30 		strb	r3, [r7, #46]
1494:.\main.c      **** 							if(rventa1.password[0]==4){
 6754              		.loc 1 1494 0
 6755 2284 4B4B     		ldr	r3, .L430+12
 6756 2286 93F86430 		ldrb	r3, [r3, #100]	@ zero_extendqisi2
 6757 228a 042B     		cmp	r3, #4
 6758 228c 2DD1     		bne	.L333
1495:.\main.c      **** 								for(x=1;x<=4;x++){
 6759              		.loc 1 1495 0
 6760 228e 0123     		movs	r3, #1
 6761 2290 87F82F30 		strb	r3, [r7, #47]
 6762 2294 15E0     		b	.L334
 6763              	.L336:
1496:.\main.c      **** 									if(rventa1.password[x]==clave_config[x]){
 6764              		.loc 1 1496 0
 6765 2296 97F82F30 		ldrb	r3, [r7, #47]	@ zero_extendqisi2
 6766 229a 464A     		ldr	r2, .L430+12
 6767 229c 1344     		add	r3, r3, r2
 6768 229e 93F86420 		ldrb	r2, [r3, #100]	@ zero_extendqisi2
 6769 22a2 97F82F30 		ldrb	r3, [r7, #47]	@ zero_extendqisi2
 6770 22a6 4849     		ldr	r1, .L430+32
 6771 22a8 CB5C     		ldrb	r3, [r1, r3]	@ zero_extendqisi2
 6772 22aa 9A42     		cmp	r2, r3
 6773 22ac 04D1     		bne	.L335
1497:.\main.c      **** 										y++;
 6774              		.loc 1 1497 0
 6775 22ae 97F82E30 		ldrb	r3, [r7, #46]	@ zero_extendqisi2
 6776 22b2 0133     		adds	r3, r3, #1
 6777 22b4 87F82E30 		strb	r3, [r7, #46]
 6778              	.L335:
1495:.\main.c      **** 								for(x=1;x<=4;x++){
 6779              		.loc 1 1495 0 discriminator 2
 6780 22b8 97F82F30 		ldrb	r3, [r7, #47]	@ zero_extendqisi2
 6781 22bc 0133     		adds	r3, r3, #1
 6782 22be 87F82F30 		strb	r3, [r7, #47]
 6783              	.L334:
1495:.\main.c      **** 								for(x=1;x<=4;x++){
 6784              		.loc 1 1495 0 is_stmt 0 discriminator 1
 6785 22c2 97F82F30 		ldrb	r3, [r7, #47]	@ zero_extendqisi2
 6786 22c6 042B     		cmp	r3, #4
 6787 22c8 E5D9     		bls	.L336
1498:.\main.c      **** 									}
1499:.\main.c      **** 								}
1500:.\main.c      **** 								if(y==4){
 6788              		.loc 1 1500 0 is_stmt 1
 6789 22ca 97F82E30 		ldrb	r3, [r7, #46]	@ zero_extendqisi2
 6790 22ce 042B     		cmp	r3, #4
 6791 22d0 07D1     		bne	.L337
1501:.\main.c      **** 			                        flujo_LCD1=15;
 6792              		.loc 1 1501 0
 6793 22d2 3C4B     		ldr	r3, .L430+28
 6794 22d4 0F22     		movs	r2, #15
 6795 22d6 1A70     		strb	r2, [r3]
1502:.\main.c      **** 			                        set_imagen(1,93);								
 6796              		.loc 1 1502 0
 6797 22d8 0120     		movs	r0, #1
ARM GAS  C:\Users\diego\AppData\Local\Temp\ccW8UKJI.s 			page 149


 6798 22da 5D21     		movs	r1, #93
 6799 22dc FFF7FEFF 		bl	set_imagen
 6800 22e0 06E0     		b	.L328
 6801              	.L337:
1503:.\main.c      **** 								}
1504:.\main.c      **** 								else{
1505:.\main.c      **** 			                        flujo_LCD1=0;							
 6802              		.loc 1 1505 0
 6803 22e2 384B     		ldr	r3, .L430+28
 6804 22e4 0022     		movs	r2, #0
 6805 22e6 1A70     		strb	r2, [r3]
 6806 22e8 02E0     		b	.L328
 6807              	.L333:
1506:.\main.c      **** 								}
1507:.\main.c      **** 							}
1508:.\main.c      **** 							else{
1509:.\main.c      **** 		                        flujo_LCD1=0;						
 6808              		.loc 1 1509 0
 6809 22ea 364B     		ldr	r3, .L430+28
 6810 22ec 0022     		movs	r2, #0
 6811 22ee 1A70     		strb	r2, [r3]
 6812              	.L328:
1510:.\main.c      **** 							}
1511:.\main.c      **** 	                    }
1512:.\main.c      **** 	                }
1513:.\main.c      **** 	            }
1514:.\main.c      **** 	            CyDelay(100);            
 6813              		.loc 1 1514 0
 6814 22f0 6420     		movs	r0, #100
 6815 22f2 FFF7FEFF 		bl	CyDelay
1515:.\main.c      **** 	            LCD_1_ClearRxBuffer();
 6816              		.loc 1 1515 0
 6817 22f6 FFF7FEFF 		bl	LCD_1_ClearRxBuffer
1516:.\main.c      **** 	        }         			
1517:.\main.c      **** 		break;
 6818              		.loc 1 1517 0
 6819 22fa 00F00ABC 		b	.L92
 6820              	.L327:
 6821              		.loc 1 1517 0 is_stmt 0 discriminator 12
 6822 22fe 00F008BC 		b	.L92
 6823              	.L108:
1518:.\main.c      ****             
1519:.\main.c      ****         case 15:
1520:.\main.c      **** 	        if(LCD_1_GetRxBufferSize()==8){
 6824              		.loc 1 1520 0 is_stmt 1
 6825 2302 FFF7FEFF 		bl	LCD_1_GetRxBufferSize
 6826 2306 0346     		mov	r3, r0
 6827 2308 082B     		cmp	r3, #8
 6828 230a 40F08880 		bne	.L339
1521:.\main.c      **** 	            if((LCD_1_rxBuffer[0]==0xAA) && (LCD_1_rxBuffer[6]==0xC3) && (LCD_1_rxBuffer[7]==0x3C)
 6829              		.loc 1 1521 0
 6830 230e 264B     		ldr	r3, .L430
 6831 2310 1B78     		ldrb	r3, [r3]
 6832 2312 DBB2     		uxtb	r3, r3
 6833 2314 AA2B     		cmp	r3, #170
 6834 2316 40F08280 		bne	.L339
 6835              		.loc 1 1521 0 is_stmt 0 discriminator 1
ARM GAS  C:\Users\diego\AppData\Local\Temp\ccW8UKJI.s 			page 150


 6836 231a 234B     		ldr	r3, .L430
 6837 231c 9B79     		ldrb	r3, [r3, #6]
 6838 231e DBB2     		uxtb	r3, r3
 6839 2320 C32B     		cmp	r3, #195
 6840 2322 7CD1     		bne	.L339
 6841              		.loc 1 1521 0 discriminator 2
 6842 2324 204B     		ldr	r3, .L430
 6843 2326 DB79     		ldrb	r3, [r3, #7]
 6844 2328 DBB2     		uxtb	r3, r3
 6845 232a 3C2B     		cmp	r3, #60
 6846 232c 77D1     		bne	.L339
1522:.\main.c      **** 	                switch(LCD_1_rxBuffer[3]){
 6847              		.loc 1 1522 0 is_stmt 1
 6848 232e 1E4B     		ldr	r3, .L430
 6849 2330 DB78     		ldrb	r3, [r3, #3]
 6850 2332 DBB2     		uxtb	r3, r3
 6851 2334 B92B     		cmp	r3, #185
 6852 2336 04D0     		beq	.L340
 6853 2338 BA2B     		cmp	r3, #186
 6854 233a 4BD0     		beq	.L341
 6855 233c 7E2B     		cmp	r3, #126
 6856 233e 66D0     		beq	.L342
1523:.\main.c      ****                         case 0xB9: //Reimpresion
1524:.\main.c      ****                         	rf_mod[0]='M';
1525:.\main.c      **** 			                rf_mod[1]='U';
1526:.\main.c      **** 			                rf_mod[2]='X';
1527:.\main.c      **** 			                rf_mod[3]='3';
1528:.\main.c      ****                             rf_mod[4]='*';
1529:.\main.c      **** 							PC_ClearRxBuffer();				
1530:.\main.c      **** 						    for(x=0;x<=4;x++){
1531:.\main.c      **** 							   PC_PutChar(rf_mod[x]);
1532:.\main.c      **** 						    }
1533:.\main.c      ****                             CyDelay(150);  
1534:.\main.c      **** 							set_imagen(1,0);
1535:.\main.c      **** 							flujo_LCD1=0;
1536:.\main.c      **** 							lado1.estado=libre;     //Fin de reimpresion                                                
1537:.\main.c      ****                         break;
1538:.\main.c      ****                             
1539:.\main.c      ****                         case 0xBA:                                       //Configuracion inicial   
1540:.\main.c      ****                             set_imagen(1,47);
1541:.\main.c      ****                             id_teclado1=5;
1542:.\main.c      **** 					        count_teclas1=0;							 //Inicia el contador de teclas	
1543:.\main.c      **** 					        id_coma1=',';	
1544:.\main.c      ****                             teclas1=4;              						//cantidad de teclas q puede digitar     
1545:.\main.c      **** 					        posx1=4;
1546:.\main.c      **** 					        posy1=3;
1547:.\main.c      **** 					        sizeletra1 = 1;	    
1548:.\main.c      ****                             flujo_LCD1 = 12;
1549:.\main.c      ****                         break;    
1550:.\main.c      ****                             
1551:.\main.c      **** 	                    case 0x7E:					//ir a menu
1552:.\main.c      **** 						  set_imagen(1,74);	
1553:.\main.c      **** 	                      flujo_LCD1=0;     
1554:.\main.c      **** 	                    break;		                            
1555:.\main.c      ****                     }
1556:.\main.c      ****                 }
1557:.\main.c      ****             }
ARM GAS  C:\Users\diego\AppData\Local\Temp\ccW8UKJI.s 			page 151


1558:.\main.c      ****         break;
 6857              		.loc 1 1558 0
 6858 2340 E7E3     		b	.L92
 6859              	.L340:
1524:.\main.c      **** 			                rf_mod[1]='U';
 6860              		.loc 1 1524 0
 6861 2342 224B     		ldr	r3, .L430+36
 6862 2344 4D22     		movs	r2, #77
 6863 2346 1A70     		strb	r2, [r3]
1525:.\main.c      **** 			                rf_mod[2]='X';
 6864              		.loc 1 1525 0
 6865 2348 204B     		ldr	r3, .L430+36
 6866 234a 5522     		movs	r2, #85
 6867 234c 5A70     		strb	r2, [r3, #1]
1526:.\main.c      **** 			                rf_mod[3]='3';
 6868              		.loc 1 1526 0
 6869 234e 1F4B     		ldr	r3, .L430+36
 6870 2350 5822     		movs	r2, #88
 6871 2352 9A70     		strb	r2, [r3, #2]
1527:.\main.c      ****                             rf_mod[4]='*';
 6872              		.loc 1 1527 0
 6873 2354 1D4B     		ldr	r3, .L430+36
 6874 2356 3322     		movs	r2, #51
 6875 2358 DA70     		strb	r2, [r3, #3]
1528:.\main.c      **** 							PC_ClearRxBuffer();				
 6876              		.loc 1 1528 0
 6877 235a 1C4B     		ldr	r3, .L430+36
 6878 235c 2A22     		movs	r2, #42
 6879 235e 1A71     		strb	r2, [r3, #4]
1529:.\main.c      **** 						    for(x=0;x<=4;x++){
 6880              		.loc 1 1529 0
 6881 2360 FFF7FEFF 		bl	PC_ClearRxBuffer
1530:.\main.c      **** 							   PC_PutChar(rf_mod[x]);
 6882              		.loc 1 1530 0
 6883 2364 0023     		movs	r3, #0
 6884 2366 87F82F30 		strb	r3, [r7, #47]
 6885 236a 0BE0     		b	.L343
 6886              	.L344:
1531:.\main.c      **** 						    }
 6887              		.loc 1 1531 0 discriminator 3
 6888 236c 97F82F30 		ldrb	r3, [r7, #47]	@ zero_extendqisi2
 6889 2370 164A     		ldr	r2, .L430+36
 6890 2372 D35C     		ldrb	r3, [r2, r3]	@ zero_extendqisi2
 6891 2374 1846     		mov	r0, r3
 6892 2376 FFF7FEFF 		bl	PC_PutChar
1530:.\main.c      **** 							   PC_PutChar(rf_mod[x]);
 6893              		.loc 1 1530 0 discriminator 3
 6894 237a 97F82F30 		ldrb	r3, [r7, #47]	@ zero_extendqisi2
 6895 237e 0133     		adds	r3, r3, #1
 6896 2380 87F82F30 		strb	r3, [r7, #47]
 6897              	.L343:
1530:.\main.c      **** 							   PC_PutChar(rf_mod[x]);
 6898              		.loc 1 1530 0 is_stmt 0 discriminator 1
 6899 2384 97F82F30 		ldrb	r3, [r7, #47]	@ zero_extendqisi2
 6900 2388 042B     		cmp	r3, #4
 6901 238a EFD9     		bls	.L344
1533:.\main.c      **** 							set_imagen(1,0);
ARM GAS  C:\Users\diego\AppData\Local\Temp\ccW8UKJI.s 			page 152


 6902              		.loc 1 1533 0 is_stmt 1
 6903 238c 9620     		movs	r0, #150
 6904 238e FFF7FEFF 		bl	CyDelay
1534:.\main.c      **** 							flujo_LCD1=0;
 6905              		.loc 1 1534 0
 6906 2392 0120     		movs	r0, #1
 6907 2394 0021     		movs	r1, #0
 6908 2396 FFF7FEFF 		bl	set_imagen
1535:.\main.c      **** 							lado1.estado=libre;     //Fin de reimpresion                                                
 6909              		.loc 1 1535 0
 6910 239a 0A4B     		ldr	r3, .L430+28
 6911 239c 0022     		movs	r2, #0
 6912 239e 1A70     		strb	r2, [r3]
1536:.\main.c      ****                         break;
 6913              		.loc 1 1536 0
 6914 23a0 0B4B     		ldr	r3, .L430+40
 6915 23a2 0122     		movs	r2, #1
 6916 23a4 5A70     		strb	r2, [r3, #1]
1537:.\main.c      ****                             
 6917              		.loc 1 1537 0
 6918 23a6 3AE0     		b	.L339
 6919              	.L431:
 6920              		.align	2
 6921              	.L430:
 6922 23a8 00000000 		.word	LCD_1_rxBuffer
 6923 23ac 00000000 		.word	count_teclas1
 6924 23b0 00000000 		.word	teclas1
 6925 23b4 00000000 		.word	rventa1
 6926 23b8 00000000 		.word	posy1
 6927 23bc 00000000 		.word	sizeletra1
 6928 23c0 00000000 		.word	posx1
 6929 23c4 00000000 		.word	flujo_LCD1
 6930 23c8 00000000 		.word	clave_config
 6931 23cc 00000000 		.word	rf_mod
 6932 23d0 00000000 		.word	lado1
 6933              	.L341:
1540:.\main.c      ****                             id_teclado1=5;
 6934              		.loc 1 1540 0
 6935 23d4 0120     		movs	r0, #1
 6936 23d6 2F21     		movs	r1, #47
 6937 23d8 FFF7FEFF 		bl	set_imagen
1541:.\main.c      **** 					        count_teclas1=0;							 //Inicia el contador de teclas	
 6938              		.loc 1 1541 0
 6939 23dc A94B     		ldr	r3, .L432
 6940 23de 0522     		movs	r2, #5
 6941 23e0 1A70     		strb	r2, [r3]
1542:.\main.c      **** 					        id_coma1=',';	
 6942              		.loc 1 1542 0
 6943 23e2 A94B     		ldr	r3, .L432+4
 6944 23e4 0022     		movs	r2, #0
 6945 23e6 1A70     		strb	r2, [r3]
1543:.\main.c      ****                             teclas1=4;              						//cantidad de teclas q puede digitar     
 6946              		.loc 1 1543 0
 6947 23e8 A84B     		ldr	r3, .L432+8
 6948 23ea 2C22     		movs	r2, #44
 6949 23ec 1A70     		strb	r2, [r3]
1544:.\main.c      **** 					        posx1=4;
ARM GAS  C:\Users\diego\AppData\Local\Temp\ccW8UKJI.s 			page 153


 6950              		.loc 1 1544 0
 6951 23ee A84B     		ldr	r3, .L432+12
 6952 23f0 0422     		movs	r2, #4
 6953 23f2 1A70     		strb	r2, [r3]
1545:.\main.c      **** 					        posy1=3;
 6954              		.loc 1 1545 0
 6955 23f4 A74B     		ldr	r3, .L432+16
 6956 23f6 0422     		movs	r2, #4
 6957 23f8 1A80     		strh	r2, [r3]	@ movhi
1546:.\main.c      **** 					        sizeletra1 = 1;	    
 6958              		.loc 1 1546 0
 6959 23fa A74B     		ldr	r3, .L432+20
 6960 23fc 0322     		movs	r2, #3
 6961 23fe 1A80     		strh	r2, [r3]	@ movhi
1547:.\main.c      ****                             flujo_LCD1 = 12;
 6962              		.loc 1 1547 0
 6963 2400 A64B     		ldr	r3, .L432+24
 6964 2402 0122     		movs	r2, #1
 6965 2404 1A80     		strh	r2, [r3]	@ movhi
1548:.\main.c      ****                         break;    
 6966              		.loc 1 1548 0
 6967 2406 A64B     		ldr	r3, .L432+28
 6968 2408 0C22     		movs	r2, #12
 6969 240a 1A70     		strb	r2, [r3]
1549:.\main.c      ****                             
 6970              		.loc 1 1549 0
 6971 240c 07E0     		b	.L339
 6972              	.L342:
1552:.\main.c      **** 	                      flujo_LCD1=0;     
 6973              		.loc 1 1552 0
 6974 240e 0120     		movs	r0, #1
 6975 2410 4A21     		movs	r1, #74
 6976 2412 FFF7FEFF 		bl	set_imagen
1553:.\main.c      **** 	                    break;		                            
 6977              		.loc 1 1553 0
 6978 2416 A24B     		ldr	r3, .L432+28
 6979 2418 0022     		movs	r2, #0
 6980 241a 1A70     		strb	r2, [r3]
1554:.\main.c      ****                     }
 6981              		.loc 1 1554 0
 6982 241c 00BF     		nop
 6983              	.L339:
 6984              		.loc 1 1558 0 discriminator 13
 6985 241e 78E3     		b	.L92
 6986              	.L109:
1559:.\main.c      ****               
1560:.\main.c      ****         case 16:
1561:.\main.c      **** 	        if(LCD_1_GetRxBufferSize()==8){
 6987              		.loc 1 1561 0
 6988 2420 FFF7FEFF 		bl	LCD_1_GetRxBufferSize
 6989 2424 0346     		mov	r3, r0
 6990 2426 082B     		cmp	r3, #8
 6991 2428 6ED1     		bne	.L345
1562:.\main.c      **** 	            if((LCD_1_rxBuffer[0]==0xAA) && (LCD_1_rxBuffer[6]==0xC3) && (LCD_1_rxBuffer[7]==0x3C)
 6992              		.loc 1 1562 0
 6993 242a 9E4B     		ldr	r3, .L432+32
 6994 242c 1B78     		ldrb	r3, [r3]
ARM GAS  C:\Users\diego\AppData\Local\Temp\ccW8UKJI.s 			page 154


 6995 242e DBB2     		uxtb	r3, r3
 6996 2430 AA2B     		cmp	r3, #170
 6997 2432 63D1     		bne	.L346
 6998              		.loc 1 1562 0 is_stmt 0 discriminator 1
 6999 2434 9B4B     		ldr	r3, .L432+32
 7000 2436 9B79     		ldrb	r3, [r3, #6]
 7001 2438 DBB2     		uxtb	r3, r3
 7002 243a C32B     		cmp	r3, #195
 7003 243c 5ED1     		bne	.L346
 7004              		.loc 1 1562 0 discriminator 2
 7005 243e 994B     		ldr	r3, .L432+32
 7006 2440 DB79     		ldrb	r3, [r3, #7]
 7007 2442 DBB2     		uxtb	r3, r3
 7008 2444 3C2B     		cmp	r3, #60
 7009 2446 59D1     		bne	.L346
1563:.\main.c      **** 	                switch(LCD_1_rxBuffer[3]){
 7010              		.loc 1 1563 0 is_stmt 1
 7011 2448 964B     		ldr	r3, .L432+32
 7012 244a DB78     		ldrb	r3, [r3, #3]
 7013 244c DBB2     		uxtb	r3, r3
 7014 244e 802B     		cmp	r3, #128
 7015 2450 13D0     		beq	.L347
 7016 2452 802B     		cmp	r3, #128
 7017 2454 04DC     		bgt	.L348
 7018 2456 7E2B     		cmp	r3, #126
 7019 2458 48D0     		beq	.L349
 7020 245a 7F2B     		cmp	r3, #127
 7021 245c 05D0     		beq	.L350
 7022 245e 4DE0     		b	.L346
 7023              	.L348:
 7024 2460 812B     		cmp	r3, #129
 7025 2462 27D0     		beq	.L351
 7026 2464 C22B     		cmp	r3, #194
 7027 2466 2DD0     		beq	.L352
 7028 2468 48E0     		b	.L346
 7029              	.L350:
1564:.\main.c      ****                         case 0x7F:      //configurar productos                            
1565:.\main.c      ****                             set_imagen(1,88);                            
 7030              		.loc 1 1565 0
 7031 246a 0120     		movs	r0, #1
 7032 246c 5821     		movs	r1, #88
 7033 246e FFF7FEFF 		bl	set_imagen
1566:.\main.c      ****                             flujo_LCD1 = 18;
 7034              		.loc 1 1566 0
 7035 2472 8B4B     		ldr	r3, .L432+28
 7036 2474 1222     		movs	r2, #18
 7037 2476 1A70     		strb	r2, [r3]
1567:.\main.c      ****                         break;
 7038              		.loc 1 1567 0
 7039 2478 40E0     		b	.L346
 7040              	.L347:
1568:.\main.c      ****                         case 0x80:      //configurar version de digitos                            
1569:.\main.c      ****                             set_imagen(1,100);
 7041              		.loc 1 1569 0
 7042 247a 0120     		movs	r0, #1
 7043 247c 6421     		movs	r1, #100
 7044 247e FFF7FEFF 		bl	set_imagen
ARM GAS  C:\Users\diego\AppData\Local\Temp\ccW8UKJI.s 			page 155


1570:.\main.c      ****                             id_teclado1 = 6;
 7045              		.loc 1 1570 0
 7046 2482 804B     		ldr	r3, .L432
 7047 2484 0622     		movs	r2, #6
 7048 2486 1A70     		strb	r2, [r3]
1571:.\main.c      **** 					        count_teclas1 = 0;							    //Inicia el contador de teclas	
 7049              		.loc 1 1571 0
 7050 2488 7F4B     		ldr	r3, .L432+4
 7051 248a 0022     		movs	r2, #0
 7052 248c 1A70     		strb	r2, [r3]
1572:.\main.c      **** 					        id_coma1=',';	
 7053              		.loc 1 1572 0
 7054 248e 7F4B     		ldr	r3, .L432+8
 7055 2490 2C22     		movs	r2, #44
 7056 2492 1A70     		strb	r2, [r3]
1573:.\main.c      ****                             teclas1=1;              						//cantidad de teclas q puede digitar     
 7057              		.loc 1 1573 0
 7058 2494 7E4B     		ldr	r3, .L432+12
 7059 2496 0122     		movs	r2, #1
 7060 2498 1A70     		strb	r2, [r3]
1574:.\main.c      **** 					        posx1=4;
 7061              		.loc 1 1574 0
 7062 249a 7E4B     		ldr	r3, .L432+16
 7063 249c 0422     		movs	r2, #4
 7064 249e 1A80     		strh	r2, [r3]	@ movhi
1575:.\main.c      **** 					        posy1=3;
 7065              		.loc 1 1575 0
 7066 24a0 7D4B     		ldr	r3, .L432+20
 7067 24a2 0322     		movs	r2, #3
 7068 24a4 1A80     		strh	r2, [r3]	@ movhi
1576:.\main.c      **** 					        sizeletra1=1;  
 7069              		.loc 1 1576 0
 7070 24a6 7D4B     		ldr	r3, .L432+24
 7071 24a8 0122     		movs	r2, #1
 7072 24aa 1A80     		strh	r2, [r3]	@ movhi
1577:.\main.c      ****                             flujo_LCD1 = 12;
 7073              		.loc 1 1577 0
 7074 24ac 7C4B     		ldr	r3, .L432+28
 7075 24ae 0C22     		movs	r2, #12
 7076 24b0 1A70     		strb	r2, [r3]
1578:.\main.c      ****                         break;
 7077              		.loc 1 1578 0
 7078 24b2 23E0     		b	.L346
 7079              	.L351:
1579:.\main.c      ****                         case 0x81:      //configurar ppux10,ppux1
1580:.\main.c      ****                             flujo_LCD1 = 17;
 7080              		.loc 1 1580 0
 7081 24b4 7A4B     		ldr	r3, .L432+28
 7082 24b6 1122     		movs	r2, #17
 7083 24b8 1A70     		strb	r2, [r3]
1581:.\main.c      ****                             set_imagen(1,109);                        
 7084              		.loc 1 1581 0
 7085 24ba 0120     		movs	r0, #1
 7086 24bc 6D21     		movs	r1, #109
 7087 24be FFF7FEFF 		bl	set_imagen
1582:.\main.c      ****                         break;
 7088              		.loc 1 1582 0
ARM GAS  C:\Users\diego\AppData\Local\Temp\ccW8UKJI.s 			page 156


 7089 24c2 1BE0     		b	.L346
 7090              	.L352:
1583:.\main.c      ****                         case 0xC2:      //id estacion   ahora datos ibutton                        
1584:.\main.c      ****                             set_imagen(1,110);                                
 7091              		.loc 1 1584 0
 7092 24c4 0120     		movs	r0, #1
 7093 24c6 6E21     		movs	r1, #110
 7094 24c8 FFF7FEFF 		bl	set_imagen
1585:.\main.c      **** 					        posx1=4;
 7095              		.loc 1 1585 0
 7096 24cc 714B     		ldr	r3, .L432+16
 7097 24ce 0422     		movs	r2, #4
 7098 24d0 1A80     		strh	r2, [r3]	@ movhi
1586:.\main.c      **** 					        posy1=3;
 7099              		.loc 1 1586 0
 7100 24d2 714B     		ldr	r3, .L432+20
 7101 24d4 0322     		movs	r2, #3
 7102 24d6 1A80     		strh	r2, [r3]	@ movhi
1587:.\main.c      **** 					        sizeletra1=1;            
 7103              		.loc 1 1587 0
 7104 24d8 704B     		ldr	r3, .L432+24
 7105 24da 0122     		movs	r2, #1
 7106 24dc 1A80     		strh	r2, [r3]	@ movhi
1588:.\main.c      ****                             flujo_LCD1 = 11;
 7107              		.loc 1 1588 0
 7108 24de 704B     		ldr	r3, .L432+28
 7109 24e0 0B22     		movs	r2, #11
 7110 24e2 1A70     		strb	r2, [r3]
1589:.\main.c      ****                             id_teclado1 = 10;
 7111              		.loc 1 1589 0
 7112 24e4 674B     		ldr	r3, .L432
 7113 24e6 0A22     		movs	r2, #10
 7114 24e8 1A70     		strb	r2, [r3]
1590:.\main.c      ****                         break;                             
 7115              		.loc 1 1590 0
 7116 24ea 07E0     		b	.L346
 7117              	.L349:
1591:.\main.c      **** 	                    case 0x7E:		//ir a menu
1592:.\main.c      **** 						  set_imagen(1,74);	
 7118              		.loc 1 1592 0
 7119 24ec 0120     		movs	r0, #1
 7120 24ee 4A21     		movs	r1, #74
 7121 24f0 FFF7FEFF 		bl	set_imagen
1593:.\main.c      **** 	                      flujo_LCD1=0;     
 7122              		.loc 1 1593 0
 7123 24f4 6A4B     		ldr	r3, .L432+28
 7124 24f6 0022     		movs	r2, #0
 7125 24f8 1A70     		strb	r2, [r3]
1594:.\main.c      **** 	                    break;                                   
 7126              		.loc 1 1594 0
 7127 24fa 00BF     		nop
 7128              	.L346:
1595:.\main.c      ****                     }
1596:.\main.c      ****                 }
1597:.\main.c      ****                 CyDelay(100);            
 7129              		.loc 1 1597 0
 7130 24fc 6420     		movs	r0, #100
ARM GAS  C:\Users\diego\AppData\Local\Temp\ccW8UKJI.s 			page 157


 7131 24fe FFF7FEFF 		bl	CyDelay
1598:.\main.c      **** 	            LCD_1_ClearRxBuffer();
 7132              		.loc 1 1598 0
 7133 2502 FFF7FEFF 		bl	LCD_1_ClearRxBuffer
1599:.\main.c      ****             }            
1600:.\main.c      ****         break;    
 7134              		.loc 1 1600 0
 7135 2506 04E3     		b	.L92
 7136              	.L345:
 7137              		.loc 1 1600 0 is_stmt 0 discriminator 14
 7138 2508 03E3     		b	.L92
 7139              	.L110:
1601:.\main.c      ****             
1602:.\main.c      ****         case 17:
1603:.\main.c      **** 	        if(LCD_1_GetRxBufferSize()==8){
 7140              		.loc 1 1603 0 is_stmt 1
 7141 250a FFF7FEFF 		bl	LCD_1_GetRxBufferSize
 7142 250e 0346     		mov	r3, r0
 7143 2510 082B     		cmp	r3, #8
 7144 2512 4AD1     		bne	.L353
1604:.\main.c      **** 	            if((LCD_1_rxBuffer[0]==0xAA) && (LCD_1_rxBuffer[6]==0xC3) && (LCD_1_rxBuffer[7]==0x3C)
 7145              		.loc 1 1604 0
 7146 2514 634B     		ldr	r3, .L432+32
 7147 2516 1B78     		ldrb	r3, [r3]
 7148 2518 DBB2     		uxtb	r3, r3
 7149 251a AA2B     		cmp	r3, #170
 7150 251c 3FD1     		bne	.L354
 7151              		.loc 1 1604 0 is_stmt 0 discriminator 1
 7152 251e 614B     		ldr	r3, .L432+32
 7153 2520 9B79     		ldrb	r3, [r3, #6]
 7154 2522 DBB2     		uxtb	r3, r3
 7155 2524 C32B     		cmp	r3, #195
 7156 2526 3AD1     		bne	.L354
 7157              		.loc 1 1604 0 discriminator 2
 7158 2528 5E4B     		ldr	r3, .L432+32
 7159 252a DB79     		ldrb	r3, [r3, #7]
 7160 252c DBB2     		uxtb	r3, r3
 7161 252e 3C2B     		cmp	r3, #60
 7162 2530 35D1     		bne	.L354
1605:.\main.c      **** 	                switch(LCD_1_rxBuffer[3]){
 7163              		.loc 1 1605 0 is_stmt 1
 7164 2532 5C4B     		ldr	r3, .L432+32
 7165 2534 DB78     		ldrb	r3, [r3, #3]
 7166 2536 DBB2     		uxtb	r3, r3
 7167 2538 8F2B     		cmp	r3, #143
 7168 253a 04D0     		beq	.L355
 7169 253c 902B     		cmp	r3, #144
 7170 253e 14D0     		beq	.L356
 7171 2540 7E2B     		cmp	r3, #126
 7172 2542 24D0     		beq	.L357
 7173 2544 2BE0     		b	.L354
 7174              	.L355:
1606:.\main.c      ****                         case 0x8f:  //X1
1607:.\main.c      **** 						    EEPROM_WriteByte(0x00,23);
 7175              		.loc 1 1607 0
 7176 2546 0020     		movs	r0, #0
 7177 2548 1721     		movs	r1, #23
ARM GAS  C:\Users\diego\AppData\Local\Temp\ccW8UKJI.s 			page 158


 7178 254a FFF7FEFF 		bl	EEPROM_WriteByte
1608:.\main.c      ****                         	flujo_LCD1 = 0;	
 7179              		.loc 1 1608 0
 7180 254e 544B     		ldr	r3, .L432+28
 7181 2550 0022     		movs	r2, #0
 7182 2552 1A70     		strb	r2, [r3]
1609:.\main.c      ****                         	set_imagen(1,60);
 7183              		.loc 1 1609 0
 7184 2554 0120     		movs	r0, #1
 7185 2556 3C21     		movs	r1, #60
 7186 2558 FFF7FEFF 		bl	set_imagen
1610:.\main.c      ****                             CyDelay(200);
 7187              		.loc 1 1610 0
 7188 255c C820     		movs	r0, #200
 7189 255e FFF7FEFF 		bl	CyDelay
1611:.\main.c      **** 							lado1.estado=libre;                          
 7190              		.loc 1 1611 0
 7191 2562 514B     		ldr	r3, .L432+36
 7192 2564 0122     		movs	r2, #1
 7193 2566 5A70     		strb	r2, [r3, #1]
1612:.\main.c      ****                         break;
 7194              		.loc 1 1612 0
 7195 2568 19E0     		b	.L354
 7196              	.L356:
1613:.\main.c      ****                         case 0x90:  //X10
1614:.\main.c      **** 						    EEPROM_WriteByte(0x01,23);
 7197              		.loc 1 1614 0
 7198 256a 0120     		movs	r0, #1
 7199 256c 1721     		movs	r1, #23
 7200 256e FFF7FEFF 		bl	EEPROM_WriteByte
1615:.\main.c      ****                         	flujo_LCD1=0;	
 7201              		.loc 1 1615 0
 7202 2572 4B4B     		ldr	r3, .L432+28
 7203 2574 0022     		movs	r2, #0
 7204 2576 1A70     		strb	r2, [r3]
1616:.\main.c      ****                         	set_imagen(1,60);
 7205              		.loc 1 1616 0
 7206 2578 0120     		movs	r0, #1
 7207 257a 3C21     		movs	r1, #60
 7208 257c FFF7FEFF 		bl	set_imagen
1617:.\main.c      ****                             CyDelay(200);
 7209              		.loc 1 1617 0
 7210 2580 C820     		movs	r0, #200
 7211 2582 FFF7FEFF 		bl	CyDelay
1618:.\main.c      **** 							lado1.estado=libre;                           
 7212              		.loc 1 1618 0
 7213 2586 484B     		ldr	r3, .L432+36
 7214 2588 0122     		movs	r2, #1
 7215 258a 5A70     		strb	r2, [r3, #1]
1619:.\main.c      ****                         break;
 7216              		.loc 1 1619 0
 7217 258c 07E0     		b	.L354
 7218              	.L357:
1620:.\main.c      **** 	                    case 0x7E:	//ir a menu
1621:.\main.c      **** 						  set_imagen(1,74);	
 7219              		.loc 1 1621 0
 7220 258e 0120     		movs	r0, #1
ARM GAS  C:\Users\diego\AppData\Local\Temp\ccW8UKJI.s 			page 159


 7221 2590 4A21     		movs	r1, #74
 7222 2592 FFF7FEFF 		bl	set_imagen
1622:.\main.c      **** 	                      flujo_LCD1=0;     
 7223              		.loc 1 1622 0
 7224 2596 424B     		ldr	r3, .L432+28
 7225 2598 0022     		movs	r2, #0
 7226 259a 1A70     		strb	r2, [r3]
1623:.\main.c      **** 	                    break;                         
 7227              		.loc 1 1623 0
 7228 259c 00BF     		nop
 7229              	.L354:
1624:.\main.c      ****                     }
1625:.\main.c      ****                 }
1626:.\main.c      ****                 CyDelay(100);            
 7230              		.loc 1 1626 0
 7231 259e 6420     		movs	r0, #100
 7232 25a0 FFF7FEFF 		bl	CyDelay
1627:.\main.c      **** 	            LCD_1_ClearRxBuffer();
 7233              		.loc 1 1627 0
 7234 25a4 FFF7FEFF 		bl	LCD_1_ClearRxBuffer
1628:.\main.c      ****             }              
1629:.\main.c      ****         break;    
 7235              		.loc 1 1629 0
 7236 25a8 B3E2     		b	.L92
 7237              	.L353:
 7238              		.loc 1 1629 0 is_stmt 0 discriminator 15
 7239 25aa B2E2     		b	.L92
 7240              	.L111:
1630:.\main.c      ****           
1631:.\main.c      ****         case 18:
1632:.\main.c      **** 	        if(LCD_1_GetRxBufferSize()==8){
 7241              		.loc 1 1632 0 is_stmt 1
 7242 25ac FFF7FEFF 		bl	LCD_1_GetRxBufferSize
 7243 25b0 0346     		mov	r3, r0
 7244 25b2 082B     		cmp	r3, #8
 7245 25b4 40F00A82 		bne	.L358
1633:.\main.c      **** 	            if((LCD_1_rxBuffer[0]==0xAA) && (LCD_1_rxBuffer[6]==0xC3) && (LCD_1_rxBuffer[7]==0x3C)
 7246              		.loc 1 1633 0
 7247 25b8 3A4B     		ldr	r3, .L432+32
 7248 25ba 1B78     		ldrb	r3, [r3]
 7249 25bc DBB2     		uxtb	r3, r3
 7250 25be AA2B     		cmp	r3, #170
 7251 25c0 40F0FE81 		bne	.L359
 7252              		.loc 1 1633 0 is_stmt 0 discriminator 1
 7253 25c4 374B     		ldr	r3, .L432+32
 7254 25c6 9B79     		ldrb	r3, [r3, #6]
 7255 25c8 DBB2     		uxtb	r3, r3
 7256 25ca C32B     		cmp	r3, #195
 7257 25cc 40F0F881 		bne	.L359
 7258              		.loc 1 1633 0 discriminator 2
 7259 25d0 344B     		ldr	r3, .L432+32
 7260 25d2 DB79     		ldrb	r3, [r3, #7]
 7261 25d4 DBB2     		uxtb	r3, r3
 7262 25d6 3C2B     		cmp	r3, #60
 7263 25d8 40F0F281 		bne	.L359
1634:.\main.c      **** 	                switch(LCD_1_rxBuffer[3]){
 7264              		.loc 1 1634 0 is_stmt 1
ARM GAS  C:\Users\diego\AppData\Local\Temp\ccW8UKJI.s 			page 160


 7265 25dc 314B     		ldr	r3, .L432+32
 7266 25de DB78     		ldrb	r3, [r3, #3]
 7267 25e0 DBB2     		uxtb	r3, r3
 7268 25e2 7E3B     		subs	r3, r3, #126
 7269 25e4 042B     		cmp	r3, #4
 7270 25e6 00F2EB81 		bhi	.L359
 7271 25ea 01A2     		adr	r2, .L361
 7272 25ec 52F823F0 		ldr	pc, [r2, r3, lsl #2]
 7273              		.p2align 2
 7274              	.L361:
 7275 25f0 31270000 		.word	.L360+1
 7276 25f4 B1260000 		.word	.L362+1
 7277 25f8 05260000 		.word	.L363+1
 7278 25fc 45260000 		.word	.L364+1
 7279 2600 F1260000 		.word	.L365+1
 7280              		.p2align 1
 7281              	.L363:
1635:.\main.c      ****                         case 0x80:  //Producto 1
1636:.\main.c      ****                             Producto=1;                                                    
 7282              		.loc 1 1636 0
 7283 2604 294B     		ldr	r3, .L432+40
 7284 2606 0122     		movs	r2, #1
 7285 2608 1A70     		strb	r2, [r3]
1637:.\main.c      ****                             set_imagen(1,6);  
 7286              		.loc 1 1637 0
 7287 260a 0120     		movs	r0, #1
 7288 260c 0621     		movs	r1, #6
 7289 260e FFF7FEFF 		bl	set_imagen
1638:.\main.c      ****                             id_teclado1=7;
 7290              		.loc 1 1638 0
 7291 2612 1C4B     		ldr	r3, .L432
 7292 2614 0722     		movs	r2, #7
 7293 2616 1A70     		strb	r2, [r3]
1639:.\main.c      **** 					        count_teclas1=0;							    //Inicia el contador de teclas	
 7294              		.loc 1 1639 0
 7295 2618 1B4B     		ldr	r3, .L432+4
 7296 261a 0022     		movs	r2, #0
 7297 261c 1A70     		strb	r2, [r3]
1640:.\main.c      **** 					        id_coma1=',';	
 7298              		.loc 1 1640 0
 7299 261e 1B4B     		ldr	r3, .L432+8
 7300 2620 2C22     		movs	r2, #44
 7301 2622 1A70     		strb	r2, [r3]
1641:.\main.c      ****                             teclas1=1;              						//cantidad de teclas q puede digitar     
 7302              		.loc 1 1641 0
 7303 2624 1A4B     		ldr	r3, .L432+12
 7304 2626 0122     		movs	r2, #1
 7305 2628 1A70     		strb	r2, [r3]
1642:.\main.c      **** 					        posx1=4;
 7306              		.loc 1 1642 0
 7307 262a 1A4B     		ldr	r3, .L432+16
 7308 262c 0422     		movs	r2, #4
 7309 262e 1A80     		strh	r2, [r3]	@ movhi
1643:.\main.c      **** 					        posy1=3;
 7310              		.loc 1 1643 0
 7311 2630 194B     		ldr	r3, .L432+20
 7312 2632 0322     		movs	r2, #3
ARM GAS  C:\Users\diego\AppData\Local\Temp\ccW8UKJI.s 			page 161


 7313 2634 1A80     		strh	r2, [r3]	@ movhi
1644:.\main.c      **** 					        sizeletra1=1;  
 7314              		.loc 1 1644 0
 7315 2636 194B     		ldr	r3, .L432+24
 7316 2638 0122     		movs	r2, #1
 7317 263a 1A80     		strh	r2, [r3]	@ movhi
1645:.\main.c      ****                             flujo_LCD1 = 12;
 7318              		.loc 1 1645 0
 7319 263c 184B     		ldr	r3, .L432+28
 7320 263e 0C22     		movs	r2, #12
 7321 2640 1A70     		strb	r2, [r3]
1646:.\main.c      ****                         break;
 7322              		.loc 1 1646 0
 7323 2642 BDE1     		b	.L359
 7324              	.L364:
1647:.\main.c      ****                         case 0x81:  //Producto 2
1648:.\main.c      ****                             Producto=2;                                                    
 7325              		.loc 1 1648 0
 7326 2644 194B     		ldr	r3, .L432+40
 7327 2646 0222     		movs	r2, #2
 7328 2648 1A70     		strb	r2, [r3]
1649:.\main.c      ****                             set_imagen(1,6);  
 7329              		.loc 1 1649 0
 7330 264a 0120     		movs	r0, #1
 7331 264c 0621     		movs	r1, #6
 7332 264e FFF7FEFF 		bl	set_imagen
1650:.\main.c      ****                             id_teclado1=7;
 7333              		.loc 1 1650 0
 7334 2652 0C4B     		ldr	r3, .L432
 7335 2654 0722     		movs	r2, #7
 7336 2656 1A70     		strb	r2, [r3]
1651:.\main.c      **** 					        count_teclas1=0;							    	
 7337              		.loc 1 1651 0
 7338 2658 0B4B     		ldr	r3, .L432+4
 7339 265a 0022     		movs	r2, #0
 7340 265c 1A70     		strb	r2, [r3]
1652:.\main.c      **** 					        id_coma1=',';	
 7341              		.loc 1 1652 0
 7342 265e 0B4B     		ldr	r3, .L432+8
 7343 2660 2C22     		movs	r2, #44
 7344 2662 1A70     		strb	r2, [r3]
1653:.\main.c      ****                             teclas1=1;              															
 7345              		.loc 1 1653 0
 7346 2664 0A4B     		ldr	r3, .L432+12
 7347 2666 0122     		movs	r2, #1
 7348 2668 1A70     		strb	r2, [r3]
1654:.\main.c      **** 					        posx1=4;
 7349              		.loc 1 1654 0
 7350 266a 0A4B     		ldr	r3, .L432+16
 7351 266c 0422     		movs	r2, #4
 7352 266e 1A80     		strh	r2, [r3]	@ movhi
1655:.\main.c      **** 					        posy1=3;
 7353              		.loc 1 1655 0
 7354 2670 094B     		ldr	r3, .L432+20
 7355 2672 0322     		movs	r2, #3
 7356 2674 1A80     		strh	r2, [r3]	@ movhi
1656:.\main.c      **** 					        sizeletra1=1;  
ARM GAS  C:\Users\diego\AppData\Local\Temp\ccW8UKJI.s 			page 162


 7357              		.loc 1 1656 0
 7358 2676 094B     		ldr	r3, .L432+24
 7359 2678 0122     		movs	r2, #1
 7360 267a 1A80     		strh	r2, [r3]	@ movhi
1657:.\main.c      ****                             flujo_LCD1 = 12;
 7361              		.loc 1 1657 0
 7362 267c 084B     		ldr	r3, .L432+28
 7363 267e 0C22     		movs	r2, #12
 7364 2680 1A70     		strb	r2, [r3]
1658:.\main.c      ****                         break;                            
 7365              		.loc 1 1658 0
 7366 2682 9DE1     		b	.L359
 7367              	.L433:
 7368              		.align	2
 7369              	.L432:
 7370 2684 00000000 		.word	id_teclado1
 7371 2688 00000000 		.word	count_teclas1
 7372 268c 00000000 		.word	id_coma1
 7373 2690 00000000 		.word	teclas1
 7374 2694 00000000 		.word	posx1
 7375 2698 00000000 		.word	posy1
 7376 269c 00000000 		.word	sizeletra1
 7377 26a0 00000000 		.word	flujo_LCD1
 7378 26a4 00000000 		.word	LCD_1_rxBuffer
 7379 26a8 00000000 		.word	lado1
 7380 26ac 00000000 		.word	Producto
 7381              	.L362:
1659:.\main.c      ****                         case 0x7F:  //Producto 3
1660:.\main.c      ****                             Producto=3;                                                    
 7382              		.loc 1 1660 0
 7383 26b0 C74B     		ldr	r3, .L434
 7384 26b2 0322     		movs	r2, #3
 7385 26b4 1A70     		strb	r2, [r3]
1661:.\main.c      ****                             set_imagen(1,6);  
 7386              		.loc 1 1661 0
 7387 26b6 0120     		movs	r0, #1
 7388 26b8 0621     		movs	r1, #6
 7389 26ba FFF7FEFF 		bl	set_imagen
1662:.\main.c      ****                             id_teclado1=7;
 7390              		.loc 1 1662 0
 7391 26be C54B     		ldr	r3, .L434+4
 7392 26c0 0722     		movs	r2, #7
 7393 26c2 1A70     		strb	r2, [r3]
1663:.\main.c      **** 					        count_teclas1=0;							    
 7394              		.loc 1 1663 0
 7395 26c4 C44B     		ldr	r3, .L434+8
 7396 26c6 0022     		movs	r2, #0
 7397 26c8 1A70     		strb	r2, [r3]
1664:.\main.c      **** 					        id_coma1=',';	
 7398              		.loc 1 1664 0
 7399 26ca C44B     		ldr	r3, .L434+12
 7400 26cc 2C22     		movs	r2, #44
 7401 26ce 1A70     		strb	r2, [r3]
1665:.\main.c      ****                             teclas1=1;              													
 7402              		.loc 1 1665 0
 7403 26d0 C34B     		ldr	r3, .L434+16
 7404 26d2 0122     		movs	r2, #1
ARM GAS  C:\Users\diego\AppData\Local\Temp\ccW8UKJI.s 			page 163


 7405 26d4 1A70     		strb	r2, [r3]
1666:.\main.c      **** 					        posx1=4;
 7406              		.loc 1 1666 0
 7407 26d6 C34B     		ldr	r3, .L434+20
 7408 26d8 0422     		movs	r2, #4
 7409 26da 1A80     		strh	r2, [r3]	@ movhi
1667:.\main.c      **** 					        posy1=3;
 7410              		.loc 1 1667 0
 7411 26dc C24B     		ldr	r3, .L434+24
 7412 26de 0322     		movs	r2, #3
 7413 26e0 1A80     		strh	r2, [r3]	@ movhi
1668:.\main.c      **** 					        sizeletra1=1;                      
 7414              		.loc 1 1668 0
 7415 26e2 C24B     		ldr	r3, .L434+28
 7416 26e4 0122     		movs	r2, #1
 7417 26e6 1A80     		strh	r2, [r3]	@ movhi
1669:.\main.c      ****                             flujo_LCD1 = 12;
 7418              		.loc 1 1669 0
 7419 26e8 C14B     		ldr	r3, .L434+32
 7420 26ea 0C22     		movs	r2, #12
 7421 26ec 1A70     		strb	r2, [r3]
1670:.\main.c      ****                         break;                            
 7422              		.loc 1 1670 0
 7423 26ee 67E1     		b	.L359
 7424              	.L365:
1671:.\main.c      ****                         case 0x82:  //Producto 4
1672:.\main.c      ****                             Producto=4;                                                   
 7425              		.loc 1 1672 0
 7426 26f0 B74B     		ldr	r3, .L434
 7427 26f2 0422     		movs	r2, #4
 7428 26f4 1A70     		strb	r2, [r3]
1673:.\main.c      ****                             set_imagen(1,6);  
 7429              		.loc 1 1673 0
 7430 26f6 0120     		movs	r0, #1
 7431 26f8 0621     		movs	r1, #6
 7432 26fa FFF7FEFF 		bl	set_imagen
1674:.\main.c      ****                             id_teclado1=7;
 7433              		.loc 1 1674 0
 7434 26fe B54B     		ldr	r3, .L434+4
 7435 2700 0722     		movs	r2, #7
 7436 2702 1A70     		strb	r2, [r3]
1675:.\main.c      **** 					        count_teclas1=0;							    	
 7437              		.loc 1 1675 0
 7438 2704 B44B     		ldr	r3, .L434+8
 7439 2706 0022     		movs	r2, #0
 7440 2708 1A70     		strb	r2, [r3]
1676:.\main.c      **** 					        id_coma1=',';	
 7441              		.loc 1 1676 0
 7442 270a B44B     		ldr	r3, .L434+12
 7443 270c 2C22     		movs	r2, #44
 7444 270e 1A70     		strb	r2, [r3]
1677:.\main.c      ****                             teclas1=1;              														
 7445              		.loc 1 1677 0
 7446 2710 B34B     		ldr	r3, .L434+16
 7447 2712 0122     		movs	r2, #1
 7448 2714 1A70     		strb	r2, [r3]
1678:.\main.c      **** 					        posx1=4;
ARM GAS  C:\Users\diego\AppData\Local\Temp\ccW8UKJI.s 			page 164


 7449              		.loc 1 1678 0
 7450 2716 B34B     		ldr	r3, .L434+20
 7451 2718 0422     		movs	r2, #4
 7452 271a 1A80     		strh	r2, [r3]	@ movhi
1679:.\main.c      **** 					        posy1=3;
 7453              		.loc 1 1679 0
 7454 271c B24B     		ldr	r3, .L434+24
 7455 271e 0322     		movs	r2, #3
 7456 2720 1A80     		strh	r2, [r3]	@ movhi
1680:.\main.c      **** 					        sizeletra1=1;        
 7457              		.loc 1 1680 0
 7458 2722 B24B     		ldr	r3, .L434+28
 7459 2724 0122     		movs	r2, #1
 7460 2726 1A80     		strh	r2, [r3]	@ movhi
1681:.\main.c      ****                             flujo_LCD1 = 12;
 7461              		.loc 1 1681 0
 7462 2728 B14B     		ldr	r3, .L434+32
 7463 272a 0C22     		movs	r2, #12
 7464 272c 1A70     		strb	r2, [r3]
1682:.\main.c      ****                         break;                     
 7465              		.loc 1 1682 0
 7466 272e 47E1     		b	.L359
 7467              	.L360:
1683:.\main.c      **** 	                    case 0x7E:	//Envía datos al Beagle de productos 
1684:.\main.c      ****                         	rf_mod[0]='M';
 7468              		.loc 1 1684 0
 7469 2730 B04B     		ldr	r3, .L434+36
 7470 2732 4D22     		movs	r2, #77
 7471 2734 1A70     		strb	r2, [r3]
1685:.\main.c      **** 			                rf_mod[1]='U';
 7472              		.loc 1 1685 0
 7473 2736 AF4B     		ldr	r3, .L434+36
 7474 2738 5522     		movs	r2, #85
 7475 273a 5A70     		strb	r2, [r3, #1]
1686:.\main.c      **** 			                rf_mod[2]='X';
 7476              		.loc 1 1686 0
 7477 273c AD4B     		ldr	r3, .L434+36
 7478 273e 5822     		movs	r2, #88
 7479 2740 9A70     		strb	r2, [r3, #2]
1687:.\main.c      **** 			                rf_mod[3]='4'; 
 7480              		.loc 1 1687 0
 7481 2742 AC4B     		ldr	r3, .L434+36
 7482 2744 3422     		movs	r2, #52
 7483 2746 DA70     		strb	r2, [r3, #3]
1688:.\main.c      ****                             y=4;
 7484              		.loc 1 1688 0
 7485 2748 0423     		movs	r3, #4
 7486 274a 87F82E30 		strb	r3, [r7, #46]
1689:.\main.c      ****                             for(x=0;x<=2;x++){
 7487              		.loc 1 1689 0
 7488 274e 0023     		movs	r3, #0
 7489 2750 87F82F30 		strb	r3, [r7, #47]
 7490 2754 3CE0     		b	.L366
 7491              	.L374:
1690:.\main.c      ****                                 switch(lado1.grado[x][0]){
 7492              		.loc 1 1690 0
 7493 2756 97F82F30 		ldrb	r3, [r7, #47]	@ zero_extendqisi2
ARM GAS  C:\Users\diego\AppData\Local\Temp\ccW8UKJI.s 			page 165


 7494 275a A74A     		ldr	r2, .L434+40
 7495 275c 1344     		add	r3, r3, r2
 7496 275e 93F85930 		ldrb	r3, [r3, #89]
 7497 2762 DBB2     		uxtb	r3, r3
 7498 2764 013B     		subs	r3, r3, #1
 7499 2766 032B     		cmp	r3, #3
 7500 2768 22D8     		bhi	.L367
 7501 276a 01A2     		adr	r2, .L369
 7502 276c 52F823F0 		ldr	pc, [r2, r3, lsl #2]
 7503              		.p2align 2
 7504              	.L369:
 7505 2770 81270000 		.word	.L368+1
 7506 2774 8D270000 		.word	.L370+1
 7507 2778 99270000 		.word	.L371+1
 7508 277c A5270000 		.word	.L372+1
 7509              		.p2align 1
 7510              	.L368:
1691:.\main.c      ****                                 	case 1:
1692:.\main.c      ****                                 		rf_mod[y]='1';//Diesel
 7511              		.loc 1 1692 0
 7512 2780 97F82E30 		ldrb	r3, [r7, #46]	@ zero_extendqisi2
 7513 2784 9B4A     		ldr	r2, .L434+36
 7514 2786 3121     		movs	r1, #49
 7515 2788 D154     		strb	r1, [r2, r3]
1693:.\main.c      ****                                 	break;
 7516              		.loc 1 1693 0
 7517 278a 17E0     		b	.L373
 7518              	.L370:
1694:.\main.c      ****                                 	case 2:
1695:.\main.c      ****                                 		rf_mod[y]='2';//Corriente
 7519              		.loc 1 1695 0
 7520 278c 97F82E30 		ldrb	r3, [r7, #46]	@ zero_extendqisi2
 7521 2790 984A     		ldr	r2, .L434+36
 7522 2792 3221     		movs	r1, #50
 7523 2794 D154     		strb	r1, [r2, r3]
1696:.\main.c      ****                                 	break;
 7524              		.loc 1 1696 0
 7525 2796 11E0     		b	.L373
 7526              	.L371:
1697:.\main.c      ****                                 	case 3:
1698:.\main.c      ****                                 		rf_mod[y]='3';//Extra
 7527              		.loc 1 1698 0
 7528 2798 97F82E30 		ldrb	r3, [r7, #46]	@ zero_extendqisi2
 7529 279c 954A     		ldr	r2, .L434+36
 7530 279e 3321     		movs	r1, #51
 7531 27a0 D154     		strb	r1, [r2, r3]
1699:.\main.c      ****                                 	break;
 7532              		.loc 1 1699 0
 7533 27a2 0BE0     		b	.L373
 7534              	.L372:
1700:.\main.c      ****                                 	case 4:
1701:.\main.c      ****                                 		rf_mod[y]='4';//Supremo diesel
 7535              		.loc 1 1701 0
 7536 27a4 97F82E30 		ldrb	r3, [r7, #46]	@ zero_extendqisi2
 7537 27a8 924A     		ldr	r2, .L434+36
 7538 27aa 3421     		movs	r1, #52
 7539 27ac D154     		strb	r1, [r2, r3]
ARM GAS  C:\Users\diego\AppData\Local\Temp\ccW8UKJI.s 			page 166


1702:.\main.c      ****                                 	break;
 7540              		.loc 1 1702 0
 7541 27ae 05E0     		b	.L373
 7542              	.L367:
1703:.\main.c      ****                                     default:
1704:.\main.c      ****                                         rf_mod[y]='0';
 7543              		.loc 1 1704 0
 7544 27b0 97F82E30 		ldrb	r3, [r7, #46]	@ zero_extendqisi2
 7545 27b4 8F4A     		ldr	r2, .L434+36
 7546 27b6 3021     		movs	r1, #48
 7547 27b8 D154     		strb	r1, [r2, r3]
1705:.\main.c      ****                                     break;
 7548              		.loc 1 1705 0
 7549 27ba 00BF     		nop
 7550              	.L373:
1706:.\main.c      ****                                 }                                                 
1707:.\main.c      ****                                 y++;                                
 7551              		.loc 1 1707 0 discriminator 2
 7552 27bc 97F82E30 		ldrb	r3, [r7, #46]	@ zero_extendqisi2
 7553 27c0 0133     		adds	r3, r3, #1
 7554 27c2 87F82E30 		strb	r3, [r7, #46]
1689:.\main.c      ****                                 switch(lado1.grado[x][0]){
 7555              		.loc 1 1689 0 discriminator 2
 7556 27c6 97F82F30 		ldrb	r3, [r7, #47]	@ zero_extendqisi2
 7557 27ca 0133     		adds	r3, r3, #1
 7558 27cc 87F82F30 		strb	r3, [r7, #47]
 7559              	.L366:
1689:.\main.c      ****                                 switch(lado1.grado[x][0]){
 7560              		.loc 1 1689 0 is_stmt 0 discriminator 1
 7561 27d0 97F82F30 		ldrb	r3, [r7, #47]	@ zero_extendqisi2
 7562 27d4 022B     		cmp	r3, #2
 7563 27d6 BED9     		bls	.L374
1708:.\main.c      ****                             }  
1709:.\main.c      ****                             if(producto1==0){
 7564              		.loc 1 1709 0 is_stmt 1
 7565 27d8 884B     		ldr	r3, .L434+44
 7566 27da 1B78     		ldrb	r3, [r3]	@ zero_extendqisi2
 7567 27dc 002B     		cmp	r3, #0
 7568 27de 26D1     		bne	.L375
1710:.\main.c      ****                                 y=0;                                    
 7569              		.loc 1 1710 0
 7570 27e0 0023     		movs	r3, #0
 7571 27e2 87F82E30 		strb	r3, [r7, #46]
1711:.\main.c      ****                                 for(x=4;x<=6;x++){
 7572              		.loc 1 1711 0
 7573 27e6 0423     		movs	r3, #4
 7574 27e8 87F82F30 		strb	r3, [r7, #47]
 7575 27ec 1BE0     		b	.L376
 7576              	.L378:
1712:.\main.c      ****                                     if(rf_mod[x]=='1'){
 7577              		.loc 1 1712 0
 7578 27ee 97F82F30 		ldrb	r3, [r7, #47]	@ zero_extendqisi2
 7579 27f2 804A     		ldr	r2, .L434+36
 7580 27f4 D35C     		ldrb	r3, [r2, r3]	@ zero_extendqisi2
 7581 27f6 312B     		cmp	r3, #49
 7582 27f8 0BD1     		bne	.L377
1713:.\main.c      ****                                        rf_mod[x]='0';     
ARM GAS  C:\Users\diego\AppData\Local\Temp\ccW8UKJI.s 			page 167


 7583              		.loc 1 1713 0
 7584 27fa 97F82F30 		ldrb	r3, [r7, #47]	@ zero_extendqisi2
 7585 27fe 7D4A     		ldr	r2, .L434+36
 7586 2800 3021     		movs	r1, #48
 7587 2802 D154     		strb	r1, [r2, r3]
1714:.\main.c      ****                                         lado1.grado[y][0]=0;                                       
 7588              		.loc 1 1714 0
 7589 2804 97F82E30 		ldrb	r3, [r7, #46]	@ zero_extendqisi2
 7590 2808 7B4A     		ldr	r2, .L434+40
 7591 280a 1344     		add	r3, r3, r2
 7592 280c 0022     		movs	r2, #0
 7593 280e 83F85920 		strb	r2, [r3, #89]
 7594              	.L377:
1715:.\main.c      ****                                     }
1716:.\main.c      ****                                     y++;
 7595              		.loc 1 1716 0 discriminator 2
 7596 2812 97F82E30 		ldrb	r3, [r7, #46]	@ zero_extendqisi2
 7597 2816 0133     		adds	r3, r3, #1
 7598 2818 87F82E30 		strb	r3, [r7, #46]
1711:.\main.c      ****                                     if(rf_mod[x]=='1'){
 7599              		.loc 1 1711 0 discriminator 2
 7600 281c 97F82F30 		ldrb	r3, [r7, #47]	@ zero_extendqisi2
 7601 2820 0133     		adds	r3, r3, #1
 7602 2822 87F82F30 		strb	r3, [r7, #47]
 7603              	.L376:
1711:.\main.c      ****                                     if(rf_mod[x]=='1'){
 7604              		.loc 1 1711 0 is_stmt 0 discriminator 1
 7605 2826 97F82F30 		ldrb	r3, [r7, #47]	@ zero_extendqisi2
 7606 282a 062B     		cmp	r3, #6
 7607 282c DFD9     		bls	.L378
 7608              	.L375:
1717:.\main.c      ****                                 }
1718:.\main.c      ****                             }        
1719:.\main.c      ****                             if(producto2==0){
 7609              		.loc 1 1719 0 is_stmt 1
 7610 282e 744B     		ldr	r3, .L434+48
 7611 2830 1B78     		ldrb	r3, [r3]	@ zero_extendqisi2
 7612 2832 002B     		cmp	r3, #0
 7613 2834 26D1     		bne	.L379
1720:.\main.c      ****                                 y=0;                                    
 7614              		.loc 1 1720 0
 7615 2836 0023     		movs	r3, #0
 7616 2838 87F82E30 		strb	r3, [r7, #46]
1721:.\main.c      ****                                 for(x=4;x<=6;x++){
 7617              		.loc 1 1721 0
 7618 283c 0423     		movs	r3, #4
 7619 283e 87F82F30 		strb	r3, [r7, #47]
 7620 2842 1BE0     		b	.L380
 7621              	.L382:
1722:.\main.c      ****                                     if(rf_mod[x]=='2'){
 7622              		.loc 1 1722 0
 7623 2844 97F82F30 		ldrb	r3, [r7, #47]	@ zero_extendqisi2
 7624 2848 6A4A     		ldr	r2, .L434+36
 7625 284a D35C     		ldrb	r3, [r2, r3]	@ zero_extendqisi2
 7626 284c 322B     		cmp	r3, #50
 7627 284e 0BD1     		bne	.L381
1723:.\main.c      ****                                        rf_mod[x]='0';     
ARM GAS  C:\Users\diego\AppData\Local\Temp\ccW8UKJI.s 			page 168


 7628              		.loc 1 1723 0
 7629 2850 97F82F30 		ldrb	r3, [r7, #47]	@ zero_extendqisi2
 7630 2854 674A     		ldr	r2, .L434+36
 7631 2856 3021     		movs	r1, #48
 7632 2858 D154     		strb	r1, [r2, r3]
1724:.\main.c      ****                                         lado1.grado[y][0]=0;                                       
 7633              		.loc 1 1724 0
 7634 285a 97F82E30 		ldrb	r3, [r7, #46]	@ zero_extendqisi2
 7635 285e 664A     		ldr	r2, .L434+40
 7636 2860 1344     		add	r3, r3, r2
 7637 2862 0022     		movs	r2, #0
 7638 2864 83F85920 		strb	r2, [r3, #89]
 7639              	.L381:
1725:.\main.c      ****                                     }
1726:.\main.c      ****                                     y++;
 7640              		.loc 1 1726 0 discriminator 2
 7641 2868 97F82E30 		ldrb	r3, [r7, #46]	@ zero_extendqisi2
 7642 286c 0133     		adds	r3, r3, #1
 7643 286e 87F82E30 		strb	r3, [r7, #46]
1721:.\main.c      ****                                     if(rf_mod[x]=='2'){
 7644              		.loc 1 1721 0 discriminator 2
 7645 2872 97F82F30 		ldrb	r3, [r7, #47]	@ zero_extendqisi2
 7646 2876 0133     		adds	r3, r3, #1
 7647 2878 87F82F30 		strb	r3, [r7, #47]
 7648              	.L380:
1721:.\main.c      ****                                     if(rf_mod[x]=='2'){
 7649              		.loc 1 1721 0 is_stmt 0 discriminator 1
 7650 287c 97F82F30 		ldrb	r3, [r7, #47]	@ zero_extendqisi2
 7651 2880 062B     		cmp	r3, #6
 7652 2882 DFD9     		bls	.L382
 7653              	.L379:
1727:.\main.c      ****                                 }
1728:.\main.c      ****                             }     
1729:.\main.c      ****                             if(producto3==0){
 7654              		.loc 1 1729 0 is_stmt 1
 7655 2884 5F4B     		ldr	r3, .L434+52
 7656 2886 1B78     		ldrb	r3, [r3]	@ zero_extendqisi2
 7657 2888 002B     		cmp	r3, #0
 7658 288a 26D1     		bne	.L383
1730:.\main.c      ****                                 y=0;                                    
 7659              		.loc 1 1730 0
 7660 288c 0023     		movs	r3, #0
 7661 288e 87F82E30 		strb	r3, [r7, #46]
1731:.\main.c      ****                                 for(x=4;x<=6;x++){
 7662              		.loc 1 1731 0
 7663 2892 0423     		movs	r3, #4
 7664 2894 87F82F30 		strb	r3, [r7, #47]
 7665 2898 1BE0     		b	.L384
 7666              	.L386:
1732:.\main.c      ****                                     if(rf_mod[x]=='3'){
 7667              		.loc 1 1732 0
 7668 289a 97F82F30 		ldrb	r3, [r7, #47]	@ zero_extendqisi2
 7669 289e 554A     		ldr	r2, .L434+36
 7670 28a0 D35C     		ldrb	r3, [r2, r3]	@ zero_extendqisi2
 7671 28a2 332B     		cmp	r3, #51
 7672 28a4 0BD1     		bne	.L385
1733:.\main.c      ****                                        rf_mod[x]='0';     
ARM GAS  C:\Users\diego\AppData\Local\Temp\ccW8UKJI.s 			page 169


 7673              		.loc 1 1733 0
 7674 28a6 97F82F30 		ldrb	r3, [r7, #47]	@ zero_extendqisi2
 7675 28aa 524A     		ldr	r2, .L434+36
 7676 28ac 3021     		movs	r1, #48
 7677 28ae D154     		strb	r1, [r2, r3]
1734:.\main.c      ****                                         lado1.grado[y][0]=0;                                       
 7678              		.loc 1 1734 0
 7679 28b0 97F82E30 		ldrb	r3, [r7, #46]	@ zero_extendqisi2
 7680 28b4 504A     		ldr	r2, .L434+40
 7681 28b6 1344     		add	r3, r3, r2
 7682 28b8 0022     		movs	r2, #0
 7683 28ba 83F85920 		strb	r2, [r3, #89]
 7684              	.L385:
1735:.\main.c      ****                                     }
1736:.\main.c      ****                                     y++;
 7685              		.loc 1 1736 0 discriminator 2
 7686 28be 97F82E30 		ldrb	r3, [r7, #46]	@ zero_extendqisi2
 7687 28c2 0133     		adds	r3, r3, #1
 7688 28c4 87F82E30 		strb	r3, [r7, #46]
1731:.\main.c      ****                                     if(rf_mod[x]=='3'){
 7689              		.loc 1 1731 0 discriminator 2
 7690 28c8 97F82F30 		ldrb	r3, [r7, #47]	@ zero_extendqisi2
 7691 28cc 0133     		adds	r3, r3, #1
 7692 28ce 87F82F30 		strb	r3, [r7, #47]
 7693              	.L384:
1731:.\main.c      ****                                     if(rf_mod[x]=='3'){
 7694              		.loc 1 1731 0 is_stmt 0 discriminator 1
 7695 28d2 97F82F30 		ldrb	r3, [r7, #47]	@ zero_extendqisi2
 7696 28d6 062B     		cmp	r3, #6
 7697 28d8 DFD9     		bls	.L386
 7698              	.L383:
1737:.\main.c      ****                                 }
1738:.\main.c      ****                             }
1739:.\main.c      ****                             if(producto4==0){
 7699              		.loc 1 1739 0 is_stmt 1
 7700 28da 4B4B     		ldr	r3, .L434+56
 7701 28dc 1B78     		ldrb	r3, [r3]	@ zero_extendqisi2
 7702 28de 002B     		cmp	r3, #0
 7703 28e0 26D1     		bne	.L387
1740:.\main.c      ****                                 y=0;                                    
 7704              		.loc 1 1740 0
 7705 28e2 0023     		movs	r3, #0
 7706 28e4 87F82E30 		strb	r3, [r7, #46]
1741:.\main.c      ****                                 for(x=4;x<=6;x++){
 7707              		.loc 1 1741 0
 7708 28e8 0423     		movs	r3, #4
 7709 28ea 87F82F30 		strb	r3, [r7, #47]
 7710 28ee 1BE0     		b	.L388
 7711              	.L390:
1742:.\main.c      ****                                     if(rf_mod[x]=='4'){
 7712              		.loc 1 1742 0
 7713 28f0 97F82F30 		ldrb	r3, [r7, #47]	@ zero_extendqisi2
 7714 28f4 3F4A     		ldr	r2, .L434+36
 7715 28f6 D35C     		ldrb	r3, [r2, r3]	@ zero_extendqisi2
 7716 28f8 342B     		cmp	r3, #52
 7717 28fa 0BD1     		bne	.L389
1743:.\main.c      ****                                        rf_mod[x]='0';     
ARM GAS  C:\Users\diego\AppData\Local\Temp\ccW8UKJI.s 			page 170


 7718              		.loc 1 1743 0
 7719 28fc 97F82F30 		ldrb	r3, [r7, #47]	@ zero_extendqisi2
 7720 2900 3C4A     		ldr	r2, .L434+36
 7721 2902 3021     		movs	r1, #48
 7722 2904 D154     		strb	r1, [r2, r3]
1744:.\main.c      ****                                         lado1.grado[y][0]=0;                                       
 7723              		.loc 1 1744 0
 7724 2906 97F82E30 		ldrb	r3, [r7, #46]	@ zero_extendqisi2
 7725 290a 3B4A     		ldr	r2, .L434+40
 7726 290c 1344     		add	r3, r3, r2
 7727 290e 0022     		movs	r2, #0
 7728 2910 83F85920 		strb	r2, [r3, #89]
 7729              	.L389:
1745:.\main.c      ****                                     }
1746:.\main.c      ****                                     y++;
 7730              		.loc 1 1746 0 discriminator 2
 7731 2914 97F82E30 		ldrb	r3, [r7, #46]	@ zero_extendqisi2
 7732 2918 0133     		adds	r3, r3, #1
 7733 291a 87F82E30 		strb	r3, [r7, #46]
1741:.\main.c      ****                                     if(rf_mod[x]=='4'){
 7734              		.loc 1 1741 0 discriminator 2
 7735 291e 97F82F30 		ldrb	r3, [r7, #47]	@ zero_extendqisi2
 7736 2922 0133     		adds	r3, r3, #1
 7737 2924 87F82F30 		strb	r3, [r7, #47]
 7738              	.L388:
1741:.\main.c      ****                                     if(rf_mod[x]=='4'){
 7739              		.loc 1 1741 0 is_stmt 0 discriminator 1
 7740 2928 97F82F30 		ldrb	r3, [r7, #47]	@ zero_extendqisi2
 7741 292c 062B     		cmp	r3, #6
 7742 292e DFD9     		bls	.L390
 7743              	.L387:
1747:.\main.c      ****                                 }
1748:.\main.c      ****                             }                                                                      
1749:.\main.c      ****                             rf_mod[7]='*';
 7744              		.loc 1 1749 0 is_stmt 1
 7745 2930 304B     		ldr	r3, .L434+36
 7746 2932 2A22     		movs	r2, #42
 7747 2934 DA71     		strb	r2, [r3, #7]
1750:.\main.c      **** 							PC_ClearRxBuffer();				
 7748              		.loc 1 1750 0
 7749 2936 FFF7FEFF 		bl	PC_ClearRxBuffer
1751:.\main.c      **** 						    for(x=0;x<=7;x++){
 7750              		.loc 1 1751 0
 7751 293a 0023     		movs	r3, #0
 7752 293c 87F82F30 		strb	r3, [r7, #47]
 7753 2940 0BE0     		b	.L391
 7754              	.L392:
1752:.\main.c      **** 							   PC_PutChar(rf_mod[x]);
 7755              		.loc 1 1752 0 discriminator 3
 7756 2942 97F82F30 		ldrb	r3, [r7, #47]	@ zero_extendqisi2
 7757 2946 2B4A     		ldr	r2, .L434+36
 7758 2948 D35C     		ldrb	r3, [r2, r3]	@ zero_extendqisi2
 7759 294a 1846     		mov	r0, r3
 7760 294c FFF7FEFF 		bl	PC_PutChar
1751:.\main.c      **** 						    for(x=0;x<=7;x++){
 7761              		.loc 1 1751 0 discriminator 3
 7762 2950 97F82F30 		ldrb	r3, [r7, #47]	@ zero_extendqisi2
ARM GAS  C:\Users\diego\AppData\Local\Temp\ccW8UKJI.s 			page 171


 7763 2954 0133     		adds	r3, r3, #1
 7764 2956 87F82F30 		strb	r3, [r7, #47]
 7765              	.L391:
1751:.\main.c      **** 						    for(x=0;x<=7;x++){
 7766              		.loc 1 1751 0 is_stmt 0 discriminator 1
 7767 295a 97F82F30 		ldrb	r3, [r7, #47]	@ zero_extendqisi2
 7768 295e 072B     		cmp	r3, #7
 7769 2960 EFD9     		bls	.L392
1753:.\main.c      **** 						    }                      
1754:.\main.c      ****                             producto1=1;
 7770              		.loc 1 1754 0 is_stmt 1
 7771 2962 264B     		ldr	r3, .L434+44
 7772 2964 0122     		movs	r2, #1
 7773 2966 1A70     		strb	r2, [r3]
1755:.\main.c      ****                             producto2=1;
 7774              		.loc 1 1755 0
 7775 2968 254B     		ldr	r3, .L434+48
 7776 296a 0122     		movs	r2, #1
 7777 296c 1A70     		strb	r2, [r3]
1756:.\main.c      ****                             producto3=1;
 7778              		.loc 1 1756 0
 7779 296e 254B     		ldr	r3, .L434+52
 7780 2970 0122     		movs	r2, #1
 7781 2972 1A70     		strb	r2, [r3]
1757:.\main.c      ****                             producto4=1;                                
 7782              		.loc 1 1757 0
 7783 2974 244B     		ldr	r3, .L434+56
 7784 2976 0122     		movs	r2, #1
 7785 2978 1A70     		strb	r2, [r3]
1758:.\main.c      ****                             EEPROM_WriteByte(lado1.grado[0][0],16);
 7786              		.loc 1 1758 0
 7787 297a 1F4B     		ldr	r3, .L434+40
 7788 297c 93F85930 		ldrb	r3, [r3, #89]
 7789 2980 DBB2     		uxtb	r3, r3
 7790 2982 1846     		mov	r0, r3
 7791 2984 1021     		movs	r1, #16
 7792 2986 FFF7FEFF 		bl	EEPROM_WriteByte
1759:.\main.c      ****                             EEPROM_WriteByte(lado1.grado[1][0],17);
 7793              		.loc 1 1759 0
 7794 298a 1B4B     		ldr	r3, .L434+40
 7795 298c 93F85A30 		ldrb	r3, [r3, #90]
 7796 2990 DBB2     		uxtb	r3, r3
 7797 2992 1846     		mov	r0, r3
 7798 2994 1121     		movs	r1, #17
 7799 2996 FFF7FEFF 		bl	EEPROM_WriteByte
1760:.\main.c      ****                             EEPROM_WriteByte(lado1.grado[2][0],18);
 7800              		.loc 1 1760 0
 7801 299a 174B     		ldr	r3, .L434+40
 7802 299c 93F85B30 		ldrb	r3, [r3, #91]
 7803 29a0 DBB2     		uxtb	r3, r3
 7804 29a2 1846     		mov	r0, r3
 7805 29a4 1221     		movs	r1, #18
 7806 29a6 FFF7FEFF 		bl	EEPROM_WriteByte
1761:.\main.c      **** 						    set_imagen(1,74);	
 7807              		.loc 1 1761 0
 7808 29aa 0120     		movs	r0, #1
 7809 29ac 4A21     		movs	r1, #74
ARM GAS  C:\Users\diego\AppData\Local\Temp\ccW8UKJI.s 			page 172


 7810 29ae FFF7FEFF 		bl	set_imagen
1762:.\main.c      **** 	                        flujo_LCD1 = 0;    
 7811              		.loc 1 1762 0
 7812 29b2 0F4B     		ldr	r3, .L434+32
 7813 29b4 0022     		movs	r2, #0
 7814 29b6 1A70     		strb	r2, [r3]
1763:.\main.c      **** 							lado1.estado=libre;  
 7815              		.loc 1 1763 0
 7816 29b8 0F4B     		ldr	r3, .L434+40
 7817 29ba 0122     		movs	r2, #1
 7818 29bc 5A70     		strb	r2, [r3, #1]
1764:.\main.c      **** 	                    break;                         
 7819              		.loc 1 1764 0
 7820 29be 00BF     		nop
 7821              	.L359:
1765:.\main.c      ****                     }
1766:.\main.c      ****                 }
1767:.\main.c      ****                 CyDelay(100);            
 7822              		.loc 1 1767 0
 7823 29c0 6420     		movs	r0, #100
 7824 29c2 FFF7FEFF 		bl	CyDelay
1768:.\main.c      **** 	            LCD_1_ClearRxBuffer();
 7825              		.loc 1 1768 0
 7826 29c6 FFF7FEFF 		bl	LCD_1_ClearRxBuffer
1769:.\main.c      ****             }         
1770:.\main.c      ****         break;
 7827              		.loc 1 1770 0
 7828 29ca A2E0     		b	.L92
 7829              	.L358:
 7830              		.loc 1 1770 0 is_stmt 0 discriminator 16
 7831 29cc A1E0     		b	.L92
 7832              	.L435:
 7833 29ce 00BF     		.align	2
 7834              	.L434:
 7835 29d0 00000000 		.word	Producto
 7836 29d4 00000000 		.word	id_teclado1
 7837 29d8 00000000 		.word	count_teclas1
 7838 29dc 00000000 		.word	id_coma1
 7839 29e0 00000000 		.word	teclas1
 7840 29e4 00000000 		.word	posx1
 7841 29e8 00000000 		.word	posy1
 7842 29ec 00000000 		.word	sizeletra1
 7843 29f0 00000000 		.word	flujo_LCD1
 7844 29f4 00000000 		.word	rf_mod
 7845 29f8 00000000 		.word	lado1
 7846 29fc 00000000 		.word	producto1
 7847 2a00 00000000 		.word	producto2
 7848 2a04 00000000 		.word	producto3
 7849 2a08 00000000 		.word	producto4
 7850              	.L112:
1771:.\main.c      ****             
1772:.\main.c      ****         case 19:
1773:.\main.c      **** 			rf_mod[0]='M';
 7851              		.loc 1 1773 0 is_stmt 1
 7852 2a0c 424B     		ldr	r3, .L436
 7853 2a0e 4D22     		movs	r2, #77
 7854 2a10 1A70     		strb	r2, [r3]
ARM GAS  C:\Users\diego\AppData\Local\Temp\ccW8UKJI.s 			page 173


1774:.\main.c      **** 			rf_mod[1]='U';
 7855              		.loc 1 1774 0
 7856 2a12 414B     		ldr	r3, .L436
 7857 2a14 5522     		movs	r2, #85
 7858 2a16 5A70     		strb	r2, [r3, #1]
1775:.\main.c      **** 			rf_mod[2]='X';
 7859              		.loc 1 1775 0
 7860 2a18 3F4B     		ldr	r3, .L436
 7861 2a1a 5822     		movs	r2, #88
 7862 2a1c 9A70     		strb	r2, [r3, #2]
1776:.\main.c      **** 			rf_mod[3]='5';            
 7863              		.loc 1 1776 0
 7864 2a1e 3E4B     		ldr	r3, .L436
 7865 2a20 3522     		movs	r2, #53
 7866 2a22 DA70     		strb	r2, [r3, #3]
1777:.\main.c      **** 			    for(x=0;x<=15;x++){						//Serial				
 7867              		.loc 1 1777 0
 7868 2a24 0023     		movs	r3, #0
 7869 2a26 87F82F30 		strb	r3, [r7, #47]
 7870 2a2a 3AE0     		b	.L393
 7871              	.L396:
1778:.\main.c      **** 				    y=(rventa1.id[x/2]>>4)&0x0F;
 7872              		.loc 1 1778 0
 7873 2a2c 97F82F30 		ldrb	r3, [r7, #47]	@ zero_extendqisi2
 7874 2a30 5B08     		lsrs	r3, r3, #1
 7875 2a32 DBB2     		uxtb	r3, r3
 7876 2a34 1A46     		mov	r2, r3
 7877 2a36 394B     		ldr	r3, .L436+4
 7878 2a38 1344     		add	r3, r3, r2
 7879 2a3a 93F82330 		ldrb	r3, [r3, #35]	@ zero_extendqisi2
 7880 2a3e 1B09     		lsrs	r3, r3, #4
 7881 2a40 87F82E30 		strb	r3, [r7, #46]
1779:.\main.c      **** 				    if((x%2)==0){
 7882              		.loc 1 1779 0
 7883 2a44 97F82F30 		ldrb	r3, [r7, #47]
 7884 2a48 03F00103 		and	r3, r3, #1
 7885 2a4c DBB2     		uxtb	r3, r3
 7886 2a4e 002B     		cmp	r3, #0
 7887 2a50 0CD1     		bne	.L394
1780:.\main.c      **** 					    y=rventa1.id[x/2]&0x0F;
 7888              		.loc 1 1780 0
 7889 2a52 97F82F30 		ldrb	r3, [r7, #47]	@ zero_extendqisi2
 7890 2a56 5B08     		lsrs	r3, r3, #1
 7891 2a58 DBB2     		uxtb	r3, r3
 7892 2a5a 1A46     		mov	r2, r3
 7893 2a5c 2F4B     		ldr	r3, .L436+4
 7894 2a5e 1344     		add	r3, r3, r2
 7895 2a60 93F82330 		ldrb	r3, [r3, #35]	@ zero_extendqisi2
 7896 2a64 03F00F03 		and	r3, r3, #15
 7897 2a68 87F82E30 		strb	r3, [r7, #46]
 7898              	.L394:
1781:.\main.c      **** 				    }
1782:.\main.c      **** 				    rf_mod[x+4] = y+48;
 7899              		.loc 1 1782 0
 7900 2a6c 97F82F30 		ldrb	r3, [r7, #47]	@ zero_extendqisi2
 7901 2a70 0433     		adds	r3, r3, #4
 7902 2a72 97F82E20 		ldrb	r2, [r7, #46]
ARM GAS  C:\Users\diego\AppData\Local\Temp\ccW8UKJI.s 			page 174


 7903 2a76 3032     		adds	r2, r2, #48
 7904 2a78 D1B2     		uxtb	r1, r2
 7905 2a7a 274A     		ldr	r2, .L436
 7906 2a7c D154     		strb	r1, [r2, r3]
1783:.\main.c      **** 				    if(y>9){
 7907              		.loc 1 1783 0
 7908 2a7e 97F82E30 		ldrb	r3, [r7, #46]	@ zero_extendqisi2
 7909 2a82 092B     		cmp	r3, #9
 7910 2a84 08D9     		bls	.L395
1784:.\main.c      **** 					    rf_mod[x+4] = y+55;
 7911              		.loc 1 1784 0
 7912 2a86 97F82F30 		ldrb	r3, [r7, #47]	@ zero_extendqisi2
 7913 2a8a 0433     		adds	r3, r3, #4
 7914 2a8c 97F82E20 		ldrb	r2, [r7, #46]
 7915 2a90 3732     		adds	r2, r2, #55
 7916 2a92 D1B2     		uxtb	r1, r2
 7917 2a94 204A     		ldr	r2, .L436
 7918 2a96 D154     		strb	r1, [r2, r3]
 7919              	.L395:
1777:.\main.c      **** 				    y=(rventa1.id[x/2]>>4)&0x0F;
 7920              		.loc 1 1777 0 discriminator 2
 7921 2a98 97F82F30 		ldrb	r3, [r7, #47]	@ zero_extendqisi2
 7922 2a9c 0133     		adds	r3, r3, #1
 7923 2a9e 87F82F30 		strb	r3, [r7, #47]
 7924              	.L393:
1777:.\main.c      **** 				    y=(rventa1.id[x/2]>>4)&0x0F;
 7925              		.loc 1 1777 0 is_stmt 0 discriminator 1
 7926 2aa2 97F82F30 		ldrb	r3, [r7, #47]	@ zero_extendqisi2
 7927 2aa6 0F2B     		cmp	r3, #15
 7928 2aa8 C0D9     		bls	.L396
1785:.\main.c      **** 				    }
1786:.\main.c      **** 			}            
1787:.\main.c      **** 			rf_mod[20]='*';					
 7929              		.loc 1 1787 0 is_stmt 1
 7930 2aaa 1B4B     		ldr	r3, .L436
 7931 2aac 2A22     		movs	r2, #42
 7932 2aae 1A75     		strb	r2, [r3, #20]
1788:.\main.c      **** 			PC_ClearRxBuffer();
 7933              		.loc 1 1788 0
 7934 2ab0 FFF7FEFF 		bl	PC_ClearRxBuffer
1789:.\main.c      ****             for(x=0;x<=20;x++){
 7935              		.loc 1 1789 0
 7936 2ab4 0023     		movs	r3, #0
 7937 2ab6 87F82F30 		strb	r3, [r7, #47]
 7938 2aba 0BE0     		b	.L397
 7939              	.L398:
1790:.\main.c      **** 			    PC_PutChar(rf_mod[x]);
 7940              		.loc 1 1790 0 discriminator 3
 7941 2abc 97F82F30 		ldrb	r3, [r7, #47]	@ zero_extendqisi2
 7942 2ac0 154A     		ldr	r2, .L436
 7943 2ac2 D35C     		ldrb	r3, [r2, r3]	@ zero_extendqisi2
 7944 2ac4 1846     		mov	r0, r3
 7945 2ac6 FFF7FEFF 		bl	PC_PutChar
1789:.\main.c      ****             for(x=0;x<=20;x++){
 7946              		.loc 1 1789 0 discriminator 3
 7947 2aca 97F82F30 		ldrb	r3, [r7, #47]	@ zero_extendqisi2
 7948 2ace 0133     		adds	r3, r3, #1
ARM GAS  C:\Users\diego\AppData\Local\Temp\ccW8UKJI.s 			page 175


 7949 2ad0 87F82F30 		strb	r3, [r7, #47]
 7950              	.L397:
1789:.\main.c      ****             for(x=0;x<=20;x++){
 7951              		.loc 1 1789 0 is_stmt 0 discriminator 1
 7952 2ad4 97F82F30 		ldrb	r3, [r7, #47]	@ zero_extendqisi2
 7953 2ad8 142B     		cmp	r3, #20
 7954 2ada EFD9     		bls	.L398
1791:.\main.c      **** 			}
1792:.\main.c      ****             set_imagen(1,0);	
 7955              		.loc 1 1792 0 is_stmt 1
 7956 2adc 0120     		movs	r0, #1
 7957 2ade 0021     		movs	r1, #0
 7958 2ae0 FFF7FEFF 		bl	set_imagen
1793:.\main.c      **** 	        flujo_LCD1 = 0;    
 7959              		.loc 1 1793 0
 7960 2ae4 0E4B     		ldr	r3, .L436+8
 7961 2ae6 0022     		movs	r2, #0
 7962 2ae8 1A70     		strb	r2, [r3]
1794:.\main.c      **** 			lado1.estado=libre;            
 7963              		.loc 1 1794 0
 7964 2aea 0E4B     		ldr	r3, .L436+12
 7965 2aec 0122     		movs	r2, #1
 7966 2aee 5A70     		strb	r2, [r3, #1]
1795:.\main.c      ****             
1796:.\main.c      **** 		break;    
 7967              		.loc 1 1796 0
 7968 2af0 0FE0     		b	.L92
 7969              	.L113:
1797:.\main.c      ****         
1798:.\main.c      ****             
1799:.\main.c      ****         case 102:
1800:.\main.c      ****             
1801:.\main.c      ****             
1802:.\main.c      ****         break;
1803:.\main.c      ****             
1804:.\main.c      ****         case 100:  
1805:.\main.c      ****          if(count_protector>=4){
 7970              		.loc 1 1805 0
 7971 2af2 0D4B     		ldr	r3, .L436+16
 7972 2af4 1B78     		ldrb	r3, [r3]
 7973 2af6 DBB2     		uxtb	r3, r3
 7974 2af8 032B     		cmp	r3, #3
 7975 2afa 09D9     		bls	.L399
1806:.\main.c      ****             flujo_LCD1=0;
 7976              		.loc 1 1806 0
 7977 2afc 084B     		ldr	r3, .L436+8
 7978 2afe 0022     		movs	r2, #0
 7979 2b00 1A70     		strb	r2, [r3]
1807:.\main.c      ****             isr_3_Stop(); 
 7980              		.loc 1 1807 0
 7981 2b02 FFF7FEFF 		bl	isr_3_Stop
1808:.\main.c      ****             Timer_Animacion_Stop(); 
 7982              		.loc 1 1808 0
 7983 2b06 FFF7FEFF 		bl	Timer_Animacion_Stop
1809:.\main.c      ****             count_protector=0;
 7984              		.loc 1 1809 0
 7985 2b0a 074B     		ldr	r3, .L436+16
ARM GAS  C:\Users\diego\AppData\Local\Temp\ccW8UKJI.s 			page 176


 7986 2b0c 0022     		movs	r2, #0
 7987 2b0e 1A70     		strb	r2, [r3]
 7988              	.L399:
1810:.\main.c      ****          }            
1811:.\main.c      ****         break;
 7989              		.loc 1 1811 0 discriminator 18
 7990 2b10 00BF     		nop
 7991              	.L92:
1812:.\main.c      ****             
1813:.\main.c      ****             
1814:.\main.c      ****             
1815:.\main.c      ****     }
1816:.\main.c      ****     }
 7992              		.loc 1 1816 0
 7993 2b12 3037     		adds	r7, r7, #48
 7994              		.cfi_def_cfa_offset 16
 7995 2b14 BD46     		mov	sp, r7
 7996              		.cfi_def_cfa_register 13
 7997              		@ sp needed
 7998 2b16 B0BD     		pop	{r4, r5, r7, pc}
 7999              	.L437:
 8000              		.align	2
 8001              	.L436:
 8002 2b18 00000000 		.word	rf_mod
 8003 2b1c 00000000 		.word	rventa1
 8004 2b20 00000000 		.word	flujo_LCD1
 8005 2b24 00000000 		.word	lado1
 8006 2b28 00000000 		.word	count_protector
 8007              		.cfi_endproc
 8008              	.LFE69:
 8009              		.size	polling_LCD1, .-polling_LCD1
 8010              		.section	.text.polling_LCD2,"ax",%progbits
 8011              		.align	2
 8012              		.global	polling_LCD2
 8013              		.thumb
 8014              		.thumb_func
 8015              		.type	polling_LCD2, %function
 8016              	polling_LCD2:
 8017              	.LFB70:
1817:.\main.c      **** 
1818:.\main.c      **** 
1819:.\main.c      **** 
1820:.\main.c      **** /*
1821:.\main.c      **** ***************************************************************************************************
1822:.\main.c      **** *                                         void polling_LCD2(void)
1823:.\main.c      **** *
1824:.\main.c      **** * Description : 
1825:.\main.c      **** *               
1826:.\main.c      **** *
1827:.\main.c      **** * Argument(s) : none
1828:.\main.c      **** *
1829:.\main.c      **** * Return(s)   : none
1830:.\main.c      **** *
1831:.\main.c      **** * Caller(s)   : 
1832:.\main.c      **** *
1833:.\main.c      **** * Note(s)     : none.
1834:.\main.c      **** ***************************************************************************************************
ARM GAS  C:\Users\diego\AppData\Local\Temp\ccW8UKJI.s 			page 177


1835:.\main.c      **** */
1836:.\main.c      **** 
1837:.\main.c      **** void polling_LCD2(void){ 
 8018              		.loc 1 1837 0
 8019              		.cfi_startproc
 8020              		@ args = 0, pretend = 0, frame = 0
 8021              		@ frame_needed = 1, uses_anonymous_args = 0
 8022              		@ link register save eliminated.
 8023 0000 80B4     		push	{r7}
 8024              		.cfi_def_cfa_offset 4
 8025              		.cfi_offset 7, -4
 8026 0002 00AF     		add	r7, sp, #0
 8027              		.cfi_def_cfa_register 7
1838:.\main.c      ****     
1839:.\main.c      ****     
1840:.\main.c      **** }
 8028              		.loc 1 1840 0
 8029 0004 BD46     		mov	sp, r7
 8030              		.cfi_def_cfa_register 13
 8031              		@ sp needed
 8032 0006 5DF8047B 		ldr	r7, [sp], #4
 8033              		.cfi_restore 7
 8034              		.cfi_def_cfa_offset 0
 8035 000a 7047     		bx	lr
 8036              		.cfi_endproc
 8037              	.LFE70:
 8038              		.size	polling_LCD2, .-polling_LCD2
 8039              		.section	.text.polling_wd,"ax",%progbits
 8040              		.align	2
 8041              		.global	polling_wd
 8042              		.thumb
 8043              		.thumb_func
 8044              		.type	polling_wd, %function
 8045              	polling_wd:
 8046              	.LFB71:
1841:.\main.c      **** 
1842:.\main.c      **** /*
1843:.\main.c      **** ***************************************************************************************************
1844:.\main.c      **** *                                        void polling_wd(void)
1845:.\main.c      **** *
1846:.\main.c      **** * Description : 
1847:.\main.c      **** *               
1848:.\main.c      **** *
1849:.\main.c      **** * Argument(s) : none
1850:.\main.c      **** *
1851:.\main.c      **** * Return(s)   : none
1852:.\main.c      **** *
1853:.\main.c      **** * Caller(s)   : 
1854:.\main.c      **** *
1855:.\main.c      **** * Note(s)     : none.
1856:.\main.c      **** ***************************************************************************************************
1857:.\main.c      **** */
1858:.\main.c      **** void polling_wd(void){
 8047              		.loc 1 1858 0
 8048              		.cfi_startproc
 8049              		@ args = 0, pretend = 0, frame = 0
 8050              		@ frame_needed = 1, uses_anonymous_args = 0
ARM GAS  C:\Users\diego\AppData\Local\Temp\ccW8UKJI.s 			page 178


 8051              		@ link register save eliminated.
 8052 0000 80B4     		push	{r7}
 8053              		.cfi_def_cfa_offset 4
 8054              		.cfi_offset 7, -4
 8055 0002 00AF     		add	r7, sp, #0
 8056              		.cfi_def_cfa_register 7
1859:.\main.c      **** 
1860:.\main.c      **** }
 8057              		.loc 1 1860 0
 8058 0004 BD46     		mov	sp, r7
 8059              		.cfi_def_cfa_register 13
 8060              		@ sp needed
 8061 0006 5DF8047B 		ldr	r7, [sp], #4
 8062              		.cfi_restore 7
 8063              		.cfi_def_cfa_offset 0
 8064 000a 7047     		bx	lr
 8065              		.cfi_endproc
 8066              	.LFE71:
 8067              		.size	polling_wd, .-polling_wd
 8068              		.section	.text.animacion,"ax",%progbits
 8069              		.align	2
 8070              		.global	animacion
 8071              		.thumb
 8072              		.thumb_func
 8073              		.type	animacion, %function
 8074              	animacion:
 8075              	.LFB72:
1861:.\main.c      **** 
1862:.\main.c      **** /*
1863:.\main.c      **** ***************************************************************************************************
1864:.\main.c      **** *                                         CY_ISR(animacion)
1865:.\main.c      **** *
1866:.\main.c      **** * Description : 
1867:.\main.c      **** *               
1868:.\main.c      **** *
1869:.\main.c      **** * Argument(s) : none
1870:.\main.c      **** *
1871:.\main.c      **** * Return(s)   : none
1872:.\main.c      **** *
1873:.\main.c      **** * Caller(s)   : 
1874:.\main.c      **** *
1875:.\main.c      **** * Note(s)     : none.
1876:.\main.c      **** ***************************************************************************************************
1877:.\main.c      **** */
1878:.\main.c      **** CY_ISR(animacion){
 8076              		.loc 1 1878 0
 8077              		.cfi_startproc
 8078              		@ args = 0, pretend = 0, frame = 0
 8079              		@ frame_needed = 1, uses_anonymous_args = 0
 8080 0000 80B5     		push	{r7, lr}
 8081              		.cfi_def_cfa_offset 8
 8082              		.cfi_offset 7, -8
 8083              		.cfi_offset 14, -4
 8084 0002 00AF     		add	r7, sp, #0
 8085              		.cfi_def_cfa_register 7
1879:.\main.c      ****     Timer_Animacion_ReadStatusRegister();
 8086              		.loc 1 1879 0
ARM GAS  C:\Users\diego\AppData\Local\Temp\ccW8UKJI.s 			page 179


 8087 0004 FFF7FEFF 		bl	Timer_Animacion_ReadStatusRegister
1880:.\main.c      ****     if(flujo_LCD1==1){
 8088              		.loc 1 1880 0
 8089 0008 184B     		ldr	r3, .L445
 8090 000a 1B78     		ldrb	r3, [r3]
 8091 000c DBB2     		uxtb	r3, r3
 8092 000e 012B     		cmp	r3, #1
 8093 0010 24D1     		bne	.L441
1881:.\main.c      ****         if(count_protector<=6){
 8094              		.loc 1 1881 0
 8095 0012 174B     		ldr	r3, .L445+4
 8096 0014 1B78     		ldrb	r3, [r3]
 8097 0016 DBB2     		uxtb	r3, r3
 8098 0018 062B     		cmp	r3, #6
 8099 001a 11D8     		bhi	.L442
1882:.\main.c      ****             count_protector++;
 8100              		.loc 1 1882 0
 8101 001c 144B     		ldr	r3, .L445+4
 8102 001e 1B78     		ldrb	r3, [r3]
 8103 0020 DBB2     		uxtb	r3, r3
 8104 0022 0133     		adds	r3, r3, #1
 8105 0024 DAB2     		uxtb	r2, r3
 8106 0026 124B     		ldr	r3, .L445+4
 8107 0028 1A70     		strb	r2, [r3]
1883:.\main.c      ****             set_imagen(1,(iprotector5+count_protector));  
 8108              		.loc 1 1883 0
 8109 002a 114B     		ldr	r3, .L445+4
 8110 002c 1B78     		ldrb	r3, [r3]
 8111 002e DBB2     		uxtb	r3, r3
 8112 0030 9BB2     		uxth	r3, r3
 8113 0032 1433     		adds	r3, r3, #20
 8114 0034 9BB2     		uxth	r3, r3
 8115 0036 0120     		movs	r0, #1
 8116 0038 1946     		mov	r1, r3
 8117 003a FFF7FEFF 		bl	set_imagen
 8118 003e 14E0     		b	.L440
 8119              	.L442:
1884:.\main.c      ****         }
1885:.\main.c      ****         else{
1886:.\main.c      ****            count_protector=0; 
 8120              		.loc 1 1886 0
 8121 0040 0B4B     		ldr	r3, .L445+4
 8122 0042 0022     		movs	r2, #0
 8123 0044 1A70     		strb	r2, [r3]
1887:.\main.c      ****            set_imagen(1,(iprotector5+count_protector));  
 8124              		.loc 1 1887 0
 8125 0046 0A4B     		ldr	r3, .L445+4
 8126 0048 1B78     		ldrb	r3, [r3]
 8127 004a DBB2     		uxtb	r3, r3
 8128 004c 9BB2     		uxth	r3, r3
 8129 004e 1433     		adds	r3, r3, #20
 8130 0050 9BB2     		uxth	r3, r3
 8131 0052 0120     		movs	r0, #1
 8132 0054 1946     		mov	r1, r3
 8133 0056 FFF7FEFF 		bl	set_imagen
 8134 005a 06E0     		b	.L440
 8135              	.L441:
ARM GAS  C:\Users\diego\AppData\Local\Temp\ccW8UKJI.s 			page 180


1888:.\main.c      ****         }
1889:.\main.c      ****     }
1890:.\main.c      ****     else{
1891:.\main.c      ****         count_protector++;
 8136              		.loc 1 1891 0
 8137 005c 044B     		ldr	r3, .L445+4
 8138 005e 1B78     		ldrb	r3, [r3]
 8139 0060 DBB2     		uxtb	r3, r3
 8140 0062 0133     		adds	r3, r3, #1
 8141 0064 DAB2     		uxtb	r2, r3
 8142 0066 024B     		ldr	r3, .L445+4
 8143 0068 1A70     		strb	r2, [r3]
 8144              	.L440:
1892:.\main.c      ****     }
1893:.\main.c      **** }
 8145              		.loc 1 1893 0
 8146 006a 80BD     		pop	{r7, pc}
 8147              	.L446:
 8148              		.align	2
 8149              	.L445:
 8150 006c 00000000 		.word	flujo_LCD1
 8151 0070 00000000 		.word	count_protector
 8152              		.cfi_endproc
 8153              	.LFE72:
 8154              		.size	animacion, .-animacion
 8155              		.section	.text.animacion2,"ax",%progbits
 8156              		.align	2
 8157              		.global	animacion2
 8158              		.thumb
 8159              		.thumb_func
 8160              		.type	animacion2, %function
 8161              	animacion2:
 8162              	.LFB73:
1894:.\main.c      **** 
1895:.\main.c      **** /*
1896:.\main.c      **** ***************************************************************************************************
1897:.\main.c      **** *                                         CY_ISR(animacion)
1898:.\main.c      **** *
1899:.\main.c      **** * Description : 
1900:.\main.c      **** *               
1901:.\main.c      **** *
1902:.\main.c      **** * Argument(s) : none
1903:.\main.c      **** *
1904:.\main.c      **** * Return(s)   : none
1905:.\main.c      **** *
1906:.\main.c      **** * Caller(s)   : 
1907:.\main.c      **** *
1908:.\main.c      **** * Note(s)     : none.
1909:.\main.c      **** ***************************************************************************************************
1910:.\main.c      **** */
1911:.\main.c      **** CY_ISR(animacion2){
 8163              		.loc 1 1911 0
 8164              		.cfi_startproc
 8165              		@ args = 0, pretend = 0, frame = 0
 8166              		@ frame_needed = 1, uses_anonymous_args = 0
 8167 0000 80B5     		push	{r7, lr}
 8168              		.cfi_def_cfa_offset 8
ARM GAS  C:\Users\diego\AppData\Local\Temp\ccW8UKJI.s 			page 181


 8169              		.cfi_offset 7, -8
 8170              		.cfi_offset 14, -4
 8171 0002 00AF     		add	r7, sp, #0
 8172              		.cfi_def_cfa_register 7
1912:.\main.c      ****     Timer_Animacion2_ReadStatusRegister();
 8173              		.loc 1 1912 0
 8174 0004 FFF7FEFF 		bl	Timer_Animacion2_ReadStatusRegister
1913:.\main.c      ****     if(flujo_LCD2==1){
 8175              		.loc 1 1913 0
 8176 0008 184B     		ldr	r3, .L452
 8177 000a 1B78     		ldrb	r3, [r3]
 8178 000c DBB2     		uxtb	r3, r3
 8179 000e 012B     		cmp	r3, #1
 8180 0010 24D1     		bne	.L448
1914:.\main.c      ****         if(count_protector2<=6){
 8181              		.loc 1 1914 0
 8182 0012 174B     		ldr	r3, .L452+4
 8183 0014 1B78     		ldrb	r3, [r3]
 8184 0016 DBB2     		uxtb	r3, r3
 8185 0018 062B     		cmp	r3, #6
 8186 001a 11D8     		bhi	.L449
1915:.\main.c      ****             count_protector2++;
 8187              		.loc 1 1915 0
 8188 001c 144B     		ldr	r3, .L452+4
 8189 001e 1B78     		ldrb	r3, [r3]
 8190 0020 DBB2     		uxtb	r3, r3
 8191 0022 0133     		adds	r3, r3, #1
 8192 0024 DAB2     		uxtb	r2, r3
 8193 0026 124B     		ldr	r3, .L452+4
 8194 0028 1A70     		strb	r2, [r3]
1916:.\main.c      ****             set_imagen(2,(iprotector5+count_protector2));  
 8195              		.loc 1 1916 0
 8196 002a 114B     		ldr	r3, .L452+4
 8197 002c 1B78     		ldrb	r3, [r3]
 8198 002e DBB2     		uxtb	r3, r3
 8199 0030 9BB2     		uxth	r3, r3
 8200 0032 1433     		adds	r3, r3, #20
 8201 0034 9BB2     		uxth	r3, r3
 8202 0036 0220     		movs	r0, #2
 8203 0038 1946     		mov	r1, r3
 8204 003a FFF7FEFF 		bl	set_imagen
 8205 003e 14E0     		b	.L447
 8206              	.L449:
1917:.\main.c      ****         }
1918:.\main.c      ****         else{
1919:.\main.c      ****            count_protector2=0; 
 8207              		.loc 1 1919 0
 8208 0040 0B4B     		ldr	r3, .L452+4
 8209 0042 0022     		movs	r2, #0
 8210 0044 1A70     		strb	r2, [r3]
1920:.\main.c      ****            set_imagen(2,(iprotector5+count_protector2));  
 8211              		.loc 1 1920 0
 8212 0046 0A4B     		ldr	r3, .L452+4
 8213 0048 1B78     		ldrb	r3, [r3]
 8214 004a DBB2     		uxtb	r3, r3
 8215 004c 9BB2     		uxth	r3, r3
 8216 004e 1433     		adds	r3, r3, #20
ARM GAS  C:\Users\diego\AppData\Local\Temp\ccW8UKJI.s 			page 182


 8217 0050 9BB2     		uxth	r3, r3
 8218 0052 0220     		movs	r0, #2
 8219 0054 1946     		mov	r1, r3
 8220 0056 FFF7FEFF 		bl	set_imagen
 8221 005a 06E0     		b	.L447
 8222              	.L448:
1921:.\main.c      ****         }
1922:.\main.c      ****     }
1923:.\main.c      ****     else{
1924:.\main.c      ****         count_protector2++;
 8223              		.loc 1 1924 0
 8224 005c 044B     		ldr	r3, .L452+4
 8225 005e 1B78     		ldrb	r3, [r3]
 8226 0060 DBB2     		uxtb	r3, r3
 8227 0062 0133     		adds	r3, r3, #1
 8228 0064 DAB2     		uxtb	r2, r3
 8229 0066 024B     		ldr	r3, .L452+4
 8230 0068 1A70     		strb	r2, [r3]
 8231              	.L447:
1925:.\main.c      ****     }
1926:.\main.c      **** }
 8232              		.loc 1 1926 0
 8233 006a 80BD     		pop	{r7, pc}
 8234              	.L453:
 8235              		.align	2
 8236              	.L452:
 8237 006c 00000000 		.word	flujo_LCD2
 8238 0070 00000000 		.word	count_protector2
 8239              		.cfi_endproc
 8240              	.LFE73:
 8241              		.size	animacion2, .-animacion2
 8242              		.section	.text.modo_mux,"ax",%progbits
 8243              		.align	2
 8244              		.global	modo_mux
 8245              		.thumb
 8246              		.thumb_func
 8247              		.type	modo_mux, %function
 8248              	modo_mux:
 8249              	.LFB74:
1927:.\main.c      **** 
1928:.\main.c      **** /*
1929:.\main.c      **** ***************************************************************************************************
1930:.\main.c      **** *                                        CY_ISR(modo_mux)
1931:.\main.c      **** *
1932:.\main.c      **** * Description : 
1933:.\main.c      **** *               
1934:.\main.c      **** *
1935:.\main.c      **** * Argument(s) : none
1936:.\main.c      **** *
1937:.\main.c      **** * Return(s)   : none
1938:.\main.c      **** *
1939:.\main.c      **** * Caller(s)   : 
1940:.\main.c      **** *
1941:.\main.c      **** * Note(s)     : none.
1942:.\main.c      **** ***************************************************************************************************
1943:.\main.c      **** */
1944:.\main.c      **** CY_ISR(modo_mux){
ARM GAS  C:\Users\diego\AppData\Local\Temp\ccW8UKJI.s 			page 183


 8250              		.loc 1 1944 0
 8251              		.cfi_startproc
 8252              		@ args = 0, pretend = 0, frame = 0
 8253              		@ frame_needed = 1, uses_anonymous_args = 0
 8254 0000 80B5     		push	{r7, lr}
 8255              		.cfi_def_cfa_offset 8
 8256              		.cfi_offset 7, -8
 8257              		.cfi_offset 14, -4
 8258 0002 00AF     		add	r7, sp, #0
 8259              		.cfi_def_cfa_register 7
1945:.\main.c      **** 	Timer_Modo_ReadStatusRegister();
 8260              		.loc 1 1945 0
 8261 0004 FFF7FEFF 		bl	Timer_Modo_ReadStatusRegister
1946:.\main.c      **** 	state_rf++;
 8262              		.loc 1 1946 0
 8263 0008 0F4B     		ldr	r3, .L457
 8264 000a 1B78     		ldrb	r3, [r3]	@ zero_extendqisi2
 8265 000c 0133     		adds	r3, r3, #1
 8266 000e DAB2     		uxtb	r2, r3
 8267 0010 0D4B     		ldr	r3, .L457
 8268 0012 1A70     		strb	r2, [r3]
1947:.\main.c      **** 	if(state_rf==15){
 8269              		.loc 1 1947 0
 8270 0014 0C4B     		ldr	r3, .L457
 8271 0016 1B78     		ldrb	r3, [r3]	@ zero_extendqisi2
 8272 0018 0F2B     		cmp	r3, #15
 8273 001a 14D1     		bne	.L454
1948:.\main.c      **** 		if((rventa1.autorizado!=100)&&(rventa2.autorizado!=100)){
 8274              		.loc 1 1948 0
 8275 001c 0B4B     		ldr	r3, .L457+4
 8276 001e 93F87030 		ldrb	r3, [r3, #112]	@ zero_extendqisi2
 8277 0022 642B     		cmp	r3, #100
 8278 0024 0CD0     		beq	.L456
 8279              		.loc 1 1948 0 is_stmt 0 discriminator 1
 8280 0026 0A4B     		ldr	r3, .L457+8
 8281 0028 93F87030 		ldrb	r3, [r3, #112]	@ zero_extendqisi2
 8282 002c 642B     		cmp	r3, #100
 8283 002e 07D0     		beq	.L456
1949:.\main.c      **** 			rventa1.autorizado=0;
 8284              		.loc 1 1949 0 is_stmt 1
 8285 0030 064B     		ldr	r3, .L457+4
 8286 0032 0022     		movs	r2, #0
 8287 0034 83F87020 		strb	r2, [r3, #112]
1950:.\main.c      **** 			rventa2.autorizado=0;
 8288              		.loc 1 1950 0
 8289 0038 054B     		ldr	r3, .L457+8
 8290 003a 0022     		movs	r2, #0
 8291 003c 83F87020 		strb	r2, [r3, #112]
 8292              	.L456:
1951:.\main.c      **** 		}	
1952:.\main.c      **** 		state_rf=0;
 8293              		.loc 1 1952 0
 8294 0040 014B     		ldr	r3, .L457
 8295 0042 0022     		movs	r2, #0
 8296 0044 1A70     		strb	r2, [r3]
 8297              	.L454:
1953:.\main.c      **** 	}
ARM GAS  C:\Users\diego\AppData\Local\Temp\ccW8UKJI.s 			page 184


1954:.\main.c      **** }
 8298              		.loc 1 1954 0
 8299 0046 80BD     		pop	{r7, pc}
 8300              	.L458:
 8301              		.align	2
 8302              	.L457:
 8303 0048 00000000 		.word	state_rf
 8304 004c 00000000 		.word	rventa1
 8305 0050 00000000 		.word	rventa2
 8306              		.cfi_endproc
 8307              	.LFE74:
 8308              		.size	modo_mux, .-modo_mux
 8309              		.section	.text.insert_ppuInit,"ax",%progbits
 8310              		.align	2
 8311              		.global	insert_ppuInit
 8312              		.thumb
 8313              		.thumb_func
 8314              		.type	insert_ppuInit, %function
 8315              	insert_ppuInit:
 8316              	.LFB75:
1955:.\main.c      **** 
1956:.\main.c      **** /*
1957:.\main.c      **** ***************************************************************************************************
1958:.\main.c      **** *                                        insert_ppuInit(modo_init)
1959:.\main.c      **** *
1960:.\main.c      **** * Description : 
1961:.\main.c      **** *               
1962:.\main.c      **** *
1963:.\main.c      **** * Argument(s) : none
1964:.\main.c      **** *
1965:.\main.c      **** * Return(s)   : none
1966:.\main.c      **** *
1967:.\main.c      **** * Caller(s)   : 
1968:.\main.c      **** *
1969:.\main.c      **** * Note(s)     : none.
1970:.\main.c      **** ***************************************************************************************************
1971:.\main.c      **** */
1972:.\main.c      **** void insert_ppuInit(void){
 8317              		.loc 1 1972 0
 8318              		.cfi_startproc
 8319              		@ args = 0, pretend = 0, frame = 8
 8320              		@ frame_needed = 1, uses_anonymous_args = 0
 8321 0000 80B5     		push	{r7, lr}
 8322              		.cfi_def_cfa_offset 8
 8323              		.cfi_offset 7, -8
 8324              		.cfi_offset 14, -4
 8325 0002 82B0     		sub	sp, sp, #8
 8326              		.cfi_def_cfa_offset 16
 8327 0004 00AF     		add	r7, sp, #0
 8328              		.cfi_def_cfa_register 7
1973:.\main.c      ****     
1974:.\main.c      ****     //uint8 precio_mod[5];    
1975:.\main.c      ****     int x;    
1976:.\main.c      ****     
1977:.\main.c      ****   uint8 precio_mod[5];    
1978:.\main.c      **** 	precio_mod[0]=0;	
 8329              		.loc 1 1978 0
ARM GAS  C:\Users\diego\AppData\Local\Temp\ccW8UKJI.s 			page 185


 8330 0006 0023     		movs	r3, #0
 8331 0008 3B70     		strb	r3, [r7]
1979:.\main.c      **** 	precio_mod[1]=0;
 8332              		.loc 1 1979 0
 8333 000a 0023     		movs	r3, #0
 8334 000c 7B70     		strb	r3, [r7, #1]
1980:.\main.c      **** 	precio_mod[2]=0;
 8335              		.loc 1 1980 0
 8336 000e 0023     		movs	r3, #0
 8337 0010 BB70     		strb	r3, [r7, #2]
1981:.\main.c      **** 	precio_mod[3]=2;
 8338              		.loc 1 1981 0
 8339 0012 0223     		movs	r3, #2
 8340 0014 FB70     		strb	r3, [r7, #3]
1982:.\main.c      ****     precio_mod[4]=0;
 8341              		.loc 1 1982 0
 8342 0016 0023     		movs	r3, #0
 8343 0018 3B71     		strb	r3, [r7, #4]
1983:.\main.c      ****     cambiar_precio(lado1.dir,precio_mod,1);                   
 8344              		.loc 1 1983 0
 8345 001a 064B     		ldr	r3, .L460
 8346 001c 1B78     		ldrb	r3, [r3]
 8347 001e DAB2     		uxtb	r2, r3
 8348 0020 3B46     		mov	r3, r7
 8349 0022 1046     		mov	r0, r2
 8350 0024 1946     		mov	r1, r3
 8351 0026 0122     		movs	r2, #1
 8352 0028 FFF7FEFF 		bl	cambiar_precio
1984:.\main.c      **** }
 8353              		.loc 1 1984 0
 8354 002c 0837     		adds	r7, r7, #8
 8355              		.cfi_def_cfa_offset 8
 8356 002e BD46     		mov	sp, r7
 8357              		.cfi_def_cfa_register 13
 8358              		@ sp needed
 8359 0030 80BD     		pop	{r7, pc}
 8360              	.L461:
 8361 0032 00BF     		.align	2
 8362              	.L460:
 8363 0034 00000000 		.word	lado1
 8364              		.cfi_endproc
 8365              	.LFE75:
 8366              		.size	insert_ppuInit, .-insert_ppuInit
 8367              		.section	.text.main,"ax",%progbits
 8368              		.align	2
 8369              		.global	main
 8370              		.thumb
 8371              		.thumb_func
 8372              		.type	main, %function
 8373              	main:
 8374              	.LFB76:
1985:.\main.c      **** 
1986:.\main.c      **** /*
1987:.\main.c      **** ***************************************************************************************************
1988:.\main.c      **** *                                         main( void )
1989:.\main.c      **** *
1990:.\main.c      **** * Description : 
ARM GAS  C:\Users\diego\AppData\Local\Temp\ccW8UKJI.s 			page 186


1991:.\main.c      **** *               
1992:.\main.c      **** *
1993:.\main.c      **** * Argument(s) : none
1994:.\main.c      **** *
1995:.\main.c      **** * Return(s)   : none
1996:.\main.c      **** *
1997:.\main.c      **** * Caller(s)   : 
1998:.\main.c      **** *
1999:.\main.c      **** * Note(s)     : none.
2000:.\main.c      **** ***************************************************************************************************
2001:.\main.c      **** */
2002:.\main.c      **** int main(){ 
 8375              		.loc 1 2002 0
 8376              		.cfi_startproc
 8377              		@ args = 0, pretend = 0, frame = 0
 8378              		@ frame_needed = 1, uses_anonymous_args = 0
 8379 0000 80B5     		push	{r7, lr}
 8380              		.cfi_def_cfa_offset 8
 8381              		.cfi_offset 7, -8
 8382              		.cfi_offset 14, -4
 8383 0002 00AF     		add	r7, sp, #0
 8384              		.cfi_def_cfa_register 7
2003:.\main.c      ****     
2004:.\main.c      ****     init();
 8385              		.loc 1 2004 0
 8386 0004 FFF7FEFF 		bl	init
2005:.\main.c      ****     init_surt();    
 8387              		.loc 1 2005 0
 8388 0008 FFF7FEFF 		bl	init_surt
2006:.\main.c      ****     CyWdtStart(CYWDT_1024_TICKS,CYWDT_LPMODE_NOCHANGE);    
 8389              		.loc 1 2006 0
 8390 000c 0320     		movs	r0, #3
 8391 000e 0021     		movs	r1, #0
 8392 0010 FFF7FEFF 		bl	CyWdtStart
 8393              	.L463:
2007:.\main.c      ****     //insert_ppuInit();// 
2008:.\main.c      ****     for(;;){
2009:.\main.c      ****          //sin el sistema Mux Advance              		
2010:.\main.c      ****     		CyWdtClear();        
 8394              		.loc 1 2010 0 discriminator 1
 8395 0014 FFF7FEFF 		bl	CyWdtClear
2011:.\main.c      ****            	polling_LCD1();
 8396              		.loc 1 2011 0 discriminator 1
 8397 0018 FFF7FEFF 		bl	polling_LCD1
2012:.\main.c      ****     		CyWdtClear();        
 8398              		.loc 1 2012 0 discriminator 1
 8399 001c FFF7FEFF 		bl	CyWdtClear
2013:.\main.c      ****             polling_rf();
 8400              		.loc 1 2013 0 discriminator 1
 8401 0020 FFF7FEFF 		bl	polling_rf
2014:.\main.c      ****          
2015:.\main.c      ****     }
 8402              		.loc 1 2015 0 discriminator 1
 8403 0024 F6E7     		b	.L463
 8404              		.cfi_endproc
 8405              	.LFE76:
 8406              		.size	main, .-main
ARM GAS  C:\Users\diego\AppData\Local\Temp\ccW8UKJI.s 			page 187


 8407 0026 00BF     		.text
 8408              	.Letext0:
 8409              		.file 2 "c:\\program files (x86)\\cypress\\psoc creator\\3.3\\psoc creator\\import\\gnu\\arm\\4.9.
 8410              		.file 3 "c:\\program files (x86)\\cypress\\psoc creator\\3.3\\psoc creator\\import\\gnu\\arm\\4.9.
 8411              		.file 4 "Generated_Source\\PSoC5/cytypes.h"
 8412              		.file 5 ".\\VariablesG.h"
 8413              		.file 6 "Generated_Source\\PSoC5/LCD_1.h"
 8414              		.file 7 "Generated_Source\\PSoC5/PC.h"
 8415              		.file 8 "Generated_Source\\PSoC5/core_cm3.h"
 8416              		.section	.debug_info,"",%progbits
 8417              	.Ldebug_info0:
 8418 0000 430C0000 		.4byte	0xc43
 8419 0004 0400     		.2byte	0x4
 8420 0006 00000000 		.4byte	.Ldebug_abbrev0
 8421 000a 04       		.byte	0x4
 8422 000b 01       		.uleb128 0x1
 8423 000c 3F030000 		.4byte	.LASF144
 8424 0010 01       		.byte	0x1
 8425 0011 55060000 		.4byte	.LASF145
 8426 0015 19020000 		.4byte	.LASF146
 8427 0019 00000000 		.4byte	.Ldebug_ranges0+0
 8428 001d 00000000 		.4byte	0
 8429 0021 00000000 		.4byte	.Ldebug_line0
 8430 0025 02       		.uleb128 0x2
 8431 0026 01       		.byte	0x1
 8432 0027 06       		.byte	0x6
 8433 0028 C1050000 		.4byte	.LASF0
 8434 002c 02       		.uleb128 0x2
 8435 002d 01       		.byte	0x1
 8436 002e 08       		.byte	0x8
 8437 002f 7D050000 		.4byte	.LASF1
 8438 0033 02       		.uleb128 0x2
 8439 0034 02       		.byte	0x2
 8440 0035 05       		.byte	0x5
 8441 0036 69040000 		.4byte	.LASF2
 8442 003a 02       		.uleb128 0x2
 8443 003b 02       		.byte	0x2
 8444 003c 07       		.byte	0x7
 8445 003d D6050000 		.4byte	.LASF3
 8446 0041 03       		.uleb128 0x3
 8447 0042 A6000000 		.4byte	.LASF9
 8448 0046 02       		.byte	0x2
 8449 0047 3F       		.byte	0x3f
 8450 0048 4C000000 		.4byte	0x4c
 8451 004c 02       		.uleb128 0x2
 8452 004d 04       		.byte	0x4
 8453 004e 05       		.byte	0x5
 8454 004f 7F040000 		.4byte	.LASF4
 8455 0053 02       		.uleb128 0x2
 8456 0054 04       		.byte	0x4
 8457 0055 07       		.byte	0x7
 8458 0056 32050000 		.4byte	.LASF5
 8459 005a 02       		.uleb128 0x2
 8460 005b 08       		.byte	0x8
 8461 005c 05       		.byte	0x5
 8462 005d 01030000 		.4byte	.LASF6
 8463 0061 02       		.uleb128 0x2
ARM GAS  C:\Users\diego\AppData\Local\Temp\ccW8UKJI.s 			page 188


 8464 0062 08       		.byte	0x8
 8465 0063 07       		.byte	0x7
 8466 0064 80010000 		.4byte	.LASF7
 8467 0068 04       		.uleb128 0x4
 8468 0069 04       		.byte	0x4
 8469 006a 05       		.byte	0x5
 8470 006b 696E7400 		.ascii	"int\000"
 8471 006f 02       		.uleb128 0x2
 8472 0070 04       		.byte	0x4
 8473 0071 07       		.byte	0x7
 8474 0072 91000000 		.4byte	.LASF8
 8475 0076 03       		.uleb128 0x3
 8476 0077 4B050000 		.4byte	.LASF10
 8477 007b 03       		.byte	0x3
 8478 007c 2C       		.byte	0x2c
 8479 007d 41000000 		.4byte	0x41
 8480 0081 03       		.uleb128 0x3
 8481 0082 F7050000 		.4byte	.LASF11
 8482 0086 04       		.byte	0x4
 8483 0087 B4       		.byte	0xb4
 8484 0088 2C000000 		.4byte	0x2c
 8485 008c 03       		.uleb128 0x3
 8486 008d 80020000 		.4byte	.LASF12
 8487 0091 04       		.byte	0x4
 8488 0092 B5       		.byte	0xb5
 8489 0093 3A000000 		.4byte	0x3a
 8490 0097 02       		.uleb128 0x2
 8491 0098 04       		.byte	0x4
 8492 0099 04       		.byte	0x4
 8493 009a 34010000 		.4byte	.LASF13
 8494 009e 02       		.uleb128 0x2
 8495 009f 08       		.byte	0x8
 8496 00a0 04       		.byte	0x4
 8497 00a1 FD050000 		.4byte	.LASF14
 8498 00a5 02       		.uleb128 0x2
 8499 00a6 01       		.byte	0x1
 8500 00a7 08       		.byte	0x8
 8501 00a8 5F020000 		.4byte	.LASF15
 8502 00ac 05       		.uleb128 0x5
 8503 00ad 81000000 		.4byte	0x81
 8504 00b1 05       		.uleb128 0x5
 8505 00b2 8C000000 		.4byte	0x8c
 8506 00b6 02       		.uleb128 0x2
 8507 00b7 04       		.byte	0x4
 8508 00b8 07       		.byte	0x7
 8509 00b9 29050000 		.4byte	.LASF16
 8510 00bd 06       		.uleb128 0x6
 8511 00be A5000000 		.4byte	0xa5
 8512 00c2 CD000000 		.4byte	0xcd
 8513 00c6 07       		.uleb128 0x7
 8514 00c7 B6000000 		.4byte	0xb6
 8515 00cb 07       		.byte	0x7
 8516 00cc 00       		.byte	0
 8517 00cd 06       		.uleb128 0x6
 8518 00ce 81000000 		.4byte	0x81
 8519 00d2 DD000000 		.4byte	0xdd
 8520 00d6 07       		.uleb128 0x7
ARM GAS  C:\Users\diego\AppData\Local\Temp\ccW8UKJI.s 			page 189


 8521 00d7 B6000000 		.4byte	0xb6
 8522 00db 03       		.byte	0x3
 8523 00dc 00       		.byte	0
 8524 00dd 02       		.uleb128 0x2
 8525 00de 08       		.byte	0x8
 8526 00df 04       		.byte	0x4
 8527 00e0 23040000 		.4byte	.LASF17
 8528 00e4 08       		.uleb128 0x8
 8529 00e5 95040000 		.4byte	.LASF22
 8530 00e9 5D       		.byte	0x5d
 8531 00ea 05       		.byte	0x5
 8532 00eb 57       		.byte	0x57
 8533 00ec 39010000 		.4byte	0x139
 8534 00f0 09       		.uleb128 0x9
 8535 00f1 64697200 		.ascii	"dir\000"
 8536 00f5 05       		.byte	0x5
 8537 00f6 58       		.byte	0x58
 8538 00f7 AC000000 		.4byte	0xac
 8539 00fb 00       		.byte	0
 8540 00fc 0A       		.uleb128 0xa
 8541 00fd 02040000 		.4byte	.LASF18
 8542 0101 05       		.byte	0x5
 8543 0102 59       		.byte	0x59
 8544 0103 AC000000 		.4byte	0xac
 8545 0107 01       		.byte	0x1
 8546 0108 0A       		.uleb128 0xa
 8547 0109 BA020000 		.4byte	.LASF19
 8548 010d 05       		.byte	0x5
 8549 010e 5A       		.byte	0x5a
 8550 010f 4F010000 		.4byte	0x14f
 8551 0113 02       		.byte	0x2
 8552 0114 09       		.uleb128 0x9
 8553 0115 70707500 		.ascii	"ppu\000"
 8554 0119 05       		.byte	0x5
 8555 011a 5B       		.byte	0x5b
 8556 011b 6A010000 		.4byte	0x16a
 8557 011f 4A       		.byte	0x4a
 8558 0120 0A       		.uleb128 0xa
 8559 0121 1E060000 		.4byte	.LASF20
 8560 0125 05       		.byte	0x5
 8561 0126 5C       		.byte	0x5c
 8562 0127 85010000 		.4byte	0x185
 8563 012b 59       		.byte	0x59
 8564 012c 0A       		.uleb128 0xa
 8565 012d 76020000 		.4byte	.LASF21
 8566 0131 05       		.byte	0x5
 8567 0132 5D       		.byte	0x5d
 8568 0133 AC000000 		.4byte	0xac
 8569 0137 5C       		.byte	0x5c
 8570 0138 00       		.byte	0
 8571 0139 06       		.uleb128 0x6
 8572 013a 81000000 		.4byte	0x81
 8573 013e 4F010000 		.4byte	0x14f
 8574 0142 07       		.uleb128 0x7
 8575 0143 B6000000 		.4byte	0xb6
 8576 0147 02       		.byte	0x2
 8577 0148 07       		.uleb128 0x7
ARM GAS  C:\Users\diego\AppData\Local\Temp\ccW8UKJI.s 			page 190


 8578 0149 B6000000 		.4byte	0xb6
 8579 014d 17       		.byte	0x17
 8580 014e 00       		.byte	0
 8581 014f 05       		.uleb128 0x5
 8582 0150 39010000 		.4byte	0x139
 8583 0154 06       		.uleb128 0x6
 8584 0155 81000000 		.4byte	0x81
 8585 0159 6A010000 		.4byte	0x16a
 8586 015d 07       		.uleb128 0x7
 8587 015e B6000000 		.4byte	0xb6
 8588 0162 02       		.byte	0x2
 8589 0163 07       		.uleb128 0x7
 8590 0164 B6000000 		.4byte	0xb6
 8591 0168 04       		.byte	0x4
 8592 0169 00       		.byte	0
 8593 016a 05       		.uleb128 0x5
 8594 016b 54010000 		.4byte	0x154
 8595 016f 06       		.uleb128 0x6
 8596 0170 81000000 		.4byte	0x81
 8597 0174 85010000 		.4byte	0x185
 8598 0178 07       		.uleb128 0x7
 8599 0179 B6000000 		.4byte	0xb6
 8600 017d 02       		.byte	0x2
 8601 017e 07       		.uleb128 0x7
 8602 017f B6000000 		.4byte	0xb6
 8603 0183 00       		.byte	0
 8604 0184 00       		.byte	0
 8605 0185 05       		.uleb128 0x5
 8606 0186 6F010000 		.4byte	0x16f
 8607 018a 08       		.uleb128 0x8
 8608 018b E8030000 		.4byte	.LASF23
 8609 018f 76       		.byte	0x76
 8610 0190 05       		.byte	0x5
 8611 0191 6E       		.byte	0x6e
 8612 0192 79020000 		.4byte	0x279
 8613 0196 0A       		.uleb128 0xa
 8614 0197 F4000000 		.4byte	.LASF24
 8615 019b 05       		.byte	0x5
 8616 019c 6F       		.byte	0x6f
 8617 019d 81000000 		.4byte	0x81
 8618 01a1 00       		.byte	0
 8619 01a2 0A       		.uleb128 0xa
 8620 01a3 1E060000 		.4byte	.LASF20
 8621 01a7 05       		.byte	0x5
 8622 01a8 70       		.byte	0x70
 8623 01a9 81000000 		.4byte	0x81
 8624 01ad 01       		.byte	0x1
 8625 01ae 09       		.uleb128 0x9
 8626 01af 70707500 		.ascii	"ppu\000"
 8627 01b3 05       		.byte	0x5
 8628 01b4 71       		.byte	0x71
 8629 01b5 79020000 		.4byte	0x279
 8630 01b9 02       		.byte	0x2
 8631 01ba 0A       		.uleb128 0xa
 8632 01bb EF030000 		.4byte	.LASF25
 8633 01bf 05       		.byte	0x5
 8634 01c0 72       		.byte	0x72
ARM GAS  C:\Users\diego\AppData\Local\Temp\ccW8UKJI.s 			page 191


 8635 01c1 89020000 		.4byte	0x289
 8636 01c5 07       		.byte	0x7
 8637 01c6 0A       		.uleb128 0xa
 8638 01c7 D5010000 		.4byte	.LASF26
 8639 01cb 05       		.byte	0x5
 8640 01cc 73       		.byte	0x73
 8641 01cd 89020000 		.4byte	0x289
 8642 01d1 10       		.byte	0x10
 8643 01d2 0A       		.uleb128 0xa
 8644 01d3 15030000 		.4byte	.LASF27
 8645 01d7 05       		.byte	0x5
 8646 01d8 74       		.byte	0x74
 8647 01d9 81000000 		.4byte	0x81
 8648 01dd 19       		.byte	0x19
 8649 01de 0A       		.uleb128 0xa
 8650 01df 10060000 		.4byte	.LASF28
 8651 01e3 05       		.byte	0x5
 8652 01e4 75       		.byte	0x75
 8653 01e5 81000000 		.4byte	0x81
 8654 01e9 1A       		.byte	0x1a
 8655 01ea 0A       		.uleb128 0xa
 8656 01eb 2D010000 		.4byte	.LASF29
 8657 01ef 05       		.byte	0x5
 8658 01f0 76       		.byte	0x76
 8659 01f1 99020000 		.4byte	0x299
 8660 01f5 1B       		.byte	0x1b
 8661 01f6 09       		.uleb128 0x9
 8662 01f7 696400   		.ascii	"id\000"
 8663 01fa 05       		.byte	0x5
 8664 01fb 77       		.byte	0x77
 8665 01fc A9020000 		.4byte	0x2a9
 8666 0200 23       		.byte	0x23
 8667 0201 0A       		.uleb128 0xa
 8668 0202 A8020000 		.4byte	.LASF30
 8669 0206 05       		.byte	0x5
 8670 0207 78       		.byte	0x78
 8671 0208 A9020000 		.4byte	0x2a9
 8672 020c 33       		.byte	0x33
 8673 020d 09       		.uleb128 0x9
 8674 020e 6B6D00   		.ascii	"km\000"
 8675 0211 05       		.byte	0x5
 8676 0212 79       		.byte	0x79
 8677 0213 B9020000 		.4byte	0x2b9
 8678 0217 43       		.byte	0x43
 8679 0218 0A       		.uleb128 0xa
 8680 0219 B3010000 		.4byte	.LASF31
 8681 021d 05       		.byte	0x5
 8682 021e 7A       		.byte	0x7a
 8683 021f 89020000 		.4byte	0x289
 8684 0223 4E       		.byte	0x4e
 8685 0224 0A       		.uleb128 0xa
 8686 0225 77010000 		.4byte	.LASF32
 8687 0229 05       		.byte	0x5
 8688 022a 7B       		.byte	0x7b
 8689 022b 81000000 		.4byte	0x81
 8690 022f 57       		.byte	0x57
 8691 0230 0A       		.uleb128 0xa
ARM GAS  C:\Users\diego\AppData\Local\Temp\ccW8UKJI.s 			page 192


 8692 0231 9D020000 		.4byte	.LASF33
 8693 0235 05       		.byte	0x5
 8694 0236 7C       		.byte	0x7c
 8695 0237 81000000 		.4byte	0x81
 8696 023b 58       		.byte	0x58
 8697 023c 0A       		.uleb128 0xa
 8698 023d 38030000 		.4byte	.LASF34
 8699 0241 05       		.byte	0x5
 8700 0242 7D       		.byte	0x7d
 8701 0243 B9020000 		.4byte	0x2b9
 8702 0247 59       		.byte	0x59
 8703 0248 0A       		.uleb128 0xa
 8704 0249 00000000 		.4byte	.LASF35
 8705 024d 05       		.byte	0x5
 8706 024e 7E       		.byte	0x7e
 8707 024f B9020000 		.4byte	0x2b9
 8708 0253 64       		.byte	0x64
 8709 0254 0A       		.uleb128 0xa
 8710 0255 AE020000 		.4byte	.LASF36
 8711 0259 05       		.byte	0x5
 8712 025a 7F       		.byte	0x7f
 8713 025b 81000000 		.4byte	0x81
 8714 025f 6F       		.byte	0x6f
 8715 0260 0A       		.uleb128 0xa
 8716 0261 72050000 		.4byte	.LASF37
 8717 0265 05       		.byte	0x5
 8718 0266 80       		.byte	0x80
 8719 0267 81000000 		.4byte	0x81
 8720 026b 70       		.byte	0x70
 8721 026c 0A       		.uleb128 0xa
 8722 026d 2F040000 		.4byte	.LASF38
 8723 0271 05       		.byte	0x5
 8724 0272 81       		.byte	0x81
 8725 0273 79020000 		.4byte	0x279
 8726 0277 71       		.byte	0x71
 8727 0278 00       		.byte	0
 8728 0279 06       		.uleb128 0x6
 8729 027a 81000000 		.4byte	0x81
 8730 027e 89020000 		.4byte	0x289
 8731 0282 07       		.uleb128 0x7
 8732 0283 B6000000 		.4byte	0xb6
 8733 0287 04       		.byte	0x4
 8734 0288 00       		.byte	0
 8735 0289 06       		.uleb128 0x6
 8736 028a 81000000 		.4byte	0x81
 8737 028e 99020000 		.4byte	0x299
 8738 0292 07       		.uleb128 0x7
 8739 0293 B6000000 		.4byte	0xb6
 8740 0297 08       		.byte	0x8
 8741 0298 00       		.byte	0
 8742 0299 06       		.uleb128 0x6
 8743 029a 81000000 		.4byte	0x81
 8744 029e A9020000 		.4byte	0x2a9
 8745 02a2 07       		.uleb128 0x7
 8746 02a3 B6000000 		.4byte	0xb6
 8747 02a7 07       		.byte	0x7
 8748 02a8 00       		.byte	0
ARM GAS  C:\Users\diego\AppData\Local\Temp\ccW8UKJI.s 			page 193


 8749 02a9 06       		.uleb128 0x6
 8750 02aa 81000000 		.4byte	0x81
 8751 02ae B9020000 		.4byte	0x2b9
 8752 02b2 07       		.uleb128 0x7
 8753 02b3 B6000000 		.4byte	0xb6
 8754 02b7 0F       		.byte	0xf
 8755 02b8 00       		.byte	0
 8756 02b9 06       		.uleb128 0x6
 8757 02ba 81000000 		.4byte	0x81
 8758 02be C9020000 		.4byte	0x2c9
 8759 02c2 07       		.uleb128 0x7
 8760 02c3 B6000000 		.4byte	0xb6
 8761 02c7 0A       		.byte	0xa
 8762 02c8 00       		.byte	0
 8763 02c9 0B       		.uleb128 0xb
 8764 02ca 24050000 		.4byte	.LASF44
 8765 02ce 01       		.byte	0x1
 8766 02cf 5A       		.byte	0x5a
 8767 02d0 00000000 		.4byte	.LFB63
 8768 02d4 CC010000 		.4byte	.LFE63-.LFB63
 8769 02d8 01       		.uleb128 0x1
 8770 02d9 9C       		.byte	0x9c
 8771 02da EB020000 		.4byte	0x2eb
 8772 02de 0C       		.uleb128 0xc
 8773 02df 7800     		.ascii	"x\000"
 8774 02e1 01       		.byte	0x1
 8775 02e2 5C       		.byte	0x5c
 8776 02e3 81000000 		.4byte	0x81
 8777 02e7 02       		.uleb128 0x2
 8778 02e8 91       		.byte	0x91
 8779 02e9 6F       		.sleb128 -17
 8780 02ea 00       		.byte	0
 8781 02eb 0D       		.uleb128 0xd
 8782 02ec F1020000 		.4byte	.LASF147
 8783 02f0 01       		.byte	0x1
 8784 02f1 A3       		.byte	0xa3
 8785 02f2 81000000 		.4byte	0x81
 8786 02f6 00000000 		.4byte	.LFB64
 8787 02fa 84000000 		.4byte	.LFE64-.LFB64
 8788 02fe 01       		.uleb128 0x1
 8789 02ff 9C       		.byte	0x9c
 8790 0300 5A030000 		.4byte	0x35a
 8791 0304 0E       		.uleb128 0xe
 8792 0305 B4020000 		.4byte	.LASF39
 8793 0309 01       		.byte	0x1
 8794 030a A3       		.byte	0xa3
 8795 030b 5A030000 		.4byte	0x35a
 8796 030f 03       		.uleb128 0x3
 8797 0310 91       		.byte	0x91
 8798 0311 EC7D     		.sleb128 -276
 8799 0313 0E       		.uleb128 0xe
 8800 0314 D9030000 		.4byte	.LASF40
 8801 0318 01       		.byte	0x1
 8802 0319 A3       		.byte	0xa3
 8803 031a 8C000000 		.4byte	0x8c
 8804 031e 03       		.uleb128 0x3
 8805 031f 91       		.byte	0x91
ARM GAS  C:\Users\diego\AppData\Local\Temp\ccW8UKJI.s 			page 194


 8806 0320 EA7D     		.sleb128 -278
 8807 0322 0F       		.uleb128 0xf
 8808 0323 55010000 		.4byte	.LASF41
 8809 0327 01       		.byte	0x1
 8810 0328 A4       		.byte	0xa4
 8811 0329 81000000 		.4byte	0x81
 8812 032d 02       		.uleb128 0x2
 8813 032e 91       		.byte	0x91
 8814 032f 77       		.sleb128 -9
 8815 0330 0F       		.uleb128 0xf
 8816 0331 5E010000 		.4byte	.LASF42
 8817 0335 01       		.byte	0x1
 8818 0336 A4       		.byte	0xa4
 8819 0337 81000000 		.4byte	0x81
 8820 033b 02       		.uleb128 0x2
 8821 033c 91       		.byte	0x91
 8822 033d 73       		.sleb128 -13
 8823 033e 0C       		.uleb128 0xc
 8824 033f 6900     		.ascii	"i\000"
 8825 0341 01       		.byte	0x1
 8826 0342 A5       		.byte	0xa5
 8827 0343 8C000000 		.4byte	0x8c
 8828 0347 02       		.uleb128 0x2
 8829 0348 91       		.byte	0x91
 8830 0349 74       		.sleb128 -12
 8831 034a 0F       		.uleb128 0xf
 8832 034b 70020000 		.4byte	.LASF43
 8833 034f 01       		.byte	0x1
 8834 0350 A6       		.byte	0xa6
 8835 0351 60030000 		.4byte	0x360
 8836 0355 03       		.uleb128 0x3
 8837 0356 91       		.byte	0x91
 8838 0357 F07D     		.sleb128 -272
 8839 0359 00       		.byte	0
 8840 035a 10       		.uleb128 0x10
 8841 035b 04       		.byte	0x4
 8842 035c 81000000 		.4byte	0x81
 8843 0360 06       		.uleb128 0x6
 8844 0361 81000000 		.4byte	0x81
 8845 0365 70030000 		.4byte	0x370
 8846 0369 07       		.uleb128 0x7
 8847 036a B6000000 		.4byte	0xb6
 8848 036e FF       		.byte	0xff
 8849 036f 00       		.byte	0
 8850 0370 0B       		.uleb128 0xb
 8851 0371 CD050000 		.4byte	.LASF45
 8852 0375 01       		.byte	0x1
 8853 0376 CF       		.byte	0xcf
 8854 0377 00000000 		.4byte	.LFB65
 8855 037b 80000000 		.4byte	.LFE65-.LFB65
 8856 037f 01       		.uleb128 0x1
 8857 0380 9C       		.byte	0x9c
 8858 0381 A2030000 		.4byte	0x3a2
 8859 0385 11       		.uleb128 0x11
 8860 0386 6C636400 		.ascii	"lcd\000"
 8861 038a 01       		.byte	0x1
 8862 038b CF       		.byte	0xcf
ARM GAS  C:\Users\diego\AppData\Local\Temp\ccW8UKJI.s 			page 195


 8863 038c 81000000 		.4byte	0x81
 8864 0390 02       		.uleb128 0x2
 8865 0391 91       		.byte	0x91
 8866 0392 77       		.sleb128 -9
 8867 0393 0E       		.uleb128 0xe
 8868 0394 1C040000 		.4byte	.LASF46
 8869 0398 01       		.byte	0x1
 8870 0399 CF       		.byte	0xcf
 8871 039a 8C000000 		.4byte	0x8c
 8872 039e 02       		.uleb128 0x2
 8873 039f 91       		.byte	0x91
 8874 03a0 74       		.sleb128 -12
 8875 03a1 00       		.byte	0
 8876 03a2 0B       		.uleb128 0xb
 8877 03a3 87000000 		.4byte	.LASF47
 8878 03a7 01       		.byte	0x1
 8879 03a8 F1       		.byte	0xf1
 8880 03a9 00000000 		.4byte	.LFB66
 8881 03ad 24030000 		.4byte	.LFE66-.LFB66
 8882 03b1 01       		.uleb128 0x1
 8883 03b2 9C       		.byte	0x9c
 8884 03b3 D3030000 		.4byte	0x3d3
 8885 03b7 0F       		.uleb128 0xf
 8886 03b8 02040000 		.4byte	.LASF18
 8887 03bc 01       		.byte	0x1
 8888 03bd F2       		.byte	0xf2
 8889 03be 81000000 		.4byte	0x81
 8890 03c2 02       		.uleb128 0x2
 8891 03c3 91       		.byte	0x91
 8892 03c4 76       		.sleb128 -10
 8893 03c5 0C       		.uleb128 0xc
 8894 03c6 6F6B00   		.ascii	"ok\000"
 8895 03c9 01       		.byte	0x1
 8896 03ca F2       		.byte	0xf2
 8897 03cb 81000000 		.4byte	0x81
 8898 03cf 02       		.uleb128 0x2
 8899 03d0 91       		.byte	0x91
 8900 03d1 77       		.sleb128 -9
 8901 03d2 00       		.byte	0
 8902 03d3 12       		.uleb128 0x12
 8903 03d4 09000000 		.4byte	.LASF48
 8904 03d8 01       		.byte	0x1
 8905 03d9 8301     		.2byte	0x183
 8906 03db 00000000 		.4byte	.LFB67
 8907 03df 28050000 		.4byte	.LFE67-.LFB67
 8908 03e3 01       		.uleb128 0x1
 8909 03e4 9C       		.byte	0x9c
 8910 03e5 51040000 		.4byte	0x451
 8911 03e9 13       		.uleb128 0x13
 8912 03ea 87020000 		.4byte	.LASF49
 8913 03ee 01       		.byte	0x1
 8914 03ef 8401     		.2byte	0x184
 8915 03f1 8C000000 		.4byte	0x8c
 8916 03f5 02       		.uleb128 0x2
 8917 03f6 91       		.byte	0x91
 8918 03f7 70       		.sleb128 -16
 8919 03f8 13       		.uleb128 0x13
ARM GAS  C:\Users\diego\AppData\Local\Temp\ccW8UKJI.s 			page 196


 8920 03f9 14000000 		.4byte	.LASF50
 8921 03fd 01       		.byte	0x1
 8922 03fe 8401     		.2byte	0x184
 8923 0400 8C000000 		.4byte	0x8c
 8924 0404 02       		.uleb128 0x2
 8925 0405 91       		.byte	0x91
 8926 0406 6E       		.sleb128 -18
 8927 0407 13       		.uleb128 0x13
 8928 0408 D9030000 		.4byte	.LASF40
 8929 040c 01       		.byte	0x1
 8930 040d 8401     		.2byte	0x184
 8931 040f 8C000000 		.4byte	0x8c
 8932 0413 02       		.uleb128 0x2
 8933 0414 91       		.byte	0x91
 8934 0415 76       		.sleb128 -10
 8935 0416 14       		.uleb128 0x14
 8936 0417 7800     		.ascii	"x\000"
 8937 0419 01       		.byte	0x1
 8938 041a 8401     		.2byte	0x184
 8939 041c 8C000000 		.4byte	0x8c
 8940 0420 02       		.uleb128 0x2
 8941 0421 91       		.byte	0x91
 8942 0422 74       		.sleb128 -12
 8943 0423 13       		.uleb128 0x13
 8944 0424 A3010000 		.4byte	.LASF51
 8945 0428 01       		.byte	0x1
 8946 0429 8401     		.2byte	0x184
 8947 042b 8C000000 		.4byte	0x8c
 8948 042f 02       		.uleb128 0x2
 8949 0430 91       		.byte	0x91
 8950 0431 72       		.sleb128 -14
 8951 0432 13       		.uleb128 0x13
 8952 0433 B5000000 		.4byte	.LASF52
 8953 0437 01       		.byte	0x1
 8954 0438 8501     		.2byte	0x185
 8955 043a 79020000 		.4byte	0x279
 8956 043e 02       		.uleb128 0x2
 8957 043f 91       		.byte	0x91
 8958 0440 68       		.sleb128 -24
 8959 0441 13       		.uleb128 0x13
 8960 0442 2D010000 		.4byte	.LASF29
 8961 0446 01       		.byte	0x1
 8962 0447 8501     		.2byte	0x185
 8963 0449 99020000 		.4byte	0x299
 8964 044d 02       		.uleb128 0x2
 8965 044e 91       		.byte	0x91
 8966 044f 60       		.sleb128 -32
 8967 0450 00       		.byte	0
 8968 0451 15       		.uleb128 0x15
 8969 0452 B9010000 		.4byte	.LASF56
 8970 0456 01       		.byte	0x1
 8971 0457 5102     		.2byte	0x251
 8972 0459 00000000 		.4byte	.LFB68
 8973 045d 0C000000 		.4byte	.LFE68-.LFB68
 8974 0461 01       		.uleb128 0x1
 8975 0462 9C       		.byte	0x9c
 8976 0463 12       		.uleb128 0x12
ARM GAS  C:\Users\diego\AppData\Local\Temp\ccW8UKJI.s 			page 197


 8977 0464 1E030000 		.4byte	.LASF53
 8978 0468 01       		.byte	0x1
 8979 0469 6902     		.2byte	0x269
 8980 046b 00000000 		.4byte	.LFB69
 8981 046f 2C2B0000 		.4byte	.LFE69-.LFB69
 8982 0473 01       		.uleb128 0x1
 8983 0474 9C       		.byte	0x9c
 8984 0475 EB040000 		.4byte	0x4eb
 8985 0479 14       		.uleb128 0x14
 8986 047a 7800     		.ascii	"x\000"
 8987 047c 01       		.byte	0x1
 8988 047d 6A02     		.2byte	0x26a
 8989 047f 81000000 		.4byte	0x81
 8990 0483 02       		.uleb128 0x2
 8991 0484 91       		.byte	0x91
 8992 0485 6F       		.sleb128 -17
 8993 0486 14       		.uleb128 0x14
 8994 0487 7900     		.ascii	"y\000"
 8995 0489 01       		.byte	0x1
 8996 048a 6A02     		.2byte	0x26a
 8997 048c 81000000 		.4byte	0x81
 8998 0490 02       		.uleb128 0x2
 8999 0491 91       		.byte	0x91
 9000 0492 6E       		.sleb128 -18
 9001 0493 14       		.uleb128 0x14
 9002 0494 61757800 		.ascii	"aux\000"
 9003 0498 01       		.byte	0x1
 9004 0499 6A02     		.2byte	0x26a
 9005 049b EB040000 		.4byte	0x4eb
 9006 049f 02       		.uleb128 0x2
 9007 04a0 91       		.byte	0x91
 9008 04a1 54       		.sleb128 -44
 9009 04a2 13       		.uleb128 0x13
 9010 04a3 B5000000 		.4byte	.LASF52
 9011 04a7 01       		.byte	0x1
 9012 04a8 6A02     		.2byte	0x26a
 9013 04aa 79020000 		.4byte	0x279
 9014 04ae 02       		.uleb128 0x2
 9015 04af 91       		.byte	0x91
 9016 04b0 4C       		.sleb128 -52
 9017 04b1 14       		.uleb128 0x14
 9018 04b2 785F3100 		.ascii	"x_1\000"
 9019 04b6 01       		.byte	0x1
 9020 04b7 6A02     		.2byte	0x26a
 9021 04b9 81000000 		.4byte	0x81
 9022 04bd 02       		.uleb128 0x2
 9023 04be 91       		.byte	0x91
 9024 04bf 6D       		.sleb128 -19
 9025 04c0 16       		.uleb128 0x16
 9026 04c1 19060000 		.4byte	.LASF63
 9027 04c5 01       		.byte	0x1
 9028 04c6 6A02     		.2byte	0x26a
 9029 04c8 81000000 		.4byte	0x81
 9030 04cc 13       		.uleb128 0x13
 9031 04cd 44050000 		.4byte	.LASF54
 9032 04d1 01       		.byte	0x1
 9033 04d2 6B02     		.2byte	0x26b
ARM GAS  C:\Users\diego\AppData\Local\Temp\ccW8UKJI.s 			page 198


 9034 04d4 BD000000 		.4byte	0xbd
 9035 04d8 02       		.uleb128 0x2
 9036 04d9 91       		.byte	0x91
 9037 04da 44       		.sleb128 -60
 9038 04db 13       		.uleb128 0x13
 9039 04dc 1C000000 		.4byte	.LASF55
 9040 04e0 01       		.byte	0x1
 9041 04e1 6C02     		.2byte	0x26c
 9042 04e3 9E000000 		.4byte	0x9e
 9043 04e7 02       		.uleb128 0x2
 9044 04e8 91       		.byte	0x91
 9045 04e9 60       		.sleb128 -32
 9046 04ea 00       		.byte	0
 9047 04eb 06       		.uleb128 0x6
 9048 04ec 81000000 		.4byte	0x81
 9049 04f0 FB040000 		.4byte	0x4fb
 9050 04f4 07       		.uleb128 0x7
 9051 04f5 B6000000 		.4byte	0xb6
 9052 04f9 09       		.byte	0x9
 9053 04fa 00       		.byte	0
 9054 04fb 15       		.uleb128 0x15
 9055 04fc 2B030000 		.4byte	.LASF57
 9056 0500 01       		.byte	0x1
 9057 0501 2D07     		.2byte	0x72d
 9058 0503 00000000 		.4byte	.LFB70
 9059 0507 0C000000 		.4byte	.LFE70-.LFB70
 9060 050b 01       		.uleb128 0x1
 9061 050c 9C       		.byte	0x9c
 9062 050d 15       		.uleb128 0x15
 9063 050e FE010000 		.4byte	.LASF58
 9064 0512 01       		.byte	0x1
 9065 0513 4207     		.2byte	0x742
 9066 0515 00000000 		.4byte	.LFB71
 9067 0519 0C000000 		.4byte	.LFE71-.LFB71
 9068 051d 01       		.uleb128 0x1
 9069 051e 9C       		.byte	0x9c
 9070 051f 17       		.uleb128 0x17
 9071 0520 D4040000 		.4byte	.LASF59
 9072 0524 01       		.byte	0x1
 9073 0525 5607     		.2byte	0x756
 9074 0527 00000000 		.4byte	.LFB72
 9075 052b 74000000 		.4byte	.LFE72-.LFB72
 9076 052f 01       		.uleb128 0x1
 9077 0530 9C       		.byte	0x9c
 9078 0531 17       		.uleb128 0x17
 9079 0532 05050000 		.4byte	.LASF60
 9080 0536 01       		.byte	0x1
 9081 0537 7707     		.2byte	0x777
 9082 0539 00000000 		.4byte	.LFB73
 9083 053d 74000000 		.4byte	.LFE73-.LFB73
 9084 0541 01       		.uleb128 0x1
 9085 0542 9C       		.byte	0x9c
 9086 0543 17       		.uleb128 0x17
 9087 0544 13040000 		.4byte	.LASF61
 9088 0548 01       		.byte	0x1
 9089 0549 9807     		.2byte	0x798
 9090 054b 00000000 		.4byte	.LFB74
ARM GAS  C:\Users\diego\AppData\Local\Temp\ccW8UKJI.s 			page 199


 9091 054f 54000000 		.4byte	.LFE74-.LFB74
 9092 0553 01       		.uleb128 0x1
 9093 0554 9C       		.byte	0x9c
 9094 0555 12       		.uleb128 0x12
 9095 0556 F6040000 		.4byte	.LASF62
 9096 055a 01       		.byte	0x1
 9097 055b B407     		.2byte	0x7b4
 9098 055d 00000000 		.4byte	.LFB75
 9099 0561 38000000 		.4byte	.LFE75-.LFB75
 9100 0565 01       		.uleb128 0x1
 9101 0566 9C       		.byte	0x9c
 9102 0567 85050000 		.4byte	0x585
 9103 056b 18       		.uleb128 0x18
 9104 056c 7800     		.ascii	"x\000"
 9105 056e 01       		.byte	0x1
 9106 056f B707     		.2byte	0x7b7
 9107 0571 68000000 		.4byte	0x68
 9108 0575 13       		.uleb128 0x13
 9109 0576 5E040000 		.4byte	.LASF64
 9110 057a 01       		.byte	0x1
 9111 057b B907     		.2byte	0x7b9
 9112 057d 79020000 		.4byte	0x279
 9113 0581 02       		.uleb128 0x2
 9114 0582 91       		.byte	0x91
 9115 0583 70       		.sleb128 -16
 9116 0584 00       		.byte	0
 9117 0585 19       		.uleb128 0x19
 9118 0586 F2050000 		.4byte	.LASF65
 9119 058a 01       		.byte	0x1
 9120 058b D207     		.2byte	0x7d2
 9121 058d 68000000 		.4byte	0x68
 9122 0591 00000000 		.4byte	.LFB76
 9123 0595 26000000 		.4byte	.LFE76-.LFB76
 9124 0599 01       		.uleb128 0x1
 9125 059a 9C       		.byte	0x9c
 9126 059b 1A       		.uleb128 0x1a
 9127 059c 39000000 		.4byte	.LASF66
 9128 05a0 06       		.byte	0x6
 9129 05a1 3E01     		.2byte	0x13e
 9130 05a3 A7050000 		.4byte	0x5a7
 9131 05a7 05       		.uleb128 0x5
 9132 05a8 99020000 		.4byte	0x299
 9133 05ac 06       		.uleb128 0x6
 9134 05ad 81000000 		.4byte	0x81
 9135 05b1 BD050000 		.4byte	0x5bd
 9136 05b5 1B       		.uleb128 0x1b
 9137 05b6 B6000000 		.4byte	0xb6
 9138 05ba DB05     		.2byte	0x5db
 9139 05bc 00       		.byte	0
 9140 05bd 1A       		.uleb128 0x1a
 9141 05be 73040000 		.4byte	.LASF67
 9142 05c2 07       		.byte	0x7
 9143 05c3 3E01     		.2byte	0x13e
 9144 05c5 C9050000 		.4byte	0x5c9
 9145 05c9 05       		.uleb128 0x5
 9146 05ca AC050000 		.4byte	0x5ac
 9147 05ce 1A       		.uleb128 0x1a
ARM GAS  C:\Users\diego\AppData\Local\Temp\ccW8UKJI.s 			page 200


 9148 05cf 88040000 		.4byte	.LASF68
 9149 05d3 08       		.byte	0x8
 9150 05d4 2A06     		.2byte	0x62a
 9151 05d6 DA050000 		.4byte	0x5da
 9152 05da 05       		.uleb128 0x5
 9153 05db 76000000 		.4byte	0x76
 9154 05df 1C       		.uleb128 0x1c
 9155 05e0 CF020000 		.4byte	.LASF69
 9156 05e4 05       		.byte	0x5
 9157 05e5 42       		.byte	0x42
 9158 05e6 AC000000 		.4byte	0xac
 9159 05ea 05       		.uleb128 0x5
 9160 05eb 03       		.byte	0x3
 9161 05ec 00000000 		.4byte	count_teclas1
 9162 05f0 1C       		.uleb128 0x1c
 9163 05f1 9E040000 		.4byte	.LASF70
 9164 05f5 05       		.byte	0x5
 9165 05f6 42       		.byte	0x42
 9166 05f7 AC000000 		.4byte	0xac
 9167 05fb 05       		.uleb128 0x5
 9168 05fc 03       		.byte	0x3
 9169 05fd 00000000 		.4byte	comas1
 9170 0601 1C       		.uleb128 0x1c
 9171 0602 A5040000 		.4byte	.LASF71
 9172 0606 05       		.byte	0x5
 9173 0607 42       		.byte	0x42
 9174 0608 AC000000 		.4byte	0xac
 9175 060c 05       		.uleb128 0x5
 9176 060d 03       		.byte	0x3
 9177 060e 00000000 		.4byte	comas2
 9178 0612 1C       		.uleb128 0x1c
 9179 0613 68000000 		.4byte	.LASF72
 9180 0617 05       		.byte	0x5
 9181 0618 42       		.byte	0x42
 9182 0619 AC000000 		.4byte	0xac
 9183 061d 05       		.uleb128 0x5
 9184 061e 03       		.byte	0x3
 9185 061f 00000000 		.4byte	id_coma1
 9186 0623 1C       		.uleb128 0x1c
 9187 0624 E6010000 		.4byte	.LASF73
 9188 0628 05       		.byte	0x5
 9189 0629 42       		.byte	0x42
 9190 062a AC000000 		.4byte	0xac
 9191 062e 05       		.uleb128 0x5
 9192 062f 03       		.byte	0x3
 9193 0630 00000000 		.4byte	id_teclado1
 9194 0634 1C       		.uleb128 0x1c
 9195 0635 DD020000 		.4byte	.LASF74
 9196 0639 05       		.byte	0x5
 9197 063a 42       		.byte	0x42
 9198 063b AC000000 		.4byte	0xac
 9199 063f 05       		.uleb128 0x5
 9200 0640 03       		.byte	0x3
 9201 0641 00000000 		.4byte	count_teclas2
 9202 0645 1C       		.uleb128 0x1c
 9203 0646 71000000 		.4byte	.LASF75
 9204 064a 05       		.byte	0x5
ARM GAS  C:\Users\diego\AppData\Local\Temp\ccW8UKJI.s 			page 201


 9205 064b 42       		.byte	0x42
 9206 064c AC000000 		.4byte	0xac
 9207 0650 05       		.uleb128 0x5
 9208 0651 03       		.byte	0x3
 9209 0652 00000000 		.4byte	id_coma2
 9210 0656 1C       		.uleb128 0x1c
 9211 0657 F2010000 		.4byte	.LASF76
 9212 065b 05       		.byte	0x5
 9213 065c 42       		.byte	0x42
 9214 065d AC000000 		.4byte	0xac
 9215 0661 05       		.uleb128 0x5
 9216 0662 03       		.byte	0x3
 9217 0663 00000000 		.4byte	id_teclado2
 9218 0667 1C       		.uleb128 0x1c
 9219 0668 EB020000 		.4byte	.LASF77
 9220 066c 05       		.byte	0x5
 9221 066d 43       		.byte	0x43
 9222 066e B1000000 		.4byte	0xb1
 9223 0672 05       		.uleb128 0x5
 9224 0673 03       		.byte	0x3
 9225 0674 00000000 		.4byte	posx1
 9226 0678 1C       		.uleb128 0x1c
 9227 0679 CD030000 		.4byte	.LASF78
 9228 067d 05       		.byte	0x5
 9229 067e 43       		.byte	0x43
 9230 067f B1000000 		.4byte	0xb1
 9231 0683 05       		.uleb128 0x5
 9232 0684 03       		.byte	0x3
 9233 0685 00000000 		.4byte	posy1
 9234 0689 1C       		.uleb128 0x1c
 9235 068a 3F060000 		.4byte	.LASF79
 9236 068e 05       		.byte	0x5
 9237 068f 43       		.byte	0x43
 9238 0690 B1000000 		.4byte	0xb1
 9239 0694 05       		.uleb128 0x5
 9240 0695 03       		.byte	0x3
 9241 0696 00000000 		.4byte	sizeletra1
 9242 069a 1C       		.uleb128 0x1c
 9243 069b 0F030000 		.4byte	.LASF80
 9244 069f 05       		.byte	0x5
 9245 06a0 43       		.byte	0x43
 9246 06a1 B1000000 		.4byte	0xb1
 9247 06a5 05       		.uleb128 0x5
 9248 06a6 03       		.byte	0x3
 9249 06a7 00000000 		.4byte	posx2
 9250 06ab 1C       		.uleb128 0x1c
 9251 06ac D3030000 		.4byte	.LASF81
 9252 06b0 05       		.byte	0x5
 9253 06b1 43       		.byte	0x43
 9254 06b2 B1000000 		.4byte	0xb1
 9255 06b6 05       		.uleb128 0x5
 9256 06b7 03       		.byte	0x3
 9257 06b8 00000000 		.4byte	posy2
 9258 06bc 1C       		.uleb128 0x1c
 9259 06bd 4A060000 		.4byte	.LASF82
 9260 06c1 05       		.byte	0x5
 9261 06c2 43       		.byte	0x43
ARM GAS  C:\Users\diego\AppData\Local\Temp\ccW8UKJI.s 			page 202


 9262 06c3 B1000000 		.4byte	0xb1
 9263 06c7 05       		.uleb128 0x5
 9264 06c8 03       		.byte	0x3
 9265 06c9 00000000 		.4byte	sizeletra2
 9266 06cd 1C       		.uleb128 0x1c
 9267 06ce D2000000 		.4byte	.LASF83
 9268 06d2 05       		.byte	0x5
 9269 06d3 44       		.byte	0x44
 9270 06d4 AC000000 		.4byte	0xac
 9271 06d8 05       		.uleb128 0x5
 9272 06d9 03       		.byte	0x3
 9273 06da 00000000 		.4byte	teclas1
 9274 06de 1C       		.uleb128 0x1c
 9275 06df DA000000 		.4byte	.LASF84
 9276 06e3 05       		.byte	0x5
 9277 06e4 44       		.byte	0x44
 9278 06e5 AC000000 		.4byte	0xac
 9279 06e9 05       		.uleb128 0x5
 9280 06ea 03       		.byte	0x3
 9281 06eb 00000000 		.4byte	teclas2
 9282 06ef 1C       		.uleb128 0x1c
 9283 06f0 17010000 		.4byte	.LASF85
 9284 06f4 05       		.byte	0x5
 9285 06f5 45       		.byte	0x45
 9286 06f6 AC000000 		.4byte	0xac
 9287 06fa 05       		.uleb128 0x5
 9288 06fb 03       		.byte	0x3
 9289 06fc 00000000 		.4byte	flujo_LCD1
 9290 0700 1C       		.uleb128 0x1c
 9291 0701 22010000 		.4byte	.LASF86
 9292 0705 05       		.byte	0x5
 9293 0706 45       		.byte	0x45
 9294 0707 AC000000 		.4byte	0xac
 9295 070b 05       		.uleb128 0x5
 9296 070c 03       		.byte	0x3
 9297 070d 00000000 		.4byte	flujo_LCD2
 9298 0711 06       		.uleb128 0x6
 9299 0712 81000000 		.4byte	0x81
 9300 0716 21070000 		.4byte	0x721
 9301 071a 07       		.uleb128 0x7
 9302 071b B6000000 		.4byte	0xb6
 9303 071f 1D       		.byte	0x1d
 9304 0720 00       		.byte	0
 9305 0721 1C       		.uleb128 0x1c
 9306 0722 F6030000 		.4byte	.LASF87
 9307 0726 05       		.byte	0x5
 9308 0727 46       		.byte	0x46
 9309 0728 32070000 		.4byte	0x732
 9310 072c 05       		.uleb128 0x5
 9311 072d 03       		.byte	0x3
 9312 072e 00000000 		.4byte	Buffer_LCD1
 9313 0732 05       		.uleb128 0x5
 9314 0733 11070000 		.4byte	0x711
 9315 0737 1C       		.uleb128 0x1c
 9316 0738 53020000 		.4byte	.LASF88
 9317 073c 05       		.byte	0x5
 9318 073d 47       		.byte	0x47
ARM GAS  C:\Users\diego\AppData\Local\Temp\ccW8UKJI.s 			page 203


 9319 073e 48070000 		.4byte	0x748
 9320 0742 05       		.uleb128 0x5
 9321 0743 03       		.byte	0x3
 9322 0744 00000000 		.4byte	Buffer_LCD2
 9323 0748 05       		.uleb128 0x5
 9324 0749 11070000 		.4byte	0x711
 9325 074d 1C       		.uleb128 0x1c
 9326 074e 3A010000 		.4byte	.LASF89
 9327 0752 05       		.byte	0x5
 9328 0753 48       		.byte	0x48
 9329 0754 AC000000 		.4byte	0xac
 9330 0758 05       		.uleb128 0x5
 9331 0759 03       		.byte	0x3
 9332 075a 00000000 		.4byte	count_protector
 9333 075e 1C       		.uleb128 0x1c
 9334 075f 28000000 		.4byte	.LASF90
 9335 0763 05       		.byte	0x5
 9336 0764 48       		.byte	0x48
 9337 0765 AC000000 		.4byte	0xac
 9338 0769 05       		.uleb128 0x5
 9339 076a 03       		.byte	0x3
 9340 076b 00000000 		.4byte	count_protector2
 9341 076f 1C       		.uleb128 0x1c
 9342 0770 C2020000 		.4byte	.LASF91
 9343 0774 05       		.byte	0x5
 9344 0775 49       		.byte	0x49
 9345 0776 80070000 		.4byte	0x780
 9346 077a 05       		.uleb128 0x5
 9347 077b 03       		.byte	0x3
 9348 077c 00000000 		.4byte	password_lcd
 9349 0780 05       		.uleb128 0x5
 9350 0781 89020000 		.4byte	0x289
 9351 0785 1C       		.uleb128 0x1c
 9352 0786 6A010000 		.4byte	.LASF92
 9353 078a 05       		.byte	0x5
 9354 078b 4A       		.byte	0x4a
 9355 078c B1000000 		.4byte	0xb1
 9356 0790 05       		.uleb128 0x5
 9357 0791 03       		.byte	0x3
 9358 0792 00000000 		.4byte	imagen_grado
 9359 0796 06       		.uleb128 0x6
 9360 0797 8C000000 		.4byte	0x8c
 9361 079b AC070000 		.4byte	0x7ac
 9362 079f 07       		.uleb128 0x7
 9363 07a0 B6000000 		.4byte	0xb6
 9364 07a4 01       		.byte	0x1
 9365 07a5 07       		.uleb128 0x7
 9366 07a6 B6000000 		.4byte	0xb6
 9367 07aa 01       		.byte	0x1
 9368 07ab 00       		.byte	0
 9369 07ac 1C       		.uleb128 0x1c
 9370 07ad 53050000 		.4byte	.LASF93
 9371 07b1 05       		.byte	0x5
 9372 07b2 4B       		.byte	0x4b
 9373 07b3 BD070000 		.4byte	0x7bd
 9374 07b7 05       		.uleb128 0x5
 9375 07b8 03       		.byte	0x3
ARM GAS  C:\Users\diego\AppData\Local\Temp\ccW8UKJI.s 			page 204


 9376 07b9 00000000 		.4byte	prox_caso
 9377 07bd 05       		.uleb128 0x5
 9378 07be 96070000 		.4byte	0x796
 9379 07c2 06       		.uleb128 0x6
 9380 07c3 81000000 		.4byte	0x81
 9381 07c7 D2070000 		.4byte	0x7d2
 9382 07cb 07       		.uleb128 0x7
 9383 07cc B6000000 		.4byte	0xb6
 9384 07d0 02       		.byte	0x2
 9385 07d1 00       		.byte	0
 9386 07d2 1C       		.uleb128 0x1c
 9387 07d3 64020000 		.4byte	.LASF94
 9388 07d7 05       		.byte	0x5
 9389 07d8 4C       		.byte	0x4c
 9390 07d9 E3070000 		.4byte	0x7e3
 9391 07dd 05       		.uleb128 0x5
 9392 07de 03       		.byte	0x3
 9393 07df 00000000 		.4byte	bloqueo_LCD
 9394 07e3 05       		.uleb128 0x5
 9395 07e4 C2070000 		.4byte	0x7c2
 9396 07e8 1C       		.uleb128 0x1c
 9397 07e9 04060000 		.4byte	.LASF95
 9398 07ed 05       		.byte	0x5
 9399 07ee 4D       		.byte	0x4d
 9400 07ef F9070000 		.4byte	0x7f9
 9401 07f3 05       		.uleb128 0x5
 9402 07f4 03       		.byte	0x3
 9403 07f5 00000000 		.4byte	id_estacion
 9404 07f9 05       		.uleb128 0x5
 9405 07fa 79020000 		.4byte	0x279
 9406 07fe 1C       		.uleb128 0x1c
 9407 07ff 09020000 		.4byte	.LASF96
 9408 0803 05       		.byte	0x5
 9409 0804 4E       		.byte	0x4e
 9410 0805 0F080000 		.4byte	0x80f
 9411 0809 05       		.uleb128 0x5
 9412 080a 03       		.byte	0x3
 9413 080b 00000000 		.4byte	id_venta
 9414 080f 05       		.uleb128 0x5
 9415 0810 99020000 		.4byte	0x299
 9416 0814 06       		.uleb128 0x6
 9417 0815 81000000 		.4byte	0x81
 9418 0819 24080000 		.4byte	0x824
 9419 081d 07       		.uleb128 0x7
 9420 081e B6000000 		.4byte	0xb6
 9421 0822 C7       		.byte	0xc7
 9422 0823 00       		.byte	0
 9423 0824 1C       		.uleb128 0x1c
 9424 0825 5A000000 		.4byte	.LASF97
 9425 0829 05       		.byte	0x5
 9426 082a 4F       		.byte	0x4f
 9427 082b 35080000 		.4byte	0x835
 9428 082f 05       		.uleb128 0x5
 9429 0830 03       		.byte	0x3
 9430 0831 00000000 		.4byte	trama_totales
 9431 0835 05       		.uleb128 0x5
 9432 0836 14080000 		.4byte	0x814
ARM GAS  C:\Users\diego\AppData\Local\Temp\ccW8UKJI.s 			page 205


 9433 083a 1C       		.uleb128 0x1c
 9434 083b 3E040000 		.4byte	.LASF98
 9435 083f 05       		.byte	0x5
 9436 0840 53       		.byte	0x53
 9437 0841 AC000000 		.4byte	0xac
 9438 0845 05       		.uleb128 0x5
 9439 0846 03       		.byte	0x3
 9440 0847 00000000 		.4byte	ppux10
 9441 084b 06       		.uleb128 0x6
 9442 084c 81000000 		.4byte	0x81
 9443 0850 5B080000 		.4byte	0x85b
 9444 0854 07       		.uleb128 0x7
 9445 0855 B6000000 		.4byte	0xb6
 9446 0859 10       		.byte	0x10
 9447 085a 00       		.byte	0
 9448 085b 1C       		.uleb128 0x1c
 9449 085c DE040000 		.4byte	.LASF99
 9450 0860 05       		.byte	0x5
 9451 0861 54       		.byte	0x54
 9452 0862 6C080000 		.4byte	0x86c
 9453 0866 05       		.uleb128 0x5
 9454 0867 03       		.byte	0x3
 9455 0868 00000000 		.4byte	nombre_pro1
 9456 086c 05       		.uleb128 0x5
 9457 086d 4B080000 		.4byte	0x84b
 9458 0871 1C       		.uleb128 0x1c
 9459 0872 B5050000 		.4byte	.LASF100
 9460 0876 05       		.byte	0x5
 9461 0877 54       		.byte	0x54
 9462 0878 82080000 		.4byte	0x882
 9463 087c 05       		.uleb128 0x5
 9464 087d 03       		.byte	0x3
 9465 087e 00000000 		.4byte	nombre_pro2
 9466 0882 05       		.uleb128 0x5
 9467 0883 4B080000 		.4byte	0x84b
 9468 0887 1C       		.uleb128 0x1c
 9469 0888 EA040000 		.4byte	.LASF101
 9470 088c 05       		.byte	0x5
 9471 088d 54       		.byte	0x54
 9472 088e 98080000 		.4byte	0x898
 9473 0892 05       		.uleb128 0x5
 9474 0893 03       		.byte	0x3
 9475 0894 00000000 		.4byte	nombre_pro3
 9476 0898 05       		.uleb128 0x5
 9477 0899 4B080000 		.4byte	0x84b
 9478 089d 1C       		.uleb128 0x1c
 9479 089e 9E000000 		.4byte	.LASF102
 9480 08a2 05       		.byte	0x5
 9481 08a3 55       		.byte	0x55
 9482 08a4 AE080000 		.4byte	0x8ae
 9483 08a8 05       		.uleb128 0x5
 9484 08a9 03       		.byte	0x3
 9485 08aa 00000000 		.4byte	version
 9486 08ae 05       		.uleb128 0x5
 9487 08af CD000000 		.4byte	0xcd
 9488 08b3 1C       		.uleb128 0x1c
 9489 08b4 97010000 		.4byte	.LASF103
ARM GAS  C:\Users\diego\AppData\Local\Temp\ccW8UKJI.s 			page 206


 9490 08b8 05       		.byte	0x5
 9491 08b9 5F       		.byte	0x5f
 9492 08ba E4000000 		.4byte	0xe4
 9493 08be 05       		.uleb128 0x5
 9494 08bf 03       		.byte	0x3
 9495 08c0 00000000 		.4byte	lado1
 9496 08c4 1C       		.uleb128 0x1c
 9497 08c5 9D010000 		.4byte	.LASF104
 9498 08c9 05       		.byte	0x5
 9499 08ca 60       		.byte	0x60
 9500 08cb E4000000 		.4byte	0xe4
 9501 08cf 05       		.uleb128 0x5
 9502 08d0 03       		.byte	0x3
 9503 08d1 00000000 		.4byte	lado2
 9504 08d5 06       		.uleb128 0x6
 9505 08d6 81000000 		.4byte	0x81
 9506 08da E5080000 		.4byte	0x8e5
 9507 08de 07       		.uleb128 0x7
 9508 08df B6000000 		.4byte	0xb6
 9509 08e3 20       		.byte	0x20
 9510 08e4 00       		.byte	0
 9511 08e5 1C       		.uleb128 0x1c
 9512 08e6 45040000 		.4byte	.LASF105
 9513 08ea 05       		.byte	0x5
 9514 08eb 64       		.byte	0x64
 9515 08ec F6080000 		.4byte	0x8f6
 9516 08f0 05       		.uleb128 0x5
 9517 08f1 03       		.byte	0x3
 9518 08f2 00000000 		.4byte	nombre
 9519 08f6 05       		.uleb128 0x5
 9520 08f7 D5080000 		.4byte	0x8d5
 9521 08fb 06       		.uleb128 0x6
 9522 08fc 81000000 		.4byte	0x81
 9523 0900 0B090000 		.4byte	0x90b
 9524 0904 07       		.uleb128 0x7
 9525 0905 B6000000 		.4byte	0xb6
 9526 0909 0E       		.byte	0xe
 9527 090a 00       		.byte	0
 9528 090b 1D       		.uleb128 0x1d
 9529 090c 6E697400 		.ascii	"nit\000"
 9530 0910 05       		.byte	0x5
 9531 0911 65       		.byte	0x65
 9532 0912 1C090000 		.4byte	0x91c
 9533 0916 05       		.uleb128 0x5
 9534 0917 03       		.byte	0x3
 9535 0918 00000000 		.4byte	nit
 9536 091c 05       		.uleb128 0x5
 9537 091d FB080000 		.4byte	0x8fb
 9538 0921 06       		.uleb128 0x6
 9539 0922 81000000 		.4byte	0x81
 9540 0926 31090000 		.4byte	0x931
 9541 092a 07       		.uleb128 0x7
 9542 092b B6000000 		.4byte	0xb6
 9543 092f 13       		.byte	0x13
 9544 0930 00       		.byte	0
 9545 0931 1C       		.uleb128 0x1c
 9546 0932 DD010000 		.4byte	.LASF106
ARM GAS  C:\Users\diego\AppData\Local\Temp\ccW8UKJI.s 			page 207


 9547 0936 05       		.byte	0x5
 9548 0937 66       		.byte	0x66
 9549 0938 42090000 		.4byte	0x942
 9550 093c 05       		.uleb128 0x5
 9551 093d 03       		.byte	0x3
 9552 093e 00000000 		.4byte	telefono
 9553 0942 05       		.uleb128 0x5
 9554 0943 21090000 		.4byte	0x921
 9555 0947 1C       		.uleb128 0x1c
 9556 0948 0D010000 		.4byte	.LASF107
 9557 094c 05       		.byte	0x5
 9558 094d 67       		.byte	0x67
 9559 094e 58090000 		.4byte	0x958
 9560 0952 05       		.uleb128 0x5
 9561 0953 03       		.byte	0x3
 9562 0954 00000000 		.4byte	direccion
 9563 0958 05       		.uleb128 0x5
 9564 0959 D5080000 		.4byte	0x8d5
 9565 095d 06       		.uleb128 0x6
 9566 095e 81000000 		.4byte	0x81
 9567 0962 6D090000 		.4byte	0x96d
 9568 0966 07       		.uleb128 0x7
 9569 0967 B6000000 		.4byte	0xb6
 9570 096b 1F       		.byte	0x1f
 9571 096c 00       		.byte	0
 9572 096d 1C       		.uleb128 0x1c
 9573 096e E2000000 		.4byte	.LASF108
 9574 0972 05       		.byte	0x5
 9575 0973 68       		.byte	0x68
 9576 0974 7E090000 		.4byte	0x97e
 9577 0978 05       		.uleb128 0x5
 9578 0979 03       		.byte	0x3
 9579 097a 00000000 		.4byte	lema1
 9580 097e 05       		.uleb128 0x5
 9581 097f 5D090000 		.4byte	0x95d
 9582 0983 1C       		.uleb128 0x1c
 9583 0984 64010000 		.4byte	.LASF109
 9584 0988 05       		.byte	0x5
 9585 0989 69       		.byte	0x69
 9586 098a 94090000 		.4byte	0x994
 9587 098e 05       		.uleb128 0x5
 9588 098f 03       		.byte	0x3
 9589 0990 00000000 		.4byte	lema2
 9590 0994 05       		.uleb128 0x5
 9591 0995 5D090000 		.4byte	0x95d
 9592 0999 06       		.uleb128 0x6
 9593 099a 81000000 		.4byte	0x81
 9594 099e A9090000 		.4byte	0x9a9
 9595 09a2 07       		.uleb128 0x7
 9596 09a3 B6000000 		.4byte	0xb6
 9597 09a7 01       		.byte	0x1
 9598 09a8 00       		.byte	0
 9599 09a9 1C       		.uleb128 0x1c
 9600 09aa 56040000 		.4byte	.LASF110
 9601 09ae 05       		.byte	0x5
 9602 09af 6A       		.byte	0x6a
 9603 09b0 BA090000 		.4byte	0x9ba
ARM GAS  C:\Users\diego\AppData\Local\Temp\ccW8UKJI.s 			page 208


 9604 09b4 05       		.uleb128 0x5
 9605 09b5 03       		.byte	0x3
 9606 09b6 00000000 		.4byte	id_logo
 9607 09ba 05       		.uleb128 0x5
 9608 09bb 99090000 		.4byte	0x999
 9609 09bf 1D       		.uleb128 0x1d
 9610 09c0 6B6D00   		.ascii	"km\000"
 9611 09c3 05       		.byte	0x5
 9612 09c4 6B       		.byte	0x6b
 9613 09c5 CF090000 		.4byte	0x9cf
 9614 09c9 05       		.uleb128 0x5
 9615 09ca 03       		.byte	0x3
 9616 09cb 00000000 		.4byte	km
 9617 09cf 05       		.uleb128 0x5
 9618 09d0 99090000 		.4byte	0x999
 9619 09d4 1C       		.uleb128 0x1c
 9620 09d5 8B050000 		.4byte	.LASF111
 9621 09d9 05       		.byte	0x5
 9622 09da 6C       		.byte	0x6c
 9623 09db C2070000 		.4byte	0x7c2
 9624 09df 05       		.uleb128 0x5
 9625 09e0 03       		.byte	0x3
 9626 09e1 00000000 		.4byte	fecha
 9627 09e5 1C       		.uleb128 0x1c
 9628 09e6 CD000000 		.4byte	.LASF112
 9629 09ea 05       		.byte	0x5
 9630 09eb 6D       		.byte	0x6d
 9631 09ec 99090000 		.4byte	0x999
 9632 09f0 05       		.uleb128 0x5
 9633 09f1 03       		.byte	0x3
 9634 09f2 00000000 		.4byte	hora
 9635 09f6 1C       		.uleb128 0x1c
 9636 09f7 FD000000 		.4byte	.LASF113
 9637 09fb 05       		.byte	0x5
 9638 09fc 83       		.byte	0x83
 9639 09fd 8A010000 		.4byte	0x18a
 9640 0a01 05       		.uleb128 0x5
 9641 0a02 03       		.byte	0x3
 9642 0a03 00000000 		.4byte	rventa1
 9643 0a07 1C       		.uleb128 0x1c
 9644 0a08 05010000 		.4byte	.LASF114
 9645 0a0c 05       		.byte	0x5
 9646 0a0d 84       		.byte	0x84
 9647 0a0e 8A010000 		.4byte	0x18a
 9648 0a12 05       		.uleb128 0x5
 9649 0a13 03       		.byte	0x3
 9650 0a14 00000000 		.4byte	rventa2
 9651 0a18 1C       		.uleb128 0x1c
 9652 0a19 BC000000 		.4byte	.LASF115
 9653 0a1d 05       		.byte	0x5
 9654 0a1e 89       		.byte	0x89
 9655 0a1f 81000000 		.4byte	0x81
 9656 0a23 05       		.uleb128 0x5
 9657 0a24 03       		.byte	0x3
 9658 0a25 00000000 		.4byte	ok_RF
 9659 0a29 1C       		.uleb128 0x1c
 9660 0a2a 91050000 		.4byte	.LASF116
ARM GAS  C:\Users\diego\AppData\Local\Temp\ccW8UKJI.s 			page 209


 9661 0a2e 05       		.byte	0x5
 9662 0a2f 8A       		.byte	0x8a
 9663 0a30 81000000 		.4byte	0x81
 9664 0a34 05       		.uleb128 0x5
 9665 0a35 03       		.byte	0x3
 9666 0a36 00000000 		.4byte	ok_datosRF
 9667 0a3a 1C       		.uleb128 0x1c
 9668 0a3b 12020000 		.4byte	.LASF117
 9669 0a3f 05       		.byte	0x5
 9670 0a40 8B       		.byte	0x8b
 9671 0a41 14080000 		.4byte	0x814
 9672 0a45 05       		.uleb128 0x5
 9673 0a46 03       		.byte	0x3
 9674 0a47 00000000 		.4byte	rf_mod
 9675 0a4b 06       		.uleb128 0x6
 9676 0a4c 81000000 		.4byte	0x81
 9677 0a50 5B0A0000 		.4byte	0xa5b
 9678 0a54 07       		.uleb128 0x7
 9679 0a55 B6000000 		.4byte	0xb6
 9680 0a59 3F       		.byte	0x3f
 9681 0a5a 00       		.byte	0
 9682 0a5b 1C       		.uleb128 0x1c
 9683 0a5c 4A010000 		.4byte	.LASF118
 9684 0a60 05       		.byte	0x5
 9685 0a61 90       		.byte	0x90
 9686 0a62 4B0A0000 		.4byte	0xa4b
 9687 0a66 05       		.uleb128 0x5
 9688 0a67 03       		.byte	0x3
 9689 0a68 00000000 		.4byte	buffer_i2c
 9690 0a6c 1C       		.uleb128 0x1c
 9691 0a6d 4C040000 		.4byte	.LASF119
 9692 0a71 05       		.byte	0x5
 9693 0a72 95       		.byte	0x95
 9694 0a73 81000000 		.4byte	0x81
 9695 0a77 05       		.uleb128 0x5
 9696 0a78 03       		.byte	0x3
 9697 0a79 00000000 		.4byte	crc_total
 9698 0a7d 1C       		.uleb128 0x1c
 9699 0a7e 8F020000 		.4byte	.LASF120
 9700 0a82 05       		.byte	0x5
 9701 0a83 99       		.byte	0x99
 9702 0a84 99090000 		.4byte	0x999
 9703 0a88 05       		.uleb128 0x5
 9704 0a89 03       		.byte	0x3
 9705 0a8a 00000000 		.4byte	print1
 9706 0a8e 1C       		.uleb128 0x1c
 9707 0a8f 96020000 		.4byte	.LASF121
 9708 0a93 05       		.byte	0x5
 9709 0a94 9A       		.byte	0x9a
 9710 0a95 99090000 		.4byte	0x999
 9711 0a99 05       		.uleb128 0x5
 9712 0a9a 03       		.byte	0x3
 9713 0a9b 00000000 		.4byte	print2
 9714 0a9f 1C       		.uleb128 0x1c
 9715 0aa0 9D020000 		.4byte	.LASF33
 9716 0aa4 05       		.byte	0x5
 9717 0aa5 9F       		.byte	0x9f
ARM GAS  C:\Users\diego\AppData\Local\Temp\ccW8UKJI.s 			page 210


 9718 0aa6 81000000 		.4byte	0x81
 9719 0aaa 05       		.uleb128 0x5
 9720 0aab 03       		.byte	0x3
 9721 0aac 00000000 		.4byte	tipo_venta
 9722 0ab0 06       		.uleb128 0x6
 9723 0ab1 81000000 		.4byte	0x81
 9724 0ab5 C00A0000 		.4byte	0xac0
 9725 0ab9 07       		.uleb128 0x7
 9726 0aba B6000000 		.4byte	0xb6
 9727 0abe 19       		.byte	0x19
 9728 0abf 00       		.byte	0
 9729 0ac0 1C       		.uleb128 0x1c
 9730 0ac1 AC010000 		.4byte	.LASF122
 9731 0ac5 01       		.byte	0x1
 9732 0ac6 35       		.byte	0x35
 9733 0ac7 B00A0000 		.4byte	0xab0
 9734 0acb 05       		.uleb128 0x5
 9735 0acc 03       		.byte	0x3
 9736 0acd 00000000 		.4byte	letras
 9737 0ad1 1C       		.uleb128 0x1c
 9738 0ad2 A8050000 		.4byte	.LASF123
 9739 0ad6 01       		.byte	0x1
 9740 0ad7 36       		.byte	0x36
 9741 0ad8 79020000 		.4byte	0x279
 9742 0adc 05       		.uleb128 0x5
 9743 0add 03       		.byte	0x3
 9744 0ade 00000000 		.4byte	clave_config
 9745 0ae2 06       		.uleb128 0x6
 9746 0ae3 81000000 		.4byte	0x81
 9747 0ae7 F20A0000 		.4byte	0xaf2
 9748 0aeb 07       		.uleb128 0x7
 9749 0aec B6000000 		.4byte	0xb6
 9750 0af0 11       		.byte	0x11
 9751 0af1 00       		.byte	0
 9752 0af2 1C       		.uleb128 0x1c
 9753 0af3 B0000000 		.4byte	.LASF124
 9754 0af7 01       		.byte	0x1
 9755 0af8 37       		.byte	0x37
 9756 0af9 E20A0000 		.4byte	0xae2
 9757 0afd 05       		.uleb128 0x5
 9758 0afe 03       		.byte	0x3
 9759 0aff 00000000 		.4byte	test
 9760 0b03 1C       		.uleb128 0x1c
 9761 0b04 7A000000 		.4byte	.LASF125
 9762 0b08 01       		.byte	0x1
 9763 0b09 38       		.byte	0x38
 9764 0b0a 8C000000 		.4byte	0x8c
 9765 0b0e 05       		.uleb128 0x5
 9766 0b0f 03       		.byte	0x3
 9767 0b10 00000000 		.4byte	num_decimal2
 9768 0b14 1C       		.uleb128 0x1c
 9769 0b15 CF010000 		.4byte	.LASF126
 9770 0b19 01       		.byte	0x1
 9771 0b1a 3C       		.byte	0x3c
 9772 0b1b 99020000 		.4byte	0x299
 9773 0b1f 05       		.uleb128 0x5
 9774 0b20 03       		.byte	0x3
ARM GAS  C:\Users\diego\AppData\Local\Temp\ccW8UKJI.s 			page 211


 9775 0b21 00000000 		.4byte	idaux
 9776 0b25 1C       		.uleb128 0x1c
 9777 0b26 C6010000 		.4byte	.LASF127
 9778 0b2a 01       		.byte	0x1
 9779 0b2b 3D       		.byte	0x3d
 9780 0b2c 81000000 		.4byte	0x81
 9781 0b30 05       		.uleb128 0x5
 9782 0b31 03       		.byte	0x3
 9783 0b32 00000000 		.4byte	state_rf
 9784 0b36 1C       		.uleb128 0x1c
 9785 0b37 5D050000 		.4byte	.LASF128
 9786 0b3b 01       		.byte	0x1
 9787 0b3c 3E       		.byte	0x3e
 9788 0b3d 8C000000 		.4byte	0x8c
 9789 0b41 05       		.uleb128 0x5
 9790 0b42 03       		.byte	0x3
 9791 0b43 00000000 		.4byte	timeout_autorizacion
 9792 0b47 1C       		.uleb128 0x1c
 9793 0b48 48000000 		.4byte	.LASF129
 9794 0b4c 01       		.byte	0x1
 9795 0b4d 3F       		.byte	0x3f
 9796 0b4e 81000000 		.4byte	0x81
 9797 0b52 05       		.uleb128 0x5
 9798 0b53 03       		.byte	0x3
 9799 0b54 00000000 		.4byte	estado_tanqueando
 9800 0b58 1C       		.uleb128 0x1c
 9801 0b59 2E060000 		.4byte	.LASF130
 9802 0b5d 01       		.byte	0x1
 9803 0b5e 40       		.byte	0x40
 9804 0b5f 81000000 		.4byte	0x81
 9805 0b63 05       		.uleb128 0x5
 9806 0b64 03       		.byte	0x3
 9807 0b65 00000000 		.4byte	consulta_sistema
 9808 0b69 1C       		.uleb128 0x1c
 9809 0b6a 9C050000 		.4byte	.LASF131
 9810 0b6e 01       		.byte	0x1
 9811 0b6f 41       		.byte	0x41
 9812 0b70 CD000000 		.4byte	0xcd
 9813 0b74 05       		.uleb128 0x5
 9814 0b75 03       		.byte	0x3
 9815 0b76 00000000 		.4byte	clave_local
 9816 0b7a 1C       		.uleb128 0x1c
 9817 0b7b E8000000 		.4byte	.LASF132
 9818 0b7f 01       		.byte	0x1
 9819 0b80 42       		.byte	0x42
 9820 0b81 81000000 		.4byte	0x81
 9821 0b85 05       		.uleb128 0x5
 9822 0b86 03       		.byte	0x3
 9823 0b87 00000000 		.4byte	v_digitos_1
 9824 0b8b 1C       		.uleb128 0x1c
 9825 0b8c C2000000 		.4byte	.LASF133
 9826 0b90 01       		.byte	0x1
 9827 0b91 43       		.byte	0x43
 9828 0b92 81000000 		.4byte	0x81
 9829 0b96 05       		.uleb128 0x5
 9830 0b97 03       		.byte	0x3
 9831 0b98 00000000 		.4byte	ppuinicial
ARM GAS  C:\Users\diego\AppData\Local\Temp\ccW8UKJI.s 			page 212


 9832 0b9c 1C       		.uleb128 0x1c
 9833 0b9d E9050000 		.4byte	.LASF134
 9834 0ba1 01       		.byte	0x1
 9835 0ba2 44       		.byte	0x44
 9836 0ba3 81000000 		.4byte	0x81
 9837 0ba7 05       		.uleb128 0x5
 9838 0ba8 03       		.byte	0x3
 9839 0ba9 00000000 		.4byte	Producto
 9840 0bad 1C       		.uleb128 0x1c
 9841 0bae 09040000 		.4byte	.LASF135
 9842 0bb2 01       		.byte	0x1
 9843 0bb3 45       		.byte	0x45
 9844 0bb4 CD000000 		.4byte	0xcd
 9845 0bb8 05       		.uleb128 0x5
 9846 0bb9 03       		.byte	0x3
 9847 0bba 00000000 		.4byte	Productos
 9848 0bbe 1C       		.uleb128 0x1c
 9849 0bbf AC040000 		.4byte	.LASF136
 9850 0bc3 01       		.byte	0x1
 9851 0bc4 46       		.byte	0x46
 9852 0bc5 81000000 		.4byte	0x81
 9853 0bc9 05       		.uleb128 0x5
 9854 0bca 03       		.byte	0x3
 9855 0bcb 00000000 		.4byte	producto1
 9856 0bcf 1C       		.uleb128 0x1c
 9857 0bd0 B6040000 		.4byte	.LASF137
 9858 0bd4 01       		.byte	0x1
 9859 0bd5 46       		.byte	0x46
 9860 0bd6 81000000 		.4byte	0x81
 9861 0bda 05       		.uleb128 0x5
 9862 0bdb 03       		.byte	0x3
 9863 0bdc 00000000 		.4byte	producto2
 9864 0be0 1C       		.uleb128 0x1c
 9865 0be1 C0040000 		.4byte	.LASF138
 9866 0be5 01       		.byte	0x1
 9867 0be6 46       		.byte	0x46
 9868 0be7 81000000 		.4byte	0x81
 9869 0beb 05       		.uleb128 0x5
 9870 0bec 03       		.byte	0x3
 9871 0bed 00000000 		.4byte	producto3
 9872 0bf1 1C       		.uleb128 0x1c
 9873 0bf2 CA040000 		.4byte	.LASF139
 9874 0bf6 01       		.byte	0x1
 9875 0bf7 46       		.byte	0x46
 9876 0bf8 81000000 		.4byte	0x81
 9877 0bfc 05       		.uleb128 0x5
 9878 0bfd 03       		.byte	0x3
 9879 0bfe 00000000 		.4byte	producto4
 9880 0c02 1C       		.uleb128 0x1c
 9881 0c03 1A050000 		.4byte	.LASF140
 9882 0c07 01       		.byte	0x1
 9883 0c08 47       		.byte	0x47
 9884 0c09 81000000 		.4byte	0x81
 9885 0c0d 05       		.uleb128 0x5
 9886 0c0e 03       		.byte	0x3
 9887 0c0f 00000000 		.4byte	status1LP
 9888 0c13 1C       		.uleb128 0x1c
ARM GAS  C:\Users\diego\AppData\Local\Temp\ccW8UKJI.s 			page 213


 9889 0c14 DE030000 		.4byte	.LASF141
 9890 0c18 01       		.byte	0x1
 9891 0c19 47       		.byte	0x47
 9892 0c1a 81000000 		.4byte	0x81
 9893 0c1e 05       		.uleb128 0x5
 9894 0c1f 03       		.byte	0x3
 9895 0c20 00000000 		.4byte	status2LP
 9896 0c24 1C       		.uleb128 0x1c
 9897 0c25 24060000 		.4byte	.LASF142
 9898 0c29 01       		.byte	0x1
 9899 0c2a 47       		.byte	0x47
 9900 0c2b 81000000 		.4byte	0x81
 9901 0c2f 05       		.uleb128 0x5
 9902 0c30 03       		.byte	0x3
 9903 0c31 00000000 		.4byte	status1st
 9904 0c35 1C       		.uleb128 0x1c
 9905 0c36 10050000 		.4byte	.LASF143
 9906 0c3a 01       		.byte	0x1
 9907 0c3b 47       		.byte	0x47
 9908 0c3c 81000000 		.4byte	0x81
 9909 0c40 05       		.uleb128 0x5
 9910 0c41 03       		.byte	0x3
 9911 0c42 00000000 		.4byte	status2st
 9912 0c46 00       		.byte	0
 9913              		.section	.debug_abbrev,"",%progbits
 9914              	.Ldebug_abbrev0:
 9915 0000 01       		.uleb128 0x1
 9916 0001 11       		.uleb128 0x11
 9917 0002 01       		.byte	0x1
 9918 0003 25       		.uleb128 0x25
 9919 0004 0E       		.uleb128 0xe
 9920 0005 13       		.uleb128 0x13
 9921 0006 0B       		.uleb128 0xb
 9922 0007 03       		.uleb128 0x3
 9923 0008 0E       		.uleb128 0xe
 9924 0009 1B       		.uleb128 0x1b
 9925 000a 0E       		.uleb128 0xe
 9926 000b 55       		.uleb128 0x55
 9927 000c 17       		.uleb128 0x17
 9928 000d 11       		.uleb128 0x11
 9929 000e 01       		.uleb128 0x1
 9930 000f 10       		.uleb128 0x10
 9931 0010 17       		.uleb128 0x17
 9932 0011 00       		.byte	0
 9933 0012 00       		.byte	0
 9934 0013 02       		.uleb128 0x2
 9935 0014 24       		.uleb128 0x24
 9936 0015 00       		.byte	0
 9937 0016 0B       		.uleb128 0xb
 9938 0017 0B       		.uleb128 0xb
 9939 0018 3E       		.uleb128 0x3e
 9940 0019 0B       		.uleb128 0xb
 9941 001a 03       		.uleb128 0x3
 9942 001b 0E       		.uleb128 0xe
 9943 001c 00       		.byte	0
 9944 001d 00       		.byte	0
 9945 001e 03       		.uleb128 0x3
ARM GAS  C:\Users\diego\AppData\Local\Temp\ccW8UKJI.s 			page 214


 9946 001f 16       		.uleb128 0x16
 9947 0020 00       		.byte	0
 9948 0021 03       		.uleb128 0x3
 9949 0022 0E       		.uleb128 0xe
 9950 0023 3A       		.uleb128 0x3a
 9951 0024 0B       		.uleb128 0xb
 9952 0025 3B       		.uleb128 0x3b
 9953 0026 0B       		.uleb128 0xb
 9954 0027 49       		.uleb128 0x49
 9955 0028 13       		.uleb128 0x13
 9956 0029 00       		.byte	0
 9957 002a 00       		.byte	0
 9958 002b 04       		.uleb128 0x4
 9959 002c 24       		.uleb128 0x24
 9960 002d 00       		.byte	0
 9961 002e 0B       		.uleb128 0xb
 9962 002f 0B       		.uleb128 0xb
 9963 0030 3E       		.uleb128 0x3e
 9964 0031 0B       		.uleb128 0xb
 9965 0032 03       		.uleb128 0x3
 9966 0033 08       		.uleb128 0x8
 9967 0034 00       		.byte	0
 9968 0035 00       		.byte	0
 9969 0036 05       		.uleb128 0x5
 9970 0037 35       		.uleb128 0x35
 9971 0038 00       		.byte	0
 9972 0039 49       		.uleb128 0x49
 9973 003a 13       		.uleb128 0x13
 9974 003b 00       		.byte	0
 9975 003c 00       		.byte	0
 9976 003d 06       		.uleb128 0x6
 9977 003e 01       		.uleb128 0x1
 9978 003f 01       		.byte	0x1
 9979 0040 49       		.uleb128 0x49
 9980 0041 13       		.uleb128 0x13
 9981 0042 01       		.uleb128 0x1
 9982 0043 13       		.uleb128 0x13
 9983 0044 00       		.byte	0
 9984 0045 00       		.byte	0
 9985 0046 07       		.uleb128 0x7
 9986 0047 21       		.uleb128 0x21
 9987 0048 00       		.byte	0
 9988 0049 49       		.uleb128 0x49
 9989 004a 13       		.uleb128 0x13
 9990 004b 2F       		.uleb128 0x2f
 9991 004c 0B       		.uleb128 0xb
 9992 004d 00       		.byte	0
 9993 004e 00       		.byte	0
 9994 004f 08       		.uleb128 0x8
 9995 0050 13       		.uleb128 0x13
 9996 0051 01       		.byte	0x1
 9997 0052 03       		.uleb128 0x3
 9998 0053 0E       		.uleb128 0xe
 9999 0054 0B       		.uleb128 0xb
 10000 0055 0B       		.uleb128 0xb
 10001 0056 3A       		.uleb128 0x3a
 10002 0057 0B       		.uleb128 0xb
ARM GAS  C:\Users\diego\AppData\Local\Temp\ccW8UKJI.s 			page 215


 10003 0058 3B       		.uleb128 0x3b
 10004 0059 0B       		.uleb128 0xb
 10005 005a 01       		.uleb128 0x1
 10006 005b 13       		.uleb128 0x13
 10007 005c 00       		.byte	0
 10008 005d 00       		.byte	0
 10009 005e 09       		.uleb128 0x9
 10010 005f 0D       		.uleb128 0xd
 10011 0060 00       		.byte	0
 10012 0061 03       		.uleb128 0x3
 10013 0062 08       		.uleb128 0x8
 10014 0063 3A       		.uleb128 0x3a
 10015 0064 0B       		.uleb128 0xb
 10016 0065 3B       		.uleb128 0x3b
 10017 0066 0B       		.uleb128 0xb
 10018 0067 49       		.uleb128 0x49
 10019 0068 13       		.uleb128 0x13
 10020 0069 38       		.uleb128 0x38
 10021 006a 0B       		.uleb128 0xb
 10022 006b 00       		.byte	0
 10023 006c 00       		.byte	0
 10024 006d 0A       		.uleb128 0xa
 10025 006e 0D       		.uleb128 0xd
 10026 006f 00       		.byte	0
 10027 0070 03       		.uleb128 0x3
 10028 0071 0E       		.uleb128 0xe
 10029 0072 3A       		.uleb128 0x3a
 10030 0073 0B       		.uleb128 0xb
 10031 0074 3B       		.uleb128 0x3b
 10032 0075 0B       		.uleb128 0xb
 10033 0076 49       		.uleb128 0x49
 10034 0077 13       		.uleb128 0x13
 10035 0078 38       		.uleb128 0x38
 10036 0079 0B       		.uleb128 0xb
 10037 007a 00       		.byte	0
 10038 007b 00       		.byte	0
 10039 007c 0B       		.uleb128 0xb
 10040 007d 2E       		.uleb128 0x2e
 10041 007e 01       		.byte	0x1
 10042 007f 3F       		.uleb128 0x3f
 10043 0080 19       		.uleb128 0x19
 10044 0081 03       		.uleb128 0x3
 10045 0082 0E       		.uleb128 0xe
 10046 0083 3A       		.uleb128 0x3a
 10047 0084 0B       		.uleb128 0xb
 10048 0085 3B       		.uleb128 0x3b
 10049 0086 0B       		.uleb128 0xb
 10050 0087 27       		.uleb128 0x27
 10051 0088 19       		.uleb128 0x19
 10052 0089 11       		.uleb128 0x11
 10053 008a 01       		.uleb128 0x1
 10054 008b 12       		.uleb128 0x12
 10055 008c 06       		.uleb128 0x6
 10056 008d 40       		.uleb128 0x40
 10057 008e 18       		.uleb128 0x18
 10058 008f 9642     		.uleb128 0x2116
 10059 0091 19       		.uleb128 0x19
ARM GAS  C:\Users\diego\AppData\Local\Temp\ccW8UKJI.s 			page 216


 10060 0092 01       		.uleb128 0x1
 10061 0093 13       		.uleb128 0x13
 10062 0094 00       		.byte	0
 10063 0095 00       		.byte	0
 10064 0096 0C       		.uleb128 0xc
 10065 0097 34       		.uleb128 0x34
 10066 0098 00       		.byte	0
 10067 0099 03       		.uleb128 0x3
 10068 009a 08       		.uleb128 0x8
 10069 009b 3A       		.uleb128 0x3a
 10070 009c 0B       		.uleb128 0xb
 10071 009d 3B       		.uleb128 0x3b
 10072 009e 0B       		.uleb128 0xb
 10073 009f 49       		.uleb128 0x49
 10074 00a0 13       		.uleb128 0x13
 10075 00a1 02       		.uleb128 0x2
 10076 00a2 18       		.uleb128 0x18
 10077 00a3 00       		.byte	0
 10078 00a4 00       		.byte	0
 10079 00a5 0D       		.uleb128 0xd
 10080 00a6 2E       		.uleb128 0x2e
 10081 00a7 01       		.byte	0x1
 10082 00a8 3F       		.uleb128 0x3f
 10083 00a9 19       		.uleb128 0x19
 10084 00aa 03       		.uleb128 0x3
 10085 00ab 0E       		.uleb128 0xe
 10086 00ac 3A       		.uleb128 0x3a
 10087 00ad 0B       		.uleb128 0xb
 10088 00ae 3B       		.uleb128 0x3b
 10089 00af 0B       		.uleb128 0xb
 10090 00b0 27       		.uleb128 0x27
 10091 00b1 19       		.uleb128 0x19
 10092 00b2 49       		.uleb128 0x49
 10093 00b3 13       		.uleb128 0x13
 10094 00b4 11       		.uleb128 0x11
 10095 00b5 01       		.uleb128 0x1
 10096 00b6 12       		.uleb128 0x12
 10097 00b7 06       		.uleb128 0x6
 10098 00b8 40       		.uleb128 0x40
 10099 00b9 18       		.uleb128 0x18
 10100 00ba 9642     		.uleb128 0x2116
 10101 00bc 19       		.uleb128 0x19
 10102 00bd 01       		.uleb128 0x1
 10103 00be 13       		.uleb128 0x13
 10104 00bf 00       		.byte	0
 10105 00c0 00       		.byte	0
 10106 00c1 0E       		.uleb128 0xe
 10107 00c2 05       		.uleb128 0x5
 10108 00c3 00       		.byte	0
 10109 00c4 03       		.uleb128 0x3
 10110 00c5 0E       		.uleb128 0xe
 10111 00c6 3A       		.uleb128 0x3a
 10112 00c7 0B       		.uleb128 0xb
 10113 00c8 3B       		.uleb128 0x3b
 10114 00c9 0B       		.uleb128 0xb
 10115 00ca 49       		.uleb128 0x49
 10116 00cb 13       		.uleb128 0x13
ARM GAS  C:\Users\diego\AppData\Local\Temp\ccW8UKJI.s 			page 217


 10117 00cc 02       		.uleb128 0x2
 10118 00cd 18       		.uleb128 0x18
 10119 00ce 00       		.byte	0
 10120 00cf 00       		.byte	0
 10121 00d0 0F       		.uleb128 0xf
 10122 00d1 34       		.uleb128 0x34
 10123 00d2 00       		.byte	0
 10124 00d3 03       		.uleb128 0x3
 10125 00d4 0E       		.uleb128 0xe
 10126 00d5 3A       		.uleb128 0x3a
 10127 00d6 0B       		.uleb128 0xb
 10128 00d7 3B       		.uleb128 0x3b
 10129 00d8 0B       		.uleb128 0xb
 10130 00d9 49       		.uleb128 0x49
 10131 00da 13       		.uleb128 0x13
 10132 00db 02       		.uleb128 0x2
 10133 00dc 18       		.uleb128 0x18
 10134 00dd 00       		.byte	0
 10135 00de 00       		.byte	0
 10136 00df 10       		.uleb128 0x10
 10137 00e0 0F       		.uleb128 0xf
 10138 00e1 00       		.byte	0
 10139 00e2 0B       		.uleb128 0xb
 10140 00e3 0B       		.uleb128 0xb
 10141 00e4 49       		.uleb128 0x49
 10142 00e5 13       		.uleb128 0x13
 10143 00e6 00       		.byte	0
 10144 00e7 00       		.byte	0
 10145 00e8 11       		.uleb128 0x11
 10146 00e9 05       		.uleb128 0x5
 10147 00ea 00       		.byte	0
 10148 00eb 03       		.uleb128 0x3
 10149 00ec 08       		.uleb128 0x8
 10150 00ed 3A       		.uleb128 0x3a
 10151 00ee 0B       		.uleb128 0xb
 10152 00ef 3B       		.uleb128 0x3b
 10153 00f0 0B       		.uleb128 0xb
 10154 00f1 49       		.uleb128 0x49
 10155 00f2 13       		.uleb128 0x13
 10156 00f3 02       		.uleb128 0x2
 10157 00f4 18       		.uleb128 0x18
 10158 00f5 00       		.byte	0
 10159 00f6 00       		.byte	0
 10160 00f7 12       		.uleb128 0x12
 10161 00f8 2E       		.uleb128 0x2e
 10162 00f9 01       		.byte	0x1
 10163 00fa 3F       		.uleb128 0x3f
 10164 00fb 19       		.uleb128 0x19
 10165 00fc 03       		.uleb128 0x3
 10166 00fd 0E       		.uleb128 0xe
 10167 00fe 3A       		.uleb128 0x3a
 10168 00ff 0B       		.uleb128 0xb
 10169 0100 3B       		.uleb128 0x3b
 10170 0101 05       		.uleb128 0x5
 10171 0102 27       		.uleb128 0x27
 10172 0103 19       		.uleb128 0x19
 10173 0104 11       		.uleb128 0x11
ARM GAS  C:\Users\diego\AppData\Local\Temp\ccW8UKJI.s 			page 218


 10174 0105 01       		.uleb128 0x1
 10175 0106 12       		.uleb128 0x12
 10176 0107 06       		.uleb128 0x6
 10177 0108 40       		.uleb128 0x40
 10178 0109 18       		.uleb128 0x18
 10179 010a 9642     		.uleb128 0x2116
 10180 010c 19       		.uleb128 0x19
 10181 010d 01       		.uleb128 0x1
 10182 010e 13       		.uleb128 0x13
 10183 010f 00       		.byte	0
 10184 0110 00       		.byte	0
 10185 0111 13       		.uleb128 0x13
 10186 0112 34       		.uleb128 0x34
 10187 0113 00       		.byte	0
 10188 0114 03       		.uleb128 0x3
 10189 0115 0E       		.uleb128 0xe
 10190 0116 3A       		.uleb128 0x3a
 10191 0117 0B       		.uleb128 0xb
 10192 0118 3B       		.uleb128 0x3b
 10193 0119 05       		.uleb128 0x5
 10194 011a 49       		.uleb128 0x49
 10195 011b 13       		.uleb128 0x13
 10196 011c 02       		.uleb128 0x2
 10197 011d 18       		.uleb128 0x18
 10198 011e 00       		.byte	0
 10199 011f 00       		.byte	0
 10200 0120 14       		.uleb128 0x14
 10201 0121 34       		.uleb128 0x34
 10202 0122 00       		.byte	0
 10203 0123 03       		.uleb128 0x3
 10204 0124 08       		.uleb128 0x8
 10205 0125 3A       		.uleb128 0x3a
 10206 0126 0B       		.uleb128 0xb
 10207 0127 3B       		.uleb128 0x3b
 10208 0128 05       		.uleb128 0x5
 10209 0129 49       		.uleb128 0x49
 10210 012a 13       		.uleb128 0x13
 10211 012b 02       		.uleb128 0x2
 10212 012c 18       		.uleb128 0x18
 10213 012d 00       		.byte	0
 10214 012e 00       		.byte	0
 10215 012f 15       		.uleb128 0x15
 10216 0130 2E       		.uleb128 0x2e
 10217 0131 00       		.byte	0
 10218 0132 3F       		.uleb128 0x3f
 10219 0133 19       		.uleb128 0x19
 10220 0134 03       		.uleb128 0x3
 10221 0135 0E       		.uleb128 0xe
 10222 0136 3A       		.uleb128 0x3a
 10223 0137 0B       		.uleb128 0xb
 10224 0138 3B       		.uleb128 0x3b
 10225 0139 05       		.uleb128 0x5
 10226 013a 27       		.uleb128 0x27
 10227 013b 19       		.uleb128 0x19
 10228 013c 11       		.uleb128 0x11
 10229 013d 01       		.uleb128 0x1
 10230 013e 12       		.uleb128 0x12
ARM GAS  C:\Users\diego\AppData\Local\Temp\ccW8UKJI.s 			page 219


 10231 013f 06       		.uleb128 0x6
 10232 0140 40       		.uleb128 0x40
 10233 0141 18       		.uleb128 0x18
 10234 0142 9742     		.uleb128 0x2117
 10235 0144 19       		.uleb128 0x19
 10236 0145 00       		.byte	0
 10237 0146 00       		.byte	0
 10238 0147 16       		.uleb128 0x16
 10239 0148 34       		.uleb128 0x34
 10240 0149 00       		.byte	0
 10241 014a 03       		.uleb128 0x3
 10242 014b 0E       		.uleb128 0xe
 10243 014c 3A       		.uleb128 0x3a
 10244 014d 0B       		.uleb128 0xb
 10245 014e 3B       		.uleb128 0x3b
 10246 014f 05       		.uleb128 0x5
 10247 0150 49       		.uleb128 0x49
 10248 0151 13       		.uleb128 0x13
 10249 0152 00       		.byte	0
 10250 0153 00       		.byte	0
 10251 0154 17       		.uleb128 0x17
 10252 0155 2E       		.uleb128 0x2e
 10253 0156 00       		.byte	0
 10254 0157 3F       		.uleb128 0x3f
 10255 0158 19       		.uleb128 0x19
 10256 0159 03       		.uleb128 0x3
 10257 015a 0E       		.uleb128 0xe
 10258 015b 3A       		.uleb128 0x3a
 10259 015c 0B       		.uleb128 0xb
 10260 015d 3B       		.uleb128 0x3b
 10261 015e 05       		.uleb128 0x5
 10262 015f 27       		.uleb128 0x27
 10263 0160 19       		.uleb128 0x19
 10264 0161 11       		.uleb128 0x11
 10265 0162 01       		.uleb128 0x1
 10266 0163 12       		.uleb128 0x12
 10267 0164 06       		.uleb128 0x6
 10268 0165 40       		.uleb128 0x40
 10269 0166 18       		.uleb128 0x18
 10270 0167 9642     		.uleb128 0x2116
 10271 0169 19       		.uleb128 0x19
 10272 016a 00       		.byte	0
 10273 016b 00       		.byte	0
 10274 016c 18       		.uleb128 0x18
 10275 016d 34       		.uleb128 0x34
 10276 016e 00       		.byte	0
 10277 016f 03       		.uleb128 0x3
 10278 0170 08       		.uleb128 0x8
 10279 0171 3A       		.uleb128 0x3a
 10280 0172 0B       		.uleb128 0xb
 10281 0173 3B       		.uleb128 0x3b
 10282 0174 05       		.uleb128 0x5
 10283 0175 49       		.uleb128 0x49
 10284 0176 13       		.uleb128 0x13
 10285 0177 00       		.byte	0
 10286 0178 00       		.byte	0
 10287 0179 19       		.uleb128 0x19
ARM GAS  C:\Users\diego\AppData\Local\Temp\ccW8UKJI.s 			page 220


 10288 017a 2E       		.uleb128 0x2e
 10289 017b 00       		.byte	0
 10290 017c 3F       		.uleb128 0x3f
 10291 017d 19       		.uleb128 0x19
 10292 017e 03       		.uleb128 0x3
 10293 017f 0E       		.uleb128 0xe
 10294 0180 3A       		.uleb128 0x3a
 10295 0181 0B       		.uleb128 0xb
 10296 0182 3B       		.uleb128 0x3b
 10297 0183 05       		.uleb128 0x5
 10298 0184 49       		.uleb128 0x49
 10299 0185 13       		.uleb128 0x13
 10300 0186 11       		.uleb128 0x11
 10301 0187 01       		.uleb128 0x1
 10302 0188 12       		.uleb128 0x12
 10303 0189 06       		.uleb128 0x6
 10304 018a 40       		.uleb128 0x40
 10305 018b 18       		.uleb128 0x18
 10306 018c 9642     		.uleb128 0x2116
 10307 018e 19       		.uleb128 0x19
 10308 018f 00       		.byte	0
 10309 0190 00       		.byte	0
 10310 0191 1A       		.uleb128 0x1a
 10311 0192 34       		.uleb128 0x34
 10312 0193 00       		.byte	0
 10313 0194 03       		.uleb128 0x3
 10314 0195 0E       		.uleb128 0xe
 10315 0196 3A       		.uleb128 0x3a
 10316 0197 0B       		.uleb128 0xb
 10317 0198 3B       		.uleb128 0x3b
 10318 0199 05       		.uleb128 0x5
 10319 019a 49       		.uleb128 0x49
 10320 019b 13       		.uleb128 0x13
 10321 019c 3F       		.uleb128 0x3f
 10322 019d 19       		.uleb128 0x19
 10323 019e 3C       		.uleb128 0x3c
 10324 019f 19       		.uleb128 0x19
 10325 01a0 00       		.byte	0
 10326 01a1 00       		.byte	0
 10327 01a2 1B       		.uleb128 0x1b
 10328 01a3 21       		.uleb128 0x21
 10329 01a4 00       		.byte	0
 10330 01a5 49       		.uleb128 0x49
 10331 01a6 13       		.uleb128 0x13
 10332 01a7 2F       		.uleb128 0x2f
 10333 01a8 05       		.uleb128 0x5
 10334 01a9 00       		.byte	0
 10335 01aa 00       		.byte	0
 10336 01ab 1C       		.uleb128 0x1c
 10337 01ac 34       		.uleb128 0x34
 10338 01ad 00       		.byte	0
 10339 01ae 03       		.uleb128 0x3
 10340 01af 0E       		.uleb128 0xe
 10341 01b0 3A       		.uleb128 0x3a
 10342 01b1 0B       		.uleb128 0xb
 10343 01b2 3B       		.uleb128 0x3b
 10344 01b3 0B       		.uleb128 0xb
ARM GAS  C:\Users\diego\AppData\Local\Temp\ccW8UKJI.s 			page 221


 10345 01b4 49       		.uleb128 0x49
 10346 01b5 13       		.uleb128 0x13
 10347 01b6 3F       		.uleb128 0x3f
 10348 01b7 19       		.uleb128 0x19
 10349 01b8 02       		.uleb128 0x2
 10350 01b9 18       		.uleb128 0x18
 10351 01ba 00       		.byte	0
 10352 01bb 00       		.byte	0
 10353 01bc 1D       		.uleb128 0x1d
 10354 01bd 34       		.uleb128 0x34
 10355 01be 00       		.byte	0
 10356 01bf 03       		.uleb128 0x3
 10357 01c0 08       		.uleb128 0x8
 10358 01c1 3A       		.uleb128 0x3a
 10359 01c2 0B       		.uleb128 0xb
 10360 01c3 3B       		.uleb128 0x3b
 10361 01c4 0B       		.uleb128 0xb
 10362 01c5 49       		.uleb128 0x49
 10363 01c6 13       		.uleb128 0x13
 10364 01c7 3F       		.uleb128 0x3f
 10365 01c8 19       		.uleb128 0x19
 10366 01c9 02       		.uleb128 0x2
 10367 01ca 18       		.uleb128 0x18
 10368 01cb 00       		.byte	0
 10369 01cc 00       		.byte	0
 10370 01cd 00       		.byte	0
 10371              		.section	.debug_aranges,"",%progbits
 10372 0000 84000000 		.4byte	0x84
 10373 0004 0200     		.2byte	0x2
 10374 0006 00000000 		.4byte	.Ldebug_info0
 10375 000a 04       		.byte	0x4
 10376 000b 00       		.byte	0
 10377 000c 0000     		.2byte	0
 10378 000e 0000     		.2byte	0
 10379 0010 00000000 		.4byte	.LFB63
 10380 0014 CC010000 		.4byte	.LFE63-.LFB63
 10381 0018 00000000 		.4byte	.LFB64
 10382 001c 84000000 		.4byte	.LFE64-.LFB64
 10383 0020 00000000 		.4byte	.LFB65
 10384 0024 80000000 		.4byte	.LFE65-.LFB65
 10385 0028 00000000 		.4byte	.LFB66
 10386 002c 24030000 		.4byte	.LFE66-.LFB66
 10387 0030 00000000 		.4byte	.LFB67
 10388 0034 28050000 		.4byte	.LFE67-.LFB67
 10389 0038 00000000 		.4byte	.LFB68
 10390 003c 0C000000 		.4byte	.LFE68-.LFB68
 10391 0040 00000000 		.4byte	.LFB69
 10392 0044 2C2B0000 		.4byte	.LFE69-.LFB69
 10393 0048 00000000 		.4byte	.LFB70
 10394 004c 0C000000 		.4byte	.LFE70-.LFB70
 10395 0050 00000000 		.4byte	.LFB71
 10396 0054 0C000000 		.4byte	.LFE71-.LFB71
 10397 0058 00000000 		.4byte	.LFB72
 10398 005c 74000000 		.4byte	.LFE72-.LFB72
 10399 0060 00000000 		.4byte	.LFB73
 10400 0064 74000000 		.4byte	.LFE73-.LFB73
 10401 0068 00000000 		.4byte	.LFB74
ARM GAS  C:\Users\diego\AppData\Local\Temp\ccW8UKJI.s 			page 222


 10402 006c 54000000 		.4byte	.LFE74-.LFB74
 10403 0070 00000000 		.4byte	.LFB75
 10404 0074 38000000 		.4byte	.LFE75-.LFB75
 10405 0078 00000000 		.4byte	.LFB76
 10406 007c 26000000 		.4byte	.LFE76-.LFB76
 10407 0080 00000000 		.4byte	0
 10408 0084 00000000 		.4byte	0
 10409              		.section	.debug_ranges,"",%progbits
 10410              	.Ldebug_ranges0:
 10411 0000 00000000 		.4byte	.LFB63
 10412 0004 CC010000 		.4byte	.LFE63
 10413 0008 00000000 		.4byte	.LFB64
 10414 000c 84000000 		.4byte	.LFE64
 10415 0010 00000000 		.4byte	.LFB65
 10416 0014 80000000 		.4byte	.LFE65
 10417 0018 00000000 		.4byte	.LFB66
 10418 001c 24030000 		.4byte	.LFE66
 10419 0020 00000000 		.4byte	.LFB67
 10420 0024 28050000 		.4byte	.LFE67
 10421 0028 00000000 		.4byte	.LFB68
 10422 002c 0C000000 		.4byte	.LFE68
 10423 0030 00000000 		.4byte	.LFB69
 10424 0034 2C2B0000 		.4byte	.LFE69
 10425 0038 00000000 		.4byte	.LFB70
 10426 003c 0C000000 		.4byte	.LFE70
 10427 0040 00000000 		.4byte	.LFB71
 10428 0044 0C000000 		.4byte	.LFE71
 10429 0048 00000000 		.4byte	.LFB72
 10430 004c 74000000 		.4byte	.LFE72
 10431 0050 00000000 		.4byte	.LFB73
 10432 0054 74000000 		.4byte	.LFE73
 10433 0058 00000000 		.4byte	.LFB74
 10434 005c 54000000 		.4byte	.LFE74
 10435 0060 00000000 		.4byte	.LFB75
 10436 0064 38000000 		.4byte	.LFE75
 10437 0068 00000000 		.4byte	.LFB76
 10438 006c 26000000 		.4byte	.LFE76
 10439 0070 00000000 		.4byte	0
 10440 0074 00000000 		.4byte	0
 10441              		.section	.debug_line,"",%progbits
 10442              	.Ldebug_line0:
 10443 0000 3F0C0000 		.section	.debug_str,"MS",%progbits,1
 10443      02006E01 
 10443      00000201 
 10443      FB0E0D00 
 10443      01010101 
 10444              	.LASF35:
 10445 0000 70617373 		.ascii	"password\000"
 10445      776F7264 
 10445      00
 10446              	.LASF48:
 10447 0009 706F6C6C 		.ascii	"polling_rf\000"
 10447      696E675F 
 10447      726600
 10448              	.LASF50:
 10449 0014 73746174 		.ascii	"status2\000"
 10449      75733200 
ARM GAS  C:\Users\diego\AppData\Local\Temp\ccW8UKJI.s 			page 223


 10450              	.LASF55:
 10451 001c 6E756D5F 		.ascii	"num_decimal\000"
 10451      64656369 
 10451      6D616C00 
 10452              	.LASF90:
 10453 0028 636F756E 		.ascii	"count_protector2\000"
 10453      745F7072 
 10453      6F746563 
 10453      746F7232 
 10453      00
 10454              	.LASF66:
 10455 0039 4C43445F 		.ascii	"LCD_1_rxBuffer\000"
 10455      315F7278 
 10455      42756666 
 10455      657200
 10456              	.LASF129:
 10457 0048 65737461 		.ascii	"estado_tanqueando\000"
 10457      646F5F74 
 10457      616E7175 
 10457      65616E64 
 10457      6F00
 10458              	.LASF97:
 10459 005a 7472616D 		.ascii	"trama_totales\000"
 10459      615F746F 
 10459      74616C65 
 10459      7300
 10460              	.LASF72:
 10461 0068 69645F63 		.ascii	"id_coma1\000"
 10461      6F6D6131 
 10461      00
 10462              	.LASF75:
 10463 0071 69645F63 		.ascii	"id_coma2\000"
 10463      6F6D6132 
 10463      00
 10464              	.LASF125:
 10465 007a 6E756D5F 		.ascii	"num_decimal2\000"
 10465      64656369 
 10465      6D616C32 
 10465      00
 10466              	.LASF47:
 10467 0087 696E6974 		.ascii	"init_surt\000"
 10467      5F737572 
 10467      7400
 10468              	.LASF8:
 10469 0091 756E7369 		.ascii	"unsigned int\000"
 10469      676E6564 
 10469      20696E74 
 10469      00
 10470              	.LASF102:
 10471 009e 76657273 		.ascii	"version\000"
 10471      696F6E00 
 10472              	.LASF9:
 10473 00a6 5F5F696E 		.ascii	"__int32_t\000"
 10473      7433325F 
 10473      7400
 10474              	.LASF124:
 10475 00b0 74657374 		.ascii	"test\000"
ARM GAS  C:\Users\diego\AppData\Local\Temp\ccW8UKJI.s 			page 224


 10475      00
 10476              	.LASF52:
 10477 00b5 70726563 		.ascii	"precio\000"
 10477      696F00
 10478              	.LASF115:
 10479 00bc 6F6B5F52 		.ascii	"ok_RF\000"
 10479      4600
 10480              	.LASF133:
 10481 00c2 70707569 		.ascii	"ppuinicial\000"
 10481      6E696369 
 10481      616C00
 10482              	.LASF112:
 10483 00cd 686F7261 		.ascii	"hora\000"
 10483      00
 10484              	.LASF83:
 10485 00d2 7465636C 		.ascii	"teclas1\000"
 10485      61733100 
 10486              	.LASF84:
 10487 00da 7465636C 		.ascii	"teclas2\000"
 10487      61733200 
 10488              	.LASF108:
 10489 00e2 6C656D61 		.ascii	"lema1\000"
 10489      3100
 10490              	.LASF132:
 10491 00e8 765F6469 		.ascii	"v_digitos_1\000"
 10491      6769746F 
 10491      735F3100 
 10492              	.LASF24:
 10493 00f4 706F7369 		.ascii	"posicion\000"
 10493      63696F6E 
 10493      00
 10494              	.LASF113:
 10495 00fd 7276656E 		.ascii	"rventa1\000"
 10495      74613100 
 10496              	.LASF114:
 10497 0105 7276656E 		.ascii	"rventa2\000"
 10497      74613200 
 10498              	.LASF107:
 10499 010d 64697265 		.ascii	"direccion\000"
 10499      6363696F 
 10499      6E00
 10500              	.LASF85:
 10501 0117 666C756A 		.ascii	"flujo_LCD1\000"
 10501      6F5F4C43 
 10501      443100
 10502              	.LASF86:
 10503 0122 666C756A 		.ascii	"flujo_LCD2\000"
 10503      6F5F4C43 
 10503      443200
 10504              	.LASF29:
 10505 012d 70726573 		.ascii	"preset\000"
 10505      657400
 10506              	.LASF13:
 10507 0134 666C6F61 		.ascii	"float\000"
 10507      7400
 10508              	.LASF89:
 10509 013a 636F756E 		.ascii	"count_protector\000"
ARM GAS  C:\Users\diego\AppData\Local\Temp\ccW8UKJI.s 			page 225


 10509      745F7072 
 10509      6F746563 
 10509      746F7200 
 10510              	.LASF118:
 10511 014a 62756666 		.ascii	"buffer_i2c\000"
 10511      65725F69 
 10511      326300
 10512              	.LASF41:
 10513 0155 63686563 		.ascii	"checksum\000"
 10513      6B73756D 
 10513      00
 10514              	.LASF42:
 10515 015e 696E6465 		.ascii	"index\000"
 10515      7800
 10516              	.LASF109:
 10517 0164 6C656D61 		.ascii	"lema2\000"
 10517      3200
 10518              	.LASF92:
 10519 016a 696D6167 		.ascii	"imagen_grado\000"
 10519      656E5F67 
 10519      7261646F 
 10519      00
 10520              	.LASF32:
 10521 0177 696D7072 		.ascii	"imprimir\000"
 10521      696D6972 
 10521      00
 10522              	.LASF7:
 10523 0180 6C6F6E67 		.ascii	"long long unsigned int\000"
 10523      206C6F6E 
 10523      6720756E 
 10523      7369676E 
 10523      65642069 
 10524              	.LASF103:
 10525 0197 6C61646F 		.ascii	"lado1\000"
 10525      3100
 10526              	.LASF104:
 10527 019d 6C61646F 		.ascii	"lado2\000"
 10527      3200
 10528              	.LASF51:
 10529 01a3 745F7072 		.ascii	"t_preset\000"
 10529      65736574 
 10529      00
 10530              	.LASF122:
 10531 01ac 6C657472 		.ascii	"letras\000"
 10531      617300
 10532              	.LASF31:
 10533 01b3 706C6163 		.ascii	"placa\000"
 10533      6100
 10534              	.LASF56:
 10535 01b9 706F6C6C 		.ascii	"polling_surt\000"
 10535      696E675F 
 10535      73757274 
 10535      00
 10536              	.LASF127:
 10537 01c6 73746174 		.ascii	"state_rf\000"
 10537      655F7266 
 10537      00
ARM GAS  C:\Users\diego\AppData\Local\Temp\ccW8UKJI.s 			page 226


 10538              	.LASF126:
 10539 01cf 69646175 		.ascii	"idaux\000"
 10539      7800
 10540              	.LASF26:
 10541 01d5 766F6C75 		.ascii	"volumen\000"
 10541      6D656E00 
 10542              	.LASF106:
 10543 01dd 74656C65 		.ascii	"telefono\000"
 10543      666F6E6F 
 10543      00
 10544              	.LASF73:
 10545 01e6 69645F74 		.ascii	"id_teclado1\000"
 10545      65636C61 
 10545      646F3100 
 10546              	.LASF76:
 10547 01f2 69645F74 		.ascii	"id_teclado2\000"
 10547      65636C61 
 10547      646F3200 
 10548              	.LASF58:
 10549 01fe 706F6C6C 		.ascii	"polling_wd\000"
 10549      696E675F 
 10549      776400
 10550              	.LASF96:
 10551 0209 69645F76 		.ascii	"id_venta\000"
 10551      656E7461 
 10551      00
 10552              	.LASF117:
 10553 0212 72665F6D 		.ascii	"rf_mod\000"
 10553      6F6400
 10554              	.LASF146:
 10555 0219 433A5C55 		.ascii	"C:\\Users\\diego\\Documents\\GitHub\\Prueba_GRPFlee"
 10555      73657273 
 10555      5C646965 
 10555      676F5C44 
 10555      6F63756D 
 10556 0247 745C4242 		.ascii	"t\\BBB.cydsn\000"
 10556      422E6379 
 10556      64736E00 
 10557              	.LASF88:
 10558 0253 42756666 		.ascii	"Buffer_LCD2\000"
 10558      65725F4C 
 10558      43443200 
 10559              	.LASF15:
 10560 025f 63686172 		.ascii	"char\000"
 10560      00
 10561              	.LASF94:
 10562 0264 626C6F71 		.ascii	"bloqueo_LCD\000"
 10562      75656F5F 
 10562      4C434400 
 10563              	.LASF43:
 10564 0270 7461626C 		.ascii	"table\000"
 10564      6500
 10565              	.LASF21:
 10566 0276 6D616E67 		.ascii	"mangueras\000"
 10566      75657261 
 10566      7300
 10567              	.LASF12:
ARM GAS  C:\Users\diego\AppData\Local\Temp\ccW8UKJI.s 			page 227


 10568 0280 75696E74 		.ascii	"uint16\000"
 10568      313600
 10569              	.LASF49:
 10570 0287 73746174 		.ascii	"status1\000"
 10570      75733100 
 10571              	.LASF120:
 10572 028f 7072696E 		.ascii	"print1\000"
 10572      743100
 10573              	.LASF121:
 10574 0296 7072696E 		.ascii	"print2\000"
 10574      743200
 10575              	.LASF33:
 10576 029d 7469706F 		.ascii	"tipo_venta\000"
 10576      5F76656E 
 10576      746100
 10577              	.LASF30:
 10578 02a8 69645F65 		.ascii	"id_ef\000"
 10578      6600
 10579              	.LASF36:
 10580 02ae 7475726E 		.ascii	"turno\000"
 10580      6F00
 10581              	.LASF39:
 10582 02b4 6461746F 		.ascii	"datos\000"
 10582      7300
 10583              	.LASF19:
 10584 02ba 746F7461 		.ascii	"totales\000"
 10584      6C657300 
 10585              	.LASF91:
 10586 02c2 70617373 		.ascii	"password_lcd\000"
 10586      776F7264 
 10586      5F6C6364 
 10586      00
 10587              	.LASF69:
 10588 02cf 636F756E 		.ascii	"count_teclas1\000"
 10588      745F7465 
 10588      636C6173 
 10588      3100
 10589              	.LASF74:
 10590 02dd 636F756E 		.ascii	"count_teclas2\000"
 10590      745F7465 
 10590      636C6173 
 10590      3200
 10591              	.LASF77:
 10592 02eb 706F7378 		.ascii	"posx1\000"
 10592      3100
 10593              	.LASF147:
 10594 02f1 76657269 		.ascii	"verificar_check\000"
 10594      66696361 
 10594      725F6368 
 10594      65636B00 
 10595              	.LASF6:
 10596 0301 6C6F6E67 		.ascii	"long long int\000"
 10596      206C6F6E 
 10596      6720696E 
 10596      7400
 10597              	.LASF80:
 10598 030f 706F7378 		.ascii	"posx2\000"
ARM GAS  C:\Users\diego\AppData\Local\Temp\ccW8UKJI.s 			page 228


 10598      3200
 10599              	.LASF27:
 10600 0315 70726F64 		.ascii	"producto\000"
 10600      7563746F 
 10600      00
 10601              	.LASF53:
 10602 031e 706F6C6C 		.ascii	"polling_LCD1\000"
 10602      696E675F 
 10602      4C434431 
 10602      00
 10603              	.LASF57:
 10604 032b 706F6C6C 		.ascii	"polling_LCD2\000"
 10604      696E675F 
 10604      4C434432 
 10604      00
 10605              	.LASF34:
 10606 0338 63656475 		.ascii	"cedula\000"
 10606      6C6100
 10607              	.LASF144:
 10608 033f 474E5520 		.ascii	"GNU C 4.9.3 20150303 (release) [ARM/embedded-4_9-br"
 10608      4320342E 
 10608      392E3320 
 10608      32303135 
 10608      30333033 
 10609 0372 616E6368 		.ascii	"anch revision 221220] -mcpu=cortex-m3 -mthumb -g -O"
 10609      20726576 
 10609      6973696F 
 10609      6E203232 
 10609      31323230 
 10610 03a5 30202D66 		.ascii	"0 -ffunction-sections -ffat-lto-objects\000"
 10610      66756E63 
 10610      74696F6E 
 10610      2D736563 
 10610      74696F6E 
 10611              	.LASF78:
 10612 03cd 706F7379 		.ascii	"posy1\000"
 10612      3100
 10613              	.LASF81:
 10614 03d3 706F7379 		.ascii	"posy2\000"
 10614      3200
 10615              	.LASF40:
 10616 03d9 73697A65 		.ascii	"size\000"
 10616      00
 10617              	.LASF141:
 10618 03de 73746174 		.ascii	"status2LP\000"
 10618      7573324C 
 10618      5000
 10619              	.LASF23:
 10620 03e8 72656369 		.ascii	"recibo\000"
 10620      626F00
 10621              	.LASF25:
 10622 03ef 64696E65 		.ascii	"dinero\000"
 10622      726F00
 10623              	.LASF87:
 10624 03f6 42756666 		.ascii	"Buffer_LCD1\000"
 10624      65725F4C 
 10624      43443100 
ARM GAS  C:\Users\diego\AppData\Local\Temp\ccW8UKJI.s 			page 229


 10625              	.LASF18:
 10626 0402 65737461 		.ascii	"estado\000"
 10626      646F00
 10627              	.LASF135:
 10628 0409 50726F64 		.ascii	"Productos\000"
 10628      7563746F 
 10628      7300
 10629              	.LASF61:
 10630 0413 6D6F646F 		.ascii	"modo_mux\000"
 10630      5F6D7578 
 10630      00
 10631              	.LASF46:
 10632 041c 696D6167 		.ascii	"imagen\000"
 10632      656E00
 10633              	.LASF17:
 10634 0423 6C6F6E67 		.ascii	"long double\000"
 10634      20646F75 
 10634      626C6500 
 10635              	.LASF38:
 10636 042f 70617373 		.ascii	"password_local\000"
 10636      776F7264 
 10636      5F6C6F63 
 10636      616C00
 10637              	.LASF98:
 10638 043e 70707578 		.ascii	"ppux10\000"
 10638      313000
 10639              	.LASF105:
 10640 0445 6E6F6D62 		.ascii	"nombre\000"
 10640      726500
 10641              	.LASF119:
 10642 044c 6372635F 		.ascii	"crc_total\000"
 10642      746F7461 
 10642      6C00
 10643              	.LASF110:
 10644 0456 69645F6C 		.ascii	"id_logo\000"
 10644      6F676F00 
 10645              	.LASF64:
 10646 045e 70726563 		.ascii	"precio_mod\000"
 10646      696F5F6D 
 10646      6F6400
 10647              	.LASF2:
 10648 0469 73686F72 		.ascii	"short int\000"
 10648      7420696E 
 10648      7400
 10649              	.LASF67:
 10650 0473 50435F72 		.ascii	"PC_rxBuffer\000"
 10650      78427566 
 10650      66657200 
 10651              	.LASF4:
 10652 047f 6C6F6E67 		.ascii	"long int\000"
 10652      20696E74 
 10652      00
 10653              	.LASF68:
 10654 0488 49544D5F 		.ascii	"ITM_RxBuffer\000"
 10654      52784275 
 10654      66666572 
 10654      00
ARM GAS  C:\Users\diego\AppData\Local\Temp\ccW8UKJI.s 			page 230


 10655              	.LASF22:
 10656 0495 73757274 		.ascii	"surtidor\000"
 10656      69646F72 
 10656      00
 10657              	.LASF70:
 10658 049e 636F6D61 		.ascii	"comas1\000"
 10658      733100
 10659              	.LASF71:
 10660 04a5 636F6D61 		.ascii	"comas2\000"
 10660      733200
 10661              	.LASF136:
 10662 04ac 70726F64 		.ascii	"producto1\000"
 10662      7563746F 
 10662      3100
 10663              	.LASF137:
 10664 04b6 70726F64 		.ascii	"producto2\000"
 10664      7563746F 
 10664      3200
 10665              	.LASF138:
 10666 04c0 70726F64 		.ascii	"producto3\000"
 10666      7563746F 
 10666      3300
 10667              	.LASF139:
 10668 04ca 70726F64 		.ascii	"producto4\000"
 10668      7563746F 
 10668      3400
 10669              	.LASF59:
 10670 04d4 616E696D 		.ascii	"animacion\000"
 10670      6163696F 
 10670      6E00
 10671              	.LASF99:
 10672 04de 6E6F6D62 		.ascii	"nombre_pro1\000"
 10672      72655F70 
 10672      726F3100 
 10673              	.LASF101:
 10674 04ea 6E6F6D62 		.ascii	"nombre_pro3\000"
 10674      72655F70 
 10674      726F3300 
 10675              	.LASF62:
 10676 04f6 696E7365 		.ascii	"insert_ppuInit\000"
 10676      72745F70 
 10676      7075496E 
 10676      697400
 10677              	.LASF60:
 10678 0505 616E696D 		.ascii	"animacion2\000"
 10678      6163696F 
 10678      6E3200
 10679              	.LASF143:
 10680 0510 73746174 		.ascii	"status2st\000"
 10680      75733273 
 10680      7400
 10681              	.LASF140:
 10682 051a 73746174 		.ascii	"status1LP\000"
 10682      7573314C 
 10682      5000
 10683              	.LASF44:
 10684 0524 696E6974 		.ascii	"init\000"
ARM GAS  C:\Users\diego\AppData\Local\Temp\ccW8UKJI.s 			page 231


 10684      00
 10685              	.LASF16:
 10686 0529 73697A65 		.ascii	"sizetype\000"
 10686      74797065 
 10686      00
 10687              	.LASF5:
 10688 0532 6C6F6E67 		.ascii	"long unsigned int\000"
 10688      20756E73 
 10688      69676E65 
 10688      6420696E 
 10688      7400
 10689              	.LASF54:
 10690 0544 6E756D65 		.ascii	"numero\000"
 10690      726F00
 10691              	.LASF10:
 10692 054b 696E7433 		.ascii	"int32_t\000"
 10692      325F7400 
 10693              	.LASF93:
 10694 0553 70726F78 		.ascii	"prox_caso\000"
 10694      5F636173 
 10694      6F00
 10695              	.LASF128:
 10696 055d 74696D65 		.ascii	"timeout_autorizacion\000"
 10696      6F75745F 
 10696      6175746F 
 10696      72697A61 
 10696      63696F6E 
 10697              	.LASF37:
 10698 0572 6175746F 		.ascii	"autorizado\000"
 10698      72697A61 
 10698      646F00
 10699              	.LASF1:
 10700 057d 756E7369 		.ascii	"unsigned char\000"
 10700      676E6564 
 10700      20636861 
 10700      7200
 10701              	.LASF111:
 10702 058b 66656368 		.ascii	"fecha\000"
 10702      6100
 10703              	.LASF116:
 10704 0591 6F6B5F64 		.ascii	"ok_datosRF\000"
 10704      61746F73 
 10704      524600
 10705              	.LASF131:
 10706 059c 636C6176 		.ascii	"clave_local\000"
 10706      655F6C6F 
 10706      63616C00 
 10707              	.LASF123:
 10708 05a8 636C6176 		.ascii	"clave_config\000"
 10708      655F636F 
 10708      6E666967 
 10708      00
 10709              	.LASF100:
 10710 05b5 6E6F6D62 		.ascii	"nombre_pro2\000"
 10710      72655F70 
 10710      726F3200 
 10711              	.LASF0:
ARM GAS  C:\Users\diego\AppData\Local\Temp\ccW8UKJI.s 			page 232


 10712 05c1 7369676E 		.ascii	"signed char\000"
 10712      65642063 
 10712      68617200 
 10713              	.LASF45:
 10714 05cd 6572726F 		.ascii	"error_op\000"
 10714      725F6F70 
 10714      00
 10715              	.LASF3:
 10716 05d6 73686F72 		.ascii	"short unsigned int\000"
 10716      7420756E 
 10716      7369676E 
 10716      65642069 
 10716      6E7400
 10717              	.LASF134:
 10718 05e9 50726F64 		.ascii	"Producto\000"
 10718      7563746F 
 10718      00
 10719              	.LASF65:
 10720 05f2 6D61696E 		.ascii	"main\000"
 10720      00
 10721              	.LASF11:
 10722 05f7 75696E74 		.ascii	"uint8\000"
 10722      3800
 10723              	.LASF14:
 10724 05fd 646F7562 		.ascii	"double\000"
 10724      6C6500
 10725              	.LASF95:
 10726 0604 69645F65 		.ascii	"id_estacion\000"
 10726      73746163 
 10726      696F6E00 
 10727              	.LASF28:
 10728 0610 6D616E67 		.ascii	"manguera\000"
 10728      75657261 
 10728      00
 10729              	.LASF63:
 10730 0619 78617578 		.ascii	"xaux\000"
 10730      00
 10731              	.LASF20:
 10732 061e 67726164 		.ascii	"grado\000"
 10732      6F00
 10733              	.LASF142:
 10734 0624 73746174 		.ascii	"status1st\000"
 10734      75733173 
 10734      7400
 10735              	.LASF130:
 10736 062e 636F6E73 		.ascii	"consulta_sistema\000"
 10736      756C7461 
 10736      5F736973 
 10736      74656D61 
 10736      00
 10737              	.LASF79:
 10738 063f 73697A65 		.ascii	"sizeletra1\000"
 10738      6C657472 
 10738      613100
 10739              	.LASF82:
 10740 064a 73697A65 		.ascii	"sizeletra2\000"
 10740      6C657472 
ARM GAS  C:\Users\diego\AppData\Local\Temp\ccW8UKJI.s 			page 233


 10740      613200
 10741              	.LASF145:
 10742 0655 2E5C6D61 		.ascii	".\\main.c\000"
 10742      696E2E63 
 10742      00
 10743              		.ident	"GCC: (GNU Tools for ARM Embedded Processors) 4.9.3 20150303 (release) [ARM/embedded-4_9-br
