ARM GAS  C:\Users\RECEPC~1\AppData\Local\Temp\cc2OimPl.s 			page 1


   1              		.syntax unified
   2              		.cpu cortex-m3
   3              		.fpu softvfp
   4              		.eabi_attribute 20, 1
   5              		.eabi_attribute 21, 1
   6              		.eabi_attribute 23, 3
   7              		.eabi_attribute 24, 1
   8              		.eabi_attribute 25, 1
   9              		.eabi_attribute 26, 1
  10              		.eabi_attribute 30, 6
  11              		.eabi_attribute 34, 1
  12              		.eabi_attribute 18, 4
  13              		.thumb
  14              		.file	"main.c"
  15              		.text
  16              	.Ltext0:
  17              		.cfi_sections	.debug_frame
  18              		.comm	count_teclas1,1,1
  19              		.comm	comas1,1,1
  20              		.comm	comas2,1,1
  21              		.comm	id_coma1,1,1
  22              		.comm	id_teclado1,1,1
  23              		.comm	count_teclas2,1,1
  24              		.comm	id_coma2,1,1
  25              		.comm	id_teclado2,1,1
  26              		.comm	posx1,2,2
  27              		.comm	posy1,2,2
  28              		.comm	sizeletra1,2,2
  29              		.comm	posx2,2,2
  30              		.comm	posy2,2,2
  31              		.comm	sizeletra2,2,2
  32              		.comm	teclas1,1,1
  33              		.comm	teclas2,1,1
  34              		.comm	flujo_LCD1,1,1
  35              		.comm	flujo_LCD2,1,1
  36              		.comm	flujo_pos1,1,1
  37              		.comm	flujo_pos2,1,1
  38              		.comm	seleccion_pos,1,1
  39              		.comm	flujo_pos,1,1
  40              		.comm	venta_activa,1,1
  41              		.comm	venta_activa2,1,1
  42              		.comm	Buffer_LCD1,30,4
  43              		.comm	Buffer_LCD2,30,4
  44              		.comm	count_protector,1,1
  45              		.comm	count_protector2,1,1
  46              		.comm	password_lcd,9,4
  47              		.comm	imagen_grado,2,2
  48              		.comm	prox_caso,8,4
  49              		.comm	bloqueo_LCD,3,4
  50              		.comm	id_estacion,5,4
  51              		.comm	id_venta,8,4
  52              		.comm	trama_totales,200,4
  53              		.comm	ppux10,1,1
  54              		.comm	nombre_pro1,17,4
  55              		.comm	nombre_pro2,17,4
  56              		.comm	nombre_pro3,17,4
  57              		.comm	version,4,4
ARM GAS  C:\Users\RECEPC~1\AppData\Local\Temp\cc2OimPl.s 			page 2


  58              		.comm	kmscreen,1,1
  59              		.comm	pantallas,1,1
  60              		.comm	efectivo,1,1
  61              		.comm	lado1,93,4
  62              		.comm	lado2,93,4
  63              		.comm	nombre,33,4
  64              		.comm	nit,15,4
  65              		.comm	telefono,20,4
  66              		.comm	direccion,33,4
  67              		.comm	lema1,32,4
  68              		.comm	lema2,32,4
  69              		.comm	id_logo,2,4
  70              		.comm	km,2,4
  71              		.comm	fecha,3,4
  72              		.comm	hora,2,4
  73              		.comm	rventa1,118,4
  74              		.comm	rventa2,118,4
  75              		.comm	ok_RF,1,1
  76              		.comm	ok_datosRF,1,1
  77              		.comm	rf_mod,200,4
  78              		.comm	buffer_i2c,64,4
  79              		.comm	crc_total,1,1
  80              		.comm	print1,2,4
  81              		.comm	print2,2,4
  82              		.comm	tipo_venta,1,1
  83              		.global	letras
  84              		.data
  85              		.align	2
  86              		.type	letras, %object
  87              		.size	letras, 26
  88              	letras:
  89 0000 25       		.byte	37
  90 0001 42       		.byte	66
  91 0002 31       		.byte	49
  92 0003 27       		.byte	39
  93 0004 1D       		.byte	29
  94 0005 28       		.byte	40
  95 0006 29       		.byte	41
  96 0007 2A       		.byte	42
  97 0008 22       		.byte	34
  98 0009 2B       		.byte	43
  99 000a 2C       		.byte	44
 100 000b 2D       		.byte	45
 101 000c 35       		.byte	53
 102 000d 34       		.byte	52
 103 000e 23       		.byte	35
 104 000f 24       		.byte	36
 105 0010 1B       		.byte	27
 106 0011 1E       		.byte	30
 107 0012 26       		.byte	38
 108 0013 1F       		.byte	31
 109 0014 21       		.byte	33
 110 0015 32       		.byte	50
 111 0016 1C       		.byte	28
 112 0017 30       		.byte	48
 113 0018 20       		.byte	32
 114 0019 2F       		.byte	47
ARM GAS  C:\Users\RECEPC~1\AppData\Local\Temp\cc2OimPl.s 			page 3


 115              		.global	clave_config
 116 001a 0000     		.align	2
 117              		.type	clave_config, %object
 118              		.size	clave_config, 5
 119              	clave_config:
 120 001c 30323431 		.ascii	"02412"
 120      32
 121              		.global	test
 122 0021 000000   		.align	2
 123              		.type	test, %object
 124              		.size	test, 18
 125              	test:
 126 0024 54657374 		.ascii	"Test de Impresora\000"
 126      20646520 
 126      496D7072 
 126      65736F72 
 126      6100
 127              		.comm	num_decimal2,2,2
 128              		.comm	idaux,8,4
 129              		.comm	state_rf,1,1
 130              		.comm	timeout_autorizacion,2,2
 131              		.comm	estado_tanqueando,1,1
 132              		.global	consulta_sistema
 133              		.type	consulta_sistema, %object
 134              		.size	consulta_sistema, 1
 135              	consulta_sistema:
 136 0036 01       		.byte	1
 137              		.global	clave_local
 138 0037 00       		.align	2
 139              		.type	clave_local, %object
 140              		.size	clave_local, 4
 141              	clave_local:
 142 0038 39       		.byte	57
 143 0039 36       		.byte	54
 144 003a 33       		.byte	51
 145 003b 31       		.byte	49
 146              		.comm	v_digitos_1,1,1
 147              		.global	ppuinicial
 148              		.bss
 149              		.type	ppuinicial, %object
 150              		.size	ppuinicial, 1
 151              	ppuinicial:
 152 0000 00       		.space	1
 153              		.comm	Producto,1,1
 154              		.comm	Productos,4,4
 155              		.global	producto1
 156              		.data
 157              		.type	producto1, %object
 158              		.size	producto1, 1
 159              	producto1:
 160 003c 01       		.byte	1
 161              		.global	producto2
 162              		.type	producto2, %object
 163              		.size	producto2, 1
 164              	producto2:
 165 003d 01       		.byte	1
 166              		.global	producto3
ARM GAS  C:\Users\RECEPC~1\AppData\Local\Temp\cc2OimPl.s 			page 4


 167              		.type	producto3, %object
 168              		.size	producto3, 1
 169              	producto3:
 170 003e 01       		.byte	1
 171              		.global	producto4
 172              		.type	producto4, %object
 173              		.size	producto4, 1
 174              	producto4:
 175 003f 01       		.byte	1
 176              		.comm	status1LP,1,1
 177              		.comm	status2LP,1,1
 178              		.comm	status1st,1,1
 179              		.comm	status2st,1,1
 180              		.section	.text.init,"ax",%progbits
 181              		.align	2
 182              		.global	init
 183              		.thumb
 184              		.thumb_func
 185              		.type	init, %function
 186              	init:
 187              	.LFB63:
 188              		.file 1 ".\\main.c"
   1:.\main.c      **** /*
   2:.\main.c      **** ***************************************************************************************************
   3:.\main.c      **** *                                           GRP550M CODE2
   4:.\main.c      **** *
   5:.\main.c      **** *                             (c) Copyright 2013; Sistemas Insepet LTDA
   6:.\main.c      **** *
   7:.\main.c      **** *               All rights reserved.  Protected by international copyright laws.
   8:.\main.c      **** *               Knowledge of the source code may NOT be used to develop a similar product.
   9:.\main.c      **** *               Please help us continue to provide the Embedded community with the finest
  10:.\main.c      **** *               software available.  Your honesty is greatly appreciated.
  11:.\main.c      **** ***************************************************************************************************
  12:.\main.c      **** */
  13:.\main.c      **** 
  14:.\main.c      **** /*
  15:.\main.c      **** ***************************************************************************************************
  16:.\main.c      **** *
  17:.\main.c      **** *                                               GRP550M CODE
  18:.\main.c      **** *
  19:.\main.c      **** *                                             CYPRESS PSoC5LP
  20:.\main.c      **** *                                                with the
  21:.\main.c      **** *                                            CY8C5969AXI-LP035
  22:.\main.c      **** *
  23:.\main.c      **** * Filename      : main.c
  24:.\main.c      **** * Version       : V2.00
  25:.\main.c      **** * Programmer(s) : 
  26:.\main.c      ****                   
  27:.\main.c      **** ***************************************************************************************************
  28:.\main.c      **** */
  29:.\main.c      **** 
  30:.\main.c      **** /*
  31:.\main.c      **** ***************************************************************************************************
  32:.\main.c      **** *                                             INCLUDE FILES
  33:.\main.c      **** ***************************************************************************************************
  34:.\main.c      **** */
  35:.\main.c      **** 
ARM GAS  C:\Users\RECEPC~1\AppData\Local\Temp\cc2OimPl.s 			page 5


  36:.\main.c      **** #include <device.h>
  37:.\main.c      **** #include <math.h>
  38:.\main.c      **** #include <stdio.h>
  39:.\main.c      **** #include <stdlib.h>
  40:.\main.c      **** #include <string.h>
  41:.\main.c      **** #include "Protocolo.h"
  42:.\main.c      **** #include "VariablesG.h"
  43:.\main.c      **** #include "Print.h"
  44:.\main.c      **** #include "LCD.h"
  45:.\main.c      **** #include "ibutton.h"
  46:.\main.c      **** #include "i2c.h"
  47:.\main.c      **** 
  48:.\main.c      **** /*
  49:.\main.c      **** ***************************************************************************************************
  50:.\main.c      **** *                                             DECLARACION DE FUNCIONES
  51:.\main.c      **** ***************************************************************************************************
  52:.\main.c      **** */
  53:.\main.c      **** uint8 letras[26]={0x25,0x42,0x31,0x27,0x1D,0x28,0x29,0x2A,0x22,0x2B,0x2C,0x2D,0x35,0x34,0x23,0x24,0
  54:.\main.c      **** uint8 clave_config[5]="02412";
  55:.\main.c      **** uint8 test[18]="Test de Impresora";
  56:.\main.c      **** uint16 num_decimal2;
  57:.\main.c      **** CY_ISR(animacion);
  58:.\main.c      **** CY_ISR(animacion2);
  59:.\main.c      **** CY_ISR(modo_mux);
  60:.\main.c      **** uint8  idaux[8];
  61:.\main.c      **** uint8  state_rf;
  62:.\main.c      **** uint16 timeout_autorizacion;
  63:.\main.c      **** uint8  estado_tanqueando; 
  64:.\main.c      **** uint8  consulta_sistema=1;
  65:.\main.c      **** uint8  clave_local[4]={'9','6','3','1'};
  66:.\main.c      **** uint8  v_digitos_1;
  67:.\main.c      **** uint8  ppuinicial=0;
  68:.\main.c      **** uint8  Producto;
  69:.\main.c      **** uint8  Productos[4];// el buffer es para guardar los tipos de combustible
  70:.\main.c      **** uint8  producto1=1,producto2=1,producto3=1,producto4=1;
  71:.\main.c      **** uint8 status1LP,status2LP,status1st,status2st; 
  72:.\main.c      **** 
  73:.\main.c      **** 
  74:.\main.c      **** /*
  75:.\main.c      **** ***************************************************************************************************
  76:.\main.c      **** *                                         init( void )
  77:.\main.c      **** *
  78:.\main.c      **** * Description : 
  79:.\main.c      **** *               
  80:.\main.c      **** *
  81:.\main.c      **** * Argument(s) : none
  82:.\main.c      **** *
  83:.\main.c      **** * Return(s)   : none
  84:.\main.c      **** *
  85:.\main.c      **** * Caller(s)   : 
  86:.\main.c      **** *
  87:.\main.c      **** * Note(s)     : none.
  88:.\main.c      **** ***************************************************************************************************
  89:.\main.c      **** */ 
  90:.\main.c      **** void init(void){
 189              		.loc 1 90 0
 190              		.cfi_startproc
ARM GAS  C:\Users\RECEPC~1\AppData\Local\Temp\cc2OimPl.s 			page 6


 191              		@ args = 0, pretend = 0, frame = 8
 192              		@ frame_needed = 1, uses_anonymous_args = 0
 193 0000 90B5     		push	{r4, r7, lr}
 194              		.cfi_def_cfa_offset 12
 195              		.cfi_offset 4, -12
 196              		.cfi_offset 7, -8
 197              		.cfi_offset 14, -4
 198 0002 83B0     		sub	sp, sp, #12
 199              		.cfi_def_cfa_offset 24
 200 0004 00AF     		add	r7, sp, #0
 201              		.cfi_def_cfa_register 7
  91:.\main.c      ****     timeout_autorizacion=0;
 202              		.loc 1 91 0
 203 0006 734B     		ldr	r3, .L6
 204 0008 0022     		movs	r2, #0
 205 000a 1A80     		strh	r2, [r3]	@ movhi
  92:.\main.c      **** 	uint8 x;
  93:.\main.c      ****     CyGlobalIntEnable;
 206              		.loc 1 93 0
 207              	@ 93 ".\main.c" 1
 208 000c 62B6     		CPSIE   i
 209              	@ 0 "" 2
  94:.\main.c      **** 	PC_Start();
 210              		.loc 1 94 0
 211              		.thumb
 212 000e FFF7FEFF 		bl	PC_Start
  95:.\main.c      ****     I2C_1_Start();
 213              		.loc 1 95 0
 214 0012 FFF7FEFF 		bl	I2C_1_Start
  96:.\main.c      ****     Surtidor_Start();
 215              		.loc 1 96 0
 216 0016 FFF7FEFF 		bl	Surtidor_Start
  97:.\main.c      ****     LCD_1_Start();
 217              		.loc 1 97 0
 218 001a FFF7FEFF 		bl	LCD_1_Start
  98:.\main.c      ****     LCD_2_Start();   	
 219              		.loc 1 98 0
 220 001e FFF7FEFF 		bl	LCD_2_Start
  99:.\main.c      **** 	EEPROM_Start();
 221              		.loc 1 99 0
 222 0022 FFF7FEFF 		bl	EEPROM_Start
 100:.\main.c      **** 
 101:.\main.c      **** 	/***********Iniciacion de variables***************/
 102:.\main.c      **** 	lado1.grado[0][0]=0;
 223              		.loc 1 102 0
 224 0026 6C4B     		ldr	r3, .L6+4
 225 0028 0022     		movs	r2, #0
 226 002a 83F85920 		strb	r2, [r3, #89]
 103:.\main.c      **** 	lado1.grado[1][0]=0;
 227              		.loc 1 103 0
 228 002e 6A4B     		ldr	r3, .L6+4
 229 0030 0022     		movs	r2, #0
 230 0032 83F85A20 		strb	r2, [r3, #90]
 104:.\main.c      **** 	lado1.grado[2][0]=0;
 231              		.loc 1 104 0
 232 0036 684B     		ldr	r3, .L6+4
 233 0038 0022     		movs	r2, #0
ARM GAS  C:\Users\RECEPC~1\AppData\Local\Temp\cc2OimPl.s 			page 7


 234 003a 83F85B20 		strb	r2, [r3, #91]
 105:.\main.c      **** 	lado2.grado[0][0]=0;
 235              		.loc 1 105 0
 236 003e 674B     		ldr	r3, .L6+8
 237 0040 0022     		movs	r2, #0
 238 0042 83F85920 		strb	r2, [r3, #89]
 106:.\main.c      **** 	lado2.grado[1][0]=0;
 239              		.loc 1 106 0
 240 0046 654B     		ldr	r3, .L6+8
 241 0048 0022     		movs	r2, #0
 242 004a 83F85A20 		strb	r2, [r3, #90]
 107:.\main.c      **** 	lado2.grado[2][0]=0;
 243              		.loc 1 107 0
 244 004e 634B     		ldr	r3, .L6+8
 245 0050 0022     		movs	r2, #0
 246 0052 83F85B20 		strb	r2, [r3, #91]
 108:.\main.c      ****     for(x=0; x<=15; x++){
 247              		.loc 1 108 0
 248 0056 0023     		movs	r3, #0
 249 0058 FB71     		strb	r3, [r7, #7]
 250 005a 08E0     		b	.L2
 251              	.L3:
 109:.\main.c      ****         rventa1.id_ef[x]= 1;
 252              		.loc 1 109 0 discriminator 3
 253 005c FB79     		ldrb	r3, [r7, #7]	@ zero_extendqisi2
 254 005e 604A     		ldr	r2, .L6+12
 255 0060 1344     		add	r3, r3, r2
 256 0062 0122     		movs	r2, #1
 257 0064 83F83320 		strb	r2, [r3, #51]
 108:.\main.c      ****     for(x=0; x<=15; x++){
 258              		.loc 1 108 0 discriminator 3
 259 0068 FB79     		ldrb	r3, [r7, #7]	@ zero_extendqisi2
 260 006a 0133     		adds	r3, r3, #1
 261 006c FB71     		strb	r3, [r7, #7]
 262              	.L2:
 108:.\main.c      ****     for(x=0; x<=15; x++){
 263              		.loc 1 108 0 is_stmt 0 discriminator 1
 264 006e FB79     		ldrb	r3, [r7, #7]	@ zero_extendqisi2
 265 0070 0F2B     		cmp	r3, #15
 266 0072 F3D9     		bls	.L3
 110:.\main.c      ****     }
 111:.\main.c      **** 
 112:.\main.c      ****     CyDelay(5);
 267              		.loc 1 112 0 is_stmt 1
 268 0074 0520     		movs	r0, #5
 269 0076 FFF7FEFF 		bl	CyDelay
 113:.\main.c      **** 	/******************Lectura de EEPROM*************/
 114:.\main.c      **** 	
 115:.\main.c      **** 	for(x=13;x<=14;x++){									//Logo
 270              		.loc 1 115 0
 271 007a 0D23     		movs	r3, #13
 272 007c FB71     		strb	r3, [r7, #7]
 273 007e 0EE0     		b	.L4
 274              	.L5:
 116:.\main.c      **** 		id_logo[x-13]=EEPROM_ReadByte(x);
 275              		.loc 1 116 0 discriminator 3
 276 0080 FB79     		ldrb	r3, [r7, #7]	@ zero_extendqisi2
ARM GAS  C:\Users\RECEPC~1\AppData\Local\Temp\cc2OimPl.s 			page 8


 277 0082 A3F10D04 		sub	r4, r3, #13
 278 0086 FB79     		ldrb	r3, [r7, #7]	@ zero_extendqisi2
 279 0088 9BB2     		uxth	r3, r3
 280 008a 1846     		mov	r0, r3
 281 008c FFF7FEFF 		bl	EEPROM_ReadByte
 282 0090 0346     		mov	r3, r0
 283 0092 1A46     		mov	r2, r3
 284 0094 534B     		ldr	r3, .L6+16
 285 0096 1A55     		strb	r2, [r3, r4]
 115:.\main.c      **** 		id_logo[x-13]=EEPROM_ReadByte(x);
 286              		.loc 1 115 0 discriminator 3
 287 0098 FB79     		ldrb	r3, [r7, #7]	@ zero_extendqisi2
 288 009a 0133     		adds	r3, r3, #1
 289 009c FB71     		strb	r3, [r7, #7]
 290              	.L4:
 115:.\main.c      **** 		id_logo[x-13]=EEPROM_ReadByte(x);
 291              		.loc 1 115 0 is_stmt 0 discriminator 1
 292 009e FB79     		ldrb	r3, [r7, #7]	@ zero_extendqisi2
 293 00a0 0E2B     		cmp	r3, #14
 294 00a2 EDD9     		bls	.L5
 117:.\main.c      **** 	}
 118:.\main.c      **** 	lado1.mangueras=EEPROM_ReadByte(15);					//Numero de grados y codigo de cada uno 1
 295              		.loc 1 118 0 is_stmt 1
 296 00a4 0F20     		movs	r0, #15
 297 00a6 FFF7FEFF 		bl	EEPROM_ReadByte
 298 00aa 0346     		mov	r3, r0
 299 00ac 1A46     		mov	r2, r3
 300 00ae 4A4B     		ldr	r3, .L6+4
 301 00b0 83F85C20 		strb	r2, [r3, #92]
 119:.\main.c      **** 	lado1.grado[0][0]=EEPROM_ReadByte(16);
 302              		.loc 1 119 0
 303 00b4 1020     		movs	r0, #16
 304 00b6 FFF7FEFF 		bl	EEPROM_ReadByte
 305 00ba 0346     		mov	r3, r0
 306 00bc 1A46     		mov	r2, r3
 307 00be 464B     		ldr	r3, .L6+4
 308 00c0 83F85920 		strb	r2, [r3, #89]
 120:.\main.c      **** 	lado1.grado[1][0]=EEPROM_ReadByte(17);
 309              		.loc 1 120 0
 310 00c4 1120     		movs	r0, #17
 311 00c6 FFF7FEFF 		bl	EEPROM_ReadByte
 312 00ca 0346     		mov	r3, r0
 313 00cc 1A46     		mov	r2, r3
 314 00ce 424B     		ldr	r3, .L6+4
 315 00d0 83F85A20 		strb	r2, [r3, #90]
 121:.\main.c      **** 	lado1.grado[2][0]=EEPROM_ReadByte(18);
 316              		.loc 1 121 0
 317 00d4 1220     		movs	r0, #18
 318 00d6 FFF7FEFF 		bl	EEPROM_ReadByte
 319 00da 0346     		mov	r3, r0
 320 00dc 1A46     		mov	r2, r3
 321 00de 3E4B     		ldr	r3, .L6+4
 322 00e0 83F85B20 		strb	r2, [r3, #91]
 122:.\main.c      **** 	
 123:.\main.c      **** 	lado2.mangueras=EEPROM_ReadByte(19);					//Numero de grados y codigo de cada uno 1
 323              		.loc 1 123 0
 324 00e4 1320     		movs	r0, #19
ARM GAS  C:\Users\RECEPC~1\AppData\Local\Temp\cc2OimPl.s 			page 9


 325 00e6 FFF7FEFF 		bl	EEPROM_ReadByte
 326 00ea 0346     		mov	r3, r0
 327 00ec 1A46     		mov	r2, r3
 328 00ee 3B4B     		ldr	r3, .L6+8
 329 00f0 83F85C20 		strb	r2, [r3, #92]
 124:.\main.c      **** 	lado2.grado[0][0]=EEPROM_ReadByte(20);
 330              		.loc 1 124 0
 331 00f4 1420     		movs	r0, #20
 332 00f6 FFF7FEFF 		bl	EEPROM_ReadByte
 333 00fa 0346     		mov	r3, r0
 334 00fc 1A46     		mov	r2, r3
 335 00fe 374B     		ldr	r3, .L6+8
 336 0100 83F85920 		strb	r2, [r3, #89]
 125:.\main.c      **** 	lado2.grado[1][0]=EEPROM_ReadByte(21);
 337              		.loc 1 125 0
 338 0104 1520     		movs	r0, #21
 339 0106 FFF7FEFF 		bl	EEPROM_ReadByte
 340 010a 0346     		mov	r3, r0
 341 010c 1A46     		mov	r2, r3
 342 010e 334B     		ldr	r3, .L6+8
 343 0110 83F85A20 		strb	r2, [r3, #90]
 126:.\main.c      **** 	lado2.grado[2][0]=EEPROM_ReadByte(22);	
 344              		.loc 1 126 0
 345 0114 1620     		movs	r0, #22
 346 0116 FFF7FEFF 		bl	EEPROM_ReadByte
 347 011a 0346     		mov	r3, r0
 348 011c 1A46     		mov	r2, r3
 349 011e 2F4B     		ldr	r3, .L6+8
 350 0120 83F85B20 		strb	r2, [r3, #91]
 127:.\main.c      **** 	
 128:.\main.c      **** 	ppux10=EEPROM_ReadByte(23);								//PPU X10
 351              		.loc 1 128 0
 352 0124 1720     		movs	r0, #23
 353 0126 FFF7FEFF 		bl	EEPROM_ReadByte
 354 012a 0346     		mov	r3, r0
 355 012c 1A46     		mov	r2, r3
 356 012e 2E4B     		ldr	r3, .L6+20
 357 0130 1A70     		strb	r2, [r3]
 129:.\main.c      **** 
 130:.\main.c      **** 	version[1]=EEPROM_ReadByte(30);							//Version de digitos y decimales
 358              		.loc 1 130 0
 359 0132 1E20     		movs	r0, #30
 360 0134 FFF7FEFF 		bl	EEPROM_ReadByte
 361 0138 0346     		mov	r3, r0
 362 013a 1A46     		mov	r2, r3
 363 013c 2B4B     		ldr	r3, .L6+24
 364 013e 5A70     		strb	r2, [r3, #1]
 131:.\main.c      **** 	version[2]=EEPROM_ReadByte(31);
 365              		.loc 1 131 0
 366 0140 1F20     		movs	r0, #31
 367 0142 FFF7FEFF 		bl	EEPROM_ReadByte
 368 0146 0346     		mov	r3, r0
 369 0148 1A46     		mov	r2, r3
 370 014a 284B     		ldr	r3, .L6+24
 371 014c 9A70     		strb	r2, [r3, #2]
 132:.\main.c      **** 	version[3]=EEPROM_ReadByte(32);
 372              		.loc 1 132 0
ARM GAS  C:\Users\RECEPC~1\AppData\Local\Temp\cc2OimPl.s 			page 10


 373 014e 2020     		movs	r0, #32
 374 0150 FFF7FEFF 		bl	EEPROM_ReadByte
 375 0154 0346     		mov	r3, r0
 376 0156 1A46     		mov	r2, r3
 377 0158 244B     		ldr	r3, .L6+24
 378 015a DA70     		strb	r2, [r3, #3]
 133:.\main.c      **** 		 
 134:.\main.c      **** 	lado1.dir=EEPROM_ReadByte(26);							//Lado A
 379              		.loc 1 134 0
 380 015c 1A20     		movs	r0, #26
 381 015e FFF7FEFF 		bl	EEPROM_ReadByte
 382 0162 0346     		mov	r3, r0
 383 0164 1A46     		mov	r2, r3
 384 0166 1C4B     		ldr	r3, .L6+4
 385 0168 1A70     		strb	r2, [r3]
 135:.\main.c      **** 	lado2.dir=EEPROM_ReadByte(28);							//Lado B
 386              		.loc 1 135 0
 387 016a 1C20     		movs	r0, #28
 388 016c FFF7FEFF 		bl	EEPROM_ReadByte
 389 0170 0346     		mov	r3, r0
 390 0172 1A46     		mov	r2, r3
 391 0174 194B     		ldr	r3, .L6+8
 392 0176 1A70     		strb	r2, [r3]
 136:.\main.c      **** 
 137:.\main.c      ****     pantallas =EEPROM_ReadByte(33);
 393              		.loc 1 137 0
 394 0178 2120     		movs	r0, #33
 395 017a FFF7FEFF 		bl	EEPROM_ReadByte
 396 017e 0346     		mov	r3, r0
 397 0180 1A46     		mov	r2, r3
 398 0182 1B4B     		ldr	r3, .L6+28
 399 0184 1A70     		strb	r2, [r3]
 138:.\main.c      ****     kmscreen  =EEPROM_ReadByte(34);
 400              		.loc 1 138 0
 401 0186 2220     		movs	r0, #34
 402 0188 FFF7FEFF 		bl	EEPROM_ReadByte
 403 018c 0346     		mov	r3, r0
 404 018e 1A46     		mov	r2, r3
 405 0190 184B     		ldr	r3, .L6+32
 406 0192 1A70     		strb	r2, [r3]
 139:.\main.c      ****     efectivo  =EEPROM_ReadByte(35);
 407              		.loc 1 139 0
 408 0194 2320     		movs	r0, #35
 409 0196 FFF7FEFF 		bl	EEPROM_ReadByte
 410 019a 0346     		mov	r3, r0
 411 019c 1A46     		mov	r2, r3
 412 019e 164B     		ldr	r3, .L6+36
 413 01a0 1A70     		strb	r2, [r3]
 140:.\main.c      ****     
 141:.\main.c      ****     lado1.estado=libre;
 414              		.loc 1 141 0
 415 01a2 0D4B     		ldr	r3, .L6+4
 416 01a4 0122     		movs	r2, #1
 417 01a6 5A70     		strb	r2, [r3, #1]
 142:.\main.c      ****     lado2.estado=libre;
 418              		.loc 1 142 0
 419 01a8 0C4B     		ldr	r3, .L6+8
ARM GAS  C:\Users\RECEPC~1\AppData\Local\Temp\cc2OimPl.s 			page 11


 420 01aa 0122     		movs	r2, #1
 421 01ac 5A70     		strb	r2, [r3, #1]
 143:.\main.c      ****     estado_tanqueando=0;
 422              		.loc 1 143 0
 423 01ae 134B     		ldr	r3, .L6+40
 424 01b0 0022     		movs	r2, #0
 425 01b2 1A70     		strb	r2, [r3]
 144:.\main.c      **** 	version[2]=0;
 426              		.loc 1 144 0
 427 01b4 0D4B     		ldr	r3, .L6+24
 428 01b6 0022     		movs	r2, #0
 429 01b8 9A70     		strb	r2, [r3, #2]
 145:.\main.c      **** 	version[3]=3;
 430              		.loc 1 145 0
 431 01ba 0C4B     		ldr	r3, .L6+24
 432 01bc 0322     		movs	r2, #3
 433 01be DA70     		strb	r2, [r3, #3]
 146:.\main.c      ****     flujo_LCD1 = 0;
 434              		.loc 1 146 0
 435 01c0 0F4B     		ldr	r3, .L6+44
 436 01c2 0022     		movs	r2, #0
 437 01c4 1A70     		strb	r2, [r3]
 147:.\main.c      ****     CyDelay(5);	
 438              		.loc 1 147 0
 439 01c6 0520     		movs	r0, #5
 440 01c8 FFF7FEFF 		bl	CyDelay
 148:.\main.c      ****     
 149:.\main.c      **** }
 441              		.loc 1 149 0
 442 01cc 0C37     		adds	r7, r7, #12
 443              		.cfi_def_cfa_offset 12
 444 01ce BD46     		mov	sp, r7
 445              		.cfi_def_cfa_register 13
 446              		@ sp needed
 447 01d0 90BD     		pop	{r4, r7, pc}
 448              	.L7:
 449 01d2 00BF     		.align	2
 450              	.L6:
 451 01d4 00000000 		.word	timeout_autorizacion
 452 01d8 00000000 		.word	lado1
 453 01dc 00000000 		.word	lado2
 454 01e0 00000000 		.word	rventa1
 455 01e4 00000000 		.word	id_logo
 456 01e8 00000000 		.word	ppux10
 457 01ec 00000000 		.word	version
 458 01f0 00000000 		.word	pantallas
 459 01f4 00000000 		.word	kmscreen
 460 01f8 00000000 		.word	efectivo
 461 01fc 00000000 		.word	estado_tanqueando
 462 0200 00000000 		.word	flujo_LCD1
 463              		.cfi_endproc
 464              	.LFE63:
 465              		.size	init, .-init
 466              		.section	.rodata
 467              		.align	2
 468              	.LC0:
 469 0000 00       		.byte	0
ARM GAS  C:\Users\RECEPC~1\AppData\Local\Temp\cc2OimPl.s 			page 12


 470 0001 5E       		.byte	94
 471 0002 BC       		.byte	-68
 472 0003 E2       		.byte	-30
 473 0004 61       		.byte	97
 474 0005 3F       		.byte	63
 475 0006 DD       		.byte	-35
 476 0007 83       		.byte	-125
 477 0008 C2       		.byte	-62
 478 0009 9C       		.byte	-100
 479 000a 7E       		.byte	126
 480 000b 20       		.byte	32
 481 000c A3       		.byte	-93
 482 000d FD       		.byte	-3
 483 000e 1F       		.byte	31
 484 000f 41       		.byte	65
 485 0010 9D       		.byte	-99
 486 0011 C3       		.byte	-61
 487 0012 21       		.byte	33
 488 0013 7F       		.byte	127
 489 0014 FC       		.byte	-4
 490 0015 A2       		.byte	-94
 491 0016 40       		.byte	64
 492 0017 1E       		.byte	30
 493 0018 5F       		.byte	95
 494 0019 01       		.byte	1
 495 001a E3       		.byte	-29
 496 001b BD       		.byte	-67
 497 001c 3E       		.byte	62
 498 001d 60       		.byte	96
 499 001e 82       		.byte	-126
 500 001f DC       		.byte	-36
 501 0020 23       		.byte	35
 502 0021 7D       		.byte	125
 503 0022 9F       		.byte	-97
 504 0023 C1       		.byte	-63
 505 0024 42       		.byte	66
 506 0025 1C       		.byte	28
 507 0026 FE       		.byte	-2
 508 0027 A0       		.byte	-96
 509 0028 E1       		.byte	-31
 510 0029 BF       		.byte	-65
 511 002a 5D       		.byte	93
 512 002b 03       		.byte	3
 513 002c 80       		.byte	-128
 514 002d DE       		.byte	-34
 515 002e 3C       		.byte	60
 516 002f 62       		.byte	98
 517 0030 BE       		.byte	-66
 518 0031 E0       		.byte	-32
 519 0032 02       		.byte	2
 520 0033 5C       		.byte	92
 521 0034 DF       		.byte	-33
 522 0035 81       		.byte	-127
 523 0036 63       		.byte	99
 524 0037 3D       		.byte	61
 525 0038 7C       		.byte	124
 526 0039 22       		.byte	34
ARM GAS  C:\Users\RECEPC~1\AppData\Local\Temp\cc2OimPl.s 			page 13


 527 003a C0       		.byte	-64
 528 003b 9E       		.byte	-98
 529 003c 1D       		.byte	29
 530 003d 43       		.byte	67
 531 003e A1       		.byte	-95
 532 003f FF       		.byte	-1
 533 0040 46       		.byte	70
 534 0041 18       		.byte	24
 535 0042 FA       		.byte	-6
 536 0043 A4       		.byte	-92
 537 0044 27       		.byte	39
 538 0045 79       		.byte	121
 539 0046 9B       		.byte	-101
 540 0047 C5       		.byte	-59
 541 0048 84       		.byte	-124
 542 0049 DA       		.byte	-38
 543 004a 38       		.byte	56
 544 004b 66       		.byte	102
 545 004c E5       		.byte	-27
 546 004d BB       		.byte	-69
 547 004e 59       		.byte	89
 548 004f 07       		.byte	7
 549 0050 DB       		.byte	-37
 550 0051 85       		.byte	-123
 551 0052 67       		.byte	103
 552 0053 39       		.byte	57
 553 0054 BA       		.byte	-70
 554 0055 E4       		.byte	-28
 555 0056 06       		.byte	6
 556 0057 58       		.byte	88
 557 0058 19       		.byte	25
 558 0059 47       		.byte	71
 559 005a A5       		.byte	-91
 560 005b FB       		.byte	-5
 561 005c 78       		.byte	120
 562 005d 26       		.byte	38
 563 005e C4       		.byte	-60
 564 005f 9A       		.byte	-102
 565 0060 65       		.byte	101
 566 0061 3B       		.byte	59
 567 0062 D9       		.byte	-39
 568 0063 87       		.byte	-121
 569 0064 04       		.byte	4
 570 0065 5A       		.byte	90
 571 0066 B8       		.byte	-72
 572 0067 E6       		.byte	-26
 573 0068 A7       		.byte	-89
 574 0069 F9       		.byte	-7
 575 006a 1B       		.byte	27
 576 006b 45       		.byte	69
 577 006c C6       		.byte	-58
 578 006d 98       		.byte	-104
 579 006e 7A       		.byte	122
 580 006f 24       		.byte	36
 581 0070 F8       		.byte	-8
 582 0071 A6       		.byte	-90
 583 0072 44       		.byte	68
ARM GAS  C:\Users\RECEPC~1\AppData\Local\Temp\cc2OimPl.s 			page 14


 584 0073 1A       		.byte	26
 585 0074 99       		.byte	-103
 586 0075 C7       		.byte	-57
 587 0076 25       		.byte	37
 588 0077 7B       		.byte	123
 589 0078 3A       		.byte	58
 590 0079 64       		.byte	100
 591 007a 86       		.byte	-122
 592 007b D8       		.byte	-40
 593 007c 5B       		.byte	91
 594 007d 05       		.byte	5
 595 007e E7       		.byte	-25
 596 007f B9       		.byte	-71
 597 0080 8C       		.byte	-116
 598 0081 D2       		.byte	-46
 599 0082 30       		.byte	48
 600 0083 6E       		.byte	110
 601 0084 ED       		.byte	-19
 602 0085 B3       		.byte	-77
 603 0086 51       		.byte	81
 604 0087 0F       		.byte	15
 605 0088 4E       		.byte	78
 606 0089 10       		.byte	16
 607 008a F2       		.byte	-14
 608 008b AC       		.byte	-84
 609 008c 2F       		.byte	47
 610 008d 71       		.byte	113
 611 008e 93       		.byte	-109
 612 008f CD       		.byte	-51
 613 0090 11       		.byte	17
 614 0091 4F       		.byte	79
 615 0092 AD       		.byte	-83
 616 0093 F3       		.byte	-13
 617 0094 70       		.byte	112
 618 0095 2E       		.byte	46
 619 0096 CC       		.byte	-52
 620 0097 92       		.byte	-110
 621 0098 D3       		.byte	-45
 622 0099 8D       		.byte	-115
 623 009a 6F       		.byte	111
 624 009b 31       		.byte	49
 625 009c B2       		.byte	-78
 626 009d EC       		.byte	-20
 627 009e 0E       		.byte	14
 628 009f 50       		.byte	80
 629 00a0 AF       		.byte	-81
 630 00a1 F1       		.byte	-15
 631 00a2 13       		.byte	19
 632 00a3 4D       		.byte	77
 633 00a4 CE       		.byte	-50
 634 00a5 90       		.byte	-112
 635 00a6 72       		.byte	114
 636 00a7 2C       		.byte	44
 637 00a8 6D       		.byte	109
 638 00a9 33       		.byte	51
 639 00aa D1       		.byte	-47
 640 00ab 8F       		.byte	-113
ARM GAS  C:\Users\RECEPC~1\AppData\Local\Temp\cc2OimPl.s 			page 15


 641 00ac 0C       		.byte	12
 642 00ad 52       		.byte	82
 643 00ae B0       		.byte	-80
 644 00af EE       		.byte	-18
 645 00b0 32       		.byte	50
 646 00b1 6C       		.byte	108
 647 00b2 8E       		.byte	-114
 648 00b3 D0       		.byte	-48
 649 00b4 53       		.byte	83
 650 00b5 0D       		.byte	13
 651 00b6 EF       		.byte	-17
 652 00b7 B1       		.byte	-79
 653 00b8 F0       		.byte	-16
 654 00b9 AE       		.byte	-82
 655 00ba 4C       		.byte	76
 656 00bb 12       		.byte	18
 657 00bc 91       		.byte	-111
 658 00bd CF       		.byte	-49
 659 00be 2D       		.byte	45
 660 00bf 73       		.byte	115
 661 00c0 CA       		.byte	-54
 662 00c1 94       		.byte	-108
 663 00c2 76       		.byte	118
 664 00c3 28       		.byte	40
 665 00c4 AB       		.byte	-85
 666 00c5 F5       		.byte	-11
 667 00c6 17       		.byte	23
 668 00c7 49       		.byte	73
 669 00c8 08       		.byte	8
 670 00c9 56       		.byte	86
 671 00ca B4       		.byte	-76
 672 00cb EA       		.byte	-22
 673 00cc 69       		.byte	105
 674 00cd 37       		.byte	55
 675 00ce D5       		.byte	-43
 676 00cf 8B       		.byte	-117
 677 00d0 57       		.byte	87
 678 00d1 09       		.byte	9
 679 00d2 EB       		.byte	-21
 680 00d3 B5       		.byte	-75
 681 00d4 36       		.byte	54
 682 00d5 68       		.byte	104
 683 00d6 8A       		.byte	-118
 684 00d7 D4       		.byte	-44
 685 00d8 95       		.byte	-107
 686 00d9 CB       		.byte	-53
 687 00da 29       		.byte	41
 688 00db 77       		.byte	119
 689 00dc F4       		.byte	-12
 690 00dd AA       		.byte	-86
 691 00de 48       		.byte	72
 692 00df 16       		.byte	22
 693 00e0 E9       		.byte	-23
 694 00e1 B7       		.byte	-73
 695 00e2 55       		.byte	85
 696 00e3 0B       		.byte	11
 697 00e4 88       		.byte	-120
ARM GAS  C:\Users\RECEPC~1\AppData\Local\Temp\cc2OimPl.s 			page 16


 698 00e5 D6       		.byte	-42
 699 00e6 34       		.byte	52
 700 00e7 6A       		.byte	106
 701 00e8 2B       		.byte	43
 702 00e9 75       		.byte	117
 703 00ea 97       		.byte	-105
 704 00eb C9       		.byte	-55
 705 00ec 4A       		.byte	74
 706 00ed 14       		.byte	20
 707 00ee F6       		.byte	-10
 708 00ef A8       		.byte	-88
 709 00f0 74       		.byte	116
 710 00f1 2A       		.byte	42
 711 00f2 C8       		.byte	-56
 712 00f3 96       		.byte	-106
 713 00f4 15       		.byte	21
 714 00f5 4B       		.byte	75
 715 00f6 A9       		.byte	-87
 716 00f7 F7       		.byte	-9
 717 00f8 B6       		.byte	-74
 718 00f9 E8       		.byte	-24
 719 00fa 0A       		.byte	10
 720 00fb 54       		.byte	84
 721 00fc D7       		.byte	-41
 722 00fd 89       		.byte	-119
 723 00fe 6B       		.byte	107
 724 00ff 35       		.byte	53
 725              		.section	.text.verificar_check,"ax",%progbits
 726              		.align	2
 727              		.global	verificar_check
 728              		.thumb
 729              		.thumb_func
 730              		.type	verificar_check, %function
 731              	verificar_check:
 732              	.LFB64:
 150:.\main.c      **** 
 151:.\main.c      **** 
 152:.\main.c      **** /*
 153:.\main.c      **** ***************************************************************************************************
 154:.\main.c      **** *                             uint8 verificar_check(uint8 *datos, uint16 size)
 155:.\main.c      **** *
 156:.\main.c      **** * Description : calcula el checksum
 157:.\main.c      **** *               
 158:.\main.c      **** 
 159:.\main.c      **** ***************************************************************************************************
 160:.\main.c      **** */
 161:.\main.c      **** uint8 verificar_check(uint8 *datos, uint16 size){
 733              		.loc 1 161 0
 734              		.cfi_startproc
 735              		@ args = 0, pretend = 0, frame = 272
 736              		@ frame_needed = 1, uses_anonymous_args = 0
 737 0000 80B5     		push	{r7, lr}
 738              		.cfi_def_cfa_offset 8
 739              		.cfi_offset 7, -8
 740              		.cfi_offset 14, -4
 741 0002 C4B0     		sub	sp, sp, #272
 742              		.cfi_def_cfa_offset 280
ARM GAS  C:\Users\RECEPC~1\AppData\Local\Temp\cc2OimPl.s 			page 17


 743 0004 00AF     		add	r7, sp, #0
 744              		.cfi_def_cfa_register 7
 745 0006 3B1D     		adds	r3, r7, #4
 746 0008 1860     		str	r0, [r3]
 747 000a 0A46     		mov	r2, r1
 748 000c BB1C     		adds	r3, r7, #2
 749 000e 1A80     		strh	r2, [r3]	@ movhi
 162:.\main.c      **** 	uint8 checksum,index;
 163:.\main.c      **** 	uint16 i;
 164:.\main.c      ****     uint8 table[256] = { 
 750              		.loc 1 164 0
 751 0010 07F10803 		add	r3, r7, #8
 752 0014 1A4A     		ldr	r2, .L12
 753 0016 1946     		mov	r1, r3
 754 0018 4FF48073 		mov	r3, #256
 755 001c 0846     		mov	r0, r1
 756 001e 1146     		mov	r1, r2
 757 0020 1A46     		mov	r2, r3
 758 0022 FFF7FEFF 		bl	memcpy
 165:.\main.c      ****     0, 94,188,226, 97, 63,221,131,194,156,126, 32,163,253, 31, 65,
 166:.\main.c      ****     157,195, 33,127,252,162, 64, 30, 95,  1,227,189, 62, 96,130,220,
 167:.\main.c      ****     35,125,159,193, 66, 28,254,160,225,191, 93,  3,128,222, 60, 98,
 168:.\main.c      ****     190,224,  2, 92,223,129, 99, 61,124, 34,192,158, 29, 67,161,255,
 169:.\main.c      ****     70, 24,250,164, 39,121,155,197,132,218, 56,102,229,187, 89,  7,
 170:.\main.c      ****     219,133,103, 57,186,228,  6, 88, 25, 71,165,251,120, 38,196,154,
 171:.\main.c      ****     101, 59,217,135,  4, 90,184,230,167,249, 27, 69,198,152,122, 36,
 172:.\main.c      ****     248,166, 68, 26,153,199, 37,123, 58,100,134,216, 91,  5,231,185,
 173:.\main.c      ****     140,210, 48,110,237,179, 81, 15, 78, 16,242,172, 47,113,147,205,
 174:.\main.c      ****     17, 79,173,243,112, 46,204,146,211,141,111, 49,178,236, 14, 80,
 175:.\main.c      ****     175,241, 19, 77,206,144,114, 44,109, 51,209,143, 12, 82,176,238,
 176:.\main.c      ****     50,108,142,208, 83, 13,239,177,240,174, 76, 18,145,207, 45,115,
 177:.\main.c      ****     202,148,118, 40,171,245, 23, 73,  8, 86,180,234,105, 55,213,139,
 178:.\main.c      ****     87,  9,235,181, 54,104,138,212,149,203, 41,119,244,170, 72, 22,
 179:.\main.c      ****     233,183, 85, 11,136,214, 52,106, 43,117,151,201, 74, 20,246,168,
 180:.\main.c      ****     116, 42,200,150, 21, 75,169,247,182,232, 10, 84,215,137,107, 53};	
 181:.\main.c      **** 	checksum=0;
 759              		.loc 1 181 0
 760 0026 0023     		movs	r3, #0
 761 0028 87F80F31 		strb	r3, [r7, #271]
 182:.\main.c      **** 	for(i=0;i<(size-1);i++){
 762              		.loc 1 182 0
 763 002c 0023     		movs	r3, #0
 764 002e A7F80C31 		strh	r3, [r7, #268]	@ movhi
 765 0032 16E0     		b	.L9
 766              	.L10:
 183:.\main.c      **** 		index = (uint8)(checksum ^ datos[i]);
 767              		.loc 1 183 0 discriminator 3
 768 0034 B7F80C31 		ldrh	r3, [r7, #268]
 769 0038 3A1D     		adds	r2, r7, #4
 770 003a 1268     		ldr	r2, [r2]
 771 003c 1344     		add	r3, r3, r2
 772 003e 1A78     		ldrb	r2, [r3]	@ zero_extendqisi2
 773 0040 97F80F31 		ldrb	r3, [r7, #271]
 774 0044 5340     		eors	r3, r3, r2
 775 0046 87F80B31 		strb	r3, [r7, #267]
 184:.\main.c      **** 		checksum = table[index];				
 776              		.loc 1 184 0 discriminator 3
ARM GAS  C:\Users\RECEPC~1\AppData\Local\Temp\cc2OimPl.s 			page 18


 777 004a 97F80B31 		ldrb	r3, [r7, #267]	@ zero_extendqisi2
 778 004e 07F10802 		add	r2, r7, #8
 779 0052 D35C     		ldrb	r3, [r2, r3]
 780 0054 87F80F31 		strb	r3, [r7, #271]
 182:.\main.c      **** 	for(i=0;i<(size-1);i++){
 781              		.loc 1 182 0 discriminator 3
 782 0058 B7F80C31 		ldrh	r3, [r7, #268]
 783 005c 0133     		adds	r3, r3, #1
 784 005e A7F80C31 		strh	r3, [r7, #268]	@ movhi
 785              	.L9:
 182:.\main.c      **** 	for(i=0;i<(size-1);i++){
 786              		.loc 1 182 0 is_stmt 0 discriminator 1
 787 0062 B7F80C21 		ldrh	r2, [r7, #268]
 788 0066 BB1C     		adds	r3, r7, #2
 789 0068 1B88     		ldrh	r3, [r3]
 790 006a 013B     		subs	r3, r3, #1
 791 006c 9A42     		cmp	r2, r3
 792 006e E1DB     		blt	.L10
 185:.\main.c      **** 	}
 186:.\main.c      **** 	return checksum;
 793              		.loc 1 186 0 is_stmt 1
 794 0070 97F80F31 		ldrb	r3, [r7, #271]	@ zero_extendqisi2
 187:.\main.c      **** }
 795              		.loc 1 187 0
 796 0074 1846     		mov	r0, r3
 797 0076 07F58877 		add	r7, r7, #272
 798              		.cfi_def_cfa_offset 8
 799 007a BD46     		mov	sp, r7
 800              		.cfi_def_cfa_register 13
 801              		@ sp needed
 802 007c 80BD     		pop	{r7, pc}
 803              	.L13:
 804 007e 00BF     		.align	2
 805              	.L12:
 806 0080 00000000 		.word	.LC0
 807              		.cfi_endproc
 808              	.LFE64:
 809              		.size	verificar_check, .-verificar_check
 810              		.section	.text.error_op,"ax",%progbits
 811              		.align	2
 812              		.global	error_op
 813              		.thumb
 814              		.thumb_func
 815              		.type	error_op, %function
 816              	error_op:
 817              	.LFB65:
 188:.\main.c      **** 
 189:.\main.c      **** /*
 190:.\main.c      **** ***************************************************************************************************
 191:.\main.c      **** *                                         void error_op()
 192:.\main.c      **** *
 193:.\main.c      **** * Description : Muestra en la pantalla el mensaje de operación incorrecta y regresa al inicio del 
 194:.\main.c      **** *               
 195:.\main.c      **** *
 196:.\main.c      **** * Argument(s) : uint8 lcd, para elegir cual pantalla entra en esta función
 197:.\main.c      **** *
 198:.\main.c      **** * Return(s)   : none
ARM GAS  C:\Users\RECEPC~1\AppData\Local\Temp\cc2OimPl.s 			page 19


 199:.\main.c      **** *
 200:.\main.c      **** * Caller(s)   : Desde cualquier momento de la operacion donde ocurra un error por parte del usuario
 201:.\main.c      **** *
 202:.\main.c      **** * Note(s)     : none.
 203:.\main.c      **** ***************************************************************************************************
 204:.\main.c      **** */
 205:.\main.c      **** void error_op(uint8 lcd, uint16 imagen){
 818              		.loc 1 205 0
 819              		.cfi_startproc
 820              		@ args = 0, pretend = 0, frame = 8
 821              		@ frame_needed = 1, uses_anonymous_args = 0
 822 0000 80B5     		push	{r7, lr}
 823              		.cfi_def_cfa_offset 8
 824              		.cfi_offset 7, -8
 825              		.cfi_offset 14, -4
 826 0002 82B0     		sub	sp, sp, #8
 827              		.cfi_def_cfa_offset 16
 828 0004 00AF     		add	r7, sp, #0
 829              		.cfi_def_cfa_register 7
 830 0006 0346     		mov	r3, r0
 831 0008 0A46     		mov	r2, r1
 832 000a FB71     		strb	r3, [r7, #7]
 833 000c 1346     		mov	r3, r2	@ movhi
 834 000e BB80     		strh	r3, [r7, #4]	@ movhi
 206:.\main.c      **** 	if(lcd==1){
 835              		.loc 1 206 0
 836 0010 FB79     		ldrb	r3, [r7, #7]	@ zero_extendqisi2
 837 0012 012B     		cmp	r3, #1
 838 0014 13D1     		bne	.L15
 207:.\main.c      **** 	   set_imagen(1,imagen);
 839              		.loc 1 207 0
 840 0016 BB88     		ldrh	r3, [r7, #4]
 841 0018 0120     		movs	r0, #1
 842 001a 1946     		mov	r1, r3
 843 001c FFF7FEFF 		bl	set_imagen
 208:.\main.c      **** 	   flujo_LCD1=100;
 844              		.loc 1 208 0
 845 0020 104B     		ldr	r3, .L17
 846 0022 6422     		movs	r2, #100
 847 0024 1A70     		strb	r2, [r3]
 209:.\main.c      **** 	   count_protector=1;
 848              		.loc 1 209 0
 849 0026 104B     		ldr	r3, .L17+4
 850 0028 0122     		movs	r2, #1
 851 002a 1A70     		strb	r2, [r3]
 210:.\main.c      ****        lado1.estado=libre;       
 852              		.loc 1 210 0
 853 002c 0F4B     		ldr	r3, .L17+8
 854 002e 0122     		movs	r2, #1
 855 0030 5A70     		strb	r2, [r3, #1]
 211:.\main.c      **** 	   isr_3_StartEx(animacion);  
 856              		.loc 1 211 0
 857 0032 0F48     		ldr	r0, .L17+12
 858 0034 FFF7FEFF 		bl	isr_3_StartEx
 212:.\main.c      **** 	   Timer_Animacion_Start();
 859              		.loc 1 212 0
 860 0038 FFF7FEFF 		bl	Timer_Animacion_Start
ARM GAS  C:\Users\RECEPC~1\AppData\Local\Temp\cc2OimPl.s 			page 20


 861 003c 0FE0     		b	.L14
 862              	.L15:
 213:.\main.c      **** 	}
 214:.\main.c      **** 	else{
 215:.\main.c      **** 	    set_imagen(2,imagen);
 863              		.loc 1 215 0
 864 003e BB88     		ldrh	r3, [r7, #4]
 865 0040 0220     		movs	r0, #2
 866 0042 1946     		mov	r1, r3
 867 0044 FFF7FEFF 		bl	set_imagen
 216:.\main.c      **** 	    flujo_LCD2=100;
 868              		.loc 1 216 0
 869 0048 0A4B     		ldr	r3, .L17+16
 870 004a 6422     		movs	r2, #100
 871 004c 1A70     		strb	r2, [r3]
 217:.\main.c      **** 		count_protector2=1;
 872              		.loc 1 217 0
 873 004e 0A4B     		ldr	r3, .L17+20
 874 0050 0122     		movs	r2, #1
 875 0052 1A70     		strb	r2, [r3]
 218:.\main.c      **** 	    isr_4_StartEx(animacion2);  
 876              		.loc 1 218 0
 877 0054 0948     		ldr	r0, .L17+24
 878 0056 FFF7FEFF 		bl	isr_4_StartEx
 219:.\main.c      **** 	    Timer_Animacion2_Start();	
 879              		.loc 1 219 0
 880 005a FFF7FEFF 		bl	Timer_Animacion2_Start
 881              	.L14:
 220:.\main.c      **** 	}
 221:.\main.c      **** }
 882              		.loc 1 221 0
 883 005e 0837     		adds	r7, r7, #8
 884              		.cfi_def_cfa_offset 8
 885 0060 BD46     		mov	sp, r7
 886              		.cfi_def_cfa_register 13
 887              		@ sp needed
 888 0062 80BD     		pop	{r7, pc}
 889              	.L18:
 890              		.align	2
 891              	.L17:
 892 0064 00000000 		.word	flujo_LCD1
 893 0068 00000000 		.word	count_protector
 894 006c 00000000 		.word	lado1
 895 0070 00000000 		.word	animacion
 896 0074 00000000 		.word	flujo_LCD2
 897 0078 00000000 		.word	count_protector2
 898 007c 00000000 		.word	animacion2
 899              		.cfi_endproc
 900              	.LFE65:
 901              		.size	error_op, .-error_op
 902              		.section	.text.init_surt,"ax",%progbits
 903              		.align	2
 904              		.global	init_surt
 905              		.thumb
 906              		.thumb_func
 907              		.type	init_surt, %function
 908              	init_surt:
ARM GAS  C:\Users\RECEPC~1\AppData\Local\Temp\cc2OimPl.s 			page 21


 909              	.LFB66:
 222:.\main.c      **** 
 223:.\main.c      **** /*
 224:.\main.c      **** ***************************************************************************************************
 225:.\main.c      **** *                                         init_surt( void )
 226:.\main.c      **** *
 227:.\main.c      **** * Description : Busca las posiciones del surtidor y las graba en lado.lado1.dir y lado.lado2.dir
 228:.\main.c      **** *               
 229:.\main.c      **** *
 230:.\main.c      **** * Argument(s) : none
 231:.\main.c      **** *
 232:.\main.c      **** * Return(s)   : none
 233:.\main.c      **** *
 234:.\main.c      **** * Caller(s)   : main()
 235:.\main.c      **** *
 236:.\main.c      **** * Note(s)     : Falta generar codigo para los casos 1 y 2
 237:.\main.c      **** ***************************************************************************************************
 238:.\main.c      **** */
 239:.\main.c      **** void init_surt(void){
 910              		.loc 1 239 0
 911              		.cfi_startproc
 912              		@ args = 0, pretend = 0, frame = 8
 913              		@ frame_needed = 1, uses_anonymous_args = 0
 914 0000 80B5     		push	{r7, lr}
 915              		.cfi_def_cfa_offset 8
 916              		.cfi_offset 7, -8
 917              		.cfi_offset 14, -4
 918 0002 82B0     		sub	sp, sp, #8
 919              		.cfi_def_cfa_offset 16
 920 0004 00AF     		add	r7, sp, #0
 921              		.cfi_def_cfa_register 7
 240:.\main.c      **** 	uint8 estado, ok=0;
 922              		.loc 1 240 0
 923 0006 0023     		movs	r3, #0
 924 0008 FB71     		strb	r3, [r7, #7]
 241:.\main.c      **** 	while(ok<=1){
 925              		.loc 1 241 0
 926 000a 80E1     		b	.L20
 927              	.L49:
 242:.\main.c      **** 		ok=0;
 928              		.loc 1 242 0
 929 000c 0023     		movs	r3, #0
 930 000e FB71     		strb	r3, [r7, #7]
 243:.\main.c      **** 		if((lado1.dir==0xFF)||(lado2.dir==0xFF)){
 931              		.loc 1 243 0
 932 0010 C24B     		ldr	r3, .L50
 933 0012 1B78     		ldrb	r3, [r3]
 934 0014 DBB2     		uxtb	r3, r3
 935 0016 FF2B     		cmp	r3, #255
 936 0018 04D0     		beq	.L21
 937              		.loc 1 243 0 is_stmt 0 discriminator 1
 938 001a C14B     		ldr	r3, .L50+4
 939 001c 1B78     		ldrb	r3, [r3]
 940 001e DBB2     		uxtb	r3, r3
 941 0020 FF2B     		cmp	r3, #255
 942 0022 58D1     		bne	.L22
 943              	.L21:
ARM GAS  C:\Users\RECEPC~1\AppData\Local\Temp\cc2OimPl.s 			page 22


 244:.\main.c      **** 			while(ver_pos()==0){};
 944              		.loc 1 244 0 is_stmt 1
 945 0024 00BF     		nop
 946              	.L23:
 947              		.loc 1 244 0 is_stmt 0 discriminator 1
 948 0026 FFF7FEFF 		bl	ver_pos
 949 002a 0346     		mov	r3, r0
 950 002c 002B     		cmp	r3, #0
 951 002e FAD0     		beq	.L23
 245:.\main.c      **** 		    while(totales(lado1.dir, lado1.mangueras)==0);			
 952              		.loc 1 245 0 is_stmt 1
 953 0030 00BF     		nop
 954              	.L24:
 955              		.loc 1 245 0 is_stmt 0 discriminator 1
 956 0032 BA4B     		ldr	r3, .L50
 957 0034 1B78     		ldrb	r3, [r3]
 958 0036 DAB2     		uxtb	r2, r3
 959 0038 B84B     		ldr	r3, .L50
 960 003a 93F85C30 		ldrb	r3, [r3, #92]
 961 003e DBB2     		uxtb	r3, r3
 962 0040 1046     		mov	r0, r2
 963 0042 1946     		mov	r1, r3
 964 0044 FFF7FEFF 		bl	totales
 965 0048 0346     		mov	r3, r0
 966 004a 002B     		cmp	r3, #0
 967 004c F1D0     		beq	.L24
 246:.\main.c      **** 			CyDelay(50);	
 968              		.loc 1 246 0 is_stmt 1
 969 004e 3220     		movs	r0, #50
 970 0050 FFF7FEFF 		bl	CyDelay
 247:.\main.c      **** 			while(totales(lado2.dir, lado2.mangueras)==0);
 971              		.loc 1 247 0
 972 0054 00BF     		nop
 973              	.L25:
 974              		.loc 1 247 0 is_stmt 0 discriminator 1
 975 0056 B24B     		ldr	r3, .L50+4
 976 0058 1B78     		ldrb	r3, [r3]
 977 005a DAB2     		uxtb	r2, r3
 978 005c B04B     		ldr	r3, .L50+4
 979 005e 93F85C30 		ldrb	r3, [r3, #92]
 980 0062 DBB2     		uxtb	r3, r3
 981 0064 1046     		mov	r0, r2
 982 0066 1946     		mov	r1, r3
 983 0068 FFF7FEFF 		bl	totales
 984 006c 0346     		mov	r3, r0
 985 006e 002B     		cmp	r3, #0
 986 0070 F1D0     		beq	.L25
 248:.\main.c      **** 			CyDelay(50);	
 987              		.loc 1 248 0 is_stmt 1
 988 0072 3220     		movs	r0, #50
 989 0074 FFF7FEFF 		bl	CyDelay
 249:.\main.c      **** 			if(EEPROM_WriteByte(lado1.dir, 26)==CYRET_SUCCESS){
 990              		.loc 1 249 0
 991 0078 A84B     		ldr	r3, .L50
 992 007a 1B78     		ldrb	r3, [r3]
 993 007c DBB2     		uxtb	r3, r3
 994 007e 1846     		mov	r0, r3
ARM GAS  C:\Users\RECEPC~1\AppData\Local\Temp\cc2OimPl.s 			page 23


 995 0080 1A21     		movs	r1, #26
 996 0082 FFF7FEFF 		bl	EEPROM_WriteByte
 997 0086 0346     		mov	r3, r0
 998 0088 002B     		cmp	r3, #0
 999 008a 04D1     		bne	.L26
 250:.\main.c      **** 				set_imagen(1,60);								
 1000              		.loc 1 250 0
 1001 008c 0120     		movs	r0, #1
 1002 008e 3C21     		movs	r1, #60
 1003 0090 FFF7FEFF 		bl	set_imagen
 1004 0094 03E0     		b	.L27
 1005              	.L26:
 251:.\main.c      **** 			}
 252:.\main.c      **** 			else{
 253:.\main.c      **** 				set_imagen(1,85);
 1006              		.loc 1 253 0
 1007 0096 0120     		movs	r0, #1
 1008 0098 5521     		movs	r1, #85
 1009 009a FFF7FEFF 		bl	set_imagen
 1010              	.L27:
 254:.\main.c      **** 			}
 255:.\main.c      **** 			if(EEPROM_WriteByte(lado2.dir, 28)==CYRET_SUCCESS){
 1011              		.loc 1 255 0
 1012 009e A04B     		ldr	r3, .L50+4
 1013 00a0 1B78     		ldrb	r3, [r3]
 1014 00a2 DBB2     		uxtb	r3, r3
 1015 00a4 1846     		mov	r0, r3
 1016 00a6 1C21     		movs	r1, #28
 1017 00a8 FFF7FEFF 		bl	EEPROM_WriteByte
 1018 00ac 0346     		mov	r3, r0
 1019 00ae 002B     		cmp	r3, #0
 1020 00b0 04D1     		bne	.L28
 256:.\main.c      **** 				set_imagen(2,60);								
 1021              		.loc 1 256 0
 1022 00b2 0220     		movs	r0, #2
 1023 00b4 3C21     		movs	r1, #60
 1024 00b6 FFF7FEFF 		bl	set_imagen
 1025 00ba 03E0     		b	.L29
 1026              	.L28:
 257:.\main.c      **** 			}
 258:.\main.c      **** 			else{
 259:.\main.c      **** 				set_imagen(2,85);
 1027              		.loc 1 259 0
 1028 00bc 0220     		movs	r0, #2
 1029 00be 5521     		movs	r1, #85
 1030 00c0 FFF7FEFF 		bl	set_imagen
 1031              	.L29:
 260:.\main.c      **** 			}
 261:.\main.c      **** 			flujo_LCD2=0;
 1032              		.loc 1 261 0
 1033 00c4 974B     		ldr	r3, .L50+8
 1034 00c6 0022     		movs	r2, #0
 1035 00c8 1A70     		strb	r2, [r3]
 262:.\main.c      **** 			flujo_LCD1=0;			
 1036              		.loc 1 262 0
 1037 00ca 974B     		ldr	r3, .L50+12
 1038 00cc 0022     		movs	r2, #0
ARM GAS  C:\Users\RECEPC~1\AppData\Local\Temp\cc2OimPl.s 			page 24


 1039 00ce 1A70     		strb	r2, [r3]
 263:.\main.c      **** 			ok=1;	
 1040              		.loc 1 263 0
 1041 00d0 0123     		movs	r3, #1
 1042 00d2 FB71     		strb	r3, [r7, #7]
 1043 00d4 1BE1     		b	.L20
 1044              	.L22:
 264:.\main.c      **** 		}
 265:.\main.c      **** 		else{
 266:.\main.c      **** 			estado=get_estado(lado1.dir);										
 1045              		.loc 1 266 0
 1046 00d6 914B     		ldr	r3, .L50
 1047 00d8 1B78     		ldrb	r3, [r3]
 1048 00da DBB2     		uxtb	r3, r3
 1049 00dc 1846     		mov	r0, r3
 1050 00de FFF7FEFF 		bl	get_estado
 1051 00e2 0346     		mov	r3, r0
 1052 00e4 BB71     		strb	r3, [r7, #6]
 267:.\main.c      **** 			switch(estado){
 1053              		.loc 1 267 0
 1054 00e6 BB79     		ldrb	r3, [r7, #6]	@ zero_extendqisi2
 1055 00e8 0C2B     		cmp	r3, #12
 1056 00ea 7ED8     		bhi	.L30
 1057 00ec 01A2     		adr	r2, .L32
 1058 00ee 52F823F0 		ldr	pc, [r2, r3, lsl #2]
 1059 00f2 00BF     		.p2align 2
 1060              	.L32:
 1061 00f4 29010000 		.word	.L31+1
 1062 00f8 EB010000 		.word	.L30+1
 1063 00fc EB010000 		.word	.L30+1
 1064 0100 EB010000 		.word	.L30+1
 1065 0104 EB010000 		.word	.L30+1
 1066 0108 EB010000 		.word	.L30+1
 1067 010c 31010000 		.word	.L33+1
 1068 0110 6D010000 		.word	.L34+1
 1069 0114 97010000 		.word	.L35+1
 1070 0118 AB010000 		.word	.L36+1
 1071 011c C7010000 		.word	.L37+1
 1072 0120 B9010000 		.word	.L38+1
 1073 0124 D5010000 		.word	.L39+1
 1074              		.p2align 1
 1075              	.L31:
 268:.\main.c      **** 		         case 0:                     
 269:.\main.c      **** 					lado1.dir=0xFF;
 1076              		.loc 1 269 0
 1077 0128 7C4B     		ldr	r3, .L50
 1078 012a FF22     		movs	r2, #255
 1079 012c 1A70     		strb	r2, [r3]
 270:.\main.c      **** 				 break;	
 1080              		.loc 1 270 0
 1081 012e 5CE0     		b	.L30
 1082              	.L33:
 271:.\main.c      **** 			
 272:.\main.c      **** 				case 0x06:
 273:.\main.c      **** 					venta(lado1.dir);
 1083              		.loc 1 273 0
 1084 0130 7A4B     		ldr	r3, .L50
ARM GAS  C:\Users\RECEPC~1\AppData\Local\Temp\cc2OimPl.s 			page 25


 1085 0132 1B78     		ldrb	r3, [r3]
 1086 0134 DBB2     		uxtb	r3, r3
 1087 0136 1846     		mov	r0, r3
 1088 0138 FFF7FEFF 		bl	venta
 274:.\main.c      **** 					CyDelay(50);	
 1089              		.loc 1 274 0
 1090 013c 3220     		movs	r0, #50
 1091 013e FFF7FEFF 		bl	CyDelay
 275:.\main.c      **** 					totales(lado1.dir, lado1.mangueras);
 1092              		.loc 1 275 0
 1093 0142 764B     		ldr	r3, .L50
 1094 0144 1B78     		ldrb	r3, [r3]
 1095 0146 DAB2     		uxtb	r2, r3
 1096 0148 744B     		ldr	r3, .L50
 1097 014a 93F85C30 		ldrb	r3, [r3, #92]
 1098 014e DBB2     		uxtb	r3, r3
 1099 0150 1046     		mov	r0, r2
 1100 0152 1946     		mov	r1, r3
 1101 0154 FFF7FEFF 		bl	totales
 276:.\main.c      **** 					CyDelay(50);	
 1102              		.loc 1 276 0
 1103 0158 3220     		movs	r0, #50
 1104 015a FFF7FEFF 		bl	CyDelay
 277:.\main.c      **** 					flujo_LCD1=0;					
 1105              		.loc 1 277 0
 1106 015e 724B     		ldr	r3, .L50+12
 1107 0160 0022     		movs	r2, #0
 1108 0162 1A70     		strb	r2, [r3]
 278:.\main.c      **** 					ok++;
 1109              		.loc 1 278 0
 1110 0164 FB79     		ldrb	r3, [r7, #7]	@ zero_extendqisi2
 1111 0166 0133     		adds	r3, r3, #1
 1112 0168 FB71     		strb	r3, [r7, #7]
 279:.\main.c      **** 				break;
 1113              		.loc 1 279 0
 1114 016a 3EE0     		b	.L30
 1115              	.L34:
 280:.\main.c      **** 					
 281:.\main.c      **** 				case 0x07:	
 282:.\main.c      **** 					totales(lado1.dir, lado1.mangueras);
 1116              		.loc 1 282 0
 1117 016c 6B4B     		ldr	r3, .L50
 1118 016e 1B78     		ldrb	r3, [r3]
 1119 0170 DAB2     		uxtb	r2, r3
 1120 0172 6A4B     		ldr	r3, .L50
 1121 0174 93F85C30 		ldrb	r3, [r3, #92]
 1122 0178 DBB2     		uxtb	r3, r3
 1123 017a 1046     		mov	r0, r2
 1124 017c 1946     		mov	r1, r3
 1125 017e FFF7FEFF 		bl	totales
 283:.\main.c      **** 					CyDelay(50);	
 1126              		.loc 1 283 0
 1127 0182 3220     		movs	r0, #50
 1128 0184 FFF7FEFF 		bl	CyDelay
 284:.\main.c      **** 					flujo_LCD1=0;					
 1129              		.loc 1 284 0
 1130 0188 674B     		ldr	r3, .L50+12
ARM GAS  C:\Users\RECEPC~1\AppData\Local\Temp\cc2OimPl.s 			page 26


 1131 018a 0022     		movs	r2, #0
 1132 018c 1A70     		strb	r2, [r3]
 285:.\main.c      **** 					ok++;
 1133              		.loc 1 285 0
 1134 018e FB79     		ldrb	r3, [r7, #7]	@ zero_extendqisi2
 1135 0190 0133     		adds	r3, r3, #1
 1136 0192 FB71     		strb	r3, [r7, #7]
 286:.\main.c      **** 				break;
 1137              		.loc 1 286 0
 1138 0194 29E0     		b	.L30
 1139              	.L35:
 287:.\main.c      **** 				
 288:.\main.c      **** 				case 0x08:
 289:.\main.c      **** 			     	flujo_LCD1=8;
 1140              		.loc 1 289 0
 1141 0196 644B     		ldr	r3, .L50+12
 1142 0198 0822     		movs	r2, #8
 1143 019a 1A70     		strb	r2, [r3]
 290:.\main.c      ****                     seleccion_pos = 1;
 1144              		.loc 1 290 0
 1145 019c 634B     		ldr	r3, .L50+16
 1146 019e 0122     		movs	r2, #1
 1147 01a0 1A70     		strb	r2, [r3]
 291:.\main.c      **** 					ok++;
 1148              		.loc 1 291 0
 1149 01a2 FB79     		ldrb	r3, [r7, #7]	@ zero_extendqisi2
 1150 01a4 0133     		adds	r3, r3, #1
 1151 01a6 FB71     		strb	r3, [r7, #7]
 292:.\main.c      **** 				break;
 1152              		.loc 1 292 0
 1153 01a8 1FE0     		b	.L30
 1154              	.L36:
 293:.\main.c      **** 					
 294:.\main.c      **** 				case 0x09:
 295:.\main.c      **** 			     	flujo_LCD1=11;
 1155              		.loc 1 295 0
 1156 01aa 5F4B     		ldr	r3, .L50+12
 1157 01ac 0B22     		movs	r2, #11
 1158 01ae 1A70     		strb	r2, [r3]
 296:.\main.c      **** 					ok++;
 1159              		.loc 1 296 0
 1160 01b0 FB79     		ldrb	r3, [r7, #7]	@ zero_extendqisi2
 1161 01b2 0133     		adds	r3, r3, #1
 1162 01b4 FB71     		strb	r3, [r7, #7]
 297:.\main.c      **** 				break;
 1163              		.loc 1 297 0
 1164 01b6 18E0     		b	.L30
 1165              	.L38:
 298:.\main.c      **** 				
 299:.\main.c      **** 		         case 0x0B:                     //Termino venta
 300:.\main.c      **** 					flujo_LCD1=12;
 1166              		.loc 1 300 0
 1167 01b8 5B4B     		ldr	r3, .L50+12
 1168 01ba 0C22     		movs	r2, #12
 1169 01bc 1A70     		strb	r2, [r3]
 301:.\main.c      **** 					ok++;
 1170              		.loc 1 301 0
ARM GAS  C:\Users\RECEPC~1\AppData\Local\Temp\cc2OimPl.s 			page 27


 1171 01be FB79     		ldrb	r3, [r7, #7]	@ zero_extendqisi2
 1172 01c0 0133     		adds	r3, r3, #1
 1173 01c2 FB71     		strb	r3, [r7, #7]
 302:.\main.c      **** 				 break;	
 1174              		.loc 1 302 0
 1175 01c4 11E0     		b	.L30
 1176              	.L37:
 303:.\main.c      **** 					
 304:.\main.c      **** 		         case 0x0A:						//Termino venta
 305:.\main.c      **** 					flujo_LCD1=12;
 1177              		.loc 1 305 0
 1178 01c6 584B     		ldr	r3, .L50+12
 1179 01c8 0C22     		movs	r2, #12
 1180 01ca 1A70     		strb	r2, [r3]
 306:.\main.c      **** 					ok++;
 1181              		.loc 1 306 0
 1182 01cc FB79     		ldrb	r3, [r7, #7]	@ zero_extendqisi2
 1183 01ce 0133     		adds	r3, r3, #1
 1184 01d0 FB71     		strb	r3, [r7, #7]
 307:.\main.c      **** 				 break;
 1185              		.loc 1 307 0
 1186 01d2 0AE0     		b	.L30
 1187              	.L39:
 308:.\main.c      **** 					
 309:.\main.c      **** 		         case 0x0C:						//Bloqueado por surtiendo al iniciar
 310:.\main.c      **** 			     	flujo_LCD1=11;
 1188              		.loc 1 310 0
 1189 01d4 544B     		ldr	r3, .L50+12
 1190 01d6 0B22     		movs	r2, #11
 1191 01d8 1A70     		strb	r2, [r3]
 311:.\main.c      **** 				 	set_imagen(1,8);
 1192              		.loc 1 311 0
 1193 01da 0120     		movs	r0, #1
 1194 01dc 0821     		movs	r1, #8
 1195 01de FFF7FEFF 		bl	set_imagen
 312:.\main.c      **** 					ok++;
 1196              		.loc 1 312 0
 1197 01e2 FB79     		ldrb	r3, [r7, #7]	@ zero_extendqisi2
 1198 01e4 0133     		adds	r3, r3, #1
 1199 01e6 FB71     		strb	r3, [r7, #7]
 313:.\main.c      **** 				 break;					
 1200              		.loc 1 313 0
 1201 01e8 00BF     		nop
 1202              	.L30:
 314:.\main.c      **** 					
 315:.\main.c      **** 			}
 316:.\main.c      **** 			estado=get_estado(lado2.dir);										
 1203              		.loc 1 316 0
 1204 01ea 4D4B     		ldr	r3, .L50+4
 1205 01ec 1B78     		ldrb	r3, [r3]
 1206 01ee DBB2     		uxtb	r3, r3
 1207 01f0 1846     		mov	r0, r3
 1208 01f2 FFF7FEFF 		bl	get_estado
 1209 01f6 0346     		mov	r3, r0
 1210 01f8 BB71     		strb	r3, [r7, #6]
 317:.\main.c      **** 			switch(estado){
 1211              		.loc 1 317 0
ARM GAS  C:\Users\RECEPC~1\AppData\Local\Temp\cc2OimPl.s 			page 28


 1212 01fa BB79     		ldrb	r3, [r7, #6]	@ zero_extendqisi2
 1213 01fc 0C2B     		cmp	r3, #12
 1214 01fe 00F28680 		bhi	.L20
 1215 0202 01A2     		adr	r2, .L41
 1216 0204 52F823F0 		ldr	pc, [r2, r3, lsl #2]
 1217              		.p2align 2
 1218              	.L41:
 1219 0208 3D020000 		.word	.L40+1
 1220 020c 0F030000 		.word	.L20+1
 1221 0210 0F030000 		.word	.L20+1
 1222 0214 0F030000 		.word	.L20+1
 1223 0218 0F030000 		.word	.L20+1
 1224 021c 0F030000 		.word	.L20+1
 1225 0220 45020000 		.word	.L42+1
 1226 0224 81020000 		.word	.L43+1
 1227 0228 AB020000 		.word	.L44+1
 1228 022c C7020000 		.word	.L45+1
 1229 0230 EB020000 		.word	.L46+1
 1230 0234 DD020000 		.word	.L47+1
 1231 0238 F9020000 		.word	.L48+1
 1232              		.p2align 1
 1233              	.L40:
 318:.\main.c      **** 		         case 0:                     
 319:.\main.c      **** 					lado2.dir=0xFF;
 1234              		.loc 1 319 0
 1235 023c 384B     		ldr	r3, .L50+4
 1236 023e FF22     		movs	r2, #255
 1237 0240 1A70     		strb	r2, [r3]
 320:.\main.c      **** 				 break;	
 1238              		.loc 1 320 0
 1239 0242 64E0     		b	.L20
 1240              	.L42:
 321:.\main.c      **** 			
 322:.\main.c      **** 				case 0x06:
 323:.\main.c      **** 					venta(lado2.dir);
 1241              		.loc 1 323 0
 1242 0244 364B     		ldr	r3, .L50+4
 1243 0246 1B78     		ldrb	r3, [r3]
 1244 0248 DBB2     		uxtb	r3, r3
 1245 024a 1846     		mov	r0, r3
 1246 024c FFF7FEFF 		bl	venta
 324:.\main.c      **** 					CyDelay(50);		
 1247              		.loc 1 324 0
 1248 0250 3220     		movs	r0, #50
 1249 0252 FFF7FEFF 		bl	CyDelay
 325:.\main.c      **** 					totales(lado2.dir, lado2.mangueras);
 1250              		.loc 1 325 0
 1251 0256 324B     		ldr	r3, .L50+4
 1252 0258 1B78     		ldrb	r3, [r3]
 1253 025a DAB2     		uxtb	r2, r3
 1254 025c 304B     		ldr	r3, .L50+4
 1255 025e 93F85C30 		ldrb	r3, [r3, #92]
 1256 0262 DBB2     		uxtb	r3, r3
 1257 0264 1046     		mov	r0, r2
 1258 0266 1946     		mov	r1, r3
 1259 0268 FFF7FEFF 		bl	totales
 326:.\main.c      **** 					CyDelay(50);	
ARM GAS  C:\Users\RECEPC~1\AppData\Local\Temp\cc2OimPl.s 			page 29


 1260              		.loc 1 326 0
 1261 026c 3220     		movs	r0, #50
 1262 026e FFF7FEFF 		bl	CyDelay
 327:.\main.c      **** 					flujo_LCD2=0;				
 1263              		.loc 1 327 0
 1264 0272 2C4B     		ldr	r3, .L50+8
 1265 0274 0022     		movs	r2, #0
 1266 0276 1A70     		strb	r2, [r3]
 328:.\main.c      **** 					ok++;
 1267              		.loc 1 328 0
 1268 0278 FB79     		ldrb	r3, [r7, #7]	@ zero_extendqisi2
 1269 027a 0133     		adds	r3, r3, #1
 1270 027c FB71     		strb	r3, [r7, #7]
 329:.\main.c      **** 				break;
 1271              		.loc 1 329 0
 1272 027e 46E0     		b	.L20
 1273              	.L43:
 330:.\main.c      **** 					
 331:.\main.c      **** 				case 0x07:	
 332:.\main.c      **** 					totales(lado2.dir, lado2.mangueras);
 1274              		.loc 1 332 0
 1275 0280 274B     		ldr	r3, .L50+4
 1276 0282 1B78     		ldrb	r3, [r3]
 1277 0284 DAB2     		uxtb	r2, r3
 1278 0286 264B     		ldr	r3, .L50+4
 1279 0288 93F85C30 		ldrb	r3, [r3, #92]
 1280 028c DBB2     		uxtb	r3, r3
 1281 028e 1046     		mov	r0, r2
 1282 0290 1946     		mov	r1, r3
 1283 0292 FFF7FEFF 		bl	totales
 333:.\main.c      **** 					CyDelay(50);	
 1284              		.loc 1 333 0
 1285 0296 3220     		movs	r0, #50
 1286 0298 FFF7FEFF 		bl	CyDelay
 334:.\main.c      **** 					flujo_LCD2=0;					
 1287              		.loc 1 334 0
 1288 029c 214B     		ldr	r3, .L50+8
 1289 029e 0022     		movs	r2, #0
 1290 02a0 1A70     		strb	r2, [r3]
 335:.\main.c      **** 					ok++;
 1291              		.loc 1 335 0
 1292 02a2 FB79     		ldrb	r3, [r7, #7]	@ zero_extendqisi2
 1293 02a4 0133     		adds	r3, r3, #1
 1294 02a6 FB71     		strb	r3, [r7, #7]
 336:.\main.c      **** 				break;
 1295              		.loc 1 336 0
 1296 02a8 31E0     		b	.L20
 1297              	.L44:
 337:.\main.c      **** 				
 338:.\main.c      **** 				case 0x08:
 339:.\main.c      **** 			     	flujo_LCD2=8;
 1298              		.loc 1 339 0
 1299 02aa 1E4B     		ldr	r3, .L50+8
 1300 02ac 0822     		movs	r2, #8
 1301 02ae 1A70     		strb	r2, [r3]
 340:.\main.c      ****                     seleccion_pos =2;
 1302              		.loc 1 340 0
ARM GAS  C:\Users\RECEPC~1\AppData\Local\Temp\cc2OimPl.s 			page 30


 1303 02b0 1E4B     		ldr	r3, .L50+16
 1304 02b2 0222     		movs	r2, #2
 1305 02b4 1A70     		strb	r2, [r3]
 341:.\main.c      **** 				 	set_imagen(2,8);
 1306              		.loc 1 341 0
 1307 02b6 0220     		movs	r0, #2
 1308 02b8 0821     		movs	r1, #8
 1309 02ba FFF7FEFF 		bl	set_imagen
 342:.\main.c      **** 					ok++;
 1310              		.loc 1 342 0
 1311 02be FB79     		ldrb	r3, [r7, #7]	@ zero_extendqisi2
 1312 02c0 0133     		adds	r3, r3, #1
 1313 02c2 FB71     		strb	r3, [r7, #7]
 343:.\main.c      **** 				break;
 1314              		.loc 1 343 0
 1315 02c4 23E0     		b	.L20
 1316              	.L45:
 344:.\main.c      **** 					
 345:.\main.c      **** 				case 0x09:
 346:.\main.c      **** 			     	flujo_LCD2=11;
 1317              		.loc 1 346 0
 1318 02c6 174B     		ldr	r3, .L50+8
 1319 02c8 0B22     		movs	r2, #11
 1320 02ca 1A70     		strb	r2, [r3]
 347:.\main.c      **** 				 	set_imagen(2,8);
 1321              		.loc 1 347 0
 1322 02cc 0220     		movs	r0, #2
 1323 02ce 0821     		movs	r1, #8
 1324 02d0 FFF7FEFF 		bl	set_imagen
 348:.\main.c      **** 					ok++;
 1325              		.loc 1 348 0
 1326 02d4 FB79     		ldrb	r3, [r7, #7]	@ zero_extendqisi2
 1327 02d6 0133     		adds	r3, r3, #1
 1328 02d8 FB71     		strb	r3, [r7, #7]
 349:.\main.c      **** 				break;
 1329              		.loc 1 349 0
 1330 02da 18E0     		b	.L20
 1331              	.L47:
 350:.\main.c      **** 				
 351:.\main.c      **** 		         case 0x0B:                     //Termino venta
 352:.\main.c      **** 					flujo_LCD2=12;
 1332              		.loc 1 352 0
 1333 02dc 114B     		ldr	r3, .L50+8
 1334 02de 0C22     		movs	r2, #12
 1335 02e0 1A70     		strb	r2, [r3]
 353:.\main.c      **** 					ok++;
 1336              		.loc 1 353 0
 1337 02e2 FB79     		ldrb	r3, [r7, #7]	@ zero_extendqisi2
 1338 02e4 0133     		adds	r3, r3, #1
 1339 02e6 FB71     		strb	r3, [r7, #7]
 354:.\main.c      **** 				 break;	
 1340              		.loc 1 354 0
 1341 02e8 11E0     		b	.L20
 1342              	.L46:
 355:.\main.c      **** 					
 356:.\main.c      **** 		         case 0x0A:						//Termino venta
 357:.\main.c      **** 					flujo_LCD2=12;
ARM GAS  C:\Users\RECEPC~1\AppData\Local\Temp\cc2OimPl.s 			page 31


 1343              		.loc 1 357 0
 1344 02ea 0E4B     		ldr	r3, .L50+8
 1345 02ec 0C22     		movs	r2, #12
 1346 02ee 1A70     		strb	r2, [r3]
 358:.\main.c      **** 					ok++;
 1347              		.loc 1 358 0
 1348 02f0 FB79     		ldrb	r3, [r7, #7]	@ zero_extendqisi2
 1349 02f2 0133     		adds	r3, r3, #1
 1350 02f4 FB71     		strb	r3, [r7, #7]
 359:.\main.c      **** 				 break;
 1351              		.loc 1 359 0
 1352 02f6 0AE0     		b	.L20
 1353              	.L48:
 360:.\main.c      **** 					
 361:.\main.c      **** 		         case 0x0C:						//Bloqueado por surtiendo al iniciar
 362:.\main.c      **** 			     	flujo_LCD2=11;
 1354              		.loc 1 362 0
 1355 02f8 0A4B     		ldr	r3, .L50+8
 1356 02fa 0B22     		movs	r2, #11
 1357 02fc 1A70     		strb	r2, [r3]
 363:.\main.c      **** 				 	set_imagen(2,8);
 1358              		.loc 1 363 0
 1359 02fe 0220     		movs	r0, #2
 1360 0300 0821     		movs	r1, #8
 1361 0302 FFF7FEFF 		bl	set_imagen
 364:.\main.c      **** 					ok++;
 1362              		.loc 1 364 0
 1363 0306 FB79     		ldrb	r3, [r7, #7]	@ zero_extendqisi2
 1364 0308 0133     		adds	r3, r3, #1
 1365 030a FB71     		strb	r3, [r7, #7]
 365:.\main.c      **** 				 break;										
 1366              		.loc 1 365 0
 1367 030c 00BF     		nop
 1368              	.L20:
 241:.\main.c      **** 		ok=0;
 1369              		.loc 1 241 0
 1370 030e FB79     		ldrb	r3, [r7, #7]	@ zero_extendqisi2
 1371 0310 012B     		cmp	r3, #1
 1372 0312 7FF67BAE 		bls	.L49
 366:.\main.c      **** 			}			
 367:.\main.c      **** 		}
 368:.\main.c      **** 	}
 369:.\main.c      **** }
 1373              		.loc 1 369 0
 1374 0316 0837     		adds	r7, r7, #8
 1375              		.cfi_def_cfa_offset 8
 1376 0318 BD46     		mov	sp, r7
 1377              		.cfi_def_cfa_register 13
 1378              		@ sp needed
 1379 031a 80BD     		pop	{r7, pc}
 1380              	.L51:
 1381              		.align	2
 1382              	.L50:
 1383 031c 00000000 		.word	lado1
 1384 0320 00000000 		.word	lado2
 1385 0324 00000000 		.word	flujo_LCD2
 1386 0328 00000000 		.word	flujo_LCD1
ARM GAS  C:\Users\RECEPC~1\AppData\Local\Temp\cc2OimPl.s 			page 32


 1387 032c 00000000 		.word	seleccion_pos
 1388              		.cfi_endproc
 1389              	.LFE66:
 1390              		.size	init_surt, .-init_surt
 1391              		.section	.text.polling_rf,"ax",%progbits
 1392              		.align	2
 1393              		.global	polling_rf
 1394              		.thumb
 1395              		.thumb_func
 1396              		.type	polling_rf, %function
 1397              	polling_rf:
 1398              	.LFB67:
 370:.\main.c      **** 
 371:.\main.c      **** /*
 372:.\main.c      **** ***************************************************************************************************
 373:.\main.c      **** *                                         uint8 polling_rf(void)
 374:.\main.c      **** *
 375:.\main.c      **** * Description : 
 376:.\main.c      **** *               
 377:.\main.c      **** *
 378:.\main.c      **** * Argument(s) : none
 379:.\main.c      **** *
 380:.\main.c      **** * Return(s)   : none
 381:.\main.c      **** *
 382:.\main.c      **** * Caller(s)   : 
 383:.\main.c      **** *
 384:.\main.c      **** * Note(s)     : none.
 385:.\main.c      **** ***************************************************************************************************
 386:.\main.c      **** */
 387:.\main.c      **** void polling_rf(void){
 1399              		.loc 1 387 0
 1400              		.cfi_startproc
 1401              		@ args = 0, pretend = 0, frame = 24
 1402              		@ frame_needed = 1, uses_anonymous_args = 0
 1403 0000 80B5     		push	{r7, lr}
 1404              		.cfi_def_cfa_offset 8
 1405              		.cfi_offset 7, -8
 1406              		.cfi_offset 14, -4
 1407 0002 86B0     		sub	sp, sp, #24
 1408              		.cfi_def_cfa_offset 32
 1409 0004 00AF     		add	r7, sp, #0
 1410              		.cfi_def_cfa_register 7
 388:.\main.c      **** 	uint16 status1, status2,size,x,t_preset;
 389:.\main.c      **** 	uint8  precio[5],preset[8];
 390:.\main.c      ****     
 391:.\main.c      **** 	if(PC_GetRxBufferSize()>=6){
 1411              		.loc 1 391 0
 1412 0006 FFF7FEFF 		bl	PC_GetRxBufferSize
 1413 000a 0346     		mov	r3, r0
 1414 000c 052B     		cmp	r3, #5
 1415 000e 40F28C85 		bls	.L52
 392:.\main.c      **** 		status1=PC_GetRxBufferSize();
 1416              		.loc 1 392 0
 1417 0012 FFF7FEFF 		bl	PC_GetRxBufferSize
 1418 0016 0346     		mov	r3, r0
 1419 0018 3B82     		strh	r3, [r7, #16]	@ movhi
 393:.\main.c      **** 		CyDelay(10);
ARM GAS  C:\Users\RECEPC~1\AppData\Local\Temp\cc2OimPl.s 			page 33


 1420              		.loc 1 393 0
 1421 001a 0A20     		movs	r0, #10
 1422 001c FFF7FEFF 		bl	CyDelay
 394:.\main.c      **** 		status2=PC_GetRxBufferSize();
 1423              		.loc 1 394 0
 1424 0020 FFF7FEFF 		bl	PC_GetRxBufferSize
 1425 0024 0346     		mov	r3, r0
 1426 0026 FB81     		strh	r3, [r7, #14]	@ movhi
 395:.\main.c      **** 		if(status1==status2){		
 1427              		.loc 1 395 0
 1428 0028 3A8A     		ldrh	r2, [r7, #16]
 1429 002a FB89     		ldrh	r3, [r7, #14]
 1430 002c 9A42     		cmp	r2, r3
 1431 002e 40F07C85 		bne	.L52
 396:.\main.c      **** 			if((PC_rxBuffer[0]=='B')&&(PC_rxBuffer[1]=='B')&&(PC_rxBuffer[2]=='B')){
 1432              		.loc 1 396 0
 1433 0032 AB4B     		ldr	r3, .L106
 1434 0034 1B78     		ldrb	r3, [r3]
 1435 0036 DBB2     		uxtb	r3, r3
 1436 0038 422B     		cmp	r3, #66
 1437 003a 40F06E85 		bne	.L54
 1438              		.loc 1 396 0 is_stmt 0 discriminator 1
 1439 003e A84B     		ldr	r3, .L106
 1440 0040 5B78     		ldrb	r3, [r3, #1]
 1441 0042 DBB2     		uxtb	r3, r3
 1442 0044 422B     		cmp	r3, #66
 1443 0046 40F06885 		bne	.L54
 1444              		.loc 1 396 0 discriminator 2
 1445 004a A54B     		ldr	r3, .L106
 1446 004c 9B78     		ldrb	r3, [r3, #2]
 1447 004e DBB2     		uxtb	r3, r3
 1448 0050 422B     		cmp	r3, #66
 1449 0052 40F06285 		bne	.L54
 397:.\main.c      **** 				ok_datosRF=0;   
 1450              		.loc 1 397 0 is_stmt 1
 1451 0056 A34B     		ldr	r3, .L106+4
 1452 0058 0022     		movs	r2, #0
 1453 005a 1A70     		strb	r2, [r3]
 398:.\main.c      **** 				switch(PC_rxBuffer[3]){
 1454              		.loc 1 398 0
 1455 005c A04B     		ldr	r3, .L106
 1456 005e DB78     		ldrb	r3, [r3, #3]
 1457 0060 DBB2     		uxtb	r3, r3
 1458 0062 303B     		subs	r3, r3, #48
 1459 0064 152B     		cmp	r3, #21
 1460 0066 00F24485 		bhi	.L55
 1461 006a 01A2     		adr	r2, .L57
 1462 006c 52F823F0 		ldr	pc, [r2, r3, lsl #2]
 1463              		.p2align 2
 1464              	.L57:
 1465 0070 C9000000 		.word	.L56+1
 1466 0074 45080000 		.word	.L58+1
 1467 0078 F30A0000 		.word	.L55+1
 1468 007c 11090000 		.word	.L59+1
 1469 0080 F30A0000 		.word	.L55+1
 1470 0084 F30A0000 		.word	.L55+1
 1471 0088 F30A0000 		.word	.L55+1
ARM GAS  C:\Users\RECEPC~1\AppData\Local\Temp\cc2OimPl.s 			page 34


 1472 008c F30A0000 		.word	.L55+1
 1473 0090 F30A0000 		.word	.L55+1
 1474 0094 F30A0000 		.word	.L55+1
 1475 0098 F30A0000 		.word	.L55+1
 1476 009c F30A0000 		.word	.L55+1
 1477 00a0 F30A0000 		.word	.L55+1
 1478 00a4 F30A0000 		.word	.L55+1
 1479 00a8 F30A0000 		.word	.L55+1
 1480 00ac F30A0000 		.word	.L55+1
 1481 00b0 F30A0000 		.word	.L55+1
 1482 00b4 F30A0000 		.word	.L55+1
 1483 00b8 F30A0000 		.word	.L55+1
 1484 00bc F30A0000 		.word	.L55+1
 1485 00c0 F30A0000 		.word	.L55+1
 1486 00c4 B7080000 		.word	.L60+1
 1487              		.p2align 1
 1488              	.L56:
 399:.\main.c      **** 					case cautorizar:
 400:.\main.c      ****                     if(PC_rxBuffer[4]=='1'){
 1489              		.loc 1 400 0
 1490 00c8 854B     		ldr	r3, .L106
 1491 00ca 1B79     		ldrb	r3, [r3, #4]
 1492 00cc DBB2     		uxtb	r3, r3
 1493 00ce 312B     		cmp	r3, #49
 1494 00d0 40F0DA81 		bne	.L61
 401:.\main.c      ****                     PC_rxBuffer[3] = 0;
 1495              		.loc 1 401 0
 1496 00d4 824B     		ldr	r3, .L106
 1497 00d6 0022     		movs	r2, #0
 1498 00d8 DA70     		strb	r2, [r3, #3]
 402:.\main.c      **** 						if(PC_rxBuffer[5]=='N'){			//No autorizo el servidor		
 1499              		.loc 1 402 0
 1500 00da 814B     		ldr	r3, .L106
 1501 00dc 5B79     		ldrb	r3, [r3, #5]
 1502 00de DBB2     		uxtb	r3, r3
 1503 00e0 4E2B     		cmp	r3, #78
 1504 00e2 0BD1     		bne	.L62
 403:.\main.c      **** 							error_op((PC_rxBuffer[4] & 0x0F),28);
 1505              		.loc 1 403 0
 1506 00e4 7E4B     		ldr	r3, .L106
 1507 00e6 1B79     		ldrb	r3, [r3, #4]
 1508 00e8 DBB2     		uxtb	r3, r3
 1509 00ea 03F00F03 		and	r3, r3, #15
 1510 00ee DBB2     		uxtb	r3, r3
 1511 00f0 1846     		mov	r0, r3
 1512 00f2 1C21     		movs	r1, #28
 1513 00f4 FFF7FEFF 		bl	error_op
 404:.\main.c      **** 							break;
 1514              		.loc 1 404 0
 1515 00f8 00F0FBBC 		b	.L55
 1516              	.L62:
 405:.\main.c      **** 						}
 406:.\main.c      **** 						if(PC_rxBuffer[10]=='F'){		//Cambia precio
 1517              		.loc 1 406 0
 1518 00fc 784B     		ldr	r3, .L106
 1519 00fe 9B7A     		ldrb	r3, [r3, #10]
 1520 0100 DBB2     		uxtb	r3, r3
ARM GAS  C:\Users\RECEPC~1\AppData\Local\Temp\cc2OimPl.s 			page 35


 1521 0102 462B     		cmp	r3, #70
 1522 0104 7ED1     		bne	.L63
 407:.\main.c      ****                             precio[0]=lado1.ppu[rventa1.manguera-1][0]&0x0f;	
 1523              		.loc 1 407 0
 1524 0106 784B     		ldr	r3, .L106+8
 1525 0108 9B7E     		ldrb	r3, [r3, #26]	@ zero_extendqisi2
 1526 010a 5A1E     		subs	r2, r3, #1
 1527 010c 7749     		ldr	r1, .L106+12
 1528 010e 1346     		mov	r3, r2
 1529 0110 9B00     		lsls	r3, r3, #2
 1530 0112 1344     		add	r3, r3, r2
 1531 0114 0B44     		add	r3, r3, r1
 1532 0116 4833     		adds	r3, r3, #72
 1533 0118 9B78     		ldrb	r3, [r3, #2]
 1534 011a DBB2     		uxtb	r3, r3
 1535 011c 03F00F03 		and	r3, r3, #15
 1536 0120 DBB2     		uxtb	r3, r3
 1537 0122 3B72     		strb	r3, [r7, #8]
 408:.\main.c      ****     						precio[1]=lado1.ppu[rventa1.manguera-1][1]&0x0f;
 1538              		.loc 1 408 0
 1539 0124 704B     		ldr	r3, .L106+8
 1540 0126 9B7E     		ldrb	r3, [r3, #26]	@ zero_extendqisi2
 1541 0128 5A1E     		subs	r2, r3, #1
 1542 012a 7049     		ldr	r1, .L106+12
 1543 012c 1346     		mov	r3, r2
 1544 012e 9B00     		lsls	r3, r3, #2
 1545 0130 1344     		add	r3, r3, r2
 1546 0132 0B44     		add	r3, r3, r1
 1547 0134 4933     		adds	r3, r3, #73
 1548 0136 9B78     		ldrb	r3, [r3, #2]
 1549 0138 DBB2     		uxtb	r3, r3
 1550 013a 03F00F03 		and	r3, r3, #15
 1551 013e DBB2     		uxtb	r3, r3
 1552 0140 7B72     		strb	r3, [r7, #9]
 409:.\main.c      ****     						precio[2]=lado1.ppu[rventa1.manguera-1][2]&0x0f;
 1553              		.loc 1 409 0
 1554 0142 694B     		ldr	r3, .L106+8
 1555 0144 9B7E     		ldrb	r3, [r3, #26]	@ zero_extendqisi2
 1556 0146 5A1E     		subs	r2, r3, #1
 1557 0148 6849     		ldr	r1, .L106+12
 1558 014a 1346     		mov	r3, r2
 1559 014c 9B00     		lsls	r3, r3, #2
 1560 014e 1344     		add	r3, r3, r2
 1561 0150 0B44     		add	r3, r3, r1
 1562 0152 4A33     		adds	r3, r3, #74
 1563 0154 9B78     		ldrb	r3, [r3, #2]
 1564 0156 DBB2     		uxtb	r3, r3
 1565 0158 03F00F03 		and	r3, r3, #15
 1566 015c DBB2     		uxtb	r3, r3
 1567 015e BB72     		strb	r3, [r7, #10]
 410:.\main.c      ****     						precio[3]=lado1.ppu[rventa1.manguera-1][3]&0x0f;
 1568              		.loc 1 410 0
 1569 0160 614B     		ldr	r3, .L106+8
 1570 0162 9B7E     		ldrb	r3, [r3, #26]	@ zero_extendqisi2
 1571 0164 5A1E     		subs	r2, r3, #1
 1572 0166 6149     		ldr	r1, .L106+12
 1573 0168 1346     		mov	r3, r2
ARM GAS  C:\Users\RECEPC~1\AppData\Local\Temp\cc2OimPl.s 			page 36


 1574 016a 9B00     		lsls	r3, r3, #2
 1575 016c 1344     		add	r3, r3, r2
 1576 016e 0B44     		add	r3, r3, r1
 1577 0170 4B33     		adds	r3, r3, #75
 1578 0172 9B78     		ldrb	r3, [r3, #2]
 1579 0174 DBB2     		uxtb	r3, r3
 1580 0176 03F00F03 		and	r3, r3, #15
 1581 017a DBB2     		uxtb	r3, r3
 1582 017c FB72     		strb	r3, [r7, #11]
 411:.\main.c      ****     						precio[4]=lado1.ppu[rventa1.manguera-1][4]&0x0f;
 1583              		.loc 1 411 0
 1584 017e 5A4B     		ldr	r3, .L106+8
 1585 0180 9B7E     		ldrb	r3, [r3, #26]	@ zero_extendqisi2
 1586 0182 5A1E     		subs	r2, r3, #1
 1587 0184 5949     		ldr	r1, .L106+12
 1588 0186 1346     		mov	r3, r2
 1589 0188 9B00     		lsls	r3, r3, #2
 1590 018a 1344     		add	r3, r3, r2
 1591 018c 0B44     		add	r3, r3, r1
 1592 018e 4C33     		adds	r3, r3, #76
 1593 0190 9B78     		ldrb	r3, [r3, #2]
 1594 0192 DBB2     		uxtb	r3, r3
 1595 0194 03F00F03 		and	r3, r3, #15
 1596 0198 DBB2     		uxtb	r3, r3
 1597 019a 3B73     		strb	r3, [r7, #12]
 412:.\main.c      ****                         	if(cambiar_precio((lado1.dir & 0x0F),precio,rventa1.manguera)==0){
 1598              		.loc 1 412 0
 1599 019c 534B     		ldr	r3, .L106+12
 1600 019e 1B78     		ldrb	r3, [r3]
 1601 01a0 DBB2     		uxtb	r3, r3
 1602 01a2 03F00F03 		and	r3, r3, #15
 1603 01a6 D9B2     		uxtb	r1, r3
 1604 01a8 4F4B     		ldr	r3, .L106+8
 1605 01aa 9B7E     		ldrb	r3, [r3, #26]	@ zero_extendqisi2
 1606 01ac 07F10802 		add	r2, r7, #8
 1607 01b0 0846     		mov	r0, r1
 1608 01b2 1146     		mov	r1, r2
 1609 01b4 1A46     		mov	r2, r3
 1610 01b6 FFF7FEFF 		bl	cambiar_precio
 1611 01ba 0346     		mov	r3, r0
 1612 01bc 002B     		cmp	r3, #0
 1613 01be 40F09B80 		bne	.L64
 413:.\main.c      **** 								rf_mod[0]='M';
 1614              		.loc 1 413 0
 1615 01c2 4B4B     		ldr	r3, .L106+16
 1616 01c4 4D22     		movs	r2, #77
 1617 01c6 1A70     		strb	r2, [r3]
 414:.\main.c      **** 								rf_mod[1]='U';
 1618              		.loc 1 414 0
 1619 01c8 494B     		ldr	r3, .L106+16
 1620 01ca 5522     		movs	r2, #85
 1621 01cc 5A70     		strb	r2, [r3, #1]
 415:.\main.c      **** 								rf_mod[2]='X';
 1622              		.loc 1 415 0
 1623 01ce 484B     		ldr	r3, .L106+16
 1624 01d0 5822     		movs	r2, #88
 1625 01d2 9A70     		strb	r2, [r3, #2]
ARM GAS  C:\Users\RECEPC~1\AppData\Local\Temp\cc2OimPl.s 			page 37


 416:.\main.c      **** 								rf_mod[3]=creset;
 1626              		.loc 1 416 0
 1627 01d4 464B     		ldr	r3, .L106+16
 1628 01d6 4522     		movs	r2, #69
 1629 01d8 DA70     		strb	r2, [r3, #3]
 417:.\main.c      **** 								rf_mod[4]=cautorizar;
 1630              		.loc 1 417 0
 1631 01da 454B     		ldr	r3, .L106+16
 1632 01dc 3022     		movs	r2, #48
 1633 01de 1A71     		strb	r2, [r3, #4]
 418:.\main.c      **** 								rf_mod[5]=PC_rxBuffer[4];
 1634              		.loc 1 418 0
 1635 01e0 3F4B     		ldr	r3, .L106
 1636 01e2 1B79     		ldrb	r3, [r3, #4]
 1637 01e4 DAB2     		uxtb	r2, r3
 1638 01e6 424B     		ldr	r3, .L106+16
 1639 01e8 5A71     		strb	r2, [r3, #5]
 419:.\main.c      **** 								rf_mod[6]='1';
 1640              		.loc 1 419 0
 1641 01ea 414B     		ldr	r3, .L106+16
 1642 01ec 3122     		movs	r2, #49
 1643 01ee 9A71     		strb	r2, [r3, #6]
 420:.\main.c      **** 								rf_mod[7]='*';
 1644              		.loc 1 420 0
 1645 01f0 3F4B     		ldr	r3, .L106+16
 1646 01f2 2A22     		movs	r2, #42
 1647 01f4 DA71     		strb	r2, [r3, #7]
 421:.\main.c      **** 								size=8;
 1648              		.loc 1 421 0
 1649 01f6 0823     		movs	r3, #8
 1650 01f8 FB82     		strh	r3, [r7, #22]	@ movhi
 422:.\main.c      **** 								ok_datosRF=1;
 1651              		.loc 1 422 0
 1652 01fa 3A4B     		ldr	r3, .L106+4
 1653 01fc 0122     		movs	r2, #1
 1654 01fe 1A70     		strb	r2, [r3]
 423:.\main.c      **** 								break;
 1655              		.loc 1 423 0
 1656 0200 00F077BC 		b	.L55
 1657              	.L63:
 424:.\main.c      **** 							}                                                      
 425:.\main.c      ****   						}
 426:.\main.c      ****                         else{
 427:.\main.c      **** 							totales(lado1.dir, lado1.mangueras);
 1658              		.loc 1 427 0
 1659 0204 394B     		ldr	r3, .L106+12
 1660 0206 1B78     		ldrb	r3, [r3]
 1661 0208 DAB2     		uxtb	r2, r3
 1662 020a 384B     		ldr	r3, .L106+12
 1663 020c 93F85C30 		ldrb	r3, [r3, #92]
 1664 0210 DBB2     		uxtb	r3, r3
 1665 0212 1046     		mov	r0, r2
 1666 0214 1946     		mov	r1, r3
 1667 0216 FFF7FEFF 		bl	totales
 428:.\main.c      ****                             if(ppux10==1){
 1668              		.loc 1 428 0
 1669 021a 364B     		ldr	r3, .L106+20
ARM GAS  C:\Users\RECEPC~1\AppData\Local\Temp\cc2OimPl.s 			page 38


 1670 021c 1B78     		ldrb	r3, [r3]
 1671 021e DBB2     		uxtb	r3, r3
 1672 0220 012B     		cmp	r3, #1
 1673 0222 11D1     		bne	.L65
 429:.\main.c      ****     							precio[4]=PC_rxBuffer[9];	
 1674              		.loc 1 429 0
 1675 0224 2E4B     		ldr	r3, .L106
 1676 0226 5B7A     		ldrb	r3, [r3, #9]
 1677 0228 DBB2     		uxtb	r3, r3
 1678 022a 3B73     		strb	r3, [r7, #12]
 430:.\main.c      ****     							precio[3]=PC_rxBuffer[8];
 1679              		.loc 1 430 0
 1680 022c 2C4B     		ldr	r3, .L106
 1681 022e 1B7A     		ldrb	r3, [r3, #8]
 1682 0230 DBB2     		uxtb	r3, r3
 1683 0232 FB72     		strb	r3, [r7, #11]
 431:.\main.c      ****     							precio[2]=PC_rxBuffer[7];
 1684              		.loc 1 431 0
 1685 0234 2A4B     		ldr	r3, .L106
 1686 0236 DB79     		ldrb	r3, [r3, #7]
 1687 0238 DBB2     		uxtb	r3, r3
 1688 023a BB72     		strb	r3, [r7, #10]
 432:.\main.c      ****     							precio[1]=PC_rxBuffer[6];
 1689              		.loc 1 432 0
 1690 023c 284B     		ldr	r3, .L106
 1691 023e 9B79     		ldrb	r3, [r3, #6]
 1692 0240 DBB2     		uxtb	r3, r3
 1693 0242 7B72     		strb	r3, [r7, #9]
 433:.\main.c      ****     							precio[0]=0;			
 1694              		.loc 1 433 0
 1695 0244 0023     		movs	r3, #0
 1696 0246 3B72     		strb	r3, [r7, #8]
 1697              	.L65:
 434:.\main.c      ****                             }
 435:.\main.c      ****                             if(ppux10==0){
 1698              		.loc 1 435 0
 1699 0248 2A4B     		ldr	r3, .L106+20
 1700 024a 1B78     		ldrb	r3, [r3]
 1701 024c DBB2     		uxtb	r3, r3
 1702 024e 002B     		cmp	r3, #0
 1703 0250 13D1     		bne	.L66
 436:.\main.c      ****     							precio[4]=PC_rxBuffer[10];	
 1704              		.loc 1 436 0
 1705 0252 234B     		ldr	r3, .L106
 1706 0254 9B7A     		ldrb	r3, [r3, #10]
 1707 0256 DBB2     		uxtb	r3, r3
 1708 0258 3B73     		strb	r3, [r7, #12]
 437:.\main.c      ****     							precio[3]=PC_rxBuffer[9];
 1709              		.loc 1 437 0
 1710 025a 214B     		ldr	r3, .L106
 1711 025c 5B7A     		ldrb	r3, [r3, #9]
 1712 025e DBB2     		uxtb	r3, r3
 1713 0260 FB72     		strb	r3, [r7, #11]
 438:.\main.c      ****     							precio[2]=PC_rxBuffer[8];
 1714              		.loc 1 438 0
 1715 0262 1F4B     		ldr	r3, .L106
 1716 0264 1B7A     		ldrb	r3, [r3, #8]
ARM GAS  C:\Users\RECEPC~1\AppData\Local\Temp\cc2OimPl.s 			page 39


 1717 0266 DBB2     		uxtb	r3, r3
 1718 0268 BB72     		strb	r3, [r7, #10]
 439:.\main.c      ****     							precio[1]=PC_rxBuffer[7];
 1719              		.loc 1 439 0
 1720 026a 1D4B     		ldr	r3, .L106
 1721 026c DB79     		ldrb	r3, [r3, #7]
 1722 026e DBB2     		uxtb	r3, r3
 1723 0270 7B72     		strb	r3, [r7, #9]
 440:.\main.c      ****     							precio[0]=PC_rxBuffer[6];                            
 1724              		.loc 1 440 0
 1725 0272 1B4B     		ldr	r3, .L106
 1726 0274 9B79     		ldrb	r3, [r3, #6]
 1727 0276 DBB2     		uxtb	r3, r3
 1728 0278 3B72     		strb	r3, [r7, #8]
 1729              	.L66:
 441:.\main.c      ****                             }
 442:.\main.c      **** 							if(cambiar_precio((lado1.dir & 0x0F),precio,rventa1.manguera)==0){
 1730              		.loc 1 442 0
 1731 027a 1C4B     		ldr	r3, .L106+12
 1732 027c 1B78     		ldrb	r3, [r3]
 1733 027e DBB2     		uxtb	r3, r3
 1734 0280 03F00F03 		and	r3, r3, #15
 1735 0284 D9B2     		uxtb	r1, r3
 1736 0286 184B     		ldr	r3, .L106+8
 1737 0288 9B7E     		ldrb	r3, [r3, #26]	@ zero_extendqisi2
 1738 028a 07F10802 		add	r2, r7, #8
 1739 028e 0846     		mov	r0, r1
 1740 0290 1146     		mov	r1, r2
 1741 0292 1A46     		mov	r2, r3
 1742 0294 FFF7FEFF 		bl	cambiar_precio
 1743 0298 0346     		mov	r3, r0
 1744 029a 002B     		cmp	r3, #0
 1745 029c 2CD1     		bne	.L64
 443:.\main.c      **** 								rf_mod[0]='M';
 1746              		.loc 1 443 0
 1747 029e 144B     		ldr	r3, .L106+16
 1748 02a0 4D22     		movs	r2, #77
 1749 02a2 1A70     		strb	r2, [r3]
 444:.\main.c      **** 								rf_mod[1]='U';
 1750              		.loc 1 444 0
 1751 02a4 124B     		ldr	r3, .L106+16
 1752 02a6 5522     		movs	r2, #85
 1753 02a8 5A70     		strb	r2, [r3, #1]
 445:.\main.c      **** 								rf_mod[2]='X';
 1754              		.loc 1 445 0
 1755 02aa 114B     		ldr	r3, .L106+16
 1756 02ac 5822     		movs	r2, #88
 1757 02ae 9A70     		strb	r2, [r3, #2]
 446:.\main.c      **** 								rf_mod[3]=creset;
 1758              		.loc 1 446 0
 1759 02b0 0F4B     		ldr	r3, .L106+16
 1760 02b2 4522     		movs	r2, #69
 1761 02b4 DA70     		strb	r2, [r3, #3]
 447:.\main.c      **** 								rf_mod[4]=cautorizar;
 1762              		.loc 1 447 0
 1763 02b6 0E4B     		ldr	r3, .L106+16
 1764 02b8 3022     		movs	r2, #48
ARM GAS  C:\Users\RECEPC~1\AppData\Local\Temp\cc2OimPl.s 			page 40


 1765 02ba 1A71     		strb	r2, [r3, #4]
 448:.\main.c      **** 								rf_mod[5]=PC_rxBuffer[4];
 1766              		.loc 1 448 0
 1767 02bc 084B     		ldr	r3, .L106
 1768 02be 1B79     		ldrb	r3, [r3, #4]
 1769 02c0 DAB2     		uxtb	r2, r3
 1770 02c2 0B4B     		ldr	r3, .L106+16
 1771 02c4 5A71     		strb	r2, [r3, #5]
 449:.\main.c      **** 								rf_mod[6]='1';
 1772              		.loc 1 449 0
 1773 02c6 0A4B     		ldr	r3, .L106+16
 1774 02c8 3122     		movs	r2, #49
 1775 02ca 9A71     		strb	r2, [r3, #6]
 450:.\main.c      **** 								rf_mod[7]='*';
 1776              		.loc 1 450 0
 1777 02cc 084B     		ldr	r3, .L106+16
 1778 02ce 2A22     		movs	r2, #42
 1779 02d0 DA71     		strb	r2, [r3, #7]
 451:.\main.c      **** 								size=8;
 1780              		.loc 1 451 0
 1781 02d2 0823     		movs	r3, #8
 1782 02d4 FB82     		strh	r3, [r7, #22]	@ movhi
 452:.\main.c      **** 								ok_datosRF=1;
 1783              		.loc 1 452 0
 1784 02d6 034B     		ldr	r3, .L106+4
 1785 02d8 0122     		movs	r2, #1
 1786 02da 1A70     		strb	r2, [r3]
 453:.\main.c      **** 								break;
 1787              		.loc 1 453 0
 1788 02dc 00F009BC 		b	.L55
 1789              	.L107:
 1790              		.align	2
 1791              	.L106:
 1792 02e0 00000000 		.word	PC_rxBuffer
 1793 02e4 00000000 		.word	ok_datosRF
 1794 02e8 00000000 		.word	rventa1
 1795 02ec 00000000 		.word	lado1
 1796 02f0 00000000 		.word	rf_mod
 1797 02f4 00000000 		.word	ppux10
 1798              	.L64:
 454:.\main.c      **** 							}
 455:.\main.c      ****                         }
 456:.\main.c      **** 						preset[1]=PC_rxBuffer[17];				//Preset
 1799              		.loc 1 456 0
 1800 02f8 AF4B     		ldr	r3, .L108
 1801 02fa 5B7C     		ldrb	r3, [r3, #17]
 1802 02fc DBB2     		uxtb	r3, r3
 1803 02fe 7B70     		strb	r3, [r7, #1]
 457:.\main.c      **** 						if(PC_rxBuffer[17]!=','){
 1804              		.loc 1 457 0
 1805 0300 AD4B     		ldr	r3, .L108
 1806 0302 5B7C     		ldrb	r3, [r3, #17]
 1807 0304 DBB2     		uxtb	r3, r3
 1808 0306 2C2B     		cmp	r3, #44
 1809 0308 06D0     		beq	.L67
 458:.\main.c      **** 							preset[1]=PC_rxBuffer[17] & 0x0F;
 1810              		.loc 1 458 0
ARM GAS  C:\Users\RECEPC~1\AppData\Local\Temp\cc2OimPl.s 			page 41


 1811 030a AB4B     		ldr	r3, .L108
 1812 030c 5B7C     		ldrb	r3, [r3, #17]
 1813 030e DBB2     		uxtb	r3, r3
 1814 0310 03F00F03 		and	r3, r3, #15
 1815 0314 DBB2     		uxtb	r3, r3
 1816 0316 7B70     		strb	r3, [r7, #1]
 1817              	.L67:
 459:.\main.c      **** 						}
 460:.\main.c      **** 						preset[2]=PC_rxBuffer[16];
 1818              		.loc 1 460 0
 1819 0318 A74B     		ldr	r3, .L108
 1820 031a 1B7C     		ldrb	r3, [r3, #16]
 1821 031c DBB2     		uxtb	r3, r3
 1822 031e BB70     		strb	r3, [r7, #2]
 461:.\main.c      **** 						if(PC_rxBuffer[16]!=','){
 1823              		.loc 1 461 0
 1824 0320 A54B     		ldr	r3, .L108
 1825 0322 1B7C     		ldrb	r3, [r3, #16]
 1826 0324 DBB2     		uxtb	r3, r3
 1827 0326 2C2B     		cmp	r3, #44
 1828 0328 06D0     		beq	.L68
 462:.\main.c      **** 							preset[2]=PC_rxBuffer[16] & 0x0F;
 1829              		.loc 1 462 0
 1830 032a A34B     		ldr	r3, .L108
 1831 032c 1B7C     		ldrb	r3, [r3, #16]
 1832 032e DBB2     		uxtb	r3, r3
 1833 0330 03F00F03 		and	r3, r3, #15
 1834 0334 DBB2     		uxtb	r3, r3
 1835 0336 BB70     		strb	r3, [r7, #2]
 1836              	.L68:
 463:.\main.c      **** 						}
 464:.\main.c      **** 						preset[3]=PC_rxBuffer[15];
 1837              		.loc 1 464 0
 1838 0338 9F4B     		ldr	r3, .L108
 1839 033a DB7B     		ldrb	r3, [r3, #15]
 1840 033c DBB2     		uxtb	r3, r3
 1841 033e FB70     		strb	r3, [r7, #3]
 465:.\main.c      **** 						if(PC_rxBuffer[15]!=','){
 1842              		.loc 1 465 0
 1843 0340 9D4B     		ldr	r3, .L108
 1844 0342 DB7B     		ldrb	r3, [r3, #15]
 1845 0344 DBB2     		uxtb	r3, r3
 1846 0346 2C2B     		cmp	r3, #44
 1847 0348 06D0     		beq	.L69
 466:.\main.c      **** 							preset[3]=PC_rxBuffer[15] & 0x0F;
 1848              		.loc 1 466 0
 1849 034a 9B4B     		ldr	r3, .L108
 1850 034c DB7B     		ldrb	r3, [r3, #15]
 1851 034e DBB2     		uxtb	r3, r3
 1852 0350 03F00F03 		and	r3, r3, #15
 1853 0354 DBB2     		uxtb	r3, r3
 1854 0356 FB70     		strb	r3, [r7, #3]
 1855              	.L69:
 467:.\main.c      **** 						}
 468:.\main.c      **** 						preset[4]=PC_rxBuffer[14];
 1856              		.loc 1 468 0
 1857 0358 974B     		ldr	r3, .L108
ARM GAS  C:\Users\RECEPC~1\AppData\Local\Temp\cc2OimPl.s 			page 42


 1858 035a 9B7B     		ldrb	r3, [r3, #14]
 1859 035c DBB2     		uxtb	r3, r3
 1860 035e 3B71     		strb	r3, [r7, #4]
 469:.\main.c      **** 						if(PC_rxBuffer[14]!=','){
 1861              		.loc 1 469 0
 1862 0360 954B     		ldr	r3, .L108
 1863 0362 9B7B     		ldrb	r3, [r3, #14]
 1864 0364 DBB2     		uxtb	r3, r3
 1865 0366 2C2B     		cmp	r3, #44
 1866 0368 06D0     		beq	.L70
 470:.\main.c      **** 							preset[4]=PC_rxBuffer[14] & 0x0F;
 1867              		.loc 1 470 0
 1868 036a 934B     		ldr	r3, .L108
 1869 036c 9B7B     		ldrb	r3, [r3, #14]
 1870 036e DBB2     		uxtb	r3, r3
 1871 0370 03F00F03 		and	r3, r3, #15
 1872 0374 DBB2     		uxtb	r3, r3
 1873 0376 3B71     		strb	r3, [r7, #4]
 1874              	.L70:
 471:.\main.c      **** 						}
 472:.\main.c      **** 						preset[5]=PC_rxBuffer[13];
 1875              		.loc 1 472 0
 1876 0378 8F4B     		ldr	r3, .L108
 1877 037a 5B7B     		ldrb	r3, [r3, #13]
 1878 037c DBB2     		uxtb	r3, r3
 1879 037e 7B71     		strb	r3, [r7, #5]
 473:.\main.c      **** 						if(PC_rxBuffer[13]!=','){
 1880              		.loc 1 473 0
 1881 0380 8D4B     		ldr	r3, .L108
 1882 0382 5B7B     		ldrb	r3, [r3, #13]
 1883 0384 DBB2     		uxtb	r3, r3
 1884 0386 2C2B     		cmp	r3, #44
 1885 0388 06D0     		beq	.L71
 474:.\main.c      **** 							preset[5]=PC_rxBuffer[13] & 0x0F;
 1886              		.loc 1 474 0
 1887 038a 8B4B     		ldr	r3, .L108
 1888 038c 5B7B     		ldrb	r3, [r3, #13]
 1889 038e DBB2     		uxtb	r3, r3
 1890 0390 03F00F03 		and	r3, r3, #15
 1891 0394 DBB2     		uxtb	r3, r3
 1892 0396 7B71     		strb	r3, [r7, #5]
 1893              	.L71:
 475:.\main.c      **** 						}
 476:.\main.c      **** 						preset[6]=PC_rxBuffer[12];
 1894              		.loc 1 476 0
 1895 0398 874B     		ldr	r3, .L108
 1896 039a 1B7B     		ldrb	r3, [r3, #12]
 1897 039c DBB2     		uxtb	r3, r3
 1898 039e BB71     		strb	r3, [r7, #6]
 477:.\main.c      **** 						if(PC_rxBuffer[12]!=','){
 1899              		.loc 1 477 0
 1900 03a0 854B     		ldr	r3, .L108
 1901 03a2 1B7B     		ldrb	r3, [r3, #12]
 1902 03a4 DBB2     		uxtb	r3, r3
 1903 03a6 2C2B     		cmp	r3, #44
 1904 03a8 06D0     		beq	.L72
 478:.\main.c      **** 							preset[6]=PC_rxBuffer[12] & 0x0F;
ARM GAS  C:\Users\RECEPC~1\AppData\Local\Temp\cc2OimPl.s 			page 43


 1905              		.loc 1 478 0
 1906 03aa 834B     		ldr	r3, .L108
 1907 03ac 1B7B     		ldrb	r3, [r3, #12]
 1908 03ae DBB2     		uxtb	r3, r3
 1909 03b0 03F00F03 		and	r3, r3, #15
 1910 03b4 DBB2     		uxtb	r3, r3
 1911 03b6 BB71     		strb	r3, [r7, #6]
 1912              	.L72:
 479:.\main.c      **** 						}
 480:.\main.c      **** 						preset[7]=PC_rxBuffer[11];
 1913              		.loc 1 480 0
 1914 03b8 7F4B     		ldr	r3, .L108
 1915 03ba DB7A     		ldrb	r3, [r3, #11]
 1916 03bc DBB2     		uxtb	r3, r3
 1917 03be FB71     		strb	r3, [r7, #7]
 481:.\main.c      **** 						if(PC_rxBuffer[11]!=','){
 1918              		.loc 1 481 0
 1919 03c0 7D4B     		ldr	r3, .L108
 1920 03c2 DB7A     		ldrb	r3, [r3, #11]
 1921 03c4 DBB2     		uxtb	r3, r3
 1922 03c6 2C2B     		cmp	r3, #44
 1923 03c8 06D0     		beq	.L73
 482:.\main.c      **** 							preset[7]=PC_rxBuffer[11] & 0x0F;
 1924              		.loc 1 482 0
 1925 03ca 7B4B     		ldr	r3, .L108
 1926 03cc DB7A     		ldrb	r3, [r3, #11]
 1927 03ce DBB2     		uxtb	r3, r3
 1928 03d0 03F00F03 		and	r3, r3, #15
 1929 03d4 DBB2     		uxtb	r3, r3
 1930 03d6 FB71     		strb	r3, [r7, #7]
 1931              	.L73:
 483:.\main.c      **** 						}
 484:.\main.c      **** 						t_preset=PC_rxBuffer[18];
 1932              		.loc 1 484 0
 1933 03d8 774B     		ldr	r3, .L108
 1934 03da 9B7C     		ldrb	r3, [r3, #18]
 1935 03dc DBB2     		uxtb	r3, r3
 1936 03de 7B82     		strh	r3, [r7, #18]	@ movhi
 485:.\main.c      **** 						if(t_preset=='1'){
 1937              		.loc 1 485 0
 1938 03e0 7B8A     		ldrh	r3, [r7, #18]
 1939 03e2 312B     		cmp	r3, #49
 1940 03e4 02D1     		bne	.L74
 486:.\main.c      **** 							t_preset=2;
 1941              		.loc 1 486 0
 1942 03e6 0223     		movs	r3, #2
 1943 03e8 7B82     		strh	r3, [r7, #18]	@ movhi
 1944 03ea 01E0     		b	.L75
 1945              	.L74:
 487:.\main.c      **** 						}
 488:.\main.c      **** 						else{
 489:.\main.c      **** 							t_preset=1;
 1946              		.loc 1 489 0
 1947 03ec 0123     		movs	r3, #1
 1948 03ee 7B82     		strh	r3, [r7, #18]	@ movhi
 1949              	.L75:
 490:.\main.c      **** 						}
ARM GAS  C:\Users\RECEPC~1\AppData\Local\Temp\cc2OimPl.s 			page 44


 491:.\main.c      **** 						if(programar((lado1.dir & 0x0F),rventa1.manguera,preset,t_preset)==1){		//Programar
 1950              		.loc 1 491 0
 1951 03f0 724B     		ldr	r3, .L108+4
 1952 03f2 1B78     		ldrb	r3, [r3]
 1953 03f4 DBB2     		uxtb	r3, r3
 1954 03f6 03F00F03 		and	r3, r3, #15
 1955 03fa D8B2     		uxtb	r0, r3
 1956 03fc 704B     		ldr	r3, .L108+8
 1957 03fe 997E     		ldrb	r1, [r3, #26]	@ zero_extendqisi2
 1958 0400 7B8A     		ldrh	r3, [r7, #18]	@ movhi
 1959 0402 DBB2     		uxtb	r3, r3
 1960 0404 3A46     		mov	r2, r7
 1961 0406 FFF7FEFF 		bl	programar
 1962 040a 0346     		mov	r3, r0
 1963 040c 012B     		cmp	r3, #1
 1964 040e 1BD1     		bne	.L76
 492:.\main.c      ****                             if(ppuinicial==0){                          
 493:.\main.c      **** //                                for(x=0;x<=4;x++){
 494:.\main.c      **** //                            	    precio[x]=lado1.ppu[0][x];	    
 495:.\main.c      **** //                                }
 496:.\main.c      **** //                                cambiar_precio(lado1.dir,precio,1);    
 497:.\main.c      **** //                                for(x=0;x<=4;x++){
 498:.\main.c      **** //                            	    precio[x]=lado1.ppu[1][x];	    
 499:.\main.c      **** //                                }    
 500:.\main.c      **** //                                cambiar_precio(lado1.dir,precio,2);
 501:.\main.c      **** //                                for(x=0;x<=4;x++){
 502:.\main.c      **** //                            	    precio[x]=lado1.ppu[2][x];	    
 503:.\main.c      **** //                                }
 504:.\main.c      **** //                                cambiar_precio(lado1.dir,precio,3);       
 505:.\main.c      ****                             }
 506:.\main.c      ****                             CyDelay(10);
 1965              		.loc 1 506 0
 1966 0410 0A20     		movs	r0, #10
 1967 0412 FFF7FEFF 		bl	CyDelay
 507:.\main.c      **** 							Surtidor_PutChar(0x10|(lado1.dir & 0x0F));							
 1968              		.loc 1 507 0
 1969 0416 694B     		ldr	r3, .L108+4
 1970 0418 1B78     		ldrb	r3, [r3]
 1971 041a DBB2     		uxtb	r3, r3
 1972 041c DBB2     		uxtb	r3, r3
 1973 041e 03F00F03 		and	r3, r3, #15
 1974 0422 DBB2     		uxtb	r3, r3
 1975 0424 43F01003 		orr	r3, r3, #16
 1976 0428 DBB2     		uxtb	r3, r3
 1977 042a DBB2     		uxtb	r3, r3
 1978 042c 1846     		mov	r0, r3
 1979 042e FFF7FEFF 		bl	Surtidor_PutChar
 508:.\main.c      **** 							lado1.estado=tanqueo;
 1980              		.loc 1 508 0
 1981 0432 624B     		ldr	r3, .L108+4
 1982 0434 0622     		movs	r2, #6
 1983 0436 5A70     		strb	r2, [r3, #1]
 509:.\main.c      **** 							flujo_LCD1=8;
 1984              		.loc 1 509 0
 1985 0438 624B     		ldr	r3, .L108+12
 1986 043a 0822     		movs	r2, #8
 1987 043c 1A70     		strb	r2, [r3]
ARM GAS  C:\Users\RECEPC~1\AppData\Local\Temp\cc2OimPl.s 			page 45


 510:.\main.c      **** 							set_imagen(1,8);
 1988              		.loc 1 510 0
 1989 043e 0120     		movs	r0, #1
 1990 0440 0821     		movs	r1, #8
 1991 0442 FFF7FEFF 		bl	set_imagen
 1992 0446 FCE1     		b	.L78
 1993              	.L76:
 511:.\main.c      **** 						}
 512:.\main.c      **** 						else{
 513:.\main.c      **** 							rf_mod[0]='M';
 1994              		.loc 1 513 0
 1995 0448 5F4B     		ldr	r3, .L108+16
 1996 044a 4D22     		movs	r2, #77
 1997 044c 1A70     		strb	r2, [r3]
 514:.\main.c      **** 							rf_mod[1]='U';
 1998              		.loc 1 514 0
 1999 044e 5E4B     		ldr	r3, .L108+16
 2000 0450 5522     		movs	r2, #85
 2001 0452 5A70     		strb	r2, [r3, #1]
 515:.\main.c      **** 							rf_mod[2]='X';
 2002              		.loc 1 515 0
 2003 0454 5C4B     		ldr	r3, .L108+16
 2004 0456 5822     		movs	r2, #88
 2005 0458 9A70     		strb	r2, [r3, #2]
 516:.\main.c      **** 							rf_mod[3]=creset;
 2006              		.loc 1 516 0
 2007 045a 5B4B     		ldr	r3, .L108+16
 2008 045c 4522     		movs	r2, #69
 2009 045e DA70     		strb	r2, [r3, #3]
 517:.\main.c      **** 							rf_mod[4]=cautorizar;
 2010              		.loc 1 517 0
 2011 0460 594B     		ldr	r3, .L108+16
 2012 0462 3022     		movs	r2, #48
 2013 0464 1A71     		strb	r2, [r3, #4]
 518:.\main.c      **** 							rf_mod[5]=PC_rxBuffer[4];
 2014              		.loc 1 518 0
 2015 0466 544B     		ldr	r3, .L108
 2016 0468 1B79     		ldrb	r3, [r3, #4]
 2017 046a DAB2     		uxtb	r2, r3
 2018 046c 564B     		ldr	r3, .L108+16
 2019 046e 5A71     		strb	r2, [r3, #5]
 519:.\main.c      **** 							rf_mod[6]='2';
 2020              		.loc 1 519 0
 2021 0470 554B     		ldr	r3, .L108+16
 2022 0472 3222     		movs	r2, #50
 2023 0474 9A71     		strb	r2, [r3, #6]
 520:.\main.c      **** 							rf_mod[7]='*';
 2024              		.loc 1 520 0
 2025 0476 544B     		ldr	r3, .L108+16
 2026 0478 2A22     		movs	r2, #42
 2027 047a DA71     		strb	r2, [r3, #7]
 521:.\main.c      **** 							size=8;
 2028              		.loc 1 521 0
 2029 047c 0823     		movs	r3, #8
 2030 047e FB82     		strh	r3, [r7, #22]	@ movhi
 522:.\main.c      **** 							ok_datosRF=1;							
 2031              		.loc 1 522 0
ARM GAS  C:\Users\RECEPC~1\AppData\Local\Temp\cc2OimPl.s 			page 46


 2032 0480 524B     		ldr	r3, .L108+20
 2033 0482 0122     		movs	r2, #1
 2034 0484 1A70     		strb	r2, [r3]
 523:.\main.c      **** 						}
 524:.\main.c      ****                     }else{                        
 525:.\main.c      ****                         PC_rxBuffer[3] = 0;
 526:.\main.c      ****     						if(PC_rxBuffer[5]=='N'){			//No autorizo el servidor		
 527:.\main.c      ****     							error_op((PC_rxBuffer[4] & 0x0F),28);
 528:.\main.c      ****     							break;
 529:.\main.c      ****     						}
 530:.\main.c      ****     						if(PC_rxBuffer[10]=='F'){		//Cambia precio
 531:.\main.c      ****                                 precio[0]=lado2.ppu[rventa2.manguera-1][0]&0x0f;	
 532:.\main.c      ****         						precio[1]=lado2.ppu[rventa2.manguera-1][1]&0x0f;
 533:.\main.c      ****         						precio[2]=lado2.ppu[rventa2.manguera-1][2]&0x0f;
 534:.\main.c      ****         						precio[3]=lado2.ppu[rventa2.manguera-1][3]&0x0f;
 535:.\main.c      ****         						precio[4]=lado2.ppu[rventa2.manguera-1][4]&0x0f;
 536:.\main.c      ****                             	if(cambiar_precio((lado2.dir & 0x0F),precio,rventa2.manguera)==0){
 537:.\main.c      ****     								rf_mod[0]='M';
 538:.\main.c      ****     								rf_mod[1]='U';
 539:.\main.c      ****     								rf_mod[2]='X';
 540:.\main.c      ****     								rf_mod[3]=creset;
 541:.\main.c      ****     								rf_mod[4]=cautorizar;
 542:.\main.c      ****     								rf_mod[5]=PC_rxBuffer[4];
 543:.\main.c      ****     								rf_mod[6]='1';
 544:.\main.c      ****     								rf_mod[7]='*';
 545:.\main.c      ****     								size=8;
 546:.\main.c      ****     								ok_datosRF=1;
 547:.\main.c      ****     								break;
 548:.\main.c      ****     							}                                                      
 549:.\main.c      ****       						}
 550:.\main.c      ****                             else{
 551:.\main.c      ****     							totales(lado2.dir, lado2.mangueras);
 552:.\main.c      ****                                 if(ppux10==1){
 553:.\main.c      ****         							precio[4]=PC_rxBuffer[9];	
 554:.\main.c      ****         							precio[3]=PC_rxBuffer[8];
 555:.\main.c      ****         							precio[2]=PC_rxBuffer[7];
 556:.\main.c      ****         							precio[1]=PC_rxBuffer[6];
 557:.\main.c      ****         							precio[0]=0;			
 558:.\main.c      ****                                 }
 559:.\main.c      ****                                 if(ppux10==0){
 560:.\main.c      ****         							precio[4]=PC_rxBuffer[10];	
 561:.\main.c      ****         							precio[3]=PC_rxBuffer[9];
 562:.\main.c      ****         							precio[2]=PC_rxBuffer[8];
 563:.\main.c      ****         							precio[1]=PC_rxBuffer[7];
 564:.\main.c      ****         							precio[0]=PC_rxBuffer[6];                            
 565:.\main.c      ****                                 }
 566:.\main.c      ****     							if(cambiar_precio((lado2.dir & 0x0F),precio,rventa2.manguera)==0){
 567:.\main.c      ****     								rf_mod[0]='M';
 568:.\main.c      ****     								rf_mod[1]='U';
 569:.\main.c      ****     								rf_mod[2]='X';
 570:.\main.c      ****     								rf_mod[3]=creset;
 571:.\main.c      ****     								rf_mod[4]=cautorizar;
 572:.\main.c      ****     								rf_mod[5]=PC_rxBuffer[4];
 573:.\main.c      ****     								rf_mod[6]='1';
 574:.\main.c      ****     								rf_mod[7]='*';
 575:.\main.c      ****     								size=8;
 576:.\main.c      ****     								ok_datosRF=1;
ARM GAS  C:\Users\RECEPC~1\AppData\Local\Temp\cc2OimPl.s 			page 47


 577:.\main.c      ****     								break;
 578:.\main.c      ****     							}
 579:.\main.c      ****                             }
 580:.\main.c      ****     						preset[1]=PC_rxBuffer[17];				//Preset
 581:.\main.c      ****     						if(PC_rxBuffer[17]!=','){
 582:.\main.c      ****     							preset[1]=PC_rxBuffer[17] & 0x0F;
 583:.\main.c      ****     						}
 584:.\main.c      ****     						preset[2]=PC_rxBuffer[16];
 585:.\main.c      ****     						if(PC_rxBuffer[16]!=','){
 586:.\main.c      ****     							preset[2]=PC_rxBuffer[16] & 0x0F;
 587:.\main.c      ****     						}
 588:.\main.c      ****     						preset[3]=PC_rxBuffer[15];
 589:.\main.c      ****     						if(PC_rxBuffer[15]!=','){
 590:.\main.c      ****     							preset[3]=PC_rxBuffer[15] & 0x0F;
 591:.\main.c      ****     						}
 592:.\main.c      ****     						preset[4]=PC_rxBuffer[14];
 593:.\main.c      ****     						if(PC_rxBuffer[14]!=','){
 594:.\main.c      ****     							preset[4]=PC_rxBuffer[14] & 0x0F;
 595:.\main.c      ****     						}
 596:.\main.c      ****     						preset[5]=PC_rxBuffer[13];
 597:.\main.c      ****     						if(PC_rxBuffer[13]!=','){
 598:.\main.c      ****     							preset[5]=PC_rxBuffer[13] & 0x0F;
 599:.\main.c      ****     						}
 600:.\main.c      ****     						preset[6]=PC_rxBuffer[12];
 601:.\main.c      ****     						if(PC_rxBuffer[12]!=','){
 602:.\main.c      ****     							preset[6]=PC_rxBuffer[12] & 0x0F;
 603:.\main.c      ****     						}
 604:.\main.c      ****     						preset[7]=PC_rxBuffer[11];
 605:.\main.c      ****     						if(PC_rxBuffer[11]!=','){
 606:.\main.c      ****     							preset[7]=PC_rxBuffer[11] & 0x0F;
 607:.\main.c      ****     						}
 608:.\main.c      ****     						t_preset=PC_rxBuffer[18];
 609:.\main.c      ****     						if(t_preset=='1'){
 610:.\main.c      ****     							t_preset=2;
 611:.\main.c      ****     						}
 612:.\main.c      ****     						else{
 613:.\main.c      ****     							t_preset=1;
 614:.\main.c      ****     						}
 615:.\main.c      ****     						if(programar((lado2.dir & 0x0F),rventa2.manguera,preset,t_preset)==1){		//Programar
 616:.\main.c      ****                                 if(ppuinicial==0){                          
 617:.\main.c      ****     //                                for(x=0;x<=4;x++){
 618:.\main.c      ****     //                            	    precio[x]=lado1.ppu[0][x];	    
 619:.\main.c      ****     //                                }
 620:.\main.c      ****     //                                cambiar_precio(lado1.dir,precio,1);    
 621:.\main.c      ****     //                                for(x=0;x<=4;x++){
 622:.\main.c      ****     //                            	    precio[x]=lado1.ppu[1][x];	    
 623:.\main.c      ****     //                                }    
 624:.\main.c      ****     //                                cambiar_precio(lado1.dir,precio,2);
 625:.\main.c      ****     //                                for(x=0;x<=4;x++){
 626:.\main.c      ****     //                            	    precio[x]=lado1.ppu[2][x];	    
 627:.\main.c      ****     //                                }
 628:.\main.c      ****     //                                cambiar_precio(lado1.dir,precio,3);       
 629:.\main.c      ****                                 }
 630:.\main.c      ****                                 CyDelay(10);
 631:.\main.c      ****     							Surtidor_PutChar(0x10|(lado2.dir & 0x0F));							
 632:.\main.c      ****     							lado2.estado=tanqueo;
 633:.\main.c      ****     							flujo_LCD1=8;
ARM GAS  C:\Users\RECEPC~1\AppData\Local\Temp\cc2OimPl.s 			page 48


 634:.\main.c      ****     							set_imagen(1,8);
 635:.\main.c      ****     						}
 636:.\main.c      ****     						else{
 637:.\main.c      ****     							rf_mod[0]='M';
 638:.\main.c      ****     							rf_mod[1]='U';
 639:.\main.c      ****     							rf_mod[2]='X';
 640:.\main.c      ****     							rf_mod[3]=creset;
 641:.\main.c      ****     							rf_mod[4]=cautorizar;
 642:.\main.c      ****     							rf_mod[5]=PC_rxBuffer[4];
 643:.\main.c      ****     							rf_mod[6]='2';
 644:.\main.c      ****     							rf_mod[7]='*';
 645:.\main.c      ****     							size=8;
 646:.\main.c      ****     							ok_datosRF=1;							
 647:.\main.c      ****     						}                    
 648:.\main.c      ****                     }
 649:.\main.c      **** 					break;
 2035              		.loc 1 649 0
 2036 0486 34E3     		b	.L55
 2037              	.L61:
 525:.\main.c      ****     						if(PC_rxBuffer[5]=='N'){			//No autorizo el servidor		
 2038              		.loc 1 525 0
 2039 0488 4B4B     		ldr	r3, .L108
 2040 048a 0022     		movs	r2, #0
 2041 048c DA70     		strb	r2, [r3, #3]
 526:.\main.c      ****     							error_op((PC_rxBuffer[4] & 0x0F),28);
 2042              		.loc 1 526 0
 2043 048e 4A4B     		ldr	r3, .L108
 2044 0490 5B79     		ldrb	r3, [r3, #5]
 2045 0492 DBB2     		uxtb	r3, r3
 2046 0494 4E2B     		cmp	r3, #78
 2047 0496 0AD1     		bne	.L79
 527:.\main.c      ****     							break;
 2048              		.loc 1 527 0
 2049 0498 474B     		ldr	r3, .L108
 2050 049a 1B79     		ldrb	r3, [r3, #4]
 2051 049c DBB2     		uxtb	r3, r3
 2052 049e 03F00F03 		and	r3, r3, #15
 2053 04a2 DBB2     		uxtb	r3, r3
 2054 04a4 1846     		mov	r0, r3
 2055 04a6 1C21     		movs	r1, #28
 2056 04a8 FFF7FEFF 		bl	error_op
 528:.\main.c      ****     						}
 2057              		.loc 1 528 0
 2058 04ac 21E3     		b	.L55
 2059              	.L79:
 530:.\main.c      ****                                 precio[0]=lado2.ppu[rventa2.manguera-1][0]&0x0f;	
 2060              		.loc 1 530 0
 2061 04ae 424B     		ldr	r3, .L108
 2062 04b0 9B7A     		ldrb	r3, [r3, #10]
 2063 04b2 DBB2     		uxtb	r3, r3
 2064 04b4 462B     		cmp	r3, #70
 2065 04b6 40F08F80 		bne	.L80
 531:.\main.c      ****         						precio[1]=lado2.ppu[rventa2.manguera-1][1]&0x0f;
 2066              		.loc 1 531 0
 2067 04ba 454B     		ldr	r3, .L108+24
 2068 04bc 9B7E     		ldrb	r3, [r3, #26]	@ zero_extendqisi2
 2069 04be 5A1E     		subs	r2, r3, #1
ARM GAS  C:\Users\RECEPC~1\AppData\Local\Temp\cc2OimPl.s 			page 49


 2070 04c0 4449     		ldr	r1, .L108+28
 2071 04c2 1346     		mov	r3, r2
 2072 04c4 9B00     		lsls	r3, r3, #2
 2073 04c6 1344     		add	r3, r3, r2
 2074 04c8 0B44     		add	r3, r3, r1
 2075 04ca 4833     		adds	r3, r3, #72
 2076 04cc 9B78     		ldrb	r3, [r3, #2]
 2077 04ce DBB2     		uxtb	r3, r3
 2078 04d0 03F00F03 		and	r3, r3, #15
 2079 04d4 DBB2     		uxtb	r3, r3
 2080 04d6 3B72     		strb	r3, [r7, #8]
 532:.\main.c      ****         						precio[2]=lado2.ppu[rventa2.manguera-1][2]&0x0f;
 2081              		.loc 1 532 0
 2082 04d8 3D4B     		ldr	r3, .L108+24
 2083 04da 9B7E     		ldrb	r3, [r3, #26]	@ zero_extendqisi2
 2084 04dc 5A1E     		subs	r2, r3, #1
 2085 04de 3D49     		ldr	r1, .L108+28
 2086 04e0 1346     		mov	r3, r2
 2087 04e2 9B00     		lsls	r3, r3, #2
 2088 04e4 1344     		add	r3, r3, r2
 2089 04e6 0B44     		add	r3, r3, r1
 2090 04e8 4933     		adds	r3, r3, #73
 2091 04ea 9B78     		ldrb	r3, [r3, #2]
 2092 04ec DBB2     		uxtb	r3, r3
 2093 04ee 03F00F03 		and	r3, r3, #15
 2094 04f2 DBB2     		uxtb	r3, r3
 2095 04f4 7B72     		strb	r3, [r7, #9]
 533:.\main.c      ****         						precio[3]=lado2.ppu[rventa2.manguera-1][3]&0x0f;
 2096              		.loc 1 533 0
 2097 04f6 364B     		ldr	r3, .L108+24
 2098 04f8 9B7E     		ldrb	r3, [r3, #26]	@ zero_extendqisi2
 2099 04fa 5A1E     		subs	r2, r3, #1
 2100 04fc 3549     		ldr	r1, .L108+28
 2101 04fe 1346     		mov	r3, r2
 2102 0500 9B00     		lsls	r3, r3, #2
 2103 0502 1344     		add	r3, r3, r2
 2104 0504 0B44     		add	r3, r3, r1
 2105 0506 4A33     		adds	r3, r3, #74
 2106 0508 9B78     		ldrb	r3, [r3, #2]
 2107 050a DBB2     		uxtb	r3, r3
 2108 050c 03F00F03 		and	r3, r3, #15
 2109 0510 DBB2     		uxtb	r3, r3
 2110 0512 BB72     		strb	r3, [r7, #10]
 534:.\main.c      ****         						precio[4]=lado2.ppu[rventa2.manguera-1][4]&0x0f;
 2111              		.loc 1 534 0
 2112 0514 2E4B     		ldr	r3, .L108+24
 2113 0516 9B7E     		ldrb	r3, [r3, #26]	@ zero_extendqisi2
 2114 0518 5A1E     		subs	r2, r3, #1
 2115 051a 2E49     		ldr	r1, .L108+28
 2116 051c 1346     		mov	r3, r2
 2117 051e 9B00     		lsls	r3, r3, #2
 2118 0520 1344     		add	r3, r3, r2
 2119 0522 0B44     		add	r3, r3, r1
 2120 0524 4B33     		adds	r3, r3, #75
 2121 0526 9B78     		ldrb	r3, [r3, #2]
 2122 0528 DBB2     		uxtb	r3, r3
 2123 052a 03F00F03 		and	r3, r3, #15
ARM GAS  C:\Users\RECEPC~1\AppData\Local\Temp\cc2OimPl.s 			page 50


 2124 052e DBB2     		uxtb	r3, r3
 2125 0530 FB72     		strb	r3, [r7, #11]
 535:.\main.c      ****                             	if(cambiar_precio((lado2.dir & 0x0F),precio,rventa2.manguera)==0){
 2126              		.loc 1 535 0
 2127 0532 274B     		ldr	r3, .L108+24
 2128 0534 9B7E     		ldrb	r3, [r3, #26]	@ zero_extendqisi2
 2129 0536 5A1E     		subs	r2, r3, #1
 2130 0538 2649     		ldr	r1, .L108+28
 2131 053a 1346     		mov	r3, r2
 2132 053c 9B00     		lsls	r3, r3, #2
 2133 053e 1344     		add	r3, r3, r2
 2134 0540 0B44     		add	r3, r3, r1
 2135 0542 4C33     		adds	r3, r3, #76
 2136 0544 9B78     		ldrb	r3, [r3, #2]
 2137 0546 DBB2     		uxtb	r3, r3
 2138 0548 03F00F03 		and	r3, r3, #15
 2139 054c DBB2     		uxtb	r3, r3
 2140 054e 3B73     		strb	r3, [r7, #12]
 536:.\main.c      ****     								rf_mod[0]='M';
 2141              		.loc 1 536 0
 2142 0550 204B     		ldr	r3, .L108+28
 2143 0552 1B78     		ldrb	r3, [r3]
 2144 0554 DBB2     		uxtb	r3, r3
 2145 0556 03F00F03 		and	r3, r3, #15
 2146 055a D9B2     		uxtb	r1, r3
 2147 055c 1C4B     		ldr	r3, .L108+24
 2148 055e 9B7E     		ldrb	r3, [r3, #26]	@ zero_extendqisi2
 2149 0560 07F10802 		add	r2, r7, #8
 2150 0564 0846     		mov	r0, r1
 2151 0566 1146     		mov	r1, r2
 2152 0568 1A46     		mov	r2, r3
 2153 056a FFF7FEFF 		bl	cambiar_precio
 2154 056e 0346     		mov	r3, r0
 2155 0570 002B     		cmp	r3, #0
 2156 0572 40F09E80 		bne	.L81
 537:.\main.c      ****     								rf_mod[1]='U';
 2157              		.loc 1 537 0
 2158 0576 144B     		ldr	r3, .L108+16
 2159 0578 4D22     		movs	r2, #77
 2160 057a 1A70     		strb	r2, [r3]
 538:.\main.c      ****     								rf_mod[2]='X';
 2161              		.loc 1 538 0
 2162 057c 124B     		ldr	r3, .L108+16
 2163 057e 5522     		movs	r2, #85
 2164 0580 5A70     		strb	r2, [r3, #1]
 539:.\main.c      ****     								rf_mod[3]=creset;
 2165              		.loc 1 539 0
 2166 0582 114B     		ldr	r3, .L108+16
 2167 0584 5822     		movs	r2, #88
 2168 0586 9A70     		strb	r2, [r3, #2]
 540:.\main.c      ****     								rf_mod[4]=cautorizar;
 2169              		.loc 1 540 0
 2170 0588 0F4B     		ldr	r3, .L108+16
 2171 058a 4522     		movs	r2, #69
 2172 058c DA70     		strb	r2, [r3, #3]
 541:.\main.c      ****     								rf_mod[5]=PC_rxBuffer[4];
 2173              		.loc 1 541 0
ARM GAS  C:\Users\RECEPC~1\AppData\Local\Temp\cc2OimPl.s 			page 51


 2174 058e 0E4B     		ldr	r3, .L108+16
 2175 0590 3022     		movs	r2, #48
 2176 0592 1A71     		strb	r2, [r3, #4]
 542:.\main.c      ****     								rf_mod[6]='1';
 2177              		.loc 1 542 0
 2178 0594 084B     		ldr	r3, .L108
 2179 0596 1B79     		ldrb	r3, [r3, #4]
 2180 0598 DAB2     		uxtb	r2, r3
 2181 059a 0B4B     		ldr	r3, .L108+16
 2182 059c 5A71     		strb	r2, [r3, #5]
 543:.\main.c      ****     								rf_mod[7]='*';
 2183              		.loc 1 543 0
 2184 059e 0A4B     		ldr	r3, .L108+16
 2185 05a0 3122     		movs	r2, #49
 2186 05a2 9A71     		strb	r2, [r3, #6]
 544:.\main.c      ****     								size=8;
 2187              		.loc 1 544 0
 2188 05a4 084B     		ldr	r3, .L108+16
 2189 05a6 2A22     		movs	r2, #42
 2190 05a8 DA71     		strb	r2, [r3, #7]
 545:.\main.c      ****     								ok_datosRF=1;
 2191              		.loc 1 545 0
 2192 05aa 0823     		movs	r3, #8
 2193 05ac FB82     		strh	r3, [r7, #22]	@ movhi
 546:.\main.c      ****     								break;
 2194              		.loc 1 546 0
 2195 05ae 074B     		ldr	r3, .L108+20
 2196 05b0 0122     		movs	r2, #1
 2197 05b2 1A70     		strb	r2, [r3]
 547:.\main.c      ****     							}                                                      
 2198              		.loc 1 547 0
 2199 05b4 9DE2     		b	.L55
 2200              	.L109:
 2201 05b6 00BF     		.align	2
 2202              	.L108:
 2203 05b8 00000000 		.word	PC_rxBuffer
 2204 05bc 00000000 		.word	lado1
 2205 05c0 00000000 		.word	rventa1
 2206 05c4 00000000 		.word	flujo_LCD1
 2207 05c8 00000000 		.word	rf_mod
 2208 05cc 00000000 		.word	ok_datosRF
 2209 05d0 00000000 		.word	rventa2
 2210 05d4 00000000 		.word	lado2
 2211              	.L80:
 551:.\main.c      ****                                 if(ppux10==1){
 2212              		.loc 1 551 0
 2213 05d8 AE4B     		ldr	r3, .L110
 2214 05da 1B78     		ldrb	r3, [r3]
 2215 05dc DAB2     		uxtb	r2, r3
 2216 05de AD4B     		ldr	r3, .L110
 2217 05e0 93F85C30 		ldrb	r3, [r3, #92]
 2218 05e4 DBB2     		uxtb	r3, r3
 2219 05e6 1046     		mov	r0, r2
 2220 05e8 1946     		mov	r1, r3
 2221 05ea FFF7FEFF 		bl	totales
 552:.\main.c      ****         							precio[4]=PC_rxBuffer[9];	
 2222              		.loc 1 552 0
ARM GAS  C:\Users\RECEPC~1\AppData\Local\Temp\cc2OimPl.s 			page 52


 2223 05ee AA4B     		ldr	r3, .L110+4
 2224 05f0 1B78     		ldrb	r3, [r3]
 2225 05f2 DBB2     		uxtb	r3, r3
 2226 05f4 012B     		cmp	r3, #1
 2227 05f6 11D1     		bne	.L82
 553:.\main.c      ****         							precio[3]=PC_rxBuffer[8];
 2228              		.loc 1 553 0
 2229 05f8 A84B     		ldr	r3, .L110+8
 2230 05fa 5B7A     		ldrb	r3, [r3, #9]
 2231 05fc DBB2     		uxtb	r3, r3
 2232 05fe 3B73     		strb	r3, [r7, #12]
 554:.\main.c      ****         							precio[2]=PC_rxBuffer[7];
 2233              		.loc 1 554 0
 2234 0600 A64B     		ldr	r3, .L110+8
 2235 0602 1B7A     		ldrb	r3, [r3, #8]
 2236 0604 DBB2     		uxtb	r3, r3
 2237 0606 FB72     		strb	r3, [r7, #11]
 555:.\main.c      ****         							precio[1]=PC_rxBuffer[6];
 2238              		.loc 1 555 0
 2239 0608 A44B     		ldr	r3, .L110+8
 2240 060a DB79     		ldrb	r3, [r3, #7]
 2241 060c DBB2     		uxtb	r3, r3
 2242 060e BB72     		strb	r3, [r7, #10]
 556:.\main.c      ****         							precio[0]=0;			
 2243              		.loc 1 556 0
 2244 0610 A24B     		ldr	r3, .L110+8
 2245 0612 9B79     		ldrb	r3, [r3, #6]
 2246 0614 DBB2     		uxtb	r3, r3
 2247 0616 7B72     		strb	r3, [r7, #9]
 557:.\main.c      ****                                 }
 2248              		.loc 1 557 0
 2249 0618 0023     		movs	r3, #0
 2250 061a 3B72     		strb	r3, [r7, #8]
 2251              	.L82:
 559:.\main.c      ****         							precio[4]=PC_rxBuffer[10];	
 2252              		.loc 1 559 0
 2253 061c 9E4B     		ldr	r3, .L110+4
 2254 061e 1B78     		ldrb	r3, [r3]
 2255 0620 DBB2     		uxtb	r3, r3
 2256 0622 002B     		cmp	r3, #0
 2257 0624 13D1     		bne	.L83
 560:.\main.c      ****         							precio[3]=PC_rxBuffer[9];
 2258              		.loc 1 560 0
 2259 0626 9D4B     		ldr	r3, .L110+8
 2260 0628 9B7A     		ldrb	r3, [r3, #10]
 2261 062a DBB2     		uxtb	r3, r3
 2262 062c 3B73     		strb	r3, [r7, #12]
 561:.\main.c      ****         							precio[2]=PC_rxBuffer[8];
 2263              		.loc 1 561 0
 2264 062e 9B4B     		ldr	r3, .L110+8
 2265 0630 5B7A     		ldrb	r3, [r3, #9]
 2266 0632 DBB2     		uxtb	r3, r3
 2267 0634 FB72     		strb	r3, [r7, #11]
 562:.\main.c      ****         							precio[1]=PC_rxBuffer[7];
 2268              		.loc 1 562 0
 2269 0636 994B     		ldr	r3, .L110+8
 2270 0638 1B7A     		ldrb	r3, [r3, #8]
ARM GAS  C:\Users\RECEPC~1\AppData\Local\Temp\cc2OimPl.s 			page 53


 2271 063a DBB2     		uxtb	r3, r3
 2272 063c BB72     		strb	r3, [r7, #10]
 563:.\main.c      ****         							precio[0]=PC_rxBuffer[6];                            
 2273              		.loc 1 563 0
 2274 063e 974B     		ldr	r3, .L110+8
 2275 0640 DB79     		ldrb	r3, [r3, #7]
 2276 0642 DBB2     		uxtb	r3, r3
 2277 0644 7B72     		strb	r3, [r7, #9]
 564:.\main.c      ****                                 }
 2278              		.loc 1 564 0
 2279 0646 954B     		ldr	r3, .L110+8
 2280 0648 9B79     		ldrb	r3, [r3, #6]
 2281 064a DBB2     		uxtb	r3, r3
 2282 064c 3B72     		strb	r3, [r7, #8]
 2283              	.L83:
 566:.\main.c      ****     								rf_mod[0]='M';
 2284              		.loc 1 566 0
 2285 064e 914B     		ldr	r3, .L110
 2286 0650 1B78     		ldrb	r3, [r3]
 2287 0652 DBB2     		uxtb	r3, r3
 2288 0654 03F00F03 		and	r3, r3, #15
 2289 0658 D9B2     		uxtb	r1, r3
 2290 065a 914B     		ldr	r3, .L110+12
 2291 065c 9B7E     		ldrb	r3, [r3, #26]	@ zero_extendqisi2
 2292 065e 07F10802 		add	r2, r7, #8
 2293 0662 0846     		mov	r0, r1
 2294 0664 1146     		mov	r1, r2
 2295 0666 1A46     		mov	r2, r3
 2296 0668 FFF7FEFF 		bl	cambiar_precio
 2297 066c 0346     		mov	r3, r0
 2298 066e 002B     		cmp	r3, #0
 2299 0670 1FD1     		bne	.L81
 567:.\main.c      ****     								rf_mod[1]='U';
 2300              		.loc 1 567 0
 2301 0672 8C4B     		ldr	r3, .L110+16
 2302 0674 4D22     		movs	r2, #77
 2303 0676 1A70     		strb	r2, [r3]
 568:.\main.c      ****     								rf_mod[2]='X';
 2304              		.loc 1 568 0
 2305 0678 8A4B     		ldr	r3, .L110+16
 2306 067a 5522     		movs	r2, #85
 2307 067c 5A70     		strb	r2, [r3, #1]
 569:.\main.c      ****     								rf_mod[3]=creset;
 2308              		.loc 1 569 0
 2309 067e 894B     		ldr	r3, .L110+16
 2310 0680 5822     		movs	r2, #88
 2311 0682 9A70     		strb	r2, [r3, #2]
 570:.\main.c      ****     								rf_mod[4]=cautorizar;
 2312              		.loc 1 570 0
 2313 0684 874B     		ldr	r3, .L110+16
 2314 0686 4522     		movs	r2, #69
 2315 0688 DA70     		strb	r2, [r3, #3]
 571:.\main.c      ****     								rf_mod[5]=PC_rxBuffer[4];
 2316              		.loc 1 571 0
 2317 068a 864B     		ldr	r3, .L110+16
 2318 068c 3022     		movs	r2, #48
 2319 068e 1A71     		strb	r2, [r3, #4]
ARM GAS  C:\Users\RECEPC~1\AppData\Local\Temp\cc2OimPl.s 			page 54


 572:.\main.c      ****     								rf_mod[6]='1';
 2320              		.loc 1 572 0
 2321 0690 824B     		ldr	r3, .L110+8
 2322 0692 1B79     		ldrb	r3, [r3, #4]
 2323 0694 DAB2     		uxtb	r2, r3
 2324 0696 834B     		ldr	r3, .L110+16
 2325 0698 5A71     		strb	r2, [r3, #5]
 573:.\main.c      ****     								rf_mod[7]='*';
 2326              		.loc 1 573 0
 2327 069a 824B     		ldr	r3, .L110+16
 2328 069c 3122     		movs	r2, #49
 2329 069e 9A71     		strb	r2, [r3, #6]
 574:.\main.c      ****     								size=8;
 2330              		.loc 1 574 0
 2331 06a0 804B     		ldr	r3, .L110+16
 2332 06a2 2A22     		movs	r2, #42
 2333 06a4 DA71     		strb	r2, [r3, #7]
 575:.\main.c      ****     								ok_datosRF=1;
 2334              		.loc 1 575 0
 2335 06a6 0823     		movs	r3, #8
 2336 06a8 FB82     		strh	r3, [r7, #22]	@ movhi
 576:.\main.c      ****     								break;
 2337              		.loc 1 576 0
 2338 06aa 7F4B     		ldr	r3, .L110+20
 2339 06ac 0122     		movs	r2, #1
 2340 06ae 1A70     		strb	r2, [r3]
 577:.\main.c      ****     							}
 2341              		.loc 1 577 0
 2342 06b0 1FE2     		b	.L55
 2343              	.L81:
 580:.\main.c      ****     						if(PC_rxBuffer[17]!=','){
 2344              		.loc 1 580 0
 2345 06b2 7A4B     		ldr	r3, .L110+8
 2346 06b4 5B7C     		ldrb	r3, [r3, #17]
 2347 06b6 DBB2     		uxtb	r3, r3
 2348 06b8 7B70     		strb	r3, [r7, #1]
 581:.\main.c      ****     							preset[1]=PC_rxBuffer[17] & 0x0F;
 2349              		.loc 1 581 0
 2350 06ba 784B     		ldr	r3, .L110+8
 2351 06bc 5B7C     		ldrb	r3, [r3, #17]
 2352 06be DBB2     		uxtb	r3, r3
 2353 06c0 2C2B     		cmp	r3, #44
 2354 06c2 06D0     		beq	.L84
 582:.\main.c      ****     						}
 2355              		.loc 1 582 0
 2356 06c4 754B     		ldr	r3, .L110+8
 2357 06c6 5B7C     		ldrb	r3, [r3, #17]
 2358 06c8 DBB2     		uxtb	r3, r3
 2359 06ca 03F00F03 		and	r3, r3, #15
 2360 06ce DBB2     		uxtb	r3, r3
 2361 06d0 7B70     		strb	r3, [r7, #1]
 2362              	.L84:
 584:.\main.c      ****     						if(PC_rxBuffer[16]!=','){
 2363              		.loc 1 584 0
 2364 06d2 724B     		ldr	r3, .L110+8
 2365 06d4 1B7C     		ldrb	r3, [r3, #16]
 2366 06d6 DBB2     		uxtb	r3, r3
ARM GAS  C:\Users\RECEPC~1\AppData\Local\Temp\cc2OimPl.s 			page 55


 2367 06d8 BB70     		strb	r3, [r7, #2]
 585:.\main.c      ****     							preset[2]=PC_rxBuffer[16] & 0x0F;
 2368              		.loc 1 585 0
 2369 06da 704B     		ldr	r3, .L110+8
 2370 06dc 1B7C     		ldrb	r3, [r3, #16]
 2371 06de DBB2     		uxtb	r3, r3
 2372 06e0 2C2B     		cmp	r3, #44
 2373 06e2 06D0     		beq	.L85
 586:.\main.c      ****     						}
 2374              		.loc 1 586 0
 2375 06e4 6D4B     		ldr	r3, .L110+8
 2376 06e6 1B7C     		ldrb	r3, [r3, #16]
 2377 06e8 DBB2     		uxtb	r3, r3
 2378 06ea 03F00F03 		and	r3, r3, #15
 2379 06ee DBB2     		uxtb	r3, r3
 2380 06f0 BB70     		strb	r3, [r7, #2]
 2381              	.L85:
 588:.\main.c      ****     						if(PC_rxBuffer[15]!=','){
 2382              		.loc 1 588 0
 2383 06f2 6A4B     		ldr	r3, .L110+8
 2384 06f4 DB7B     		ldrb	r3, [r3, #15]
 2385 06f6 DBB2     		uxtb	r3, r3
 2386 06f8 FB70     		strb	r3, [r7, #3]
 589:.\main.c      ****     							preset[3]=PC_rxBuffer[15] & 0x0F;
 2387              		.loc 1 589 0
 2388 06fa 684B     		ldr	r3, .L110+8
 2389 06fc DB7B     		ldrb	r3, [r3, #15]
 2390 06fe DBB2     		uxtb	r3, r3
 2391 0700 2C2B     		cmp	r3, #44
 2392 0702 06D0     		beq	.L86
 590:.\main.c      ****     						}
 2393              		.loc 1 590 0
 2394 0704 654B     		ldr	r3, .L110+8
 2395 0706 DB7B     		ldrb	r3, [r3, #15]
 2396 0708 DBB2     		uxtb	r3, r3
 2397 070a 03F00F03 		and	r3, r3, #15
 2398 070e DBB2     		uxtb	r3, r3
 2399 0710 FB70     		strb	r3, [r7, #3]
 2400              	.L86:
 592:.\main.c      ****     						if(PC_rxBuffer[14]!=','){
 2401              		.loc 1 592 0
 2402 0712 624B     		ldr	r3, .L110+8
 2403 0714 9B7B     		ldrb	r3, [r3, #14]
 2404 0716 DBB2     		uxtb	r3, r3
 2405 0718 3B71     		strb	r3, [r7, #4]
 593:.\main.c      ****     							preset[4]=PC_rxBuffer[14] & 0x0F;
 2406              		.loc 1 593 0
 2407 071a 604B     		ldr	r3, .L110+8
 2408 071c 9B7B     		ldrb	r3, [r3, #14]
 2409 071e DBB2     		uxtb	r3, r3
 2410 0720 2C2B     		cmp	r3, #44
 2411 0722 06D0     		beq	.L87
 594:.\main.c      ****     						}
 2412              		.loc 1 594 0
 2413 0724 5D4B     		ldr	r3, .L110+8
 2414 0726 9B7B     		ldrb	r3, [r3, #14]
 2415 0728 DBB2     		uxtb	r3, r3
ARM GAS  C:\Users\RECEPC~1\AppData\Local\Temp\cc2OimPl.s 			page 56


 2416 072a 03F00F03 		and	r3, r3, #15
 2417 072e DBB2     		uxtb	r3, r3
 2418 0730 3B71     		strb	r3, [r7, #4]
 2419              	.L87:
 596:.\main.c      ****     						if(PC_rxBuffer[13]!=','){
 2420              		.loc 1 596 0
 2421 0732 5A4B     		ldr	r3, .L110+8
 2422 0734 5B7B     		ldrb	r3, [r3, #13]
 2423 0736 DBB2     		uxtb	r3, r3
 2424 0738 7B71     		strb	r3, [r7, #5]
 597:.\main.c      ****     							preset[5]=PC_rxBuffer[13] & 0x0F;
 2425              		.loc 1 597 0
 2426 073a 584B     		ldr	r3, .L110+8
 2427 073c 5B7B     		ldrb	r3, [r3, #13]
 2428 073e DBB2     		uxtb	r3, r3
 2429 0740 2C2B     		cmp	r3, #44
 2430 0742 06D0     		beq	.L88
 598:.\main.c      ****     						}
 2431              		.loc 1 598 0
 2432 0744 554B     		ldr	r3, .L110+8
 2433 0746 5B7B     		ldrb	r3, [r3, #13]
 2434 0748 DBB2     		uxtb	r3, r3
 2435 074a 03F00F03 		and	r3, r3, #15
 2436 074e DBB2     		uxtb	r3, r3
 2437 0750 7B71     		strb	r3, [r7, #5]
 2438              	.L88:
 600:.\main.c      ****     						if(PC_rxBuffer[12]!=','){
 2439              		.loc 1 600 0
 2440 0752 524B     		ldr	r3, .L110+8
 2441 0754 1B7B     		ldrb	r3, [r3, #12]
 2442 0756 DBB2     		uxtb	r3, r3
 2443 0758 BB71     		strb	r3, [r7, #6]
 601:.\main.c      ****     							preset[6]=PC_rxBuffer[12] & 0x0F;
 2444              		.loc 1 601 0
 2445 075a 504B     		ldr	r3, .L110+8
 2446 075c 1B7B     		ldrb	r3, [r3, #12]
 2447 075e DBB2     		uxtb	r3, r3
 2448 0760 2C2B     		cmp	r3, #44
 2449 0762 06D0     		beq	.L89
 602:.\main.c      ****     						}
 2450              		.loc 1 602 0
 2451 0764 4D4B     		ldr	r3, .L110+8
 2452 0766 1B7B     		ldrb	r3, [r3, #12]
 2453 0768 DBB2     		uxtb	r3, r3
 2454 076a 03F00F03 		and	r3, r3, #15
 2455 076e DBB2     		uxtb	r3, r3
 2456 0770 BB71     		strb	r3, [r7, #6]
 2457              	.L89:
 604:.\main.c      ****     						if(PC_rxBuffer[11]!=','){
 2458              		.loc 1 604 0
 2459 0772 4A4B     		ldr	r3, .L110+8
 2460 0774 DB7A     		ldrb	r3, [r3, #11]
 2461 0776 DBB2     		uxtb	r3, r3
 2462 0778 FB71     		strb	r3, [r7, #7]
 605:.\main.c      ****     							preset[7]=PC_rxBuffer[11] & 0x0F;
 2463              		.loc 1 605 0
 2464 077a 484B     		ldr	r3, .L110+8
ARM GAS  C:\Users\RECEPC~1\AppData\Local\Temp\cc2OimPl.s 			page 57


 2465 077c DB7A     		ldrb	r3, [r3, #11]
 2466 077e DBB2     		uxtb	r3, r3
 2467 0780 2C2B     		cmp	r3, #44
 2468 0782 06D0     		beq	.L90
 606:.\main.c      ****     						}
 2469              		.loc 1 606 0
 2470 0784 454B     		ldr	r3, .L110+8
 2471 0786 DB7A     		ldrb	r3, [r3, #11]
 2472 0788 DBB2     		uxtb	r3, r3
 2473 078a 03F00F03 		and	r3, r3, #15
 2474 078e DBB2     		uxtb	r3, r3
 2475 0790 FB71     		strb	r3, [r7, #7]
 2476              	.L90:
 608:.\main.c      ****     						if(t_preset=='1'){
 2477              		.loc 1 608 0
 2478 0792 424B     		ldr	r3, .L110+8
 2479 0794 9B7C     		ldrb	r3, [r3, #18]
 2480 0796 DBB2     		uxtb	r3, r3
 2481 0798 7B82     		strh	r3, [r7, #18]	@ movhi
 609:.\main.c      ****     							t_preset=2;
 2482              		.loc 1 609 0
 2483 079a 7B8A     		ldrh	r3, [r7, #18]
 2484 079c 312B     		cmp	r3, #49
 2485 079e 02D1     		bne	.L91
 610:.\main.c      ****     						}
 2486              		.loc 1 610 0
 2487 07a0 0223     		movs	r3, #2
 2488 07a2 7B82     		strh	r3, [r7, #18]	@ movhi
 2489 07a4 01E0     		b	.L92
 2490              	.L91:
 613:.\main.c      ****     						}
 2491              		.loc 1 613 0
 2492 07a6 0123     		movs	r3, #1
 2493 07a8 7B82     		strh	r3, [r7, #18]	@ movhi
 2494              	.L92:
 615:.\main.c      ****                                 if(ppuinicial==0){                          
 2495              		.loc 1 615 0
 2496 07aa 3A4B     		ldr	r3, .L110
 2497 07ac 1B78     		ldrb	r3, [r3]
 2498 07ae DBB2     		uxtb	r3, r3
 2499 07b0 03F00F03 		and	r3, r3, #15
 2500 07b4 D8B2     		uxtb	r0, r3
 2501 07b6 3A4B     		ldr	r3, .L110+12
 2502 07b8 997E     		ldrb	r1, [r3, #26]	@ zero_extendqisi2
 2503 07ba 7B8A     		ldrh	r3, [r7, #18]	@ movhi
 2504 07bc DBB2     		uxtb	r3, r3
 2505 07be 3A46     		mov	r2, r7
 2506 07c0 FFF7FEFF 		bl	programar
 2507 07c4 0346     		mov	r3, r0
 2508 07c6 012B     		cmp	r3, #1
 2509 07c8 1BD1     		bne	.L93
 630:.\main.c      ****     							Surtidor_PutChar(0x10|(lado2.dir & 0x0F));							
 2510              		.loc 1 630 0
 2511 07ca 0A20     		movs	r0, #10
 2512 07cc FFF7FEFF 		bl	CyDelay
 631:.\main.c      ****     							lado2.estado=tanqueo;
 2513              		.loc 1 631 0
ARM GAS  C:\Users\RECEPC~1\AppData\Local\Temp\cc2OimPl.s 			page 58


 2514 07d0 304B     		ldr	r3, .L110
 2515 07d2 1B78     		ldrb	r3, [r3]
 2516 07d4 DBB2     		uxtb	r3, r3
 2517 07d6 DBB2     		uxtb	r3, r3
 2518 07d8 03F00F03 		and	r3, r3, #15
 2519 07dc DBB2     		uxtb	r3, r3
 2520 07de 43F01003 		orr	r3, r3, #16
 2521 07e2 DBB2     		uxtb	r3, r3
 2522 07e4 DBB2     		uxtb	r3, r3
 2523 07e6 1846     		mov	r0, r3
 2524 07e8 FFF7FEFF 		bl	Surtidor_PutChar
 632:.\main.c      ****     							flujo_LCD1=8;
 2525              		.loc 1 632 0
 2526 07ec 294B     		ldr	r3, .L110
 2527 07ee 0622     		movs	r2, #6
 2528 07f0 5A70     		strb	r2, [r3, #1]
 633:.\main.c      ****     							set_imagen(1,8);
 2529              		.loc 1 633 0
 2530 07f2 2E4B     		ldr	r3, .L110+24
 2531 07f4 0822     		movs	r2, #8
 2532 07f6 1A70     		strb	r2, [r3]
 634:.\main.c      ****     						}
 2533              		.loc 1 634 0
 2534 07f8 0120     		movs	r0, #1
 2535 07fa 0821     		movs	r1, #8
 2536 07fc FFF7FEFF 		bl	set_imagen
 2537 0800 1FE0     		b	.L78
 2538              	.L93:
 637:.\main.c      ****     							rf_mod[1]='U';
 2539              		.loc 1 637 0
 2540 0802 284B     		ldr	r3, .L110+16
 2541 0804 4D22     		movs	r2, #77
 2542 0806 1A70     		strb	r2, [r3]
 638:.\main.c      ****     							rf_mod[2]='X';
 2543              		.loc 1 638 0
 2544 0808 264B     		ldr	r3, .L110+16
 2545 080a 5522     		movs	r2, #85
 2546 080c 5A70     		strb	r2, [r3, #1]
 639:.\main.c      ****     							rf_mod[3]=creset;
 2547              		.loc 1 639 0
 2548 080e 254B     		ldr	r3, .L110+16
 2549 0810 5822     		movs	r2, #88
 2550 0812 9A70     		strb	r2, [r3, #2]
 640:.\main.c      ****     							rf_mod[4]=cautorizar;
 2551              		.loc 1 640 0
 2552 0814 234B     		ldr	r3, .L110+16
 2553 0816 4522     		movs	r2, #69
 2554 0818 DA70     		strb	r2, [r3, #3]
 641:.\main.c      ****     							rf_mod[5]=PC_rxBuffer[4];
 2555              		.loc 1 641 0
 2556 081a 224B     		ldr	r3, .L110+16
 2557 081c 3022     		movs	r2, #48
 2558 081e 1A71     		strb	r2, [r3, #4]
 642:.\main.c      ****     							rf_mod[6]='2';
 2559              		.loc 1 642 0
 2560 0820 1E4B     		ldr	r3, .L110+8
 2561 0822 1B79     		ldrb	r3, [r3, #4]
ARM GAS  C:\Users\RECEPC~1\AppData\Local\Temp\cc2OimPl.s 			page 59


 2562 0824 DAB2     		uxtb	r2, r3
 2563 0826 1F4B     		ldr	r3, .L110+16
 2564 0828 5A71     		strb	r2, [r3, #5]
 643:.\main.c      ****     							rf_mod[7]='*';
 2565              		.loc 1 643 0
 2566 082a 1E4B     		ldr	r3, .L110+16
 2567 082c 3222     		movs	r2, #50
 2568 082e 9A71     		strb	r2, [r3, #6]
 644:.\main.c      ****     							size=8;
 2569              		.loc 1 644 0
 2570 0830 1C4B     		ldr	r3, .L110+16
 2571 0832 2A22     		movs	r2, #42
 2572 0834 DA71     		strb	r2, [r3, #7]
 645:.\main.c      ****     							ok_datosRF=1;							
 2573              		.loc 1 645 0
 2574 0836 0823     		movs	r3, #8
 2575 0838 FB82     		strh	r3, [r7, #22]	@ movhi
 646:.\main.c      ****     						}                    
 2576              		.loc 1 646 0
 2577 083a 1B4B     		ldr	r3, .L110+20
 2578 083c 0122     		movs	r2, #1
 2579 083e 1A70     		strb	r2, [r3]
 2580              		.loc 1 649 0
 2581 0840 57E1     		b	.L55
 2582              	.L78:
 2583              		.loc 1 649 0 is_stmt 0 discriminator 1
 2584 0842 56E1     		b	.L55
 2585              	.L58:
 650:.\main.c      **** 					
 651:.\main.c      **** 					case cimprimir:
 652:.\main.c      **** 						set_imagen(1,55);					
 2586              		.loc 1 652 0 is_stmt 1
 2587 0844 0120     		movs	r0, #1
 2588 0846 3721     		movs	r1, #55
 2589 0848 FFF7FEFF 		bl	set_imagen
 653:.\main.c      **** 						if(lado1.dir==(lado1.dir & 0x0F)){
 2590              		.loc 1 653 0
 2591 084c 184B     		ldr	r3, .L110+28
 2592 084e 1B78     		ldrb	r3, [r3]
 2593 0850 DBB2     		uxtb	r3, r3
 2594 0852 1A46     		mov	r2, r3
 2595 0854 164B     		ldr	r3, .L110+28
 2596 0856 1B78     		ldrb	r3, [r3]
 2597 0858 DBB2     		uxtb	r3, r3
 2598 085a 03F00F03 		and	r3, r3, #15
 2599 085e 9A42     		cmp	r2, r3
 2600 0860 06D1     		bne	.L94
 654:.\main.c      **** 							lado1.estado=libre;
 2601              		.loc 1 654 0
 2602 0862 134B     		ldr	r3, .L110+28
 2603 0864 0122     		movs	r2, #1
 2604 0866 5A70     		strb	r2, [r3, #1]
 655:.\main.c      **** 							flujo_LCD1=0;
 2605              		.loc 1 655 0
 2606 0868 104B     		ldr	r3, .L110+24
 2607 086a 0022     		movs	r2, #0
 2608 086c 1A70     		strb	r2, [r3]
ARM GAS  C:\Users\RECEPC~1\AppData\Local\Temp\cc2OimPl.s 			page 60


 2609 086e 21E0     		b	.L95
 2610              	.L94:
 656:.\main.c      **** 						}
 657:.\main.c      **** 						else if(lado2.dir==(PC_rxBuffer[4] & 0x0F)){
 2611              		.loc 1 657 0
 2612 0870 084B     		ldr	r3, .L110
 2613 0872 1B78     		ldrb	r3, [r3]
 2614 0874 DBB2     		uxtb	r3, r3
 2615 0876 1A46     		mov	r2, r3
 2616 0878 084B     		ldr	r3, .L110+8
 2617 087a 1B79     		ldrb	r3, [r3, #4]
 2618 087c DBB2     		uxtb	r3, r3
 2619 087e 03F00F03 		and	r3, r3, #15
 2620 0882 9A42     		cmp	r2, r3
 2621 0884 16D1     		bne	.L95
 658:.\main.c      **** 							lado2.estado=libre;
 2622              		.loc 1 658 0
 2623 0886 034B     		ldr	r3, .L110
 2624 0888 0122     		movs	r2, #1
 2625 088a 5A70     		strb	r2, [r3, #1]
 659:.\main.c      **** 							flujo_LCD1=0;
 2626              		.loc 1 659 0
 2627 088c 074B     		ldr	r3, .L110+24
 2628 088e 0022     		movs	r2, #0
 2629 0890 1A70     		strb	r2, [r3]
 660:.\main.c      **** 						}						
 661:.\main.c      **** 					break;
 2630              		.loc 1 661 0
 2631 0892 2EE1     		b	.L55
 2632              	.L111:
 2633              		.align	2
 2634              	.L110:
 2635 0894 00000000 		.word	lado2
 2636 0898 00000000 		.word	ppux10
 2637 089c 00000000 		.word	PC_rxBuffer
 2638 08a0 00000000 		.word	rventa2
 2639 08a4 00000000 		.word	rf_mod
 2640 08a8 00000000 		.word	ok_datosRF
 2641 08ac 00000000 		.word	flujo_LCD1
 2642 08b0 00000000 		.word	lado1
 2643              	.L95:
 2644 08b4 1DE1     		b	.L55
 2645              	.L60:
 662:.\main.c      **** 					
 663:.\main.c      **** 					case creset:                                   
 664:.\main.c      ****     						switch(PC_rxBuffer[5]){
 2646              		.loc 1 664 0
 2647 08b6 9E4B     		ldr	r3, .L112
 2648 08b8 5B79     		ldrb	r3, [r3, #5]
 2649 08ba DBB2     		uxtb	r3, r3
 2650 08bc 313B     		subs	r3, r3, #49
 2651 08be 032B     		cmp	r3, #3
 2652 08c0 00F21681 		bhi	.L104
 2653 08c4 01A2     		adr	r2, .L98
 2654 08c6 52F823F0 		ldr	pc, [r2, r3, lsl #2]
 2655 08ca 00BF     		.p2align 2
 2656              	.L98:
ARM GAS  C:\Users\RECEPC~1\AppData\Local\Temp\cc2OimPl.s 			page 61


 2657 08cc DD080000 		.word	.L97+1
 2658 08d0 ED080000 		.word	.L99+1
 2659 08d4 FD080000 		.word	.L100+1
 2660 08d8 0D090000 		.word	.L105+1
 2661              		.p2align 1
 2662              	.L97:
 665:.\main.c      ****     							case '1':														
 666:.\main.c      ****     								lado1.estado=libre;
 2663              		.loc 1 666 0
 2664 08dc 954B     		ldr	r3, .L112+4
 2665 08de 0122     		movs	r2, #1
 2666 08e0 5A70     		strb	r2, [r3, #1]
 667:.\main.c      ****     								error_op(1,28);					 //Error de id					
 2667              		.loc 1 667 0
 2668 08e2 0120     		movs	r0, #1
 2669 08e4 1C21     		movs	r1, #28
 2670 08e6 FFF7FEFF 		bl	error_op
 668:.\main.c      ****     							break;
 2671              		.loc 1 668 0
 2672 08ea 10E0     		b	.L96
 2673              	.L99:
 669:.\main.c      ****     								
 670:.\main.c      ****     							case '2':
 671:.\main.c      ****     								lado1.estado=libre;
 2674              		.loc 1 671 0
 2675 08ec 914B     		ldr	r3, .L112+4
 2676 08ee 0122     		movs	r2, #1
 2677 08f0 5A70     		strb	r2, [r3, #1]
 672:.\main.c      ****     								error_op(1,12);					//Gracias por su compra
 2678              		.loc 1 672 0
 2679 08f2 0120     		movs	r0, #1
 2680 08f4 0C21     		movs	r1, #12
 2681 08f6 FFF7FEFF 		bl	error_op
 673:.\main.c      ****     							break;
 2682              		.loc 1 673 0
 2683 08fa 08E0     		b	.L96
 2684              	.L100:
 674:.\main.c      ****     								
 675:.\main.c      ****     							case '3':
 676:.\main.c      ****     								lado1.estado=libre;
 2685              		.loc 1 676 0
 2686 08fc 8D4B     		ldr	r3, .L112+4
 2687 08fe 0122     		movs	r2, #1
 2688 0900 5A70     		strb	r2, [r3, #1]
 677:.\main.c      ****     								error_op(1,12);					//Error de Operacion //85
 2689              		.loc 1 677 0
 2690 0902 0120     		movs	r0, #1
 2691 0904 0C21     		movs	r1, #12
 2692 0906 FFF7FEFF 		bl	error_op
 678:.\main.c      ****     							break;
 2693              		.loc 1 678 0
 2694 090a 00E0     		b	.L96
 2695              	.L105:
 679:.\main.c      ****     								
 680:.\main.c      ****     							case '4':
 681:.\main.c      **** //    								lado1.estado=libre;//
 682:.\main.c      **** //    								error_op(1,12);		//			//Fin Corte
ARM GAS  C:\Users\RECEPC~1\AppData\Local\Temp\cc2OimPl.s 			page 62


 683:.\main.c      ****     							break;								
 2696              		.loc 1 683 0
 2697 090c 00BF     		nop
 2698              	.L96:
 684:.\main.c      ****     								
 685:.\main.c      ****     						}                        
 686:.\main.c      **** 					break;
 2699              		.loc 1 686 0 discriminator 2
 2700 090e EFE0     		b	.L104
 2701              	.L59:
 687:.\main.c      ****                     case cconfigurar:
 688:.\main.c      ****                         lado1.mangueras   = PC_rxBuffer[4]-48; //Numero de mangueras
 2702              		.loc 1 688 0
 2703 0910 874B     		ldr	r3, .L112
 2704 0912 1B79     		ldrb	r3, [r3, #4]
 2705 0914 DBB2     		uxtb	r3, r3
 2706 0916 303B     		subs	r3, r3, #48
 2707 0918 DAB2     		uxtb	r2, r3
 2708 091a 864B     		ldr	r3, .L112+4
 2709 091c 83F85C20 		strb	r2, [r3, #92]
 689:.\main.c      ****                         lado1.grado[0][0] = PC_rxBuffer[5]-48;
 2710              		.loc 1 689 0
 2711 0920 834B     		ldr	r3, .L112
 2712 0922 5B79     		ldrb	r3, [r3, #5]
 2713 0924 DBB2     		uxtb	r3, r3
 2714 0926 303B     		subs	r3, r3, #48
 2715 0928 DAB2     		uxtb	r2, r3
 2716 092a 824B     		ldr	r3, .L112+4
 2717 092c 83F85920 		strb	r2, [r3, #89]
 690:.\main.c      ****                         lado1.grado[1][0] = PC_rxBuffer[6]-48; //Grados
 2718              		.loc 1 690 0
 2719 0930 7F4B     		ldr	r3, .L112
 2720 0932 9B79     		ldrb	r3, [r3, #6]
 2721 0934 DBB2     		uxtb	r3, r3
 2722 0936 303B     		subs	r3, r3, #48
 2723 0938 DAB2     		uxtb	r2, r3
 2724 093a 7E4B     		ldr	r3, .L112+4
 2725 093c 83F85A20 		strb	r2, [r3, #90]
 691:.\main.c      ****                         lado1.grado[2][0] = PC_rxBuffer[7]-48;
 2726              		.loc 1 691 0
 2727 0940 7B4B     		ldr	r3, .L112
 2728 0942 DB79     		ldrb	r3, [r3, #7]
 2729 0944 DBB2     		uxtb	r3, r3
 2730 0946 303B     		subs	r3, r3, #48
 2731 0948 DAB2     		uxtb	r2, r3
 2732 094a 7A4B     		ldr	r3, .L112+4
 2733 094c 83F85B20 		strb	r2, [r3, #91]
 692:.\main.c      ****                         lado2.mangueras   = PC_rxBuffer[8]-48;
 2734              		.loc 1 692 0
 2735 0950 774B     		ldr	r3, .L112
 2736 0952 1B7A     		ldrb	r3, [r3, #8]
 2737 0954 DBB2     		uxtb	r3, r3
 2738 0956 303B     		subs	r3, r3, #48
 2739 0958 DAB2     		uxtb	r2, r3
 2740 095a 774B     		ldr	r3, .L112+8
 2741 095c 83F85C20 		strb	r2, [r3, #92]
 693:.\main.c      ****                         lado2.grado[0][0] = PC_rxBuffer[9]-48;
ARM GAS  C:\Users\RECEPC~1\AppData\Local\Temp\cc2OimPl.s 			page 63


 2742              		.loc 1 693 0
 2743 0960 734B     		ldr	r3, .L112
 2744 0962 5B7A     		ldrb	r3, [r3, #9]
 2745 0964 DBB2     		uxtb	r3, r3
 2746 0966 303B     		subs	r3, r3, #48
 2747 0968 DAB2     		uxtb	r2, r3
 2748 096a 734B     		ldr	r3, .L112+8
 2749 096c 83F85920 		strb	r2, [r3, #89]
 694:.\main.c      ****                         lado2.grado[1][0] = PC_rxBuffer[10]-48;
 2750              		.loc 1 694 0
 2751 0970 6F4B     		ldr	r3, .L112
 2752 0972 9B7A     		ldrb	r3, [r3, #10]
 2753 0974 DBB2     		uxtb	r3, r3
 2754 0976 303B     		subs	r3, r3, #48
 2755 0978 DAB2     		uxtb	r2, r3
 2756 097a 6F4B     		ldr	r3, .L112+8
 2757 097c 83F85A20 		strb	r2, [r3, #90]
 695:.\main.c      ****                         lado2.grado[2][0] = PC_rxBuffer[11]-48;
 2758              		.loc 1 695 0
 2759 0980 6B4B     		ldr	r3, .L112
 2760 0982 DB7A     		ldrb	r3, [r3, #11]
 2761 0984 DBB2     		uxtb	r3, r3
 2762 0986 303B     		subs	r3, r3, #48
 2763 0988 DAB2     		uxtb	r2, r3
 2764 098a 6B4B     		ldr	r3, .L112+8
 2765 098c 83F85B20 		strb	r2, [r3, #91]
 696:.\main.c      ****                         version[1]    = PC_rxBuffer[12]-48;	//Version surtidor
 2766              		.loc 1 696 0
 2767 0990 674B     		ldr	r3, .L112
 2768 0992 1B7B     		ldrb	r3, [r3, #12]
 2769 0994 DBB2     		uxtb	r3, r3
 2770 0996 303B     		subs	r3, r3, #48
 2771 0998 DAB2     		uxtb	r2, r3
 2772 099a 684B     		ldr	r3, .L112+12
 2773 099c 5A70     		strb	r2, [r3, #1]
 697:.\main.c      ****                     	version[2]    = PC_rxBuffer[13]-48; //Decimales dinero
 2774              		.loc 1 697 0
 2775 099e 644B     		ldr	r3, .L112
 2776 09a0 5B7B     		ldrb	r3, [r3, #13]
 2777 09a2 DBB2     		uxtb	r3, r3
 2778 09a4 303B     		subs	r3, r3, #48
 2779 09a6 DAB2     		uxtb	r2, r3
 2780 09a8 644B     		ldr	r3, .L112+12
 2781 09aa 9A70     		strb	r2, [r3, #2]
 698:.\main.c      ****                     	version[3]    = PC_rxBuffer[14]-48; //Decimales volumen
 2782              		.loc 1 698 0
 2783 09ac 604B     		ldr	r3, .L112
 2784 09ae 9B7B     		ldrb	r3, [r3, #14]
 2785 09b0 DBB2     		uxtb	r3, r3
 2786 09b2 303B     		subs	r3, r3, #48
 2787 09b4 DAB2     		uxtb	r2, r3
 2788 09b6 614B     		ldr	r3, .L112+12
 2789 09b8 DA70     		strb	r2, [r3, #3]
 699:.\main.c      ****                         ppux10        = PC_rxBuffer[15]-48; //ppux10  
 2790              		.loc 1 699 0
 2791 09ba 5D4B     		ldr	r3, .L112
 2792 09bc DB7B     		ldrb	r3, [r3, #15]
ARM GAS  C:\Users\RECEPC~1\AppData\Local\Temp\cc2OimPl.s 			page 64


 2793 09be DBB2     		uxtb	r3, r3
 2794 09c0 303B     		subs	r3, r3, #48
 2795 09c2 DAB2     		uxtb	r2, r3
 2796 09c4 5E4B     		ldr	r3, .L112+16
 2797 09c6 1A70     		strb	r2, [r3]
 700:.\main.c      ****                         pantallas     = PC_rxBuffer[16]-48; //pantallas por pos  
 2798              		.loc 1 700 0
 2799 09c8 594B     		ldr	r3, .L112
 2800 09ca 1B7C     		ldrb	r3, [r3, #16]
 2801 09cc DBB2     		uxtb	r3, r3
 2802 09ce 303B     		subs	r3, r3, #48
 2803 09d0 DAB2     		uxtb	r2, r3
 2804 09d2 5C4B     		ldr	r3, .L112+20
 2805 09d4 1A70     		strb	r2, [r3]
 701:.\main.c      ****                         kmscreen      = PC_rxBuffer[17]-48; //solicita pantalla de kilometraje   
 2806              		.loc 1 701 0
 2807 09d6 564B     		ldr	r3, .L112
 2808 09d8 5B7C     		ldrb	r3, [r3, #17]
 2809 09da DBB2     		uxtb	r3, r3
 2810 09dc 303B     		subs	r3, r3, #48
 2811 09de DAB2     		uxtb	r2, r3
 2812 09e0 594B     		ldr	r3, .L112+24
 2813 09e2 1A70     		strb	r2, [r3]
 702:.\main.c      ****                         efectivo      = PC_rxBuffer[18]-48; //solicita pantalla de kilometraje   
 2814              		.loc 1 702 0
 2815 09e4 524B     		ldr	r3, .L112
 2816 09e6 9B7C     		ldrb	r3, [r3, #18]
 2817 09e8 DBB2     		uxtb	r3, r3
 2818 09ea 303B     		subs	r3, r3, #48
 2819 09ec DAB2     		uxtb	r2, r3
 2820 09ee 574B     		ldr	r3, .L112+28
 2821 09f0 1A70     		strb	r2, [r3]
 703:.\main.c      ****                         
 704:.\main.c      ****                         EEPROM_WriteByte(lado1.mangueras,15);  //Almacena configuraciones en MUX
 2822              		.loc 1 704 0
 2823 09f2 504B     		ldr	r3, .L112+4
 2824 09f4 93F85C30 		ldrb	r3, [r3, #92]
 2825 09f8 DBB2     		uxtb	r3, r3
 2826 09fa 1846     		mov	r0, r3
 2827 09fc 0F21     		movs	r1, #15
 2828 09fe FFF7FEFF 		bl	EEPROM_WriteByte
 705:.\main.c      ****                         EEPROM_WriteByte(lado1.grado[0][0],16);
 2829              		.loc 1 705 0
 2830 0a02 4C4B     		ldr	r3, .L112+4
 2831 0a04 93F85930 		ldrb	r3, [r3, #89]
 2832 0a08 DBB2     		uxtb	r3, r3
 2833 0a0a 1846     		mov	r0, r3
 2834 0a0c 1021     		movs	r1, #16
 2835 0a0e FFF7FEFF 		bl	EEPROM_WriteByte
 706:.\main.c      ****                         EEPROM_WriteByte(lado1.grado[1][0],17);
 2836              		.loc 1 706 0
 2837 0a12 484B     		ldr	r3, .L112+4
 2838 0a14 93F85A30 		ldrb	r3, [r3, #90]
 2839 0a18 DBB2     		uxtb	r3, r3
 2840 0a1a 1846     		mov	r0, r3
 2841 0a1c 1121     		movs	r1, #17
 2842 0a1e FFF7FEFF 		bl	EEPROM_WriteByte
ARM GAS  C:\Users\RECEPC~1\AppData\Local\Temp\cc2OimPl.s 			page 65


 707:.\main.c      ****                         EEPROM_WriteByte(lado1.grado[2][0],18);
 2843              		.loc 1 707 0
 2844 0a22 444B     		ldr	r3, .L112+4
 2845 0a24 93F85B30 		ldrb	r3, [r3, #91]
 2846 0a28 DBB2     		uxtb	r3, r3
 2847 0a2a 1846     		mov	r0, r3
 2848 0a2c 1221     		movs	r1, #18
 2849 0a2e FFF7FEFF 		bl	EEPROM_WriteByte
 708:.\main.c      ****                         EEPROM_WriteByte(lado2.mangueras,19);
 2850              		.loc 1 708 0
 2851 0a32 414B     		ldr	r3, .L112+8
 2852 0a34 93F85C30 		ldrb	r3, [r3, #92]
 2853 0a38 DBB2     		uxtb	r3, r3
 2854 0a3a 1846     		mov	r0, r3
 2855 0a3c 1321     		movs	r1, #19
 2856 0a3e FFF7FEFF 		bl	EEPROM_WriteByte
 709:.\main.c      ****                         EEPROM_WriteByte(lado2.grado[0][0],20);
 2857              		.loc 1 709 0
 2858 0a42 3D4B     		ldr	r3, .L112+8
 2859 0a44 93F85930 		ldrb	r3, [r3, #89]
 2860 0a48 DBB2     		uxtb	r3, r3
 2861 0a4a 1846     		mov	r0, r3
 2862 0a4c 1421     		movs	r1, #20
 2863 0a4e FFF7FEFF 		bl	EEPROM_WriteByte
 710:.\main.c      ****                         EEPROM_WriteByte(lado2.grado[1][0],21);
 2864              		.loc 1 710 0
 2865 0a52 394B     		ldr	r3, .L112+8
 2866 0a54 93F85A30 		ldrb	r3, [r3, #90]
 2867 0a58 DBB2     		uxtb	r3, r3
 2868 0a5a 1846     		mov	r0, r3
 2869 0a5c 1521     		movs	r1, #21
 2870 0a5e FFF7FEFF 		bl	EEPROM_WriteByte
 711:.\main.c      ****                         EEPROM_WriteByte(lado2.grado[2][0],22);
 2871              		.loc 1 711 0
 2872 0a62 354B     		ldr	r3, .L112+8
 2873 0a64 93F85B30 		ldrb	r3, [r3, #91]
 2874 0a68 DBB2     		uxtb	r3, r3
 2875 0a6a 1846     		mov	r0, r3
 2876 0a6c 1621     		movs	r1, #22
 2877 0a6e FFF7FEFF 		bl	EEPROM_WriteByte
 712:.\main.c      ****                         EEPROM_WriteByte(ppux10,23);
 2878              		.loc 1 712 0
 2879 0a72 334B     		ldr	r3, .L112+16
 2880 0a74 1B78     		ldrb	r3, [r3]
 2881 0a76 DBB2     		uxtb	r3, r3
 2882 0a78 1846     		mov	r0, r3
 2883 0a7a 1721     		movs	r1, #23
 2884 0a7c FFF7FEFF 		bl	EEPROM_WriteByte
 713:.\main.c      ****                         EEPROM_WriteByte(version[1],30);
 2885              		.loc 1 713 0
 2886 0a80 2E4B     		ldr	r3, .L112+12
 2887 0a82 5B78     		ldrb	r3, [r3, #1]
 2888 0a84 DBB2     		uxtb	r3, r3
 2889 0a86 1846     		mov	r0, r3
 2890 0a88 1E21     		movs	r1, #30
 2891 0a8a FFF7FEFF 		bl	EEPROM_WriteByte
 714:.\main.c      ****                         EEPROM_WriteByte(version[2],31);
ARM GAS  C:\Users\RECEPC~1\AppData\Local\Temp\cc2OimPl.s 			page 66


 2892              		.loc 1 714 0
 2893 0a8e 2B4B     		ldr	r3, .L112+12
 2894 0a90 9B78     		ldrb	r3, [r3, #2]
 2895 0a92 DBB2     		uxtb	r3, r3
 2896 0a94 1846     		mov	r0, r3
 2897 0a96 1F21     		movs	r1, #31
 2898 0a98 FFF7FEFF 		bl	EEPROM_WriteByte
 715:.\main.c      ****                         EEPROM_WriteByte(version[3],32);
 2899              		.loc 1 715 0
 2900 0a9c 274B     		ldr	r3, .L112+12
 2901 0a9e DB78     		ldrb	r3, [r3, #3]
 2902 0aa0 DBB2     		uxtb	r3, r3
 2903 0aa2 1846     		mov	r0, r3
 2904 0aa4 2021     		movs	r1, #32
 2905 0aa6 FFF7FEFF 		bl	EEPROM_WriteByte
 716:.\main.c      ****                         EEPROM_WriteByte(pantallas,33);
 2906              		.loc 1 716 0
 2907 0aaa 264B     		ldr	r3, .L112+20
 2908 0aac 1B78     		ldrb	r3, [r3]
 2909 0aae DBB2     		uxtb	r3, r3
 2910 0ab0 1846     		mov	r0, r3
 2911 0ab2 2121     		movs	r1, #33
 2912 0ab4 FFF7FEFF 		bl	EEPROM_WriteByte
 717:.\main.c      ****                         EEPROM_WriteByte(kmscreen,34);
 2913              		.loc 1 717 0
 2914 0ab8 234B     		ldr	r3, .L112+24
 2915 0aba 1B78     		ldrb	r3, [r3]
 2916 0abc DBB2     		uxtb	r3, r3
 2917 0abe 1846     		mov	r0, r3
 2918 0ac0 2221     		movs	r1, #34
 2919 0ac2 FFF7FEFF 		bl	EEPROM_WriteByte
 718:.\main.c      ****                         EEPROM_WriteByte(efectivo,35);
 2920              		.loc 1 718 0
 2921 0ac6 214B     		ldr	r3, .L112+28
 2922 0ac8 1B78     		ldrb	r3, [r3]
 2923 0aca DBB2     		uxtb	r3, r3
 2924 0acc 1846     		mov	r0, r3
 2925 0ace 2321     		movs	r1, #35
 2926 0ad0 FFF7FEFF 		bl	EEPROM_WriteByte
 719:.\main.c      ****                         set_imagen(1,60); 
 2927              		.loc 1 719 0
 2928 0ad4 0120     		movs	r0, #1
 2929 0ad6 3C21     		movs	r1, #60
 2930 0ad8 FFF7FEFF 		bl	set_imagen
 720:.\main.c      ****                         CyDelay(500);
 2931              		.loc 1 720 0
 2932 0adc 4FF4FA70 		mov	r0, #500
 2933 0ae0 FFF7FEFF 		bl	CyDelay
 721:.\main.c      ****                         init();
 2934              		.loc 1 721 0
 2935 0ae4 FFF7FEFF 		bl	init
 722:.\main.c      ****                         flujo_LCD1 = 0;                        
 2936              		.loc 1 722 0
 2937 0ae8 194B     		ldr	r3, .L112+32
 2938 0aea 0022     		movs	r2, #0
 2939 0aec 1A70     		strb	r2, [r3]
 723:.\main.c      ****                     break;
ARM GAS  C:\Users\RECEPC~1\AppData\Local\Temp\cc2OimPl.s 			page 67


 2940              		.loc 1 723 0
 2941 0aee 00E0     		b	.L55
 2942              	.L104:
 686:.\main.c      ****                     case cconfigurar:
 2943              		.loc 1 686 0
 2944 0af0 00BF     		nop
 2945              	.L55:
 724:.\main.c      **** 				}
 725:.\main.c      **** 				if(ok_datosRF==1){
 2946              		.loc 1 725 0
 2947 0af2 184B     		ldr	r3, .L112+36
 2948 0af4 1B78     		ldrb	r3, [r3]	@ zero_extendqisi2
 2949 0af6 012B     		cmp	r3, #1
 2950 0af8 0FD1     		bne	.L54
 726:.\main.c      **** 				    for(x=0;x<size;x++){
 2951              		.loc 1 726 0
 2952 0afa 0023     		movs	r3, #0
 2953 0afc BB82     		strh	r3, [r7, #20]	@ movhi
 2954 0afe 08E0     		b	.L102
 2955              	.L103:
 727:.\main.c      **** 					   PC_PutChar(rf_mod[x]);
 2956              		.loc 1 727 0 discriminator 3
 2957 0b00 BB8A     		ldrh	r3, [r7, #20]
 2958 0b02 154A     		ldr	r2, .L112+40
 2959 0b04 D35C     		ldrb	r3, [r2, r3]	@ zero_extendqisi2
 2960 0b06 1846     		mov	r0, r3
 2961 0b08 FFF7FEFF 		bl	PC_PutChar
 726:.\main.c      **** 				    for(x=0;x<size;x++){
 2962              		.loc 1 726 0 discriminator 3
 2963 0b0c BB8A     		ldrh	r3, [r7, #20]
 2964 0b0e 0133     		adds	r3, r3, #1
 2965 0b10 BB82     		strh	r3, [r7, #20]	@ movhi
 2966              	.L102:
 726:.\main.c      **** 				    for(x=0;x<size;x++){
 2967              		.loc 1 726 0 is_stmt 0 discriminator 1
 2968 0b12 BA8A     		ldrh	r2, [r7, #20]
 2969 0b14 FB8A     		ldrh	r3, [r7, #22]
 2970 0b16 9A42     		cmp	r2, r3
 2971 0b18 F2D3     		bcc	.L103
 2972              	.L54:
 728:.\main.c      **** 				    }	               
 729:.\main.c      **** 				}
 730:.\main.c      **** 			}
 731:.\main.c      **** 			PC_ClearRxBuffer();
 2973              		.loc 1 731 0 is_stmt 1
 2974 0b1a FFF7FEFF 		bl	PC_ClearRxBuffer
 732:.\main.c      ****             Surtidor_ClearRxBuffer();
 2975              		.loc 1 732 0
 2976 0b1e FFF7FEFF 		bl	Surtidor_ClearRxBuffer
 733:.\main.c      **** 			status1=0;
 2977              		.loc 1 733 0
 2978 0b22 0023     		movs	r3, #0
 2979 0b24 3B82     		strh	r3, [r7, #16]	@ movhi
 734:.\main.c      **** 			status2=0;			
 2980              		.loc 1 734 0
 2981 0b26 0023     		movs	r3, #0
 2982 0b28 FB81     		strh	r3, [r7, #14]	@ movhi
ARM GAS  C:\Users\RECEPC~1\AppData\Local\Temp\cc2OimPl.s 			page 68


 2983              	.L52:
 735:.\main.c      **** 		}		
 736:.\main.c      **** 	}	
 737:.\main.c      **** }
 2984              		.loc 1 737 0
 2985 0b2a 1837     		adds	r7, r7, #24
 2986              		.cfi_def_cfa_offset 8
 2987 0b2c BD46     		mov	sp, r7
 2988              		.cfi_def_cfa_register 13
 2989              		@ sp needed
 2990 0b2e 80BD     		pop	{r7, pc}
 2991              	.L113:
 2992              		.align	2
 2993              	.L112:
 2994 0b30 00000000 		.word	PC_rxBuffer
 2995 0b34 00000000 		.word	lado1
 2996 0b38 00000000 		.word	lado2
 2997 0b3c 00000000 		.word	version
 2998 0b40 00000000 		.word	ppux10
 2999 0b44 00000000 		.word	pantallas
 3000 0b48 00000000 		.word	kmscreen
 3001 0b4c 00000000 		.word	efectivo
 3002 0b50 00000000 		.word	flujo_LCD1
 3003 0b54 00000000 		.word	ok_datosRF
 3004 0b58 00000000 		.word	rf_mod
 3005              		.cfi_endproc
 3006              	.LFE67:
 3007              		.size	polling_rf, .-polling_rf
 3008              		.section	.text.polling_surt,"ax",%progbits
 3009              		.align	2
 3010              		.global	polling_surt
 3011              		.thumb
 3012              		.thumb_func
 3013              		.type	polling_surt, %function
 3014              	polling_surt:
 3015              	.LFB68:
 738:.\main.c      **** 
 739:.\main.c      **** 
 740:.\main.c      **** 
 741:.\main.c      **** /*
 742:.\main.c      **** ***************************************************************************************************
 743:.\main.c      **** *                                         uint8 polling_surt(void)
 744:.\main.c      **** *
 745:.\main.c      **** * Description : 
 746:.\main.c      **** *               
 747:.\main.c      **** *
 748:.\main.c      **** * Argument(s) : none
 749:.\main.c      **** *
 750:.\main.c      **** * Return(s)   : none
 751:.\main.c      **** *
 752:.\main.c      **** * Caller(s)   : 
 753:.\main.c      **** *
 754:.\main.c      **** * Note(s)     : none.
 755:.\main.c      **** ***************************************************************************************************
 756:.\main.c      **** */
 757:.\main.c      **** 
 758:.\main.c      **** void polling_surt(void){
ARM GAS  C:\Users\RECEPC~1\AppData\Local\Temp\cc2OimPl.s 			page 69


 3016              		.loc 1 758 0
 3017              		.cfi_startproc
 3018              		@ args = 0, pretend = 0, frame = 0
 3019              		@ frame_needed = 1, uses_anonymous_args = 0
 3020              		@ link register save eliminated.
 3021 0000 80B4     		push	{r7}
 3022              		.cfi_def_cfa_offset 4
 3023              		.cfi_offset 7, -4
 3024 0002 00AF     		add	r7, sp, #0
 3025              		.cfi_def_cfa_register 7
 759:.\main.c      **** 	         
 760:.\main.c      ****             
 761:.\main.c      **** }
 3026              		.loc 1 761 0
 3027 0004 BD46     		mov	sp, r7
 3028              		.cfi_def_cfa_register 13
 3029              		@ sp needed
 3030 0006 5DF8047B 		ldr	r7, [sp], #4
 3031              		.cfi_restore 7
 3032              		.cfi_def_cfa_offset 0
 3033 000a 7047     		bx	lr
 3034              		.cfi_endproc
 3035              	.LFE68:
 3036              		.size	polling_surt, .-polling_surt
 3037              		.global	__aeabi_dcmpge
 3038              		.global	__aeabi_dcmple
 3039              		.global	__aeabi_dcmpgt
 3040              		.section	.text.polling_LCD1,"ax",%progbits
 3041              		.align	2
 3042              		.global	polling_LCD1
 3043              		.thumb
 3044              		.thumb_func
 3045              		.type	polling_LCD1, %function
 3046              	polling_LCD1:
 3047              	.LFB69:
 762:.\main.c      **** 
 763:.\main.c      **** 
 764:.\main.c      **** 
 765:.\main.c      **** /*
 766:.\main.c      **** ***************************************************************************************************
 767:.\main.c      **** *                                         void polling_LCD1(void)
 768:.\main.c      **** *
 769:.\main.c      **** * Description : 
 770:.\main.c      **** *               
 771:.\main.c      **** *
 772:.\main.c      **** * Argument(s) : none
 773:.\main.c      **** *
 774:.\main.c      **** * Return(s)   : none
 775:.\main.c      **** *
 776:.\main.c      **** * Caller(s)   : 
 777:.\main.c      **** *
 778:.\main.c      **** * Note(s)     : none.
 779:.\main.c      **** ***************************************************************************************************
 780:.\main.c      **** */
 781:.\main.c      **** 
 782:.\main.c      **** void polling_LCD1(void){
 3048              		.loc 1 782 0
ARM GAS  C:\Users\RECEPC~1\AppData\Local\Temp\cc2OimPl.s 			page 70


 3049              		.cfi_startproc
 3050              		@ args = 0, pretend = 0, frame = 48
 3051              		@ frame_needed = 1, uses_anonymous_args = 0
 3052 0000 B0B5     		push	{r4, r5, r7, lr}
 3053              		.cfi_def_cfa_offset 16
 3054              		.cfi_offset 4, -16
 3055              		.cfi_offset 5, -12
 3056              		.cfi_offset 7, -8
 3057              		.cfi_offset 14, -4
 3058 0002 8EB0     		sub	sp, sp, #56
 3059              		.cfi_def_cfa_offset 72
 3060 0004 02AF     		add	r7, sp, #8
 3061              		.cfi_def_cfa 7, 64
 783:.\main.c      ****     uint8 x,y,aux[10],precio[5],x_1;
 784:.\main.c      **** 	char numero[8];
 785:.\main.c      **** 	double num_decimal;   
 786:.\main.c      ****     switch(flujo_LCD1){
 3062              		.loc 1 786 0
 3063 0006 CD4B     		ldr	r3, .L651
 3064 0008 1B78     		ldrb	r3, [r3]
 3065 000a DBB2     		uxtb	r3, r3
 3066 000c 662B     		cmp	r3, #102
 3067 000e 04F2ED84 		bhi	.L115
 3068 0012 01A2     		adr	r2, .L118
 3069 0014 52F823F0 		ldr	pc, [r2, r3, lsl #2]
 3070              		.p2align 2
 3071              	.L118:
 3072 0018 B5010000 		.word	.L117+1
 3073 001c 09030000 		.word	.L119+1
 3074 0020 0B040000 		.word	.L120+1
 3075 0024 07090000 		.word	.L121+1
 3076 0028 D9090000 		.word	.L122+1
 3077 002c A50D0000 		.word	.L123+1
 3078 0030 490F0000 		.word	.L124+1
 3079 0034 ED490000 		.word	.L115+1
 3080 0038 55100000 		.word	.L125+1
 3081 003c E5120000 		.word	.L126+1
 3082 0040 ED490000 		.word	.L115+1
 3083 0044 791C0000 		.word	.L127+1
 3084 0048 631F0000 		.word	.L128+1
 3085 004c 01360000 		.word	.L129+1
 3086 0050 65410000 		.word	.L130+1
 3087 0054 87430000 		.word	.L131+1
 3088 0058 C1440000 		.word	.L132+1
 3089 005c 63470000 		.word	.L133+1
 3090 0060 ED490000 		.word	.L115+1
 3091 0064 05480000 		.word	.L134+1
 3092 0068 71030000 		.word	.L135+1
 3093 006c CF010000 		.word	.L136+1
 3094 0070 ED490000 		.word	.L115+1
 3095 0074 ED490000 		.word	.L115+1
 3096 0078 ED490000 		.word	.L115+1
 3097 007c ED490000 		.word	.L115+1
 3098 0080 ED490000 		.word	.L115+1
 3099 0084 ED490000 		.word	.L115+1
 3100 0088 ED490000 		.word	.L115+1
 3101 008c ED490000 		.word	.L115+1
ARM GAS  C:\Users\RECEPC~1\AppData\Local\Temp\cc2OimPl.s 			page 71


 3102 0090 ED490000 		.word	.L115+1
 3103 0094 ED490000 		.word	.L115+1
 3104 0098 ED490000 		.word	.L115+1
 3105 009c ED490000 		.word	.L115+1
 3106 00a0 ED490000 		.word	.L115+1
 3107 00a4 ED490000 		.word	.L115+1
 3108 00a8 ED490000 		.word	.L115+1
 3109 00ac ED490000 		.word	.L115+1
 3110 00b0 ED490000 		.word	.L115+1
 3111 00b4 ED490000 		.word	.L115+1
 3112 00b8 ED490000 		.word	.L115+1
 3113 00bc ED490000 		.word	.L115+1
 3114 00c0 ED490000 		.word	.L115+1
 3115 00c4 ED490000 		.word	.L115+1
 3116 00c8 ED490000 		.word	.L115+1
 3117 00cc ED490000 		.word	.L115+1
 3118 00d0 ED490000 		.word	.L115+1
 3119 00d4 ED490000 		.word	.L115+1
 3120 00d8 ED490000 		.word	.L115+1
 3121 00dc ED490000 		.word	.L115+1
 3122 00e0 ED490000 		.word	.L115+1
 3123 00e4 ED490000 		.word	.L115+1
 3124 00e8 ED490000 		.word	.L115+1
 3125 00ec ED490000 		.word	.L115+1
 3126 00f0 ED490000 		.word	.L115+1
 3127 00f4 ED490000 		.word	.L115+1
 3128 00f8 ED490000 		.word	.L115+1
 3129 00fc ED490000 		.word	.L115+1
 3130 0100 ED490000 		.word	.L115+1
 3131 0104 ED490000 		.word	.L115+1
 3132 0108 ED490000 		.word	.L115+1
 3133 010c ED490000 		.word	.L115+1
 3134 0110 ED490000 		.word	.L115+1
 3135 0114 ED490000 		.word	.L115+1
 3136 0118 ED490000 		.word	.L115+1
 3137 011c ED490000 		.word	.L115+1
 3138 0120 ED490000 		.word	.L115+1
 3139 0124 ED490000 		.word	.L115+1
 3140 0128 ED490000 		.word	.L115+1
 3141 012c ED490000 		.word	.L115+1
 3142 0130 ED490000 		.word	.L115+1
 3143 0134 ED490000 		.word	.L115+1
 3144 0138 ED490000 		.word	.L115+1
 3145 013c ED490000 		.word	.L115+1
 3146 0140 ED490000 		.word	.L115+1
 3147 0144 ED490000 		.word	.L115+1
 3148 0148 ED490000 		.word	.L115+1
 3149 014c ED490000 		.word	.L115+1
 3150 0150 ED490000 		.word	.L115+1
 3151 0154 ED490000 		.word	.L115+1
 3152 0158 ED490000 		.word	.L115+1
 3153 015c ED490000 		.word	.L115+1
 3154 0160 ED490000 		.word	.L115+1
 3155 0164 ED490000 		.word	.L115+1
 3156 0168 ED490000 		.word	.L115+1
 3157 016c ED490000 		.word	.L115+1
 3158 0170 ED490000 		.word	.L115+1
ARM GAS  C:\Users\RECEPC~1\AppData\Local\Temp\cc2OimPl.s 			page 72


 3159 0174 ED490000 		.word	.L115+1
 3160 0178 ED490000 		.word	.L115+1
 3161 017c ED490000 		.word	.L115+1
 3162 0180 ED490000 		.word	.L115+1
 3163 0184 ED490000 		.word	.L115+1
 3164 0188 ED490000 		.word	.L115+1
 3165 018c ED490000 		.word	.L115+1
 3166 0190 ED490000 		.word	.L115+1
 3167 0194 ED490000 		.word	.L115+1
 3168 0198 ED490000 		.word	.L115+1
 3169 019c ED490000 		.word	.L115+1
 3170 01a0 ED490000 		.word	.L115+1
 3171 01a4 ED490000 		.word	.L115+1
 3172 01a8 CD490000 		.word	.L137+1
 3173 01ac ED490000 		.word	.L115+1
 3174 01b0 ED490000 		.word	.L115+1
 3175              		.p2align 1
 3176              	.L117:
 787:.\main.c      ****         case 0:
 788:.\main.c      ****          isr_3_StartEx(animacion); 
 3177              		.loc 1 788 0
 3178 01b4 6248     		ldr	r0, .L651+4
 3179 01b6 FFF7FEFF 		bl	isr_3_StartEx
 789:.\main.c      ****          Timer_Animacion_Start();
 3180              		.loc 1 789 0
 3181 01ba FFF7FEFF 		bl	Timer_Animacion_Start
 790:.\main.c      ****          count_protector=0;
 3182              		.loc 1 790 0
 3183 01be 614B     		ldr	r3, .L651+8
 3184 01c0 0022     		movs	r2, #0
 3185 01c2 1A70     		strb	r2, [r3]
 791:.\main.c      ****          flujo_LCD1=21;	       
 3186              		.loc 1 791 0
 3187 01c4 5D4B     		ldr	r3, .L651
 3188 01c6 1522     		movs	r2, #21
 3189 01c8 1A70     		strb	r2, [r3]
 792:.\main.c      ****         break;
 3190              		.loc 1 792 0
 3191 01ca 04F00FBC 		b	.L115
 3192              	.L136:
 793:.\main.c      ****         
 794:.\main.c      ****         case 21:
 795:.\main.c      **** //            set_imagen(1,27);                 //Pasa a pantalla de tipo de venta viejo:5
 796:.\main.c      **** //            tipo_venta = 0;
 797:.\main.c      **** //            id_teclado1 = 8;
 798:.\main.c      **** //            flujo_LCD1 = 11;             
 799:.\main.c      ****                 if(touch_present(1)==1){
 3193              		.loc 1 799 0
 3194 01ce 0120     		movs	r0, #1
 3195 01d0 FFF7FEFF 		bl	touch_present
 3196 01d4 0346     		mov	r3, r0
 3197 01d6 012B     		cmp	r3, #1
 3198 01d8 70D1     		bne	.L139
 800:.\main.c      ****                     if(touch_write(1,0x33)){
 3199              		.loc 1 800 0
 3200 01da 0120     		movs	r0, #1
 3201 01dc 3321     		movs	r1, #51
ARM GAS  C:\Users\RECEPC~1\AppData\Local\Temp\cc2OimPl.s 			page 73


 3202 01de FFF7FEFF 		bl	touch_write
 3203 01e2 0346     		mov	r3, r0
 3204 01e4 002B     		cmp	r3, #0
 3205 01e6 69D0     		beq	.L139
 801:.\main.c      ****     	                for(x=0;x<=7;x++){
 3206              		.loc 1 801 0
 3207 01e8 0023     		movs	r3, #0
 3208 01ea 87F82F30 		strb	r3, [r7, #47]
 3209 01ee 1CE0     		b	.L140
 3210              	.L141:
 802:.\main.c      ****     	                    rventa1.id[x]=touch_read_byte(1);
 3211              		.loc 1 802 0 discriminator 3
 3212 01f0 97F82F40 		ldrb	r4, [r7, #47]	@ zero_extendqisi2
 3213 01f4 0120     		movs	r0, #1
 3214 01f6 FFF7FEFF 		bl	touch_read_byte
 3215 01fa 0346     		mov	r3, r0
 3216 01fc 1A46     		mov	r2, r3
 3217 01fe 524B     		ldr	r3, .L651+12
 3218 0200 2344     		add	r3, r3, r4
 3219 0202 83F82320 		strb	r2, [r3, #35]
 803:.\main.c      ****                             rventa2.id[x]=rventa1.id[x];
 3220              		.loc 1 803 0 discriminator 3
 3221 0206 97F82F30 		ldrb	r3, [r7, #47]	@ zero_extendqisi2
 3222 020a 97F82F20 		ldrb	r2, [r7, #47]	@ zero_extendqisi2
 3223 020e 4E49     		ldr	r1, .L651+12
 3224 0210 0A44     		add	r2, r2, r1
 3225 0212 92F82310 		ldrb	r1, [r2, #35]	@ zero_extendqisi2
 3226 0216 4D4A     		ldr	r2, .L651+16
 3227 0218 1344     		add	r3, r3, r2
 3228 021a 0A46     		mov	r2, r1
 3229 021c 83F82320 		strb	r2, [r3, #35]
 801:.\main.c      ****     	                for(x=0;x<=7;x++){
 3230              		.loc 1 801 0 discriminator 3
 3231 0220 97F82F30 		ldrb	r3, [r7, #47]	@ zero_extendqisi2
 3232 0224 0133     		adds	r3, r3, #1
 3233 0226 87F82F30 		strb	r3, [r7, #47]
 3234              	.L140:
 801:.\main.c      ****     	                for(x=0;x<=7;x++){
 3235              		.loc 1 801 0 is_stmt 0 discriminator 1
 3236 022a 97F82F30 		ldrb	r3, [r7, #47]	@ zero_extendqisi2
 3237 022e 072B     		cmp	r3, #7
 3238 0230 DED9     		bls	.L141
 804:.\main.c      ****     	                }
 805:.\main.c      ****     				    crc_total=0;
 3239              		.loc 1 805 0 is_stmt 1
 3240 0232 474B     		ldr	r3, .L651+20
 3241 0234 0022     		movs	r2, #0
 3242 0236 1A70     		strb	r2, [r3]
 806:.\main.c      ****     				    for(x=0;x<7;x++){
 3243              		.loc 1 806 0
 3244 0238 0023     		movs	r3, #0
 3245 023a 87F82F30 		strb	r3, [r7, #47]
 3246 023e 14E0     		b	.L142
 3247              	.L143:
 807:.\main.c      ****     				 	    crc_total=crc_check(crc_total,rventa1.id[x]);
 3248              		.loc 1 807 0 discriminator 3
 3249 0240 434B     		ldr	r3, .L651+20
ARM GAS  C:\Users\RECEPC~1\AppData\Local\Temp\cc2OimPl.s 			page 74


 3250 0242 1978     		ldrb	r1, [r3]	@ zero_extendqisi2
 3251 0244 97F82F30 		ldrb	r3, [r7, #47]	@ zero_extendqisi2
 3252 0248 3F4A     		ldr	r2, .L651+12
 3253 024a 1344     		add	r3, r3, r2
 3254 024c 93F82330 		ldrb	r3, [r3, #35]	@ zero_extendqisi2
 3255 0250 0846     		mov	r0, r1
 3256 0252 1946     		mov	r1, r3
 3257 0254 FFF7FEFF 		bl	crc_check
 3258 0258 0346     		mov	r3, r0
 3259 025a 1A46     		mov	r2, r3
 3260 025c 3C4B     		ldr	r3, .L651+20
 3261 025e 1A70     		strb	r2, [r3]
 806:.\main.c      ****     				    for(x=0;x<7;x++){
 3262              		.loc 1 806 0 discriminator 3
 3263 0260 97F82F30 		ldrb	r3, [r7, #47]	@ zero_extendqisi2
 3264 0264 0133     		adds	r3, r3, #1
 3265 0266 87F82F30 		strb	r3, [r7, #47]
 3266              	.L142:
 806:.\main.c      ****     				    for(x=0;x<7;x++){
 3267              		.loc 1 806 0 is_stmt 0 discriminator 1
 3268 026a 97F82F30 		ldrb	r3, [r7, #47]	@ zero_extendqisi2
 3269 026e 062B     		cmp	r3, #6
 3270 0270 E6D9     		bls	.L143
 808:.\main.c      ****     				    }					
 809:.\main.c      ****     				    if(crc_total==rventa1.id[7]){
 3271              		.loc 1 809 0 is_stmt 1
 3272 0272 354B     		ldr	r3, .L651+12
 3273 0274 93F82A20 		ldrb	r2, [r3, #42]	@ zero_extendqisi2
 3274 0278 354B     		ldr	r3, .L651+20
 3275 027a 1B78     		ldrb	r3, [r3]	@ zero_extendqisi2
 3276 027c 9A42     		cmp	r2, r3
 3277 027e 1DD1     		bne	.L139
 810:.\main.c      ****     		                set_imagen(1,19);
 3278              		.loc 1 810 0
 3279 0280 0120     		movs	r0, #1
 3280 0282 1321     		movs	r1, #19
 3281 0284 FFF7FEFF 		bl	set_imagen
 811:.\main.c      ****     		                CyDelay(500);					 				 
 3282              		.loc 1 811 0
 3283 0288 4FF4FA70 		mov	r0, #500
 3284 028c FFF7FEFF 		bl	CyDelay
 812:.\main.c      ****     					    count_teclas1=0;							//Inicia el contador de teclas						    
 3285              		.loc 1 812 0
 3286 0290 304B     		ldr	r3, .L651+24
 3287 0292 0022     		movs	r2, #0
 3288 0294 1A70     		strb	r2, [r3]
 813:.\main.c      ****     					    teclas1=10;
 3289              		.loc 1 813 0
 3290 0296 304B     		ldr	r3, .L651+28
 3291 0298 0A22     		movs	r2, #10
 3292 029a 1A70     		strb	r2, [r3]
 814:.\main.c      ****     					    posx1=2;
 3293              		.loc 1 814 0
 3294 029c 2F4B     		ldr	r3, .L651+32
 3295 029e 0222     		movs	r2, #2
 3296 02a0 1A80     		strh	r2, [r3]	@ movhi
 815:.\main.c      ****     					    posy1=3;
ARM GAS  C:\Users\RECEPC~1\AppData\Local\Temp\cc2OimPl.s 			page 75


 3297              		.loc 1 815 0
 3298 02a2 2F4B     		ldr	r3, .L651+36
 3299 02a4 0322     		movs	r2, #3
 3300 02a6 1A80     		strh	r2, [r3]	@ movhi
 816:.\main.c      ****     					    sizeletra1=1;	 
 3301              		.loc 1 816 0
 3302 02a8 2E4B     		ldr	r3, .L651+40
 3303 02aa 0122     		movs	r2, #1
 3304 02ac 1A80     		strh	r2, [r3]	@ movhi
 817:.\main.c      ****                             flujo_LCD1 = 20;
 3305              		.loc 1 817 0
 3306 02ae 234B     		ldr	r3, .L651
 3307 02b0 1422     		movs	r2, #20
 3308 02b2 1A70     		strb	r2, [r3]
 818:.\main.c      ****                             set_imagen(1,46);
 3309              		.loc 1 818 0
 3310 02b4 0120     		movs	r0, #1
 3311 02b6 2E21     		movs	r1, #46
 3312 02b8 FFF7FEFF 		bl	set_imagen
 3313              	.L139:
 819:.\main.c      ****     					    	
 820:.\main.c      ****     				    }
 821:.\main.c      ****                     }
 822:.\main.c      ****                 }  
 823:.\main.c      ****                    
 824:.\main.c      ****             
 825:.\main.c      ****             if(LCD_1_GetRxBufferSize()==8){
 3314              		.loc 1 825 0
 3315 02bc FFF7FEFF 		bl	LCD_1_GetRxBufferSize
 3316 02c0 0346     		mov	r3, r0
 3317 02c2 082B     		cmp	r3, #8
 3318 02c4 1ED1     		bne	.L144
 826:.\main.c      ****                 if((LCD_1_rxBuffer[0]==0xAA) && (LCD_1_rxBuffer[6]==0xC3) && (LCD_1_rxBuffer[7]==0x
 3319              		.loc 1 826 0
 3320 02c6 284B     		ldr	r3, .L651+44
 3321 02c8 1B78     		ldrb	r3, [r3]
 3322 02ca DBB2     		uxtb	r3, r3
 3323 02cc AA2B     		cmp	r3, #170
 3324 02ce 12D1     		bne	.L145
 3325              		.loc 1 826 0 is_stmt 0 discriminator 1
 3326 02d0 254B     		ldr	r3, .L651+44
 3327 02d2 9B79     		ldrb	r3, [r3, #6]
 3328 02d4 DBB2     		uxtb	r3, r3
 3329 02d6 C32B     		cmp	r3, #195
 3330 02d8 0DD1     		bne	.L145
 3331              		.loc 1 826 0 discriminator 2
 3332 02da 234B     		ldr	r3, .L651+44
 3333 02dc DB79     		ldrb	r3, [r3, #7]
 3334 02de DBB2     		uxtb	r3, r3
 3335 02e0 3C2B     		cmp	r3, #60
 3336 02e2 08D1     		bne	.L145
 827:.\main.c      ****                     switch(LCD_1_rxBuffer[3]){
 3337              		.loc 1 827 0 is_stmt 1
 3338 02e4 204B     		ldr	r3, .L651+44
 3339 02e6 DB78     		ldrb	r3, [r3, #3]
 3340 02e8 DBB2     		uxtb	r3, r3
 3341 02ea 3B2B     		cmp	r3, #59
ARM GAS  C:\Users\RECEPC~1\AppData\Local\Temp\cc2OimPl.s 			page 76


 3342 02ec 03D1     		bne	.L145
 828:.\main.c      ****                         case 0x3B:
 829:.\main.c      ****                             flujo_LCD1=0; 
 3343              		.loc 1 829 0
 3344 02ee 134B     		ldr	r3, .L651
 3345 02f0 0022     		movs	r2, #0
 3346 02f2 1A70     		strb	r2, [r3]
 830:.\main.c      ****                         break; 
 3347              		.loc 1 830 0
 3348 02f4 00BF     		nop
 3349              	.L145:
 831:.\main.c      ****                     }
 832:.\main.c      ****                 }
 833:.\main.c      ****                 CyDelay(100);            
 3350              		.loc 1 833 0
 3351 02f6 6420     		movs	r0, #100
 3352 02f8 FFF7FEFF 		bl	CyDelay
 834:.\main.c      ****                 LCD_1_ClearRxBuffer();            
 3353              		.loc 1 834 0
 3354 02fc FFF7FEFF 		bl	LCD_1_ClearRxBuffer
 835:.\main.c      ****         }
 836:.\main.c      ****         break;
 3355              		.loc 1 836 0
 3356 0300 04F074BB 		b	.L115
 3357              	.L144:
 3358 0304 04F072BB 		b	.L115
 3359              	.L119:
 837:.\main.c      ****         
 838:.\main.c      ****         case 1:
 839:.\main.c      ****          if(LCD_1_GetRxBufferSize()==8){ 
 3360              		.loc 1 839 0
 3361 0308 FFF7FEFF 		bl	LCD_1_GetRxBufferSize
 3362 030c 0346     		mov	r3, r0
 3363 030e 082B     		cmp	r3, #8
 3364 0310 11D1     		bne	.L147
 840:.\main.c      ****              isr_3_Stop(); 
 3365              		.loc 1 840 0
 3366 0312 FFF7FEFF 		bl	isr_3_Stop
 841:.\main.c      ****              Timer_Animacion_Stop();
 3367              		.loc 1 841 0
 3368 0316 FFF7FEFF 		bl	Timer_Animacion_Stop
 842:.\main.c      ****              set_imagen(1,46);				//Muestra imagen de inicio GRP700
 3369              		.loc 1 842 0
 3370 031a 0120     		movs	r0, #1
 3371 031c 2E21     		movs	r1, #46
 3372 031e FFF7FEFF 		bl	set_imagen
 843:.\main.c      **** 	         flujo_LCD1 = 20;	         
 3373              		.loc 1 843 0
 3374 0322 064B     		ldr	r3, .L651
 3375 0324 1422     		movs	r2, #20
 3376 0326 1A70     		strb	r2, [r3]
 844:.\main.c      ****              LCD_1_ClearRxBuffer();	
 3377              		.loc 1 844 0
 3378 0328 FFF7FEFF 		bl	LCD_1_ClearRxBuffer
 845:.\main.c      ****              seleccion_pos = 0;
 3379              		.loc 1 845 0
 3380 032c 0F4B     		ldr	r3, .L651+48
ARM GAS  C:\Users\RECEPC~1\AppData\Local\Temp\cc2OimPl.s 			page 77


 3381 032e 0022     		movs	r2, #0
 3382 0330 1A70     		strb	r2, [r3]
 846:.\main.c      ****          }
 847:.\main.c      ****         break;
 3383              		.loc 1 847 0
 3384 0332 04F05BBB 		b	.L115
 3385              	.L147:
 3386              		.loc 1 847 0 is_stmt 0 discriminator 2
 3387 0336 04F059BB 		b	.L115
 3388              	.L652:
 3389 033a 00BF     		.align	2
 3390              	.L651:
 3391 033c 00000000 		.word	flujo_LCD1
 3392 0340 00000000 		.word	animacion
 3393 0344 00000000 		.word	count_protector
 3394 0348 00000000 		.word	rventa1
 3395 034c 00000000 		.word	rventa2
 3396 0350 00000000 		.word	crc_total
 3397 0354 00000000 		.word	count_teclas1
 3398 0358 00000000 		.word	teclas1
 3399 035c 00000000 		.word	posx1
 3400 0360 00000000 		.word	posy1
 3401 0364 00000000 		.word	sizeletra1
 3402 0368 00000000 		.word	LCD_1_rxBuffer
 3403 036c 00000000 		.word	seleccion_pos
 3404              	.L135:
 848:.\main.c      ****         
 849:.\main.c      ****         case 20:        
 850:.\main.c      **** 	    if(LCD_1_GetRxBufferSize()==8){
 3405              		.loc 1 850 0 is_stmt 1
 3406 0370 FFF7FEFF 		bl	LCD_1_GetRxBufferSize
 3407 0374 0346     		mov	r3, r0
 3408 0376 082B     		cmp	r3, #8
 3409 0378 45D1     		bne	.L148
 851:.\main.c      ****             if((LCD_1_rxBuffer[0]==0xAA) && (LCD_1_rxBuffer[6]==0xC3) && (LCD_1_rxBuffer[7]==0x3C))
 3410              		.loc 1 851 0
 3411 037a BC4B     		ldr	r3, .L653
 3412 037c 1B78     		ldrb	r3, [r3]
 3413 037e DBB2     		uxtb	r3, r3
 3414 0380 AA2B     		cmp	r3, #170
 3415 0382 39D1     		bne	.L149
 3416              		.loc 1 851 0 is_stmt 0 discriminator 1
 3417 0384 B94B     		ldr	r3, .L653
 3418 0386 9B79     		ldrb	r3, [r3, #6]
 3419 0388 DBB2     		uxtb	r3, r3
 3420 038a C32B     		cmp	r3, #195
 3421 038c 34D1     		bne	.L149
 3422              		.loc 1 851 0 discriminator 2
 3423 038e B74B     		ldr	r3, .L653
 3424 0390 DB79     		ldrb	r3, [r3, #7]
 3425 0392 DBB2     		uxtb	r3, r3
 3426 0394 3C2B     		cmp	r3, #60
 3427 0396 2FD1     		bne	.L149
 852:.\main.c      ****                 switch(LCD_1_rxBuffer[3]){
 3428              		.loc 1 852 0 is_stmt 1
 3429 0398 B44B     		ldr	r3, .L653
 3430 039a DB78     		ldrb	r3, [r3, #3]
ARM GAS  C:\Users\RECEPC~1\AppData\Local\Temp\cc2OimPl.s 			page 78


 3431 039c DBB2     		uxtb	r3, r3
 3432 039e 572B     		cmp	r3, #87
 3433 03a0 11D0     		beq	.L150
 3434 03a2 942B     		cmp	r3, #148
 3435 03a4 1DD0     		beq	.L151
 3436 03a6 562B     		cmp	r3, #86
 3437 03a8 26D1     		bne	.L149
 853:.\main.c      **** 			        case 0x56:						        //POS A                                                         
 854:.\main.c      ****                         set_imagen(1,36);           //Inicio opciones GRP 700 POS A
 3438              		.loc 1 854 0
 3439 03aa 0120     		movs	r0, #1
 3440 03ac 2421     		movs	r1, #36
 3441 03ae FFF7FEFF 		bl	set_imagen
 855:.\main.c      ****                         seleccion_pos = 1;
 3442              		.loc 1 855 0
 3443 03b2 AF4B     		ldr	r3, .L653+4
 3444 03b4 0122     		movs	r2, #1
 3445 03b6 1A70     		strb	r2, [r3]
 856:.\main.c      ****                         flujo_LCD1    = 12;  
 3446              		.loc 1 856 0
 3447 03b8 AE4B     		ldr	r3, .L653+8
 3448 03ba 0C22     		movs	r2, #12
 3449 03bc 1A70     		strb	r2, [r3]
 857:.\main.c      ****                         id_teclado1   = 8;
 3450              		.loc 1 857 0
 3451 03be AE4B     		ldr	r3, .L653+12
 3452 03c0 0822     		movs	r2, #8
 3453 03c2 1A70     		strb	r2, [r3]
 858:.\main.c      **** 				    break;
 3454              		.loc 1 858 0
 3455 03c4 18E0     		b	.L149
 3456              	.L150:
 859:.\main.c      ****                         		       
 860:.\main.c      **** 				    case 0x57:  				            //POS B                                                        
 861:.\main.c      ****                         set_imagen(1,36);           //Inicio opciones GRP 700
 3457              		.loc 1 861 0
 3458 03c6 0120     		movs	r0, #1
 3459 03c8 2421     		movs	r1, #36
 3460 03ca FFF7FEFF 		bl	set_imagen
 862:.\main.c      **** 				        seleccion_pos = 2;
 3461              		.loc 1 862 0
 3462 03ce A84B     		ldr	r3, .L653+4
 3463 03d0 0222     		movs	r2, #2
 3464 03d2 1A70     		strb	r2, [r3]
 863:.\main.c      ****                         flujo_LCD1    = 12;  
 3465              		.loc 1 863 0
 3466 03d4 A74B     		ldr	r3, .L653+8
 3467 03d6 0C22     		movs	r2, #12
 3468 03d8 1A70     		strb	r2, [r3]
 864:.\main.c      ****                         id_teclado1   = 8;
 3469              		.loc 1 864 0
 3470 03da A74B     		ldr	r3, .L653+12
 3471 03dc 0822     		movs	r2, #8
 3472 03de 1A70     		strb	r2, [r3]
 865:.\main.c      **** 				    break;
 3473              		.loc 1 865 0
 3474 03e0 0AE0     		b	.L149
ARM GAS  C:\Users\RECEPC~1\AppData\Local\Temp\cc2OimPl.s 			page 79


 3475              	.L151:
 866:.\main.c      ****                     
 867:.\main.c      ****                     case 0x94:  				            //POS B                                            
 868:.\main.c      ****                         set_imagen(1,114);
 3476              		.loc 1 868 0
 3477 03e2 0120     		movs	r0, #1
 3478 03e4 7221     		movs	r1, #114
 3479 03e6 FFF7FEFF 		bl	set_imagen
 869:.\main.c      ****                         seleccion_pos = 1;
 3480              		.loc 1 869 0
 3481 03ea A14B     		ldr	r3, .L653+4
 3482 03ec 0122     		movs	r2, #1
 3483 03ee 1A70     		strb	r2, [r3]
 870:.\main.c      ****                         flujo_LCD1 = 15;
 3484              		.loc 1 870 0
 3485 03f0 A04B     		ldr	r3, .L653+8
 3486 03f2 0F22     		movs	r2, #15
 3487 03f4 1A70     		strb	r2, [r3]
 871:.\main.c      **** 				    break;
 3488              		.loc 1 871 0
 3489 03f6 00BF     		nop
 3490              	.L149:
 872:.\main.c      ****                                                
 873:.\main.c      **** 			    }                                                            
 874:.\main.c      **** 		    }
 875:.\main.c      ****             CyDelay(100);
 3491              		.loc 1 875 0
 3492 03f8 6420     		movs	r0, #100
 3493 03fa FFF7FEFF 		bl	CyDelay
 876:.\main.c      **** 		    LCD_1_ClearRxBuffer();
 3494              		.loc 1 876 0
 3495 03fe FFF7FEFF 		bl	LCD_1_ClearRxBuffer
 877:.\main.c      **** 	    }                                        
 878:.\main.c      ****         break;
 3496              		.loc 1 878 0
 3497 0402 04F0F3BA 		b	.L115
 3498              	.L148:
 3499              		.loc 1 878 0 is_stmt 0 discriminator 3
 3500 0406 04F0F1BA 		b	.L115
 3501              	.L120:
 879:.\main.c      ****         
 880:.\main.c      ****         case 2:
 881:.\main.c      **** 	        if(LCD_1_GetRxBufferSize()==8){
 3502              		.loc 1 881 0 is_stmt 1
 3503 040a FFF7FEFF 		bl	LCD_1_GetRxBufferSize
 3504 040e 0346     		mov	r3, r0
 3505 0410 082B     		cmp	r3, #8
 3506 0412 40F07682 		bne	.L153
 882:.\main.c      **** 	            if((LCD_1_rxBuffer[0]==0xAA) && (LCD_1_rxBuffer[6]==0xC3) && (LCD_1_rxBuffer[7]==0x3C)
 3507              		.loc 1 882 0
 3508 0416 954B     		ldr	r3, .L653
 3509 0418 1B78     		ldrb	r3, [r3]
 3510 041a DBB2     		uxtb	r3, r3
 3511 041c AA2B     		cmp	r3, #170
 3512 041e 40F06982 		bne	.L154
 3513              		.loc 1 882 0 is_stmt 0 discriminator 1
 3514 0422 924B     		ldr	r3, .L653
ARM GAS  C:\Users\RECEPC~1\AppData\Local\Temp\cc2OimPl.s 			page 80


 3515 0424 9B79     		ldrb	r3, [r3, #6]
 3516 0426 DBB2     		uxtb	r3, r3
 3517 0428 C32B     		cmp	r3, #195
 3518 042a 40F06382 		bne	.L154
 3519              		.loc 1 882 0 discriminator 2
 3520 042e 8F4B     		ldr	r3, .L653
 3521 0430 DB79     		ldrb	r3, [r3, #7]
 3522 0432 DBB2     		uxtb	r3, r3
 3523 0434 3C2B     		cmp	r3, #60
 3524 0436 40F05D82 		bne	.L154
 883:.\main.c      ****                     switch(LCD_1_rxBuffer[3]){
 3525              		.loc 1 883 0 is_stmt 1
 3526 043a 8C4B     		ldr	r3, .L653
 3527 043c DB78     		ldrb	r3, [r3, #3]
 3528 043e DBB2     		uxtb	r3, r3
 3529 0440 592B     		cmp	r3, #89
 3530 0442 1AD0     		beq	.L155
 3531 0444 592B     		cmp	r3, #89
 3532 0446 02DC     		bgt	.L156
 3533 0448 452B     		cmp	r3, #69
 3534 044a 0ED0     		beq	.L157
 3535 044c 52E2     		b	.L154
 3536              	.L156:
 3537 044e 5C2B     		cmp	r3, #92
 3538 0450 03D0     		beq	.L158
 3539 0452 7E2B     		cmp	r3, #126
 3540 0454 00F04682 		beq	.L159
 3541 0458 4CE2     		b	.L154
 3542              	.L158:
 884:.\main.c      **** 	                    case 0x5C:                                  //Venta							
 885:.\main.c      **** 							set_imagen(1,73);
 3543              		.loc 1 885 0
 3544 045a 0120     		movs	r0, #1
 3545 045c 4921     		movs	r1, #73
 3546 045e FFF7FEFF 		bl	set_imagen
 886:.\main.c      ****                             flujo_LCD1 = 3;
 3547              		.loc 1 886 0
 3548 0462 844B     		ldr	r3, .L653+8
 3549 0464 0322     		movs	r2, #3
 3550 0466 1A70     		strb	r2, [r3]
 887:.\main.c      **** 	                    break;                
 3551              		.loc 1 887 0
 3552 0468 44E2     		b	.L154
 3553              	.L157:
 888:.\main.c      **** 	                    
 889:.\main.c      **** 	                    case 0x45:								    //Otras opciones
 890:.\main.c      ****                             set_imagen(1,114);
 3554              		.loc 1 890 0
 3555 046a 0120     		movs	r0, #1
 3556 046c 7221     		movs	r1, #114
 3557 046e FFF7FEFF 		bl	set_imagen
 891:.\main.c      ****                             flujo_LCD1 = 15;
 3558              		.loc 1 891 0
 3559 0472 804B     		ldr	r3, .L653+8
 3560 0474 0F22     		movs	r2, #15
 3561 0476 1A70     		strb	r2, [r3]
 892:.\main.c      **** 	                    break; 
ARM GAS  C:\Users\RECEPC~1\AppData\Local\Temp\cc2OimPl.s 			page 81


 3562              		.loc 1 892 0
 3563 0478 3CE2     		b	.L154
 3564              	.L155:
 893:.\main.c      **** 
 894:.\main.c      **** 	                    case 0x59:									//Corte
 895:.\main.c      **** 							set_imagen(1,57);
 3565              		.loc 1 895 0
 3566 047a 0120     		movs	r0, #1
 3567 047c 3921     		movs	r1, #57
 3568 047e FFF7FEFF 		bl	set_imagen
 896:.\main.c      **** 							rf_mod[0]='M';
 3569              		.loc 1 896 0
 3570 0482 7E4B     		ldr	r3, .L653+16
 3571 0484 4D22     		movs	r2, #77
 3572 0486 1A70     		strb	r2, [r3]
 897:.\main.c      **** 							rf_mod[1]='U';
 3573              		.loc 1 897 0
 3574 0488 7C4B     		ldr	r3, .L653+16
 3575 048a 5522     		movs	r2, #85
 3576 048c 5A70     		strb	r2, [r3, #1]
 898:.\main.c      **** 							rf_mod[2]='X';
 3577              		.loc 1 898 0
 3578 048e 7B4B     		ldr	r3, .L653+16
 3579 0490 5822     		movs	r2, #88
 3580 0492 9A70     		strb	r2, [r3, #2]
 899:.\main.c      **** 							rf_mod[3]='2';
 3581              		.loc 1 899 0
 3582 0494 794B     		ldr	r3, .L653+16
 3583 0496 3222     		movs	r2, #50
 3584 0498 DA70     		strb	r2, [r3, #3]
 900:.\main.c      ****                             if(seleccion_pos == 1){
 3585              		.loc 1 900 0
 3586 049a 754B     		ldr	r3, .L653+4
 3587 049c 1B78     		ldrb	r3, [r3]
 3588 049e DBB2     		uxtb	r3, r3
 3589 04a0 012B     		cmp	r3, #1
 3590 04a2 40F01181 		bne	.L160
 901:.\main.c      ****                                 totales(lado1.dir, lado1.mangueras);
 3591              		.loc 1 901 0
 3592 04a6 764B     		ldr	r3, .L653+20
 3593 04a8 1B78     		ldrb	r3, [r3]
 3594 04aa DAB2     		uxtb	r2, r3
 3595 04ac 744B     		ldr	r3, .L653+20
 3596 04ae 93F85C30 		ldrb	r3, [r3, #92]
 3597 04b2 DBB2     		uxtb	r3, r3
 3598 04b4 1046     		mov	r0, r2
 3599 04b6 1946     		mov	r1, r3
 3600 04b8 FFF7FEFF 		bl	totales
 902:.\main.c      ****                                 CyDelay(50);  
 3601              		.loc 1 902 0
 3602 04bc 3220     		movs	r0, #50
 3603 04be FFF7FEFF 		bl	CyDelay
 903:.\main.c      ****                                 x_1=4;
 3604              		.loc 1 903 0
 3605 04c2 0423     		movs	r3, #4
 3606 04c4 87F82D30 		strb	r3, [r7, #45]
 904:.\main.c      ****                                 for(x=0;x<=11;x++){     //volumen_pro1 
ARM GAS  C:\Users\RECEPC~1\AppData\Local\Temp\cc2OimPl.s 			page 82


 3607              		.loc 1 904 0
 3608 04c8 0023     		movs	r3, #0
 3609 04ca 87F82F30 		strb	r3, [r7, #47]
 3610 04ce 18E0     		b	.L161
 3611              	.L162:
 905:.\main.c      ****                                     rf_mod[x_1]=(lado1.totales[0][x]&0X0F)+48;
 3612              		.loc 1 905 0 discriminator 3
 3613 04d0 97F82D30 		ldrb	r3, [r7, #45]	@ zero_extendqisi2
 3614 04d4 97F82F20 		ldrb	r2, [r7, #47]	@ zero_extendqisi2
 3615 04d8 6949     		ldr	r1, .L653+20
 3616 04da 0A44     		add	r2, r2, r1
 3617 04dc 9278     		ldrb	r2, [r2, #2]
 3618 04de D2B2     		uxtb	r2, r2
 3619 04e0 02F00F02 		and	r2, r2, #15
 3620 04e4 D2B2     		uxtb	r2, r2
 3621 04e6 3032     		adds	r2, r2, #48
 3622 04e8 D1B2     		uxtb	r1, r2
 3623 04ea 644A     		ldr	r2, .L653+16
 3624 04ec D154     		strb	r1, [r2, r3]
 906:.\main.c      ****                                     x_1++;
 3625              		.loc 1 906 0 discriminator 3
 3626 04ee 97F82D30 		ldrb	r3, [r7, #45]	@ zero_extendqisi2
 3627 04f2 0133     		adds	r3, r3, #1
 3628 04f4 87F82D30 		strb	r3, [r7, #45]
 904:.\main.c      ****                                 for(x=0;x<=11;x++){     //volumen_pro1 
 3629              		.loc 1 904 0 discriminator 3
 3630 04f8 97F82F30 		ldrb	r3, [r7, #47]	@ zero_extendqisi2
 3631 04fc 0133     		adds	r3, r3, #1
 3632 04fe 87F82F30 		strb	r3, [r7, #47]
 3633              	.L161:
 904:.\main.c      ****                                 for(x=0;x<=11;x++){     //volumen_pro1 
 3634              		.loc 1 904 0 is_stmt 0 discriminator 1
 3635 0502 97F82F30 		ldrb	r3, [r7, #47]	@ zero_extendqisi2
 3636 0506 0B2B     		cmp	r3, #11
 3637 0508 E2D9     		bls	.L162
 907:.\main.c      ****                                 }
 908:.\main.c      ****                                 for(x=12;x<=23;x++){    //dinero_pro1
 3638              		.loc 1 908 0 is_stmt 1
 3639 050a 0C23     		movs	r3, #12
 3640 050c 87F82F30 		strb	r3, [r7, #47]
 3641 0510 18E0     		b	.L163
 3642              	.L164:
 909:.\main.c      ****                                     rf_mod[x_1]=(lado1.totales[0][x]&0X0F)+48;
 3643              		.loc 1 909 0 discriminator 3
 3644 0512 97F82D30 		ldrb	r3, [r7, #45]	@ zero_extendqisi2
 3645 0516 97F82F20 		ldrb	r2, [r7, #47]	@ zero_extendqisi2
 3646 051a 5949     		ldr	r1, .L653+20
 3647 051c 0A44     		add	r2, r2, r1
 3648 051e 9278     		ldrb	r2, [r2, #2]
 3649 0520 D2B2     		uxtb	r2, r2
 3650 0522 02F00F02 		and	r2, r2, #15
 3651 0526 D2B2     		uxtb	r2, r2
 3652 0528 3032     		adds	r2, r2, #48
 3653 052a D1B2     		uxtb	r1, r2
 3654 052c 534A     		ldr	r2, .L653+16
 3655 052e D154     		strb	r1, [r2, r3]
 910:.\main.c      ****                                     x_1++;
ARM GAS  C:\Users\RECEPC~1\AppData\Local\Temp\cc2OimPl.s 			page 83


 3656              		.loc 1 910 0 discriminator 3
 3657 0530 97F82D30 		ldrb	r3, [r7, #45]	@ zero_extendqisi2
 3658 0534 0133     		adds	r3, r3, #1
 3659 0536 87F82D30 		strb	r3, [r7, #45]
 908:.\main.c      ****                                     rf_mod[x_1]=(lado1.totales[0][x]&0X0F)+48;
 3660              		.loc 1 908 0 discriminator 3
 3661 053a 97F82F30 		ldrb	r3, [r7, #47]	@ zero_extendqisi2
 3662 053e 0133     		adds	r3, r3, #1
 3663 0540 87F82F30 		strb	r3, [r7, #47]
 3664              	.L163:
 908:.\main.c      ****                                     rf_mod[x_1]=(lado1.totales[0][x]&0X0F)+48;
 3665              		.loc 1 908 0 is_stmt 0 discriminator 1
 3666 0544 97F82F30 		ldrb	r3, [r7, #47]	@ zero_extendqisi2
 3667 0548 172B     		cmp	r3, #23
 3668 054a E2D9     		bls	.L164
 911:.\main.c      ****                                 }           
 912:.\main.c      ****                                 for(x=0;x<=11;x++){     //volumen_pro2     
 3669              		.loc 1 912 0 is_stmt 1
 3670 054c 0023     		movs	r3, #0
 3671 054e 87F82F30 		strb	r3, [r7, #47]
 3672 0552 18E0     		b	.L165
 3673              	.L166:
 913:.\main.c      ****                                     rf_mod[x_1]=(lado1.totales[1][x]&0X0F)+48;
 3674              		.loc 1 913 0 discriminator 3
 3675 0554 97F82D30 		ldrb	r3, [r7, #45]	@ zero_extendqisi2
 3676 0558 97F82F20 		ldrb	r2, [r7, #47]	@ zero_extendqisi2
 3677 055c 4849     		ldr	r1, .L653+20
 3678 055e 0A44     		add	r2, r2, r1
 3679 0560 927E     		ldrb	r2, [r2, #26]
 3680 0562 D2B2     		uxtb	r2, r2
 3681 0564 02F00F02 		and	r2, r2, #15
 3682 0568 D2B2     		uxtb	r2, r2
 3683 056a 3032     		adds	r2, r2, #48
 3684 056c D1B2     		uxtb	r1, r2
 3685 056e 434A     		ldr	r2, .L653+16
 3686 0570 D154     		strb	r1, [r2, r3]
 914:.\main.c      ****                                     x_1++;
 3687              		.loc 1 914 0 discriminator 3
 3688 0572 97F82D30 		ldrb	r3, [r7, #45]	@ zero_extendqisi2
 3689 0576 0133     		adds	r3, r3, #1
 3690 0578 87F82D30 		strb	r3, [r7, #45]
 912:.\main.c      ****                                     rf_mod[x_1]=(lado1.totales[1][x]&0X0F)+48;
 3691              		.loc 1 912 0 discriminator 3
 3692 057c 97F82F30 		ldrb	r3, [r7, #47]	@ zero_extendqisi2
 3693 0580 0133     		adds	r3, r3, #1
 3694 0582 87F82F30 		strb	r3, [r7, #47]
 3695              	.L165:
 912:.\main.c      ****                                     rf_mod[x_1]=(lado1.totales[1][x]&0X0F)+48;
 3696              		.loc 1 912 0 is_stmt 0 discriminator 1
 3697 0586 97F82F30 		ldrb	r3, [r7, #47]	@ zero_extendqisi2
 3698 058a 0B2B     		cmp	r3, #11
 3699 058c E2D9     		bls	.L166
 915:.\main.c      ****                                 }
 916:.\main.c      ****                                 for(x=12;x<=23;x++){    //dinero_pro2    
 3700              		.loc 1 916 0 is_stmt 1
 3701 058e 0C23     		movs	r3, #12
 3702 0590 87F82F30 		strb	r3, [r7, #47]
ARM GAS  C:\Users\RECEPC~1\AppData\Local\Temp\cc2OimPl.s 			page 84


 3703 0594 18E0     		b	.L167
 3704              	.L168:
 917:.\main.c      ****                                     rf_mod[x_1]=(lado1.totales[1][x]&0X0F)+48;
 3705              		.loc 1 917 0 discriminator 3
 3706 0596 97F82D30 		ldrb	r3, [r7, #45]	@ zero_extendqisi2
 3707 059a 97F82F20 		ldrb	r2, [r7, #47]	@ zero_extendqisi2
 3708 059e 3849     		ldr	r1, .L653+20
 3709 05a0 0A44     		add	r2, r2, r1
 3710 05a2 927E     		ldrb	r2, [r2, #26]
 3711 05a4 D2B2     		uxtb	r2, r2
 3712 05a6 02F00F02 		and	r2, r2, #15
 3713 05aa D2B2     		uxtb	r2, r2
 3714 05ac 3032     		adds	r2, r2, #48
 3715 05ae D1B2     		uxtb	r1, r2
 3716 05b0 324A     		ldr	r2, .L653+16
 3717 05b2 D154     		strb	r1, [r2, r3]
 918:.\main.c      ****                                     x_1++;
 3718              		.loc 1 918 0 discriminator 3
 3719 05b4 97F82D30 		ldrb	r3, [r7, #45]	@ zero_extendqisi2
 3720 05b8 0133     		adds	r3, r3, #1
 3721 05ba 87F82D30 		strb	r3, [r7, #45]
 916:.\main.c      ****                                     rf_mod[x_1]=(lado1.totales[1][x]&0X0F)+48;
 3722              		.loc 1 916 0 discriminator 3
 3723 05be 97F82F30 		ldrb	r3, [r7, #47]	@ zero_extendqisi2
 3724 05c2 0133     		adds	r3, r3, #1
 3725 05c4 87F82F30 		strb	r3, [r7, #47]
 3726              	.L167:
 916:.\main.c      ****                                     rf_mod[x_1]=(lado1.totales[1][x]&0X0F)+48;
 3727              		.loc 1 916 0 is_stmt 0 discriminator 1
 3728 05c8 97F82F30 		ldrb	r3, [r7, #47]	@ zero_extendqisi2
 3729 05cc 172B     		cmp	r3, #23
 3730 05ce E2D9     		bls	.L168
 919:.\main.c      ****                                 }           
 920:.\main.c      ****                                 for(x=0;x<=11;x++){     //volumen_pro3   
 3731              		.loc 1 920 0 is_stmt 1
 3732 05d0 0023     		movs	r3, #0
 3733 05d2 87F82F30 		strb	r3, [r7, #47]
 3734 05d6 19E0     		b	.L169
 3735              	.L170:
 921:.\main.c      ****                                     rf_mod[x_1]=(lado1.totales[2][x]&0X0F)+48;
 3736              		.loc 1 921 0 discriminator 3
 3737 05d8 97F82D30 		ldrb	r3, [r7, #45]	@ zero_extendqisi2
 3738 05dc 97F82F20 		ldrb	r2, [r7, #47]	@ zero_extendqisi2
 3739 05e0 2749     		ldr	r1, .L653+20
 3740 05e2 0A44     		add	r2, r2, r1
 3741 05e4 92F83220 		ldrb	r2, [r2, #50]
 3742 05e8 D2B2     		uxtb	r2, r2
 3743 05ea 02F00F02 		and	r2, r2, #15
 3744 05ee D2B2     		uxtb	r2, r2
 3745 05f0 3032     		adds	r2, r2, #48
 3746 05f2 D1B2     		uxtb	r1, r2
 3747 05f4 214A     		ldr	r2, .L653+16
 3748 05f6 D154     		strb	r1, [r2, r3]
 922:.\main.c      ****                                     x_1++;
 3749              		.loc 1 922 0 discriminator 3
 3750 05f8 97F82D30 		ldrb	r3, [r7, #45]	@ zero_extendqisi2
 3751 05fc 0133     		adds	r3, r3, #1
ARM GAS  C:\Users\RECEPC~1\AppData\Local\Temp\cc2OimPl.s 			page 85


 3752 05fe 87F82D30 		strb	r3, [r7, #45]
 920:.\main.c      ****                                     rf_mod[x_1]=(lado1.totales[2][x]&0X0F)+48;
 3753              		.loc 1 920 0 discriminator 3
 3754 0602 97F82F30 		ldrb	r3, [r7, #47]	@ zero_extendqisi2
 3755 0606 0133     		adds	r3, r3, #1
 3756 0608 87F82F30 		strb	r3, [r7, #47]
 3757              	.L169:
 920:.\main.c      ****                                     rf_mod[x_1]=(lado1.totales[2][x]&0X0F)+48;
 3758              		.loc 1 920 0 is_stmt 0 discriminator 1
 3759 060c 97F82F30 		ldrb	r3, [r7, #47]	@ zero_extendqisi2
 3760 0610 0B2B     		cmp	r3, #11
 3761 0612 E1D9     		bls	.L170
 923:.\main.c      ****                                 }
 924:.\main.c      ****                                 for(x=12;x<=23;x++){    //dinero_pro3    
 3762              		.loc 1 924 0 is_stmt 1
 3763 0614 0C23     		movs	r3, #12
 3764 0616 87F82F30 		strb	r3, [r7, #47]
 3765 061a 19E0     		b	.L171
 3766              	.L172:
 925:.\main.c      ****                                     rf_mod[x_1]=(lado1.totales[2][x]&0X0F)+48;
 3767              		.loc 1 925 0 discriminator 3
 3768 061c 97F82D30 		ldrb	r3, [r7, #45]	@ zero_extendqisi2
 3769 0620 97F82F20 		ldrb	r2, [r7, #47]	@ zero_extendqisi2
 3770 0624 1649     		ldr	r1, .L653+20
 3771 0626 0A44     		add	r2, r2, r1
 3772 0628 92F83220 		ldrb	r2, [r2, #50]
 3773 062c D2B2     		uxtb	r2, r2
 3774 062e 02F00F02 		and	r2, r2, #15
 3775 0632 D2B2     		uxtb	r2, r2
 3776 0634 3032     		adds	r2, r2, #48
 3777 0636 D1B2     		uxtb	r1, r2
 3778 0638 104A     		ldr	r2, .L653+16
 3779 063a D154     		strb	r1, [r2, r3]
 926:.\main.c      ****                                     x_1++;
 3780              		.loc 1 926 0 discriminator 3
 3781 063c 97F82D30 		ldrb	r3, [r7, #45]	@ zero_extendqisi2
 3782 0640 0133     		adds	r3, r3, #1
 3783 0642 87F82D30 		strb	r3, [r7, #45]
 924:.\main.c      ****                                     rf_mod[x_1]=(lado1.totales[2][x]&0X0F)+48;
 3784              		.loc 1 924 0 discriminator 3
 3785 0646 97F82F30 		ldrb	r3, [r7, #47]	@ zero_extendqisi2
 3786 064a 0133     		adds	r3, r3, #1
 3787 064c 87F82F30 		strb	r3, [r7, #47]
 3788              	.L171:
 924:.\main.c      ****                                     rf_mod[x_1]=(lado1.totales[2][x]&0X0F)+48;
 3789              		.loc 1 924 0 is_stmt 0 discriminator 1
 3790 0650 97F82F30 		ldrb	r3, [r7, #47]	@ zero_extendqisi2
 3791 0654 172B     		cmp	r3, #23
 3792 0656 E1D9     		bls	.L172
 927:.\main.c      ****                                 }
 928:.\main.c      ****                                 rf_mod[75]='*';                            
 3793              		.loc 1 928 0 is_stmt 1
 3794 0658 084B     		ldr	r3, .L653+16
 3795 065a 2A22     		movs	r2, #42
 3796 065c 83F84B20 		strb	r2, [r3, #75]
 929:.\main.c      ****                                 PC_ClearRxBuffer();
 3797              		.loc 1 929 0
ARM GAS  C:\Users\RECEPC~1\AppData\Local\Temp\cc2OimPl.s 			page 86


 3798 0660 FFF7FEFF 		bl	PC_ClearRxBuffer
 930:.\main.c      ****     						    for(x=0;x<=75;x++){
 3799              		.loc 1 930 0
 3800 0664 0023     		movs	r3, #0
 3801 0666 87F82F30 		strb	r3, [r7, #47]
 3802 066a 17E0     		b	.L173
 3803              	.L654:
 3804              		.align	2
 3805              	.L653:
 3806 066c 00000000 		.word	LCD_1_rxBuffer
 3807 0670 00000000 		.word	seleccion_pos
 3808 0674 00000000 		.word	flujo_LCD1
 3809 0678 00000000 		.word	id_teclado1
 3810 067c 00000000 		.word	rf_mod
 3811 0680 00000000 		.word	lado1
 3812              	.L174:
 931:.\main.c      ****     							   PC_PutChar(rf_mod[x]);
 3813              		.loc 1 931 0 discriminator 3
 3814 0684 97F82F30 		ldrb	r3, [r7, #47]	@ zero_extendqisi2
 3815 0688 CB4A     		ldr	r2, .L655
 3816 068a D35C     		ldrb	r3, [r2, r3]	@ zero_extendqisi2
 3817 068c 1846     		mov	r0, r3
 3818 068e FFF7FEFF 		bl	PC_PutChar
 930:.\main.c      ****     						    for(x=0;x<=75;x++){
 3819              		.loc 1 930 0 discriminator 3
 3820 0692 97F82F30 		ldrb	r3, [r7, #47]	@ zero_extendqisi2
 3821 0696 0133     		adds	r3, r3, #1
 3822 0698 87F82F30 		strb	r3, [r7, #47]
 3823              	.L173:
 930:.\main.c      ****     						    for(x=0;x<=75;x++){
 3824              		.loc 1 930 0 is_stmt 0 discriminator 1
 3825 069c 97F82F30 		ldrb	r3, [r7, #47]	@ zero_extendqisi2
 3826 06a0 4B2B     		cmp	r3, #75
 3827 06a2 EFD9     		bls	.L174
 932:.\main.c      ****     						    }                                 
 933:.\main.c      ****     							CyDelay(250);                
 3828              		.loc 1 933 0 is_stmt 1
 3829 06a4 FA20     		movs	r0, #250
 3830 06a6 FFF7FEFF 		bl	CyDelay
 934:.\main.c      ****     							if(PC_GetRxBufferSize()>=2){
 3831              		.loc 1 934 0
 3832 06aa FFF7FEFF 		bl	PC_GetRxBufferSize
 3833 06ae 0346     		mov	r3, r0
 3834 06b0 012B     		cmp	r3, #1
 3835 06b2 09D9     		bls	.L160
 935:.\main.c      ****  							        set_imagen(1,74);
 3836              		.loc 1 935 0
 3837 06b4 0120     		movs	r0, #1
 3838 06b6 4A21     		movs	r1, #74
 3839 06b8 FFF7FEFF 		bl	set_imagen
 936:.\main.c      **** 							        flujo_LCD1=0;
 3840              		.loc 1 936 0
 3841 06bc BF4B     		ldr	r3, .L655+4
 3842 06be 0022     		movs	r2, #0
 3843 06c0 1A70     		strb	r2, [r3]
 937:.\main.c      **** 							        lado1.estado=libre;     //Fin de reimpresion                                        
 3844              		.loc 1 937 0
ARM GAS  C:\Users\RECEPC~1\AppData\Local\Temp\cc2OimPl.s 			page 87


 3845 06c2 BF4B     		ldr	r3, .L655+8
 3846 06c4 0122     		movs	r2, #1
 3847 06c6 5A70     		strb	r2, [r3, #1]
 3848              	.L160:
 938:.\main.c      **** 							    }
 939:.\main.c      ****                             }
 940:.\main.c      ****                 			if(seleccion_pos == 2){
 3849              		.loc 1 940 0
 3850 06c8 BE4B     		ldr	r3, .L655+12
 3851 06ca 1B78     		ldrb	r3, [r3]
 3852 06cc DBB2     		uxtb	r3, r3
 3853 06ce 022B     		cmp	r3, #2
 3854 06d0 40F00581 		bne	.L175
 941:.\main.c      ****                                 totales(lado2.dir, lado2.mangueras);
 3855              		.loc 1 941 0
 3856 06d4 BC4B     		ldr	r3, .L655+16
 3857 06d6 1B78     		ldrb	r3, [r3]
 3858 06d8 DAB2     		uxtb	r2, r3
 3859 06da BB4B     		ldr	r3, .L655+16
 3860 06dc 93F85C30 		ldrb	r3, [r3, #92]
 3861 06e0 DBB2     		uxtb	r3, r3
 3862 06e2 1046     		mov	r0, r2
 3863 06e4 1946     		mov	r1, r3
 3864 06e6 FFF7FEFF 		bl	totales
 942:.\main.c      ****                                 CyDelay(50);  
 3865              		.loc 1 942 0
 3866 06ea 3220     		movs	r0, #50
 3867 06ec FFF7FEFF 		bl	CyDelay
 943:.\main.c      ****                                 x_1=4;
 3868              		.loc 1 943 0
 3869 06f0 0423     		movs	r3, #4
 3870 06f2 87F82D30 		strb	r3, [r7, #45]
 944:.\main.c      ****                                 for(x=0;x<=11;x++){     //volumen_pro1 
 3871              		.loc 1 944 0
 3872 06f6 0023     		movs	r3, #0
 3873 06f8 87F82F30 		strb	r3, [r7, #47]
 3874 06fc 18E0     		b	.L176
 3875              	.L177:
 945:.\main.c      ****                                     rf_mod[x_1]=(lado2.totales[0][x]&0X0F)+48;
 3876              		.loc 1 945 0 discriminator 3
 3877 06fe 97F82D30 		ldrb	r3, [r7, #45]	@ zero_extendqisi2
 3878 0702 97F82F20 		ldrb	r2, [r7, #47]	@ zero_extendqisi2
 3879 0706 B049     		ldr	r1, .L655+16
 3880 0708 0A44     		add	r2, r2, r1
 3881 070a 9278     		ldrb	r2, [r2, #2]
 3882 070c D2B2     		uxtb	r2, r2
 3883 070e 02F00F02 		and	r2, r2, #15
 3884 0712 D2B2     		uxtb	r2, r2
 3885 0714 3032     		adds	r2, r2, #48
 3886 0716 D1B2     		uxtb	r1, r2
 3887 0718 A74A     		ldr	r2, .L655
 3888 071a D154     		strb	r1, [r2, r3]
 946:.\main.c      ****                                     x_1++;
 3889              		.loc 1 946 0 discriminator 3
 3890 071c 97F82D30 		ldrb	r3, [r7, #45]	@ zero_extendqisi2
 3891 0720 0133     		adds	r3, r3, #1
 3892 0722 87F82D30 		strb	r3, [r7, #45]
ARM GAS  C:\Users\RECEPC~1\AppData\Local\Temp\cc2OimPl.s 			page 88


 944:.\main.c      ****                                 for(x=0;x<=11;x++){     //volumen_pro1 
 3893              		.loc 1 944 0 discriminator 3
 3894 0726 97F82F30 		ldrb	r3, [r7, #47]	@ zero_extendqisi2
 3895 072a 0133     		adds	r3, r3, #1
 3896 072c 87F82F30 		strb	r3, [r7, #47]
 3897              	.L176:
 944:.\main.c      ****                                 for(x=0;x<=11;x++){     //volumen_pro1 
 3898              		.loc 1 944 0 is_stmt 0 discriminator 1
 3899 0730 97F82F30 		ldrb	r3, [r7, #47]	@ zero_extendqisi2
 3900 0734 0B2B     		cmp	r3, #11
 3901 0736 E2D9     		bls	.L177
 947:.\main.c      ****                                 }
 948:.\main.c      ****                                 for(x=12;x<=23;x++){    //dinero_pro1
 3902              		.loc 1 948 0 is_stmt 1
 3903 0738 0C23     		movs	r3, #12
 3904 073a 87F82F30 		strb	r3, [r7, #47]
 3905 073e 18E0     		b	.L178
 3906              	.L179:
 949:.\main.c      ****                                     rf_mod[x_1]=(lado2.totales[0][x]&0X0F)+48;
 3907              		.loc 1 949 0 discriminator 3
 3908 0740 97F82D30 		ldrb	r3, [r7, #45]	@ zero_extendqisi2
 3909 0744 97F82F20 		ldrb	r2, [r7, #47]	@ zero_extendqisi2
 3910 0748 9F49     		ldr	r1, .L655+16
 3911 074a 0A44     		add	r2, r2, r1
 3912 074c 9278     		ldrb	r2, [r2, #2]
 3913 074e D2B2     		uxtb	r2, r2
 3914 0750 02F00F02 		and	r2, r2, #15
 3915 0754 D2B2     		uxtb	r2, r2
 3916 0756 3032     		adds	r2, r2, #48
 3917 0758 D1B2     		uxtb	r1, r2
 3918 075a 974A     		ldr	r2, .L655
 3919 075c D154     		strb	r1, [r2, r3]
 950:.\main.c      ****                                     x_1++;
 3920              		.loc 1 950 0 discriminator 3
 3921 075e 97F82D30 		ldrb	r3, [r7, #45]	@ zero_extendqisi2
 3922 0762 0133     		adds	r3, r3, #1
 3923 0764 87F82D30 		strb	r3, [r7, #45]
 948:.\main.c      ****                                     rf_mod[x_1]=(lado2.totales[0][x]&0X0F)+48;
 3924              		.loc 1 948 0 discriminator 3
 3925 0768 97F82F30 		ldrb	r3, [r7, #47]	@ zero_extendqisi2
 3926 076c 0133     		adds	r3, r3, #1
 3927 076e 87F82F30 		strb	r3, [r7, #47]
 3928              	.L178:
 948:.\main.c      ****                                     rf_mod[x_1]=(lado2.totales[0][x]&0X0F)+48;
 3929              		.loc 1 948 0 is_stmt 0 discriminator 1
 3930 0772 97F82F30 		ldrb	r3, [r7, #47]	@ zero_extendqisi2
 3931 0776 172B     		cmp	r3, #23
 3932 0778 E2D9     		bls	.L179
 951:.\main.c      ****                                 }           
 952:.\main.c      ****                                 for(x=0;x<=11;x++){     //volumen_pro2     
 3933              		.loc 1 952 0 is_stmt 1
 3934 077a 0023     		movs	r3, #0
 3935 077c 87F82F30 		strb	r3, [r7, #47]
 3936 0780 18E0     		b	.L180
 3937              	.L181:
 953:.\main.c      ****                                     rf_mod[x_1]=(lado2.totales[1][x]&0X0F)+48;
 3938              		.loc 1 953 0 discriminator 3
ARM GAS  C:\Users\RECEPC~1\AppData\Local\Temp\cc2OimPl.s 			page 89


 3939 0782 97F82D30 		ldrb	r3, [r7, #45]	@ zero_extendqisi2
 3940 0786 97F82F20 		ldrb	r2, [r7, #47]	@ zero_extendqisi2
 3941 078a 8F49     		ldr	r1, .L655+16
 3942 078c 0A44     		add	r2, r2, r1
 3943 078e 927E     		ldrb	r2, [r2, #26]
 3944 0790 D2B2     		uxtb	r2, r2
 3945 0792 02F00F02 		and	r2, r2, #15
 3946 0796 D2B2     		uxtb	r2, r2
 3947 0798 3032     		adds	r2, r2, #48
 3948 079a D1B2     		uxtb	r1, r2
 3949 079c 864A     		ldr	r2, .L655
 3950 079e D154     		strb	r1, [r2, r3]
 954:.\main.c      ****                                     x_1++;
 3951              		.loc 1 954 0 discriminator 3
 3952 07a0 97F82D30 		ldrb	r3, [r7, #45]	@ zero_extendqisi2
 3953 07a4 0133     		adds	r3, r3, #1
 3954 07a6 87F82D30 		strb	r3, [r7, #45]
 952:.\main.c      ****                                     rf_mod[x_1]=(lado2.totales[1][x]&0X0F)+48;
 3955              		.loc 1 952 0 discriminator 3
 3956 07aa 97F82F30 		ldrb	r3, [r7, #47]	@ zero_extendqisi2
 3957 07ae 0133     		adds	r3, r3, #1
 3958 07b0 87F82F30 		strb	r3, [r7, #47]
 3959              	.L180:
 952:.\main.c      ****                                     rf_mod[x_1]=(lado2.totales[1][x]&0X0F)+48;
 3960              		.loc 1 952 0 is_stmt 0 discriminator 1
 3961 07b4 97F82F30 		ldrb	r3, [r7, #47]	@ zero_extendqisi2
 3962 07b8 0B2B     		cmp	r3, #11
 3963 07ba E2D9     		bls	.L181
 955:.\main.c      ****                                 }
 956:.\main.c      ****                                 for(x=12;x<=23;x++){    //dinero_pro2    
 3964              		.loc 1 956 0 is_stmt 1
 3965 07bc 0C23     		movs	r3, #12
 3966 07be 87F82F30 		strb	r3, [r7, #47]
 3967 07c2 18E0     		b	.L182
 3968              	.L183:
 957:.\main.c      ****                                     rf_mod[x_1]=(lado2.totales[1][x]&0X0F)+48;
 3969              		.loc 1 957 0 discriminator 3
 3970 07c4 97F82D30 		ldrb	r3, [r7, #45]	@ zero_extendqisi2
 3971 07c8 97F82F20 		ldrb	r2, [r7, #47]	@ zero_extendqisi2
 3972 07cc 7E49     		ldr	r1, .L655+16
 3973 07ce 0A44     		add	r2, r2, r1
 3974 07d0 927E     		ldrb	r2, [r2, #26]
 3975 07d2 D2B2     		uxtb	r2, r2
 3976 07d4 02F00F02 		and	r2, r2, #15
 3977 07d8 D2B2     		uxtb	r2, r2
 3978 07da 3032     		adds	r2, r2, #48
 3979 07dc D1B2     		uxtb	r1, r2
 3980 07de 764A     		ldr	r2, .L655
 3981 07e0 D154     		strb	r1, [r2, r3]
 958:.\main.c      ****                                     x_1++;
 3982              		.loc 1 958 0 discriminator 3
 3983 07e2 97F82D30 		ldrb	r3, [r7, #45]	@ zero_extendqisi2
 3984 07e6 0133     		adds	r3, r3, #1
 3985 07e8 87F82D30 		strb	r3, [r7, #45]
 956:.\main.c      ****                                     rf_mod[x_1]=(lado2.totales[1][x]&0X0F)+48;
 3986              		.loc 1 956 0 discriminator 3
 3987 07ec 97F82F30 		ldrb	r3, [r7, #47]	@ zero_extendqisi2
ARM GAS  C:\Users\RECEPC~1\AppData\Local\Temp\cc2OimPl.s 			page 90


 3988 07f0 0133     		adds	r3, r3, #1
 3989 07f2 87F82F30 		strb	r3, [r7, #47]
 3990              	.L182:
 956:.\main.c      ****                                     rf_mod[x_1]=(lado2.totales[1][x]&0X0F)+48;
 3991              		.loc 1 956 0 is_stmt 0 discriminator 1
 3992 07f6 97F82F30 		ldrb	r3, [r7, #47]	@ zero_extendqisi2
 3993 07fa 172B     		cmp	r3, #23
 3994 07fc E2D9     		bls	.L183
 959:.\main.c      ****                                 }           
 960:.\main.c      ****                                 for(x=0;x<=11;x++){     //volumen_pro3   
 3995              		.loc 1 960 0 is_stmt 1
 3996 07fe 0023     		movs	r3, #0
 3997 0800 87F82F30 		strb	r3, [r7, #47]
 3998 0804 19E0     		b	.L184
 3999              	.L185:
 961:.\main.c      ****                                     rf_mod[x_1]=(lado2.totales[2][x]&0X0F)+48;
 4000              		.loc 1 961 0 discriminator 3
 4001 0806 97F82D30 		ldrb	r3, [r7, #45]	@ zero_extendqisi2
 4002 080a 97F82F20 		ldrb	r2, [r7, #47]	@ zero_extendqisi2
 4003 080e 6E49     		ldr	r1, .L655+16
 4004 0810 0A44     		add	r2, r2, r1
 4005 0812 92F83220 		ldrb	r2, [r2, #50]
 4006 0816 D2B2     		uxtb	r2, r2
 4007 0818 02F00F02 		and	r2, r2, #15
 4008 081c D2B2     		uxtb	r2, r2
 4009 081e 3032     		adds	r2, r2, #48
 4010 0820 D1B2     		uxtb	r1, r2
 4011 0822 654A     		ldr	r2, .L655
 4012 0824 D154     		strb	r1, [r2, r3]
 962:.\main.c      ****                                     x_1++;
 4013              		.loc 1 962 0 discriminator 3
 4014 0826 97F82D30 		ldrb	r3, [r7, #45]	@ zero_extendqisi2
 4015 082a 0133     		adds	r3, r3, #1
 4016 082c 87F82D30 		strb	r3, [r7, #45]
 960:.\main.c      ****                                     rf_mod[x_1]=(lado2.totales[2][x]&0X0F)+48;
 4017              		.loc 1 960 0 discriminator 3
 4018 0830 97F82F30 		ldrb	r3, [r7, #47]	@ zero_extendqisi2
 4019 0834 0133     		adds	r3, r3, #1
 4020 0836 87F82F30 		strb	r3, [r7, #47]
 4021              	.L184:
 960:.\main.c      ****                                     rf_mod[x_1]=(lado2.totales[2][x]&0X0F)+48;
 4022              		.loc 1 960 0 is_stmt 0 discriminator 1
 4023 083a 97F82F30 		ldrb	r3, [r7, #47]	@ zero_extendqisi2
 4024 083e 0B2B     		cmp	r3, #11
 4025 0840 E1D9     		bls	.L185
 963:.\main.c      ****                                 }
 964:.\main.c      ****                                 for(x=12;x<=23;x++){    //dinero_pro3    
 4026              		.loc 1 964 0 is_stmt 1
 4027 0842 0C23     		movs	r3, #12
 4028 0844 87F82F30 		strb	r3, [r7, #47]
 4029 0848 19E0     		b	.L186
 4030              	.L187:
 965:.\main.c      ****                                     rf_mod[x_1]=(lado2.totales[2][x]&0X0F)+48;
 4031              		.loc 1 965 0 discriminator 3
 4032 084a 97F82D30 		ldrb	r3, [r7, #45]	@ zero_extendqisi2
 4033 084e 97F82F20 		ldrb	r2, [r7, #47]	@ zero_extendqisi2
 4034 0852 5D49     		ldr	r1, .L655+16
ARM GAS  C:\Users\RECEPC~1\AppData\Local\Temp\cc2OimPl.s 			page 91


 4035 0854 0A44     		add	r2, r2, r1
 4036 0856 92F83220 		ldrb	r2, [r2, #50]
 4037 085a D2B2     		uxtb	r2, r2
 4038 085c 02F00F02 		and	r2, r2, #15
 4039 0860 D2B2     		uxtb	r2, r2
 4040 0862 3032     		adds	r2, r2, #48
 4041 0864 D1B2     		uxtb	r1, r2
 4042 0866 544A     		ldr	r2, .L655
 4043 0868 D154     		strb	r1, [r2, r3]
 966:.\main.c      ****                                     x_1++;
 4044              		.loc 1 966 0 discriminator 3
 4045 086a 97F82D30 		ldrb	r3, [r7, #45]	@ zero_extendqisi2
 4046 086e 0133     		adds	r3, r3, #1
 4047 0870 87F82D30 		strb	r3, [r7, #45]
 964:.\main.c      ****                                     rf_mod[x_1]=(lado2.totales[2][x]&0X0F)+48;
 4048              		.loc 1 964 0 discriminator 3
 4049 0874 97F82F30 		ldrb	r3, [r7, #47]	@ zero_extendqisi2
 4050 0878 0133     		adds	r3, r3, #1
 4051 087a 87F82F30 		strb	r3, [r7, #47]
 4052              	.L186:
 964:.\main.c      ****                                     rf_mod[x_1]=(lado2.totales[2][x]&0X0F)+48;
 4053              		.loc 1 964 0 is_stmt 0 discriminator 1
 4054 087e 97F82F30 		ldrb	r3, [r7, #47]	@ zero_extendqisi2
 4055 0882 172B     		cmp	r3, #23
 4056 0884 E1D9     		bls	.L187
 967:.\main.c      ****                                 }
 968:.\main.c      ****                                 rf_mod[75]='*';                            
 4057              		.loc 1 968 0 is_stmt 1
 4058 0886 4C4B     		ldr	r3, .L655
 4059 0888 2A22     		movs	r2, #42
 4060 088a 83F84B20 		strb	r2, [r3, #75]
 969:.\main.c      ****                                 PC_ClearRxBuffer();
 4061              		.loc 1 969 0
 4062 088e FFF7FEFF 		bl	PC_ClearRxBuffer
 970:.\main.c      ****     						    for(x=0;x<=75;x++){
 4063              		.loc 1 970 0
 4064 0892 0023     		movs	r3, #0
 4065 0894 87F82F30 		strb	r3, [r7, #47]
 4066 0898 0BE0     		b	.L188
 4067              	.L189:
 971:.\main.c      ****     							   PC_PutChar(rf_mod[x]);
 4068              		.loc 1 971 0 discriminator 3
 4069 089a 97F82F30 		ldrb	r3, [r7, #47]	@ zero_extendqisi2
 4070 089e 464A     		ldr	r2, .L655
 4071 08a0 D35C     		ldrb	r3, [r2, r3]	@ zero_extendqisi2
 4072 08a2 1846     		mov	r0, r3
 4073 08a4 FFF7FEFF 		bl	PC_PutChar
 970:.\main.c      ****     						    for(x=0;x<=75;x++){
 4074              		.loc 1 970 0 discriminator 3
 4075 08a8 97F82F30 		ldrb	r3, [r7, #47]	@ zero_extendqisi2
 4076 08ac 0133     		adds	r3, r3, #1
 4077 08ae 87F82F30 		strb	r3, [r7, #47]
 4078              	.L188:
 970:.\main.c      ****     						    for(x=0;x<=75;x++){
 4079              		.loc 1 970 0 is_stmt 0 discriminator 1
 4080 08b2 97F82F30 		ldrb	r3, [r7, #47]	@ zero_extendqisi2
 4081 08b6 4B2B     		cmp	r3, #75
ARM GAS  C:\Users\RECEPC~1\AppData\Local\Temp\cc2OimPl.s 			page 92


 4082 08b8 EFD9     		bls	.L189
 972:.\main.c      ****     						    }                                 
 973:.\main.c      ****     							CyDelay(250);                
 4083              		.loc 1 973 0 is_stmt 1
 4084 08ba FA20     		movs	r0, #250
 4085 08bc FFF7FEFF 		bl	CyDelay
 974:.\main.c      ****     							if(PC_GetRxBufferSize()>=2){
 4086              		.loc 1 974 0
 4087 08c0 FFF7FEFF 		bl	PC_GetRxBufferSize
 4088 08c4 0346     		mov	r3, r0
 4089 08c6 012B     		cmp	r3, #1
 4090 08c8 09D9     		bls	.L175
 975:.\main.c      ****  							        set_imagen(1,74);
 4091              		.loc 1 975 0
 4092 08ca 0120     		movs	r0, #1
 4093 08cc 4A21     		movs	r1, #74
 4094 08ce FFF7FEFF 		bl	set_imagen
 976:.\main.c      **** 							        flujo_LCD1=0;
 4095              		.loc 1 976 0
 4096 08d2 3A4B     		ldr	r3, .L655+4
 4097 08d4 0022     		movs	r2, #0
 4098 08d6 1A70     		strb	r2, [r3]
 977:.\main.c      **** 							        lado2.estado=libre;     //Fin de reimpresion                                        
 4099              		.loc 1 977 0
 4100 08d8 3B4B     		ldr	r3, .L655+16
 4101 08da 0122     		movs	r2, #1
 4102 08dc 5A70     		strb	r2, [r3, #1]
 4103              	.L175:
 978:.\main.c      **** 							    }
 979:.\main.c      ****                             }                			                                
 980:.\main.c      **** 							PC_ClearRxBuffer();                                                                         
 4104              		.loc 1 980 0
 4105 08de FFF7FEFF 		bl	PC_ClearRxBuffer
 981:.\main.c      **** 	                    break;					
 4106              		.loc 1 981 0
 4107 08e2 07E0     		b	.L154
 4108              	.L159:
 982:.\main.c      **** 						
 983:.\main.c      **** 	                    case 0x7E:									//ir a menu
 984:.\main.c      **** 						  set_imagen(1,74);	
 4109              		.loc 1 984 0
 4110 08e4 0120     		movs	r0, #1
 4111 08e6 4A21     		movs	r1, #74
 4112 08e8 FFF7FEFF 		bl	set_imagen
 985:.\main.c      **** 	                      flujo_LCD1=0;     
 4113              		.loc 1 985 0
 4114 08ec 334B     		ldr	r3, .L655+4
 4115 08ee 0022     		movs	r2, #0
 4116 08f0 1A70     		strb	r2, [r3]
 986:.\main.c      **** 	                    break;					
 4117              		.loc 1 986 0
 4118 08f2 00BF     		nop
 4119              	.L154:
 987:.\main.c      **** 	                }
 988:.\main.c      **** 	            }
 989:.\main.c      **** 	            CyDelay(100);
 4120              		.loc 1 989 0
ARM GAS  C:\Users\RECEPC~1\AppData\Local\Temp\cc2OimPl.s 			page 93


 4121 08f4 6420     		movs	r0, #100
 4122 08f6 FFF7FEFF 		bl	CyDelay
 990:.\main.c      **** 	            LCD_1_ClearRxBuffer();
 4123              		.loc 1 990 0
 4124 08fa FFF7FEFF 		bl	LCD_1_ClearRxBuffer
 991:.\main.c      **** 	        }				
 992:.\main.c      **** 		break;
 4125              		.loc 1 992 0
 4126 08fe 04F075B8 		b	.L115
 4127              	.L153:
 4128              		.loc 1 992 0 is_stmt 0 discriminator 4
 4129 0902 04F073B8 		b	.L115
 4130              	.L121:
 993:.\main.c      ****             
 994:.\main.c      ****          case 3:     
 995:.\main.c      ****          if(LCD_1_GetRxBufferSize()==8){
 4131              		.loc 1 995 0 is_stmt 1
 4132 0906 FFF7FEFF 		bl	LCD_1_GetRxBufferSize
 4133 090a 0346     		mov	r3, r0
 4134 090c 082B     		cmp	r3, #8
 4135 090e 50D1     		bne	.L190
 996:.\main.c      ****             if((LCD_1_rxBuffer[0]==0xAA) && (LCD_1_rxBuffer[6]==0xC3) && (LCD_1_rxBuffer[7]==0x3C))
 4136              		.loc 1 996 0
 4137 0910 2E4B     		ldr	r3, .L655+20
 4138 0912 1B78     		ldrb	r3, [r3]
 4139 0914 DBB2     		uxtb	r3, r3
 4140 0916 AA2B     		cmp	r3, #170
 4141 0918 44D1     		bne	.L191
 4142              		.loc 1 996 0 is_stmt 0 discriminator 1
 4143 091a 2C4B     		ldr	r3, .L655+20
 4144 091c 9B79     		ldrb	r3, [r3, #6]
 4145 091e DBB2     		uxtb	r3, r3
 4146 0920 C32B     		cmp	r3, #195
 4147 0922 3FD1     		bne	.L191
 4148              		.loc 1 996 0 discriminator 2
 4149 0924 294B     		ldr	r3, .L655+20
 4150 0926 DB79     		ldrb	r3, [r3, #7]
 4151 0928 DBB2     		uxtb	r3, r3
 4152 092a 3C2B     		cmp	r3, #60
 4153 092c 3AD1     		bne	.L191
 997:.\main.c      ****                 switch(LCD_1_rxBuffer[3]){
 4154              		.loc 1 997 0 is_stmt 1
 4155 092e 274B     		ldr	r3, .L655+20
 4156 0930 DB78     		ldrb	r3, [r3, #3]
 4157 0932 DBB2     		uxtb	r3, r3
 4158 0934 5F2B     		cmp	r3, #95
 4159 0936 09D0     		beq	.L192
 4160 0938 5F2B     		cmp	r3, #95
 4161 093a 02DC     		bgt	.L193
 4162 093c 5E2B     		cmp	r3, #94
 4163 093e 13D0     		beq	.L194
 4164 0940 30E0     		b	.L191
 4165              	.L193:
 4166 0942 7E2B     		cmp	r3, #126
 4167 0944 1ED0     		beq	.L195
 4168 0946 942B     		cmp	r3, #148
 4169 0948 24D0     		beq	.L196
ARM GAS  C:\Users\RECEPC~1\AppData\Local\Temp\cc2OimPl.s 			page 94


 4170 094a 2BE0     		b	.L191
 4171              	.L192:
 998:.\main.c      ****                     case 0x5F:							//Sin ID	                                                     
 999:.\main.c      ****                       set_imagen(1,18);                 //Pasa a pantalla de tipo de venta viejo:5
 4172              		.loc 1 999 0
 4173 094c 0120     		movs	r0, #1
 4174 094e 1221     		movs	r1, #18
 4175 0950 FFF7FEFF 		bl	set_imagen
1000:.\main.c      ****                       tipo_venta = 0;
 4176              		.loc 1 1000 0
 4177 0954 1E4B     		ldr	r3, .L655+24
 4178 0956 0022     		movs	r2, #0
 4179 0958 1A70     		strb	r2, [r3]
1001:.\main.c      ****                       id_teclado1 = 8;
 4180              		.loc 1 1001 0
 4181 095a 1E4B     		ldr	r3, .L655+28
 4182 095c 0822     		movs	r2, #8
 4183 095e 1A70     		strb	r2, [r3]
1002:.\main.c      ****                       flujo_LCD1 = 11;                 // viejo: 4
 4184              		.loc 1 1002 0
 4185 0960 164B     		ldr	r3, .L655+4
 4186 0962 0B22     		movs	r2, #11
 4187 0964 1A70     		strb	r2, [r3]
1003:.\main.c      ****                     break;
 4188              		.loc 1 1003 0
 4189 0966 1DE0     		b	.L191
 4190              	.L194:
1004:.\main.c      ****                     
1005:.\main.c      ****                     case 0x5E:  						//Con ID                                         
1006:.\main.c      ****                       set_imagen(1,18);
 4191              		.loc 1 1006 0
 4192 0968 0120     		movs	r0, #1
 4193 096a 1221     		movs	r1, #18
 4194 096c FFF7FEFF 		bl	set_imagen
1007:.\main.c      ****                       tipo_venta = 1;
 4195              		.loc 1 1007 0
 4196 0970 174B     		ldr	r3, .L655+24
 4197 0972 0122     		movs	r2, #1
 4198 0974 1A70     		strb	r2, [r3]
1008:.\main.c      ****                       flujo_LCD1 = 11;
 4199              		.loc 1 1008 0
 4200 0976 114B     		ldr	r3, .L655+4
 4201 0978 0B22     		movs	r2, #11
 4202 097a 1A70     		strb	r2, [r3]
1009:.\main.c      ****                       id_teclado1 = 0;
 4203              		.loc 1 1009 0
 4204 097c 154B     		ldr	r3, .L655+28
 4205 097e 0022     		movs	r2, #0
 4206 0980 1A70     		strb	r2, [r3]
1010:.\main.c      ****                     break;	
 4207              		.loc 1 1010 0
 4208 0982 0FE0     		b	.L191
 4209              	.L195:
1011:.\main.c      **** 
1012:.\main.c      ****                     case 0x7E:						    //ir a menu
1013:.\main.c      **** 					  set_imagen(1,74);	
 4210              		.loc 1 1013 0
ARM GAS  C:\Users\RECEPC~1\AppData\Local\Temp\cc2OimPl.s 			page 95


 4211 0984 0120     		movs	r0, #1
 4212 0986 4A21     		movs	r1, #74
 4213 0988 FFF7FEFF 		bl	set_imagen
1014:.\main.c      ****                       flujo_LCD1 = 0;     
 4214              		.loc 1 1014 0
 4215 098c 0B4B     		ldr	r3, .L655+4
 4216 098e 0022     		movs	r2, #0
 4217 0990 1A70     		strb	r2, [r3]
1015:.\main.c      ****                     break;	
 4218              		.loc 1 1015 0
 4219 0992 07E0     		b	.L191
 4220              	.L196:
1016:.\main.c      ****                     
1017:.\main.c      ****                     case 0x94:
1018:.\main.c      ****                         set_imagen(1,99); //Regreso a pantalla de opcion de venta
 4221              		.loc 1 1018 0
 4222 0994 0120     		movs	r0, #1
 4223 0996 6321     		movs	r1, #99
 4224 0998 FFF7FEFF 		bl	set_imagen
1019:.\main.c      ****                         flujo_LCD1 = 1;
 4225              		.loc 1 1019 0
 4226 099c 074B     		ldr	r3, .L655+4
 4227 099e 0122     		movs	r2, #1
 4228 09a0 1A70     		strb	r2, [r3]
1020:.\main.c      ****                     break;
 4229              		.loc 1 1020 0
 4230 09a2 00BF     		nop
 4231              	.L191:
1021:.\main.c      ****                 }
1022:.\main.c      ****             }
1023:.\main.c      ****             CyDelay(100);
 4232              		.loc 1 1023 0
 4233 09a4 6420     		movs	r0, #100
 4234 09a6 FFF7FEFF 		bl	CyDelay
1024:.\main.c      ****             LCD_1_ClearRxBuffer();
 4235              		.loc 1 1024 0
 4236 09aa FFF7FEFF 		bl	LCD_1_ClearRxBuffer
1025:.\main.c      ****         }        
1026:.\main.c      ****         break;    
 4237              		.loc 1 1026 0
 4238 09ae 04F01DB8 		b	.L115
 4239              	.L190:
 4240              		.loc 1 1026 0 is_stmt 0 discriminator 5
 4241 09b2 04F01BB8 		b	.L115
 4242              	.L656:
 4243 09b6 00BF     		.align	2
 4244              	.L655:
 4245 09b8 00000000 		.word	rf_mod
 4246 09bc 00000000 		.word	flujo_LCD1
 4247 09c0 00000000 		.word	lado1
 4248 09c4 00000000 		.word	seleccion_pos
 4249 09c8 00000000 		.word	lado2
 4250 09cc 00000000 		.word	LCD_1_rxBuffer
 4251 09d0 00000000 		.word	tipo_venta
 4252 09d4 00000000 		.word	id_teclado1
 4253              	.L122:
1027:.\main.c      ****             
ARM GAS  C:\Users\RECEPC~1\AppData\Local\Temp\cc2OimPl.s 			page 96


1028:.\main.c      ****         case 4:
1029:.\main.c      ****          if(LCD_1_GetRxBufferSize()==8){
 4254              		.loc 1 1029 0 is_stmt 1
 4255 09d8 FFF7FEFF 		bl	LCD_1_GetRxBufferSize
 4256 09dc 0346     		mov	r3, r0
 4257 09de 082B     		cmp	r3, #8
 4258 09e0 40F0DE81 		bne	.L197
1030:.\main.c      ****             if((LCD_1_rxBuffer[0]==0xAA) && (LCD_1_rxBuffer[6]==0xC3) && (LCD_1_rxBuffer[7]==0x3C))
 4259              		.loc 1 1030 0
 4260 09e4 BD4B     		ldr	r3, .L657
 4261 09e6 1B78     		ldrb	r3, [r3]
 4262 09e8 DBB2     		uxtb	r3, r3
 4263 09ea AA2B     		cmp	r3, #170
 4264 09ec 40F0D181 		bne	.L198
 4265              		.loc 1 1030 0 is_stmt 0 discriminator 1
 4266 09f0 BA4B     		ldr	r3, .L657
 4267 09f2 9B79     		ldrb	r3, [r3, #6]
 4268 09f4 DBB2     		uxtb	r3, r3
 4269 09f6 C32B     		cmp	r3, #195
 4270 09f8 40F0CB81 		bne	.L198
 4271              		.loc 1 1030 0 discriminator 2
 4272 09fc B74B     		ldr	r3, .L657
 4273 09fe DB79     		ldrb	r3, [r3, #7]
 4274 0a00 DBB2     		uxtb	r3, r3
 4275 0a02 3C2B     		cmp	r3, #60
 4276 0a04 40F0C581 		bne	.L198
1031:.\main.c      ****                 switch(LCD_1_rxBuffer[3]){
 4277              		.loc 1 1031 0 is_stmt 1
 4278 0a08 B44B     		ldr	r3, .L657
 4279 0a0a DB78     		ldrb	r3, [r3, #3]
 4280 0a0c DBB2     		uxtb	r3, r3
 4281 0a0e 3B2B     		cmp	r3, #59
 4282 0a10 00F0B381 		beq	.L199
 4283 0a14 3B2B     		cmp	r3, #59
 4284 0a16 05DC     		bgt	.L200
 4285 0a18 0F2B     		cmp	r3, #15
 4286 0a1a 0AD0     		beq	.L201
 4287 0a1c 102B     		cmp	r3, #16
 4288 0a1e 00F09280 		beq	.L202
 4289 0a22 B6E1     		b	.L198
 4290              	.L200:
 4291 0a24 432B     		cmp	r3, #67
 4292 0a26 00F01881 		beq	.L203
 4293 0a2a 7E2B     		cmp	r3, #126
 4294 0a2c 00F0A981 		beq	.L204
 4295 0a30 AFE1     		b	.L198
 4296              	.L201:
1032:.\main.c      ****                     case 0x0F:                               	//$
1033:.\main.c      ****                     if(seleccion_pos == 1){
 4297              		.loc 1 1033 0
 4298 0a32 AB4B     		ldr	r3, .L657+4
 4299 0a34 1B78     		ldrb	r3, [r3]
 4300 0a36 DBB2     		uxtb	r3, r3
 4301 0a38 012B     		cmp	r3, #1
 4302 0a3a 3ED1     		bne	.L205
1034:.\main.c      **** 					  for(x=0;x<=7;x++){
 4303              		.loc 1 1034 0
ARM GAS  C:\Users\RECEPC~1\AppData\Local\Temp\cc2OimPl.s 			page 97


 4304 0a3c 0023     		movs	r3, #0
 4305 0a3e 87F82F30 		strb	r3, [r7, #47]
 4306 0a42 0AE0     		b	.L206
 4307              	.L207:
1035:.\main.c      **** 					 	rventa1.preset[x]=0;
 4308              		.loc 1 1035 0 discriminator 3
 4309 0a44 97F82F30 		ldrb	r3, [r7, #47]	@ zero_extendqisi2
 4310 0a48 A64A     		ldr	r2, .L657+8
 4311 0a4a 1344     		add	r3, r3, r2
 4312 0a4c 0022     		movs	r2, #0
 4313 0a4e DA76     		strb	r2, [r3, #27]
1034:.\main.c      **** 					  for(x=0;x<=7;x++){
 4314              		.loc 1 1034 0 discriminator 3
 4315 0a50 97F82F30 		ldrb	r3, [r7, #47]	@ zero_extendqisi2
 4316 0a54 0133     		adds	r3, r3, #1
 4317 0a56 87F82F30 		strb	r3, [r7, #47]
 4318              	.L206:
1034:.\main.c      **** 					  for(x=0;x<=7;x++){
 4319              		.loc 1 1034 0 is_stmt 0 discriminator 1
 4320 0a5a 97F82F30 		ldrb	r3, [r7, #47]	@ zero_extendqisi2
 4321 0a5e 072B     		cmp	r3, #7
 4322 0a60 F0D9     		bls	.L207
1036:.\main.c      **** 					  }					                      
1037:.\main.c      **** 					  count_teclas1=0;							//Inicia el contador de teclas	
 4323              		.loc 1 1037 0 is_stmt 1
 4324 0a62 A14B     		ldr	r3, .L657+12
 4325 0a64 0022     		movs	r2, #0
 4326 0a66 1A70     		strb	r2, [r3]
1038:.\main.c      **** 					  id_teclado1=1;
 4327              		.loc 1 1038 0
 4328 0a68 A04B     		ldr	r3, .L657+16
 4329 0a6a 0122     		movs	r2, #1
 4330 0a6c 1A70     		strb	r2, [r3]
1039:.\main.c      **** 					  id_coma1=',';	
 4331              		.loc 1 1039 0
 4332 0a6e A04B     		ldr	r3, .L657+20
 4333 0a70 2C22     		movs	r2, #44
 4334 0a72 1A70     		strb	r2, [r3]
1040:.\main.c      ****                       teclas1=version[1]; 						//cantidad de teclas q puede digitar
 4335              		.loc 1 1040 0
 4336 0a74 9F4B     		ldr	r3, .L657+24
 4337 0a76 5B78     		ldrb	r3, [r3, #1]
 4338 0a78 DAB2     		uxtb	r2, r3
 4339 0a7a 9F4B     		ldr	r3, .L657+28
 4340 0a7c 1A70     		strb	r2, [r3]
1041:.\main.c      **** 					  rventa1.preset[0]=1;
 4341              		.loc 1 1041 0
 4342 0a7e 994B     		ldr	r3, .L657+8
 4343 0a80 0122     		movs	r2, #1
 4344 0a82 DA76     		strb	r2, [r3, #27]
1042:.\main.c      ****                       comas1=0;									
 4345              		.loc 1 1042 0
 4346 0a84 9D4B     		ldr	r3, .L657+32
 4347 0a86 0022     		movs	r2, #0
 4348 0a88 1A70     		strb	r2, [r3]
1043:.\main.c      ****                       set_imagen(1,6); 
 4349              		.loc 1 1043 0
ARM GAS  C:\Users\RECEPC~1\AppData\Local\Temp\cc2OimPl.s 			page 98


 4350 0a8a 0120     		movs	r0, #1
 4351 0a8c 0621     		movs	r1, #6
 4352 0a8e FFF7FEFF 		bl	set_imagen
1044:.\main.c      **** 					  posx1=4;
 4353              		.loc 1 1044 0
 4354 0a92 9B4B     		ldr	r3, .L657+36
 4355 0a94 0422     		movs	r2, #4
 4356 0a96 1A80     		strh	r2, [r3]	@ movhi
1045:.\main.c      **** 					  posy1=3;
 4357              		.loc 1 1045 0
 4358 0a98 9A4B     		ldr	r3, .L657+40
 4359 0a9a 0322     		movs	r2, #3
 4360 0a9c 1A80     		strh	r2, [r3]	@ movhi
1046:.\main.c      **** 					  sizeletra1=1;	
 4361              		.loc 1 1046 0
 4362 0a9e 9A4B     		ldr	r3, .L657+44
 4363 0aa0 0122     		movs	r2, #1
 4364 0aa2 1A80     		strh	r2, [r3]	@ movhi
1047:.\main.c      **** 					  write_LCD(1,'$', 3, 4, 1);
 4365              		.loc 1 1047 0
 4366 0aa4 0123     		movs	r3, #1
 4367 0aa6 0093     		str	r3, [sp]
 4368 0aa8 0120     		movs	r0, #1
 4369 0aaa 2421     		movs	r1, #36
 4370 0aac 0322     		movs	r2, #3
 4371 0aae 0423     		movs	r3, #4
 4372 0ab0 FFF7FEFF 		bl	write_LCD
1048:.\main.c      ****                       flujo_LCD1 = 12; 
 4373              		.loc 1 1048 0
 4374 0ab4 954B     		ldr	r3, .L657+48
 4375 0ab6 0C22     		movs	r2, #12
 4376 0ab8 1A70     		strb	r2, [r3]
 4377              	.L205:
1049:.\main.c      ****                     }
1050:.\main.c      ****                     if(seleccion_pos == 2){
 4378              		.loc 1 1050 0
 4379 0aba 894B     		ldr	r3, .L657+4
 4380 0abc 1B78     		ldrb	r3, [r3]
 4381 0abe DBB2     		uxtb	r3, r3
 4382 0ac0 022B     		cmp	r3, #2
 4383 0ac2 3FD1     		bne	.L208
1051:.\main.c      **** 					  for(x=0;x<=7;x++){
 4384              		.loc 1 1051 0
 4385 0ac4 0023     		movs	r3, #0
 4386 0ac6 87F82F30 		strb	r3, [r7, #47]
 4387 0aca 0AE0     		b	.L209
 4388              	.L210:
1052:.\main.c      **** 					 	rventa2.preset[x]=0;
 4389              		.loc 1 1052 0 discriminator 3
 4390 0acc 97F82F30 		ldrb	r3, [r7, #47]	@ zero_extendqisi2
 4391 0ad0 8F4A     		ldr	r2, .L657+52
 4392 0ad2 1344     		add	r3, r3, r2
 4393 0ad4 0022     		movs	r2, #0
 4394 0ad6 DA76     		strb	r2, [r3, #27]
1051:.\main.c      **** 					  for(x=0;x<=7;x++){
 4395              		.loc 1 1051 0 discriminator 3
 4396 0ad8 97F82F30 		ldrb	r3, [r7, #47]	@ zero_extendqisi2
ARM GAS  C:\Users\RECEPC~1\AppData\Local\Temp\cc2OimPl.s 			page 99


 4397 0adc 0133     		adds	r3, r3, #1
 4398 0ade 87F82F30 		strb	r3, [r7, #47]
 4399              	.L209:
1051:.\main.c      **** 					  for(x=0;x<=7;x++){
 4400              		.loc 1 1051 0 is_stmt 0 discriminator 1
 4401 0ae2 97F82F30 		ldrb	r3, [r7, #47]	@ zero_extendqisi2
 4402 0ae6 072B     		cmp	r3, #7
 4403 0ae8 F0D9     		bls	.L210
1053:.\main.c      **** 					  }					                      
1054:.\main.c      **** 					  count_teclas1=0;							//Inicia el contador de teclas	
 4404              		.loc 1 1054 0 is_stmt 1
 4405 0aea 7F4B     		ldr	r3, .L657+12
 4406 0aec 0022     		movs	r2, #0
 4407 0aee 1A70     		strb	r2, [r3]
1055:.\main.c      **** 					  id_teclado1=1;
 4408              		.loc 1 1055 0
 4409 0af0 7E4B     		ldr	r3, .L657+16
 4410 0af2 0122     		movs	r2, #1
 4411 0af4 1A70     		strb	r2, [r3]
1056:.\main.c      **** 					  id_coma1=',';	
 4412              		.loc 1 1056 0
 4413 0af6 7E4B     		ldr	r3, .L657+20
 4414 0af8 2C22     		movs	r2, #44
 4415 0afa 1A70     		strb	r2, [r3]
1057:.\main.c      ****                       teclas1=version[1]; 						//cantidad de teclas q puede digitar
 4416              		.loc 1 1057 0
 4417 0afc 7D4B     		ldr	r3, .L657+24
 4418 0afe 5B78     		ldrb	r3, [r3, #1]
 4419 0b00 DAB2     		uxtb	r2, r3
 4420 0b02 7D4B     		ldr	r3, .L657+28
 4421 0b04 1A70     		strb	r2, [r3]
1058:.\main.c      **** 					  rventa2.preset[0]=1;
 4422              		.loc 1 1058 0
 4423 0b06 824B     		ldr	r3, .L657+52
 4424 0b08 0122     		movs	r2, #1
 4425 0b0a DA76     		strb	r2, [r3, #27]
1059:.\main.c      ****                       comas1=0;									
 4426              		.loc 1 1059 0
 4427 0b0c 7B4B     		ldr	r3, .L657+32
 4428 0b0e 0022     		movs	r2, #0
 4429 0b10 1A70     		strb	r2, [r3]
1060:.\main.c      ****                       set_imagen(1,6); 
 4430              		.loc 1 1060 0
 4431 0b12 0120     		movs	r0, #1
 4432 0b14 0621     		movs	r1, #6
 4433 0b16 FFF7FEFF 		bl	set_imagen
1061:.\main.c      **** 					  posx1=4;
 4434              		.loc 1 1061 0
 4435 0b1a 794B     		ldr	r3, .L657+36
 4436 0b1c 0422     		movs	r2, #4
 4437 0b1e 1A80     		strh	r2, [r3]	@ movhi
1062:.\main.c      **** 					  posy1=3;
 4438              		.loc 1 1062 0
 4439 0b20 784B     		ldr	r3, .L657+40
 4440 0b22 0322     		movs	r2, #3
 4441 0b24 1A80     		strh	r2, [r3]	@ movhi
1063:.\main.c      **** 					  sizeletra1=1;	
ARM GAS  C:\Users\RECEPC~1\AppData\Local\Temp\cc2OimPl.s 			page 100


 4442              		.loc 1 1063 0
 4443 0b26 784B     		ldr	r3, .L657+44
 4444 0b28 0122     		movs	r2, #1
 4445 0b2a 1A80     		strh	r2, [r3]	@ movhi
1064:.\main.c      **** 					  write_LCD(1,'$', 3, 4, 1);
 4446              		.loc 1 1064 0
 4447 0b2c 0123     		movs	r3, #1
 4448 0b2e 0093     		str	r3, [sp]
 4449 0b30 0120     		movs	r0, #1
 4450 0b32 2421     		movs	r1, #36
 4451 0b34 0322     		movs	r2, #3
 4452 0b36 0423     		movs	r3, #4
 4453 0b38 FFF7FEFF 		bl	write_LCD
1065:.\main.c      ****                       flujo_LCD1 = 12; 
 4454              		.loc 1 1065 0
 4455 0b3c 734B     		ldr	r3, .L657+48
 4456 0b3e 0C22     		movs	r2, #12
 4457 0b40 1A70     		strb	r2, [r3]
1066:.\main.c      ****                     }
1067:.\main.c      ****                     break;
 4458              		.loc 1 1067 0
 4459 0b42 26E1     		b	.L198
 4460              	.L208:
 4461 0b44 25E1     		b	.L198
 4462              	.L202:
1068:.\main.c      ****                     
1069:.\main.c      ****                     case 0x10: 									//L 
1070:.\main.c      ****                     if(seleccion_pos == 1){
 4463              		.loc 1 1070 0
 4464 0b46 664B     		ldr	r3, .L657+4
 4465 0b48 1B78     		ldrb	r3, [r3]
 4466 0b4a DBB2     		uxtb	r3, r3
 4467 0b4c 012B     		cmp	r3, #1
 4468 0b4e 3ED1     		bne	.L211
1071:.\main.c      **** 					  for(x=0;x<=7;x++){
 4469              		.loc 1 1071 0
 4470 0b50 0023     		movs	r3, #0
 4471 0b52 87F82F30 		strb	r3, [r7, #47]
 4472 0b56 0AE0     		b	.L212
 4473              	.L213:
1072:.\main.c      **** 					 	rventa1.preset[x]=0;
 4474              		.loc 1 1072 0 discriminator 3
 4475 0b58 97F82F30 		ldrb	r3, [r7, #47]	@ zero_extendqisi2
 4476 0b5c 614A     		ldr	r2, .L657+8
 4477 0b5e 1344     		add	r3, r3, r2
 4478 0b60 0022     		movs	r2, #0
 4479 0b62 DA76     		strb	r2, [r3, #27]
1071:.\main.c      **** 					  for(x=0;x<=7;x++){
 4480              		.loc 1 1071 0 discriminator 3
 4481 0b64 97F82F30 		ldrb	r3, [r7, #47]	@ zero_extendqisi2
 4482 0b68 0133     		adds	r3, r3, #1
 4483 0b6a 87F82F30 		strb	r3, [r7, #47]
 4484              	.L212:
1071:.\main.c      **** 					  for(x=0;x<=7;x++){
 4485              		.loc 1 1071 0 is_stmt 0 discriminator 1
 4486 0b6e 97F82F30 		ldrb	r3, [r7, #47]	@ zero_extendqisi2
 4487 0b72 072B     		cmp	r3, #7
ARM GAS  C:\Users\RECEPC~1\AppData\Local\Temp\cc2OimPl.s 			page 101


 4488 0b74 F0D9     		bls	.L213
1073:.\main.c      **** 					  }						                      
1074:.\main.c      **** 					  count_teclas1=0;							//Inicia el contador de teclas	
 4489              		.loc 1 1074 0 is_stmt 1
 4490 0b76 5C4B     		ldr	r3, .L657+12
 4491 0b78 0022     		movs	r2, #0
 4492 0b7a 1A70     		strb	r2, [r3]
1075:.\main.c      **** 					  id_teclado1=1;
 4493              		.loc 1 1075 0
 4494 0b7c 5B4B     		ldr	r3, .L657+16
 4495 0b7e 0122     		movs	r2, #1
 4496 0b80 1A70     		strb	r2, [r3]
1076:.\main.c      **** 					  id_coma1=',';	
 4497              		.loc 1 1076 0
 4498 0b82 5B4B     		ldr	r3, .L657+20
 4499 0b84 2C22     		movs	r2, #44
 4500 0b86 1A70     		strb	r2, [r3]
1077:.\main.c      ****                       teclas1=version[1]; 
 4501              		.loc 1 1077 0
 4502 0b88 5A4B     		ldr	r3, .L657+24
 4503 0b8a 5B78     		ldrb	r3, [r3, #1]
 4504 0b8c DAB2     		uxtb	r2, r3
 4505 0b8e 5A4B     		ldr	r3, .L657+28
 4506 0b90 1A70     		strb	r2, [r3]
1078:.\main.c      **** 					  rventa1.preset[0]=2;
 4507              		.loc 1 1078 0
 4508 0b92 544B     		ldr	r3, .L657+8
 4509 0b94 0222     		movs	r2, #2
 4510 0b96 DA76     		strb	r2, [r3, #27]
1079:.\main.c      ****                       comas1=0;									
 4511              		.loc 1 1079 0
 4512 0b98 584B     		ldr	r3, .L657+32
 4513 0b9a 0022     		movs	r2, #0
 4514 0b9c 1A70     		strb	r2, [r3]
1080:.\main.c      ****                       set_imagen(1,13); 
 4515              		.loc 1 1080 0
 4516 0b9e 0120     		movs	r0, #1
 4517 0ba0 0D21     		movs	r1, #13
 4518 0ba2 FFF7FEFF 		bl	set_imagen
1081:.\main.c      **** 					  posx1=4;
 4519              		.loc 1 1081 0
 4520 0ba6 564B     		ldr	r3, .L657+36
 4521 0ba8 0422     		movs	r2, #4
 4522 0baa 1A80     		strh	r2, [r3]	@ movhi
1082:.\main.c      **** 					  posy1=3;
 4523              		.loc 1 1082 0
 4524 0bac 554B     		ldr	r3, .L657+40
 4525 0bae 0322     		movs	r2, #3
 4526 0bb0 1A80     		strh	r2, [r3]	@ movhi
1083:.\main.c      **** 					  sizeletra1=1;					
 4527              		.loc 1 1083 0
 4528 0bb2 554B     		ldr	r3, .L657+44
 4529 0bb4 0122     		movs	r2, #1
 4530 0bb6 1A80     		strh	r2, [r3]	@ movhi
1084:.\main.c      **** 					  write_LCD(1,'L', 3, 4, 1);
 4531              		.loc 1 1084 0
 4532 0bb8 0123     		movs	r3, #1
ARM GAS  C:\Users\RECEPC~1\AppData\Local\Temp\cc2OimPl.s 			page 102


 4533 0bba 0093     		str	r3, [sp]
 4534 0bbc 0120     		movs	r0, #1
 4535 0bbe 4C21     		movs	r1, #76
 4536 0bc0 0322     		movs	r2, #3
 4537 0bc2 0423     		movs	r3, #4
 4538 0bc4 FFF7FEFF 		bl	write_LCD
1085:.\main.c      ****                       flujo_LCD1=12; 
 4539              		.loc 1 1085 0
 4540 0bc8 504B     		ldr	r3, .L657+48
 4541 0bca 0C22     		movs	r2, #12
 4542 0bcc 1A70     		strb	r2, [r3]
 4543              	.L211:
1086:.\main.c      ****                     }
1087:.\main.c      ****                     if(seleccion_pos == 2){
 4544              		.loc 1 1087 0
 4545 0bce 444B     		ldr	r3, .L657+4
 4546 0bd0 1B78     		ldrb	r3, [r3]
 4547 0bd2 DBB2     		uxtb	r3, r3
 4548 0bd4 022B     		cmp	r3, #2
 4549 0bd6 3FD1     		bne	.L214
1088:.\main.c      **** 					  for(x=0;x<=7;x++){
 4550              		.loc 1 1088 0
 4551 0bd8 0023     		movs	r3, #0
 4552 0bda 87F82F30 		strb	r3, [r7, #47]
 4553 0bde 0AE0     		b	.L215
 4554              	.L216:
1089:.\main.c      **** 					 	rventa1.preset[x]=0;
 4555              		.loc 1 1089 0 discriminator 3
 4556 0be0 97F82F30 		ldrb	r3, [r7, #47]	@ zero_extendqisi2
 4557 0be4 3F4A     		ldr	r2, .L657+8
 4558 0be6 1344     		add	r3, r3, r2
 4559 0be8 0022     		movs	r2, #0
 4560 0bea DA76     		strb	r2, [r3, #27]
1088:.\main.c      **** 					  for(x=0;x<=7;x++){
 4561              		.loc 1 1088 0 discriminator 3
 4562 0bec 97F82F30 		ldrb	r3, [r7, #47]	@ zero_extendqisi2
 4563 0bf0 0133     		adds	r3, r3, #1
 4564 0bf2 87F82F30 		strb	r3, [r7, #47]
 4565              	.L215:
1088:.\main.c      **** 					  for(x=0;x<=7;x++){
 4566              		.loc 1 1088 0 is_stmt 0 discriminator 1
 4567 0bf6 97F82F30 		ldrb	r3, [r7, #47]	@ zero_extendqisi2
 4568 0bfa 072B     		cmp	r3, #7
 4569 0bfc F0D9     		bls	.L216
1090:.\main.c      **** 					  }						                      
1091:.\main.c      **** 					  count_teclas1=0;							//Inicia el contador de teclas	
 4570              		.loc 1 1091 0 is_stmt 1
 4571 0bfe 3A4B     		ldr	r3, .L657+12
 4572 0c00 0022     		movs	r2, #0
 4573 0c02 1A70     		strb	r2, [r3]
1092:.\main.c      **** 					  id_teclado1=1;
 4574              		.loc 1 1092 0
 4575 0c04 394B     		ldr	r3, .L657+16
 4576 0c06 0122     		movs	r2, #1
 4577 0c08 1A70     		strb	r2, [r3]
1093:.\main.c      **** 					  id_coma1=',';	
 4578              		.loc 1 1093 0
ARM GAS  C:\Users\RECEPC~1\AppData\Local\Temp\cc2OimPl.s 			page 103


 4579 0c0a 394B     		ldr	r3, .L657+20
 4580 0c0c 2C22     		movs	r2, #44
 4581 0c0e 1A70     		strb	r2, [r3]
1094:.\main.c      ****                       teclas1=version[1]; 
 4582              		.loc 1 1094 0
 4583 0c10 384B     		ldr	r3, .L657+24
 4584 0c12 5B78     		ldrb	r3, [r3, #1]
 4585 0c14 DAB2     		uxtb	r2, r3
 4586 0c16 384B     		ldr	r3, .L657+28
 4587 0c18 1A70     		strb	r2, [r3]
1095:.\main.c      **** 					  rventa2.preset[0]=2;
 4588              		.loc 1 1095 0
 4589 0c1a 3D4B     		ldr	r3, .L657+52
 4590 0c1c 0222     		movs	r2, #2
 4591 0c1e DA76     		strb	r2, [r3, #27]
1096:.\main.c      ****                       comas1=0;									
 4592              		.loc 1 1096 0
 4593 0c20 364B     		ldr	r3, .L657+32
 4594 0c22 0022     		movs	r2, #0
 4595 0c24 1A70     		strb	r2, [r3]
1097:.\main.c      ****                       set_imagen(1,13); 
 4596              		.loc 1 1097 0
 4597 0c26 0120     		movs	r0, #1
 4598 0c28 0D21     		movs	r1, #13
 4599 0c2a FFF7FEFF 		bl	set_imagen
1098:.\main.c      **** 					  posx1=4;
 4600              		.loc 1 1098 0
 4601 0c2e 344B     		ldr	r3, .L657+36
 4602 0c30 0422     		movs	r2, #4
 4603 0c32 1A80     		strh	r2, [r3]	@ movhi
1099:.\main.c      **** 					  posy1=3;
 4604              		.loc 1 1099 0
 4605 0c34 334B     		ldr	r3, .L657+40
 4606 0c36 0322     		movs	r2, #3
 4607 0c38 1A80     		strh	r2, [r3]	@ movhi
1100:.\main.c      **** 					  sizeletra1=1;					
 4608              		.loc 1 1100 0
 4609 0c3a 334B     		ldr	r3, .L657+44
 4610 0c3c 0122     		movs	r2, #1
 4611 0c3e 1A80     		strh	r2, [r3]	@ movhi
1101:.\main.c      **** 					  write_LCD(1,'L', 3, 4, 1);
 4612              		.loc 1 1101 0
 4613 0c40 0123     		movs	r3, #1
 4614 0c42 0093     		str	r3, [sp]
 4615 0c44 0120     		movs	r0, #1
 4616 0c46 4C21     		movs	r1, #76
 4617 0c48 0322     		movs	r2, #3
 4618 0c4a 0423     		movs	r3, #4
 4619 0c4c FFF7FEFF 		bl	write_LCD
1102:.\main.c      ****                       flujo_LCD1=12; 
 4620              		.loc 1 1102 0
 4621 0c50 2E4B     		ldr	r3, .L657+48
 4622 0c52 0C22     		movs	r2, #12
 4623 0c54 1A70     		strb	r2, [r3]
1103:.\main.c      ****                     }
1104:.\main.c      ****                     break;
 4624              		.loc 1 1104 0
ARM GAS  C:\Users\RECEPC~1\AppData\Local\Temp\cc2OimPl.s 			page 104


 4625 0c56 9CE0     		b	.L198
 4626              	.L214:
 4627 0c58 9BE0     		b	.L198
 4628              	.L203:
1105:.\main.c      ****                     
1106:.\main.c      ****                     case 0x43:  								//Full 
1107:.\main.c      ****                     if(seleccion_pos == 1){
 4629              		.loc 1 1107 0
 4630 0c5a 214B     		ldr	r3, .L657+4
 4631 0c5c 1B78     		ldrb	r3, [r3]
 4632 0c5e DBB2     		uxtb	r3, r3
 4633 0c60 012B     		cmp	r3, #1
 4634 0c62 32D1     		bne	.L217
1108:.\main.c      **** 					  for(x=0;x<=7;x++){
 4635              		.loc 1 1108 0
 4636 0c64 0023     		movs	r3, #0
 4637 0c66 87F82F30 		strb	r3, [r7, #47]
 4638 0c6a 0AE0     		b	.L218
 4639              	.L219:
1109:.\main.c      **** 					 	rventa1.preset[x]=0;
 4640              		.loc 1 1109 0 discriminator 3
 4641 0c6c 97F82F30 		ldrb	r3, [r7, #47]	@ zero_extendqisi2
 4642 0c70 1C4A     		ldr	r2, .L657+8
 4643 0c72 1344     		add	r3, r3, r2
 4644 0c74 0022     		movs	r2, #0
 4645 0c76 DA76     		strb	r2, [r3, #27]
1108:.\main.c      **** 					  for(x=0;x<=7;x++){
 4646              		.loc 1 1108 0 discriminator 3
 4647 0c78 97F82F30 		ldrb	r3, [r7, #47]	@ zero_extendqisi2
 4648 0c7c 0133     		adds	r3, r3, #1
 4649 0c7e 87F82F30 		strb	r3, [r7, #47]
 4650              	.L218:
1108:.\main.c      **** 					  for(x=0;x<=7;x++){
 4651              		.loc 1 1108 0 is_stmt 0 discriminator 1
 4652 0c82 97F82F30 		ldrb	r3, [r7, #47]	@ zero_extendqisi2
 4653 0c86 072B     		cmp	r3, #7
 4654 0c88 F0D9     		bls	.L219
1110:.\main.c      **** 					  }
1111:.\main.c      ****                       rventa1.preset[0]=3;					
 4655              		.loc 1 1111 0 is_stmt 1
 4656 0c8a 164B     		ldr	r3, .L657+8
 4657 0c8c 0322     		movs	r2, #3
 4658 0c8e DA76     		strb	r2, [r3, #27]
1112:.\main.c      **** 					  for(x=5;x<=7;x++){
 4659              		.loc 1 1112 0
 4660 0c90 0523     		movs	r3, #5
 4661 0c92 87F82F30 		strb	r3, [r7, #47]
 4662 0c96 0AE0     		b	.L220
 4663              	.L221:
1113:.\main.c      **** 						rventa1.preset[x]=9;		
 4664              		.loc 1 1113 0 discriminator 3
 4665 0c98 97F82F30 		ldrb	r3, [r7, #47]	@ zero_extendqisi2
 4666 0c9c 114A     		ldr	r2, .L657+8
 4667 0c9e 1344     		add	r3, r3, r2
 4668 0ca0 0922     		movs	r2, #9
 4669 0ca2 DA76     		strb	r2, [r3, #27]
1112:.\main.c      **** 					  for(x=5;x<=7;x++){
ARM GAS  C:\Users\RECEPC~1\AppData\Local\Temp\cc2OimPl.s 			page 105


 4670              		.loc 1 1112 0 discriminator 3
 4671 0ca4 97F82F30 		ldrb	r3, [r7, #47]	@ zero_extendqisi2
 4672 0ca8 0133     		adds	r3, r3, #1
 4673 0caa 87F82F30 		strb	r3, [r7, #47]
 4674              	.L220:
1112:.\main.c      **** 					  for(x=5;x<=7;x++){
 4675              		.loc 1 1112 0 is_stmt 0 discriminator 1
 4676 0cae 97F82F30 		ldrb	r3, [r7, #47]	@ zero_extendqisi2
 4677 0cb2 072B     		cmp	r3, #7
 4678 0cb4 F0D9     		bls	.L221
1114:.\main.c      **** 					  }								                                     
1115:.\main.c      **** 		              set_imagen(1,7);
 4679              		.loc 1 1115 0 is_stmt 1
 4680 0cb6 0120     		movs	r0, #1
 4681 0cb8 0721     		movs	r1, #7
 4682 0cba FFF7FEFF 		bl	set_imagen
1116:.\main.c      **** 					  lado1.estado=espera;
 4683              		.loc 1 1116 0
 4684 0cbe 154B     		ldr	r3, .L657+56
 4685 0cc0 0222     		movs	r2, #2
 4686 0cc2 5A70     		strb	r2, [r3, #1]
1117:.\main.c      ****                       flujo_LCD1 = 6;  
 4687              		.loc 1 1117 0
 4688 0cc4 114B     		ldr	r3, .L657+48
 4689 0cc6 0622     		movs	r2, #6
 4690 0cc8 1A70     		strb	r2, [r3]
 4691              	.L217:
1118:.\main.c      ****                     }
1119:.\main.c      ****                     if(seleccion_pos == 2){
 4692              		.loc 1 1119 0
 4693 0cca 054B     		ldr	r3, .L657+4
 4694 0ccc 1B78     		ldrb	r3, [r3]
 4695 0cce DBB2     		uxtb	r3, r3
 4696 0cd0 022B     		cmp	r3, #2
 4697 0cd2 51D1     		bne	.L222
1120:.\main.c      **** 					  for(x=0;x<=7;x++){
 4698              		.loc 1 1120 0
 4699 0cd4 0023     		movs	r3, #0
 4700 0cd6 87F82F30 		strb	r3, [r7, #47]
 4701 0cda 28E0     		b	.L223
 4702              	.L658:
 4703              		.align	2
 4704              	.L657:
 4705 0cdc 00000000 		.word	LCD_1_rxBuffer
 4706 0ce0 00000000 		.word	seleccion_pos
 4707 0ce4 00000000 		.word	rventa1
 4708 0ce8 00000000 		.word	count_teclas1
 4709 0cec 00000000 		.word	id_teclado1
 4710 0cf0 00000000 		.word	id_coma1
 4711 0cf4 00000000 		.word	version
 4712 0cf8 00000000 		.word	teclas1
 4713 0cfc 00000000 		.word	comas1
 4714 0d00 00000000 		.word	posx1
 4715 0d04 00000000 		.word	posy1
 4716 0d08 00000000 		.word	sizeletra1
 4717 0d0c 00000000 		.word	flujo_LCD1
 4718 0d10 00000000 		.word	rventa2
ARM GAS  C:\Users\RECEPC~1\AppData\Local\Temp\cc2OimPl.s 			page 106


 4719 0d14 00000000 		.word	lado1
 4720              	.L224:
1121:.\main.c      **** 					 	rventa2.preset[x]=0;
 4721              		.loc 1 1121 0 discriminator 3
 4722 0d18 97F82F30 		ldrb	r3, [r7, #47]	@ zero_extendqisi2
 4723 0d1c C34A     		ldr	r2, .L659
 4724 0d1e 1344     		add	r3, r3, r2
 4725 0d20 0022     		movs	r2, #0
 4726 0d22 DA76     		strb	r2, [r3, #27]
1120:.\main.c      **** 					  for(x=0;x<=7;x++){
 4727              		.loc 1 1120 0 discriminator 3
 4728 0d24 97F82F30 		ldrb	r3, [r7, #47]	@ zero_extendqisi2
 4729 0d28 0133     		adds	r3, r3, #1
 4730 0d2a 87F82F30 		strb	r3, [r7, #47]
 4731              	.L223:
1120:.\main.c      **** 					  for(x=0;x<=7;x++){
 4732              		.loc 1 1120 0 is_stmt 0 discriminator 1
 4733 0d2e 97F82F30 		ldrb	r3, [r7, #47]	@ zero_extendqisi2
 4734 0d32 072B     		cmp	r3, #7
 4735 0d34 F0D9     		bls	.L224
1122:.\main.c      **** 					  }
1123:.\main.c      ****                       rventa1.preset[0]=3;					
 4736              		.loc 1 1123 0 is_stmt 1
 4737 0d36 BE4B     		ldr	r3, .L659+4
 4738 0d38 0322     		movs	r2, #3
 4739 0d3a DA76     		strb	r2, [r3, #27]
1124:.\main.c      **** 					  for(x=5;x<=7;x++){
 4740              		.loc 1 1124 0
 4741 0d3c 0523     		movs	r3, #5
 4742 0d3e 87F82F30 		strb	r3, [r7, #47]
 4743 0d42 0AE0     		b	.L225
 4744              	.L226:
1125:.\main.c      **** 						rventa2.preset[x]=9;		
 4745              		.loc 1 1125 0 discriminator 3
 4746 0d44 97F82F30 		ldrb	r3, [r7, #47]	@ zero_extendqisi2
 4747 0d48 B84A     		ldr	r2, .L659
 4748 0d4a 1344     		add	r3, r3, r2
 4749 0d4c 0922     		movs	r2, #9
 4750 0d4e DA76     		strb	r2, [r3, #27]
1124:.\main.c      **** 					  for(x=5;x<=7;x++){
 4751              		.loc 1 1124 0 discriminator 3
 4752 0d50 97F82F30 		ldrb	r3, [r7, #47]	@ zero_extendqisi2
 4753 0d54 0133     		adds	r3, r3, #1
 4754 0d56 87F82F30 		strb	r3, [r7, #47]
 4755              	.L225:
1124:.\main.c      **** 					  for(x=5;x<=7;x++){
 4756              		.loc 1 1124 0 is_stmt 0 discriminator 1
 4757 0d5a 97F82F30 		ldrb	r3, [r7, #47]	@ zero_extendqisi2
 4758 0d5e 072B     		cmp	r3, #7
 4759 0d60 F0D9     		bls	.L226
1126:.\main.c      **** 					  }								                                     
1127:.\main.c      **** 		              set_imagen(1,7);
 4760              		.loc 1 1127 0 is_stmt 1
 4761 0d62 0120     		movs	r0, #1
 4762 0d64 0721     		movs	r1, #7
 4763 0d66 FFF7FEFF 		bl	set_imagen
1128:.\main.c      **** 					  lado2.estado=espera;
ARM GAS  C:\Users\RECEPC~1\AppData\Local\Temp\cc2OimPl.s 			page 107


 4764              		.loc 1 1128 0
 4765 0d6a B24B     		ldr	r3, .L659+8
 4766 0d6c 0222     		movs	r2, #2
 4767 0d6e 5A70     		strb	r2, [r3, #1]
1129:.\main.c      ****                       flujo_LCD1 = 6;  
 4768              		.loc 1 1129 0
 4769 0d70 B14B     		ldr	r3, .L659+12
 4770 0d72 0622     		movs	r2, #6
 4771 0d74 1A70     		strb	r2, [r3]
1130:.\main.c      ****                     }
1131:.\main.c      ****                     break;
 4772              		.loc 1 1131 0
 4773 0d76 0CE0     		b	.L198
 4774              	.L222:
 4775 0d78 0BE0     		b	.L198
 4776              	.L199:
1132:.\main.c      ****                     
1133:.\main.c      ****                     case 0x3B:                                //Cancel                     
1134:.\main.c      ****                       flujo_LCD1=0;
 4777              		.loc 1 1134 0
 4778 0d7a AF4B     		ldr	r3, .L659+12
 4779 0d7c 0022     		movs	r2, #0
 4780 0d7e 1A70     		strb	r2, [r3]
1135:.\main.c      ****                     break;     
 4781              		.loc 1 1135 0
 4782 0d80 07E0     		b	.L198
 4783              	.L204:
1136:.\main.c      ****                     
1137:.\main.c      ****                     case 0x7E:                                //Símbolo de inicio                 
1138:.\main.c      ****                         set_imagen(1,74);	
 4784              		.loc 1 1138 0
 4785 0d82 0120     		movs	r0, #1
 4786 0d84 4A21     		movs	r1, #74
 4787 0d86 FFF7FEFF 		bl	set_imagen
1139:.\main.c      ****                         flujo_LCD1=0;
 4788              		.loc 1 1139 0
 4789 0d8a AB4B     		ldr	r3, .L659+12
 4790 0d8c 0022     		movs	r2, #0
 4791 0d8e 1A70     		strb	r2, [r3]
1140:.\main.c      ****                     break;
 4792              		.loc 1 1140 0
 4793 0d90 00BF     		nop
 4794              	.L198:
1141:.\main.c      ****                 }
1142:.\main.c      ****             }
1143:.\main.c      ****             CyDelay(100);            
 4795              		.loc 1 1143 0
 4796 0d92 6420     		movs	r0, #100
 4797 0d94 FFF7FEFF 		bl	CyDelay
1144:.\main.c      ****             LCD_1_ClearRxBuffer();
 4798              		.loc 1 1144 0
 4799 0d98 FFF7FEFF 		bl	LCD_1_ClearRxBuffer
1145:.\main.c      ****          } 
1146:.\main.c      ****         break;
 4800              		.loc 1 1146 0
 4801 0d9c 03F026BE 		b	.L115
 4802              	.L197:
ARM GAS  C:\Users\RECEPC~1\AppData\Local\Temp\cc2OimPl.s 			page 108


 4803              		.loc 1 1146 0 is_stmt 0 discriminator 6
 4804 0da0 03F024BE 		b	.L115
 4805              	.L123:
1147:.\main.c      ****         
1148:.\main.c      ****         case 5:
1149:.\main.c      ****         if(seleccion_pos == 1){
 4806              		.loc 1 1149 0 is_stmt 1
 4807 0da4 A54B     		ldr	r3, .L659+16
 4808 0da6 1B78     		ldrb	r3, [r3]
 4809 0da8 DBB2     		uxtb	r3, r3
 4810 0daa 012B     		cmp	r3, #1
 4811 0dac 61D1     		bne	.L227
1150:.\main.c      ****     		CyDelay(50);
 4812              		.loc 1 1150 0
 4813 0dae 3220     		movs	r0, #50
 4814 0db0 FFF7FEFF 		bl	CyDelay
1151:.\main.c      ****             if(LCD_1_GetRxBufferSize()==8){
 4815              		.loc 1 1151 0
 4816 0db4 FFF7FEFF 		bl	LCD_1_GetRxBufferSize
 4817 0db8 0346     		mov	r3, r0
 4818 0dba 082B     		cmp	r3, #8
 4819 0dbc 1AD1     		bne	.L228
1152:.\main.c      ****                 if((LCD_1_rxBuffer[0]==0xAA) && (LCD_1_rxBuffer[6]==0xC3) && (LCD_1_rxBuffer[7]==0x
 4820              		.loc 1 1152 0
 4821 0dbe A04B     		ldr	r3, .L659+20
 4822 0dc0 1B78     		ldrb	r3, [r3]
 4823 0dc2 DBB2     		uxtb	r3, r3
 4824 0dc4 AA2B     		cmp	r3, #170
 4825 0dc6 11D1     		bne	.L229
 4826              		.loc 1 1152 0 is_stmt 0 discriminator 1
 4827 0dc8 9D4B     		ldr	r3, .L659+20
 4828 0dca 9B79     		ldrb	r3, [r3, #6]
 4829 0dcc DBB2     		uxtb	r3, r3
 4830 0dce C32B     		cmp	r3, #195
 4831 0dd0 0CD1     		bne	.L229
 4832              		.loc 1 1152 0 discriminator 2
 4833 0dd2 9B4B     		ldr	r3, .L659+20
 4834 0dd4 DB79     		ldrb	r3, [r3, #7]
 4835 0dd6 DBB2     		uxtb	r3, r3
 4836 0dd8 3C2B     		cmp	r3, #60
 4837 0dda 07D1     		bne	.L229
1153:.\main.c      ****                     if(LCD_1_rxBuffer[3]==0x7E){					//Cancel
 4838              		.loc 1 1153 0 is_stmt 1
 4839 0ddc 984B     		ldr	r3, .L659+20
 4840 0dde DB78     		ldrb	r3, [r3, #3]
 4841 0de0 DBB2     		uxtb	r3, r3
 4842 0de2 7E2B     		cmp	r3, #126
 4843 0de4 02D1     		bne	.L229
1154:.\main.c      ****     					flujo_LCD1=0;
 4844              		.loc 1 1154 0
 4845 0de6 944B     		ldr	r3, .L659+12
 4846 0de8 0022     		movs	r2, #0
 4847 0dea 1A70     		strb	r2, [r3]
 4848              	.L229:
1155:.\main.c      ****                     }												
1156:.\main.c      ****     			}                       
1157:.\main.c      ****                 LCD_1_ClearRxBuffer();
ARM GAS  C:\Users\RECEPC~1\AppData\Local\Temp\cc2OimPl.s 			page 109


 4849              		.loc 1 1157 0
 4850 0dec FFF7FEFF 		bl	LCD_1_ClearRxBuffer
1158:.\main.c      ****     			break;
 4851              		.loc 1 1158 0
 4852 0df0 03F0FCBD 		b	.L115
 4853              	.L228:
1159:.\main.c      ****     		}
1160:.\main.c      ****             x=get_estado(lado1.dir);
 4854              		.loc 1 1160 0
 4855 0df4 934B     		ldr	r3, .L659+24
 4856 0df6 1B78     		ldrb	r3, [r3]
 4857 0df8 DBB2     		uxtb	r3, r3
 4858 0dfa 1846     		mov	r0, r3
 4859 0dfc FFF7FEFF 		bl	get_estado
 4860 0e00 0346     		mov	r3, r0
 4861 0e02 87F82F30 		strb	r3, [r7, #47]
1161:.\main.c      ****             if(x==7){								//Espera a que este en listo el equipo	
 4862              		.loc 1 1161 0
 4863 0e06 97F82F30 		ldrb	r3, [r7, #47]	@ zero_extendqisi2
 4864 0e0a 072B     		cmp	r3, #7
 4865 0e0c 06D1     		bne	.L230
1162:.\main.c      ****     		    flujo_LCD1=6;
 4866              		.loc 1 1162 0
 4867 0e0e 8A4B     		ldr	r3, .L659+12
 4868 0e10 0622     		movs	r2, #6
 4869 0e12 1A70     		strb	r2, [r3]
1163:.\main.c      ****                 CyDelay(50);
 4870              		.loc 1 1163 0
 4871 0e14 3220     		movs	r0, #50
 4872 0e16 FFF7FEFF 		bl	CyDelay
 4873 0e1a 2AE0     		b	.L227
 4874              	.L230:
1164:.\main.c      ****             }
1165:.\main.c      ****             else if(x==0){
 4875              		.loc 1 1165 0
 4876 0e1c 97F82F30 		ldrb	r3, [r7, #47]	@ zero_extendqisi2
 4877 0e20 002B     		cmp	r3, #0
 4878 0e22 0ED1     		bne	.L231
1166:.\main.c      ****     			CyDelay(50);
 4879              		.loc 1 1166 0
 4880 0e24 3220     		movs	r0, #50
 4881 0e26 FFF7FEFF 		bl	CyDelay
1167:.\main.c      ****     			programar(lado1.dir,1,aux,2);
 4882              		.loc 1 1167 0
 4883 0e2a 864B     		ldr	r3, .L659+24
 4884 0e2c 1B78     		ldrb	r3, [r3]
 4885 0e2e DAB2     		uxtb	r2, r3
 4886 0e30 07F11403 		add	r3, r7, #20
 4887 0e34 1046     		mov	r0, r2
 4888 0e36 0121     		movs	r1, #1
 4889 0e38 1A46     		mov	r2, r3
 4890 0e3a 0223     		movs	r3, #2
 4891 0e3c FFF7FEFF 		bl	programar
 4892 0e40 17E0     		b	.L227
 4893              	.L231:
1168:.\main.c      ****             }
1169:.\main.c      ****             else if(x==0x0C){
ARM GAS  C:\Users\RECEPC~1\AppData\Local\Temp\cc2OimPl.s 			page 110


 4894              		.loc 1 1169 0
 4895 0e42 97F82F30 		ldrb	r3, [r7, #47]	@ zero_extendqisi2
 4896 0e46 0C2B     		cmp	r3, #12
 4897 0e48 04D1     		bne	.L232
1170:.\main.c      ****                 error_op(1,85);
 4898              		.loc 1 1170 0
 4899 0e4a 0120     		movs	r0, #1
 4900 0e4c 5521     		movs	r1, #85
 4901 0e4e FFF7FEFF 		bl	error_op
 4902 0e52 0EE0     		b	.L227
 4903              	.L232:
1171:.\main.c      ****             }
1172:.\main.c      ****     		else if(x==0x0B){                   //Termino venta
 4904              		.loc 1 1172 0
 4905 0e54 97F82F30 		ldrb	r3, [r7, #47]	@ zero_extendqisi2
 4906 0e58 0B2B     		cmp	r3, #11
 4907 0e5a 03D1     		bne	.L233
1173:.\main.c      ****     			flujo_LCD1=13;
 4908              		.loc 1 1173 0
 4909 0e5c 764B     		ldr	r3, .L659+12
 4910 0e5e 0D22     		movs	r2, #13
 4911 0e60 1A70     		strb	r2, [r3]
 4912 0e62 06E0     		b	.L227
 4913              	.L233:
1174:.\main.c      ****             }						
1175:.\main.c      ****     		else if(x==0x0A){					//Termino venta
 4914              		.loc 1 1175 0
 4915 0e64 97F82F30 		ldrb	r3, [r7, #47]	@ zero_extendqisi2
 4916 0e68 0A2B     		cmp	r3, #10
 4917 0e6a 02D1     		bne	.L227
1176:.\main.c      ****     			flujo_LCD1=13;
 4918              		.loc 1 1176 0
 4919 0e6c 724B     		ldr	r3, .L659+12
 4920 0e6e 0D22     		movs	r2, #13
 4921 0e70 1A70     		strb	r2, [r3]
 4922              	.L227:
1177:.\main.c      ****     		}  
1178:.\main.c      ****         }
1179:.\main.c      ****         if(seleccion_pos == 2){
 4923              		.loc 1 1179 0
 4924 0e72 724B     		ldr	r3, .L659+16
 4925 0e74 1B78     		ldrb	r3, [r3]
 4926 0e76 DBB2     		uxtb	r3, r3
 4927 0e78 022B     		cmp	r3, #2
 4928 0e7a 63D1     		bne	.L234
1180:.\main.c      ****     		CyDelay(50);
 4929              		.loc 1 1180 0
 4930 0e7c 3220     		movs	r0, #50
 4931 0e7e FFF7FEFF 		bl	CyDelay
1181:.\main.c      ****             if(LCD_1_GetRxBufferSize()==8){
 4932              		.loc 1 1181 0
 4933 0e82 FFF7FEFF 		bl	LCD_1_GetRxBufferSize
 4934 0e86 0346     		mov	r3, r0
 4935 0e88 082B     		cmp	r3, #8
 4936 0e8a 1AD1     		bne	.L235
1182:.\main.c      ****                 if((LCD_1_rxBuffer[0]==0xAA) && (LCD_1_rxBuffer[6]==0xC3) && (LCD_1_rxBuffer[7]==0x
 4937              		.loc 1 1182 0
ARM GAS  C:\Users\RECEPC~1\AppData\Local\Temp\cc2OimPl.s 			page 111


 4938 0e8c 6C4B     		ldr	r3, .L659+20
 4939 0e8e 1B78     		ldrb	r3, [r3]
 4940 0e90 DBB2     		uxtb	r3, r3
 4941 0e92 AA2B     		cmp	r3, #170
 4942 0e94 11D1     		bne	.L236
 4943              		.loc 1 1182 0 is_stmt 0 discriminator 1
 4944 0e96 6A4B     		ldr	r3, .L659+20
 4945 0e98 9B79     		ldrb	r3, [r3, #6]
 4946 0e9a DBB2     		uxtb	r3, r3
 4947 0e9c C32B     		cmp	r3, #195
 4948 0e9e 0CD1     		bne	.L236
 4949              		.loc 1 1182 0 discriminator 2
 4950 0ea0 674B     		ldr	r3, .L659+20
 4951 0ea2 DB79     		ldrb	r3, [r3, #7]
 4952 0ea4 DBB2     		uxtb	r3, r3
 4953 0ea6 3C2B     		cmp	r3, #60
 4954 0ea8 07D1     		bne	.L236
1183:.\main.c      ****                     if(LCD_1_rxBuffer[3]==0x7E){					//Cancel
 4955              		.loc 1 1183 0 is_stmt 1
 4956 0eaa 654B     		ldr	r3, .L659+20
 4957 0eac DB78     		ldrb	r3, [r3, #3]
 4958 0eae DBB2     		uxtb	r3, r3
 4959 0eb0 7E2B     		cmp	r3, #126
 4960 0eb2 02D1     		bne	.L236
1184:.\main.c      ****     					flujo_LCD1=0;
 4961              		.loc 1 1184 0
 4962 0eb4 604B     		ldr	r3, .L659+12
 4963 0eb6 0022     		movs	r2, #0
 4964 0eb8 1A70     		strb	r2, [r3]
 4965              	.L236:
1185:.\main.c      ****                     }												
1186:.\main.c      ****     			}                       
1187:.\main.c      ****                 LCD_1_ClearRxBuffer();
 4966              		.loc 1 1187 0
 4967 0eba FFF7FEFF 		bl	LCD_1_ClearRxBuffer
1188:.\main.c      ****     			break;
 4968              		.loc 1 1188 0
 4969 0ebe 03F095BD 		b	.L115
 4970              	.L235:
1189:.\main.c      ****     		}
1190:.\main.c      ****             x=get_estado(lado2.dir);
 4971              		.loc 1 1190 0
 4972 0ec2 5C4B     		ldr	r3, .L659+8
 4973 0ec4 1B78     		ldrb	r3, [r3]
 4974 0ec6 DBB2     		uxtb	r3, r3
 4975 0ec8 1846     		mov	r0, r3
 4976 0eca FFF7FEFF 		bl	get_estado
 4977 0ece 0346     		mov	r3, r0
 4978 0ed0 87F82F30 		strb	r3, [r7, #47]
1191:.\main.c      ****             if(x==7){								//Espera a que este en listo el equipo	
 4979              		.loc 1 1191 0
 4980 0ed4 97F82F30 		ldrb	r3, [r7, #47]	@ zero_extendqisi2
 4981 0ed8 072B     		cmp	r3, #7
 4982 0eda 06D1     		bne	.L237
1192:.\main.c      ****     		    flujo_LCD1=6;
 4983              		.loc 1 1192 0
 4984 0edc 564B     		ldr	r3, .L659+12
ARM GAS  C:\Users\RECEPC~1\AppData\Local\Temp\cc2OimPl.s 			page 112


 4985 0ede 0622     		movs	r2, #6
 4986 0ee0 1A70     		strb	r2, [r3]
1193:.\main.c      ****                 CyDelay(50);
 4987              		.loc 1 1193 0
 4988 0ee2 3220     		movs	r0, #50
 4989 0ee4 FFF7FEFF 		bl	CyDelay
 4990 0ee8 2CE0     		b	.L234
 4991              	.L237:
1194:.\main.c      ****             }
1195:.\main.c      ****             else if(x==0){
 4992              		.loc 1 1195 0
 4993 0eea 97F82F30 		ldrb	r3, [r7, #47]	@ zero_extendqisi2
 4994 0eee 002B     		cmp	r3, #0
 4995 0ef0 0ED1     		bne	.L238
1196:.\main.c      ****     			CyDelay(50);
 4996              		.loc 1 1196 0
 4997 0ef2 3220     		movs	r0, #50
 4998 0ef4 FFF7FEFF 		bl	CyDelay
1197:.\main.c      ****     			programar(lado2.dir,1,aux,2);
 4999              		.loc 1 1197 0
 5000 0ef8 4E4B     		ldr	r3, .L659+8
 5001 0efa 1B78     		ldrb	r3, [r3]
 5002 0efc DAB2     		uxtb	r2, r3
 5003 0efe 07F11403 		add	r3, r7, #20
 5004 0f02 1046     		mov	r0, r2
 5005 0f04 0121     		movs	r1, #1
 5006 0f06 1A46     		mov	r2, r3
 5007 0f08 0223     		movs	r3, #2
 5008 0f0a FFF7FEFF 		bl	programar
 5009 0f0e 19E0     		b	.L234
 5010              	.L238:
1198:.\main.c      ****             }
1199:.\main.c      ****             else if(x==0x0C){
 5011              		.loc 1 1199 0
 5012 0f10 97F82F30 		ldrb	r3, [r7, #47]	@ zero_extendqisi2
 5013 0f14 0C2B     		cmp	r3, #12
 5014 0f16 04D1     		bne	.L239
1200:.\main.c      ****                 error_op(1,85);
 5015              		.loc 1 1200 0
 5016 0f18 0120     		movs	r0, #1
 5017 0f1a 5521     		movs	r1, #85
 5018 0f1c FFF7FEFF 		bl	error_op
 5019 0f20 10E0     		b	.L234
 5020              	.L239:
1201:.\main.c      ****             }
1202:.\main.c      ****     		else if(x==0x0B){                   //Termino venta
 5021              		.loc 1 1202 0
 5022 0f22 97F82F30 		ldrb	r3, [r7, #47]	@ zero_extendqisi2
 5023 0f26 0B2B     		cmp	r3, #11
 5024 0f28 03D1     		bne	.L240
1203:.\main.c      ****     			flujo_LCD1=13;
 5025              		.loc 1 1203 0
 5026 0f2a 434B     		ldr	r3, .L659+12
 5027 0f2c 0D22     		movs	r2, #13
 5028 0f2e 1A70     		strb	r2, [r3]
 5029 0f30 08E0     		b	.L234
 5030              	.L240:
ARM GAS  C:\Users\RECEPC~1\AppData\Local\Temp\cc2OimPl.s 			page 113


1204:.\main.c      ****             }						
1205:.\main.c      ****     		else if(x==0x0A){					//Termino venta
 5031              		.loc 1 1205 0
 5032 0f32 97F82F30 		ldrb	r3, [r7, #47]	@ zero_extendqisi2
 5033 0f36 0A2B     		cmp	r3, #10
 5034 0f38 04D1     		bne	.L234
1206:.\main.c      ****     			flujo_LCD1=13;
 5035              		.loc 1 1206 0
 5036 0f3a 3F4B     		ldr	r3, .L659+12
 5037 0f3c 0D22     		movs	r2, #13
 5038 0f3e 1A70     		strb	r2, [r3]
1207:.\main.c      ****     		}  
1208:.\main.c      ****         }
1209:.\main.c      ****         break;
 5039              		.loc 1 1209 0
 5040 0f40 03F054BD 		b	.L115
 5041              	.L234:
 5042              		.loc 1 1209 0 is_stmt 0 discriminator 7
 5043 0f44 03F052BD 		b	.L115
 5044              	.L124:
1210:.\main.c      ****         
1211:.\main.c      ****          case 6:
1212:.\main.c      ****         if(seleccion_pos == 1){
 5045              		.loc 1 1212 0 is_stmt 1
 5046 0f48 3C4B     		ldr	r3, .L659+16
 5047 0f4a 1B78     		ldrb	r3, [r3]
 5048 0f4c DBB2     		uxtb	r3, r3
 5049 0f4e 012B     		cmp	r3, #1
 5050 0f50 31D1     		bne	.L241
1213:.\main.c      ****     		CyDelay(10);
 5051              		.loc 1 1213 0
 5052 0f52 0A20     		movs	r0, #10
 5053 0f54 FFF7FEFF 		bl	CyDelay
1214:.\main.c      ****     		rventa1.manguera=estado_ex(lado1.dir);
 5054              		.loc 1 1214 0
 5055 0f58 3A4B     		ldr	r3, .L659+24
 5056 0f5a 1B78     		ldrb	r3, [r3]
 5057 0f5c DBB2     		uxtb	r3, r3
 5058 0f5e 1846     		mov	r0, r3
 5059 0f60 FFF7FEFF 		bl	estado_ex
 5060 0f64 0346     		mov	r3, r0
 5061 0f66 1A46     		mov	r2, r3
 5062 0f68 314B     		ldr	r3, .L659+4
 5063 0f6a 9A76     		strb	r2, [r3, #26]
1215:.\main.c      ****     		if(rventa1.manguera!=0){			 
 5064              		.loc 1 1215 0
 5065 0f6c 304B     		ldr	r3, .L659+4
 5066 0f6e 9B7E     		ldrb	r3, [r3, #26]	@ zero_extendqisi2
 5067 0f70 002B     		cmp	r3, #0
 5068 0f72 20D0     		beq	.L241
1216:.\main.c      ****                 CyDelay(20);            
 5069              		.loc 1 1216 0
 5070 0f74 1420     		movs	r0, #20
 5071 0f76 FFF7FEFF 		bl	CyDelay
1217:.\main.c      ****     		    if(get_estado(lado1.dir)==7){   
 5072              		.loc 1 1217 0
 5073 0f7a 324B     		ldr	r3, .L659+24
ARM GAS  C:\Users\RECEPC~1\AppData\Local\Temp\cc2OimPl.s 			page 114


 5074 0f7c 1B78     		ldrb	r3, [r3]
 5075 0f7e DBB2     		uxtb	r3, r3
 5076 0f80 1846     		mov	r0, r3
 5077 0f82 FFF7FEFF 		bl	get_estado
 5078 0f86 0346     		mov	r3, r0
 5079 0f88 072B     		cmp	r3, #7
 5080 0f8a 14D1     		bne	.L241
1218:.\main.c      ****                     isr_3_StartEx(animacion);  
 5081              		.loc 1 1218 0
 5082 0f8c 2E48     		ldr	r0, .L659+28
 5083 0f8e FFF7FEFF 		bl	isr_3_StartEx
1219:.\main.c      **** 	                Timer_Animacion_Start(); 
 5084              		.loc 1 1219 0
 5085 0f92 FFF7FEFF 		bl	Timer_Animacion_Start
1220:.\main.c      ****                     count_protector=0;
 5086              		.loc 1 1220 0
 5087 0f96 2D4B     		ldr	r3, .L659+32
 5088 0f98 0022     		movs	r2, #0
 5089 0f9a 1A70     		strb	r2, [r3]
1221:.\main.c      ****                     timeout_autorizacion=0;
 5090              		.loc 1 1221 0
 5091 0f9c 2C4B     		ldr	r3, .L659+36
 5092 0f9e 0022     		movs	r2, #0
 5093 0fa0 1A80     		strh	r2, [r3]	@ movhi
1222:.\main.c      ****     			    lado1.estado=listo;
 5094              		.loc 1 1222 0
 5095 0fa2 284B     		ldr	r3, .L659+24
 5096 0fa4 0422     		movs	r2, #4
 5097 0fa6 5A70     		strb	r2, [r3, #1]
1223:.\main.c      ****                     set_imagen(1,57);                                
 5098              		.loc 1 1223 0
 5099 0fa8 0120     		movs	r0, #1
 5100 0faa 3921     		movs	r1, #57
 5101 0fac FFF7FEFF 		bl	set_imagen
1224:.\main.c      ****                     flujo_LCD1 = 9; 
 5102              		.loc 1 1224 0
 5103 0fb0 214B     		ldr	r3, .L659+12
 5104 0fb2 0922     		movs	r2, #9
 5105 0fb4 1A70     		strb	r2, [r3]
 5106              	.L241:
1225:.\main.c      ****     		    }
1226:.\main.c      ****     		}
1227:.\main.c      ****         }
1228:.\main.c      ****         if(seleccion_pos == 2){
 5107              		.loc 1 1228 0
 5108 0fb6 214B     		ldr	r3, .L659+16
 5109 0fb8 1B78     		ldrb	r3, [r3]
 5110 0fba DBB2     		uxtb	r3, r3
 5111 0fbc 022B     		cmp	r3, #2
 5112 0fbe 33D1     		bne	.L242
1229:.\main.c      ****     		CyDelay(10);
 5113              		.loc 1 1229 0
 5114 0fc0 0A20     		movs	r0, #10
 5115 0fc2 FFF7FEFF 		bl	CyDelay
1230:.\main.c      ****     		rventa2.manguera=estado_ex(lado2.dir);
 5116              		.loc 1 1230 0
 5117 0fc6 1B4B     		ldr	r3, .L659+8
ARM GAS  C:\Users\RECEPC~1\AppData\Local\Temp\cc2OimPl.s 			page 115


 5118 0fc8 1B78     		ldrb	r3, [r3]
 5119 0fca DBB2     		uxtb	r3, r3
 5120 0fcc 1846     		mov	r0, r3
 5121 0fce FFF7FEFF 		bl	estado_ex
 5122 0fd2 0346     		mov	r3, r0
 5123 0fd4 1A46     		mov	r2, r3
 5124 0fd6 154B     		ldr	r3, .L659
 5125 0fd8 9A76     		strb	r2, [r3, #26]
1231:.\main.c      ****     		if(rventa2.manguera!=0){			 
 5126              		.loc 1 1231 0
 5127 0fda 144B     		ldr	r3, .L659
 5128 0fdc 9B7E     		ldrb	r3, [r3, #26]	@ zero_extendqisi2
 5129 0fde 002B     		cmp	r3, #0
 5130 0fe0 22D0     		beq	.L242
1232:.\main.c      ****                 CyDelay(20);            
 5131              		.loc 1 1232 0
 5132 0fe2 1420     		movs	r0, #20
 5133 0fe4 FFF7FEFF 		bl	CyDelay
1233:.\main.c      ****     		    if(get_estado(lado2.dir)==7){
 5134              		.loc 1 1233 0
 5135 0fe8 124B     		ldr	r3, .L659+8
 5136 0fea 1B78     		ldrb	r3, [r3]
 5137 0fec DBB2     		uxtb	r3, r3
 5138 0fee 1846     		mov	r0, r3
 5139 0ff0 FFF7FEFF 		bl	get_estado
 5140 0ff4 0346     		mov	r3, r0
 5141 0ff6 072B     		cmp	r3, #7
 5142 0ff8 16D1     		bne	.L242
1234:.\main.c      ****                     isr_3_StartEx(animacion);  
 5143              		.loc 1 1234 0
 5144 0ffa 1348     		ldr	r0, .L659+28
 5145 0ffc FFF7FEFF 		bl	isr_3_StartEx
1235:.\main.c      **** 	                Timer_Animacion_Start(); 
 5146              		.loc 1 1235 0
 5147 1000 FFF7FEFF 		bl	Timer_Animacion_Start
1236:.\main.c      ****                     count_protector=0;
 5148              		.loc 1 1236 0
 5149 1004 114B     		ldr	r3, .L659+32
 5150 1006 0022     		movs	r2, #0
 5151 1008 1A70     		strb	r2, [r3]
1237:.\main.c      ****                     timeout_autorizacion=0;
 5152              		.loc 1 1237 0
 5153 100a 114B     		ldr	r3, .L659+36
 5154 100c 0022     		movs	r2, #0
 5155 100e 1A80     		strh	r2, [r3]	@ movhi
1238:.\main.c      ****     			    lado2.estado=listo;
 5156              		.loc 1 1238 0
 5157 1010 084B     		ldr	r3, .L659+8
 5158 1012 0422     		movs	r2, #4
 5159 1014 5A70     		strb	r2, [r3, #1]
1239:.\main.c      ****                     set_imagen(1,57);                                
 5160              		.loc 1 1239 0
 5161 1016 0120     		movs	r0, #1
 5162 1018 3921     		movs	r1, #57
 5163 101a FFF7FEFF 		bl	set_imagen
1240:.\main.c      ****                     flujo_LCD1 = 9;                    
 5164              		.loc 1 1240 0
ARM GAS  C:\Users\RECEPC~1\AppData\Local\Temp\cc2OimPl.s 			page 116


 5165 101e 064B     		ldr	r3, .L659+12
 5166 1020 0922     		movs	r2, #9
 5167 1022 1A70     		strb	r2, [r3]
1241:.\main.c      ****     		    }
1242:.\main.c      ****     		}
1243:.\main.c      ****         }
1244:.\main.c      ****         break;
 5168              		.loc 1 1244 0
 5169 1024 03F0E2BC 		b	.L115
 5170              	.L242:
 5171              		.loc 1 1244 0 is_stmt 0 discriminator 8
 5172 1028 03F0E0BC 		b	.L115
 5173              	.L660:
 5174              		.align	2
 5175              	.L659:
 5176 102c 00000000 		.word	rventa2
 5177 1030 00000000 		.word	rventa1
 5178 1034 00000000 		.word	lado2
 5179 1038 00000000 		.word	flujo_LCD1
 5180 103c 00000000 		.word	seleccion_pos
 5181 1040 00000000 		.word	LCD_1_rxBuffer
 5182 1044 00000000 		.word	lado1
 5183 1048 00000000 		.word	animacion
 5184 104c 00000000 		.word	count_protector
 5185 1050 00000000 		.word	timeout_autorizacion
 5186              	.L125:
1245:.\main.c      ****         
1246:.\main.c      ****         case 8:        
1247:.\main.c      **** 		 CyDelay(50);
 5187              		.loc 1 1247 0 is_stmt 1
 5188 1054 3220     		movs	r0, #50
 5189 1056 FFF7FEFF 		bl	CyDelay
1248:.\main.c      ****         if(seleccion_pos == 1){
 5190              		.loc 1 1248 0
 5191 105a AF4B     		ldr	r3, .L661
 5192 105c 1B78     		ldrb	r3, [r3]
 5193 105e DBB2     		uxtb	r3, r3
 5194 1060 012B     		cmp	r3, #1
 5195 1062 40F09B80 		bne	.L243
1249:.\main.c      **** 		 switch(get_estado(lado1.dir)){
 5196              		.loc 1 1249 0
 5197 1066 AD4B     		ldr	r3, .L661+4
 5198 1068 1B78     		ldrb	r3, [r3]
 5199 106a DBB2     		uxtb	r3, r3
 5200 106c 1846     		mov	r0, r3
 5201 106e FFF7FEFF 		bl	get_estado
 5202 1072 0346     		mov	r3, r0
 5203 1074 0A2B     		cmp	r3, #10
 5204 1076 32D0     		beq	.L244
 5205 1078 0B2B     		cmp	r3, #11
 5206 107a 02D0     		beq	.L245
 5207 107c 062B     		cmp	r3, #6
 5208 107e 59D0     		beq	.L246
 5209 1080 8CE0     		b	.L243
 5210              	.L245:
1250:.\main.c      **** 	         case 0x0B:                     //Termino venta
1251:.\main.c      **** 				CyDelay(100);
ARM GAS  C:\Users\RECEPC~1\AppData\Local\Temp\cc2OimPl.s 			page 117


 5211              		.loc 1 1251 0
 5212 1082 6420     		movs	r0, #100
 5213 1084 FFF7FEFF 		bl	CyDelay
1252:.\main.c      **** 				for(x=0;x<=8;x++){
 5214              		.loc 1 1252 0
 5215 1088 0023     		movs	r3, #0
 5216 108a 87F82F30 		strb	r3, [r7, #47]
 5217 108e 10E0     		b	.L247
 5218              	.L248:
1253:.\main.c      **** 					rventa1.dinero[x]=0;
 5219              		.loc 1 1253 0 discriminator 3
 5220 1090 97F82F30 		ldrb	r3, [r7, #47]	@ zero_extendqisi2
 5221 1094 A24A     		ldr	r2, .L661+8
 5222 1096 1344     		add	r3, r3, r2
 5223 1098 0022     		movs	r2, #0
 5224 109a DA71     		strb	r2, [r3, #7]
1254:.\main.c      **** 					rventa1.volumen[x]=0;
 5225              		.loc 1 1254 0 discriminator 3
 5226 109c 97F82F30 		ldrb	r3, [r7, #47]	@ zero_extendqisi2
 5227 10a0 9F4A     		ldr	r2, .L661+8
 5228 10a2 1344     		add	r3, r3, r2
 5229 10a4 0022     		movs	r2, #0
 5230 10a6 1A74     		strb	r2, [r3, #16]
1252:.\main.c      **** 				for(x=0;x<=8;x++){
 5231              		.loc 1 1252 0 discriminator 3
 5232 10a8 97F82F30 		ldrb	r3, [r7, #47]	@ zero_extendqisi2
 5233 10ac 0133     		adds	r3, r3, #1
 5234 10ae 87F82F30 		strb	r3, [r7, #47]
 5235              	.L247:
1252:.\main.c      **** 				for(x=0;x<=8;x++){
 5236              		.loc 1 1252 0 is_stmt 0 discriminator 1
 5237 10b2 97F82F30 		ldrb	r3, [r7, #47]	@ zero_extendqisi2
 5238 10b6 082B     		cmp	r3, #8
 5239 10b8 EAD9     		bls	.L248
1255:.\main.c      **** 				}					
1256:.\main.c      **** 				if(venta(lado1.dir)==1){
 5240              		.loc 1 1256 0 is_stmt 1
 5241 10ba 984B     		ldr	r3, .L661+4
 5242 10bc 1B78     		ldrb	r3, [r3]
 5243 10be DBB2     		uxtb	r3, r3
 5244 10c0 1846     		mov	r0, r3
 5245 10c2 FFF7FEFF 		bl	venta
 5246 10c6 0346     		mov	r3, r0
 5247 10c8 012B     		cmp	r3, #1
 5248 10ca 07D1     		bne	.L249
1257:.\main.c      **** 					flujo_LCD1 = 13;
 5249              		.loc 1 1257 0
 5250 10cc 954B     		ldr	r3, .L661+12
 5251 10ce 0D22     		movs	r2, #13
 5252 10d0 1A70     		strb	r2, [r3]
1258:.\main.c      **** 					set_imagen(1,57);
 5253              		.loc 1 1258 0
 5254 10d2 0120     		movs	r0, #1
 5255 10d4 3921     		movs	r1, #57
 5256 10d6 FFF7FEFF 		bl	set_imagen
1259:.\main.c      **** 				}	
1260:.\main.c      **** 			 break;	
ARM GAS  C:\Users\RECEPC~1\AppData\Local\Temp\cc2OimPl.s 			page 118


 5257              		.loc 1 1260 0
 5258 10da 5FE0     		b	.L243
 5259              	.L249:
 5260 10dc 5EE0     		b	.L243
 5261              	.L244:
1261:.\main.c      **** 				
1262:.\main.c      **** 	         case 0x0A:						//Termino venta
1263:.\main.c      **** 				for(x=0;x<=8;x++){
 5262              		.loc 1 1263 0
 5263 10de 0023     		movs	r3, #0
 5264 10e0 87F82F30 		strb	r3, [r7, #47]
 5265 10e4 10E0     		b	.L250
 5266              	.L251:
1264:.\main.c      **** 					rventa1.dinero[x]=0;
 5267              		.loc 1 1264 0 discriminator 3
 5268 10e6 97F82F30 		ldrb	r3, [r7, #47]	@ zero_extendqisi2
 5269 10ea 8D4A     		ldr	r2, .L661+8
 5270 10ec 1344     		add	r3, r3, r2
 5271 10ee 0022     		movs	r2, #0
 5272 10f0 DA71     		strb	r2, [r3, #7]
1265:.\main.c      **** 					rventa1.volumen[x]=0;
 5273              		.loc 1 1265 0 discriminator 3
 5274 10f2 97F82F30 		ldrb	r3, [r7, #47]	@ zero_extendqisi2
 5275 10f6 8A4A     		ldr	r2, .L661+8
 5276 10f8 1344     		add	r3, r3, r2
 5277 10fa 0022     		movs	r2, #0
 5278 10fc 1A74     		strb	r2, [r3, #16]
1263:.\main.c      **** 					rventa1.dinero[x]=0;
 5279              		.loc 1 1263 0 discriminator 3
 5280 10fe 97F82F30 		ldrb	r3, [r7, #47]	@ zero_extendqisi2
 5281 1102 0133     		adds	r3, r3, #1
 5282 1104 87F82F30 		strb	r3, [r7, #47]
 5283              	.L250:
1263:.\main.c      **** 					rventa1.dinero[x]=0;
 5284              		.loc 1 1263 0 is_stmt 0 discriminator 1
 5285 1108 97F82F30 		ldrb	r3, [r7, #47]	@ zero_extendqisi2
 5286 110c 082B     		cmp	r3, #8
 5287 110e EAD9     		bls	.L251
1266:.\main.c      **** 				}				
1267:.\main.c      **** 				if(venta(lado1.dir)==1){
 5288              		.loc 1 1267 0 is_stmt 1
 5289 1110 824B     		ldr	r3, .L661+4
 5290 1112 1B78     		ldrb	r3, [r3]
 5291 1114 DBB2     		uxtb	r3, r3
 5292 1116 1846     		mov	r0, r3
 5293 1118 FFF7FEFF 		bl	venta
 5294 111c 0346     		mov	r3, r0
 5295 111e 012B     		cmp	r3, #1
 5296 1120 07D1     		bne	.L252
1268:.\main.c      **** 					flujo_LCD1 = 13;
 5297              		.loc 1 1268 0
 5298 1122 804B     		ldr	r3, .L661+12
 5299 1124 0D22     		movs	r2, #13
 5300 1126 1A70     		strb	r2, [r3]
1269:.\main.c      **** 					set_imagen(1,57);
 5301              		.loc 1 1269 0
 5302 1128 0120     		movs	r0, #1
ARM GAS  C:\Users\RECEPC~1\AppData\Local\Temp\cc2OimPl.s 			page 119


 5303 112a 3921     		movs	r1, #57
 5304 112c FFF7FEFF 		bl	set_imagen
1270:.\main.c      **** 				}	
1271:.\main.c      **** 			 break;
 5305              		.loc 1 1271 0
 5306 1130 34E0     		b	.L243
 5307              	.L252:
 5308 1132 33E0     		b	.L243
 5309              	.L246:
1272:.\main.c      **** 
1273:.\main.c      **** 	         case 0x06:                     //No hizo venta
1274:.\main.c      **** 				for(x=0;x<=8;x++){
 5310              		.loc 1 1274 0
 5311 1134 0023     		movs	r3, #0
 5312 1136 87F82F30 		strb	r3, [r7, #47]
 5313 113a 10E0     		b	.L253
 5314              	.L254:
1275:.\main.c      **** 					rventa1.dinero[x]=0;
 5315              		.loc 1 1275 0 discriminator 3
 5316 113c 97F82F30 		ldrb	r3, [r7, #47]	@ zero_extendqisi2
 5317 1140 774A     		ldr	r2, .L661+8
 5318 1142 1344     		add	r3, r3, r2
 5319 1144 0022     		movs	r2, #0
 5320 1146 DA71     		strb	r2, [r3, #7]
1276:.\main.c      **** 					rventa1.volumen[x]=0;
 5321              		.loc 1 1276 0 discriminator 3
 5322 1148 97F82F30 		ldrb	r3, [r7, #47]	@ zero_extendqisi2
 5323 114c 744A     		ldr	r2, .L661+8
 5324 114e 1344     		add	r3, r3, r2
 5325 1150 0022     		movs	r2, #0
 5326 1152 1A74     		strb	r2, [r3, #16]
1274:.\main.c      **** 					rventa1.dinero[x]=0;
 5327              		.loc 1 1274 0 discriminator 3
 5328 1154 97F82F30 		ldrb	r3, [r7, #47]	@ zero_extendqisi2
 5329 1158 0133     		adds	r3, r3, #1
 5330 115a 87F82F30 		strb	r3, [r7, #47]
 5331              	.L253:
1274:.\main.c      **** 					rventa1.dinero[x]=0;
 5332              		.loc 1 1274 0 is_stmt 0 discriminator 1
 5333 115e 97F82F30 		ldrb	r3, [r7, #47]	@ zero_extendqisi2
 5334 1162 082B     		cmp	r3, #8
 5335 1164 EAD9     		bls	.L254
1277:.\main.c      **** 				}
1278:.\main.c      **** 				for(x=0;x<=4;x++){
 5336              		.loc 1 1278 0 is_stmt 1
 5337 1166 0023     		movs	r3, #0
 5338 1168 87F82F30 		strb	r3, [r7, #47]
 5339 116c 0AE0     		b	.L255
 5340              	.L256:
1279:.\main.c      **** 					rventa1.ppu[x]=0;
 5341              		.loc 1 1279 0 discriminator 3
 5342 116e 97F82F30 		ldrb	r3, [r7, #47]	@ zero_extendqisi2
 5343 1172 6B4A     		ldr	r2, .L661+8
 5344 1174 1344     		add	r3, r3, r2
 5345 1176 0022     		movs	r2, #0
 5346 1178 9A70     		strb	r2, [r3, #2]
1278:.\main.c      **** 					rventa1.ppu[x]=0;
ARM GAS  C:\Users\RECEPC~1\AppData\Local\Temp\cc2OimPl.s 			page 120


 5347              		.loc 1 1278 0 discriminator 3
 5348 117a 97F82F30 		ldrb	r3, [r7, #47]	@ zero_extendqisi2
 5349 117e 0133     		adds	r3, r3, #1
 5350 1180 87F82F30 		strb	r3, [r7, #47]
 5351              	.L255:
1278:.\main.c      **** 					rventa1.ppu[x]=0;
 5352              		.loc 1 1278 0 is_stmt 0 discriminator 1
 5353 1184 97F82F30 		ldrb	r3, [r7, #47]	@ zero_extendqisi2
 5354 1188 042B     		cmp	r3, #4
 5355 118a F0D9     		bls	.L256
1280:.\main.c      **** 				}				
1281:.\main.c      **** 				flujo_LCD1 = 13;
 5356              		.loc 1 1281 0 is_stmt 1
 5357 118c 654B     		ldr	r3, .L661+12
 5358 118e 0D22     		movs	r2, #13
 5359 1190 1A70     		strb	r2, [r3]
1282:.\main.c      **** 				set_imagen(1,57);		
 5360              		.loc 1 1282 0
 5361 1192 0120     		movs	r0, #1
 5362 1194 3921     		movs	r1, #57
 5363 1196 FFF7FEFF 		bl	set_imagen
1283:.\main.c      **** 			 break;				 	
 5364              		.loc 1 1283 0
 5365 119a 00BF     		nop
 5366              	.L243:
1284:.\main.c      ****          }	
1285:.\main.c      ****         }
1286:.\main.c      ****         if(seleccion_pos == 2){
 5367              		.loc 1 1286 0
 5368 119c 5E4B     		ldr	r3, .L661
 5369 119e 1B78     		ldrb	r3, [r3]
 5370 11a0 DBB2     		uxtb	r3, r3
 5371 11a2 022B     		cmp	r3, #2
 5372 11a4 40F09C80 		bne	.L257
1287:.\main.c      **** 		 switch(get_estado(lado2.dir)){
 5373              		.loc 1 1287 0
 5374 11a8 5F4B     		ldr	r3, .L661+16
 5375 11aa 1B78     		ldrb	r3, [r3]
 5376 11ac DBB2     		uxtb	r3, r3
 5377 11ae 1846     		mov	r0, r3
 5378 11b0 FFF7FEFF 		bl	get_estado
 5379 11b4 0346     		mov	r3, r0
 5380 11b6 0A2B     		cmp	r3, #10
 5381 11b8 33D0     		beq	.L258
 5382 11ba 0B2B     		cmp	r3, #11
 5383 11bc 03D0     		beq	.L259
 5384 11be 062B     		cmp	r3, #6
 5385 11c0 5AD0     		beq	.L260
1288:.\main.c      **** 	         case 0x0B:                     //Termino venta
1289:.\main.c      **** 				CyDelay(100);
1290:.\main.c      **** 				for(x=0;x<=8;x++){
1291:.\main.c      **** 					rventa2.dinero[x]=0;
1292:.\main.c      **** 					rventa2.volumen[x]=0;
1293:.\main.c      **** 				}					
1294:.\main.c      **** 				if(venta(lado2.dir)==1){
1295:.\main.c      **** 					flujo_LCD1 = 13;
1296:.\main.c      **** 					set_imagen(1,57);
ARM GAS  C:\Users\RECEPC~1\AppData\Local\Temp\cc2OimPl.s 			page 121


1297:.\main.c      **** 				}	
1298:.\main.c      **** 			 break;	
1299:.\main.c      **** 				
1300:.\main.c      **** 	         case 0x0A:						//Termino venta
1301:.\main.c      **** 				for(x=0;x<=8;x++){
1302:.\main.c      **** 					rventa2.dinero[x]=0;
1303:.\main.c      **** 					rventa2.volumen[x]=0;
1304:.\main.c      **** 				}				
1305:.\main.c      **** 				if(venta(lado2.dir)==1){
1306:.\main.c      **** 					flujo_LCD1 = 13;
1307:.\main.c      **** 					set_imagen(1,57);
1308:.\main.c      **** 				}	
1309:.\main.c      **** 			 break;
1310:.\main.c      **** 
1311:.\main.c      **** 	         case 0x06:                     //No hizo venta
1312:.\main.c      **** 				for(x=0;x<=8;x++){
1313:.\main.c      **** 					rventa2.dinero[x]=0;
1314:.\main.c      **** 					rventa2.volumen[x]=0;
1315:.\main.c      **** 				}
1316:.\main.c      **** 				for(x=0;x<=4;x++){
1317:.\main.c      **** 					rventa2.ppu[x]=0;
1318:.\main.c      **** 				}				
1319:.\main.c      **** 				flujo_LCD1 = 13;
1320:.\main.c      **** 				set_imagen(1,57);		
1321:.\main.c      **** 			 break;				 	
1322:.\main.c      ****          }	
1323:.\main.c      ****         }
1324:.\main.c      **** 		break;
 5386              		.loc 1 1324 0
 5387 11c2 03F013BC 		b	.L115
 5388              	.L259:
1289:.\main.c      **** 				for(x=0;x<=8;x++){
 5389              		.loc 1 1289 0
 5390 11c6 6420     		movs	r0, #100
 5391 11c8 FFF7FEFF 		bl	CyDelay
1290:.\main.c      **** 					rventa2.dinero[x]=0;
 5392              		.loc 1 1290 0
 5393 11cc 0023     		movs	r3, #0
 5394 11ce 87F82F30 		strb	r3, [r7, #47]
 5395 11d2 10E0     		b	.L261
 5396              	.L262:
1291:.\main.c      **** 					rventa2.volumen[x]=0;
 5397              		.loc 1 1291 0 discriminator 3
 5398 11d4 97F82F30 		ldrb	r3, [r7, #47]	@ zero_extendqisi2
 5399 11d8 544A     		ldr	r2, .L661+20
 5400 11da 1344     		add	r3, r3, r2
 5401 11dc 0022     		movs	r2, #0
 5402 11de DA71     		strb	r2, [r3, #7]
1292:.\main.c      **** 				}					
 5403              		.loc 1 1292 0 discriminator 3
 5404 11e0 97F82F30 		ldrb	r3, [r7, #47]	@ zero_extendqisi2
 5405 11e4 514A     		ldr	r2, .L661+20
 5406 11e6 1344     		add	r3, r3, r2
 5407 11e8 0022     		movs	r2, #0
 5408 11ea 1A74     		strb	r2, [r3, #16]
1290:.\main.c      **** 					rventa2.dinero[x]=0;
 5409              		.loc 1 1290 0 discriminator 3
ARM GAS  C:\Users\RECEPC~1\AppData\Local\Temp\cc2OimPl.s 			page 122


 5410 11ec 97F82F30 		ldrb	r3, [r7, #47]	@ zero_extendqisi2
 5411 11f0 0133     		adds	r3, r3, #1
 5412 11f2 87F82F30 		strb	r3, [r7, #47]
 5413              	.L261:
1290:.\main.c      **** 					rventa2.dinero[x]=0;
 5414              		.loc 1 1290 0 is_stmt 0 discriminator 1
 5415 11f6 97F82F30 		ldrb	r3, [r7, #47]	@ zero_extendqisi2
 5416 11fa 082B     		cmp	r3, #8
 5417 11fc EAD9     		bls	.L262
1294:.\main.c      **** 					flujo_LCD1 = 13;
 5418              		.loc 1 1294 0 is_stmt 1
 5419 11fe 4A4B     		ldr	r3, .L661+16
 5420 1200 1B78     		ldrb	r3, [r3]
 5421 1202 DBB2     		uxtb	r3, r3
 5422 1204 1846     		mov	r0, r3
 5423 1206 FFF7FEFF 		bl	venta
 5424 120a 0346     		mov	r3, r0
 5425 120c 012B     		cmp	r3, #1
 5426 120e 07D1     		bne	.L263
1295:.\main.c      **** 					set_imagen(1,57);
 5427              		.loc 1 1295 0
 5428 1210 444B     		ldr	r3, .L661+12
 5429 1212 0D22     		movs	r2, #13
 5430 1214 1A70     		strb	r2, [r3]
1296:.\main.c      **** 				}	
 5431              		.loc 1 1296 0
 5432 1216 0120     		movs	r0, #1
 5433 1218 3921     		movs	r1, #57
 5434 121a FFF7FEFF 		bl	set_imagen
1298:.\main.c      **** 				
 5435              		.loc 1 1298 0
 5436 121e 5FE0     		b	.L257
 5437              	.L263:
 5438 1220 5EE0     		b	.L257
 5439              	.L258:
1301:.\main.c      **** 					rventa2.dinero[x]=0;
 5440              		.loc 1 1301 0
 5441 1222 0023     		movs	r3, #0
 5442 1224 87F82F30 		strb	r3, [r7, #47]
 5443 1228 10E0     		b	.L264
 5444              	.L265:
1302:.\main.c      **** 					rventa2.volumen[x]=0;
 5445              		.loc 1 1302 0 discriminator 3
 5446 122a 97F82F30 		ldrb	r3, [r7, #47]	@ zero_extendqisi2
 5447 122e 3F4A     		ldr	r2, .L661+20
 5448 1230 1344     		add	r3, r3, r2
 5449 1232 0022     		movs	r2, #0
 5450 1234 DA71     		strb	r2, [r3, #7]
1303:.\main.c      **** 				}				
 5451              		.loc 1 1303 0 discriminator 3
 5452 1236 97F82F30 		ldrb	r3, [r7, #47]	@ zero_extendqisi2
 5453 123a 3C4A     		ldr	r2, .L661+20
 5454 123c 1344     		add	r3, r3, r2
 5455 123e 0022     		movs	r2, #0
 5456 1240 1A74     		strb	r2, [r3, #16]
1301:.\main.c      **** 					rventa2.dinero[x]=0;
 5457              		.loc 1 1301 0 discriminator 3
ARM GAS  C:\Users\RECEPC~1\AppData\Local\Temp\cc2OimPl.s 			page 123


 5458 1242 97F82F30 		ldrb	r3, [r7, #47]	@ zero_extendqisi2
 5459 1246 0133     		adds	r3, r3, #1
 5460 1248 87F82F30 		strb	r3, [r7, #47]
 5461              	.L264:
1301:.\main.c      **** 					rventa2.dinero[x]=0;
 5462              		.loc 1 1301 0 is_stmt 0 discriminator 1
 5463 124c 97F82F30 		ldrb	r3, [r7, #47]	@ zero_extendqisi2
 5464 1250 082B     		cmp	r3, #8
 5465 1252 EAD9     		bls	.L265
1305:.\main.c      **** 					flujo_LCD1 = 13;
 5466              		.loc 1 1305 0 is_stmt 1
 5467 1254 344B     		ldr	r3, .L661+16
 5468 1256 1B78     		ldrb	r3, [r3]
 5469 1258 DBB2     		uxtb	r3, r3
 5470 125a 1846     		mov	r0, r3
 5471 125c FFF7FEFF 		bl	venta
 5472 1260 0346     		mov	r3, r0
 5473 1262 012B     		cmp	r3, #1
 5474 1264 07D1     		bne	.L266
1306:.\main.c      **** 					set_imagen(1,57);
 5475              		.loc 1 1306 0
 5476 1266 2F4B     		ldr	r3, .L661+12
 5477 1268 0D22     		movs	r2, #13
 5478 126a 1A70     		strb	r2, [r3]
1307:.\main.c      **** 				}	
 5479              		.loc 1 1307 0
 5480 126c 0120     		movs	r0, #1
 5481 126e 3921     		movs	r1, #57
 5482 1270 FFF7FEFF 		bl	set_imagen
1309:.\main.c      **** 
 5483              		.loc 1 1309 0
 5484 1274 34E0     		b	.L257
 5485              	.L266:
1309:.\main.c      **** 
 5486              		.loc 1 1309 0 is_stmt 0 discriminator 10
 5487 1276 33E0     		b	.L257
 5488              	.L260:
1312:.\main.c      **** 					rventa2.dinero[x]=0;
 5489              		.loc 1 1312 0 is_stmt 1
 5490 1278 0023     		movs	r3, #0
 5491 127a 87F82F30 		strb	r3, [r7, #47]
 5492 127e 10E0     		b	.L267
 5493              	.L268:
1313:.\main.c      **** 					rventa2.volumen[x]=0;
 5494              		.loc 1 1313 0 discriminator 3
 5495 1280 97F82F30 		ldrb	r3, [r7, #47]	@ zero_extendqisi2
 5496 1284 294A     		ldr	r2, .L661+20
 5497 1286 1344     		add	r3, r3, r2
 5498 1288 0022     		movs	r2, #0
 5499 128a DA71     		strb	r2, [r3, #7]
1314:.\main.c      **** 				}
 5500              		.loc 1 1314 0 discriminator 3
 5501 128c 97F82F30 		ldrb	r3, [r7, #47]	@ zero_extendqisi2
 5502 1290 264A     		ldr	r2, .L661+20
 5503 1292 1344     		add	r3, r3, r2
 5504 1294 0022     		movs	r2, #0
 5505 1296 1A74     		strb	r2, [r3, #16]
ARM GAS  C:\Users\RECEPC~1\AppData\Local\Temp\cc2OimPl.s 			page 124


1312:.\main.c      **** 					rventa2.dinero[x]=0;
 5506              		.loc 1 1312 0 discriminator 3
 5507 1298 97F82F30 		ldrb	r3, [r7, #47]	@ zero_extendqisi2
 5508 129c 0133     		adds	r3, r3, #1
 5509 129e 87F82F30 		strb	r3, [r7, #47]
 5510              	.L267:
1312:.\main.c      **** 					rventa2.dinero[x]=0;
 5511              		.loc 1 1312 0 is_stmt 0 discriminator 1
 5512 12a2 97F82F30 		ldrb	r3, [r7, #47]	@ zero_extendqisi2
 5513 12a6 082B     		cmp	r3, #8
 5514 12a8 EAD9     		bls	.L268
1316:.\main.c      **** 					rventa2.ppu[x]=0;
 5515              		.loc 1 1316 0 is_stmt 1
 5516 12aa 0023     		movs	r3, #0
 5517 12ac 87F82F30 		strb	r3, [r7, #47]
 5518 12b0 0AE0     		b	.L269
 5519              	.L270:
1317:.\main.c      **** 				}				
 5520              		.loc 1 1317 0 discriminator 3
 5521 12b2 97F82F30 		ldrb	r3, [r7, #47]	@ zero_extendqisi2
 5522 12b6 1D4A     		ldr	r2, .L661+20
 5523 12b8 1344     		add	r3, r3, r2
 5524 12ba 0022     		movs	r2, #0
 5525 12bc 9A70     		strb	r2, [r3, #2]
1316:.\main.c      **** 					rventa2.ppu[x]=0;
 5526              		.loc 1 1316 0 discriminator 3
 5527 12be 97F82F30 		ldrb	r3, [r7, #47]	@ zero_extendqisi2
 5528 12c2 0133     		adds	r3, r3, #1
 5529 12c4 87F82F30 		strb	r3, [r7, #47]
 5530              	.L269:
1316:.\main.c      **** 					rventa2.ppu[x]=0;
 5531              		.loc 1 1316 0 is_stmt 0 discriminator 1
 5532 12c8 97F82F30 		ldrb	r3, [r7, #47]	@ zero_extendqisi2
 5533 12cc 042B     		cmp	r3, #4
 5534 12ce F0D9     		bls	.L270
1319:.\main.c      **** 				set_imagen(1,57);		
 5535              		.loc 1 1319 0 is_stmt 1
 5536 12d0 144B     		ldr	r3, .L661+12
 5537 12d2 0D22     		movs	r2, #13
 5538 12d4 1A70     		strb	r2, [r3]
1320:.\main.c      **** 			 break;				 	
 5539              		.loc 1 1320 0
 5540 12d6 0120     		movs	r0, #1
 5541 12d8 3921     		movs	r1, #57
 5542 12da FFF7FEFF 		bl	set_imagen
1321:.\main.c      ****          }	
 5543              		.loc 1 1321 0
 5544 12de 00BF     		nop
 5545              	.L257:
 5546              		.loc 1 1324 0 discriminator 9
 5547 12e0 03F084BB 		b	.L115
 5548              	.L126:
1325:.\main.c      ****         
1326:.\main.c      ****         case 9:
1327:.\main.c      **** 			rf_mod[0]='M';
 5549              		.loc 1 1327 0
 5550 12e4 124B     		ldr	r3, .L661+24
ARM GAS  C:\Users\RECEPC~1\AppData\Local\Temp\cc2OimPl.s 			page 125


 5551 12e6 4D22     		movs	r2, #77
 5552 12e8 1A70     		strb	r2, [r3]
1328:.\main.c      **** 			rf_mod[1]='U';
 5553              		.loc 1 1328 0
 5554 12ea 114B     		ldr	r3, .L661+24
 5555 12ec 5522     		movs	r2, #85
 5556 12ee 5A70     		strb	r2, [r3, #1]
1329:.\main.c      **** 			rf_mod[2]='X';
 5557              		.loc 1 1329 0
 5558 12f0 0F4B     		ldr	r3, .L661+24
 5559 12f2 5822     		movs	r2, #88
 5560 12f4 9A70     		strb	r2, [r3, #2]
1330:.\main.c      **** 			rf_mod[3]='0';
 5561              		.loc 1 1330 0
 5562 12f6 0E4B     		ldr	r3, .L661+24
 5563 12f8 3022     		movs	r2, #48
 5564 12fa DA70     		strb	r2, [r3, #3]
1331:.\main.c      ****             if(seleccion_pos == 1){
 5565              		.loc 1 1331 0
 5566 12fc 064B     		ldr	r3, .L661
 5567 12fe 1B78     		ldrb	r3, [r3]
 5568 1300 DBB2     		uxtb	r3, r3
 5569 1302 012B     		cmp	r3, #1
 5570 1304 40F03182 		bne	.L271
1332:.\main.c      ****                 if (tipo_venta == 1){
 5571              		.loc 1 1332 0
 5572 1308 0A4B     		ldr	r3, .L661+28
 5573 130a 1B78     		ldrb	r3, [r3]	@ zero_extendqisi2
 5574 130c 012B     		cmp	r3, #1
 5575 130e 52D1     		bne	.L272
1333:.\main.c      ****     			    for(x=0;x<=15;x++){						//Serial				
 5576              		.loc 1 1333 0
 5577 1310 0023     		movs	r3, #0
 5578 1312 87F82F30 		strb	r3, [r7, #47]
 5579 1316 4AE0     		b	.L273
 5580              	.L662:
 5581              		.align	2
 5582              	.L661:
 5583 1318 00000000 		.word	seleccion_pos
 5584 131c 00000000 		.word	lado1
 5585 1320 00000000 		.word	rventa1
 5586 1324 00000000 		.word	flujo_LCD1
 5587 1328 00000000 		.word	lado2
 5588 132c 00000000 		.word	rventa2
 5589 1330 00000000 		.word	rf_mod
 5590 1334 00000000 		.word	tipo_venta
 5591              	.L276:
1334:.\main.c      ****     				    y=(rventa1.id[x/2]>>4)&0x0F;
 5592              		.loc 1 1334 0
 5593 1338 97F82F30 		ldrb	r3, [r7, #47]	@ zero_extendqisi2
 5594 133c 5B08     		lsrs	r3, r3, #1
 5595 133e DBB2     		uxtb	r3, r3
 5596 1340 1A46     		mov	r2, r3
 5597 1342 214B     		ldr	r3, .L663
 5598 1344 1344     		add	r3, r3, r2
 5599 1346 93F82330 		ldrb	r3, [r3, #35]	@ zero_extendqisi2
 5600 134a 1B09     		lsrs	r3, r3, #4
ARM GAS  C:\Users\RECEPC~1\AppData\Local\Temp\cc2OimPl.s 			page 126


 5601 134c 87F82E30 		strb	r3, [r7, #46]
1335:.\main.c      ****     				    if((x%2)==0){
 5602              		.loc 1 1335 0
 5603 1350 97F82F30 		ldrb	r3, [r7, #47]
 5604 1354 03F00103 		and	r3, r3, #1
 5605 1358 DBB2     		uxtb	r3, r3
 5606 135a 002B     		cmp	r3, #0
 5607 135c 0CD1     		bne	.L274
1336:.\main.c      ****     					    y=rventa1.id[x/2]&0x0F;
 5608              		.loc 1 1336 0
 5609 135e 97F82F30 		ldrb	r3, [r7, #47]	@ zero_extendqisi2
 5610 1362 5B08     		lsrs	r3, r3, #1
 5611 1364 DBB2     		uxtb	r3, r3
 5612 1366 1A46     		mov	r2, r3
 5613 1368 174B     		ldr	r3, .L663
 5614 136a 1344     		add	r3, r3, r2
 5615 136c 93F82330 		ldrb	r3, [r3, #35]	@ zero_extendqisi2
 5616 1370 03F00F03 		and	r3, r3, #15
 5617 1374 87F82E30 		strb	r3, [r7, #46]
 5618              	.L274:
1337:.\main.c      ****     				    }
1338:.\main.c      ****     				    rf_mod[x+4] = y+48;
 5619              		.loc 1 1338 0
 5620 1378 97F82F30 		ldrb	r3, [r7, #47]	@ zero_extendqisi2
 5621 137c 0433     		adds	r3, r3, #4
 5622 137e 97F82E20 		ldrb	r2, [r7, #46]
 5623 1382 3032     		adds	r2, r2, #48
 5624 1384 D1B2     		uxtb	r1, r2
 5625 1386 114A     		ldr	r2, .L663+4
 5626 1388 D154     		strb	r1, [r2, r3]
1339:.\main.c      ****     				    if(y>9){
 5627              		.loc 1 1339 0
 5628 138a 97F82E30 		ldrb	r3, [r7, #46]	@ zero_extendqisi2
 5629 138e 092B     		cmp	r3, #9
 5630 1390 08D9     		bls	.L275
1340:.\main.c      ****     					    rf_mod[x+4] = y+55;
 5631              		.loc 1 1340 0
 5632 1392 97F82F30 		ldrb	r3, [r7, #47]	@ zero_extendqisi2
 5633 1396 0433     		adds	r3, r3, #4
 5634 1398 97F82E20 		ldrb	r2, [r7, #46]
 5635 139c 3732     		adds	r2, r2, #55
 5636 139e D1B2     		uxtb	r1, r2
 5637 13a0 0A4A     		ldr	r2, .L663+4
 5638 13a2 D154     		strb	r1, [r2, r3]
 5639              	.L275:
1333:.\main.c      ****     				    y=(rventa1.id[x/2]>>4)&0x0F;
 5640              		.loc 1 1333 0 discriminator 2
 5641 13a4 97F82F30 		ldrb	r3, [r7, #47]	@ zero_extendqisi2
 5642 13a8 0133     		adds	r3, r3, #1
 5643 13aa 87F82F30 		strb	r3, [r7, #47]
 5644              	.L273:
1333:.\main.c      ****     				    y=(rventa1.id[x/2]>>4)&0x0F;
 5645              		.loc 1 1333 0 is_stmt 0 discriminator 1
 5646 13ae 97F82F30 		ldrb	r3, [r7, #47]	@ zero_extendqisi2
 5647 13b2 0F2B     		cmp	r3, #15
 5648 13b4 C0D9     		bls	.L276
 5649              	.L272:
ARM GAS  C:\Users\RECEPC~1\AppData\Local\Temp\cc2OimPl.s 			page 127


1341:.\main.c      ****     				    }
1342:.\main.c      ****     			    }                
1343:.\main.c      ****                 }
1344:.\main.c      ****                 if(tipo_venta == 0){
 5650              		.loc 1 1344 0 is_stmt 1
 5651 13b6 064B     		ldr	r3, .L663+8
 5652 13b8 1B78     		ldrb	r3, [r3]	@ zero_extendqisi2
 5653 13ba 002B     		cmp	r3, #0
 5654 13bc 49D1     		bne	.L277
1345:.\main.c      ****                     for(x=0;x<=15;x++){						//Serial				
 5655              		.loc 1 1345 0
 5656 13be 0023     		movs	r3, #0
 5657 13c0 87F82F30 		strb	r3, [r7, #47]
 5658 13c4 41E0     		b	.L278
 5659              	.L664:
 5660 13c6 00BF     		.align	2
 5661              	.L663:
 5662 13c8 00000000 		.word	rventa1
 5663 13cc 00000000 		.word	rf_mod
 5664 13d0 00000000 		.word	tipo_venta
 5665              	.L281:
1346:.\main.c      ****     				    y=(rventa1.id[x/2]>>4)&0x0F;
 5666              		.loc 1 1346 0
 5667 13d4 97F82F30 		ldrb	r3, [r7, #47]	@ zero_extendqisi2
 5668 13d8 5B08     		lsrs	r3, r3, #1
 5669 13da DBB2     		uxtb	r3, r3
 5670 13dc 1A46     		mov	r2, r3
 5671 13de B54B     		ldr	r3, .L665
 5672 13e0 1344     		add	r3, r3, r2
 5673 13e2 93F82330 		ldrb	r3, [r3, #35]	@ zero_extendqisi2
 5674 13e6 1B09     		lsrs	r3, r3, #4
 5675 13e8 87F82E30 		strb	r3, [r7, #46]
1347:.\main.c      ****     				    if((x%2)==0){
 5676              		.loc 1 1347 0
 5677 13ec 97F82F30 		ldrb	r3, [r7, #47]
 5678 13f0 03F00103 		and	r3, r3, #1
 5679 13f4 DBB2     		uxtb	r3, r3
 5680 13f6 002B     		cmp	r3, #0
 5681 13f8 0CD1     		bne	.L279
1348:.\main.c      ****     					    y=rventa1.id[x/2]&0x0F;
 5682              		.loc 1 1348 0
 5683 13fa 97F82F30 		ldrb	r3, [r7, #47]	@ zero_extendqisi2
 5684 13fe 5B08     		lsrs	r3, r3, #1
 5685 1400 DBB2     		uxtb	r3, r3
 5686 1402 1A46     		mov	r2, r3
 5687 1404 AB4B     		ldr	r3, .L665
 5688 1406 1344     		add	r3, r3, r2
 5689 1408 93F82330 		ldrb	r3, [r3, #35]	@ zero_extendqisi2
 5690 140c 03F00F03 		and	r3, r3, #15
 5691 1410 87F82E30 		strb	r3, [r7, #46]
 5692              	.L279:
1349:.\main.c      ****     				    }
1350:.\main.c      ****     				    rf_mod[x+4] = y+48;
 5693              		.loc 1 1350 0
 5694 1414 97F82F30 		ldrb	r3, [r7, #47]	@ zero_extendqisi2
 5695 1418 0433     		adds	r3, r3, #4
 5696 141a 97F82E20 		ldrb	r2, [r7, #46]
ARM GAS  C:\Users\RECEPC~1\AppData\Local\Temp\cc2OimPl.s 			page 128


 5697 141e 3032     		adds	r2, r2, #48
 5698 1420 D1B2     		uxtb	r1, r2
 5699 1422 A54A     		ldr	r2, .L665+4
 5700 1424 D154     		strb	r1, [r2, r3]
1351:.\main.c      ****     				    if(y>9){
 5701              		.loc 1 1351 0
 5702 1426 97F82E30 		ldrb	r3, [r7, #46]	@ zero_extendqisi2
 5703 142a 092B     		cmp	r3, #9
 5704 142c 08D9     		bls	.L280
1352:.\main.c      ****     					    rf_mod[x+4] = y+55;
 5705              		.loc 1 1352 0
 5706 142e 97F82F30 		ldrb	r3, [r7, #47]	@ zero_extendqisi2
 5707 1432 0433     		adds	r3, r3, #4
 5708 1434 97F82E20 		ldrb	r2, [r7, #46]
 5709 1438 3732     		adds	r2, r2, #55
 5710 143a D1B2     		uxtb	r1, r2
 5711 143c 9E4A     		ldr	r2, .L665+4
 5712 143e D154     		strb	r1, [r2, r3]
 5713              	.L280:
1345:.\main.c      ****     				    y=(rventa1.id[x/2]>>4)&0x0F;
 5714              		.loc 1 1345 0 discriminator 2
 5715 1440 97F82F30 		ldrb	r3, [r7, #47]	@ zero_extendqisi2
 5716 1444 0133     		adds	r3, r3, #1
 5717 1446 87F82F30 		strb	r3, [r7, #47]
 5718              	.L278:
1345:.\main.c      ****     				    y=(rventa1.id[x/2]>>4)&0x0F;
 5719              		.loc 1 1345 0 is_stmt 0 discriminator 1
 5720 144a 97F82F30 		ldrb	r3, [r7, #47]	@ zero_extendqisi2
 5721 144e 0F2B     		cmp	r3, #15
 5722 1450 C0D9     		bls	.L281
 5723              	.L277:
1353:.\main.c      ****     				    }
1354:.\main.c      ****     			    }
1355:.\main.c      ****                 }
1356:.\main.c      ****     			rf_mod[20]=(lado1.grado[rventa1.manguera-1][0])+48;			//Id Producto
 5724              		.loc 1 1356 0 is_stmt 1
 5725 1452 984B     		ldr	r3, .L665
 5726 1454 9B7E     		ldrb	r3, [r3, #26]	@ zero_extendqisi2
 5727 1456 013B     		subs	r3, r3, #1
 5728 1458 984A     		ldr	r2, .L665+8
 5729 145a 1344     		add	r3, r3, r2
 5730 145c 93F85930 		ldrb	r3, [r3, #89]
 5731 1460 DBB2     		uxtb	r3, r3
 5732 1462 3033     		adds	r3, r3, #48
 5733 1464 DAB2     		uxtb	r2, r3
 5734 1466 944B     		ldr	r3, .L665+4
 5735 1468 1A75     		strb	r2, [r3, #20]
1357:.\main.c      ****                 if(tipo_venta == 0){
 5736              		.loc 1 1357 0
 5737 146a 954B     		ldr	r3, .L665+12
 5738 146c 1B78     		ldrb	r3, [r3]	@ zero_extendqisi2
 5739 146e 002B     		cmp	r3, #0
 5740 1470 13D1     		bne	.L282
1358:.\main.c      ****                     rf_mod[21]= id_estacion[4];								    //Id vehiculo
 5741              		.loc 1 1358 0
 5742 1472 944B     		ldr	r3, .L665+16
 5743 1474 1B79     		ldrb	r3, [r3, #4]
ARM GAS  C:\Users\RECEPC~1\AppData\Local\Temp\cc2OimPl.s 			page 129


 5744 1476 DAB2     		uxtb	r2, r3
 5745 1478 8F4B     		ldr	r3, .L665+4
 5746 147a 5A75     		strb	r2, [r3, #21]
1359:.\main.c      ****     			    rf_mod[22]= id_estacion[3];
 5747              		.loc 1 1359 0
 5748 147c 914B     		ldr	r3, .L665+16
 5749 147e DB78     		ldrb	r3, [r3, #3]
 5750 1480 DAB2     		uxtb	r2, r3
 5751 1482 8D4B     		ldr	r3, .L665+4
 5752 1484 9A75     		strb	r2, [r3, #22]
1360:.\main.c      ****     			    rf_mod[23]= id_estacion[2];
 5753              		.loc 1 1360 0
 5754 1486 8F4B     		ldr	r3, .L665+16
 5755 1488 9B78     		ldrb	r3, [r3, #2]
 5756 148a DAB2     		uxtb	r2, r3
 5757 148c 8A4B     		ldr	r3, .L665+4
 5758 148e DA75     		strb	r2, [r3, #23]
1361:.\main.c      ****     			    rf_mod[24]= id_estacion[1];  
 5759              		.loc 1 1361 0
 5760 1490 8C4B     		ldr	r3, .L665+16
 5761 1492 5B78     		ldrb	r3, [r3, #1]
 5762 1494 DAB2     		uxtb	r2, r3
 5763 1496 884B     		ldr	r3, .L665+4
 5764 1498 1A76     		strb	r2, [r3, #24]
 5765              	.L282:
1362:.\main.c      ****                 }
1363:.\main.c      ****     			if(tipo_venta == 1){
 5766              		.loc 1 1363 0
 5767 149a 894B     		ldr	r3, .L665+12
 5768 149c 1B78     		ldrb	r3, [r3]	@ zero_extendqisi2
 5769 149e 012B     		cmp	r3, #1
 5770 14a0 0BD1     		bne	.L283
1364:.\main.c      ****                     rf_mod[21]= '0';								    //Id Estación
 5771              		.loc 1 1364 0
 5772 14a2 854B     		ldr	r3, .L665+4
 5773 14a4 3022     		movs	r2, #48
 5774 14a6 5A75     		strb	r2, [r3, #21]
1365:.\main.c      ****     			    rf_mod[22]= '0';
 5775              		.loc 1 1365 0
 5776 14a8 834B     		ldr	r3, .L665+4
 5777 14aa 3022     		movs	r2, #48
 5778 14ac 9A75     		strb	r2, [r3, #22]
1366:.\main.c      ****     			    rf_mod[23]= '0';
 5779              		.loc 1 1366 0
 5780 14ae 824B     		ldr	r3, .L665+4
 5781 14b0 3022     		movs	r2, #48
 5782 14b2 DA75     		strb	r2, [r3, #23]
1367:.\main.c      ****     			    rf_mod[24]= '0';  
 5783              		.loc 1 1367 0
 5784 14b4 804B     		ldr	r3, .L665+4
 5785 14b6 3022     		movs	r2, #48
 5786 14b8 1A76     		strb	r2, [r3, #24]
 5787              	.L283:
1368:.\main.c      ****                 } 
1369:.\main.c      ****                 
1370:.\main.c      ****                 if(ppux10==0){
 5788              		.loc 1 1370 0
ARM GAS  C:\Users\RECEPC~1\AppData\Local\Temp\cc2OimPl.s 			page 130


 5789 14ba 834B     		ldr	r3, .L665+20
 5790 14bc 1B78     		ldrb	r3, [r3]
 5791 14be DBB2     		uxtb	r3, r3
 5792 14c0 002B     		cmp	r3, #0
 5793 14c2 59D1     		bne	.L284
1371:.\main.c      ****         			rf_mod[25]=(lado1.ppu[rventa1.manguera-1][4]&0x0F)+0x30;		//PPU
 5794              		.loc 1 1371 0
 5795 14c4 7B4B     		ldr	r3, .L665
 5796 14c6 9B7E     		ldrb	r3, [r3, #26]	@ zero_extendqisi2
 5797 14c8 5A1E     		subs	r2, r3, #1
 5798 14ca 7C49     		ldr	r1, .L665+8
 5799 14cc 1346     		mov	r3, r2
 5800 14ce 9B00     		lsls	r3, r3, #2
 5801 14d0 1344     		add	r3, r3, r2
 5802 14d2 0B44     		add	r3, r3, r1
 5803 14d4 4C33     		adds	r3, r3, #76
 5804 14d6 9B78     		ldrb	r3, [r3, #2]
 5805 14d8 DBB2     		uxtb	r3, r3
 5806 14da 03F00F03 		and	r3, r3, #15
 5807 14de DBB2     		uxtb	r3, r3
 5808 14e0 3033     		adds	r3, r3, #48
 5809 14e2 DAB2     		uxtb	r2, r3
 5810 14e4 744B     		ldr	r3, .L665+4
 5811 14e6 5A76     		strb	r2, [r3, #25]
1372:.\main.c      ****         			rf_mod[26]=(lado1.ppu[rventa1.manguera-1][3]&0x0F)+0x30;
 5812              		.loc 1 1372 0
 5813 14e8 724B     		ldr	r3, .L665
 5814 14ea 9B7E     		ldrb	r3, [r3, #26]	@ zero_extendqisi2
 5815 14ec 5A1E     		subs	r2, r3, #1
 5816 14ee 7349     		ldr	r1, .L665+8
 5817 14f0 1346     		mov	r3, r2
 5818 14f2 9B00     		lsls	r3, r3, #2
 5819 14f4 1344     		add	r3, r3, r2
 5820 14f6 0B44     		add	r3, r3, r1
 5821 14f8 4B33     		adds	r3, r3, #75
 5822 14fa 9B78     		ldrb	r3, [r3, #2]
 5823 14fc DBB2     		uxtb	r3, r3
 5824 14fe 03F00F03 		and	r3, r3, #15
 5825 1502 DBB2     		uxtb	r3, r3
 5826 1504 3033     		adds	r3, r3, #48
 5827 1506 DAB2     		uxtb	r2, r3
 5828 1508 6B4B     		ldr	r3, .L665+4
 5829 150a 9A76     		strb	r2, [r3, #26]
1373:.\main.c      ****         			rf_mod[27]=(lado1.ppu[rventa1.manguera-1][2]&0x0F)+0x30;
 5830              		.loc 1 1373 0
 5831 150c 694B     		ldr	r3, .L665
 5832 150e 9B7E     		ldrb	r3, [r3, #26]	@ zero_extendqisi2
 5833 1510 5A1E     		subs	r2, r3, #1
 5834 1512 6A49     		ldr	r1, .L665+8
 5835 1514 1346     		mov	r3, r2
 5836 1516 9B00     		lsls	r3, r3, #2
 5837 1518 1344     		add	r3, r3, r2
 5838 151a 0B44     		add	r3, r3, r1
 5839 151c 4A33     		adds	r3, r3, #74
 5840 151e 9B78     		ldrb	r3, [r3, #2]
 5841 1520 DBB2     		uxtb	r3, r3
 5842 1522 03F00F03 		and	r3, r3, #15
ARM GAS  C:\Users\RECEPC~1\AppData\Local\Temp\cc2OimPl.s 			page 131


 5843 1526 DBB2     		uxtb	r3, r3
 5844 1528 3033     		adds	r3, r3, #48
 5845 152a DAB2     		uxtb	r2, r3
 5846 152c 624B     		ldr	r3, .L665+4
 5847 152e DA76     		strb	r2, [r3, #27]
1374:.\main.c      ****         			rf_mod[28]=(lado1.ppu[rventa1.manguera-1][1]&0x0F)+0x30;
 5848              		.loc 1 1374 0
 5849 1530 604B     		ldr	r3, .L665
 5850 1532 9B7E     		ldrb	r3, [r3, #26]	@ zero_extendqisi2
 5851 1534 5A1E     		subs	r2, r3, #1
 5852 1536 6149     		ldr	r1, .L665+8
 5853 1538 1346     		mov	r3, r2
 5854 153a 9B00     		lsls	r3, r3, #2
 5855 153c 1344     		add	r3, r3, r2
 5856 153e 0B44     		add	r3, r3, r1
 5857 1540 4933     		adds	r3, r3, #73
 5858 1542 9B78     		ldrb	r3, [r3, #2]
 5859 1544 DBB2     		uxtb	r3, r3
 5860 1546 03F00F03 		and	r3, r3, #15
 5861 154a DBB2     		uxtb	r3, r3
 5862 154c 3033     		adds	r3, r3, #48
 5863 154e DAB2     		uxtb	r2, r3
 5864 1550 594B     		ldr	r3, .L665+4
 5865 1552 1A77     		strb	r2, [r3, #28]
1375:.\main.c      ****         			rf_mod[29]=(lado1.ppu[rventa1.manguera-1][0]&0x0F)+0x30;
 5866              		.loc 1 1375 0
 5867 1554 574B     		ldr	r3, .L665
 5868 1556 9B7E     		ldrb	r3, [r3, #26]	@ zero_extendqisi2
 5869 1558 5A1E     		subs	r2, r3, #1
 5870 155a 5849     		ldr	r1, .L665+8
 5871 155c 1346     		mov	r3, r2
 5872 155e 9B00     		lsls	r3, r3, #2
 5873 1560 1344     		add	r3, r3, r2
 5874 1562 0B44     		add	r3, r3, r1
 5875 1564 4833     		adds	r3, r3, #72
 5876 1566 9B78     		ldrb	r3, [r3, #2]
 5877 1568 DBB2     		uxtb	r3, r3
 5878 156a 03F00F03 		and	r3, r3, #15
 5879 156e DBB2     		uxtb	r3, r3
 5880 1570 3033     		adds	r3, r3, #48
 5881 1572 DAB2     		uxtb	r2, r3
 5882 1574 504B     		ldr	r3, .L665+4
 5883 1576 5A77     		strb	r2, [r3, #29]
 5884              	.L284:
1376:.\main.c      ****                 }
1377:.\main.c      ****                 if(ppux10==1){
 5885              		.loc 1 1377 0
 5886 1578 534B     		ldr	r3, .L665+20
 5887 157a 1B78     		ldrb	r3, [r3]
 5888 157c DBB2     		uxtb	r3, r3
 5889 157e 012B     		cmp	r3, #1
 5890 1580 4AD1     		bne	.L285
1378:.\main.c      ****         			rf_mod[25]=(lado1.ppu[rventa1.manguera-1][3]&0x0F)+0x30;		//PPUx10
 5891              		.loc 1 1378 0
 5892 1582 4C4B     		ldr	r3, .L665
 5893 1584 9B7E     		ldrb	r3, [r3, #26]	@ zero_extendqisi2
 5894 1586 5A1E     		subs	r2, r3, #1
ARM GAS  C:\Users\RECEPC~1\AppData\Local\Temp\cc2OimPl.s 			page 132


 5895 1588 4C49     		ldr	r1, .L665+8
 5896 158a 1346     		mov	r3, r2
 5897 158c 9B00     		lsls	r3, r3, #2
 5898 158e 1344     		add	r3, r3, r2
 5899 1590 0B44     		add	r3, r3, r1
 5900 1592 4B33     		adds	r3, r3, #75
 5901 1594 9B78     		ldrb	r3, [r3, #2]
 5902 1596 DBB2     		uxtb	r3, r3
 5903 1598 03F00F03 		and	r3, r3, #15
 5904 159c DBB2     		uxtb	r3, r3
 5905 159e 3033     		adds	r3, r3, #48
 5906 15a0 DAB2     		uxtb	r2, r3
 5907 15a2 454B     		ldr	r3, .L665+4
 5908 15a4 5A76     		strb	r2, [r3, #25]
1379:.\main.c      ****         			rf_mod[26]=(lado1.ppu[rventa1.manguera-1][2]&0x0F)+0x30;
 5909              		.loc 1 1379 0
 5910 15a6 434B     		ldr	r3, .L665
 5911 15a8 9B7E     		ldrb	r3, [r3, #26]	@ zero_extendqisi2
 5912 15aa 5A1E     		subs	r2, r3, #1
 5913 15ac 4349     		ldr	r1, .L665+8
 5914 15ae 1346     		mov	r3, r2
 5915 15b0 9B00     		lsls	r3, r3, #2
 5916 15b2 1344     		add	r3, r3, r2
 5917 15b4 0B44     		add	r3, r3, r1
 5918 15b6 4A33     		adds	r3, r3, #74
 5919 15b8 9B78     		ldrb	r3, [r3, #2]
 5920 15ba DBB2     		uxtb	r3, r3
 5921 15bc 03F00F03 		and	r3, r3, #15
 5922 15c0 DBB2     		uxtb	r3, r3
 5923 15c2 3033     		adds	r3, r3, #48
 5924 15c4 DAB2     		uxtb	r2, r3
 5925 15c6 3C4B     		ldr	r3, .L665+4
 5926 15c8 9A76     		strb	r2, [r3, #26]
1380:.\main.c      ****         			rf_mod[27]=(lado1.ppu[rventa1.manguera-1][1]&0x0F)+0x30;
 5927              		.loc 1 1380 0
 5928 15ca 3A4B     		ldr	r3, .L665
 5929 15cc 9B7E     		ldrb	r3, [r3, #26]	@ zero_extendqisi2
 5930 15ce 5A1E     		subs	r2, r3, #1
 5931 15d0 3A49     		ldr	r1, .L665+8
 5932 15d2 1346     		mov	r3, r2
 5933 15d4 9B00     		lsls	r3, r3, #2
 5934 15d6 1344     		add	r3, r3, r2
 5935 15d8 0B44     		add	r3, r3, r1
 5936 15da 4933     		adds	r3, r3, #73
 5937 15dc 9B78     		ldrb	r3, [r3, #2]
 5938 15de DBB2     		uxtb	r3, r3
 5939 15e0 03F00F03 		and	r3, r3, #15
 5940 15e4 DBB2     		uxtb	r3, r3
 5941 15e6 3033     		adds	r3, r3, #48
 5942 15e8 DAB2     		uxtb	r2, r3
 5943 15ea 334B     		ldr	r3, .L665+4
 5944 15ec DA76     		strb	r2, [r3, #27]
1381:.\main.c      ****         			rf_mod[28]=(lado1.ppu[rventa1.manguera-1][0]&0x0F)+0x30;
 5945              		.loc 1 1381 0
 5946 15ee 314B     		ldr	r3, .L665
 5947 15f0 9B7E     		ldrb	r3, [r3, #26]	@ zero_extendqisi2
 5948 15f2 5A1E     		subs	r2, r3, #1
ARM GAS  C:\Users\RECEPC~1\AppData\Local\Temp\cc2OimPl.s 			page 133


 5949 15f4 3149     		ldr	r1, .L665+8
 5950 15f6 1346     		mov	r3, r2
 5951 15f8 9B00     		lsls	r3, r3, #2
 5952 15fa 1344     		add	r3, r3, r2
 5953 15fc 0B44     		add	r3, r3, r1
 5954 15fe 4833     		adds	r3, r3, #72
 5955 1600 9B78     		ldrb	r3, [r3, #2]
 5956 1602 DBB2     		uxtb	r3, r3
 5957 1604 03F00F03 		and	r3, r3, #15
 5958 1608 DBB2     		uxtb	r3, r3
 5959 160a 3033     		adds	r3, r3, #48
 5960 160c DAB2     		uxtb	r2, r3
 5961 160e 2A4B     		ldr	r3, .L665+4
 5962 1610 1A77     		strb	r2, [r3, #28]
1382:.\main.c      ****         			rf_mod[29]=0x30;   
 5963              		.loc 1 1382 0
 5964 1612 294B     		ldr	r3, .L665+4
 5965 1614 3022     		movs	r2, #48
 5966 1616 5A77     		strb	r2, [r3, #29]
 5967              	.L285:
1383:.\main.c      ****                 }
1384:.\main.c      ****     			rf_mod[30]=(rventa1.preset[0]+48);								//Tipo de Preset
 5968              		.loc 1 1384 0
 5969 1618 264B     		ldr	r3, .L665
 5970 161a DB7E     		ldrb	r3, [r3, #27]	@ zero_extendqisi2
 5971 161c 3033     		adds	r3, r3, #48
 5972 161e DAB2     		uxtb	r2, r3
 5973 1620 254B     		ldr	r3, .L665+4
 5974 1622 9A77     		strb	r2, [r3, #30]
1385:.\main.c      ****     			rf_mod[31]=rventa1.preset[7];									//Preset
 5975              		.loc 1 1385 0
 5976 1624 234B     		ldr	r3, .L665
 5977 1626 93F82220 		ldrb	r2, [r3, #34]	@ zero_extendqisi2
 5978 162a 234B     		ldr	r3, .L665+4
 5979 162c DA77     		strb	r2, [r3, #31]
1386:.\main.c      ****     			if(rventa1.preset[7]<10){				
 5980              		.loc 1 1386 0
 5981 162e 214B     		ldr	r3, .L665
 5982 1630 93F82230 		ldrb	r3, [r3, #34]	@ zero_extendqisi2
 5983 1634 092B     		cmp	r3, #9
 5984 1636 06D8     		bhi	.L286
1387:.\main.c      ****     				rf_mod[31]=rventa1.preset[7]+0x30;							
 5985              		.loc 1 1387 0
 5986 1638 1E4B     		ldr	r3, .L665
 5987 163a 93F82230 		ldrb	r3, [r3, #34]	@ zero_extendqisi2
 5988 163e 3033     		adds	r3, r3, #48
 5989 1640 DAB2     		uxtb	r2, r3
 5990 1642 1D4B     		ldr	r3, .L665+4
 5991 1644 DA77     		strb	r2, [r3, #31]
 5992              	.L286:
1388:.\main.c      ****     			}
1389:.\main.c      ****     			rf_mod[32]=rventa1.preset[6];
 5993              		.loc 1 1389 0
 5994 1646 1B4B     		ldr	r3, .L665
 5995 1648 93F82120 		ldrb	r2, [r3, #33]	@ zero_extendqisi2
 5996 164c 1A4B     		ldr	r3, .L665+4
 5997 164e 83F82020 		strb	r2, [r3, #32]
ARM GAS  C:\Users\RECEPC~1\AppData\Local\Temp\cc2OimPl.s 			page 134


1390:.\main.c      ****     			if(rventa1.preset[6]<10){				
 5998              		.loc 1 1390 0
 5999 1652 184B     		ldr	r3, .L665
 6000 1654 93F82130 		ldrb	r3, [r3, #33]	@ zero_extendqisi2
 6001 1658 092B     		cmp	r3, #9
 6002 165a 07D8     		bhi	.L287
1391:.\main.c      ****     				rf_mod[32]=rventa1.preset[6]+0x30;
 6003              		.loc 1 1391 0
 6004 165c 154B     		ldr	r3, .L665
 6005 165e 93F82130 		ldrb	r3, [r3, #33]	@ zero_extendqisi2
 6006 1662 3033     		adds	r3, r3, #48
 6007 1664 DAB2     		uxtb	r2, r3
 6008 1666 144B     		ldr	r3, .L665+4
 6009 1668 83F82020 		strb	r2, [r3, #32]
 6010              	.L287:
1392:.\main.c      ****     			}
1393:.\main.c      ****     			rf_mod[33]=rventa1.preset[5];
 6011              		.loc 1 1393 0
 6012 166c 114B     		ldr	r3, .L665
 6013 166e 93F82020 		ldrb	r2, [r3, #32]	@ zero_extendqisi2
 6014 1672 114B     		ldr	r3, .L665+4
 6015 1674 83F82120 		strb	r2, [r3, #33]
1394:.\main.c      ****     			if(rventa1.preset[5]<10){				
 6016              		.loc 1 1394 0
 6017 1678 0E4B     		ldr	r3, .L665
 6018 167a 93F82030 		ldrb	r3, [r3, #32]	@ zero_extendqisi2
 6019 167e 092B     		cmp	r3, #9
 6020 1680 07D8     		bhi	.L288
1395:.\main.c      ****     				rf_mod[33]=rventa1.preset[5]+0x30;
 6021              		.loc 1 1395 0
 6022 1682 0C4B     		ldr	r3, .L665
 6023 1684 93F82030 		ldrb	r3, [r3, #32]	@ zero_extendqisi2
 6024 1688 3033     		adds	r3, r3, #48
 6025 168a DAB2     		uxtb	r2, r3
 6026 168c 0A4B     		ldr	r3, .L665+4
 6027 168e 83F82120 		strb	r2, [r3, #33]
 6028              	.L288:
1396:.\main.c      ****     			}
1397:.\main.c      ****     			rf_mod[34]=rventa1.preset[4];
 6029              		.loc 1 1397 0
 6030 1692 084B     		ldr	r3, .L665
 6031 1694 DA7F     		ldrb	r2, [r3, #31]	@ zero_extendqisi2
 6032 1696 084B     		ldr	r3, .L665+4
 6033 1698 83F82220 		strb	r2, [r3, #34]
1398:.\main.c      ****     			if(rventa1.preset[4]<10){				
 6034              		.loc 1 1398 0
 6035 169c 054B     		ldr	r3, .L665
 6036 169e DB7F     		ldrb	r3, [r3, #31]	@ zero_extendqisi2
 6037 16a0 092B     		cmp	r3, #9
 6038 16a2 13D8     		bhi	.L289
1399:.\main.c      ****     				rf_mod[34]=rventa1.preset[4]+0x30;
 6039              		.loc 1 1399 0
 6040 16a4 034B     		ldr	r3, .L665
 6041 16a6 DB7F     		ldrb	r3, [r3, #31]	@ zero_extendqisi2
 6042 16a8 3033     		adds	r3, r3, #48
 6043 16aa DAB2     		uxtb	r2, r3
 6044 16ac 024B     		ldr	r3, .L665+4
ARM GAS  C:\Users\RECEPC~1\AppData\Local\Temp\cc2OimPl.s 			page 135


 6045 16ae 83F82220 		strb	r2, [r3, #34]
 6046 16b2 0BE0     		b	.L666
 6047              	.L667:
 6048              		.align	2
 6049              	.L665:
 6050 16b4 00000000 		.word	rventa1
 6051 16b8 00000000 		.word	rf_mod
 6052 16bc 00000000 		.word	lado1
 6053 16c0 00000000 		.word	tipo_venta
 6054 16c4 00000000 		.word	id_estacion
 6055 16c8 00000000 		.word	ppux10
 6056              	.L666:
 6057              	.L289:
1400:.\main.c      ****     			}
1401:.\main.c      ****     			rf_mod[35]=rventa1.preset[3];
 6058              		.loc 1 1401 0
 6059 16cc 514B     		ldr	r3, .L668
 6060 16ce 9A7F     		ldrb	r2, [r3, #30]	@ zero_extendqisi2
 6061 16d0 514B     		ldr	r3, .L668+4
 6062 16d2 83F82320 		strb	r2, [r3, #35]
1402:.\main.c      ****     			if(rventa1.preset[3]<10){				
 6063              		.loc 1 1402 0
 6064 16d6 4F4B     		ldr	r3, .L668
 6065 16d8 9B7F     		ldrb	r3, [r3, #30]	@ zero_extendqisi2
 6066 16da 092B     		cmp	r3, #9
 6067 16dc 06D8     		bhi	.L290
1403:.\main.c      ****     				rf_mod[35]=rventa1.preset[3]+0x30;
 6068              		.loc 1 1403 0
 6069 16de 4D4B     		ldr	r3, .L668
 6070 16e0 9B7F     		ldrb	r3, [r3, #30]	@ zero_extendqisi2
 6071 16e2 3033     		adds	r3, r3, #48
 6072 16e4 DAB2     		uxtb	r2, r3
 6073 16e6 4C4B     		ldr	r3, .L668+4
 6074 16e8 83F82320 		strb	r2, [r3, #35]
 6075              	.L290:
1404:.\main.c      ****     			}
1405:.\main.c      ****     			rf_mod[36]=rventa1.preset[2];
 6076              		.loc 1 1405 0
 6077 16ec 494B     		ldr	r3, .L668
 6078 16ee 5A7F     		ldrb	r2, [r3, #29]	@ zero_extendqisi2
 6079 16f0 494B     		ldr	r3, .L668+4
 6080 16f2 83F82420 		strb	r2, [r3, #36]
1406:.\main.c      ****     			if(rventa1.preset[2]<10){				
 6081              		.loc 1 1406 0
 6082 16f6 474B     		ldr	r3, .L668
 6083 16f8 5B7F     		ldrb	r3, [r3, #29]	@ zero_extendqisi2
 6084 16fa 092B     		cmp	r3, #9
 6085 16fc 06D8     		bhi	.L291
1407:.\main.c      ****     				rf_mod[36]=rventa1.preset[2]+0x30;
 6086              		.loc 1 1407 0
 6087 16fe 454B     		ldr	r3, .L668
 6088 1700 5B7F     		ldrb	r3, [r3, #29]	@ zero_extendqisi2
 6089 1702 3033     		adds	r3, r3, #48
 6090 1704 DAB2     		uxtb	r2, r3
 6091 1706 444B     		ldr	r3, .L668+4
 6092 1708 83F82420 		strb	r2, [r3, #36]
 6093              	.L291:
ARM GAS  C:\Users\RECEPC~1\AppData\Local\Temp\cc2OimPl.s 			page 136


1408:.\main.c      ****     			}
1409:.\main.c      ****     			rf_mod[37]=rventa1.preset[1];
 6094              		.loc 1 1409 0
 6095 170c 414B     		ldr	r3, .L668
 6096 170e 1A7F     		ldrb	r2, [r3, #28]	@ zero_extendqisi2
 6097 1710 414B     		ldr	r3, .L668+4
 6098 1712 83F82520 		strb	r2, [r3, #37]
1410:.\main.c      ****     			if(rventa1.preset[1]<10){				
 6099              		.loc 1 1410 0
 6100 1716 3F4B     		ldr	r3, .L668
 6101 1718 1B7F     		ldrb	r3, [r3, #28]	@ zero_extendqisi2
 6102 171a 092B     		cmp	r3, #9
 6103 171c 06D8     		bhi	.L292
1411:.\main.c      ****     				rf_mod[37]=rventa1.preset[1]+0x30;
 6104              		.loc 1 1411 0
 6105 171e 3D4B     		ldr	r3, .L668
 6106 1720 1B7F     		ldrb	r3, [r3, #28]	@ zero_extendqisi2
 6107 1722 3033     		adds	r3, r3, #48
 6108 1724 DAB2     		uxtb	r2, r3
 6109 1726 3C4B     		ldr	r3, .L668+4
 6110 1728 83F82520 		strb	r2, [r3, #37]
 6111              	.L292:
1412:.\main.c      ****     			}
1413:.\main.c      ****     			for(x=0;x<=6;x++){
 6112              		.loc 1 1413 0
 6113 172c 0023     		movs	r3, #0
 6114 172e 87F82F30 		strb	r3, [r7, #47]
 6115 1732 12E0     		b	.L293
 6116              	.L294:
1414:.\main.c      ****     				rf_mod[38+x]=rventa1.km[x+1] + 48;
 6117              		.loc 1 1414 0 discriminator 3
 6118 1734 97F82F30 		ldrb	r3, [r7, #47]	@ zero_extendqisi2
 6119 1738 2633     		adds	r3, r3, #38
 6120 173a 97F82F20 		ldrb	r2, [r7, #47]	@ zero_extendqisi2
 6121 173e 0132     		adds	r2, r2, #1
 6122 1740 3449     		ldr	r1, .L668
 6123 1742 0A44     		add	r2, r2, r1
 6124 1744 92F84320 		ldrb	r2, [r2, #67]	@ zero_extendqisi2
 6125 1748 3032     		adds	r2, r2, #48
 6126 174a D1B2     		uxtb	r1, r2
 6127 174c 324A     		ldr	r2, .L668+4
 6128 174e D154     		strb	r1, [r2, r3]
1413:.\main.c      ****     				rf_mod[38+x]=rventa1.km[x+1] + 48;
 6129              		.loc 1 1413 0 discriminator 3
 6130 1750 97F82F30 		ldrb	r3, [r7, #47]	@ zero_extendqisi2
 6131 1754 0133     		adds	r3, r3, #1
 6132 1756 87F82F30 		strb	r3, [r7, #47]
 6133              	.L293:
1413:.\main.c      ****     				rf_mod[38+x]=rventa1.km[x+1] + 48;
 6134              		.loc 1 1413 0 is_stmt 0 discriminator 1
 6135 175a 97F82F30 		ldrb	r3, [r7, #47]	@ zero_extendqisi2
 6136 175e 062B     		cmp	r3, #6
 6137 1760 E8D9     		bls	.L294
1415:.\main.c      ****     			}
1416:.\main.c      ****                 rf_mod[45]=0x31;
 6138              		.loc 1 1416 0 is_stmt 1
 6139 1762 2D4B     		ldr	r3, .L668+4
ARM GAS  C:\Users\RECEPC~1\AppData\Local\Temp\cc2OimPl.s 			page 137


 6140 1764 3122     		movs	r2, #49
 6141 1766 83F82D20 		strb	r2, [r3, #45]
 6142              	.L271:
1417:.\main.c      ****             }
1418:.\main.c      ****             
1419:.\main.c      ****             if(seleccion_pos == 2){
 6143              		.loc 1 1419 0
 6144 176a 2C4B     		ldr	r3, .L668+8
 6145 176c 1B78     		ldrb	r3, [r3]
 6146 176e DBB2     		uxtb	r3, r3
 6147 1770 022B     		cmp	r3, #2
 6148 1772 40F02882 		bne	.L295
1420:.\main.c      ****                 if (tipo_venta == 1){
 6149              		.loc 1 1420 0
 6150 1776 2A4B     		ldr	r3, .L668+12
 6151 1778 1B78     		ldrb	r3, [r3]	@ zero_extendqisi2
 6152 177a 012B     		cmp	r3, #1
 6153 177c 42D1     		bne	.L296
1421:.\main.c      ****     			    for(x=0;x<=15;x++){						//Serial				
 6154              		.loc 1 1421 0
 6155 177e 0023     		movs	r3, #0
 6156 1780 87F82F30 		strb	r3, [r7, #47]
 6157 1784 3AE0     		b	.L297
 6158              	.L300:
1422:.\main.c      ****     				    y=(rventa2.id[x/2]>>4)&0x0F;
 6159              		.loc 1 1422 0
 6160 1786 97F82F30 		ldrb	r3, [r7, #47]	@ zero_extendqisi2
 6161 178a 5B08     		lsrs	r3, r3, #1
 6162 178c DBB2     		uxtb	r3, r3
 6163 178e 1A46     		mov	r2, r3
 6164 1790 244B     		ldr	r3, .L668+16
 6165 1792 1344     		add	r3, r3, r2
 6166 1794 93F82330 		ldrb	r3, [r3, #35]	@ zero_extendqisi2
 6167 1798 1B09     		lsrs	r3, r3, #4
 6168 179a 87F82E30 		strb	r3, [r7, #46]
1423:.\main.c      ****     				    if((x%2)==0){
 6169              		.loc 1 1423 0
 6170 179e 97F82F30 		ldrb	r3, [r7, #47]
 6171 17a2 03F00103 		and	r3, r3, #1
 6172 17a6 DBB2     		uxtb	r3, r3
 6173 17a8 002B     		cmp	r3, #0
 6174 17aa 0CD1     		bne	.L298
1424:.\main.c      ****     					    y=rventa2.id[x/2]&0x0F;
 6175              		.loc 1 1424 0
 6176 17ac 97F82F30 		ldrb	r3, [r7, #47]	@ zero_extendqisi2
 6177 17b0 5B08     		lsrs	r3, r3, #1
 6178 17b2 DBB2     		uxtb	r3, r3
 6179 17b4 1A46     		mov	r2, r3
 6180 17b6 1B4B     		ldr	r3, .L668+16
 6181 17b8 1344     		add	r3, r3, r2
 6182 17ba 93F82330 		ldrb	r3, [r3, #35]	@ zero_extendqisi2
 6183 17be 03F00F03 		and	r3, r3, #15
 6184 17c2 87F82E30 		strb	r3, [r7, #46]
 6185              	.L298:
1425:.\main.c      ****     				    }
1426:.\main.c      ****     				    rf_mod[x+4] = y+48;
 6186              		.loc 1 1426 0
ARM GAS  C:\Users\RECEPC~1\AppData\Local\Temp\cc2OimPl.s 			page 138


 6187 17c6 97F82F30 		ldrb	r3, [r7, #47]	@ zero_extendqisi2
 6188 17ca 0433     		adds	r3, r3, #4
 6189 17cc 97F82E20 		ldrb	r2, [r7, #46]
 6190 17d0 3032     		adds	r2, r2, #48
 6191 17d2 D1B2     		uxtb	r1, r2
 6192 17d4 104A     		ldr	r2, .L668+4
 6193 17d6 D154     		strb	r1, [r2, r3]
1427:.\main.c      ****     				    if(y>9){
 6194              		.loc 1 1427 0
 6195 17d8 97F82E30 		ldrb	r3, [r7, #46]	@ zero_extendqisi2
 6196 17dc 092B     		cmp	r3, #9
 6197 17de 08D9     		bls	.L299
1428:.\main.c      ****     					    rf_mod[x+4] = y+55;
 6198              		.loc 1 1428 0
 6199 17e0 97F82F30 		ldrb	r3, [r7, #47]	@ zero_extendqisi2
 6200 17e4 0433     		adds	r3, r3, #4
 6201 17e6 97F82E20 		ldrb	r2, [r7, #46]
 6202 17ea 3732     		adds	r2, r2, #55
 6203 17ec D1B2     		uxtb	r1, r2
 6204 17ee 0A4A     		ldr	r2, .L668+4
 6205 17f0 D154     		strb	r1, [r2, r3]
 6206              	.L299:
1421:.\main.c      ****     				    y=(rventa2.id[x/2]>>4)&0x0F;
 6207              		.loc 1 1421 0 discriminator 2
 6208 17f2 97F82F30 		ldrb	r3, [r7, #47]	@ zero_extendqisi2
 6209 17f6 0133     		adds	r3, r3, #1
 6210 17f8 87F82F30 		strb	r3, [r7, #47]
 6211              	.L297:
1421:.\main.c      ****     				    y=(rventa2.id[x/2]>>4)&0x0F;
 6212              		.loc 1 1421 0 is_stmt 0 discriminator 1
 6213 17fc 97F82F30 		ldrb	r3, [r7, #47]	@ zero_extendqisi2
 6214 1800 0F2B     		cmp	r3, #15
 6215 1802 C0D9     		bls	.L300
 6216              	.L296:
1429:.\main.c      ****     				    }
1430:.\main.c      ****     			    }                
1431:.\main.c      ****                 }
1432:.\main.c      ****                 if(tipo_venta == 0){
 6217              		.loc 1 1432 0 is_stmt 1
 6218 1804 064B     		ldr	r3, .L668+12
 6219 1806 1B78     		ldrb	r3, [r3]	@ zero_extendqisi2
 6220 1808 002B     		cmp	r3, #0
 6221 180a 4CD1     		bne	.L301
1433:.\main.c      ****                     for(x=0;x<=15;x++){						//Serial				
 6222              		.loc 1 1433 0
 6223 180c 0023     		movs	r3, #0
 6224 180e 87F82F30 		strb	r3, [r7, #47]
 6225 1812 44E0     		b	.L302
 6226              	.L669:
 6227              		.align	2
 6228              	.L668:
 6229 1814 00000000 		.word	rventa1
 6230 1818 00000000 		.word	rf_mod
 6231 181c 00000000 		.word	seleccion_pos
 6232 1820 00000000 		.word	tipo_venta
 6233 1824 00000000 		.word	rventa2
 6234              	.L305:
ARM GAS  C:\Users\RECEPC~1\AppData\Local\Temp\cc2OimPl.s 			page 139


1434:.\main.c      ****     				    y=(rventa2.id[x/2]>>4)&0x0F;
 6235              		.loc 1 1434 0
 6236 1828 97F82F30 		ldrb	r3, [r7, #47]	@ zero_extendqisi2
 6237 182c 5B08     		lsrs	r3, r3, #1
 6238 182e DBB2     		uxtb	r3, r3
 6239 1830 1A46     		mov	r2, r3
 6240 1832 B54B     		ldr	r3, .L670
 6241 1834 1344     		add	r3, r3, r2
 6242 1836 93F82330 		ldrb	r3, [r3, #35]	@ zero_extendqisi2
 6243 183a 1B09     		lsrs	r3, r3, #4
 6244 183c 87F82E30 		strb	r3, [r7, #46]
1435:.\main.c      ****     				    if((x%2)==0){
 6245              		.loc 1 1435 0
 6246 1840 97F82F30 		ldrb	r3, [r7, #47]
 6247 1844 03F00103 		and	r3, r3, #1
 6248 1848 DBB2     		uxtb	r3, r3
 6249 184a 002B     		cmp	r3, #0
 6250 184c 0CD1     		bne	.L303
1436:.\main.c      ****     					    y=rventa2.id[x/2]&0x0F;
 6251              		.loc 1 1436 0
 6252 184e 97F82F30 		ldrb	r3, [r7, #47]	@ zero_extendqisi2
 6253 1852 5B08     		lsrs	r3, r3, #1
 6254 1854 DBB2     		uxtb	r3, r3
 6255 1856 1A46     		mov	r2, r3
 6256 1858 AB4B     		ldr	r3, .L670
 6257 185a 1344     		add	r3, r3, r2
 6258 185c 93F82330 		ldrb	r3, [r3, #35]	@ zero_extendqisi2
 6259 1860 03F00F03 		and	r3, r3, #15
 6260 1864 87F82E30 		strb	r3, [r7, #46]
 6261              	.L303:
1437:.\main.c      ****     				    }
1438:.\main.c      ****     				    rf_mod[x+4] = y+48;
 6262              		.loc 1 1438 0
 6263 1868 97F82F30 		ldrb	r3, [r7, #47]	@ zero_extendqisi2
 6264 186c 0433     		adds	r3, r3, #4
 6265 186e 97F82E20 		ldrb	r2, [r7, #46]
 6266 1872 3032     		adds	r2, r2, #48
 6267 1874 D1B2     		uxtb	r1, r2
 6268 1876 A54A     		ldr	r2, .L670+4
 6269 1878 D154     		strb	r1, [r2, r3]
1439:.\main.c      ****     				    if(y>9){
 6270              		.loc 1 1439 0
 6271 187a 97F82E30 		ldrb	r3, [r7, #46]	@ zero_extendqisi2
 6272 187e 092B     		cmp	r3, #9
 6273 1880 08D9     		bls	.L304
1440:.\main.c      ****     					    rf_mod[x+4] = y+55;
 6274              		.loc 1 1440 0
 6275 1882 97F82F30 		ldrb	r3, [r7, #47]	@ zero_extendqisi2
 6276 1886 0433     		adds	r3, r3, #4
 6277 1888 97F82E20 		ldrb	r2, [r7, #46]
 6278 188c 3732     		adds	r2, r2, #55
 6279 188e D1B2     		uxtb	r1, r2
 6280 1890 9E4A     		ldr	r2, .L670+4
 6281 1892 D154     		strb	r1, [r2, r3]
 6282              	.L304:
1433:.\main.c      ****     				    y=(rventa2.id[x/2]>>4)&0x0F;
 6283              		.loc 1 1433 0 discriminator 2
ARM GAS  C:\Users\RECEPC~1\AppData\Local\Temp\cc2OimPl.s 			page 140


 6284 1894 97F82F30 		ldrb	r3, [r7, #47]	@ zero_extendqisi2
 6285 1898 0133     		adds	r3, r3, #1
 6286 189a 87F82F30 		strb	r3, [r7, #47]
 6287              	.L302:
1433:.\main.c      ****     				    y=(rventa2.id[x/2]>>4)&0x0F;
 6288              		.loc 1 1433 0 is_stmt 0 discriminator 1
 6289 189e 97F82F30 		ldrb	r3, [r7, #47]	@ zero_extendqisi2
 6290 18a2 0F2B     		cmp	r3, #15
 6291 18a4 C0D9     		bls	.L305
 6292              	.L301:
1441:.\main.c      ****     				    }
1442:.\main.c      ****     			    }
1443:.\main.c      ****                 }
1444:.\main.c      ****     			rf_mod[20]=(lado2.grado[rventa2.manguera-1][0])+48;			//Id Producto
 6293              		.loc 1 1444 0 is_stmt 1
 6294 18a6 984B     		ldr	r3, .L670
 6295 18a8 9B7E     		ldrb	r3, [r3, #26]	@ zero_extendqisi2
 6296 18aa 013B     		subs	r3, r3, #1
 6297 18ac 984A     		ldr	r2, .L670+8
 6298 18ae 1344     		add	r3, r3, r2
 6299 18b0 93F85930 		ldrb	r3, [r3, #89]
 6300 18b4 DBB2     		uxtb	r3, r3
 6301 18b6 3033     		adds	r3, r3, #48
 6302 18b8 DAB2     		uxtb	r2, r3
 6303 18ba 944B     		ldr	r3, .L670+4
 6304 18bc 1A75     		strb	r2, [r3, #20]
1445:.\main.c      ****                 if(tipo_venta == 0){
 6305              		.loc 1 1445 0
 6306 18be 954B     		ldr	r3, .L670+12
 6307 18c0 1B78     		ldrb	r3, [r3]	@ zero_extendqisi2
 6308 18c2 002B     		cmp	r3, #0
 6309 18c4 13D1     		bne	.L306
1446:.\main.c      ****                     rf_mod[21]= id_estacion[4];								    //Id vehiculo
 6310              		.loc 1 1446 0
 6311 18c6 944B     		ldr	r3, .L670+16
 6312 18c8 1B79     		ldrb	r3, [r3, #4]
 6313 18ca DAB2     		uxtb	r2, r3
 6314 18cc 8F4B     		ldr	r3, .L670+4
 6315 18ce 5A75     		strb	r2, [r3, #21]
1447:.\main.c      ****     			    rf_mod[22]= id_estacion[3];
 6316              		.loc 1 1447 0
 6317 18d0 914B     		ldr	r3, .L670+16
 6318 18d2 DB78     		ldrb	r3, [r3, #3]
 6319 18d4 DAB2     		uxtb	r2, r3
 6320 18d6 8D4B     		ldr	r3, .L670+4
 6321 18d8 9A75     		strb	r2, [r3, #22]
1448:.\main.c      ****     			    rf_mod[23]= id_estacion[2];
 6322              		.loc 1 1448 0
 6323 18da 8F4B     		ldr	r3, .L670+16
 6324 18dc 9B78     		ldrb	r3, [r3, #2]
 6325 18de DAB2     		uxtb	r2, r3
 6326 18e0 8A4B     		ldr	r3, .L670+4
 6327 18e2 DA75     		strb	r2, [r3, #23]
1449:.\main.c      ****     			    rf_mod[24]= id_estacion[1];  
 6328              		.loc 1 1449 0
 6329 18e4 8C4B     		ldr	r3, .L670+16
 6330 18e6 5B78     		ldrb	r3, [r3, #1]
ARM GAS  C:\Users\RECEPC~1\AppData\Local\Temp\cc2OimPl.s 			page 141


 6331 18e8 DAB2     		uxtb	r2, r3
 6332 18ea 884B     		ldr	r3, .L670+4
 6333 18ec 1A76     		strb	r2, [r3, #24]
 6334              	.L306:
1450:.\main.c      ****                 }
1451:.\main.c      ****     			if(tipo_venta == 1){
 6335              		.loc 1 1451 0
 6336 18ee 894B     		ldr	r3, .L670+12
 6337 18f0 1B78     		ldrb	r3, [r3]	@ zero_extendqisi2
 6338 18f2 012B     		cmp	r3, #1
 6339 18f4 0BD1     		bne	.L307
1452:.\main.c      ****                     rf_mod[21]= '0';								    //Id Estación
 6340              		.loc 1 1452 0
 6341 18f6 854B     		ldr	r3, .L670+4
 6342 18f8 3022     		movs	r2, #48
 6343 18fa 5A75     		strb	r2, [r3, #21]
1453:.\main.c      ****     			    rf_mod[22]= '0';
 6344              		.loc 1 1453 0
 6345 18fc 834B     		ldr	r3, .L670+4
 6346 18fe 3022     		movs	r2, #48
 6347 1900 9A75     		strb	r2, [r3, #22]
1454:.\main.c      ****     			    rf_mod[23]= '0';
 6348              		.loc 1 1454 0
 6349 1902 824B     		ldr	r3, .L670+4
 6350 1904 3022     		movs	r2, #48
 6351 1906 DA75     		strb	r2, [r3, #23]
1455:.\main.c      ****     			    rf_mod[24]= '0';  
 6352              		.loc 1 1455 0
 6353 1908 804B     		ldr	r3, .L670+4
 6354 190a 3022     		movs	r2, #48
 6355 190c 1A76     		strb	r2, [r3, #24]
 6356              	.L307:
1456:.\main.c      ****                 } 
1457:.\main.c      ****                 
1458:.\main.c      ****                 if(ppux10==0){
 6357              		.loc 1 1458 0
 6358 190e 834B     		ldr	r3, .L670+20
 6359 1910 1B78     		ldrb	r3, [r3]
 6360 1912 DBB2     		uxtb	r3, r3
 6361 1914 002B     		cmp	r3, #0
 6362 1916 59D1     		bne	.L308
1459:.\main.c      ****         			rf_mod[25]=(lado2.ppu[rventa2.manguera-1][4]&0x0F)+0x30;		//PPU
 6363              		.loc 1 1459 0
 6364 1918 7B4B     		ldr	r3, .L670
 6365 191a 9B7E     		ldrb	r3, [r3, #26]	@ zero_extendqisi2
 6366 191c 5A1E     		subs	r2, r3, #1
 6367 191e 7C49     		ldr	r1, .L670+8
 6368 1920 1346     		mov	r3, r2
 6369 1922 9B00     		lsls	r3, r3, #2
 6370 1924 1344     		add	r3, r3, r2
 6371 1926 0B44     		add	r3, r3, r1
 6372 1928 4C33     		adds	r3, r3, #76
 6373 192a 9B78     		ldrb	r3, [r3, #2]
 6374 192c DBB2     		uxtb	r3, r3
 6375 192e 03F00F03 		and	r3, r3, #15
 6376 1932 DBB2     		uxtb	r3, r3
 6377 1934 3033     		adds	r3, r3, #48
ARM GAS  C:\Users\RECEPC~1\AppData\Local\Temp\cc2OimPl.s 			page 142


 6378 1936 DAB2     		uxtb	r2, r3
 6379 1938 744B     		ldr	r3, .L670+4
 6380 193a 5A76     		strb	r2, [r3, #25]
1460:.\main.c      ****         			rf_mod[26]=(lado2.ppu[rventa2.manguera-1][3]&0x0F)+0x30;
 6381              		.loc 1 1460 0
 6382 193c 724B     		ldr	r3, .L670
 6383 193e 9B7E     		ldrb	r3, [r3, #26]	@ zero_extendqisi2
 6384 1940 5A1E     		subs	r2, r3, #1
 6385 1942 7349     		ldr	r1, .L670+8
 6386 1944 1346     		mov	r3, r2
 6387 1946 9B00     		lsls	r3, r3, #2
 6388 1948 1344     		add	r3, r3, r2
 6389 194a 0B44     		add	r3, r3, r1
 6390 194c 4B33     		adds	r3, r3, #75
 6391 194e 9B78     		ldrb	r3, [r3, #2]
 6392 1950 DBB2     		uxtb	r3, r3
 6393 1952 03F00F03 		and	r3, r3, #15
 6394 1956 DBB2     		uxtb	r3, r3
 6395 1958 3033     		adds	r3, r3, #48
 6396 195a DAB2     		uxtb	r2, r3
 6397 195c 6B4B     		ldr	r3, .L670+4
 6398 195e 9A76     		strb	r2, [r3, #26]
1461:.\main.c      ****         			rf_mod[27]=(lado2.ppu[rventa2.manguera-1][2]&0x0F)+0x30;
 6399              		.loc 1 1461 0
 6400 1960 694B     		ldr	r3, .L670
 6401 1962 9B7E     		ldrb	r3, [r3, #26]	@ zero_extendqisi2
 6402 1964 5A1E     		subs	r2, r3, #1
 6403 1966 6A49     		ldr	r1, .L670+8
 6404 1968 1346     		mov	r3, r2
 6405 196a 9B00     		lsls	r3, r3, #2
 6406 196c 1344     		add	r3, r3, r2
 6407 196e 0B44     		add	r3, r3, r1
 6408 1970 4A33     		adds	r3, r3, #74
 6409 1972 9B78     		ldrb	r3, [r3, #2]
 6410 1974 DBB2     		uxtb	r3, r3
 6411 1976 03F00F03 		and	r3, r3, #15
 6412 197a DBB2     		uxtb	r3, r3
 6413 197c 3033     		adds	r3, r3, #48
 6414 197e DAB2     		uxtb	r2, r3
 6415 1980 624B     		ldr	r3, .L670+4
 6416 1982 DA76     		strb	r2, [r3, #27]
1462:.\main.c      ****         			rf_mod[28]=(lado2.ppu[rventa2.manguera-1][1]&0x0F)+0x30;
 6417              		.loc 1 1462 0
 6418 1984 604B     		ldr	r3, .L670
 6419 1986 9B7E     		ldrb	r3, [r3, #26]	@ zero_extendqisi2
 6420 1988 5A1E     		subs	r2, r3, #1
 6421 198a 6149     		ldr	r1, .L670+8
 6422 198c 1346     		mov	r3, r2
 6423 198e 9B00     		lsls	r3, r3, #2
 6424 1990 1344     		add	r3, r3, r2
 6425 1992 0B44     		add	r3, r3, r1
 6426 1994 4933     		adds	r3, r3, #73
 6427 1996 9B78     		ldrb	r3, [r3, #2]
 6428 1998 DBB2     		uxtb	r3, r3
 6429 199a 03F00F03 		and	r3, r3, #15
 6430 199e DBB2     		uxtb	r3, r3
 6431 19a0 3033     		adds	r3, r3, #48
ARM GAS  C:\Users\RECEPC~1\AppData\Local\Temp\cc2OimPl.s 			page 143


 6432 19a2 DAB2     		uxtb	r2, r3
 6433 19a4 594B     		ldr	r3, .L670+4
 6434 19a6 1A77     		strb	r2, [r3, #28]
1463:.\main.c      ****         			rf_mod[29]=(lado2.ppu[rventa2.manguera-1][0]&0x0F)+0x30;
 6435              		.loc 1 1463 0
 6436 19a8 574B     		ldr	r3, .L670
 6437 19aa 9B7E     		ldrb	r3, [r3, #26]	@ zero_extendqisi2
 6438 19ac 5A1E     		subs	r2, r3, #1
 6439 19ae 5849     		ldr	r1, .L670+8
 6440 19b0 1346     		mov	r3, r2
 6441 19b2 9B00     		lsls	r3, r3, #2
 6442 19b4 1344     		add	r3, r3, r2
 6443 19b6 0B44     		add	r3, r3, r1
 6444 19b8 4833     		adds	r3, r3, #72
 6445 19ba 9B78     		ldrb	r3, [r3, #2]
 6446 19bc DBB2     		uxtb	r3, r3
 6447 19be 03F00F03 		and	r3, r3, #15
 6448 19c2 DBB2     		uxtb	r3, r3
 6449 19c4 3033     		adds	r3, r3, #48
 6450 19c6 DAB2     		uxtb	r2, r3
 6451 19c8 504B     		ldr	r3, .L670+4
 6452 19ca 5A77     		strb	r2, [r3, #29]
 6453              	.L308:
1464:.\main.c      ****                 }
1465:.\main.c      ****                 if(ppux10==1){
 6454              		.loc 1 1465 0
 6455 19cc 534B     		ldr	r3, .L670+20
 6456 19ce 1B78     		ldrb	r3, [r3]
 6457 19d0 DBB2     		uxtb	r3, r3
 6458 19d2 012B     		cmp	r3, #1
 6459 19d4 4AD1     		bne	.L309
1466:.\main.c      ****         			rf_mod[25]=(lado1.ppu[rventa2.manguera-1][3]&0x0F)+0x30;		//PPUx10
 6460              		.loc 1 1466 0
 6461 19d6 4C4B     		ldr	r3, .L670
 6462 19d8 9B7E     		ldrb	r3, [r3, #26]	@ zero_extendqisi2
 6463 19da 5A1E     		subs	r2, r3, #1
 6464 19dc 5049     		ldr	r1, .L670+24
 6465 19de 1346     		mov	r3, r2
 6466 19e0 9B00     		lsls	r3, r3, #2
 6467 19e2 1344     		add	r3, r3, r2
 6468 19e4 0B44     		add	r3, r3, r1
 6469 19e6 4B33     		adds	r3, r3, #75
 6470 19e8 9B78     		ldrb	r3, [r3, #2]
 6471 19ea DBB2     		uxtb	r3, r3
 6472 19ec 03F00F03 		and	r3, r3, #15
 6473 19f0 DBB2     		uxtb	r3, r3
 6474 19f2 3033     		adds	r3, r3, #48
 6475 19f4 DAB2     		uxtb	r2, r3
 6476 19f6 454B     		ldr	r3, .L670+4
 6477 19f8 5A76     		strb	r2, [r3, #25]
1467:.\main.c      ****         			rf_mod[26]=(lado1.ppu[rventa2.manguera-1][2]&0x0F)+0x30;
 6478              		.loc 1 1467 0
 6479 19fa 434B     		ldr	r3, .L670
 6480 19fc 9B7E     		ldrb	r3, [r3, #26]	@ zero_extendqisi2
 6481 19fe 5A1E     		subs	r2, r3, #1
 6482 1a00 4749     		ldr	r1, .L670+24
 6483 1a02 1346     		mov	r3, r2
ARM GAS  C:\Users\RECEPC~1\AppData\Local\Temp\cc2OimPl.s 			page 144


 6484 1a04 9B00     		lsls	r3, r3, #2
 6485 1a06 1344     		add	r3, r3, r2
 6486 1a08 0B44     		add	r3, r3, r1
 6487 1a0a 4A33     		adds	r3, r3, #74
 6488 1a0c 9B78     		ldrb	r3, [r3, #2]
 6489 1a0e DBB2     		uxtb	r3, r3
 6490 1a10 03F00F03 		and	r3, r3, #15
 6491 1a14 DBB2     		uxtb	r3, r3
 6492 1a16 3033     		adds	r3, r3, #48
 6493 1a18 DAB2     		uxtb	r2, r3
 6494 1a1a 3C4B     		ldr	r3, .L670+4
 6495 1a1c 9A76     		strb	r2, [r3, #26]
1468:.\main.c      ****         			rf_mod[27]=(lado1.ppu[rventa2.manguera-1][1]&0x0F)+0x30;
 6496              		.loc 1 1468 0
 6497 1a1e 3A4B     		ldr	r3, .L670
 6498 1a20 9B7E     		ldrb	r3, [r3, #26]	@ zero_extendqisi2
 6499 1a22 5A1E     		subs	r2, r3, #1
 6500 1a24 3E49     		ldr	r1, .L670+24
 6501 1a26 1346     		mov	r3, r2
 6502 1a28 9B00     		lsls	r3, r3, #2
 6503 1a2a 1344     		add	r3, r3, r2
 6504 1a2c 0B44     		add	r3, r3, r1
 6505 1a2e 4933     		adds	r3, r3, #73
 6506 1a30 9B78     		ldrb	r3, [r3, #2]
 6507 1a32 DBB2     		uxtb	r3, r3
 6508 1a34 03F00F03 		and	r3, r3, #15
 6509 1a38 DBB2     		uxtb	r3, r3
 6510 1a3a 3033     		adds	r3, r3, #48
 6511 1a3c DAB2     		uxtb	r2, r3
 6512 1a3e 334B     		ldr	r3, .L670+4
 6513 1a40 DA76     		strb	r2, [r3, #27]
1469:.\main.c      ****         			rf_mod[28]=(lado1.ppu[rventa2.manguera-1][0]&0x0F)+0x30;
 6514              		.loc 1 1469 0
 6515 1a42 314B     		ldr	r3, .L670
 6516 1a44 9B7E     		ldrb	r3, [r3, #26]	@ zero_extendqisi2
 6517 1a46 5A1E     		subs	r2, r3, #1
 6518 1a48 3549     		ldr	r1, .L670+24
 6519 1a4a 1346     		mov	r3, r2
 6520 1a4c 9B00     		lsls	r3, r3, #2
 6521 1a4e 1344     		add	r3, r3, r2
 6522 1a50 0B44     		add	r3, r3, r1
 6523 1a52 4833     		adds	r3, r3, #72
 6524 1a54 9B78     		ldrb	r3, [r3, #2]
 6525 1a56 DBB2     		uxtb	r3, r3
 6526 1a58 03F00F03 		and	r3, r3, #15
 6527 1a5c DBB2     		uxtb	r3, r3
 6528 1a5e 3033     		adds	r3, r3, #48
 6529 1a60 DAB2     		uxtb	r2, r3
 6530 1a62 2A4B     		ldr	r3, .L670+4
 6531 1a64 1A77     		strb	r2, [r3, #28]
1470:.\main.c      ****         			rf_mod[29]=0x30;   
 6532              		.loc 1 1470 0
 6533 1a66 294B     		ldr	r3, .L670+4
 6534 1a68 3022     		movs	r2, #48
 6535 1a6a 5A77     		strb	r2, [r3, #29]
 6536              	.L309:
1471:.\main.c      ****                 }
ARM GAS  C:\Users\RECEPC~1\AppData\Local\Temp\cc2OimPl.s 			page 145


1472:.\main.c      ****     			rf_mod[30]=(rventa2.preset[0]+48);								//Tipo de Preset
 6537              		.loc 1 1472 0
 6538 1a6c 264B     		ldr	r3, .L670
 6539 1a6e DB7E     		ldrb	r3, [r3, #27]	@ zero_extendqisi2
 6540 1a70 3033     		adds	r3, r3, #48
 6541 1a72 DAB2     		uxtb	r2, r3
 6542 1a74 254B     		ldr	r3, .L670+4
 6543 1a76 9A77     		strb	r2, [r3, #30]
1473:.\main.c      ****     			rf_mod[31]=rventa2.preset[7];									//Preset
 6544              		.loc 1 1473 0
 6545 1a78 234B     		ldr	r3, .L670
 6546 1a7a 93F82220 		ldrb	r2, [r3, #34]	@ zero_extendqisi2
 6547 1a7e 234B     		ldr	r3, .L670+4
 6548 1a80 DA77     		strb	r2, [r3, #31]
1474:.\main.c      ****     			if(rventa1.preset[7]<10){				
 6549              		.loc 1 1474 0
 6550 1a82 284B     		ldr	r3, .L670+28
 6551 1a84 93F82230 		ldrb	r3, [r3, #34]	@ zero_extendqisi2
 6552 1a88 092B     		cmp	r3, #9
 6553 1a8a 06D8     		bhi	.L310
1475:.\main.c      ****     				rf_mod[31]=rventa2.preset[7]+0x30;							
 6554              		.loc 1 1475 0
 6555 1a8c 1E4B     		ldr	r3, .L670
 6556 1a8e 93F82230 		ldrb	r3, [r3, #34]	@ zero_extendqisi2
 6557 1a92 3033     		adds	r3, r3, #48
 6558 1a94 DAB2     		uxtb	r2, r3
 6559 1a96 1D4B     		ldr	r3, .L670+4
 6560 1a98 DA77     		strb	r2, [r3, #31]
 6561              	.L310:
1476:.\main.c      ****     			}
1477:.\main.c      ****     			rf_mod[32]=rventa2.preset[6];
 6562              		.loc 1 1477 0
 6563 1a9a 1B4B     		ldr	r3, .L670
 6564 1a9c 93F82120 		ldrb	r2, [r3, #33]	@ zero_extendqisi2
 6565 1aa0 1A4B     		ldr	r3, .L670+4
 6566 1aa2 83F82020 		strb	r2, [r3, #32]
1478:.\main.c      ****     			if(rventa1.preset[6]<10){				
 6567              		.loc 1 1478 0
 6568 1aa6 1F4B     		ldr	r3, .L670+28
 6569 1aa8 93F82130 		ldrb	r3, [r3, #33]	@ zero_extendqisi2
 6570 1aac 092B     		cmp	r3, #9
 6571 1aae 07D8     		bhi	.L311
1479:.\main.c      ****     				rf_mod[32]=rventa2.preset[6]+0x30;
 6572              		.loc 1 1479 0
 6573 1ab0 154B     		ldr	r3, .L670
 6574 1ab2 93F82130 		ldrb	r3, [r3, #33]	@ zero_extendqisi2
 6575 1ab6 3033     		adds	r3, r3, #48
 6576 1ab8 DAB2     		uxtb	r2, r3
 6577 1aba 144B     		ldr	r3, .L670+4
 6578 1abc 83F82020 		strb	r2, [r3, #32]
 6579              	.L311:
1480:.\main.c      ****     			}
1481:.\main.c      ****     			rf_mod[33]=rventa2.preset[5];
 6580              		.loc 1 1481 0
 6581 1ac0 114B     		ldr	r3, .L670
 6582 1ac2 93F82020 		ldrb	r2, [r3, #32]	@ zero_extendqisi2
 6583 1ac6 114B     		ldr	r3, .L670+4
ARM GAS  C:\Users\RECEPC~1\AppData\Local\Temp\cc2OimPl.s 			page 146


 6584 1ac8 83F82120 		strb	r2, [r3, #33]
1482:.\main.c      ****     			if(rventa2.preset[5]<10){				
 6585              		.loc 1 1482 0
 6586 1acc 0E4B     		ldr	r3, .L670
 6587 1ace 93F82030 		ldrb	r3, [r3, #32]	@ zero_extendqisi2
 6588 1ad2 092B     		cmp	r3, #9
 6589 1ad4 07D8     		bhi	.L312
1483:.\main.c      ****     				rf_mod[33]=rventa2.preset[5]+0x30;
 6590              		.loc 1 1483 0
 6591 1ad6 0C4B     		ldr	r3, .L670
 6592 1ad8 93F82030 		ldrb	r3, [r3, #32]	@ zero_extendqisi2
 6593 1adc 3033     		adds	r3, r3, #48
 6594 1ade DAB2     		uxtb	r2, r3
 6595 1ae0 0A4B     		ldr	r3, .L670+4
 6596 1ae2 83F82120 		strb	r2, [r3, #33]
 6597              	.L312:
1484:.\main.c      ****     			}
1485:.\main.c      ****     			rf_mod[34]=rventa2.preset[4];
 6598              		.loc 1 1485 0
 6599 1ae6 084B     		ldr	r3, .L670
 6600 1ae8 DA7F     		ldrb	r2, [r3, #31]	@ zero_extendqisi2
 6601 1aea 084B     		ldr	r3, .L670+4
 6602 1aec 83F82220 		strb	r2, [r3, #34]
1486:.\main.c      ****     			if(rventa2.preset[4]<10){				
 6603              		.loc 1 1486 0
 6604 1af0 054B     		ldr	r3, .L670
 6605 1af2 DB7F     		ldrb	r3, [r3, #31]	@ zero_extendqisi2
 6606 1af4 092B     		cmp	r3, #9
 6607 1af6 17D8     		bhi	.L313
1487:.\main.c      ****     				rf_mod[34]=rventa2.preset[4]+0x30;
 6608              		.loc 1 1487 0
 6609 1af8 034B     		ldr	r3, .L670
 6610 1afa DB7F     		ldrb	r3, [r3, #31]	@ zero_extendqisi2
 6611 1afc 3033     		adds	r3, r3, #48
 6612 1afe DAB2     		uxtb	r2, r3
 6613 1b00 024B     		ldr	r3, .L670+4
 6614 1b02 83F82220 		strb	r2, [r3, #34]
 6615 1b06 0FE0     		b	.L671
 6616              	.L672:
 6617              		.align	2
 6618              	.L670:
 6619 1b08 00000000 		.word	rventa2
 6620 1b0c 00000000 		.word	rf_mod
 6621 1b10 00000000 		.word	lado2
 6622 1b14 00000000 		.word	tipo_venta
 6623 1b18 00000000 		.word	id_estacion
 6624 1b1c 00000000 		.word	ppux10
 6625 1b20 00000000 		.word	lado1
 6626 1b24 00000000 		.word	rventa1
 6627              	.L671:
 6628              	.L313:
1488:.\main.c      ****     			}
1489:.\main.c      ****     			rf_mod[35]=rventa2.preset[3];
 6629              		.loc 1 1489 0
 6630 1b28 BA4B     		ldr	r3, .L673
 6631 1b2a 9A7F     		ldrb	r2, [r3, #30]	@ zero_extendqisi2
 6632 1b2c BA4B     		ldr	r3, .L673+4
ARM GAS  C:\Users\RECEPC~1\AppData\Local\Temp\cc2OimPl.s 			page 147


 6633 1b2e 83F82320 		strb	r2, [r3, #35]
1490:.\main.c      ****     			if(rventa2.preset[3]<10){				
 6634              		.loc 1 1490 0
 6635 1b32 B84B     		ldr	r3, .L673
 6636 1b34 9B7F     		ldrb	r3, [r3, #30]	@ zero_extendqisi2
 6637 1b36 092B     		cmp	r3, #9
 6638 1b38 06D8     		bhi	.L314
1491:.\main.c      ****     				rf_mod[35]=rventa2.preset[3]+0x30;
 6639              		.loc 1 1491 0
 6640 1b3a B64B     		ldr	r3, .L673
 6641 1b3c 9B7F     		ldrb	r3, [r3, #30]	@ zero_extendqisi2
 6642 1b3e 3033     		adds	r3, r3, #48
 6643 1b40 DAB2     		uxtb	r2, r3
 6644 1b42 B54B     		ldr	r3, .L673+4
 6645 1b44 83F82320 		strb	r2, [r3, #35]
 6646              	.L314:
1492:.\main.c      ****     			}
1493:.\main.c      ****     			rf_mod[36]=rventa2.preset[2];
 6647              		.loc 1 1493 0
 6648 1b48 B24B     		ldr	r3, .L673
 6649 1b4a 5A7F     		ldrb	r2, [r3, #29]	@ zero_extendqisi2
 6650 1b4c B24B     		ldr	r3, .L673+4
 6651 1b4e 83F82420 		strb	r2, [r3, #36]
1494:.\main.c      ****     			if(rventa2.preset[2]<10){				
 6652              		.loc 1 1494 0
 6653 1b52 B04B     		ldr	r3, .L673
 6654 1b54 5B7F     		ldrb	r3, [r3, #29]	@ zero_extendqisi2
 6655 1b56 092B     		cmp	r3, #9
 6656 1b58 06D8     		bhi	.L315
1495:.\main.c      ****     				rf_mod[36]=rventa2.preset[2]+0x30;
 6657              		.loc 1 1495 0
 6658 1b5a AE4B     		ldr	r3, .L673
 6659 1b5c 5B7F     		ldrb	r3, [r3, #29]	@ zero_extendqisi2
 6660 1b5e 3033     		adds	r3, r3, #48
 6661 1b60 DAB2     		uxtb	r2, r3
 6662 1b62 AD4B     		ldr	r3, .L673+4
 6663 1b64 83F82420 		strb	r2, [r3, #36]
 6664              	.L315:
1496:.\main.c      ****     			}
1497:.\main.c      ****     			rf_mod[37]=rventa2.preset[1];
 6665              		.loc 1 1497 0
 6666 1b68 AA4B     		ldr	r3, .L673
 6667 1b6a 1A7F     		ldrb	r2, [r3, #28]	@ zero_extendqisi2
 6668 1b6c AA4B     		ldr	r3, .L673+4
 6669 1b6e 83F82520 		strb	r2, [r3, #37]
1498:.\main.c      ****     			if(rventa2.preset[1]<10){				
 6670              		.loc 1 1498 0
 6671 1b72 A84B     		ldr	r3, .L673
 6672 1b74 1B7F     		ldrb	r3, [r3, #28]	@ zero_extendqisi2
 6673 1b76 092B     		cmp	r3, #9
 6674 1b78 06D8     		bhi	.L316
1499:.\main.c      ****     				rf_mod[37]=rventa2.preset[1]+0x30;
 6675              		.loc 1 1499 0
 6676 1b7a A64B     		ldr	r3, .L673
 6677 1b7c 1B7F     		ldrb	r3, [r3, #28]	@ zero_extendqisi2
 6678 1b7e 3033     		adds	r3, r3, #48
 6679 1b80 DAB2     		uxtb	r2, r3
ARM GAS  C:\Users\RECEPC~1\AppData\Local\Temp\cc2OimPl.s 			page 148


 6680 1b82 A54B     		ldr	r3, .L673+4
 6681 1b84 83F82520 		strb	r2, [r3, #37]
 6682              	.L316:
1500:.\main.c      ****     			}
1501:.\main.c      ****     			for(x=0;x<=6;x++){
 6683              		.loc 1 1501 0
 6684 1b88 0023     		movs	r3, #0
 6685 1b8a 87F82F30 		strb	r3, [r7, #47]
 6686 1b8e 12E0     		b	.L317
 6687              	.L318:
1502:.\main.c      ****     				rf_mod[38+x]=rventa2.km[x+1] + 48;
 6688              		.loc 1 1502 0 discriminator 3
 6689 1b90 97F82F30 		ldrb	r3, [r7, #47]	@ zero_extendqisi2
 6690 1b94 2633     		adds	r3, r3, #38
 6691 1b96 97F82F20 		ldrb	r2, [r7, #47]	@ zero_extendqisi2
 6692 1b9a 0132     		adds	r2, r2, #1
 6693 1b9c 9D49     		ldr	r1, .L673
 6694 1b9e 0A44     		add	r2, r2, r1
 6695 1ba0 92F84320 		ldrb	r2, [r2, #67]	@ zero_extendqisi2
 6696 1ba4 3032     		adds	r2, r2, #48
 6697 1ba6 D1B2     		uxtb	r1, r2
 6698 1ba8 9B4A     		ldr	r2, .L673+4
 6699 1baa D154     		strb	r1, [r2, r3]
1501:.\main.c      ****     				rf_mod[38+x]=rventa2.km[x+1] + 48;
 6700              		.loc 1 1501 0 discriminator 3
 6701 1bac 97F82F30 		ldrb	r3, [r7, #47]	@ zero_extendqisi2
 6702 1bb0 0133     		adds	r3, r3, #1
 6703 1bb2 87F82F30 		strb	r3, [r7, #47]
 6704              	.L317:
1501:.\main.c      ****     				rf_mod[38+x]=rventa2.km[x+1] + 48;
 6705              		.loc 1 1501 0 is_stmt 0 discriminator 1
 6706 1bb6 97F82F30 		ldrb	r3, [r7, #47]	@ zero_extendqisi2
 6707 1bba 062B     		cmp	r3, #6
 6708 1bbc E8D9     		bls	.L318
1503:.\main.c      ****     			}
1504:.\main.c      ****  rf_mod[45]=0x32;    
 6709              		.loc 1 1504 0 is_stmt 1
 6710 1bbe 964B     		ldr	r3, .L673+4
 6711 1bc0 3222     		movs	r2, #50
 6712 1bc2 83F82D20 		strb	r2, [r3, #45]
 6713              	.L295:
1505:.\main.c      ****             }			
1506:.\main.c      **** 			rf_mod[46]='*';
 6714              		.loc 1 1506 0
 6715 1bc6 944B     		ldr	r3, .L673+4
 6716 1bc8 2A22     		movs	r2, #42
 6717 1bca 83F82E20 		strb	r2, [r3, #46]
1507:.\main.c      **** 			PC_ClearRxBuffer();				
 6718              		.loc 1 1507 0
 6719 1bce FFF7FEFF 		bl	PC_ClearRxBuffer
1508:.\main.c      **** 		    for(x=0;x<=46;x++){
 6720              		.loc 1 1508 0
 6721 1bd2 0023     		movs	r3, #0
 6722 1bd4 87F82F30 		strb	r3, [r7, #47]
 6723 1bd8 0BE0     		b	.L319
 6724              	.L320:
1509:.\main.c      **** 			   PC_PutChar(rf_mod[x]);
ARM GAS  C:\Users\RECEPC~1\AppData\Local\Temp\cc2OimPl.s 			page 149


 6725              		.loc 1 1509 0 discriminator 3
 6726 1bda 97F82F30 		ldrb	r3, [r7, #47]	@ zero_extendqisi2
 6727 1bde 8E4A     		ldr	r2, .L673+4
 6728 1be0 D35C     		ldrb	r3, [r2, r3]	@ zero_extendqisi2
 6729 1be2 1846     		mov	r0, r3
 6730 1be4 FFF7FEFF 		bl	PC_PutChar
1508:.\main.c      **** 		    for(x=0;x<=46;x++){
 6731              		.loc 1 1508 0 discriminator 3
 6732 1be8 97F82F30 		ldrb	r3, [r7, #47]	@ zero_extendqisi2
 6733 1bec 0133     		adds	r3, r3, #1
 6734 1bee 87F82F30 		strb	r3, [r7, #47]
 6735              	.L319:
1508:.\main.c      **** 		    for(x=0;x<=46;x++){
 6736              		.loc 1 1508 0 is_stmt 0 discriminator 1
 6737 1bf2 97F82F30 		ldrb	r3, [r7, #47]	@ zero_extendqisi2
 6738 1bf6 2E2B     		cmp	r3, #46
 6739 1bf8 EFD9     		bls	.L320
1510:.\main.c      **** 		    }	            
1511:.\main.c      **** 			CyDelay(350);			
 6740              		.loc 1 1511 0 is_stmt 1
 6741 1bfa 4FF4AF70 		mov	r0, #350
 6742 1bfe FFF7FEFF 		bl	CyDelay
1512:.\main.c      ****             PC_ClearTxBuffer();
 6743              		.loc 1 1512 0
 6744 1c02 FFF7FEFF 		bl	PC_ClearTxBuffer
1513:.\main.c      ****             if(count_protector>15){ 
 6745              		.loc 1 1513 0
 6746 1c06 854B     		ldr	r3, .L673+8
 6747 1c08 1B78     		ldrb	r3, [r3]
 6748 1c0a DBB2     		uxtb	r3, r3
 6749 1c0c 0F2B     		cmp	r3, #15
 6750 1c0e 31D9     		bls	.L321
1514:.\main.c      ****                 //parar timer
1515:.\main.c      ****                 isr_3_Stop(); 
 6751              		.loc 1 1515 0
 6752 1c10 FFF7FEFF 		bl	isr_3_Stop
1516:.\main.c      ****                 Timer_Animacion_Stop(); 			
 6753              		.loc 1 1516 0
 6754 1c14 FFF7FEFF 		bl	Timer_Animacion_Stop
1517:.\main.c      ****     		    count_protector=0;
 6755              		.loc 1 1517 0
 6756 1c18 804B     		ldr	r3, .L673+8
 6757 1c1a 0022     		movs	r2, #0
 6758 1c1c 1A70     		strb	r2, [r3]
1518:.\main.c      **** 			    flujo_LCD1=0;
 6759              		.loc 1 1518 0
 6760 1c1e 804B     		ldr	r3, .L673+12
 6761 1c20 0022     		movs	r2, #0
 6762 1c22 1A70     		strb	r2, [r3]
1519:.\main.c      ****                 lado1.estado=libre;  
 6763              		.loc 1 1519 0
 6764 1c24 7F4B     		ldr	r3, .L673+16
 6765 1c26 0122     		movs	r2, #1
 6766 1c28 5A70     		strb	r2, [r3, #1]
1520:.\main.c      ****                 if(pantallas == 1 || pantallas == 4){
 6767              		.loc 1 1520 0
 6768 1c2a 7F4B     		ldr	r3, .L673+20
ARM GAS  C:\Users\RECEPC~1\AppData\Local\Temp\cc2OimPl.s 			page 150


 6769 1c2c 1B78     		ldrb	r3, [r3]
 6770 1c2e DBB2     		uxtb	r3, r3
 6771 1c30 012B     		cmp	r3, #1
 6772 1c32 04D0     		beq	.L322
 6773              		.loc 1 1520 0 is_stmt 0 discriminator 1
 6774 1c34 7C4B     		ldr	r3, .L673+20
 6775 1c36 1B78     		ldrb	r3, [r3]
 6776 1c38 DBB2     		uxtb	r3, r3
 6777 1c3a 042B     		cmp	r3, #4
 6778 1c3c 0CD1     		bne	.L323
 6779              	.L322:
1521:.\main.c      ****                     set_imagen(1,44);
 6780              		.loc 1 1521 0 is_stmt 1
 6781 1c3e 0120     		movs	r0, #1
 6782 1c40 2C21     		movs	r1, #44
 6783 1c42 FFF7FEFF 		bl	set_imagen
1522:.\main.c      ****                     CyDelay(500);
 6784              		.loc 1 1522 0
 6785 1c46 4FF4FA70 		mov	r0, #500
 6786 1c4a FFF7FEFF 		bl	CyDelay
1523:.\main.c      ****                     set_imagen(1,46);
 6787              		.loc 1 1523 0
 6788 1c4e 0120     		movs	r0, #1
 6789 1c50 2E21     		movs	r1, #46
 6790 1c52 FFF7FEFF 		bl	set_imagen
 6791 1c56 0DE0     		b	.L321
 6792              	.L323:
1524:.\main.c      ****                 }else{
1525:.\main.c      ****                     set_imagen(1,21);
 6793              		.loc 1 1525 0
 6794 1c58 0120     		movs	r0, #1
 6795 1c5a 1521     		movs	r1, #21
 6796 1c5c FFF7FEFF 		bl	set_imagen
1526:.\main.c      ****                     set_imagen(1,44);
 6797              		.loc 1 1526 0
 6798 1c60 0120     		movs	r0, #1
 6799 1c62 2C21     		movs	r1, #44
 6800 1c64 FFF7FEFF 		bl	set_imagen
1527:.\main.c      ****                     CyDelay(500);
 6801              		.loc 1 1527 0
 6802 1c68 4FF4FA70 		mov	r0, #500
 6803 1c6c FFF7FEFF 		bl	CyDelay
1528:.\main.c      ****                 }
1529:.\main.c      ****             }
1530:.\main.c      ****         break;
 6804              		.loc 1 1530 0
 6805 1c70 02F0BCBE 		b	.L115
 6806              	.L321:
 6807              		.loc 1 1530 0 is_stmt 0 discriminator 12
 6808 1c74 02F0BABE 		b	.L115
 6809              	.L127:
1531:.\main.c      ****             
1532:.\main.c      ****         
1533:.\main.c      ****             
1534:.\main.c      ****         case 11:    
1535:.\main.c      ****             if(seleccion_pos == 1){
 6810              		.loc 1 1535 0 is_stmt 1
ARM GAS  C:\Users\RECEPC~1\AppData\Local\Temp\cc2OimPl.s 			page 151


 6811 1c78 6C4B     		ldr	r3, .L673+24
 6812 1c7a 1B78     		ldrb	r3, [r3]
 6813 1c7c DBB2     		uxtb	r3, r3
 6814 1c7e 012B     		cmp	r3, #1
 6815 1c80 40F09480 		bne	.L324
1536:.\main.c      ****                 if(touch_present(1)==1){
 6816              		.loc 1 1536 0
 6817 1c84 0120     		movs	r0, #1
 6818 1c86 FFF7FEFF 		bl	touch_present
 6819 1c8a 0346     		mov	r3, r0
 6820 1c8c 012B     		cmp	r3, #1
 6821 1c8e 40F08D80 		bne	.L324
1537:.\main.c      ****                     if(touch_write(1,0x33)){
 6822              		.loc 1 1537 0
 6823 1c92 0120     		movs	r0, #1
 6824 1c94 3321     		movs	r1, #51
 6825 1c96 FFF7FEFF 		bl	touch_write
 6826 1c9a 0346     		mov	r3, r0
 6827 1c9c 002B     		cmp	r3, #0
 6828 1c9e 00F08580 		beq	.L324
1538:.\main.c      ****     	                for(x=0;x<=7;x++){
 6829              		.loc 1 1538 0
 6830 1ca2 0023     		movs	r3, #0
 6831 1ca4 87F82F30 		strb	r3, [r7, #47]
 6832 1ca8 0FE0     		b	.L325
 6833              	.L326:
1539:.\main.c      ****     	                    rventa1.id[x]=touch_read_byte(1);
 6834              		.loc 1 1539 0 discriminator 3
 6835 1caa 97F82F40 		ldrb	r4, [r7, #47]	@ zero_extendqisi2
 6836 1cae 0120     		movs	r0, #1
 6837 1cb0 FFF7FEFF 		bl	touch_read_byte
 6838 1cb4 0346     		mov	r3, r0
 6839 1cb6 1A46     		mov	r2, r3
 6840 1cb8 5D4B     		ldr	r3, .L673+28
 6841 1cba 2344     		add	r3, r3, r4
 6842 1cbc 83F82320 		strb	r2, [r3, #35]
1538:.\main.c      ****     	                for(x=0;x<=7;x++){
 6843              		.loc 1 1538 0 discriminator 3
 6844 1cc0 97F82F30 		ldrb	r3, [r7, #47]	@ zero_extendqisi2
 6845 1cc4 0133     		adds	r3, r3, #1
 6846 1cc6 87F82F30 		strb	r3, [r7, #47]
 6847              	.L325:
1538:.\main.c      ****     	                for(x=0;x<=7;x++){
 6848              		.loc 1 1538 0 is_stmt 0 discriminator 1
 6849 1cca 97F82F30 		ldrb	r3, [r7, #47]	@ zero_extendqisi2
 6850 1cce 072B     		cmp	r3, #7
 6851 1cd0 EBD9     		bls	.L326
1540:.\main.c      ****     	                }
1541:.\main.c      ****     				    crc_total=0;
 6852              		.loc 1 1541 0 is_stmt 1
 6853 1cd2 584B     		ldr	r3, .L673+32
 6854 1cd4 0022     		movs	r2, #0
 6855 1cd6 1A70     		strb	r2, [r3]
1542:.\main.c      ****     				    for(x=0;x<7;x++){
 6856              		.loc 1 1542 0
 6857 1cd8 0023     		movs	r3, #0
 6858 1cda 87F82F30 		strb	r3, [r7, #47]
ARM GAS  C:\Users\RECEPC~1\AppData\Local\Temp\cc2OimPl.s 			page 152


 6859 1cde 14E0     		b	.L327
 6860              	.L328:
1543:.\main.c      ****     				 	    crc_total=crc_check(crc_total,rventa1.id[x]);
 6861              		.loc 1 1543 0 discriminator 3
 6862 1ce0 544B     		ldr	r3, .L673+32
 6863 1ce2 1978     		ldrb	r1, [r3]	@ zero_extendqisi2
 6864 1ce4 97F82F30 		ldrb	r3, [r7, #47]	@ zero_extendqisi2
 6865 1ce8 514A     		ldr	r2, .L673+28
 6866 1cea 1344     		add	r3, r3, r2
 6867 1cec 93F82330 		ldrb	r3, [r3, #35]	@ zero_extendqisi2
 6868 1cf0 0846     		mov	r0, r1
 6869 1cf2 1946     		mov	r1, r3
 6870 1cf4 FFF7FEFF 		bl	crc_check
 6871 1cf8 0346     		mov	r3, r0
 6872 1cfa 1A46     		mov	r2, r3
 6873 1cfc 4D4B     		ldr	r3, .L673+32
 6874 1cfe 1A70     		strb	r2, [r3]
1542:.\main.c      ****     				    for(x=0;x<7;x++){
 6875              		.loc 1 1542 0 discriminator 3
 6876 1d00 97F82F30 		ldrb	r3, [r7, #47]	@ zero_extendqisi2
 6877 1d04 0133     		adds	r3, r3, #1
 6878 1d06 87F82F30 		strb	r3, [r7, #47]
 6879              	.L327:
1542:.\main.c      ****     				    for(x=0;x<7;x++){
 6880              		.loc 1 1542 0 is_stmt 0 discriminator 1
 6881 1d0a 97F82F30 		ldrb	r3, [r7, #47]	@ zero_extendqisi2
 6882 1d0e 062B     		cmp	r3, #6
 6883 1d10 E6D9     		bls	.L328
1544:.\main.c      ****     				    }					
1545:.\main.c      ****     				    if(crc_total==rventa1.id[7]){
 6884              		.loc 1 1545 0 is_stmt 1
 6885 1d12 474B     		ldr	r3, .L673+28
 6886 1d14 93F82A20 		ldrb	r2, [r3, #42]	@ zero_extendqisi2
 6887 1d18 464B     		ldr	r3, .L673+32
 6888 1d1a 1B78     		ldrb	r3, [r3]	@ zero_extendqisi2
 6889 1d1c 9A42     		cmp	r2, r3
 6890 1d1e 45D1     		bne	.L324
1546:.\main.c      ****     		                set_imagen(1,19);
 6891              		.loc 1 1546 0
 6892 1d20 0120     		movs	r0, #1
 6893 1d22 1321     		movs	r1, #19
 6894 1d24 FFF7FEFF 		bl	set_imagen
1547:.\main.c      ****     		                CyDelay(500);					 				 
 6895              		.loc 1 1547 0
 6896 1d28 4FF4FA70 		mov	r0, #500
 6897 1d2c FFF7FEFF 		bl	CyDelay
1548:.\main.c      ****     					    count_teclas1=0;							//Inicia el contador de teclas						    
 6898              		.loc 1 1548 0
 6899 1d30 414B     		ldr	r3, .L673+36
 6900 1d32 0022     		movs	r2, #0
 6901 1d34 1A70     		strb	r2, [r3]
1549:.\main.c      ****     					    teclas1=10;
 6902              		.loc 1 1549 0
 6903 1d36 414B     		ldr	r3, .L673+40
 6904 1d38 0A22     		movs	r2, #10
 6905 1d3a 1A70     		strb	r2, [r3]
1550:.\main.c      ****     					    posx1=2;
ARM GAS  C:\Users\RECEPC~1\AppData\Local\Temp\cc2OimPl.s 			page 153


 6906              		.loc 1 1550 0
 6907 1d3c 404B     		ldr	r3, .L673+44
 6908 1d3e 0222     		movs	r2, #2
 6909 1d40 1A80     		strh	r2, [r3]	@ movhi
1551:.\main.c      ****     					    posy1=3;
 6910              		.loc 1 1551 0
 6911 1d42 404B     		ldr	r3, .L673+48
 6912 1d44 0322     		movs	r2, #3
 6913 1d46 1A80     		strh	r2, [r3]	@ movhi
1552:.\main.c      ****     					    sizeletra1=1;	
 6914              		.loc 1 1552 0
 6915 1d48 3F4B     		ldr	r3, .L673+52
 6916 1d4a 0122     		movs	r2, #1
 6917 1d4c 1A80     		strh	r2, [r3]	@ movhi
1553:.\main.c      ****                             count_protector = 0;
 6918              		.loc 1 1553 0
 6919 1d4e 334B     		ldr	r3, .L673+8
 6920 1d50 0022     		movs	r2, #0
 6921 1d52 1A70     		strb	r2, [r3]
1554:.\main.c      ****                             if(id_teclado1 ==10){
 6922              		.loc 1 1554 0
 6923 1d54 3D4B     		ldr	r3, .L673+56
 6924 1d56 1B78     		ldrb	r3, [r3]
 6925 1d58 DBB2     		uxtb	r3, r3
 6926 1d5a 0A2B     		cmp	r3, #10
 6927 1d5c 06D1     		bne	.L329
1555:.\main.c      ****                                 set_imagen(1,19);
 6928              		.loc 1 1555 0
 6929 1d5e 0120     		movs	r0, #1
 6930 1d60 1321     		movs	r1, #19
 6931 1d62 FFF7FEFF 		bl	set_imagen
1556:.\main.c      ****                                 flujo_LCD1 = 19;
 6932              		.loc 1 1556 0
 6933 1d66 2E4B     		ldr	r3, .L673+12
 6934 1d68 1322     		movs	r2, #19
 6935 1d6a 1A70     		strb	r2, [r3]
 6936              	.L329:
1557:.\main.c      ****                             }
1558:.\main.c      ****                             if(id_teclado1 ==8){
 6937              		.loc 1 1558 0
 6938 1d6c 374B     		ldr	r3, .L673+56
 6939 1d6e 1B78     		ldrb	r3, [r3]
 6940 1d70 DBB2     		uxtb	r3, r3
 6941 1d72 082B     		cmp	r3, #8
 6942 1d74 06D1     		bne	.L330
1559:.\main.c      ****                                 set_imagen(1,36);
 6943              		.loc 1 1559 0
 6944 1d76 0120     		movs	r0, #1
 6945 1d78 2421     		movs	r1, #36
 6946 1d7a FFF7FEFF 		bl	set_imagen
1560:.\main.c      ****                                 flujo_LCD1 = 12;
 6947              		.loc 1 1560 0
 6948 1d7e 284B     		ldr	r3, .L673+12
 6949 1d80 0C22     		movs	r2, #12
 6950 1d82 1A70     		strb	r2, [r3]
 6951              	.L330:
1561:.\main.c      ****                             }
ARM GAS  C:\Users\RECEPC~1\AppData\Local\Temp\cc2OimPl.s 			page 154


1562:.\main.c      ****                             if(id_teclado1 !=8 && id_teclado1 !=10){
 6952              		.loc 1 1562 0
 6953 1d84 314B     		ldr	r3, .L673+56
 6954 1d86 1B78     		ldrb	r3, [r3]
 6955 1d88 DBB2     		uxtb	r3, r3
 6956 1d8a 082B     		cmp	r3, #8
 6957 1d8c 0ED0     		beq	.L324
 6958              		.loc 1 1562 0 is_stmt 0 discriminator 1
 6959 1d8e 2F4B     		ldr	r3, .L673+56
 6960 1d90 1B78     		ldrb	r3, [r3]
 6961 1d92 DBB2     		uxtb	r3, r3
 6962 1d94 0A2B     		cmp	r3, #10
 6963 1d96 09D0     		beq	.L324
1563:.\main.c      ****                                 id_teclado1=2;
 6964              		.loc 1 1563 0 is_stmt 1
 6965 1d98 2C4B     		ldr	r3, .L673+56
 6966 1d9a 0222     		movs	r2, #2
 6967 1d9c 1A70     		strb	r2, [r3]
1564:.\main.c      ****                                 set_imagen(1,14);
 6968              		.loc 1 1564 0
 6969 1d9e 0120     		movs	r0, #1
 6970 1da0 0E21     		movs	r1, #14
 6971 1da2 FFF7FEFF 		bl	set_imagen
1565:.\main.c      ****                                 flujo_LCD1=12;
 6972              		.loc 1 1565 0
 6973 1da6 1E4B     		ldr	r3, .L673+12
 6974 1da8 0C22     		movs	r2, #12
 6975 1daa 1A70     		strb	r2, [r3]
 6976              	.L324:
1566:.\main.c      ****                             }
1567:.\main.c      ****     					    	
1568:.\main.c      ****     				    }
1569:.\main.c      ****                     }
1570:.\main.c      ****                 }  
1571:.\main.c      ****             }
1572:.\main.c      ****             if(seleccion_pos == 2){
 6977              		.loc 1 1572 0
 6978 1dac 1F4B     		ldr	r3, .L673+24
 6979 1dae 1B78     		ldrb	r3, [r3]
 6980 1db0 DBB2     		uxtb	r3, r3
 6981 1db2 022B     		cmp	r3, #2
 6982 1db4 40F0AF80 		bne	.L331
1573:.\main.c      ****                 if(touch_present(1)==1){
 6983              		.loc 1 1573 0
 6984 1db8 0120     		movs	r0, #1
 6985 1dba FFF7FEFF 		bl	touch_present
 6986 1dbe 0346     		mov	r3, r0
 6987 1dc0 012B     		cmp	r3, #1
 6988 1dc2 40F0A880 		bne	.L331
1574:.\main.c      ****                     if(touch_write(1,0x33)){
 6989              		.loc 1 1574 0
 6990 1dc6 0120     		movs	r0, #1
 6991 1dc8 3321     		movs	r1, #51
 6992 1dca FFF7FEFF 		bl	touch_write
 6993 1dce 0346     		mov	r3, r0
 6994 1dd0 002B     		cmp	r3, #0
 6995 1dd2 00F0A080 		beq	.L331
ARM GAS  C:\Users\RECEPC~1\AppData\Local\Temp\cc2OimPl.s 			page 155


1575:.\main.c      ****     	                for(x=0;x<=7;x++){
 6996              		.loc 1 1575 0
 6997 1dd6 0023     		movs	r3, #0
 6998 1dd8 87F82F30 		strb	r3, [r7, #47]
 6999 1ddc 0FE0     		b	.L332
 7000              	.L333:
1576:.\main.c      ****     	                    rventa2.id[x]=touch_read_byte(1);
 7001              		.loc 1 1576 0 discriminator 3
 7002 1dde 97F82F40 		ldrb	r4, [r7, #47]	@ zero_extendqisi2
 7003 1de2 0120     		movs	r0, #1
 7004 1de4 FFF7FEFF 		bl	touch_read_byte
 7005 1de8 0346     		mov	r3, r0
 7006 1dea 1A46     		mov	r2, r3
 7007 1dec 094B     		ldr	r3, .L673
 7008 1dee 2344     		add	r3, r3, r4
 7009 1df0 83F82320 		strb	r2, [r3, #35]
1575:.\main.c      ****     	                for(x=0;x<=7;x++){
 7010              		.loc 1 1575 0 discriminator 3
 7011 1df4 97F82F30 		ldrb	r3, [r7, #47]	@ zero_extendqisi2
 7012 1df8 0133     		adds	r3, r3, #1
 7013 1dfa 87F82F30 		strb	r3, [r7, #47]
 7014              	.L332:
1575:.\main.c      ****     	                for(x=0;x<=7;x++){
 7015              		.loc 1 1575 0 is_stmt 0 discriminator 1
 7016 1dfe 97F82F30 		ldrb	r3, [r7, #47]	@ zero_extendqisi2
 7017 1e02 072B     		cmp	r3, #7
 7018 1e04 EBD9     		bls	.L333
1577:.\main.c      ****     	                }
1578:.\main.c      ****     				    crc_total=0;
 7019              		.loc 1 1578 0 is_stmt 1
 7020 1e06 0B4B     		ldr	r3, .L673+32
 7021 1e08 0022     		movs	r2, #0
 7022 1e0a 1A70     		strb	r2, [r3]
1579:.\main.c      ****     				    for(x=0;x<7;x++){
 7023              		.loc 1 1579 0
 7024 1e0c 0023     		movs	r3, #0
 7025 1e0e 87F82F30 		strb	r3, [r7, #47]
 7026 1e12 32E0     		b	.L334
 7027              	.L674:
 7028              		.align	2
 7029              	.L673:
 7030 1e14 00000000 		.word	rventa2
 7031 1e18 00000000 		.word	rf_mod
 7032 1e1c 00000000 		.word	count_protector
 7033 1e20 00000000 		.word	flujo_LCD1
 7034 1e24 00000000 		.word	lado1
 7035 1e28 00000000 		.word	pantallas
 7036 1e2c 00000000 		.word	seleccion_pos
 7037 1e30 00000000 		.word	rventa1
 7038 1e34 00000000 		.word	crc_total
 7039 1e38 00000000 		.word	count_teclas1
 7040 1e3c 00000000 		.word	teclas1
 7041 1e40 00000000 		.word	posx1
 7042 1e44 00000000 		.word	posy1
 7043 1e48 00000000 		.word	sizeletra1
 7044 1e4c 00000000 		.word	id_teclado1
 7045              	.L335:
ARM GAS  C:\Users\RECEPC~1\AppData\Local\Temp\cc2OimPl.s 			page 156


1580:.\main.c      ****     				 	    crc_total=crc_check(crc_total,rventa2.id[x]);
 7046              		.loc 1 1580 0 discriminator 3
 7047 1e50 7F4B     		ldr	r3, .L675
 7048 1e52 1978     		ldrb	r1, [r3]	@ zero_extendqisi2
 7049 1e54 97F82F30 		ldrb	r3, [r7, #47]	@ zero_extendqisi2
 7050 1e58 7E4A     		ldr	r2, .L675+4
 7051 1e5a 1344     		add	r3, r3, r2
 7052 1e5c 93F82330 		ldrb	r3, [r3, #35]	@ zero_extendqisi2
 7053 1e60 0846     		mov	r0, r1
 7054 1e62 1946     		mov	r1, r3
 7055 1e64 FFF7FEFF 		bl	crc_check
 7056 1e68 0346     		mov	r3, r0
 7057 1e6a 1A46     		mov	r2, r3
 7058 1e6c 784B     		ldr	r3, .L675
 7059 1e6e 1A70     		strb	r2, [r3]
1579:.\main.c      ****     				    for(x=0;x<7;x++){
 7060              		.loc 1 1579 0 discriminator 3
 7061 1e70 97F82F30 		ldrb	r3, [r7, #47]	@ zero_extendqisi2
 7062 1e74 0133     		adds	r3, r3, #1
 7063 1e76 87F82F30 		strb	r3, [r7, #47]
 7064              	.L334:
1579:.\main.c      ****     				    for(x=0;x<7;x++){
 7065              		.loc 1 1579 0 is_stmt 0 discriminator 1
 7066 1e7a 97F82F30 		ldrb	r3, [r7, #47]	@ zero_extendqisi2
 7067 1e7e 062B     		cmp	r3, #6
 7068 1e80 E6D9     		bls	.L335
1581:.\main.c      ****     				    }					
1582:.\main.c      ****     				    if(crc_total==rventa2.id[7]){
 7069              		.loc 1 1582 0 is_stmt 1
 7070 1e82 744B     		ldr	r3, .L675+4
 7071 1e84 93F82A20 		ldrb	r2, [r3, #42]	@ zero_extendqisi2
 7072 1e88 714B     		ldr	r3, .L675
 7073 1e8a 1B78     		ldrb	r3, [r3]	@ zero_extendqisi2
 7074 1e8c 9A42     		cmp	r2, r3
 7075 1e8e 42D1     		bne	.L331
1583:.\main.c      ****     		                set_imagen(1,19);
 7076              		.loc 1 1583 0
 7077 1e90 0120     		movs	r0, #1
 7078 1e92 1321     		movs	r1, #19
 7079 1e94 FFF7FEFF 		bl	set_imagen
1584:.\main.c      ****     		                CyDelay(500);					 				 
 7080              		.loc 1 1584 0
 7081 1e98 4FF4FA70 		mov	r0, #500
 7082 1e9c FFF7FEFF 		bl	CyDelay
1585:.\main.c      ****     					    count_teclas1=0;							//Inicia el contador de teclas						    
 7083              		.loc 1 1585 0
 7084 1ea0 6D4B     		ldr	r3, .L675+8
 7085 1ea2 0022     		movs	r2, #0
 7086 1ea4 1A70     		strb	r2, [r3]
1586:.\main.c      ****     					    teclas1=10;
 7087              		.loc 1 1586 0
 7088 1ea6 6D4B     		ldr	r3, .L675+12
 7089 1ea8 0A22     		movs	r2, #10
 7090 1eaa 1A70     		strb	r2, [r3]
1587:.\main.c      ****     					    posx1=2;
 7091              		.loc 1 1587 0
 7092 1eac 6C4B     		ldr	r3, .L675+16
ARM GAS  C:\Users\RECEPC~1\AppData\Local\Temp\cc2OimPl.s 			page 157


 7093 1eae 0222     		movs	r2, #2
 7094 1eb0 1A80     		strh	r2, [r3]	@ movhi
1588:.\main.c      ****     					    posy1=3;
 7095              		.loc 1 1588 0
 7096 1eb2 6C4B     		ldr	r3, .L675+20
 7097 1eb4 0322     		movs	r2, #3
 7098 1eb6 1A80     		strh	r2, [r3]	@ movhi
1589:.\main.c      ****     					    sizeletra1=1;	                        
 7099              		.loc 1 1589 0
 7100 1eb8 6B4B     		ldr	r3, .L675+24
 7101 1eba 0122     		movs	r2, #1
 7102 1ebc 1A80     		strh	r2, [r3]	@ movhi
1590:.\main.c      ****                             if(id_teclado1 ==10){
 7103              		.loc 1 1590 0
 7104 1ebe 6B4B     		ldr	r3, .L675+28
 7105 1ec0 1B78     		ldrb	r3, [r3]
 7106 1ec2 DBB2     		uxtb	r3, r3
 7107 1ec4 0A2B     		cmp	r3, #10
 7108 1ec6 06D1     		bne	.L336
1591:.\main.c      ****                                 set_imagen(1,19);
 7109              		.loc 1 1591 0
 7110 1ec8 0120     		movs	r0, #1
 7111 1eca 1321     		movs	r1, #19
 7112 1ecc FFF7FEFF 		bl	set_imagen
1592:.\main.c      ****                                 flujo_LCD1 = 19;
 7113              		.loc 1 1592 0
 7114 1ed0 674B     		ldr	r3, .L675+32
 7115 1ed2 1322     		movs	r2, #19
 7116 1ed4 1A70     		strb	r2, [r3]
 7117              	.L336:
1593:.\main.c      ****                             }
1594:.\main.c      ****                             if(id_teclado1 ==8){
 7118              		.loc 1 1594 0
 7119 1ed6 654B     		ldr	r3, .L675+28
 7120 1ed8 1B78     		ldrb	r3, [r3]
 7121 1eda DBB2     		uxtb	r3, r3
 7122 1edc 082B     		cmp	r3, #8
 7123 1ede 06D1     		bne	.L337
1595:.\main.c      ****                                 set_imagen(1,36);
 7124              		.loc 1 1595 0
 7125 1ee0 0120     		movs	r0, #1
 7126 1ee2 2421     		movs	r1, #36
 7127 1ee4 FFF7FEFF 		bl	set_imagen
1596:.\main.c      ****                                 flujo_LCD1 = 12;
 7128              		.loc 1 1596 0
 7129 1ee8 614B     		ldr	r3, .L675+32
 7130 1eea 0C22     		movs	r2, #12
 7131 1eec 1A70     		strb	r2, [r3]
 7132              	.L337:
1597:.\main.c      ****                             }
1598:.\main.c      ****                             if(id_teclado1 !=8 && id_teclado1 !=10){
 7133              		.loc 1 1598 0
 7134 1eee 5F4B     		ldr	r3, .L675+28
 7135 1ef0 1B78     		ldrb	r3, [r3]
 7136 1ef2 DBB2     		uxtb	r3, r3
 7137 1ef4 082B     		cmp	r3, #8
 7138 1ef6 0ED0     		beq	.L331
ARM GAS  C:\Users\RECEPC~1\AppData\Local\Temp\cc2OimPl.s 			page 158


 7139              		.loc 1 1598 0 is_stmt 0 discriminator 1
 7140 1ef8 5C4B     		ldr	r3, .L675+28
 7141 1efa 1B78     		ldrb	r3, [r3]
 7142 1efc DBB2     		uxtb	r3, r3
 7143 1efe 0A2B     		cmp	r3, #10
 7144 1f00 09D0     		beq	.L331
1599:.\main.c      ****                                 id_teclado1=2;
 7145              		.loc 1 1599 0 is_stmt 1
 7146 1f02 5A4B     		ldr	r3, .L675+28
 7147 1f04 0222     		movs	r2, #2
 7148 1f06 1A70     		strb	r2, [r3]
1600:.\main.c      ****                                 set_imagen(1,14);
 7149              		.loc 1 1600 0
 7150 1f08 0120     		movs	r0, #1
 7151 1f0a 0E21     		movs	r1, #14
 7152 1f0c FFF7FEFF 		bl	set_imagen
1601:.\main.c      ****                                 flujo_LCD1=12;
 7153              		.loc 1 1601 0
 7154 1f10 574B     		ldr	r3, .L675+32
 7155 1f12 0C22     		movs	r2, #12
 7156 1f14 1A70     		strb	r2, [r3]
 7157              	.L331:
1602:.\main.c      ****                             }
1603:.\main.c      ****     					    	
1604:.\main.c      ****     				    }   
1605:.\main.c      ****                     }
1606:.\main.c      ****                 }  
1607:.\main.c      ****             }
1608:.\main.c      ****             
1609:.\main.c      ****             if(LCD_1_GetRxBufferSize()==8){
 7158              		.loc 1 1609 0
 7159 1f16 FFF7FEFF 		bl	LCD_1_GetRxBufferSize
 7160 1f1a 0346     		mov	r3, r0
 7161 1f1c 082B     		cmp	r3, #8
 7162 1f1e 1ED1     		bne	.L338
1610:.\main.c      ****                 if((LCD_1_rxBuffer[0]==0xAA) && (LCD_1_rxBuffer[6]==0xC3) && (LCD_1_rxBuffer[7]==0x
 7163              		.loc 1 1610 0
 7164 1f20 544B     		ldr	r3, .L675+36
 7165 1f22 1B78     		ldrb	r3, [r3]
 7166 1f24 DBB2     		uxtb	r3, r3
 7167 1f26 AA2B     		cmp	r3, #170
 7168 1f28 12D1     		bne	.L339
 7169              		.loc 1 1610 0 is_stmt 0 discriminator 1
 7170 1f2a 524B     		ldr	r3, .L675+36
 7171 1f2c 9B79     		ldrb	r3, [r3, #6]
 7172 1f2e DBB2     		uxtb	r3, r3
 7173 1f30 C32B     		cmp	r3, #195
 7174 1f32 0DD1     		bne	.L339
 7175              		.loc 1 1610 0 discriminator 2
 7176 1f34 4F4B     		ldr	r3, .L675+36
 7177 1f36 DB79     		ldrb	r3, [r3, #7]
 7178 1f38 DBB2     		uxtb	r3, r3
 7179 1f3a 3C2B     		cmp	r3, #60
 7180 1f3c 08D1     		bne	.L339
1611:.\main.c      ****                     switch(LCD_1_rxBuffer[3]){
 7181              		.loc 1 1611 0 is_stmt 1
 7182 1f3e 4D4B     		ldr	r3, .L675+36
ARM GAS  C:\Users\RECEPC~1\AppData\Local\Temp\cc2OimPl.s 			page 159


 7183 1f40 DB78     		ldrb	r3, [r3, #3]
 7184 1f42 DBB2     		uxtb	r3, r3
 7185 1f44 3B2B     		cmp	r3, #59
 7186 1f46 03D1     		bne	.L339
1612:.\main.c      ****                         case 0x3B:
1613:.\main.c      ****                             flujo_LCD1=0; 
 7187              		.loc 1 1613 0
 7188 1f48 494B     		ldr	r3, .L675+32
 7189 1f4a 0022     		movs	r2, #0
 7190 1f4c 1A70     		strb	r2, [r3]
1614:.\main.c      ****                         break; 
 7191              		.loc 1 1614 0
 7192 1f4e 00BF     		nop
 7193              	.L339:
1615:.\main.c      ****                     }
1616:.\main.c      ****                 }
1617:.\main.c      ****                 CyDelay(100);            
 7194              		.loc 1 1617 0
 7195 1f50 6420     		movs	r0, #100
 7196 1f52 FFF7FEFF 		bl	CyDelay
1618:.\main.c      ****                 LCD_1_ClearRxBuffer();            
 7197              		.loc 1 1618 0
 7198 1f56 FFF7FEFF 		bl	LCD_1_ClearRxBuffer
1619:.\main.c      ****         }		
1620:.\main.c      **** 		break;
 7199              		.loc 1 1620 0
 7200 1f5a 02F047BD 		b	.L115
 7201              	.L338:
 7202              		.loc 1 1620 0 is_stmt 0 discriminator 13
 7203 1f5e 02F045BD 		b	.L115
 7204              	.L128:
1621:.\main.c      **** 
1622:.\main.c      ****         
1623:.\main.c      ****         
1624:.\main.c      **** case 12: 
1625:.\main.c      ****         if(seleccion_pos == 1){
 7205              		.loc 1 1625 0 is_stmt 1
 7206 1f62 454B     		ldr	r3, .L675+40
 7207 1f64 1B78     		ldrb	r3, [r3]
 7208 1f66 DBB2     		uxtb	r3, r3
 7209 1f68 012B     		cmp	r3, #1
 7210 1f6a 40F0A885 		bne	.L341
1626:.\main.c      ****          if(LCD_1_GetRxBufferSize()==8){
 7211              		.loc 1 1626 0
 7212 1f6e FFF7FEFF 		bl	LCD_1_GetRxBufferSize
 7213 1f72 0346     		mov	r3, r0
 7214 1f74 082B     		cmp	r3, #8
 7215 1f76 40F0A285 		bne	.L341
1627:.\main.c      ****             if((LCD_1_rxBuffer[0]==0xAA) && (LCD_1_rxBuffer[6]==0xC3) && (LCD_1_rxBuffer[7]==0x3C))
 7216              		.loc 1 1627 0
 7217 1f7a 3E4B     		ldr	r3, .L675+36
 7218 1f7c 1B78     		ldrb	r3, [r3]
 7219 1f7e DBB2     		uxtb	r3, r3
 7220 1f80 AA2B     		cmp	r3, #170
 7221 1f82 40F09A85 		bne	.L342
 7222              		.loc 1 1627 0 is_stmt 0 discriminator 1
 7223 1f86 3B4B     		ldr	r3, .L675+36
ARM GAS  C:\Users\RECEPC~1\AppData\Local\Temp\cc2OimPl.s 			page 160


 7224 1f88 9B79     		ldrb	r3, [r3, #6]
 7225 1f8a DBB2     		uxtb	r3, r3
 7226 1f8c C32B     		cmp	r3, #195
 7227 1f8e 40F09485 		bne	.L342
 7228              		.loc 1 1627 0 discriminator 2
 7229 1f92 384B     		ldr	r3, .L675+36
 7230 1f94 DB79     		ldrb	r3, [r3, #7]
 7231 1f96 DBB2     		uxtb	r3, r3
 7232 1f98 3C2B     		cmp	r3, #60
 7233 1f9a 40F08E85 		bne	.L342
1628:.\main.c      **** 				count_protector=0;
 7234              		.loc 1 1628 0 is_stmt 1
 7235 1f9e 374B     		ldr	r3, .L675+44
 7236 1fa0 0022     		movs	r2, #0
 7237 1fa2 1A70     		strb	r2, [r3]
1629:.\main.c      ****                 if(count_teclas1<teclas1){									
 7238              		.loc 1 1629 0
 7239 1fa4 2C4B     		ldr	r3, .L675+8
 7240 1fa6 1B78     		ldrb	r3, [r3]
 7241 1fa8 DAB2     		uxtb	r2, r3
 7242 1faa 2C4B     		ldr	r3, .L675+12
 7243 1fac 1B78     		ldrb	r3, [r3]
 7244 1fae DBB2     		uxtb	r3, r3
 7245 1fb0 9A42     		cmp	r2, r3
 7246 1fb2 80F0D780 		bcs	.L343
1630:.\main.c      ****                     if(LCD_1_rxBuffer[3]<=9){								//Numero de 1-9
 7247              		.loc 1 1630 0
 7248 1fb6 2F4B     		ldr	r3, .L675+36
 7249 1fb8 DB78     		ldrb	r3, [r3, #3]
 7250 1fba DBB2     		uxtb	r3, r3
 7251 1fbc 092B     		cmp	r3, #9
 7252 1fbe 32D8     		bhi	.L344
1631:.\main.c      ****                         count_teclas1++;
 7253              		.loc 1 1631 0
 7254 1fc0 254B     		ldr	r3, .L675+8
 7255 1fc2 1B78     		ldrb	r3, [r3]
 7256 1fc4 DBB2     		uxtb	r3, r3
 7257 1fc6 0133     		adds	r3, r3, #1
 7258 1fc8 DAB2     		uxtb	r2, r3
 7259 1fca 234B     		ldr	r3, .L675+8
 7260 1fcc 1A70     		strb	r2, [r3]
1632:.\main.c      ****                         Buffer_LCD1[count_teclas1]=LCD_1_rxBuffer[3];
 7261              		.loc 1 1632 0
 7262 1fce 224B     		ldr	r3, .L675+8
 7263 1fd0 1B78     		ldrb	r3, [r3]
 7264 1fd2 DBB2     		uxtb	r3, r3
 7265 1fd4 1A46     		mov	r2, r3
 7266 1fd6 274B     		ldr	r3, .L675+36
 7267 1fd8 DB78     		ldrb	r3, [r3, #3]
 7268 1fda D9B2     		uxtb	r1, r3
 7269 1fdc 284B     		ldr	r3, .L675+48
 7270 1fde 9954     		strb	r1, [r3, r2]
1633:.\main.c      ****                         write_LCD(1,(LCD_1_rxBuffer[3]+0x30), posy1, ((count_teclas1*(sizeletra1+1)
 7271              		.loc 1 1633 0
 7272 1fe0 244B     		ldr	r3, .L675+36
 7273 1fe2 DB78     		ldrb	r3, [r3, #3]
 7274 1fe4 DBB2     		uxtb	r3, r3
ARM GAS  C:\Users\RECEPC~1\AppData\Local\Temp\cc2OimPl.s 			page 161


 7275 1fe6 3033     		adds	r3, r3, #48
 7276 1fe8 D9B2     		uxtb	r1, r3
 7277 1fea 1E4B     		ldr	r3, .L675+20
 7278 1fec 1B88     		ldrh	r3, [r3]	@ movhi
 7279 1fee 9DB2     		uxth	r5, r3
 7280 1ff0 194B     		ldr	r3, .L675+8
 7281 1ff2 1B78     		ldrb	r3, [r3]
 7282 1ff4 DBB2     		uxtb	r3, r3
 7283 1ff6 9BB2     		uxth	r3, r3
 7284 1ff8 1B4A     		ldr	r2, .L675+24
 7285 1ffa 1288     		ldrh	r2, [r2]	@ movhi
 7286 1ffc 92B2     		uxth	r2, r2
 7287 1ffe 0132     		adds	r2, r2, #1
 7288 2000 92B2     		uxth	r2, r2
 7289 2002 02FB03F3 		mul	r3, r2, r3
 7290 2006 9AB2     		uxth	r2, r3
 7291 2008 154B     		ldr	r3, .L675+16
 7292 200a 1B88     		ldrh	r3, [r3]	@ movhi
 7293 200c 9BB2     		uxth	r3, r3
 7294 200e 1344     		add	r3, r3, r2
 7295 2010 9CB2     		uxth	r4, r3
 7296 2012 154B     		ldr	r3, .L675+24
 7297 2014 1B88     		ldrh	r3, [r3]	@ movhi
 7298 2016 9BB2     		uxth	r3, r3
 7299 2018 DBB2     		uxtb	r3, r3
 7300 201a 0093     		str	r3, [sp]
 7301 201c 0120     		movs	r0, #1
 7302 201e 2A46     		mov	r2, r5
 7303 2020 2346     		mov	r3, r4
 7304 2022 FFF7FEFF 		bl	write_LCD
 7305              	.L344:
1634:.\main.c      ****                     }
1635:.\main.c      ****                     if(LCD_1_rxBuffer[3]==0x0A){            				//Comando de 0
 7306              		.loc 1 1635 0
 7307 2026 134B     		ldr	r3, .L675+36
 7308 2028 DB78     		ldrb	r3, [r3, #3]
 7309 202a DBB2     		uxtb	r3, r3
 7310 202c 0A2B     		cmp	r3, #10
 7311 202e 56D1     		bne	.L345
1636:.\main.c      **** 						if((id_teclado1==1)&&(count_teclas1==1)&&(Buffer_LCD1[1]==0)){
 7312              		.loc 1 1636 0
 7313 2030 0E4B     		ldr	r3, .L675+28
 7314 2032 1B78     		ldrb	r3, [r3]
 7315 2034 DBB2     		uxtb	r3, r3
 7316 2036 012B     		cmp	r3, #1
 7317 2038 24D1     		bne	.L346
 7318              		.loc 1 1636 0 is_stmt 0 discriminator 1
 7319 203a 074B     		ldr	r3, .L675+8
 7320 203c 1B78     		ldrb	r3, [r3]
 7321 203e DBB2     		uxtb	r3, r3
 7322 2040 012B     		cmp	r3, #1
 7323 2042 1FD1     		bne	.L346
 7324              		.loc 1 1636 0 discriminator 2
 7325 2044 0E4B     		ldr	r3, .L675+48
 7326 2046 5B78     		ldrb	r3, [r3, #1]
 7327 2048 DBB2     		uxtb	r3, r3
 7328 204a 002B     		cmp	r3, #0
ARM GAS  C:\Users\RECEPC~1\AppData\Local\Temp\cc2OimPl.s 			page 162


 7329 204c 1AD1     		bne	.L346
 7330              		.loc 1 1636 0
 7331 204e 46E0     		b	.L345
 7332              	.L676:
 7333              		.align	2
 7334              	.L675:
 7335 2050 00000000 		.word	crc_total
 7336 2054 00000000 		.word	rventa2
 7337 2058 00000000 		.word	count_teclas1
 7338 205c 00000000 		.word	teclas1
 7339 2060 00000000 		.word	posx1
 7340 2064 00000000 		.word	posy1
 7341 2068 00000000 		.word	sizeletra1
 7342 206c 00000000 		.word	id_teclado1
 7343 2070 00000000 		.word	flujo_LCD1
 7344 2074 00000000 		.word	LCD_1_rxBuffer
 7345 2078 00000000 		.word	seleccion_pos
 7346 207c 00000000 		.word	count_protector
 7347 2080 00000000 		.word	Buffer_LCD1
 7348              	.L346:
1637:.\main.c      **** 						}
1638:.\main.c      **** 						else{
1639:.\main.c      **** 	                        count_teclas1++;
 7349              		.loc 1 1639 0 is_stmt 1
 7350 2084 AF4B     		ldr	r3, .L677
 7351 2086 1B78     		ldrb	r3, [r3]
 7352 2088 DBB2     		uxtb	r3, r3
 7353 208a 0133     		adds	r3, r3, #1
 7354 208c DAB2     		uxtb	r2, r3
 7355 208e AD4B     		ldr	r3, .L677
 7356 2090 1A70     		strb	r2, [r3]
1640:.\main.c      **** 	                        Buffer_LCD1[count_teclas1]=0;
 7357              		.loc 1 1640 0
 7358 2092 AC4B     		ldr	r3, .L677
 7359 2094 1B78     		ldrb	r3, [r3]
 7360 2096 DBB2     		uxtb	r3, r3
 7361 2098 1A46     		mov	r2, r3
 7362 209a AB4B     		ldr	r3, .L677+4
 7363 209c 0021     		movs	r1, #0
 7364 209e 9954     		strb	r1, [r3, r2]
1641:.\main.c      **** 							write_LCD(1,0x30, posy1, ((count_teclas1*(sizeletra1+1))+posx1), sizeletra1);
 7365              		.loc 1 1641 0
 7366 20a0 AA4B     		ldr	r3, .L677+8
 7367 20a2 1B88     		ldrh	r3, [r3]	@ movhi
 7368 20a4 9DB2     		uxth	r5, r3
 7369 20a6 A74B     		ldr	r3, .L677
 7370 20a8 1B78     		ldrb	r3, [r3]
 7371 20aa DBB2     		uxtb	r3, r3
 7372 20ac 9BB2     		uxth	r3, r3
 7373 20ae A84A     		ldr	r2, .L677+12
 7374 20b0 1288     		ldrh	r2, [r2]	@ movhi
 7375 20b2 92B2     		uxth	r2, r2
 7376 20b4 0132     		adds	r2, r2, #1
 7377 20b6 92B2     		uxth	r2, r2
 7378 20b8 02FB03F3 		mul	r3, r2, r3
 7379 20bc 9AB2     		uxth	r2, r3
 7380 20be A54B     		ldr	r3, .L677+16
ARM GAS  C:\Users\RECEPC~1\AppData\Local\Temp\cc2OimPl.s 			page 163


 7381 20c0 1B88     		ldrh	r3, [r3]	@ movhi
 7382 20c2 9BB2     		uxth	r3, r3
 7383 20c4 1344     		add	r3, r3, r2
 7384 20c6 9CB2     		uxth	r4, r3
 7385 20c8 A14B     		ldr	r3, .L677+12
 7386 20ca 1B88     		ldrh	r3, [r3]	@ movhi
 7387 20cc 9BB2     		uxth	r3, r3
 7388 20ce DBB2     		uxtb	r3, r3
 7389 20d0 0093     		str	r3, [sp]
 7390 20d2 0120     		movs	r0, #1
 7391 20d4 3021     		movs	r1, #48
 7392 20d6 2A46     		mov	r2, r5
 7393 20d8 2346     		mov	r3, r4
 7394 20da FFF7FEFF 		bl	write_LCD
 7395              	.L345:
1642:.\main.c      **** 						}
1643:.\main.c      ****                     }  
1644:.\main.c      ****                     if(LCD_1_rxBuffer[3]==0x51){            	 			//Comando de Coma
 7396              		.loc 1 1644 0
 7397 20de 9E4B     		ldr	r3, .L677+20
 7398 20e0 DB78     		ldrb	r3, [r3, #3]
 7399 20e2 DBB2     		uxtb	r3, r3
 7400 20e4 512B     		cmp	r3, #81
 7401 20e6 3DD1     		bne	.L343
1645:.\main.c      ****                         if(count_teclas1>=1 && comas1==0){
 7402              		.loc 1 1645 0
 7403 20e8 964B     		ldr	r3, .L677
 7404 20ea 1B78     		ldrb	r3, [r3]
 7405 20ec DBB2     		uxtb	r3, r3
 7406 20ee 002B     		cmp	r3, #0
 7407 20f0 38D0     		beq	.L343
 7408              		.loc 1 1645 0 is_stmt 0 discriminator 1
 7409 20f2 9A4B     		ldr	r3, .L677+24
 7410 20f4 1B78     		ldrb	r3, [r3]
 7411 20f6 DBB2     		uxtb	r3, r3
 7412 20f8 002B     		cmp	r3, #0
 7413 20fa 33D1     		bne	.L343
1646:.\main.c      ****                             count_teclas1++;
 7414              		.loc 1 1646 0 is_stmt 1
 7415 20fc 914B     		ldr	r3, .L677
 7416 20fe 1B78     		ldrb	r3, [r3]
 7417 2100 DBB2     		uxtb	r3, r3
 7418 2102 0133     		adds	r3, r3, #1
 7419 2104 DAB2     		uxtb	r2, r3
 7420 2106 8F4B     		ldr	r3, .L677
 7421 2108 1A70     		strb	r2, [r3]
1647:.\main.c      ****                             Buffer_LCD1[count_teclas1]=id_coma1;
 7422              		.loc 1 1647 0
 7423 210a 8E4B     		ldr	r3, .L677
 7424 210c 1B78     		ldrb	r3, [r3]
 7425 210e DBB2     		uxtb	r3, r3
 7426 2110 1A46     		mov	r2, r3
 7427 2112 934B     		ldr	r3, .L677+28
 7428 2114 1B78     		ldrb	r3, [r3]
 7429 2116 D9B2     		uxtb	r1, r3
 7430 2118 8B4B     		ldr	r3, .L677+4
 7431 211a 9954     		strb	r1, [r3, r2]
ARM GAS  C:\Users\RECEPC~1\AppData\Local\Temp\cc2OimPl.s 			page 164


1648:.\main.c      **** 							write_LCD(1,id_coma1, posy1, ((count_teclas1*(sizeletra1+1))+posx1), sizeletra1);
 7432              		.loc 1 1648 0
 7433 211c 904B     		ldr	r3, .L677+28
 7434 211e 1B78     		ldrb	r3, [r3]
 7435 2120 D9B2     		uxtb	r1, r3
 7436 2122 8A4B     		ldr	r3, .L677+8
 7437 2124 1B88     		ldrh	r3, [r3]	@ movhi
 7438 2126 9DB2     		uxth	r5, r3
 7439 2128 864B     		ldr	r3, .L677
 7440 212a 1B78     		ldrb	r3, [r3]
 7441 212c DBB2     		uxtb	r3, r3
 7442 212e 9BB2     		uxth	r3, r3
 7443 2130 874A     		ldr	r2, .L677+12
 7444 2132 1288     		ldrh	r2, [r2]	@ movhi
 7445 2134 92B2     		uxth	r2, r2
 7446 2136 0132     		adds	r2, r2, #1
 7447 2138 92B2     		uxth	r2, r2
 7448 213a 02FB03F3 		mul	r3, r2, r3
 7449 213e 9AB2     		uxth	r2, r3
 7450 2140 844B     		ldr	r3, .L677+16
 7451 2142 1B88     		ldrh	r3, [r3]	@ movhi
 7452 2144 9BB2     		uxth	r3, r3
 7453 2146 1344     		add	r3, r3, r2
 7454 2148 9CB2     		uxth	r4, r3
 7455 214a 814B     		ldr	r3, .L677+12
 7456 214c 1B88     		ldrh	r3, [r3]	@ movhi
 7457 214e 9BB2     		uxth	r3, r3
 7458 2150 DBB2     		uxtb	r3, r3
 7459 2152 0093     		str	r3, [sp]
 7460 2154 0120     		movs	r0, #1
 7461 2156 2A46     		mov	r2, r5
 7462 2158 2346     		mov	r3, r4
 7463 215a FFF7FEFF 		bl	write_LCD
1649:.\main.c      ****                             comas1=1;
 7464              		.loc 1 1649 0
 7465 215e 7F4B     		ldr	r3, .L677+24
 7466 2160 0122     		movs	r2, #1
 7467 2162 1A70     		strb	r2, [r3]
 7468              	.L343:
1650:.\main.c      ****                         }
1651:.\main.c      ****                     }                    
1652:.\main.c      ****                 }                                
1653:.\main.c      ****                 if(LCD_1_rxBuffer[3]==0x0B){								//Cancel
 7469              		.loc 1 1653 0
 7470 2164 7C4B     		ldr	r3, .L677+20
 7471 2166 DB78     		ldrb	r3, [r3, #3]
 7472 2168 DBB2     		uxtb	r3, r3
 7473 216a 0B2B     		cmp	r3, #11
 7474 216c 40F0A080 		bne	.L347
1654:.\main.c      ****                     if(count_teclas1==0){
 7475              		.loc 1 1654 0
 7476 2170 744B     		ldr	r3, .L677
 7477 2172 1B78     		ldrb	r3, [r3]
 7478 2174 DBB2     		uxtb	r3, r3
 7479 2176 002B     		cmp	r3, #0
 7480 2178 5ED1     		bne	.L348
1655:.\main.c      **** 						switch(id_teclado1){
ARM GAS  C:\Users\RECEPC~1\AppData\Local\Temp\cc2OimPl.s 			page 165


 7481              		.loc 1 1655 0
 7482 217a 7A4B     		ldr	r3, .L677+32
 7483 217c 1B78     		ldrb	r3, [r3]
 7484 217e DBB2     		uxtb	r3, r3
 7485 2180 013B     		subs	r3, r3, #1
 7486 2182 072B     		cmp	r3, #7
 7487 2184 00F29480 		bhi	.L347
 7488 2188 01A2     		adr	r2, .L351
 7489 218a 52F823F0 		ldr	pc, [r2, r3, lsl #2]
 7490 218e 00BF     		.p2align 2
 7491              	.L351:
 7492 2190 B1210000 		.word	.L350+1
 7493 2194 C1210000 		.word	.L352+1
 7494 2198 C9210000 		.word	.L353+1
 7495 219c DF210000 		.word	.L354+1
 7496 21a0 F5210000 		.word	.L355+1
 7497 21a4 0B220000 		.word	.L356+1
 7498 21a8 B1220000 		.word	.L347+1
 7499 21ac 21220000 		.word	.L357+1
 7500              		.p2align 1
 7501              	.L350:
1656:.\main.c      **** 							case 1:
1657:.\main.c      **** 							set_imagen(1,5);
 7502              		.loc 1 1657 0
 7503 21b0 0120     		movs	r0, #1
 7504 21b2 0521     		movs	r1, #5
 7505 21b4 FFF7FEFF 		bl	set_imagen
1658:.\main.c      **** 							flujo_LCD1=4;
 7506              		.loc 1 1658 0
 7507 21b8 6B4B     		ldr	r3, .L677+36
 7508 21ba 0422     		movs	r2, #4
 7509 21bc 1A70     		strb	r2, [r3]
1659:.\main.c      **** 							break;
 7510              		.loc 1 1659 0
 7511 21be 3AE0     		b	.L349
 7512              	.L352:
1660:.\main.c      **** 							case 2:
1661:.\main.c      **** 	                        flujo_LCD1=0;	
 7513              		.loc 1 1661 0
 7514 21c0 694B     		ldr	r3, .L677+36
 7515 21c2 0022     		movs	r2, #0
 7516 21c4 1A70     		strb	r2, [r3]
1662:.\main.c      **** 							break;
 7517              		.loc 1 1662 0
 7518 21c6 36E0     		b	.L349
 7519              	.L353:
1663:.\main.c      **** 							case 3:
1664:.\main.c      **** 							set_imagen(1,0);
 7520              		.loc 1 1664 0
 7521 21c8 0120     		movs	r0, #1
 7522 21ca 0021     		movs	r1, #0
 7523 21cc FFF7FEFF 		bl	set_imagen
1665:.\main.c      **** 							flujo_LCD1=0;
 7524              		.loc 1 1665 0
 7525 21d0 654B     		ldr	r3, .L677+36
 7526 21d2 0022     		movs	r2, #0
 7527 21d4 1A70     		strb	r2, [r3]
ARM GAS  C:\Users\RECEPC~1\AppData\Local\Temp\cc2OimPl.s 			page 166


1666:.\main.c      **** 							lado1.estado=libre;
 7528              		.loc 1 1666 0
 7529 21d6 654B     		ldr	r3, .L677+40
 7530 21d8 0122     		movs	r2, #1
 7531 21da 5A70     		strb	r2, [r3, #1]
1667:.\main.c      **** 							break;
 7532              		.loc 1 1667 0
 7533 21dc 2BE0     		b	.L349
 7534              	.L354:
1668:.\main.c      **** 							case 4:
1669:.\main.c      **** 							set_imagen(1,0);
 7535              		.loc 1 1669 0
 7536 21de 0120     		movs	r0, #1
 7537 21e0 0021     		movs	r1, #0
 7538 21e2 FFF7FEFF 		bl	set_imagen
1670:.\main.c      **** 							flujo_LCD1=0;
 7539              		.loc 1 1670 0
 7540 21e6 604B     		ldr	r3, .L677+36
 7541 21e8 0022     		movs	r2, #0
 7542 21ea 1A70     		strb	r2, [r3]
1671:.\main.c      **** 							lado1.estado=libre;
 7543              		.loc 1 1671 0
 7544 21ec 5F4B     		ldr	r3, .L677+40
 7545 21ee 0122     		movs	r2, #1
 7546 21f0 5A70     		strb	r2, [r3, #1]
1672:.\main.c      **** 							break;
 7547              		.loc 1 1672 0
 7548 21f2 20E0     		b	.L349
 7549              	.L355:
1673:.\main.c      ****                             case 5:
1674:.\main.c      **** 							set_imagen(1,0);
 7550              		.loc 1 1674 0
 7551 21f4 0120     		movs	r0, #1
 7552 21f6 0021     		movs	r1, #0
 7553 21f8 FFF7FEFF 		bl	set_imagen
1675:.\main.c      **** 							flujo_LCD1=0;
 7554              		.loc 1 1675 0
 7555 21fc 5A4B     		ldr	r3, .L677+36
 7556 21fe 0022     		movs	r2, #0
 7557 2200 1A70     		strb	r2, [r3]
1676:.\main.c      **** 							lado1.estado=libre;                            
 7558              		.loc 1 1676 0
 7559 2202 5A4B     		ldr	r3, .L677+40
 7560 2204 0122     		movs	r2, #1
 7561 2206 5A70     		strb	r2, [r3, #1]
1677:.\main.c      ****                             break;
 7562              		.loc 1 1677 0
 7563 2208 15E0     		b	.L349
 7564              	.L356:
1678:.\main.c      ****                             case 6:
1679:.\main.c      **** 							set_imagen(1,0);
 7565              		.loc 1 1679 0
 7566 220a 0120     		movs	r0, #1
 7567 220c 0021     		movs	r1, #0
 7568 220e FFF7FEFF 		bl	set_imagen
1680:.\main.c      **** 							flujo_LCD1=0;
 7569              		.loc 1 1680 0
ARM GAS  C:\Users\RECEPC~1\AppData\Local\Temp\cc2OimPl.s 			page 167


 7570 2212 554B     		ldr	r3, .L677+36
 7571 2214 0022     		movs	r2, #0
 7572 2216 1A70     		strb	r2, [r3]
1681:.\main.c      **** 							lado1.estado=libre;                            
 7573              		.loc 1 1681 0
 7574 2218 544B     		ldr	r3, .L677+40
 7575 221a 0122     		movs	r2, #1
 7576 221c 5A70     		strb	r2, [r3, #1]
1682:.\main.c      ****                             break;  
 7577              		.loc 1 1682 0
 7578 221e 0AE0     		b	.L349
 7579              	.L357:
1683:.\main.c      ****                             case 8:
1684:.\main.c      **** 							set_imagen(1,0);
 7580              		.loc 1 1684 0
 7581 2220 0120     		movs	r0, #1
 7582 2222 0021     		movs	r1, #0
 7583 2224 FFF7FEFF 		bl	set_imagen
1685:.\main.c      **** 							flujo_LCD1 = 0;
 7584              		.loc 1 1685 0
 7585 2228 4F4B     		ldr	r3, .L677+36
 7586 222a 0022     		movs	r2, #0
 7587 222c 1A70     		strb	r2, [r3]
1686:.\main.c      **** 							lado1.estado=libre;                            
 7588              		.loc 1 1686 0
 7589 222e 4F4B     		ldr	r3, .L677+40
 7590 2230 0122     		movs	r2, #1
 7591 2232 5A70     		strb	r2, [r3, #1]
1687:.\main.c      ****                             break;                             
 7592              		.loc 1 1687 0
 7593 2234 00BF     		nop
 7594              	.L349:
 7595 2236 3BE0     		b	.L347
 7596              	.L348:
1688:.\main.c      **** 						}
1689:.\main.c      ****                     }
1690:.\main.c      ****                     else{
1691:.\main.c      **** 						write_LCD(1,0x20, posy1, ((count_teclas1*(sizeletra1+1))+posx1), sizeletra1);
 7597              		.loc 1 1691 0
 7598 2238 444B     		ldr	r3, .L677+8
 7599 223a 1B88     		ldrh	r3, [r3]	@ movhi
 7600 223c 9DB2     		uxth	r5, r3
 7601 223e 414B     		ldr	r3, .L677
 7602 2240 1B78     		ldrb	r3, [r3]
 7603 2242 DBB2     		uxtb	r3, r3
 7604 2244 9BB2     		uxth	r3, r3
 7605 2246 424A     		ldr	r2, .L677+12
 7606 2248 1288     		ldrh	r2, [r2]	@ movhi
 7607 224a 92B2     		uxth	r2, r2
 7608 224c 0132     		adds	r2, r2, #1
 7609 224e 92B2     		uxth	r2, r2
 7610 2250 02FB03F3 		mul	r3, r2, r3
 7611 2254 9AB2     		uxth	r2, r3
 7612 2256 3F4B     		ldr	r3, .L677+16
 7613 2258 1B88     		ldrh	r3, [r3]	@ movhi
 7614 225a 9BB2     		uxth	r3, r3
 7615 225c 1344     		add	r3, r3, r2
ARM GAS  C:\Users\RECEPC~1\AppData\Local\Temp\cc2OimPl.s 			page 168


 7616 225e 9CB2     		uxth	r4, r3
 7617 2260 3B4B     		ldr	r3, .L677+12
 7618 2262 1B88     		ldrh	r3, [r3]	@ movhi
 7619 2264 9BB2     		uxth	r3, r3
 7620 2266 DBB2     		uxtb	r3, r3
 7621 2268 0093     		str	r3, [sp]
 7622 226a 0120     		movs	r0, #1
 7623 226c 2021     		movs	r1, #32
 7624 226e 2A46     		mov	r2, r5
 7625 2270 2346     		mov	r3, r4
 7626 2272 FFF7FEFF 		bl	write_LCD
1692:.\main.c      ****                         if(Buffer_LCD1[count_teclas1]==id_coma1){
 7627              		.loc 1 1692 0
 7628 2276 334B     		ldr	r3, .L677
 7629 2278 1B78     		ldrb	r3, [r3]
 7630 227a DBB2     		uxtb	r3, r3
 7631 227c 1A46     		mov	r2, r3
 7632 227e 324B     		ldr	r3, .L677+4
 7633 2280 9B5C     		ldrb	r3, [r3, r2]
 7634 2282 DAB2     		uxtb	r2, r3
 7635 2284 364B     		ldr	r3, .L677+28
 7636 2286 1B78     		ldrb	r3, [r3]
 7637 2288 DBB2     		uxtb	r3, r3
 7638 228a 9A42     		cmp	r2, r3
 7639 228c 02D1     		bne	.L358
1693:.\main.c      ****                             comas1=0;
 7640              		.loc 1 1693 0
 7641 228e 334B     		ldr	r3, .L677+24
 7642 2290 0022     		movs	r2, #0
 7643 2292 1A70     		strb	r2, [r3]
 7644              	.L358:
1694:.\main.c      ****                         }
1695:.\main.c      **** 						Buffer_LCD1[count_teclas1]=0;
 7645              		.loc 1 1695 0
 7646 2294 2B4B     		ldr	r3, .L677
 7647 2296 1B78     		ldrb	r3, [r3]
 7648 2298 DBB2     		uxtb	r3, r3
 7649 229a 1A46     		mov	r2, r3
 7650 229c 2A4B     		ldr	r3, .L677+4
 7651 229e 0021     		movs	r1, #0
 7652 22a0 9954     		strb	r1, [r3, r2]
1696:.\main.c      ****                         count_teclas1--;
 7653              		.loc 1 1696 0
 7654 22a2 284B     		ldr	r3, .L677
 7655 22a4 1B78     		ldrb	r3, [r3]
 7656 22a6 DBB2     		uxtb	r3, r3
 7657 22a8 013B     		subs	r3, r3, #1
 7658 22aa DAB2     		uxtb	r2, r3
 7659 22ac 254B     		ldr	r3, .L677
 7660 22ae 1A70     		strb	r2, [r3]
 7661              	.L347:
1697:.\main.c      ****                     }
1698:.\main.c      ****                 }
1699:.\main.c      ****                 if(LCD_1_rxBuffer[3]==0x0C){								//Enter
 7662              		.loc 1 1699 0
 7663 22b0 294B     		ldr	r3, .L677+20
 7664 22b2 DB78     		ldrb	r3, [r3, #3]
ARM GAS  C:\Users\RECEPC~1\AppData\Local\Temp\cc2OimPl.s 			page 169


 7665 22b4 DBB2     		uxtb	r3, r3
 7666 22b6 0C2B     		cmp	r3, #12
 7667 22b8 40F0FF83 		bne	.L342
1700:.\main.c      **** 					switch(id_teclado1){
 7668              		.loc 1 1700 0
 7669 22bc 294B     		ldr	r3, .L677+32
 7670 22be 1B78     		ldrb	r3, [r3]
 7671 22c0 DBB2     		uxtb	r3, r3
 7672 22c2 013B     		subs	r3, r3, #1
 7673 22c4 072B     		cmp	r3, #7
 7674 22c6 00F2F883 		bhi	.L342
 7675 22ca 01A2     		adr	r2, .L360
 7676 22cc 52F823F0 		ldr	pc, [r2, r3, lsl #2]
 7677              		.p2align 2
 7678              	.L360:
 7679 22d0 F1220000 		.word	.L359+1
 7680 22d4 85240000 		.word	.L361+1
 7681 22d8 61250000 		.word	.L362+1
 7682 22dc D9250000 		.word	.L363+1
 7683 22e0 33260000 		.word	.L364+1
 7684 22e4 21270000 		.word	.L365+1
 7685 22e8 53270000 		.word	.L366+1
 7686 22ec FB280000 		.word	.L367+1
 7687              		.p2align 1
 7688              	.L359:
1701:.\main.c      **** 						case 1:
1702:.\main.c      **** 							for(x=0;x<=7;x++){
 7689              		.loc 1 1702 0
 7690 22f0 0023     		movs	r3, #0
 7691 22f2 87F82F30 		strb	r3, [r7, #47]
 7692 22f6 0CE0     		b	.L368
 7693              	.L369:
1703:.\main.c      **** 								numero[x]=0;
 7694              		.loc 1 1703 0 discriminator 3
 7695 22f8 97F82F30 		ldrb	r3, [r7, #47]	@ zero_extendqisi2
 7696 22fc 07F13002 		add	r2, r7, #48
 7697 2300 1344     		add	r3, r3, r2
 7698 2302 0022     		movs	r2, #0
 7699 2304 03F82C2C 		strb	r2, [r3, #-44]
1702:.\main.c      **** 								numero[x]=0;
 7700              		.loc 1 1702 0 discriminator 3
 7701 2308 97F82F30 		ldrb	r3, [r7, #47]	@ zero_extendqisi2
 7702 230c 0133     		adds	r3, r3, #1
 7703 230e 87F82F30 		strb	r3, [r7, #47]
 7704              	.L368:
1702:.\main.c      **** 								numero[x]=0;
 7705              		.loc 1 1702 0 is_stmt 0 discriminator 1
 7706 2312 97F82F30 		ldrb	r3, [r7, #47]	@ zero_extendqisi2
 7707 2316 072B     		cmp	r3, #7
 7708 2318 EED9     		bls	.L369
1704:.\main.c      **** 							}						
1705:.\main.c      **** 							if((count_teclas1>=1)&&(Buffer_LCD1[count_teclas1]!=',')){
 7709              		.loc 1 1705 0 is_stmt 1
 7710 231a 0A4B     		ldr	r3, .L677
 7711 231c 1B78     		ldrb	r3, [r3]
 7712 231e DBB2     		uxtb	r3, r3
 7713 2320 002B     		cmp	r3, #0
ARM GAS  C:\Users\RECEPC~1\AppData\Local\Temp\cc2OimPl.s 			page 170


 7714 2322 00F0AE80 		beq	.L370
 7715              		.loc 1 1705 0 is_stmt 0 discriminator 1
 7716 2326 074B     		ldr	r3, .L677
 7717 2328 1B78     		ldrb	r3, [r3]
 7718 232a DBB2     		uxtb	r3, r3
 7719 232c 1A46     		mov	r2, r3
 7720 232e 064B     		ldr	r3, .L677+4
 7721 2330 9B5C     		ldrb	r3, [r3, r2]
 7722 2332 DBB2     		uxtb	r3, r3
 7723 2334 2C2B     		cmp	r3, #44
 7724 2336 00F0A480 		beq	.L370
1706:.\main.c      **** 								for(x=1;x<=count_teclas1;x++){
 7725              		.loc 1 1706 0 is_stmt 1
 7726 233a 0123     		movs	r3, #1
 7727 233c 87F82F30 		strb	r3, [r7, #47]
 7728 2340 3FE0     		b	.L371
 7729              	.L678:
 7730 2342 00BF     		.align	2
 7731              	.L677:
 7732 2344 00000000 		.word	count_teclas1
 7733 2348 00000000 		.word	Buffer_LCD1
 7734 234c 00000000 		.word	posy1
 7735 2350 00000000 		.word	sizeletra1
 7736 2354 00000000 		.word	posx1
 7737 2358 00000000 		.word	LCD_1_rxBuffer
 7738 235c 00000000 		.word	comas1
 7739 2360 00000000 		.word	id_coma1
 7740 2364 00000000 		.word	id_teclado1
 7741 2368 00000000 		.word	flujo_LCD1
 7742 236c 00000000 		.word	lado1
 7743              	.L374:
1707:.\main.c      **** 									if(Buffer_LCD1[x]!=','){
 7744              		.loc 1 1707 0
 7745 2370 97F82F30 		ldrb	r3, [r7, #47]	@ zero_extendqisi2
 7746 2374 B14A     		ldr	r2, .L679
 7747 2376 D35C     		ldrb	r3, [r2, r3]
 7748 2378 DBB2     		uxtb	r3, r3
 7749 237a 2C2B     		cmp	r3, #44
 7750 237c 0FD0     		beq	.L372
1708:.\main.c      **** 										numero[x-1]=Buffer_LCD1[x]+48;
 7751              		.loc 1 1708 0
 7752 237e 97F82F30 		ldrb	r3, [r7, #47]	@ zero_extendqisi2
 7753 2382 013B     		subs	r3, r3, #1
 7754 2384 97F82F20 		ldrb	r2, [r7, #47]	@ zero_extendqisi2
 7755 2388 AC49     		ldr	r1, .L679
 7756 238a 8A5C     		ldrb	r2, [r1, r2]
 7757 238c D2B2     		uxtb	r2, r2
 7758 238e 3032     		adds	r2, r2, #48
 7759 2390 D2B2     		uxtb	r2, r2
 7760 2392 07F13001 		add	r1, r7, #48
 7761 2396 0B44     		add	r3, r3, r1
 7762 2398 03F82C2C 		strb	r2, [r3, #-44]
 7763 239c 0CE0     		b	.L373
 7764              	.L372:
1709:.\main.c      **** 									}
1710:.\main.c      **** 									else{
1711:.\main.c      **** 										numero[x-1]=Buffer_LCD1[x];
ARM GAS  C:\Users\RECEPC~1\AppData\Local\Temp\cc2OimPl.s 			page 171


 7765              		.loc 1 1711 0
 7766 239e 97F82F30 		ldrb	r3, [r7, #47]	@ zero_extendqisi2
 7767 23a2 013B     		subs	r3, r3, #1
 7768 23a4 97F82F20 		ldrb	r2, [r7, #47]	@ zero_extendqisi2
 7769 23a8 A449     		ldr	r1, .L679
 7770 23aa 8A5C     		ldrb	r2, [r1, r2]
 7771 23ac D2B2     		uxtb	r2, r2
 7772 23ae 07F13001 		add	r1, r7, #48
 7773 23b2 0B44     		add	r3, r3, r1
 7774 23b4 03F82C2C 		strb	r2, [r3, #-44]
 7775              	.L373:
1706:.\main.c      **** 									if(Buffer_LCD1[x]!=','){
 7776              		.loc 1 1706 0 discriminator 2
 7777 23b8 97F82F30 		ldrb	r3, [r7, #47]	@ zero_extendqisi2
 7778 23bc 0133     		adds	r3, r3, #1
 7779 23be 87F82F30 		strb	r3, [r7, #47]
 7780              	.L371:
1706:.\main.c      **** 									if(Buffer_LCD1[x]!=','){
 7781              		.loc 1 1706 0 is_stmt 0 discriminator 1
 7782 23c2 9F4B     		ldr	r3, .L679+4
 7783 23c4 1B78     		ldrb	r3, [r3]
 7784 23c6 DBB2     		uxtb	r3, r3
 7785 23c8 97F82F20 		ldrb	r2, [r7, #47]	@ zero_extendqisi2
 7786 23cc 9A42     		cmp	r2, r3
 7787 23ce CFD9     		bls	.L374
1712:.\main.c      **** 									}
1713:.\main.c      **** 								}
1714:.\main.c      **** 								num_decimal=atof(numero);
 7788              		.loc 1 1714 0 is_stmt 1
 7789 23d0 3B1D     		adds	r3, r7, #4
 7790 23d2 1846     		mov	r0, r3
 7791 23d4 FFF7FEFF 		bl	atof
 7792 23d8 C7E90801 		strd	r0, [r7, #32]
1715:.\main.c      **** 								if(((rventa1.preset[0]==1)&&(num_decimal>=5))||((rventa1.preset[0]==2)&&(num_decimal<=5)&&(
 7793              		.loc 1 1715 0
 7794 23dc 994B     		ldr	r3, .L679+8
 7795 23de DB7E     		ldrb	r3, [r3, #27]	@ zero_extendqisi2
 7796 23e0 012B     		cmp	r3, #1
 7797 23e2 09D1     		bne	.L375
 7798              		.loc 1 1715 0 is_stmt 0 discriminator 1
 7799 23e4 D7E90801 		ldrd	r0, [r7, #32]
 7800 23e8 4FF00002 		mov	r2, #0
 7801 23ec 964B     		ldr	r3, .L679+12
 7802 23ee FFF7FEFF 		bl	__aeabi_dcmpge
 7803 23f2 0346     		mov	r3, r0
 7804 23f4 002B     		cmp	r3, #0
 7805 23f6 1AD1     		bne	.L376
 7806              	.L375:
 7807              		.loc 1 1715 0 discriminator 3
 7808 23f8 924B     		ldr	r3, .L679+8
 7809 23fa DB7E     		ldrb	r3, [r3, #27]	@ zero_extendqisi2
 7810 23fc 022B     		cmp	r3, #2
 7811 23fe 40D1     		bne	.L370
 7812              		.loc 1 1715 0 discriminator 4
 7813 2400 D7E90801 		ldrd	r0, [r7, #32]
 7814 2404 4FF00002 		mov	r2, #0
 7815 2408 8F4B     		ldr	r3, .L679+12
ARM GAS  C:\Users\RECEPC~1\AppData\Local\Temp\cc2OimPl.s 			page 172


 7816 240a FFF7FEFF 		bl	__aeabi_dcmple
 7817 240e 0346     		mov	r3, r0
 7818 2410 002B     		cmp	r3, #0
 7819 2412 00D1     		bne	.L640
1716:.\main.c      **** 									for(x=count_teclas1;x>=1;x--){
1717:.\main.c      **** 										rventa1.preset[x]=Buffer_LCD1[(count_teclas1-x)+1];
1718:.\main.c      **** 									}
1719:.\main.c      **** 									flujo_LCD1=5;								
1720:.\main.c      ****                          			lado1.estado=espera;
1721:.\main.c      **** 						            set_imagen(1,7);
1722:.\main.c      **** 								}
1723:.\main.c      **** 							}
1724:.\main.c      **** 						break;
 7820              		.loc 1 1724 0 is_stmt 1 discriminator 4
 7821 2414 51E3     		b	.L342
 7822              	.L640:
1715:.\main.c      **** 								if(((rventa1.preset[0]==1)&&(num_decimal>=5))||((rventa1.preset[0]==2)&&(num_decimal<=5)&&(
 7823              		.loc 1 1715 0 discriminator 5
 7824 2416 D7E90801 		ldrd	r0, [r7, #32]
 7825 241a 4FF00002 		mov	r2, #0
 7826 241e 4FF00003 		mov	r3, #0
 7827 2422 FFF7FEFF 		bl	__aeabi_dcmpgt
 7828 2426 0346     		mov	r3, r0
 7829 2428 002B     		cmp	r3, #0
 7830 242a 00D1     		bne	.L376
 7831              		.loc 1 1724 0 discriminator 5
 7832 242c 45E3     		b	.L342
 7833              	.L376:
1716:.\main.c      **** 									for(x=count_teclas1;x>=1;x--){
 7834              		.loc 1 1716 0
 7835 242e 844B     		ldr	r3, .L679+4
 7836 2430 1B78     		ldrb	r3, [r3]
 7837 2432 87F82F30 		strb	r3, [r7, #47]
 7838 2436 15E0     		b	.L379
 7839              	.L380:
1717:.\main.c      **** 									}
 7840              		.loc 1 1717 0 discriminator 3
 7841 2438 97F82F30 		ldrb	r3, [r7, #47]	@ zero_extendqisi2
 7842 243c 804A     		ldr	r2, .L679+4
 7843 243e 1278     		ldrb	r2, [r2]
 7844 2440 D2B2     		uxtb	r2, r2
 7845 2442 1146     		mov	r1, r2
 7846 2444 97F82F20 		ldrb	r2, [r7, #47]	@ zero_extendqisi2
 7847 2448 8A1A     		subs	r2, r1, r2
 7848 244a 0132     		adds	r2, r2, #1
 7849 244c 7B49     		ldr	r1, .L679
 7850 244e 8A5C     		ldrb	r2, [r1, r2]
 7851 2450 D1B2     		uxtb	r1, r2
 7852 2452 7C4A     		ldr	r2, .L679+8
 7853 2454 1344     		add	r3, r3, r2
 7854 2456 0A46     		mov	r2, r1
 7855 2458 DA76     		strb	r2, [r3, #27]
1716:.\main.c      **** 									for(x=count_teclas1;x>=1;x--){
 7856              		.loc 1 1716 0 discriminator 3
 7857 245a 97F82F30 		ldrb	r3, [r7, #47]	@ zero_extendqisi2
 7858 245e 013B     		subs	r3, r3, #1
 7859 2460 87F82F30 		strb	r3, [r7, #47]
ARM GAS  C:\Users\RECEPC~1\AppData\Local\Temp\cc2OimPl.s 			page 173


 7860              	.L379:
1716:.\main.c      **** 									for(x=count_teclas1;x>=1;x--){
 7861              		.loc 1 1716 0 is_stmt 0 discriminator 1
 7862 2464 97F82F30 		ldrb	r3, [r7, #47]	@ zero_extendqisi2
 7863 2468 002B     		cmp	r3, #0
 7864 246a E5D1     		bne	.L380
1719:.\main.c      ****                          			lado1.estado=espera;
 7865              		.loc 1 1719 0 is_stmt 1
 7866 246c 774B     		ldr	r3, .L679+16
 7867 246e 0522     		movs	r2, #5
 7868 2470 1A70     		strb	r2, [r3]
1720:.\main.c      **** 						            set_imagen(1,7);
 7869              		.loc 1 1720 0
 7870 2472 774B     		ldr	r3, .L679+20
 7871 2474 0222     		movs	r2, #2
 7872 2476 5A70     		strb	r2, [r3, #1]
1721:.\main.c      **** 								}
 7873              		.loc 1 1721 0
 7874 2478 0120     		movs	r0, #1
 7875 247a 0721     		movs	r1, #7
 7876 247c FFF7FEFF 		bl	set_imagen
 7877              		.loc 1 1724 0
 7878 2480 1BE3     		b	.L342
 7879              	.L370:
 7880 2482 1AE3     		b	.L342
 7881              	.L361:
1725:.\main.c      **** 						case 2:	                            
1726:.\main.c      ****                             for(x=0;x<=10;x++){
 7882              		.loc 1 1726 0
 7883 2484 0023     		movs	r3, #0
 7884 2486 87F82F30 		strb	r3, [r7, #47]
 7885 248a 0BE0     		b	.L381
 7886              	.L382:
1727:.\main.c      ****                               rventa1.km[x]=0;
 7887              		.loc 1 1727 0 discriminator 3
 7888 248c 97F82F30 		ldrb	r3, [r7, #47]	@ zero_extendqisi2
 7889 2490 6C4A     		ldr	r2, .L679+8
 7890 2492 1344     		add	r3, r3, r2
 7891 2494 0022     		movs	r2, #0
 7892 2496 83F84320 		strb	r2, [r3, #67]
1726:.\main.c      ****                               rventa1.km[x]=0;
 7893              		.loc 1 1726 0 discriminator 3
 7894 249a 97F82F30 		ldrb	r3, [r7, #47]	@ zero_extendqisi2
 7895 249e 0133     		adds	r3, r3, #1
 7896 24a0 87F82F30 		strb	r3, [r7, #47]
 7897              	.L381:
1726:.\main.c      ****                               rventa1.km[x]=0;
 7898              		.loc 1 1726 0 is_stmt 0 discriminator 1
 7899 24a4 97F82F30 		ldrb	r3, [r7, #47]	@ zero_extendqisi2
 7900 24a8 0A2B     		cmp	r3, #10
 7901 24aa EFD9     		bls	.L382
1728:.\main.c      ****                             }
1729:.\main.c      **** 							for(x=count_teclas1;x>=1;x--){
 7902              		.loc 1 1729 0 is_stmt 1
 7903 24ac 644B     		ldr	r3, .L679+4
 7904 24ae 1B78     		ldrb	r3, [r3]
 7905 24b0 87F82F30 		strb	r3, [r7, #47]
ARM GAS  C:\Users\RECEPC~1\AppData\Local\Temp\cc2OimPl.s 			page 174


 7906 24b4 16E0     		b	.L383
 7907              	.L384:
1730:.\main.c      **** 								rventa1.km[x]=Buffer_LCD1[(count_teclas1-x)+1];
 7908              		.loc 1 1730 0 discriminator 3
 7909 24b6 97F82F30 		ldrb	r3, [r7, #47]	@ zero_extendqisi2
 7910 24ba 614A     		ldr	r2, .L679+4
 7911 24bc 1278     		ldrb	r2, [r2]
 7912 24be D2B2     		uxtb	r2, r2
 7913 24c0 1146     		mov	r1, r2
 7914 24c2 97F82F20 		ldrb	r2, [r7, #47]	@ zero_extendqisi2
 7915 24c6 8A1A     		subs	r2, r1, r2
 7916 24c8 0132     		adds	r2, r2, #1
 7917 24ca 5C49     		ldr	r1, .L679
 7918 24cc 8A5C     		ldrb	r2, [r1, r2]
 7919 24ce D1B2     		uxtb	r1, r2
 7920 24d0 5C4A     		ldr	r2, .L679+8
 7921 24d2 1344     		add	r3, r3, r2
 7922 24d4 0A46     		mov	r2, r1
 7923 24d6 83F84320 		strb	r2, [r3, #67]
1729:.\main.c      **** 								rventa1.km[x]=Buffer_LCD1[(count_teclas1-x)+1];
 7924              		.loc 1 1729 0 discriminator 3
 7925 24da 97F82F30 		ldrb	r3, [r7, #47]	@ zero_extendqisi2
 7926 24de 013B     		subs	r3, r3, #1
 7927 24e0 87F82F30 		strb	r3, [r7, #47]
 7928              	.L383:
1729:.\main.c      **** 								rventa1.km[x]=Buffer_LCD1[(count_teclas1-x)+1];
 7929              		.loc 1 1729 0 is_stmt 0 discriminator 1
 7930 24e4 97F82F30 		ldrb	r3, [r7, #47]	@ zero_extendqisi2
 7931 24e8 002B     		cmp	r3, #0
 7932 24ea E4D1     		bne	.L384
1731:.\main.c      **** 							}	                                                    
1732:.\main.c      ****                             if(seleccion_pos == 1){
 7933              		.loc 1 1732 0 is_stmt 1
 7934 24ec 594B     		ldr	r3, .L679+24
 7935 24ee 1B78     		ldrb	r3, [r3]
 7936 24f0 DBB2     		uxtb	r3, r3
 7937 24f2 012B     		cmp	r3, #1
 7938 24f4 33D1     		bne	.L385
1733:.\main.c      ****             					for(x=0;x<=7;x++){
 7939              		.loc 1 1733 0
 7940 24f6 0023     		movs	r3, #0
 7941 24f8 87F82F30 		strb	r3, [r7, #47]
 7942 24fc 0AE0     		b	.L386
 7943              	.L387:
1734:.\main.c      ****             					 	rventa1.preset[x]=0;
 7944              		.loc 1 1734 0 discriminator 3
 7945 24fe 97F82F30 		ldrb	r3, [r7, #47]	@ zero_extendqisi2
 7946 2502 504A     		ldr	r2, .L679+8
 7947 2504 1344     		add	r3, r3, r2
 7948 2506 0022     		movs	r2, #0
 7949 2508 DA76     		strb	r2, [r3, #27]
1733:.\main.c      ****             					for(x=0;x<=7;x++){
 7950              		.loc 1 1733 0 discriminator 3
 7951 250a 97F82F30 		ldrb	r3, [r7, #47]	@ zero_extendqisi2
 7952 250e 0133     		adds	r3, r3, #1
 7953 2510 87F82F30 		strb	r3, [r7, #47]
 7954              	.L386:
ARM GAS  C:\Users\RECEPC~1\AppData\Local\Temp\cc2OimPl.s 			page 175


1733:.\main.c      ****             					for(x=0;x<=7;x++){
 7955              		.loc 1 1733 0 is_stmt 0 discriminator 1
 7956 2514 97F82F30 		ldrb	r3, [r7, #47]	@ zero_extendqisi2
 7957 2518 072B     		cmp	r3, #7
 7958 251a F0D9     		bls	.L387
1735:.\main.c      ****             					}
1736:.\main.c      ****                                 rventa1.preset[0]=3;					
 7959              		.loc 1 1736 0 is_stmt 1
 7960 251c 494B     		ldr	r3, .L679+8
 7961 251e 0322     		movs	r2, #3
 7962 2520 DA76     		strb	r2, [r3, #27]
1737:.\main.c      ****             					for(x=5;x<=7;x++){
 7963              		.loc 1 1737 0
 7964 2522 0523     		movs	r3, #5
 7965 2524 87F82F30 		strb	r3, [r7, #47]
 7966 2528 0AE0     		b	.L388
 7967              	.L389:
1738:.\main.c      ****             						rventa1.preset[x]=9;		
 7968              		.loc 1 1738 0 discriminator 3
 7969 252a 97F82F30 		ldrb	r3, [r7, #47]	@ zero_extendqisi2
 7970 252e 454A     		ldr	r2, .L679+8
 7971 2530 1344     		add	r3, r3, r2
 7972 2532 0922     		movs	r2, #9
 7973 2534 DA76     		strb	r2, [r3, #27]
1737:.\main.c      ****             					for(x=5;x<=7;x++){
 7974              		.loc 1 1737 0 discriminator 3
 7975 2536 97F82F30 		ldrb	r3, [r7, #47]	@ zero_extendqisi2
 7976 253a 0133     		adds	r3, r3, #1
 7977 253c 87F82F30 		strb	r3, [r7, #47]
 7978              	.L388:
1737:.\main.c      ****             					for(x=5;x<=7;x++){
 7979              		.loc 1 1737 0 is_stmt 0 discriminator 1
 7980 2540 97F82F30 		ldrb	r3, [r7, #47]	@ zero_extendqisi2
 7981 2544 072B     		cmp	r3, #7
 7982 2546 F0D9     		bls	.L389
1739:.\main.c      ****             					}								                                     
1740:.\main.c      ****             		            set_imagen(1,7);
 7983              		.loc 1 1740 0 is_stmt 1
 7984 2548 0120     		movs	r0, #1
 7985 254a 0721     		movs	r1, #7
 7986 254c FFF7FEFF 		bl	set_imagen
1741:.\main.c      ****             					lado1.estado=espera;
 7987              		.loc 1 1741 0
 7988 2550 3F4B     		ldr	r3, .L679+20
 7989 2552 0222     		movs	r2, #2
 7990 2554 5A70     		strb	r2, [r3, #1]
1742:.\main.c      ****                                 flujo_LCD1 = 6;  
 7991              		.loc 1 1742 0
 7992 2556 3D4B     		ldr	r3, .L679+16
 7993 2558 0622     		movs	r2, #6
 7994 255a 1A70     		strb	r2, [r3]
1743:.\main.c      ****                             }                                                      
1744:.\main.c      **** 						break;
 7995              		.loc 1 1744 0
 7996 255c ADE2     		b	.L342
 7997              	.L385:
 7998 255e ACE2     		b	.L342
ARM GAS  C:\Users\RECEPC~1\AppData\Local\Temp\cc2OimPl.s 			page 176


 7999              	.L362:
1745:.\main.c      ****                             
1746:.\main.c      **** 						case 3:
1747:.\main.c      **** 							for(x=count_teclas1;x>=1;x--){
 8000              		.loc 1 1747 0
 8001 2560 374B     		ldr	r3, .L679+4
 8002 2562 1B78     		ldrb	r3, [r3]
 8003 2564 87F82F30 		strb	r3, [r7, #47]
 8004 2568 18E0     		b	.L390
 8005              	.L391:
1748:.\main.c      **** 								rventa1.cedula[x]=Buffer_LCD1[(count_teclas1-x)+1]+48;
 8006              		.loc 1 1748 0 discriminator 3
 8007 256a 97F82F30 		ldrb	r3, [r7, #47]	@ zero_extendqisi2
 8008 256e 344A     		ldr	r2, .L679+4
 8009 2570 1278     		ldrb	r2, [r2]
 8010 2572 D2B2     		uxtb	r2, r2
 8011 2574 1146     		mov	r1, r2
 8012 2576 97F82F20 		ldrb	r2, [r7, #47]	@ zero_extendqisi2
 8013 257a 8A1A     		subs	r2, r1, r2
 8014 257c 0132     		adds	r2, r2, #1
 8015 257e 2F49     		ldr	r1, .L679
 8016 2580 8A5C     		ldrb	r2, [r1, r2]
 8017 2582 D2B2     		uxtb	r2, r2
 8018 2584 3032     		adds	r2, r2, #48
 8019 2586 D1B2     		uxtb	r1, r2
 8020 2588 2E4A     		ldr	r2, .L679+8
 8021 258a 1344     		add	r3, r3, r2
 8022 258c 0A46     		mov	r2, r1
 8023 258e 83F85920 		strb	r2, [r3, #89]
1747:.\main.c      **** 								rventa1.cedula[x]=Buffer_LCD1[(count_teclas1-x)+1]+48;
 8024              		.loc 1 1747 0 discriminator 3
 8025 2592 97F82F30 		ldrb	r3, [r7, #47]	@ zero_extendqisi2
 8026 2596 013B     		subs	r3, r3, #1
 8027 2598 87F82F30 		strb	r3, [r7, #47]
 8028              	.L390:
1747:.\main.c      **** 								rventa1.cedula[x]=Buffer_LCD1[(count_teclas1-x)+1]+48;
 8029              		.loc 1 1747 0 is_stmt 0 discriminator 1
 8030 259c 97F82F30 		ldrb	r3, [r7, #47]	@ zero_extendqisi2
 8031 25a0 002B     		cmp	r3, #0
 8032 25a2 E2D1     		bne	.L391
1749:.\main.c      **** 							}
1750:.\main.c      ****                         	flujo_LCD1=2;	
 8033              		.loc 1 1750 0 is_stmt 1
 8034 25a4 294B     		ldr	r3, .L679+16
 8035 25a6 0222     		movs	r2, #2
 8036 25a8 1A70     		strb	r2, [r3]
1751:.\main.c      ****                         	set_imagen(1,5);
 8037              		.loc 1 1751 0
 8038 25aa 0120     		movs	r0, #1
 8039 25ac 0521     		movs	r1, #5
 8040 25ae FFF7FEFF 		bl	set_imagen
1752:.\main.c      **** 							count_teclas1=0;
 8041              		.loc 1 1752 0
 8042 25b2 234B     		ldr	r3, .L679+4
 8043 25b4 0022     		movs	r2, #0
 8044 25b6 1A70     		strb	r2, [r3]
1753:.\main.c      **** 							id_teclado1=4;
ARM GAS  C:\Users\RECEPC~1\AppData\Local\Temp\cc2OimPl.s 			page 177


 8045              		.loc 1 1753 0
 8046 25b8 274B     		ldr	r3, .L679+28
 8047 25ba 0422     		movs	r2, #4
 8048 25bc 1A70     		strb	r2, [r3]
1754:.\main.c      **** 							teclas1=10;
 8049              		.loc 1 1754 0
 8050 25be 274B     		ldr	r3, .L679+32
 8051 25c0 0A22     		movs	r2, #10
 8052 25c2 1A70     		strb	r2, [r3]
1755:.\main.c      **** 							posx1=2;
 8053              		.loc 1 1755 0
 8054 25c4 264B     		ldr	r3, .L679+36
 8055 25c6 0222     		movs	r2, #2
 8056 25c8 1A80     		strh	r2, [r3]	@ movhi
1756:.\main.c      **** 							posy1=3;
 8057              		.loc 1 1756 0
 8058 25ca 264B     		ldr	r3, .L679+40
 8059 25cc 0322     		movs	r2, #3
 8060 25ce 1A80     		strh	r2, [r3]	@ movhi
1757:.\main.c      **** 							sizeletra1=1;								
 8061              		.loc 1 1757 0
 8062 25d0 254B     		ldr	r3, .L679+44
 8063 25d2 0122     		movs	r2, #1
 8064 25d4 1A80     		strh	r2, [r3]	@ movhi
1758:.\main.c      **** 						break;
 8065              		.loc 1 1758 0
 8066 25d6 70E2     		b	.L342
 8067              	.L363:
1759:.\main.c      **** 						case 4:
1760:.\main.c      **** 							for(x=count_teclas1;x>=1;x--){
 8068              		.loc 1 1760 0
 8069 25d8 194B     		ldr	r3, .L679+4
 8070 25da 1B78     		ldrb	r3, [r3]
 8071 25dc 87F82F30 		strb	r3, [r7, #47]
 8072 25e0 18E0     		b	.L392
 8073              	.L393:
1761:.\main.c      **** 								rventa1.password[x]=Buffer_LCD1[(count_teclas1-x)+1]+48;
 8074              		.loc 1 1761 0 discriminator 3
 8075 25e2 97F82F30 		ldrb	r3, [r7, #47]	@ zero_extendqisi2
 8076 25e6 164A     		ldr	r2, .L679+4
 8077 25e8 1278     		ldrb	r2, [r2]
 8078 25ea D2B2     		uxtb	r2, r2
 8079 25ec 1146     		mov	r1, r2
 8080 25ee 97F82F20 		ldrb	r2, [r7, #47]	@ zero_extendqisi2
 8081 25f2 8A1A     		subs	r2, r1, r2
 8082 25f4 0132     		adds	r2, r2, #1
 8083 25f6 1149     		ldr	r1, .L679
 8084 25f8 8A5C     		ldrb	r2, [r1, r2]
 8085 25fa D2B2     		uxtb	r2, r2
 8086 25fc 3032     		adds	r2, r2, #48
 8087 25fe D1B2     		uxtb	r1, r2
 8088 2600 104A     		ldr	r2, .L679+8
 8089 2602 1344     		add	r3, r3, r2
 8090 2604 0A46     		mov	r2, r1
 8091 2606 83F86420 		strb	r2, [r3, #100]
1760:.\main.c      **** 								rventa1.password[x]=Buffer_LCD1[(count_teclas1-x)+1]+48;
 8092              		.loc 1 1760 0 discriminator 3
ARM GAS  C:\Users\RECEPC~1\AppData\Local\Temp\cc2OimPl.s 			page 178


 8093 260a 97F82F30 		ldrb	r3, [r7, #47]	@ zero_extendqisi2
 8094 260e 013B     		subs	r3, r3, #1
 8095 2610 87F82F30 		strb	r3, [r7, #47]
 8096              	.L392:
1760:.\main.c      **** 								rventa1.password[x]=Buffer_LCD1[(count_teclas1-x)+1]+48;
 8097              		.loc 1 1760 0 is_stmt 0 discriminator 1
 8098 2614 97F82F30 		ldrb	r3, [r7, #47]	@ zero_extendqisi2
 8099 2618 002B     		cmp	r3, #0
 8100 261a E2D1     		bne	.L393
1762:.\main.c      **** 							}
1763:.\main.c      ****                         	flujo_LCD1=102;	
 8101              		.loc 1 1763 0 is_stmt 1
 8102 261c 0B4B     		ldr	r3, .L679+16
 8103 261e 6622     		movs	r2, #102
 8104 2620 1A70     		strb	r2, [r3]
1764:.\main.c      ****                         	set_imagen(1,57);
 8105              		.loc 1 1764 0
 8106 2622 0120     		movs	r0, #1
 8107 2624 3921     		movs	r1, #57
 8108 2626 FFF7FEFF 		bl	set_imagen
1765:.\main.c      **** 							lado1.estado=16;
 8109              		.loc 1 1765 0
 8110 262a 094B     		ldr	r3, .L679+20
 8111 262c 1022     		movs	r2, #16
 8112 262e 5A70     		strb	r2, [r3, #1]
1766:.\main.c      **** 						break;	
 8113              		.loc 1 1766 0
 8114 2630 43E2     		b	.L342
 8115              	.L364:
1767:.\main.c      ****                         case 5:
1768:.\main.c      **** 							for(x=count_teclas1;x>=1;x--){
 8116              		.loc 1 1768 0
 8117 2632 034B     		ldr	r3, .L679+4
 8118 2634 1B78     		ldrb	r3, [r3]
 8119 2636 87F82F30 		strb	r3, [r7, #47]
 8120 263a 30E0     		b	.L394
 8121              	.L680:
 8122              		.align	2
 8123              	.L679:
 8124 263c 00000000 		.word	Buffer_LCD1
 8125 2640 00000000 		.word	count_teclas1
 8126 2644 00000000 		.word	rventa1
 8127 2648 00001440 		.word	1075052544
 8128 264c 00000000 		.word	flujo_LCD1
 8129 2650 00000000 		.word	lado1
 8130 2654 00000000 		.word	seleccion_pos
 8131 2658 00000000 		.word	id_teclado1
 8132 265c 00000000 		.word	teclas1
 8133 2660 00000000 		.word	posx1
 8134 2664 00000000 		.word	posy1
 8135 2668 00000000 		.word	sizeletra1
 8136              	.L395:
1769:.\main.c      **** 								rventa1.password_local[x]=Buffer_LCD1[(count_teclas1-x)+1]+48;
 8137              		.loc 1 1769 0 discriminator 3
 8138 266c 97F82F30 		ldrb	r3, [r7, #47]	@ zero_extendqisi2
 8139 2670 AF4A     		ldr	r2, .L681
 8140 2672 1278     		ldrb	r2, [r2]
ARM GAS  C:\Users\RECEPC~1\AppData\Local\Temp\cc2OimPl.s 			page 179


 8141 2674 D2B2     		uxtb	r2, r2
 8142 2676 1146     		mov	r1, r2
 8143 2678 97F82F20 		ldrb	r2, [r7, #47]	@ zero_extendqisi2
 8144 267c 8A1A     		subs	r2, r1, r2
 8145 267e 0132     		adds	r2, r2, #1
 8146 2680 AC49     		ldr	r1, .L681+4
 8147 2682 8A5C     		ldrb	r2, [r1, r2]
 8148 2684 D2B2     		uxtb	r2, r2
 8149 2686 3032     		adds	r2, r2, #48
 8150 2688 D1B2     		uxtb	r1, r2
 8151 268a AB4A     		ldr	r2, .L681+8
 8152 268c 1344     		add	r3, r3, r2
 8153 268e 0A46     		mov	r2, r1
 8154 2690 83F87120 		strb	r2, [r3, #113]
1768:.\main.c      **** 								rventa1.password_local[x]=Buffer_LCD1[(count_teclas1-x)+1]+48;
 8155              		.loc 1 1768 0 discriminator 3
 8156 2694 97F82F30 		ldrb	r3, [r7, #47]	@ zero_extendqisi2
 8157 2698 013B     		subs	r3, r3, #1
 8158 269a 87F82F30 		strb	r3, [r7, #47]
 8159              	.L394:
1768:.\main.c      **** 								rventa1.password_local[x]=Buffer_LCD1[(count_teclas1-x)+1]+48;
 8160              		.loc 1 1768 0 is_stmt 0 discriminator 1
 8161 269e 97F82F30 		ldrb	r3, [r7, #47]	@ zero_extendqisi2
 8162 26a2 002B     		cmp	r3, #0
 8163 26a4 E2D1     		bne	.L395
1770:.\main.c      **** 							}
1771:.\main.c      ****                             if(clave_local[0]==rventa1.password_local[4] && clave_local[1]==rventa1
 8164              		.loc 1 1771 0 is_stmt 1
 8165 26a6 A54B     		ldr	r3, .L681+12
 8166 26a8 1A78     		ldrb	r2, [r3]	@ zero_extendqisi2
 8167 26aa A34B     		ldr	r3, .L681+8
 8168 26ac 93F87530 		ldrb	r3, [r3, #117]	@ zero_extendqisi2
 8169 26b0 9A42     		cmp	r2, r3
 8170 26b2 23D1     		bne	.L396
 8171              		.loc 1 1771 0 is_stmt 0 discriminator 1
 8172 26b4 A14B     		ldr	r3, .L681+12
 8173 26b6 5A78     		ldrb	r2, [r3, #1]	@ zero_extendqisi2
 8174 26b8 9F4B     		ldr	r3, .L681+8
 8175 26ba 93F87430 		ldrb	r3, [r3, #116]	@ zero_extendqisi2
 8176 26be 9A42     		cmp	r2, r3
 8177 26c0 1CD1     		bne	.L396
 8178              		.loc 1 1771 0 discriminator 2
 8179 26c2 9E4B     		ldr	r3, .L681+12
 8180 26c4 9A78     		ldrb	r2, [r3, #2]	@ zero_extendqisi2
 8181 26c6 9C4B     		ldr	r3, .L681+8
 8182 26c8 93F87330 		ldrb	r3, [r3, #115]	@ zero_extendqisi2
 8183 26cc 9A42     		cmp	r2, r3
 8184 26ce 15D1     		bne	.L396
 8185              		.loc 1 1771 0 discriminator 3
 8186 26d0 9A4B     		ldr	r3, .L681+12
 8187 26d2 DA78     		ldrb	r2, [r3, #3]	@ zero_extendqisi2
 8188 26d4 984B     		ldr	r3, .L681+8
 8189 26d6 93F87230 		ldrb	r3, [r3, #114]	@ zero_extendqisi2
 8190 26da 9A42     		cmp	r2, r3
 8191 26dc 0ED1     		bne	.L396
1772:.\main.c      ****                         	    set_imagen(1,38); 
 8192              		.loc 1 1772 0 is_stmt 1
ARM GAS  C:\Users\RECEPC~1\AppData\Local\Temp\cc2OimPl.s 			page 180


 8193 26de 0120     		movs	r0, #1
 8194 26e0 2621     		movs	r1, #38
 8195 26e2 FFF7FEFF 		bl	set_imagen
1773:.\main.c      ****                                 CyDelay(200);
 8196              		.loc 1 1773 0
 8197 26e6 C820     		movs	r0, #200
 8198 26e8 FFF7FEFF 		bl	CyDelay
1774:.\main.c      **** 							    set_imagen(1,70);  
 8199              		.loc 1 1774 0
 8200 26ec 0120     		movs	r0, #1
 8201 26ee 4621     		movs	r1, #70
 8202 26f0 FFF7FEFF 		bl	set_imagen
1775:.\main.c      ****                                 flujo_LCD1 = 16;
 8203              		.loc 1 1775 0
 8204 26f4 924B     		ldr	r3, .L681+16
 8205 26f6 1022     		movs	r2, #16
 8206 26f8 1A70     		strb	r2, [r3]
1776:.\main.c      ****                             }else{
1777:.\main.c      ****                         	    flujo_LCD1=0;	
1778:.\main.c      ****                         	    set_imagen(1,39); 
1779:.\main.c      **** 							    lado1.estado=libre;                                 
1780:.\main.c      ****                                 CyDelay(200);
1781:.\main.c      **** 							    set_imagen(1,0);                                 
1782:.\main.c      ****                             }
1783:.\main.c      ****                         break; 
 8207              		.loc 1 1783 0
 8208 26fa DEE1     		b	.L342
 8209              	.L396:
1777:.\main.c      ****                         	    set_imagen(1,39); 
 8210              		.loc 1 1777 0
 8211 26fc 904B     		ldr	r3, .L681+16
 8212 26fe 0022     		movs	r2, #0
 8213 2700 1A70     		strb	r2, [r3]
1778:.\main.c      **** 							    lado1.estado=libre;                                 
 8214              		.loc 1 1778 0
 8215 2702 0120     		movs	r0, #1
 8216 2704 2721     		movs	r1, #39
 8217 2706 FFF7FEFF 		bl	set_imagen
1779:.\main.c      ****                                 CyDelay(200);
 8218              		.loc 1 1779 0
 8219 270a 8E4B     		ldr	r3, .L681+20
 8220 270c 0122     		movs	r2, #1
 8221 270e 5A70     		strb	r2, [r3, #1]
1780:.\main.c      **** 							    set_imagen(1,0);                                 
 8222              		.loc 1 1780 0
 8223 2710 C820     		movs	r0, #200
 8224 2712 FFF7FEFF 		bl	CyDelay
1781:.\main.c      ****                             }
 8225              		.loc 1 1781 0
 8226 2716 0120     		movs	r0, #1
 8227 2718 0021     		movs	r1, #0
 8228 271a FFF7FEFF 		bl	set_imagen
 8229              		.loc 1 1783 0
 8230 271e CCE1     		b	.L342
 8231              	.L365:
1784:.\main.c      ****                         case 6:                        
1785:.\main.c      **** 						    EEPROM_WriteByte(Buffer_LCD1[count_teclas1],30);
ARM GAS  C:\Users\RECEPC~1\AppData\Local\Temp\cc2OimPl.s 			page 181


 8232              		.loc 1 1785 0
 8233 2720 834B     		ldr	r3, .L681
 8234 2722 1B78     		ldrb	r3, [r3]
 8235 2724 DBB2     		uxtb	r3, r3
 8236 2726 1A46     		mov	r2, r3
 8237 2728 824B     		ldr	r3, .L681+4
 8238 272a 9B5C     		ldrb	r3, [r3, r2]
 8239 272c DBB2     		uxtb	r3, r3
 8240 272e 1846     		mov	r0, r3
 8241 2730 1E21     		movs	r1, #30
 8242 2732 FFF7FEFF 		bl	EEPROM_WriteByte
1786:.\main.c      ****                         	flujo_LCD1 = 0;	
 8243              		.loc 1 1786 0
 8244 2736 824B     		ldr	r3, .L681+16
 8245 2738 0022     		movs	r2, #0
 8246 273a 1A70     		strb	r2, [r3]
1787:.\main.c      ****                         	set_imagen(1,60);
 8247              		.loc 1 1787 0
 8248 273c 0120     		movs	r0, #1
 8249 273e 3C21     		movs	r1, #60
 8250 2740 FFF7FEFF 		bl	set_imagen
1788:.\main.c      ****                             CyDelay(200);
 8251              		.loc 1 1788 0
 8252 2744 C820     		movs	r0, #200
 8253 2746 FFF7FEFF 		bl	CyDelay
1789:.\main.c      **** 							lado1.estado=libre;                                                     
 8254              		.loc 1 1789 0
 8255 274a 7E4B     		ldr	r3, .L681+20
 8256 274c 0122     		movs	r2, #1
 8257 274e 5A70     		strb	r2, [r3, #1]
1790:.\main.c      ****                         break;   
 8258              		.loc 1 1790 0
 8259 2750 B3E1     		b	.L342
 8260              	.L366:
1791:.\main.c      ****                         case 7:
1792:.\main.c      ****                             flujo_LCD1=18;
 8261              		.loc 1 1792 0
 8262 2752 7B4B     		ldr	r3, .L681+16
 8263 2754 1222     		movs	r2, #18
 8264 2756 1A70     		strb	r2, [r3]
1793:.\main.c      ****                             set_imagen(1,88);
 8265              		.loc 1 1793 0
 8266 2758 0120     		movs	r0, #1
 8267 275a 5821     		movs	r1, #88
 8268 275c FFF7FEFF 		bl	set_imagen
1794:.\main.c      ****                             switch(Producto){
 8269              		.loc 1 1794 0
 8270 2760 794B     		ldr	r3, .L681+24
 8271 2762 1B78     		ldrb	r3, [r3]	@ zero_extendqisi2
 8272 2764 013B     		subs	r3, r3, #1
 8273 2766 032B     		cmp	r3, #3
 8274 2768 00F29880 		bhi	.L398
 8275 276c 01A2     		adr	r2, .L400
 8276 276e 52F823F0 		ldr	pc, [r2, r3, lsl #2]
 8277 2772 00BF     		.p2align 2
 8278              	.L400:
 8279 2774 85270000 		.word	.L399+1
ARM GAS  C:\Users\RECEPC~1\AppData\Local\Temp\cc2OimPl.s 			page 182


 8280 2778 CB270000 		.word	.L401+1
 8281 277c 11280000 		.word	.L402+1
 8282 2780 57280000 		.word	.L403+1
 8283              		.p2align 1
 8284              	.L399:
1795:.\main.c      ****                                 case 1:// 1=diesel, siempre para Autogas, 
1796:.\main.c      ****                                     Productos[0]=Buffer_LCD1[1]+48;//para la estacion seria el digi
 8285              		.loc 1 1796 0
 8286 2784 6B4B     		ldr	r3, .L681+4
 8287 2786 5B78     		ldrb	r3, [r3, #1]
 8288 2788 DBB2     		uxtb	r3, r3
 8289 278a 3033     		adds	r3, r3, #48
 8290 278c DAB2     		uxtb	r2, r3
 8291 278e 6F4B     		ldr	r3, .L681+28
 8292 2790 1A70     		strb	r2, [r3]
1797:.\main.c      ****                                     switch(Productos[0]){
 8293              		.loc 1 1797 0
 8294 2792 6E4B     		ldr	r3, .L681+28
 8295 2794 1B78     		ldrb	r3, [r3]	@ zero_extendqisi2
 8296 2796 322B     		cmp	r3, #50
 8297 2798 08D0     		beq	.L405
 8298 279a 332B     		cmp	r3, #51
 8299 279c 0BD0     		beq	.L406
 8300 279e 312B     		cmp	r3, #49
 8301 27a0 0ED1     		bne	.L642
1798:.\main.c      ****                                         case '1':
1799:.\main.c      ****                                         lado1.grado[0][0]=1;                                       
 8302              		.loc 1 1799 0
 8303 27a2 684B     		ldr	r3, .L681+20
 8304 27a4 0122     		movs	r2, #1
 8305 27a6 83F85920 		strb	r2, [r3, #89]
1800:.\main.c      ****                                         break;
 8306              		.loc 1 1800 0
 8307 27aa 0DE0     		b	.L408
 8308              	.L405:
1801:.\main.c      ****                                         case '2':
1802:.\main.c      ****                                         lado1.grado[1][0]=1;                                       
 8309              		.loc 1 1802 0
 8310 27ac 654B     		ldr	r3, .L681+20
 8311 27ae 0122     		movs	r2, #1
 8312 27b0 83F85A20 		strb	r2, [r3, #90]
1803:.\main.c      ****                                         break;
 8313              		.loc 1 1803 0
 8314 27b4 08E0     		b	.L408
 8315              	.L406:
1804:.\main.c      ****                                         case '3':
1805:.\main.c      ****                                         lado1.grado[2][0]=1;                                       
 8316              		.loc 1 1805 0
 8317 27b6 634B     		ldr	r3, .L681+20
 8318 27b8 0122     		movs	r2, #1
 8319 27ba 83F85B20 		strb	r2, [r3, #91]
1806:.\main.c      ****                                         break;                    
 8320              		.loc 1 1806 0
 8321 27be 03E0     		b	.L408
 8322              	.L642:
1807:.\main.c      ****                                         default:
1808:.\main.c      ****                                         producto1 = 0;
ARM GAS  C:\Users\RECEPC~1\AppData\Local\Temp\cc2OimPl.s 			page 183


 8323              		.loc 1 1808 0
 8324 27c0 634B     		ldr	r3, .L681+32
 8325 27c2 0022     		movs	r2, #0
 8326 27c4 1A70     		strb	r2, [r3]
1809:.\main.c      ****                                         break;
 8327              		.loc 1 1809 0
 8328 27c6 00BF     		nop
 8329              	.L408:
1810:.\main.c      ****                                     }                                   
1811:.\main.c      ****                                 break;
 8330              		.loc 1 1811 0
 8331 27c8 68E0     		b	.L398
 8332              	.L401:
1812:.\main.c      ****                                 case 2:// 2=corriente, siempre para Autogas,
1813:.\main.c      ****                                     Productos[1]=Buffer_LCD1[1]+48;
 8333              		.loc 1 1813 0
 8334 27ca 5A4B     		ldr	r3, .L681+4
 8335 27cc 5B78     		ldrb	r3, [r3, #1]
 8336 27ce DBB2     		uxtb	r3, r3
 8337 27d0 3033     		adds	r3, r3, #48
 8338 27d2 DAB2     		uxtb	r2, r3
 8339 27d4 5D4B     		ldr	r3, .L681+28
 8340 27d6 5A70     		strb	r2, [r3, #1]
1814:.\main.c      ****                                     switch(Productos[1]){
 8341              		.loc 1 1814 0
 8342 27d8 5C4B     		ldr	r3, .L681+28
 8343 27da 5B78     		ldrb	r3, [r3, #1]	@ zero_extendqisi2
 8344 27dc 322B     		cmp	r3, #50
 8345 27de 08D0     		beq	.L410
 8346 27e0 332B     		cmp	r3, #51
 8347 27e2 0BD0     		beq	.L411
 8348 27e4 312B     		cmp	r3, #49
 8349 27e6 0ED1     		bne	.L643
1815:.\main.c      ****                                         case '1':
1816:.\main.c      ****                                         lado1.grado[0][0]=2;                                       
 8350              		.loc 1 1816 0
 8351 27e8 564B     		ldr	r3, .L681+20
 8352 27ea 0222     		movs	r2, #2
 8353 27ec 83F85920 		strb	r2, [r3, #89]
1817:.\main.c      ****                                         break;
 8354              		.loc 1 1817 0
 8355 27f0 0DE0     		b	.L413
 8356              	.L410:
1818:.\main.c      ****                                         case '2':
1819:.\main.c      ****                                         lado1.grado[1][0]=2;                                       
 8357              		.loc 1 1819 0
 8358 27f2 544B     		ldr	r3, .L681+20
 8359 27f4 0222     		movs	r2, #2
 8360 27f6 83F85A20 		strb	r2, [r3, #90]
1820:.\main.c      ****                                         break;
 8361              		.loc 1 1820 0
 8362 27fa 08E0     		b	.L413
 8363              	.L411:
1821:.\main.c      ****                                         case '3':
1822:.\main.c      ****                                         lado1.grado[2][0]=2;                                       
 8364              		.loc 1 1822 0
 8365 27fc 514B     		ldr	r3, .L681+20
ARM GAS  C:\Users\RECEPC~1\AppData\Local\Temp\cc2OimPl.s 			page 184


 8366 27fe 0222     		movs	r2, #2
 8367 2800 83F85B20 		strb	r2, [r3, #91]
1823:.\main.c      ****                                         break; 
 8368              		.loc 1 1823 0
 8369 2804 03E0     		b	.L413
 8370              	.L643:
1824:.\main.c      ****                                         default:
1825:.\main.c      ****                                         producto2=0;
 8371              		.loc 1 1825 0
 8372 2806 534B     		ldr	r3, .L681+36
 8373 2808 0022     		movs	r2, #0
 8374 280a 1A70     		strb	r2, [r3]
1826:.\main.c      ****                                         break;                                        
 8375              		.loc 1 1826 0
 8376 280c 00BF     		nop
 8377              	.L413:
1827:.\main.c      ****                                     }                                      
1828:.\main.c      ****                                 break;
 8378              		.loc 1 1828 0
 8379 280e 45E0     		b	.L398
 8380              	.L402:
1829:.\main.c      ****                                 case 3:// 3=extra, siempre para Autogas,
1830:.\main.c      ****                                     Productos[2]=Buffer_LCD1[1]+48;
 8381              		.loc 1 1830 0
 8382 2810 484B     		ldr	r3, .L681+4
 8383 2812 5B78     		ldrb	r3, [r3, #1]
 8384 2814 DBB2     		uxtb	r3, r3
 8385 2816 3033     		adds	r3, r3, #48
 8386 2818 DAB2     		uxtb	r2, r3
 8387 281a 4C4B     		ldr	r3, .L681+28
 8388 281c 9A70     		strb	r2, [r3, #2]
1831:.\main.c      ****                                     switch(Productos[2]){
 8389              		.loc 1 1831 0
 8390 281e 4B4B     		ldr	r3, .L681+28
 8391 2820 9B78     		ldrb	r3, [r3, #2]	@ zero_extendqisi2
 8392 2822 322B     		cmp	r3, #50
 8393 2824 08D0     		beq	.L415
 8394 2826 332B     		cmp	r3, #51
 8395 2828 0BD0     		beq	.L416
 8396 282a 312B     		cmp	r3, #49
 8397 282c 0ED1     		bne	.L644
1832:.\main.c      ****                                         case '1':
1833:.\main.c      ****                                         lado1.grado[0][0]=3;                                       
 8398              		.loc 1 1833 0
 8399 282e 454B     		ldr	r3, .L681+20
 8400 2830 0322     		movs	r2, #3
 8401 2832 83F85920 		strb	r2, [r3, #89]
1834:.\main.c      ****                                         break;
 8402              		.loc 1 1834 0
 8403 2836 0DE0     		b	.L418
 8404              	.L415:
1835:.\main.c      ****                                         case '2':
1836:.\main.c      ****                                         lado1.grado[1][0]=3;                                       
 8405              		.loc 1 1836 0
 8406 2838 424B     		ldr	r3, .L681+20
 8407 283a 0322     		movs	r2, #3
 8408 283c 83F85A20 		strb	r2, [r3, #90]
ARM GAS  C:\Users\RECEPC~1\AppData\Local\Temp\cc2OimPl.s 			page 185


1837:.\main.c      ****                                         break;
 8409              		.loc 1 1837 0
 8410 2840 08E0     		b	.L418
 8411              	.L416:
1838:.\main.c      ****                                         case '3':
1839:.\main.c      ****                                         lado1.grado[2][0]=3;                                       
 8412              		.loc 1 1839 0
 8413 2842 404B     		ldr	r3, .L681+20
 8414 2844 0322     		movs	r2, #3
 8415 2846 83F85B20 		strb	r2, [r3, #91]
1840:.\main.c      ****                                         break; 
 8416              		.loc 1 1840 0
 8417 284a 03E0     		b	.L418
 8418              	.L644:
1841:.\main.c      ****                                         default:
1842:.\main.c      ****                                         producto3=0;
 8419              		.loc 1 1842 0
 8420 284c 424B     		ldr	r3, .L681+40
 8421 284e 0022     		movs	r2, #0
 8422 2850 1A70     		strb	r2, [r3]
1843:.\main.c      ****                                         break;                                        
 8423              		.loc 1 1843 0
 8424 2852 00BF     		nop
 8425              	.L418:
1844:.\main.c      ****                                     }                                      
1845:.\main.c      ****                                 break;
 8426              		.loc 1 1845 0
 8427 2854 22E0     		b	.L398
 8428              	.L403:
1846:.\main.c      ****                                 case 4:// 4=supreme diesel, siempre para Autogas,
1847:.\main.c      ****                                     Productos[3]=Buffer_LCD1[1]+48;
 8429              		.loc 1 1847 0
 8430 2856 374B     		ldr	r3, .L681+4
 8431 2858 5B78     		ldrb	r3, [r3, #1]
 8432 285a DBB2     		uxtb	r3, r3
 8433 285c 3033     		adds	r3, r3, #48
 8434 285e DAB2     		uxtb	r2, r3
 8435 2860 3A4B     		ldr	r3, .L681+28
 8436 2862 DA70     		strb	r2, [r3, #3]
1848:.\main.c      ****                                     switch(Productos[3]){
 8437              		.loc 1 1848 0
 8438 2864 394B     		ldr	r3, .L681+28
 8439 2866 DB78     		ldrb	r3, [r3, #3]	@ zero_extendqisi2
 8440 2868 322B     		cmp	r3, #50
 8441 286a 08D0     		beq	.L420
 8442 286c 332B     		cmp	r3, #51
 8443 286e 0BD0     		beq	.L421
 8444 2870 312B     		cmp	r3, #49
 8445 2872 0ED1     		bne	.L645
1849:.\main.c      ****                                         case '1':
1850:.\main.c      ****                                         lado1.grado[0][0]=4;                                       
 8446              		.loc 1 1850 0
 8447 2874 334B     		ldr	r3, .L681+20
 8448 2876 0422     		movs	r2, #4
 8449 2878 83F85920 		strb	r2, [r3, #89]
1851:.\main.c      ****                                         break;
 8450              		.loc 1 1851 0
ARM GAS  C:\Users\RECEPC~1\AppData\Local\Temp\cc2OimPl.s 			page 186


 8451 287c 0DE0     		b	.L423
 8452              	.L420:
1852:.\main.c      ****                                         case '2':
1853:.\main.c      ****                                         lado1.grado[1][0]=4;                                       
 8453              		.loc 1 1853 0
 8454 287e 314B     		ldr	r3, .L681+20
 8455 2880 0422     		movs	r2, #4
 8456 2882 83F85A20 		strb	r2, [r3, #90]
1854:.\main.c      ****                                         break;
 8457              		.loc 1 1854 0
 8458 2886 08E0     		b	.L423
 8459              	.L421:
1855:.\main.c      ****                                         case '3':
1856:.\main.c      ****                                         lado1.grado[2][0]=4;                                       
 8460              		.loc 1 1856 0
 8461 2888 2E4B     		ldr	r3, .L681+20
 8462 288a 0422     		movs	r2, #4
 8463 288c 83F85B20 		strb	r2, [r3, #91]
1857:.\main.c      ****                                         break;
 8464              		.loc 1 1857 0
 8465 2890 03E0     		b	.L423
 8466              	.L645:
1858:.\main.c      ****                                         default:
1859:.\main.c      ****                                         producto4=0;
 8467              		.loc 1 1859 0
 8468 2892 324B     		ldr	r3, .L681+44
 8469 2894 0022     		movs	r2, #0
 8470 2896 1A70     		strb	r2, [r3]
1860:.\main.c      ****                                         break;                                      
 8471              		.loc 1 1860 0
 8472 2898 00BF     		nop
 8473              	.L423:
1861:.\main.c      ****                                     }                                      
1862:.\main.c      ****                                 break;                                    
 8474              		.loc 1 1862 0
 8475 289a 00BF     		nop
 8476              	.L398:
1863:.\main.c      ****                             }
1864:.\main.c      ****                             write_LCD(1,Productos[0], 7, 44, 1);
 8477              		.loc 1 1864 0
 8478 289c 2B4B     		ldr	r3, .L681+28
 8479 289e 1A78     		ldrb	r2, [r3]	@ zero_extendqisi2
 8480 28a0 0123     		movs	r3, #1
 8481 28a2 0093     		str	r3, [sp]
 8482 28a4 0120     		movs	r0, #1
 8483 28a6 1146     		mov	r1, r2
 8484 28a8 0722     		movs	r2, #7
 8485 28aa 2C23     		movs	r3, #44
 8486 28ac FFF7FEFF 		bl	write_LCD
1865:.\main.c      ****                             write_LCD(1,Productos[1], 14, 44, 1); 
 8487              		.loc 1 1865 0
 8488 28b0 264B     		ldr	r3, .L681+28
 8489 28b2 5A78     		ldrb	r2, [r3, #1]	@ zero_extendqisi2
 8490 28b4 0123     		movs	r3, #1
 8491 28b6 0093     		str	r3, [sp]
 8492 28b8 0120     		movs	r0, #1
 8493 28ba 1146     		mov	r1, r2
ARM GAS  C:\Users\RECEPC~1\AppData\Local\Temp\cc2OimPl.s 			page 187


 8494 28bc 0E22     		movs	r2, #14
 8495 28be 2C23     		movs	r3, #44
 8496 28c0 FFF7FEFF 		bl	write_LCD
1866:.\main.c      ****                             write_LCD(1,Productos[2], 19, 44, 1);
 8497              		.loc 1 1866 0
 8498 28c4 214B     		ldr	r3, .L681+28
 8499 28c6 9A78     		ldrb	r2, [r3, #2]	@ zero_extendqisi2
 8500 28c8 0123     		movs	r3, #1
 8501 28ca 0093     		str	r3, [sp]
 8502 28cc 0120     		movs	r0, #1
 8503 28ce 1146     		mov	r1, r2
 8504 28d0 1322     		movs	r2, #19
 8505 28d2 2C23     		movs	r3, #44
 8506 28d4 FFF7FEFF 		bl	write_LCD
1867:.\main.c      ****                             write_LCD(1,Productos[3], 25, 44, 1); 
 8507              		.loc 1 1867 0
 8508 28d8 1C4B     		ldr	r3, .L681+28
 8509 28da DA78     		ldrb	r2, [r3, #3]	@ zero_extendqisi2
 8510 28dc 0123     		movs	r3, #1
 8511 28de 0093     		str	r3, [sp]
 8512 28e0 0120     		movs	r0, #1
 8513 28e2 1146     		mov	r1, r2
 8514 28e4 1922     		movs	r2, #25
 8515 28e6 2C23     		movs	r3, #44
 8516 28e8 FFF7FEFF 		bl	write_LCD
1868:.\main.c      **** 							lado1.estado=libre;                                 
 8517              		.loc 1 1868 0
 8518 28ec 154B     		ldr	r3, .L681+20
 8519 28ee 0122     		movs	r2, #1
 8520 28f0 5A70     		strb	r2, [r3, #1]
1869:.\main.c      ****                             CyDelay(200);                             
 8521              		.loc 1 1869 0
 8522 28f2 C820     		movs	r0, #200
 8523 28f4 FFF7FEFF 		bl	CyDelay
1870:.\main.c      ****                         break;          
 8524              		.loc 1 1870 0
 8525 28f8 DFE0     		b	.L342
 8526              	.L367:
1871:.\main.c      ****                         case 8:
1872:.\main.c      ****                             for(x=1;x<=4;x++){
 8527              		.loc 1 1872 0
 8528 28fa 0123     		movs	r3, #1
 8529 28fc 87F82F30 		strb	r3, [r7, #47]
 8530 2900 09E0     		b	.L424
 8531              	.L425:
1873:.\main.c      ****                               id_estacion[x]=0;
 8532              		.loc 1 1873 0 discriminator 3
 8533 2902 97F82F30 		ldrb	r3, [r7, #47]	@ zero_extendqisi2
 8534 2906 164A     		ldr	r2, .L681+48
 8535 2908 0021     		movs	r1, #0
 8536 290a D154     		strb	r1, [r2, r3]
1872:.\main.c      ****                               id_estacion[x]=0;
 8537              		.loc 1 1872 0 discriminator 3
 8538 290c 97F82F30 		ldrb	r3, [r7, #47]	@ zero_extendqisi2
 8539 2910 0133     		adds	r3, r3, #1
 8540 2912 87F82F30 		strb	r3, [r7, #47]
 8541              	.L424:
ARM GAS  C:\Users\RECEPC~1\AppData\Local\Temp\cc2OimPl.s 			page 188


1872:.\main.c      ****                               id_estacion[x]=0;
 8542              		.loc 1 1872 0 is_stmt 0 discriminator 1
 8543 2916 97F82F30 		ldrb	r3, [r7, #47]	@ zero_extendqisi2
 8544 291a 042B     		cmp	r3, #4
 8545 291c F1D9     		bls	.L425
1874:.\main.c      ****                             }
1875:.\main.c      ****                             id_estacion[0]=4;
 8546              		.loc 1 1875 0 is_stmt 1
 8547 291e 104B     		ldr	r3, .L681+48
 8548 2920 0422     		movs	r2, #4
 8549 2922 1A70     		strb	r2, [r3]
1876:.\main.c      **** 							for(x=count_teclas1;x>=1;x--){
 8550              		.loc 1 1876 0
 8551 2924 024B     		ldr	r3, .L681
 8552 2926 1B78     		ldrb	r3, [r3]
 8553 2928 87F82F30 		strb	r3, [r7, #47]
 8554 292c 30E0     		b	.L426
 8555              	.L682:
 8556 292e 00BF     		.align	2
 8557              	.L681:
 8558 2930 00000000 		.word	count_teclas1
 8559 2934 00000000 		.word	Buffer_LCD1
 8560 2938 00000000 		.word	rventa1
 8561 293c 00000000 		.word	clave_local
 8562 2940 00000000 		.word	flujo_LCD1
 8563 2944 00000000 		.word	lado1
 8564 2948 00000000 		.word	Producto
 8565 294c 00000000 		.word	Productos
 8566 2950 00000000 		.word	producto1
 8567 2954 00000000 		.word	producto2
 8568 2958 00000000 		.word	producto3
 8569 295c 00000000 		.word	producto4
 8570 2960 00000000 		.word	id_estacion
 8571              	.L427:
1877:.\main.c      **** 								id_estacion[x]=Buffer_LCD1[(count_teclas1-x)+1]+0X30;
 8572              		.loc 1 1877 0 discriminator 3
 8573 2964 97F82F30 		ldrb	r3, [r7, #47]	@ zero_extendqisi2
 8574 2968 904A     		ldr	r2, .L683
 8575 296a 1278     		ldrb	r2, [r2]
 8576 296c D2B2     		uxtb	r2, r2
 8577 296e 1146     		mov	r1, r2
 8578 2970 97F82F20 		ldrb	r2, [r7, #47]	@ zero_extendqisi2
 8579 2974 8A1A     		subs	r2, r1, r2
 8580 2976 0132     		adds	r2, r2, #1
 8581 2978 8D49     		ldr	r1, .L683+4
 8582 297a 8A5C     		ldrb	r2, [r1, r2]
 8583 297c D2B2     		uxtb	r2, r2
 8584 297e 3032     		adds	r2, r2, #48
 8585 2980 D1B2     		uxtb	r1, r2
 8586 2982 8C4A     		ldr	r2, .L683+8
 8587 2984 D154     		strb	r1, [r2, r3]
1876:.\main.c      **** 							for(x=count_teclas1;x>=1;x--){
 8588              		.loc 1 1876 0 discriminator 3
 8589 2986 97F82F30 		ldrb	r3, [r7, #47]	@ zero_extendqisi2
 8590 298a 013B     		subs	r3, r3, #1
 8591 298c 87F82F30 		strb	r3, [r7, #47]
 8592              	.L426:
ARM GAS  C:\Users\RECEPC~1\AppData\Local\Temp\cc2OimPl.s 			page 189


1876:.\main.c      **** 							for(x=count_teclas1;x>=1;x--){
 8593              		.loc 1 1876 0 is_stmt 0 discriminator 1
 8594 2990 97F82F30 		ldrb	r3, [r7, #47]	@ zero_extendqisi2
 8595 2994 002B     		cmp	r3, #0
 8596 2996 E5D1     		bne	.L427
1878:.\main.c      **** 							}                            
1879:.\main.c      ****                             if(id_estacion[1]>=0x30 && id_estacion[2]<0x30 && id_estacion[3]<0x30 &
 8597              		.loc 1 1879 0 is_stmt 1
 8598 2998 864B     		ldr	r3, .L683+8
 8599 299a 5B78     		ldrb	r3, [r3, #1]
 8600 299c DBB2     		uxtb	r3, r3
 8601 299e 2F2B     		cmp	r3, #47
 8602 29a0 17D9     		bls	.L428
 8603              		.loc 1 1879 0 is_stmt 0 discriminator 1
 8604 29a2 844B     		ldr	r3, .L683+8
 8605 29a4 9B78     		ldrb	r3, [r3, #2]
 8606 29a6 DBB2     		uxtb	r3, r3
 8607 29a8 2F2B     		cmp	r3, #47
 8608 29aa 12D8     		bhi	.L428
 8609              		.loc 1 1879 0 discriminator 2
 8610 29ac 814B     		ldr	r3, .L683+8
 8611 29ae DB78     		ldrb	r3, [r3, #3]
 8612 29b0 DBB2     		uxtb	r3, r3
 8613 29b2 2F2B     		cmp	r3, #47
 8614 29b4 0DD8     		bhi	.L428
 8615              		.loc 1 1879 0 discriminator 3
 8616 29b6 7F4B     		ldr	r3, .L683+8
 8617 29b8 1B79     		ldrb	r3, [r3, #4]
 8618 29ba DBB2     		uxtb	r3, r3
 8619 29bc 2F2B     		cmp	r3, #47
 8620 29be 08D8     		bhi	.L428
1880:.\main.c      ****                                 id_estacion[2]='0';
 8621              		.loc 1 1880 0 is_stmt 1
 8622 29c0 7C4B     		ldr	r3, .L683+8
 8623 29c2 3022     		movs	r2, #48
 8624 29c4 9A70     		strb	r2, [r3, #2]
1881:.\main.c      ****                                 id_estacion[3]='0';
 8625              		.loc 1 1881 0
 8626 29c6 7B4B     		ldr	r3, .L683+8
 8627 29c8 3022     		movs	r2, #48
 8628 29ca DA70     		strb	r2, [r3, #3]
1882:.\main.c      ****                                 id_estacion[4]='0';                                
 8629              		.loc 1 1882 0
 8630 29cc 794B     		ldr	r3, .L683+8
 8631 29ce 3022     		movs	r2, #48
 8632 29d0 1A71     		strb	r2, [r3, #4]
 8633              	.L428:
1883:.\main.c      ****                             }
1884:.\main.c      ****                             if(id_estacion[1]>=0x30 && id_estacion[2]>=0x30 && id_estacion[3]<0x30 
 8634              		.loc 1 1884 0
 8635 29d2 784B     		ldr	r3, .L683+8
 8636 29d4 5B78     		ldrb	r3, [r3, #1]
 8637 29d6 DBB2     		uxtb	r3, r3
 8638 29d8 2F2B     		cmp	r3, #47
 8639 29da 14D9     		bls	.L429
 8640              		.loc 1 1884 0 is_stmt 0 discriminator 1
 8641 29dc 754B     		ldr	r3, .L683+8
ARM GAS  C:\Users\RECEPC~1\AppData\Local\Temp\cc2OimPl.s 			page 190


 8642 29de 9B78     		ldrb	r3, [r3, #2]
 8643 29e0 DBB2     		uxtb	r3, r3
 8644 29e2 2F2B     		cmp	r3, #47
 8645 29e4 0FD9     		bls	.L429
 8646              		.loc 1 1884 0 discriminator 2
 8647 29e6 734B     		ldr	r3, .L683+8
 8648 29e8 DB78     		ldrb	r3, [r3, #3]
 8649 29ea DBB2     		uxtb	r3, r3
 8650 29ec 2F2B     		cmp	r3, #47
 8651 29ee 0AD8     		bhi	.L429
 8652              		.loc 1 1884 0 discriminator 3
 8653 29f0 704B     		ldr	r3, .L683+8
 8654 29f2 1B79     		ldrb	r3, [r3, #4]
 8655 29f4 DBB2     		uxtb	r3, r3
 8656 29f6 2F2B     		cmp	r3, #47
 8657 29f8 05D8     		bhi	.L429
1885:.\main.c      ****                                 id_estacion[3]='0';
 8658              		.loc 1 1885 0 is_stmt 1
 8659 29fa 6E4B     		ldr	r3, .L683+8
 8660 29fc 3022     		movs	r2, #48
 8661 29fe DA70     		strb	r2, [r3, #3]
1886:.\main.c      ****                                 id_estacion[4]='0';                             
 8662              		.loc 1 1886 0
 8663 2a00 6C4B     		ldr	r3, .L683+8
 8664 2a02 3022     		movs	r2, #48
 8665 2a04 1A71     		strb	r2, [r3, #4]
 8666              	.L429:
1887:.\main.c      ****                             }  
1888:.\main.c      ****                             if(id_estacion[1]>=0x30 && id_estacion[2]>=0x30 && id_estacion[3]>=0x30
 8667              		.loc 1 1888 0
 8668 2a06 6B4B     		ldr	r3, .L683+8
 8669 2a08 5B78     		ldrb	r3, [r3, #1]
 8670 2a0a DBB2     		uxtb	r3, r3
 8671 2a0c 2F2B     		cmp	r3, #47
 8672 2a0e 11D9     		bls	.L430
 8673              		.loc 1 1888 0 is_stmt 0 discriminator 1
 8674 2a10 684B     		ldr	r3, .L683+8
 8675 2a12 9B78     		ldrb	r3, [r3, #2]
 8676 2a14 DBB2     		uxtb	r3, r3
 8677 2a16 2F2B     		cmp	r3, #47
 8678 2a18 0CD9     		bls	.L430
 8679              		.loc 1 1888 0 discriminator 2
 8680 2a1a 664B     		ldr	r3, .L683+8
 8681 2a1c DB78     		ldrb	r3, [r3, #3]
 8682 2a1e DBB2     		uxtb	r3, r3
 8683 2a20 2F2B     		cmp	r3, #47
 8684 2a22 07D9     		bls	.L430
 8685              		.loc 1 1888 0 discriminator 3
 8686 2a24 634B     		ldr	r3, .L683+8
 8687 2a26 1B79     		ldrb	r3, [r3, #4]
 8688 2a28 DBB2     		uxtb	r3, r3
 8689 2a2a 2F2B     		cmp	r3, #47
 8690 2a2c 02D8     		bhi	.L430
1889:.\main.c      ****                                 id_estacion[4]='0';                              
 8691              		.loc 1 1889 0 is_stmt 1
 8692 2a2e 614B     		ldr	r3, .L683+8
 8693 2a30 3022     		movs	r2, #48
ARM GAS  C:\Users\RECEPC~1\AppData\Local\Temp\cc2OimPl.s 			page 191


 8694 2a32 1A71     		strb	r2, [r3, #4]
 8695              	.L430:
1890:.\main.c      ****                             }
1891:.\main.c      ****                     		for(x=8;x<=12;x++){	
 8696              		.loc 1 1891 0
 8697 2a34 0823     		movs	r3, #8
 8698 2a36 87F82F30 		strb	r3, [r7, #47]
 8699 2a3a 11E0     		b	.L431
 8700              	.L432:
1892:.\main.c      ****                     			EEPROM_WriteByte(id_estacion[x-8], x);
 8701              		.loc 1 1892 0 discriminator 3
 8702 2a3c 97F82F30 		ldrb	r3, [r7, #47]	@ zero_extendqisi2
 8703 2a40 083B     		subs	r3, r3, #8
 8704 2a42 5C4A     		ldr	r2, .L683+8
 8705 2a44 D35C     		ldrb	r3, [r2, r3]
 8706 2a46 DAB2     		uxtb	r2, r3
 8707 2a48 97F82F30 		ldrb	r3, [r7, #47]	@ zero_extendqisi2
 8708 2a4c 9BB2     		uxth	r3, r3
 8709 2a4e 1046     		mov	r0, r2
 8710 2a50 1946     		mov	r1, r3
 8711 2a52 FFF7FEFF 		bl	EEPROM_WriteByte
1891:.\main.c      ****                     			EEPROM_WriteByte(id_estacion[x-8], x);
 8712              		.loc 1 1891 0 discriminator 3
 8713 2a56 97F82F30 		ldrb	r3, [r7, #47]	@ zero_extendqisi2
 8714 2a5a 0133     		adds	r3, r3, #1
 8715 2a5c 87F82F30 		strb	r3, [r7, #47]
 8716              	.L431:
1891:.\main.c      ****                     			EEPROM_WriteByte(id_estacion[x-8], x);
 8717              		.loc 1 1891 0 is_stmt 0 discriminator 1
 8718 2a60 97F82F30 		ldrb	r3, [r7, #47]	@ zero_extendqisi2
 8719 2a64 0C2B     		cmp	r3, #12
 8720 2a66 E9D9     		bls	.L432
1893:.\main.c      ****                     		}
1894:.\main.c      ****                             if(kmscreen ==1){
 8721              		.loc 1 1894 0 is_stmt 1
 8722 2a68 534B     		ldr	r3, .L683+12
 8723 2a6a 1B78     		ldrb	r3, [r3]
 8724 2a6c DBB2     		uxtb	r3, r3
 8725 2a6e 012B     		cmp	r3, #1
 8726 2a70 12D1     		bne	.L433
1895:.\main.c      ****                                 flujo_LCD1 = 12;	//viejo: 0
 8727              		.loc 1 1895 0
 8728 2a72 524B     		ldr	r3, .L683+16
 8729 2a74 0C22     		movs	r2, #12
 8730 2a76 1A70     		strb	r2, [r3]
1896:.\main.c      ****                                 id_teclado1 = 2;
 8731              		.loc 1 1896 0
 8732 2a78 514B     		ldr	r3, .L683+20
 8733 2a7a 0222     		movs	r2, #2
 8734 2a7c 1A70     		strb	r2, [r3]
1897:.\main.c      ****                             	set_imagen(1,14); //viejo: 60
 8735              		.loc 1 1897 0
 8736 2a7e 0120     		movs	r0, #1
 8737 2a80 0E21     		movs	r1, #14
 8738 2a82 FFF7FEFF 		bl	set_imagen
1898:.\main.c      ****                                 CyDelay(200);
 8739              		.loc 1 1898 0
ARM GAS  C:\Users\RECEPC~1\AppData\Local\Temp\cc2OimPl.s 			page 192


 8740 2a86 C820     		movs	r0, #200
 8741 2a88 FFF7FEFF 		bl	CyDelay
1899:.\main.c      ****                                 count_teclas1 = 0;
 8742              		.loc 1 1899 0
 8743 2a8c 474B     		ldr	r3, .L683
 8744 2a8e 0022     		movs	r2, #0
 8745 2a90 1A70     		strb	r2, [r3]
1900:.\main.c      ****     							lado1.estado=libre; 
 8746              		.loc 1 1900 0
 8747 2a92 4C4B     		ldr	r3, .L683+24
 8748 2a94 0122     		movs	r2, #1
 8749 2a96 5A70     		strb	r2, [r3, #1]
 8750              	.L433:
1901:.\main.c      ****                             }
1902:.\main.c      ****                             if (kmscreen == 0){
 8751              		.loc 1 1902 0
 8752 2a98 474B     		ldr	r3, .L683+12
 8753 2a9a 1B78     		ldrb	r3, [r3]
 8754 2a9c DBB2     		uxtb	r3, r3
 8755 2a9e 002B     		cmp	r3, #0
 8756 2aa0 0AD1     		bne	.L434
1903:.\main.c      ****                                 flujo_LCD1 = 6;
 8757              		.loc 1 1903 0
 8758 2aa2 464B     		ldr	r3, .L683+16
 8759 2aa4 0622     		movs	r2, #6
 8760 2aa6 1A70     		strb	r2, [r3]
1904:.\main.c      ****                                 set_imagen(1,7);
 8761              		.loc 1 1904 0
 8762 2aa8 0120     		movs	r0, #1
 8763 2aaa 0721     		movs	r1, #7
 8764 2aac FFF7FEFF 		bl	set_imagen
1905:.\main.c      ****             					lado1.estado=espera;                                
 8765              		.loc 1 1905 0
 8766 2ab0 444B     		ldr	r3, .L683+24
 8767 2ab2 0222     		movs	r2, #2
 8768 2ab4 5A70     		strb	r2, [r3, #1]
1906:.\main.c      ****                             }
1907:.\main.c      ****                         	                                   
1908:.\main.c      ****                         break;
 8769              		.loc 1 1908 0
 8770 2ab6 FFE7     		b	.L650
 8771              	.L434:
 8772              	.L650:
 8773 2ab8 00BF     		nop
 8774              	.L342:
1909:.\main.c      **** 					}					
1910:.\main.c      ****                 }
1911:.\main.c      ****             }                      
1912:.\main.c      ****             LCD_1_ClearRxBuffer();
 8775              		.loc 1 1912 0
 8776 2aba FFF7FEFF 		bl	LCD_1_ClearRxBuffer
 8777              	.L341:
1913:.\main.c      ****          }
1914:.\main.c      ****         }
1915:.\main.c      ****         
1916:.\main.c      ****         if(seleccion_pos == 2){
 8778              		.loc 1 1916 0
ARM GAS  C:\Users\RECEPC~1\AppData\Local\Temp\cc2OimPl.s 			page 193


 8779 2abe 424B     		ldr	r3, .L683+28
 8780 2ac0 1B78     		ldrb	r3, [r3]
 8781 2ac2 DBB2     		uxtb	r3, r3
 8782 2ac4 022B     		cmp	r3, #2
 8783 2ac6 40F09985 		bne	.L435
1917:.\main.c      ****          if(LCD_1_GetRxBufferSize()==8){
 8784              		.loc 1 1917 0
 8785 2aca FFF7FEFF 		bl	LCD_1_GetRxBufferSize
 8786 2ace 0346     		mov	r3, r0
 8787 2ad0 082B     		cmp	r3, #8
 8788 2ad2 40F09385 		bne	.L435
1918:.\main.c      ****             if((LCD_1_rxBuffer[0]==0xAA) && (LCD_1_rxBuffer[6]==0xC3) && (LCD_1_rxBuffer[7]==0x3C))
 8789              		.loc 1 1918 0
 8790 2ad6 3D4B     		ldr	r3, .L683+32
 8791 2ad8 1B78     		ldrb	r3, [r3]
 8792 2ada DBB2     		uxtb	r3, r3
 8793 2adc AA2B     		cmp	r3, #170
 8794 2ade 40F08985 		bne	.L436
 8795              		.loc 1 1918 0 is_stmt 0 discriminator 1
 8796 2ae2 3A4B     		ldr	r3, .L683+32
 8797 2ae4 9B79     		ldrb	r3, [r3, #6]
 8798 2ae6 DBB2     		uxtb	r3, r3
 8799 2ae8 C32B     		cmp	r3, #195
 8800 2aea 40F08385 		bne	.L436
 8801              		.loc 1 1918 0 discriminator 2
 8802 2aee 374B     		ldr	r3, .L683+32
 8803 2af0 DB79     		ldrb	r3, [r3, #7]
 8804 2af2 DBB2     		uxtb	r3, r3
 8805 2af4 3C2B     		cmp	r3, #60
 8806 2af6 40F07D85 		bne	.L436
1919:.\main.c      **** 				count_protector=0;
 8807              		.loc 1 1919 0 is_stmt 1
 8808 2afa 354B     		ldr	r3, .L683+36
 8809 2afc 0022     		movs	r2, #0
 8810 2afe 1A70     		strb	r2, [r3]
1920:.\main.c      ****                 if(count_teclas1<teclas1){									
 8811              		.loc 1 1920 0
 8812 2b00 2A4B     		ldr	r3, .L683
 8813 2b02 1B78     		ldrb	r3, [r3]
 8814 2b04 DAB2     		uxtb	r2, r3
 8815 2b06 334B     		ldr	r3, .L683+40
 8816 2b08 1B78     		ldrb	r3, [r3]
 8817 2b0a DBB2     		uxtb	r3, r3
 8818 2b0c 9A42     		cmp	r2, r3
 8819 2b0e 80F0D980 		bcs	.L437
1921:.\main.c      ****                     if(LCD_1_rxBuffer[3]<=9){								//Numero de 1-9
 8820              		.loc 1 1921 0
 8821 2b12 2E4B     		ldr	r3, .L683+32
 8822 2b14 DB78     		ldrb	r3, [r3, #3]
 8823 2b16 DBB2     		uxtb	r3, r3
 8824 2b18 092B     		cmp	r3, #9
 8825 2b1a 32D8     		bhi	.L438
1922:.\main.c      ****                         count_teclas1++;
 8826              		.loc 1 1922 0
 8827 2b1c 234B     		ldr	r3, .L683
 8828 2b1e 1B78     		ldrb	r3, [r3]
 8829 2b20 DBB2     		uxtb	r3, r3
ARM GAS  C:\Users\RECEPC~1\AppData\Local\Temp\cc2OimPl.s 			page 194


 8830 2b22 0133     		adds	r3, r3, #1
 8831 2b24 DAB2     		uxtb	r2, r3
 8832 2b26 214B     		ldr	r3, .L683
 8833 2b28 1A70     		strb	r2, [r3]
1923:.\main.c      ****                         Buffer_LCD1[count_teclas1]=LCD_1_rxBuffer[3];
 8834              		.loc 1 1923 0
 8835 2b2a 204B     		ldr	r3, .L683
 8836 2b2c 1B78     		ldrb	r3, [r3]
 8837 2b2e DBB2     		uxtb	r3, r3
 8838 2b30 1A46     		mov	r2, r3
 8839 2b32 264B     		ldr	r3, .L683+32
 8840 2b34 DB78     		ldrb	r3, [r3, #3]
 8841 2b36 D9B2     		uxtb	r1, r3
 8842 2b38 1D4B     		ldr	r3, .L683+4
 8843 2b3a 9954     		strb	r1, [r3, r2]
1924:.\main.c      ****                         write_LCD(1,(LCD_1_rxBuffer[3]+0x30), posy1, ((count_teclas1*(sizeletra1+1)
 8844              		.loc 1 1924 0
 8845 2b3c 234B     		ldr	r3, .L683+32
 8846 2b3e DB78     		ldrb	r3, [r3, #3]
 8847 2b40 DBB2     		uxtb	r3, r3
 8848 2b42 3033     		adds	r3, r3, #48
 8849 2b44 D9B2     		uxtb	r1, r3
 8850 2b46 244B     		ldr	r3, .L683+44
 8851 2b48 1B88     		ldrh	r3, [r3]	@ movhi
 8852 2b4a 9DB2     		uxth	r5, r3
 8853 2b4c 174B     		ldr	r3, .L683
 8854 2b4e 1B78     		ldrb	r3, [r3]
 8855 2b50 DBB2     		uxtb	r3, r3
 8856 2b52 9BB2     		uxth	r3, r3
 8857 2b54 214A     		ldr	r2, .L683+48
 8858 2b56 1288     		ldrh	r2, [r2]	@ movhi
 8859 2b58 92B2     		uxth	r2, r2
 8860 2b5a 0132     		adds	r2, r2, #1
 8861 2b5c 92B2     		uxth	r2, r2
 8862 2b5e 02FB03F3 		mul	r3, r2, r3
 8863 2b62 9AB2     		uxth	r2, r3
 8864 2b64 1E4B     		ldr	r3, .L683+52
 8865 2b66 1B88     		ldrh	r3, [r3]	@ movhi
 8866 2b68 9BB2     		uxth	r3, r3
 8867 2b6a 1344     		add	r3, r3, r2
 8868 2b6c 9CB2     		uxth	r4, r3
 8869 2b6e 1B4B     		ldr	r3, .L683+48
 8870 2b70 1B88     		ldrh	r3, [r3]	@ movhi
 8871 2b72 9BB2     		uxth	r3, r3
 8872 2b74 DBB2     		uxtb	r3, r3
 8873 2b76 0093     		str	r3, [sp]
 8874 2b78 0120     		movs	r0, #1
 8875 2b7a 2A46     		mov	r2, r5
 8876 2b7c 2346     		mov	r3, r4
 8877 2b7e FFF7FEFF 		bl	write_LCD
 8878              	.L438:
1925:.\main.c      ****                     }
1926:.\main.c      ****                     if(LCD_1_rxBuffer[3]==0x0A){            				//Comando de 0
 8879              		.loc 1 1926 0
 8880 2b82 124B     		ldr	r3, .L683+32
 8881 2b84 DB78     		ldrb	r3, [r3, #3]
 8882 2b86 DBB2     		uxtb	r3, r3
ARM GAS  C:\Users\RECEPC~1\AppData\Local\Temp\cc2OimPl.s 			page 195


 8883 2b88 0A2B     		cmp	r3, #10
 8884 2b8a 58D1     		bne	.L439
1927:.\main.c      **** 						if((id_teclado1==1)&&(count_teclas1==1)&&(Buffer_LCD1[1]==0)){
 8885              		.loc 1 1927 0
 8886 2b8c 0C4B     		ldr	r3, .L683+20
 8887 2b8e 1B78     		ldrb	r3, [r3]
 8888 2b90 DBB2     		uxtb	r3, r3
 8889 2b92 012B     		cmp	r3, #1
 8890 2b94 26D1     		bne	.L440
 8891              		.loc 1 1927 0 is_stmt 0 discriminator 1
 8892 2b96 054B     		ldr	r3, .L683
 8893 2b98 1B78     		ldrb	r3, [r3]
 8894 2b9a DBB2     		uxtb	r3, r3
 8895 2b9c 012B     		cmp	r3, #1
 8896 2b9e 21D1     		bne	.L440
 8897              		.loc 1 1927 0 discriminator 2
 8898 2ba0 034B     		ldr	r3, .L683+4
 8899 2ba2 5B78     		ldrb	r3, [r3, #1]
 8900 2ba4 DBB2     		uxtb	r3, r3
 8901 2ba6 002B     		cmp	r3, #0
 8902 2ba8 1CD1     		bne	.L440
 8903              		.loc 1 1927 0
 8904 2baa 48E0     		b	.L439
 8905              	.L684:
 8906              		.align	2
 8907              	.L683:
 8908 2bac 00000000 		.word	count_teclas1
 8909 2bb0 00000000 		.word	Buffer_LCD1
 8910 2bb4 00000000 		.word	id_estacion
 8911 2bb8 00000000 		.word	kmscreen
 8912 2bbc 00000000 		.word	flujo_LCD1
 8913 2bc0 00000000 		.word	id_teclado1
 8914 2bc4 00000000 		.word	lado1
 8915 2bc8 00000000 		.word	seleccion_pos
 8916 2bcc 00000000 		.word	LCD_1_rxBuffer
 8917 2bd0 00000000 		.word	count_protector
 8918 2bd4 00000000 		.word	teclas1
 8919 2bd8 00000000 		.word	posy1
 8920 2bdc 00000000 		.word	sizeletra1
 8921 2be0 00000000 		.word	posx1
 8922              	.L440:
1928:.\main.c      **** 						}
1929:.\main.c      **** 						else{
1930:.\main.c      **** 	                        count_teclas1++;
 8923              		.loc 1 1930 0 is_stmt 1
 8924 2be4 AF4B     		ldr	r3, .L685
 8925 2be6 1B78     		ldrb	r3, [r3]
 8926 2be8 DBB2     		uxtb	r3, r3
 8927 2bea 0133     		adds	r3, r3, #1
 8928 2bec DAB2     		uxtb	r2, r3
 8929 2bee AD4B     		ldr	r3, .L685
 8930 2bf0 1A70     		strb	r2, [r3]
1931:.\main.c      **** 	                        Buffer_LCD1[count_teclas1]=0;
 8931              		.loc 1 1931 0
 8932 2bf2 AC4B     		ldr	r3, .L685
 8933 2bf4 1B78     		ldrb	r3, [r3]
 8934 2bf6 DBB2     		uxtb	r3, r3
ARM GAS  C:\Users\RECEPC~1\AppData\Local\Temp\cc2OimPl.s 			page 196


 8935 2bf8 1A46     		mov	r2, r3
 8936 2bfa AB4B     		ldr	r3, .L685+4
 8937 2bfc 0021     		movs	r1, #0
 8938 2bfe 9954     		strb	r1, [r3, r2]
1932:.\main.c      **** 							write_LCD(1,0x30, posy1, ((count_teclas1*(sizeletra1+1))+posx1), sizeletra1);
 8939              		.loc 1 1932 0
 8940 2c00 AA4B     		ldr	r3, .L685+8
 8941 2c02 1B88     		ldrh	r3, [r3]	@ movhi
 8942 2c04 9DB2     		uxth	r5, r3
 8943 2c06 A74B     		ldr	r3, .L685
 8944 2c08 1B78     		ldrb	r3, [r3]
 8945 2c0a DBB2     		uxtb	r3, r3
 8946 2c0c 9BB2     		uxth	r3, r3
 8947 2c0e A84A     		ldr	r2, .L685+12
 8948 2c10 1288     		ldrh	r2, [r2]	@ movhi
 8949 2c12 92B2     		uxth	r2, r2
 8950 2c14 0132     		adds	r2, r2, #1
 8951 2c16 92B2     		uxth	r2, r2
 8952 2c18 02FB03F3 		mul	r3, r2, r3
 8953 2c1c 9AB2     		uxth	r2, r3
 8954 2c1e A54B     		ldr	r3, .L685+16
 8955 2c20 1B88     		ldrh	r3, [r3]	@ movhi
 8956 2c22 9BB2     		uxth	r3, r3
 8957 2c24 1344     		add	r3, r3, r2
 8958 2c26 9CB2     		uxth	r4, r3
 8959 2c28 A14B     		ldr	r3, .L685+12
 8960 2c2a 1B88     		ldrh	r3, [r3]	@ movhi
 8961 2c2c 9BB2     		uxth	r3, r3
 8962 2c2e DBB2     		uxtb	r3, r3
 8963 2c30 0093     		str	r3, [sp]
 8964 2c32 0120     		movs	r0, #1
 8965 2c34 3021     		movs	r1, #48
 8966 2c36 2A46     		mov	r2, r5
 8967 2c38 2346     		mov	r3, r4
 8968 2c3a FFF7FEFF 		bl	write_LCD
 8969              	.L439:
1933:.\main.c      **** 						}
1934:.\main.c      ****                     }  
1935:.\main.c      ****                     if(LCD_1_rxBuffer[3]==0x51){            	 			//Comando de Coma
 8970              		.loc 1 1935 0
 8971 2c3e 9E4B     		ldr	r3, .L685+20
 8972 2c40 DB78     		ldrb	r3, [r3, #3]
 8973 2c42 DBB2     		uxtb	r3, r3
 8974 2c44 512B     		cmp	r3, #81
 8975 2c46 3DD1     		bne	.L437
1936:.\main.c      ****                         if(count_teclas1>=1 && comas1==0){
 8976              		.loc 1 1936 0
 8977 2c48 964B     		ldr	r3, .L685
 8978 2c4a 1B78     		ldrb	r3, [r3]
 8979 2c4c DBB2     		uxtb	r3, r3
 8980 2c4e 002B     		cmp	r3, #0
 8981 2c50 38D0     		beq	.L437
 8982              		.loc 1 1936 0 is_stmt 0 discriminator 1
 8983 2c52 9A4B     		ldr	r3, .L685+24
 8984 2c54 1B78     		ldrb	r3, [r3]
 8985 2c56 DBB2     		uxtb	r3, r3
 8986 2c58 002B     		cmp	r3, #0
ARM GAS  C:\Users\RECEPC~1\AppData\Local\Temp\cc2OimPl.s 			page 197


 8987 2c5a 33D1     		bne	.L437
1937:.\main.c      ****                             count_teclas1++;
 8988              		.loc 1 1937 0 is_stmt 1
 8989 2c5c 914B     		ldr	r3, .L685
 8990 2c5e 1B78     		ldrb	r3, [r3]
 8991 2c60 DBB2     		uxtb	r3, r3
 8992 2c62 0133     		adds	r3, r3, #1
 8993 2c64 DAB2     		uxtb	r2, r3
 8994 2c66 8F4B     		ldr	r3, .L685
 8995 2c68 1A70     		strb	r2, [r3]
1938:.\main.c      ****                             Buffer_LCD1[count_teclas1]=id_coma1;
 8996              		.loc 1 1938 0
 8997 2c6a 8E4B     		ldr	r3, .L685
 8998 2c6c 1B78     		ldrb	r3, [r3]
 8999 2c6e DBB2     		uxtb	r3, r3
 9000 2c70 1A46     		mov	r2, r3
 9001 2c72 934B     		ldr	r3, .L685+28
 9002 2c74 1B78     		ldrb	r3, [r3]
 9003 2c76 D9B2     		uxtb	r1, r3
 9004 2c78 8B4B     		ldr	r3, .L685+4
 9005 2c7a 9954     		strb	r1, [r3, r2]
1939:.\main.c      **** 							write_LCD(1,id_coma1, posy1, ((count_teclas1*(sizeletra1+1))+posx1), sizeletra1);
 9006              		.loc 1 1939 0
 9007 2c7c 904B     		ldr	r3, .L685+28
 9008 2c7e 1B78     		ldrb	r3, [r3]
 9009 2c80 D9B2     		uxtb	r1, r3
 9010 2c82 8A4B     		ldr	r3, .L685+8
 9011 2c84 1B88     		ldrh	r3, [r3]	@ movhi
 9012 2c86 9DB2     		uxth	r5, r3
 9013 2c88 864B     		ldr	r3, .L685
 9014 2c8a 1B78     		ldrb	r3, [r3]
 9015 2c8c DBB2     		uxtb	r3, r3
 9016 2c8e 9BB2     		uxth	r3, r3
 9017 2c90 874A     		ldr	r2, .L685+12
 9018 2c92 1288     		ldrh	r2, [r2]	@ movhi
 9019 2c94 92B2     		uxth	r2, r2
 9020 2c96 0132     		adds	r2, r2, #1
 9021 2c98 92B2     		uxth	r2, r2
 9022 2c9a 02FB03F3 		mul	r3, r2, r3
 9023 2c9e 9AB2     		uxth	r2, r3
 9024 2ca0 844B     		ldr	r3, .L685+16
 9025 2ca2 1B88     		ldrh	r3, [r3]	@ movhi
 9026 2ca4 9BB2     		uxth	r3, r3
 9027 2ca6 1344     		add	r3, r3, r2
 9028 2ca8 9CB2     		uxth	r4, r3
 9029 2caa 814B     		ldr	r3, .L685+12
 9030 2cac 1B88     		ldrh	r3, [r3]	@ movhi
 9031 2cae 9BB2     		uxth	r3, r3
 9032 2cb0 DBB2     		uxtb	r3, r3
 9033 2cb2 0093     		str	r3, [sp]
 9034 2cb4 0120     		movs	r0, #1
 9035 2cb6 2A46     		mov	r2, r5
 9036 2cb8 2346     		mov	r3, r4
 9037 2cba FFF7FEFF 		bl	write_LCD
1940:.\main.c      ****                             comas1=1;
 9038              		.loc 1 1940 0
 9039 2cbe 7F4B     		ldr	r3, .L685+24
ARM GAS  C:\Users\RECEPC~1\AppData\Local\Temp\cc2OimPl.s 			page 198


 9040 2cc0 0122     		movs	r2, #1
 9041 2cc2 1A70     		strb	r2, [r3]
 9042              	.L437:
1941:.\main.c      ****                         }
1942:.\main.c      ****                     }                    
1943:.\main.c      ****                 }                                
1944:.\main.c      ****                 if(LCD_1_rxBuffer[3]==0x0B){								//Cancel
 9043              		.loc 1 1944 0
 9044 2cc4 7C4B     		ldr	r3, .L685+20
 9045 2cc6 DB78     		ldrb	r3, [r3, #3]
 9046 2cc8 DBB2     		uxtb	r3, r3
 9047 2cca 0B2B     		cmp	r3, #11
 9048 2ccc 40F0A080 		bne	.L441
1945:.\main.c      ****                     if(count_teclas1==0){
 9049              		.loc 1 1945 0
 9050 2cd0 744B     		ldr	r3, .L685
 9051 2cd2 1B78     		ldrb	r3, [r3]
 9052 2cd4 DBB2     		uxtb	r3, r3
 9053 2cd6 002B     		cmp	r3, #0
 9054 2cd8 5ED1     		bne	.L442
1946:.\main.c      **** 						switch(id_teclado1){
 9055              		.loc 1 1946 0
 9056 2cda 7A4B     		ldr	r3, .L685+32
 9057 2cdc 1B78     		ldrb	r3, [r3]
 9058 2cde DBB2     		uxtb	r3, r3
 9059 2ce0 013B     		subs	r3, r3, #1
 9060 2ce2 072B     		cmp	r3, #7
 9061 2ce4 00F29480 		bhi	.L441
 9062 2ce8 01A2     		adr	r2, .L445
 9063 2cea 52F823F0 		ldr	pc, [r2, r3, lsl #2]
 9064 2cee 00BF     		.p2align 2
 9065              	.L445:
 9066 2cf0 112D0000 		.word	.L444+1
 9067 2cf4 212D0000 		.word	.L446+1
 9068 2cf8 292D0000 		.word	.L447+1
 9069 2cfc 3F2D0000 		.word	.L448+1
 9070 2d00 552D0000 		.word	.L449+1
 9071 2d04 6B2D0000 		.word	.L450+1
 9072 2d08 112E0000 		.word	.L441+1
 9073 2d0c 812D0000 		.word	.L451+1
 9074              		.p2align 1
 9075              	.L444:
1947:.\main.c      **** 							case 1:
1948:.\main.c      **** 							set_imagen(1,5);
 9076              		.loc 1 1948 0
 9077 2d10 0120     		movs	r0, #1
 9078 2d12 0521     		movs	r1, #5
 9079 2d14 FFF7FEFF 		bl	set_imagen
1949:.\main.c      **** 							flujo_LCD1=4;
 9080              		.loc 1 1949 0
 9081 2d18 6B4B     		ldr	r3, .L685+36
 9082 2d1a 0422     		movs	r2, #4
 9083 2d1c 1A70     		strb	r2, [r3]
1950:.\main.c      **** 							break;
 9084              		.loc 1 1950 0
 9085 2d1e 3AE0     		b	.L443
 9086              	.L446:
ARM GAS  C:\Users\RECEPC~1\AppData\Local\Temp\cc2OimPl.s 			page 199


1951:.\main.c      **** 							case 2:
1952:.\main.c      **** 	                        flujo_LCD1=0;	
 9087              		.loc 1 1952 0
 9088 2d20 694B     		ldr	r3, .L685+36
 9089 2d22 0022     		movs	r2, #0
 9090 2d24 1A70     		strb	r2, [r3]
1953:.\main.c      **** 							break;
 9091              		.loc 1 1953 0
 9092 2d26 36E0     		b	.L443
 9093              	.L447:
1954:.\main.c      **** 							case 3:
1955:.\main.c      **** 							set_imagen(1,0);
 9094              		.loc 1 1955 0
 9095 2d28 0120     		movs	r0, #1
 9096 2d2a 0021     		movs	r1, #0
 9097 2d2c FFF7FEFF 		bl	set_imagen
1956:.\main.c      **** 							flujo_LCD1=0;
 9098              		.loc 1 1956 0
 9099 2d30 654B     		ldr	r3, .L685+36
 9100 2d32 0022     		movs	r2, #0
 9101 2d34 1A70     		strb	r2, [r3]
1957:.\main.c      **** 							lado2.estado=libre;
 9102              		.loc 1 1957 0
 9103 2d36 654B     		ldr	r3, .L685+40
 9104 2d38 0122     		movs	r2, #1
 9105 2d3a 5A70     		strb	r2, [r3, #1]
1958:.\main.c      **** 							break;
 9106              		.loc 1 1958 0
 9107 2d3c 2BE0     		b	.L443
 9108              	.L448:
1959:.\main.c      **** 							case 4:
1960:.\main.c      **** 							set_imagen(1,0);
 9109              		.loc 1 1960 0
 9110 2d3e 0120     		movs	r0, #1
 9111 2d40 0021     		movs	r1, #0
 9112 2d42 FFF7FEFF 		bl	set_imagen
1961:.\main.c      **** 							flujo_LCD1=0;
 9113              		.loc 1 1961 0
 9114 2d46 604B     		ldr	r3, .L685+36
 9115 2d48 0022     		movs	r2, #0
 9116 2d4a 1A70     		strb	r2, [r3]
1962:.\main.c      **** 							lado2.estado=libre;
 9117              		.loc 1 1962 0
 9118 2d4c 5F4B     		ldr	r3, .L685+40
 9119 2d4e 0122     		movs	r2, #1
 9120 2d50 5A70     		strb	r2, [r3, #1]
1963:.\main.c      **** 							break;
 9121              		.loc 1 1963 0
 9122 2d52 20E0     		b	.L443
 9123              	.L449:
1964:.\main.c      ****                             case 5:
1965:.\main.c      **** 							set_imagen(1,0);
 9124              		.loc 1 1965 0
 9125 2d54 0120     		movs	r0, #1
 9126 2d56 0021     		movs	r1, #0
 9127 2d58 FFF7FEFF 		bl	set_imagen
1966:.\main.c      **** 							flujo_LCD1=0;
ARM GAS  C:\Users\RECEPC~1\AppData\Local\Temp\cc2OimPl.s 			page 200


 9128              		.loc 1 1966 0
 9129 2d5c 5A4B     		ldr	r3, .L685+36
 9130 2d5e 0022     		movs	r2, #0
 9131 2d60 1A70     		strb	r2, [r3]
1967:.\main.c      **** 							lado2.estado=libre;                            
 9132              		.loc 1 1967 0
 9133 2d62 5A4B     		ldr	r3, .L685+40
 9134 2d64 0122     		movs	r2, #1
 9135 2d66 5A70     		strb	r2, [r3, #1]
1968:.\main.c      ****                             break;
 9136              		.loc 1 1968 0
 9137 2d68 15E0     		b	.L443
 9138              	.L450:
1969:.\main.c      ****                             case 6:
1970:.\main.c      **** 							set_imagen(1,0);
 9139              		.loc 1 1970 0
 9140 2d6a 0120     		movs	r0, #1
 9141 2d6c 0021     		movs	r1, #0
 9142 2d6e FFF7FEFF 		bl	set_imagen
1971:.\main.c      **** 							flujo_LCD1=0;
 9143              		.loc 1 1971 0
 9144 2d72 554B     		ldr	r3, .L685+36
 9145 2d74 0022     		movs	r2, #0
 9146 2d76 1A70     		strb	r2, [r3]
1972:.\main.c      **** 							lado2.estado=libre;                            
 9147              		.loc 1 1972 0
 9148 2d78 544B     		ldr	r3, .L685+40
 9149 2d7a 0122     		movs	r2, #1
 9150 2d7c 5A70     		strb	r2, [r3, #1]
1973:.\main.c      ****                             break;  
 9151              		.loc 1 1973 0
 9152 2d7e 0AE0     		b	.L443
 9153              	.L451:
1974:.\main.c      ****                             case 8:
1975:.\main.c      **** 							set_imagen(1,0);
 9154              		.loc 1 1975 0
 9155 2d80 0120     		movs	r0, #1
 9156 2d82 0021     		movs	r1, #0
 9157 2d84 FFF7FEFF 		bl	set_imagen
1976:.\main.c      **** 							flujo_LCD1 = 0;
 9158              		.loc 1 1976 0
 9159 2d88 4F4B     		ldr	r3, .L685+36
 9160 2d8a 0022     		movs	r2, #0
 9161 2d8c 1A70     		strb	r2, [r3]
1977:.\main.c      **** 							lado2.estado=libre;                            
 9162              		.loc 1 1977 0
 9163 2d8e 4F4B     		ldr	r3, .L685+40
 9164 2d90 0122     		movs	r2, #1
 9165 2d92 5A70     		strb	r2, [r3, #1]
1978:.\main.c      ****                             break;                             
 9166              		.loc 1 1978 0
 9167 2d94 00BF     		nop
 9168              	.L443:
 9169 2d96 3BE0     		b	.L441
 9170              	.L442:
1979:.\main.c      **** 						}
1980:.\main.c      ****                     }
ARM GAS  C:\Users\RECEPC~1\AppData\Local\Temp\cc2OimPl.s 			page 201


1981:.\main.c      ****                     else{
1982:.\main.c      **** 						write_LCD(1,0x20, posy1, ((count_teclas1*(sizeletra1+1))+posx1), sizeletra1);
 9171              		.loc 1 1982 0
 9172 2d98 444B     		ldr	r3, .L685+8
 9173 2d9a 1B88     		ldrh	r3, [r3]	@ movhi
 9174 2d9c 9DB2     		uxth	r5, r3
 9175 2d9e 414B     		ldr	r3, .L685
 9176 2da0 1B78     		ldrb	r3, [r3]
 9177 2da2 DBB2     		uxtb	r3, r3
 9178 2da4 9BB2     		uxth	r3, r3
 9179 2da6 424A     		ldr	r2, .L685+12
 9180 2da8 1288     		ldrh	r2, [r2]	@ movhi
 9181 2daa 92B2     		uxth	r2, r2
 9182 2dac 0132     		adds	r2, r2, #1
 9183 2dae 92B2     		uxth	r2, r2
 9184 2db0 02FB03F3 		mul	r3, r2, r3
 9185 2db4 9AB2     		uxth	r2, r3
 9186 2db6 3F4B     		ldr	r3, .L685+16
 9187 2db8 1B88     		ldrh	r3, [r3]	@ movhi
 9188 2dba 9BB2     		uxth	r3, r3
 9189 2dbc 1344     		add	r3, r3, r2
 9190 2dbe 9CB2     		uxth	r4, r3
 9191 2dc0 3B4B     		ldr	r3, .L685+12
 9192 2dc2 1B88     		ldrh	r3, [r3]	@ movhi
 9193 2dc4 9BB2     		uxth	r3, r3
 9194 2dc6 DBB2     		uxtb	r3, r3
 9195 2dc8 0093     		str	r3, [sp]
 9196 2dca 0120     		movs	r0, #1
 9197 2dcc 2021     		movs	r1, #32
 9198 2dce 2A46     		mov	r2, r5
 9199 2dd0 2346     		mov	r3, r4
 9200 2dd2 FFF7FEFF 		bl	write_LCD
1983:.\main.c      ****                         if(Buffer_LCD1[count_teclas1]==id_coma1){
 9201              		.loc 1 1983 0
 9202 2dd6 334B     		ldr	r3, .L685
 9203 2dd8 1B78     		ldrb	r3, [r3]
 9204 2dda DBB2     		uxtb	r3, r3
 9205 2ddc 1A46     		mov	r2, r3
 9206 2dde 324B     		ldr	r3, .L685+4
 9207 2de0 9B5C     		ldrb	r3, [r3, r2]
 9208 2de2 DAB2     		uxtb	r2, r3
 9209 2de4 364B     		ldr	r3, .L685+28
 9210 2de6 1B78     		ldrb	r3, [r3]
 9211 2de8 DBB2     		uxtb	r3, r3
 9212 2dea 9A42     		cmp	r2, r3
 9213 2dec 02D1     		bne	.L452
1984:.\main.c      ****                             comas1=0;
 9214              		.loc 1 1984 0
 9215 2dee 334B     		ldr	r3, .L685+24
 9216 2df0 0022     		movs	r2, #0
 9217 2df2 1A70     		strb	r2, [r3]
 9218              	.L452:
1985:.\main.c      ****                         }
1986:.\main.c      **** 						Buffer_LCD1[count_teclas1]=0;
 9219              		.loc 1 1986 0
 9220 2df4 2B4B     		ldr	r3, .L685
 9221 2df6 1B78     		ldrb	r3, [r3]
ARM GAS  C:\Users\RECEPC~1\AppData\Local\Temp\cc2OimPl.s 			page 202


 9222 2df8 DBB2     		uxtb	r3, r3
 9223 2dfa 1A46     		mov	r2, r3
 9224 2dfc 2A4B     		ldr	r3, .L685+4
 9225 2dfe 0021     		movs	r1, #0
 9226 2e00 9954     		strb	r1, [r3, r2]
1987:.\main.c      ****                         count_teclas1--;
 9227              		.loc 1 1987 0
 9228 2e02 284B     		ldr	r3, .L685
 9229 2e04 1B78     		ldrb	r3, [r3]
 9230 2e06 DBB2     		uxtb	r3, r3
 9231 2e08 013B     		subs	r3, r3, #1
 9232 2e0a DAB2     		uxtb	r2, r3
 9233 2e0c 254B     		ldr	r3, .L685
 9234 2e0e 1A70     		strb	r2, [r3]
 9235              	.L441:
1988:.\main.c      ****                     }
1989:.\main.c      ****                 }
1990:.\main.c      ****                 if(LCD_1_rxBuffer[3]==0x0C){								//Enter
 9236              		.loc 1 1990 0
 9237 2e10 294B     		ldr	r3, .L685+20
 9238 2e12 DB78     		ldrb	r3, [r3, #3]
 9239 2e14 DBB2     		uxtb	r3, r3
 9240 2e16 0C2B     		cmp	r3, #12
 9241 2e18 40F0EC83 		bne	.L436
1991:.\main.c      **** 					switch(id_teclado1){
 9242              		.loc 1 1991 0
 9243 2e1c 294B     		ldr	r3, .L685+32
 9244 2e1e 1B78     		ldrb	r3, [r3]
 9245 2e20 DBB2     		uxtb	r3, r3
 9246 2e22 013B     		subs	r3, r3, #1
 9247 2e24 072B     		cmp	r3, #7
 9248 2e26 00F2E583 		bhi	.L436
 9249 2e2a 01A2     		adr	r2, .L454
 9250 2e2c 52F823F0 		ldr	pc, [r2, r3, lsl #2]
 9251              		.p2align 2
 9252              	.L454:
 9253 2e30 512E0000 		.word	.L453+1
 9254 2e34 E52F0000 		.word	.L455+1
 9255 2e38 C1300000 		.word	.L456+1
 9256 2e3c 39310000 		.word	.L457+1
 9257 2e40 93310000 		.word	.L458+1
 9258 2e44 81320000 		.word	.L459+1
 9259 2e48 B3320000 		.word	.L460+1
 9260 2e4c 5B340000 		.word	.L461+1
 9261              		.p2align 1
 9262              	.L453:
1992:.\main.c      **** 						case 1:
1993:.\main.c      **** 							for(x=0;x<=7;x++){
 9263              		.loc 1 1993 0
 9264 2e50 0023     		movs	r3, #0
 9265 2e52 87F82F30 		strb	r3, [r7, #47]
 9266 2e56 0CE0     		b	.L462
 9267              	.L463:
1994:.\main.c      **** 								numero[x]=0;
 9268              		.loc 1 1994 0 discriminator 3
 9269 2e58 97F82F30 		ldrb	r3, [r7, #47]	@ zero_extendqisi2
 9270 2e5c 07F13002 		add	r2, r7, #48
ARM GAS  C:\Users\RECEPC~1\AppData\Local\Temp\cc2OimPl.s 			page 203


 9271 2e60 1344     		add	r3, r3, r2
 9272 2e62 0022     		movs	r2, #0
 9273 2e64 03F82C2C 		strb	r2, [r3, #-44]
1993:.\main.c      **** 								numero[x]=0;
 9274              		.loc 1 1993 0 discriminator 3
 9275 2e68 97F82F30 		ldrb	r3, [r7, #47]	@ zero_extendqisi2
 9276 2e6c 0133     		adds	r3, r3, #1
 9277 2e6e 87F82F30 		strb	r3, [r7, #47]
 9278              	.L462:
1993:.\main.c      **** 								numero[x]=0;
 9279              		.loc 1 1993 0 is_stmt 0 discriminator 1
 9280 2e72 97F82F30 		ldrb	r3, [r7, #47]	@ zero_extendqisi2
 9281 2e76 072B     		cmp	r3, #7
 9282 2e78 EED9     		bls	.L463
1995:.\main.c      **** 							}						
1996:.\main.c      **** 							if((count_teclas1>=1)&&(Buffer_LCD1[count_teclas1]!=',')){
 9283              		.loc 1 1996 0 is_stmt 1
 9284 2e7a 0A4B     		ldr	r3, .L685
 9285 2e7c 1B78     		ldrb	r3, [r3]
 9286 2e7e DBB2     		uxtb	r3, r3
 9287 2e80 002B     		cmp	r3, #0
 9288 2e82 00F0AE80 		beq	.L464
 9289              		.loc 1 1996 0 is_stmt 0 discriminator 1
 9290 2e86 074B     		ldr	r3, .L685
 9291 2e88 1B78     		ldrb	r3, [r3]
 9292 2e8a DBB2     		uxtb	r3, r3
 9293 2e8c 1A46     		mov	r2, r3
 9294 2e8e 064B     		ldr	r3, .L685+4
 9295 2e90 9B5C     		ldrb	r3, [r3, r2]
 9296 2e92 DBB2     		uxtb	r3, r3
 9297 2e94 2C2B     		cmp	r3, #44
 9298 2e96 00F0A480 		beq	.L464
1997:.\main.c      **** 								for(x=1;x<=count_teclas1;x++){
 9299              		.loc 1 1997 0 is_stmt 1
 9300 2e9a 0123     		movs	r3, #1
 9301 2e9c 87F82F30 		strb	r3, [r7, #47]
 9302 2ea0 3FE0     		b	.L465
 9303              	.L686:
 9304 2ea2 00BF     		.align	2
 9305              	.L685:
 9306 2ea4 00000000 		.word	count_teclas1
 9307 2ea8 00000000 		.word	Buffer_LCD1
 9308 2eac 00000000 		.word	posy1
 9309 2eb0 00000000 		.word	sizeletra1
 9310 2eb4 00000000 		.word	posx1
 9311 2eb8 00000000 		.word	LCD_1_rxBuffer
 9312 2ebc 00000000 		.word	comas1
 9313 2ec0 00000000 		.word	id_coma1
 9314 2ec4 00000000 		.word	id_teclado1
 9315 2ec8 00000000 		.word	flujo_LCD1
 9316 2ecc 00000000 		.word	lado2
 9317              	.L468:
1998:.\main.c      **** 									if(Buffer_LCD1[x]!=','){
 9318              		.loc 1 1998 0
 9319 2ed0 97F82F30 		ldrb	r3, [r7, #47]	@ zero_extendqisi2
 9320 2ed4 B14A     		ldr	r2, .L687
 9321 2ed6 D35C     		ldrb	r3, [r2, r3]
ARM GAS  C:\Users\RECEPC~1\AppData\Local\Temp\cc2OimPl.s 			page 204


 9322 2ed8 DBB2     		uxtb	r3, r3
 9323 2eda 2C2B     		cmp	r3, #44
 9324 2edc 0FD0     		beq	.L466
1999:.\main.c      **** 										numero[x-1]=Buffer_LCD1[x]+48;
 9325              		.loc 1 1999 0
 9326 2ede 97F82F30 		ldrb	r3, [r7, #47]	@ zero_extendqisi2
 9327 2ee2 013B     		subs	r3, r3, #1
 9328 2ee4 97F82F20 		ldrb	r2, [r7, #47]	@ zero_extendqisi2
 9329 2ee8 AC49     		ldr	r1, .L687
 9330 2eea 8A5C     		ldrb	r2, [r1, r2]
 9331 2eec D2B2     		uxtb	r2, r2
 9332 2eee 3032     		adds	r2, r2, #48
 9333 2ef0 D2B2     		uxtb	r2, r2
 9334 2ef2 07F13001 		add	r1, r7, #48
 9335 2ef6 0B44     		add	r3, r3, r1
 9336 2ef8 03F82C2C 		strb	r2, [r3, #-44]
 9337 2efc 0CE0     		b	.L467
 9338              	.L466:
2000:.\main.c      **** 									}
2001:.\main.c      **** 									else{
2002:.\main.c      **** 										numero[x-1]=Buffer_LCD1[x];
 9339              		.loc 1 2002 0
 9340 2efe 97F82F30 		ldrb	r3, [r7, #47]	@ zero_extendqisi2
 9341 2f02 013B     		subs	r3, r3, #1
 9342 2f04 97F82F20 		ldrb	r2, [r7, #47]	@ zero_extendqisi2
 9343 2f08 A449     		ldr	r1, .L687
 9344 2f0a 8A5C     		ldrb	r2, [r1, r2]
 9345 2f0c D2B2     		uxtb	r2, r2
 9346 2f0e 07F13001 		add	r1, r7, #48
 9347 2f12 0B44     		add	r3, r3, r1
 9348 2f14 03F82C2C 		strb	r2, [r3, #-44]
 9349              	.L467:
1997:.\main.c      **** 									if(Buffer_LCD1[x]!=','){
 9350              		.loc 1 1997 0 discriminator 2
 9351 2f18 97F82F30 		ldrb	r3, [r7, #47]	@ zero_extendqisi2
 9352 2f1c 0133     		adds	r3, r3, #1
 9353 2f1e 87F82F30 		strb	r3, [r7, #47]
 9354              	.L465:
1997:.\main.c      **** 									if(Buffer_LCD1[x]!=','){
 9355              		.loc 1 1997 0 is_stmt 0 discriminator 1
 9356 2f22 9F4B     		ldr	r3, .L687+4
 9357 2f24 1B78     		ldrb	r3, [r3]
 9358 2f26 DBB2     		uxtb	r3, r3
 9359 2f28 97F82F20 		ldrb	r2, [r7, #47]	@ zero_extendqisi2
 9360 2f2c 9A42     		cmp	r2, r3
 9361 2f2e CFD9     		bls	.L468
2003:.\main.c      **** 									}
2004:.\main.c      **** 								}
2005:.\main.c      **** 								num_decimal=atof(numero);
 9362              		.loc 1 2005 0 is_stmt 1
 9363 2f30 3B1D     		adds	r3, r7, #4
 9364 2f32 1846     		mov	r0, r3
 9365 2f34 FFF7FEFF 		bl	atof
 9366 2f38 C7E90801 		strd	r0, [r7, #32]
2006:.\main.c      **** 								if(((rventa2.preset[0]==1)&&(num_decimal>=5))||((rventa2.preset[0]==2)&&(num_decimal<=5)&&(
 9367              		.loc 1 2006 0
 9368 2f3c 994B     		ldr	r3, .L687+8
ARM GAS  C:\Users\RECEPC~1\AppData\Local\Temp\cc2OimPl.s 			page 205


 9369 2f3e DB7E     		ldrb	r3, [r3, #27]	@ zero_extendqisi2
 9370 2f40 012B     		cmp	r3, #1
 9371 2f42 09D1     		bne	.L469
 9372              		.loc 1 2006 0 is_stmt 0 discriminator 1
 9373 2f44 D7E90801 		ldrd	r0, [r7, #32]
 9374 2f48 4FF00002 		mov	r2, #0
 9375 2f4c 964B     		ldr	r3, .L687+12
 9376 2f4e FFF7FEFF 		bl	__aeabi_dcmpge
 9377 2f52 0346     		mov	r3, r0
 9378 2f54 002B     		cmp	r3, #0
 9379 2f56 1AD1     		bne	.L470
 9380              	.L469:
 9381              		.loc 1 2006 0 discriminator 3
 9382 2f58 924B     		ldr	r3, .L687+8
 9383 2f5a DB7E     		ldrb	r3, [r3, #27]	@ zero_extendqisi2
 9384 2f5c 022B     		cmp	r3, #2
 9385 2f5e 40D1     		bne	.L464
 9386              		.loc 1 2006 0 discriminator 4
 9387 2f60 D7E90801 		ldrd	r0, [r7, #32]
 9388 2f64 4FF00002 		mov	r2, #0
 9389 2f68 8F4B     		ldr	r3, .L687+12
 9390 2f6a FFF7FEFF 		bl	__aeabi_dcmple
 9391 2f6e 0346     		mov	r3, r0
 9392 2f70 002B     		cmp	r3, #0
 9393 2f72 00D1     		bne	.L641
2007:.\main.c      **** 									for(x=count_teclas1;x>=1;x--){
2008:.\main.c      **** 										rventa2.preset[x]=Buffer_LCD1[(count_teclas1-x)+1];
2009:.\main.c      **** 									}
2010:.\main.c      **** 									flujo_LCD1=5;								
2011:.\main.c      ****                          			lado2.estado=espera;
2012:.\main.c      **** 						            set_imagen(1,7);
2013:.\main.c      **** 								}
2014:.\main.c      **** 							}
2015:.\main.c      **** 						break;
 9394              		.loc 1 2015 0 is_stmt 1 discriminator 4
 9395 2f74 3EE3     		b	.L436
 9396              	.L641:
2006:.\main.c      **** 								if(((rventa2.preset[0]==1)&&(num_decimal>=5))||((rventa2.preset[0]==2)&&(num_decimal<=5)&&(
 9397              		.loc 1 2006 0 discriminator 5
 9398 2f76 D7E90801 		ldrd	r0, [r7, #32]
 9399 2f7a 4FF00002 		mov	r2, #0
 9400 2f7e 4FF00003 		mov	r3, #0
 9401 2f82 FFF7FEFF 		bl	__aeabi_dcmpgt
 9402 2f86 0346     		mov	r3, r0
 9403 2f88 002B     		cmp	r3, #0
 9404 2f8a 00D1     		bne	.L470
 9405              		.loc 1 2015 0 discriminator 5
 9406 2f8c 32E3     		b	.L436
 9407              	.L470:
2007:.\main.c      **** 									for(x=count_teclas1;x>=1;x--){
 9408              		.loc 1 2007 0
 9409 2f8e 844B     		ldr	r3, .L687+4
 9410 2f90 1B78     		ldrb	r3, [r3]
 9411 2f92 87F82F30 		strb	r3, [r7, #47]
 9412 2f96 15E0     		b	.L473
 9413              	.L474:
2008:.\main.c      **** 									}
ARM GAS  C:\Users\RECEPC~1\AppData\Local\Temp\cc2OimPl.s 			page 206


 9414              		.loc 1 2008 0 discriminator 3
 9415 2f98 97F82F30 		ldrb	r3, [r7, #47]	@ zero_extendqisi2
 9416 2f9c 804A     		ldr	r2, .L687+4
 9417 2f9e 1278     		ldrb	r2, [r2]
 9418 2fa0 D2B2     		uxtb	r2, r2
 9419 2fa2 1146     		mov	r1, r2
 9420 2fa4 97F82F20 		ldrb	r2, [r7, #47]	@ zero_extendqisi2
 9421 2fa8 8A1A     		subs	r2, r1, r2
 9422 2faa 0132     		adds	r2, r2, #1
 9423 2fac 7B49     		ldr	r1, .L687
 9424 2fae 8A5C     		ldrb	r2, [r1, r2]
 9425 2fb0 D1B2     		uxtb	r1, r2
 9426 2fb2 7C4A     		ldr	r2, .L687+8
 9427 2fb4 1344     		add	r3, r3, r2
 9428 2fb6 0A46     		mov	r2, r1
 9429 2fb8 DA76     		strb	r2, [r3, #27]
2007:.\main.c      **** 									for(x=count_teclas1;x>=1;x--){
 9430              		.loc 1 2007 0 discriminator 3
 9431 2fba 97F82F30 		ldrb	r3, [r7, #47]	@ zero_extendqisi2
 9432 2fbe 013B     		subs	r3, r3, #1
 9433 2fc0 87F82F30 		strb	r3, [r7, #47]
 9434              	.L473:
2007:.\main.c      **** 									for(x=count_teclas1;x>=1;x--){
 9435              		.loc 1 2007 0 is_stmt 0 discriminator 1
 9436 2fc4 97F82F30 		ldrb	r3, [r7, #47]	@ zero_extendqisi2
 9437 2fc8 002B     		cmp	r3, #0
 9438 2fca E5D1     		bne	.L474
2010:.\main.c      ****                          			lado2.estado=espera;
 9439              		.loc 1 2010 0 is_stmt 1
 9440 2fcc 774B     		ldr	r3, .L687+16
 9441 2fce 0522     		movs	r2, #5
 9442 2fd0 1A70     		strb	r2, [r3]
2011:.\main.c      **** 						            set_imagen(1,7);
 9443              		.loc 1 2011 0
 9444 2fd2 774B     		ldr	r3, .L687+20
 9445 2fd4 0222     		movs	r2, #2
 9446 2fd6 5A70     		strb	r2, [r3, #1]
2012:.\main.c      **** 								}
 9447              		.loc 1 2012 0
 9448 2fd8 0120     		movs	r0, #1
 9449 2fda 0721     		movs	r1, #7
 9450 2fdc FFF7FEFF 		bl	set_imagen
 9451              		.loc 1 2015 0
 9452 2fe0 08E3     		b	.L436
 9453              	.L464:
 9454 2fe2 07E3     		b	.L436
 9455              	.L455:
2016:.\main.c      **** 						case 2:	
2017:.\main.c      ****                             for(x=0;x<=10;x++){
 9456              		.loc 1 2017 0
 9457 2fe4 0023     		movs	r3, #0
 9458 2fe6 87F82F30 		strb	r3, [r7, #47]
 9459 2fea 0BE0     		b	.L475
 9460              	.L476:
2018:.\main.c      ****                               rventa2.km[x]=0;
 9461              		.loc 1 2018 0 discriminator 3
 9462 2fec 97F82F30 		ldrb	r3, [r7, #47]	@ zero_extendqisi2
ARM GAS  C:\Users\RECEPC~1\AppData\Local\Temp\cc2OimPl.s 			page 207


 9463 2ff0 6C4A     		ldr	r2, .L687+8
 9464 2ff2 1344     		add	r3, r3, r2
 9465 2ff4 0022     		movs	r2, #0
 9466 2ff6 83F84320 		strb	r2, [r3, #67]
2017:.\main.c      ****                               rventa2.km[x]=0;
 9467              		.loc 1 2017 0 discriminator 3
 9468 2ffa 97F82F30 		ldrb	r3, [r7, #47]	@ zero_extendqisi2
 9469 2ffe 0133     		adds	r3, r3, #1
 9470 3000 87F82F30 		strb	r3, [r7, #47]
 9471              	.L475:
2017:.\main.c      ****                               rventa2.km[x]=0;
 9472              		.loc 1 2017 0 is_stmt 0 discriminator 1
 9473 3004 97F82F30 		ldrb	r3, [r7, #47]	@ zero_extendqisi2
 9474 3008 0A2B     		cmp	r3, #10
 9475 300a EFD9     		bls	.L476
2019:.\main.c      ****                             }
2020:.\main.c      **** 							for(x=count_teclas1;x>=1;x--){
 9476              		.loc 1 2020 0 is_stmt 1
 9477 300c 644B     		ldr	r3, .L687+4
 9478 300e 1B78     		ldrb	r3, [r3]
 9479 3010 87F82F30 		strb	r3, [r7, #47]
 9480 3014 16E0     		b	.L477
 9481              	.L478:
2021:.\main.c      **** 								rventa2.km[x]=Buffer_LCD1[(count_teclas1-x)+1];
 9482              		.loc 1 2021 0 discriminator 3
 9483 3016 97F82F30 		ldrb	r3, [r7, #47]	@ zero_extendqisi2
 9484 301a 614A     		ldr	r2, .L687+4
 9485 301c 1278     		ldrb	r2, [r2]
 9486 301e D2B2     		uxtb	r2, r2
 9487 3020 1146     		mov	r1, r2
 9488 3022 97F82F20 		ldrb	r2, [r7, #47]	@ zero_extendqisi2
 9489 3026 8A1A     		subs	r2, r1, r2
 9490 3028 0132     		adds	r2, r2, #1
 9491 302a 5C49     		ldr	r1, .L687
 9492 302c 8A5C     		ldrb	r2, [r1, r2]
 9493 302e D1B2     		uxtb	r1, r2
 9494 3030 5C4A     		ldr	r2, .L687+8
 9495 3032 1344     		add	r3, r3, r2
 9496 3034 0A46     		mov	r2, r1
 9497 3036 83F84320 		strb	r2, [r3, #67]
2020:.\main.c      **** 								rventa2.km[x]=Buffer_LCD1[(count_teclas1-x)+1];
 9498              		.loc 1 2020 0 discriminator 3
 9499 303a 97F82F30 		ldrb	r3, [r7, #47]	@ zero_extendqisi2
 9500 303e 013B     		subs	r3, r3, #1
 9501 3040 87F82F30 		strb	r3, [r7, #47]
 9502              	.L477:
2020:.\main.c      **** 								rventa2.km[x]=Buffer_LCD1[(count_teclas1-x)+1];
 9503              		.loc 1 2020 0 is_stmt 0 discriminator 1
 9504 3044 97F82F30 		ldrb	r3, [r7, #47]	@ zero_extendqisi2
 9505 3048 002B     		cmp	r3, #0
 9506 304a E4D1     		bne	.L478
2022:.\main.c      **** 							}	                                                    
2023:.\main.c      ****                             if(seleccion_pos == 2){
 9507              		.loc 1 2023 0 is_stmt 1
 9508 304c 594B     		ldr	r3, .L687+24
 9509 304e 1B78     		ldrb	r3, [r3]
 9510 3050 DBB2     		uxtb	r3, r3
ARM GAS  C:\Users\RECEPC~1\AppData\Local\Temp\cc2OimPl.s 			page 208


 9511 3052 022B     		cmp	r3, #2
 9512 3054 33D1     		bne	.L479
2024:.\main.c      ****             					for(x=0;x<=7;x++){
 9513              		.loc 1 2024 0
 9514 3056 0023     		movs	r3, #0
 9515 3058 87F82F30 		strb	r3, [r7, #47]
 9516 305c 0AE0     		b	.L480
 9517              	.L481:
2025:.\main.c      ****             					 	rventa2.preset[x]=0;
 9518              		.loc 1 2025 0 discriminator 3
 9519 305e 97F82F30 		ldrb	r3, [r7, #47]	@ zero_extendqisi2
 9520 3062 504A     		ldr	r2, .L687+8
 9521 3064 1344     		add	r3, r3, r2
 9522 3066 0022     		movs	r2, #0
 9523 3068 DA76     		strb	r2, [r3, #27]
2024:.\main.c      ****             					for(x=0;x<=7;x++){
 9524              		.loc 1 2024 0 discriminator 3
 9525 306a 97F82F30 		ldrb	r3, [r7, #47]	@ zero_extendqisi2
 9526 306e 0133     		adds	r3, r3, #1
 9527 3070 87F82F30 		strb	r3, [r7, #47]
 9528              	.L480:
2024:.\main.c      ****             					for(x=0;x<=7;x++){
 9529              		.loc 1 2024 0 is_stmt 0 discriminator 1
 9530 3074 97F82F30 		ldrb	r3, [r7, #47]	@ zero_extendqisi2
 9531 3078 072B     		cmp	r3, #7
 9532 307a F0D9     		bls	.L481
2026:.\main.c      ****             					}
2027:.\main.c      ****                                 rventa2.preset[0]=3;					
 9533              		.loc 1 2027 0 is_stmt 1
 9534 307c 494B     		ldr	r3, .L687+8
 9535 307e 0322     		movs	r2, #3
 9536 3080 DA76     		strb	r2, [r3, #27]
2028:.\main.c      ****             					for(x=5;x<=7;x++){
 9537              		.loc 1 2028 0
 9538 3082 0523     		movs	r3, #5
 9539 3084 87F82F30 		strb	r3, [r7, #47]
 9540 3088 0AE0     		b	.L482
 9541              	.L483:
2029:.\main.c      ****             						rventa2.preset[x]=9;		
 9542              		.loc 1 2029 0 discriminator 3
 9543 308a 97F82F30 		ldrb	r3, [r7, #47]	@ zero_extendqisi2
 9544 308e 454A     		ldr	r2, .L687+8
 9545 3090 1344     		add	r3, r3, r2
 9546 3092 0922     		movs	r2, #9
 9547 3094 DA76     		strb	r2, [r3, #27]
2028:.\main.c      ****             					for(x=5;x<=7;x++){
 9548              		.loc 1 2028 0 discriminator 3
 9549 3096 97F82F30 		ldrb	r3, [r7, #47]	@ zero_extendqisi2
 9550 309a 0133     		adds	r3, r3, #1
 9551 309c 87F82F30 		strb	r3, [r7, #47]
 9552              	.L482:
2028:.\main.c      ****             					for(x=5;x<=7;x++){
 9553              		.loc 1 2028 0 is_stmt 0 discriminator 1
 9554 30a0 97F82F30 		ldrb	r3, [r7, #47]	@ zero_extendqisi2
 9555 30a4 072B     		cmp	r3, #7
 9556 30a6 F0D9     		bls	.L483
2030:.\main.c      ****             					}								                                     
ARM GAS  C:\Users\RECEPC~1\AppData\Local\Temp\cc2OimPl.s 			page 209


2031:.\main.c      ****             		            set_imagen(1,7);
 9557              		.loc 1 2031 0 is_stmt 1
 9558 30a8 0120     		movs	r0, #1
 9559 30aa 0721     		movs	r1, #7
 9560 30ac FFF7FEFF 		bl	set_imagen
2032:.\main.c      ****             					lado2.estado=espera;
 9561              		.loc 1 2032 0
 9562 30b0 3F4B     		ldr	r3, .L687+20
 9563 30b2 0222     		movs	r2, #2
 9564 30b4 5A70     		strb	r2, [r3, #1]
2033:.\main.c      ****                                 flujo_LCD1 = 6;  
 9565              		.loc 1 2033 0
 9566 30b6 3D4B     		ldr	r3, .L687+16
 9567 30b8 0622     		movs	r2, #6
 9568 30ba 1A70     		strb	r2, [r3]
2034:.\main.c      ****                             }    		                        
2035:.\main.c      **** 						break;
 9569              		.loc 1 2035 0
 9570 30bc 9AE2     		b	.L436
 9571              	.L479:
 9572 30be 99E2     		b	.L436
 9573              	.L456:
2036:.\main.c      **** 						case 3:
2037:.\main.c      **** 							for(x=count_teclas1;x>=1;x--){
 9574              		.loc 1 2037 0
 9575 30c0 374B     		ldr	r3, .L687+4
 9576 30c2 1B78     		ldrb	r3, [r3]
 9577 30c4 87F82F30 		strb	r3, [r7, #47]
 9578 30c8 18E0     		b	.L484
 9579              	.L485:
2038:.\main.c      **** 								rventa2.cedula[x]=Buffer_LCD1[(count_teclas1-x)+1]+48;
 9580              		.loc 1 2038 0 discriminator 3
 9581 30ca 97F82F30 		ldrb	r3, [r7, #47]	@ zero_extendqisi2
 9582 30ce 344A     		ldr	r2, .L687+4
 9583 30d0 1278     		ldrb	r2, [r2]
 9584 30d2 D2B2     		uxtb	r2, r2
 9585 30d4 1146     		mov	r1, r2
 9586 30d6 97F82F20 		ldrb	r2, [r7, #47]	@ zero_extendqisi2
 9587 30da 8A1A     		subs	r2, r1, r2
 9588 30dc 0132     		adds	r2, r2, #1
 9589 30de 2F49     		ldr	r1, .L687
 9590 30e0 8A5C     		ldrb	r2, [r1, r2]
 9591 30e2 D2B2     		uxtb	r2, r2
 9592 30e4 3032     		adds	r2, r2, #48
 9593 30e6 D1B2     		uxtb	r1, r2
 9594 30e8 2E4A     		ldr	r2, .L687+8
 9595 30ea 1344     		add	r3, r3, r2
 9596 30ec 0A46     		mov	r2, r1
 9597 30ee 83F85920 		strb	r2, [r3, #89]
2037:.\main.c      **** 								rventa2.cedula[x]=Buffer_LCD1[(count_teclas1-x)+1]+48;
 9598              		.loc 1 2037 0 discriminator 3
 9599 30f2 97F82F30 		ldrb	r3, [r7, #47]	@ zero_extendqisi2
 9600 30f6 013B     		subs	r3, r3, #1
 9601 30f8 87F82F30 		strb	r3, [r7, #47]
 9602              	.L484:
2037:.\main.c      **** 								rventa2.cedula[x]=Buffer_LCD1[(count_teclas1-x)+1]+48;
 9603              		.loc 1 2037 0 is_stmt 0 discriminator 1
ARM GAS  C:\Users\RECEPC~1\AppData\Local\Temp\cc2OimPl.s 			page 210


 9604 30fc 97F82F30 		ldrb	r3, [r7, #47]	@ zero_extendqisi2
 9605 3100 002B     		cmp	r3, #0
 9606 3102 E2D1     		bne	.L485
2039:.\main.c      **** 							}
2040:.\main.c      ****                         	flujo_LCD1=2;	
 9607              		.loc 1 2040 0 is_stmt 1
 9608 3104 294B     		ldr	r3, .L687+16
 9609 3106 0222     		movs	r2, #2
 9610 3108 1A70     		strb	r2, [r3]
2041:.\main.c      ****                         	set_imagen(1,5);
 9611              		.loc 1 2041 0
 9612 310a 0120     		movs	r0, #1
 9613 310c 0521     		movs	r1, #5
 9614 310e FFF7FEFF 		bl	set_imagen
2042:.\main.c      **** 							count_teclas1=0;
 9615              		.loc 1 2042 0
 9616 3112 234B     		ldr	r3, .L687+4
 9617 3114 0022     		movs	r2, #0
 9618 3116 1A70     		strb	r2, [r3]
2043:.\main.c      **** 							id_teclado1=4;
 9619              		.loc 1 2043 0
 9620 3118 274B     		ldr	r3, .L687+28
 9621 311a 0422     		movs	r2, #4
 9622 311c 1A70     		strb	r2, [r3]
2044:.\main.c      **** 							teclas1=10;
 9623              		.loc 1 2044 0
 9624 311e 274B     		ldr	r3, .L687+32
 9625 3120 0A22     		movs	r2, #10
 9626 3122 1A70     		strb	r2, [r3]
2045:.\main.c      **** 							posx1=2;
 9627              		.loc 1 2045 0
 9628 3124 264B     		ldr	r3, .L687+36
 9629 3126 0222     		movs	r2, #2
 9630 3128 1A80     		strh	r2, [r3]	@ movhi
2046:.\main.c      **** 							posy1=3;
 9631              		.loc 1 2046 0
 9632 312a 264B     		ldr	r3, .L687+40
 9633 312c 0322     		movs	r2, #3
 9634 312e 1A80     		strh	r2, [r3]	@ movhi
2047:.\main.c      **** 							sizeletra1=1;								
 9635              		.loc 1 2047 0
 9636 3130 254B     		ldr	r3, .L687+44
 9637 3132 0122     		movs	r2, #1
 9638 3134 1A80     		strh	r2, [r3]	@ movhi
2048:.\main.c      **** 						break;
 9639              		.loc 1 2048 0
 9640 3136 5DE2     		b	.L436
 9641              	.L457:
2049:.\main.c      **** 						case 4:
2050:.\main.c      **** 							for(x=count_teclas1;x>=1;x--){
 9642              		.loc 1 2050 0
 9643 3138 194B     		ldr	r3, .L687+4
 9644 313a 1B78     		ldrb	r3, [r3]
 9645 313c 87F82F30 		strb	r3, [r7, #47]
 9646 3140 18E0     		b	.L486
 9647              	.L487:
2051:.\main.c      **** 								rventa2.password[x]=Buffer_LCD1[(count_teclas1-x)+1]+48;
ARM GAS  C:\Users\RECEPC~1\AppData\Local\Temp\cc2OimPl.s 			page 211


 9648              		.loc 1 2051 0 discriminator 3
 9649 3142 97F82F30 		ldrb	r3, [r7, #47]	@ zero_extendqisi2
 9650 3146 164A     		ldr	r2, .L687+4
 9651 3148 1278     		ldrb	r2, [r2]
 9652 314a D2B2     		uxtb	r2, r2
 9653 314c 1146     		mov	r1, r2
 9654 314e 97F82F20 		ldrb	r2, [r7, #47]	@ zero_extendqisi2
 9655 3152 8A1A     		subs	r2, r1, r2
 9656 3154 0132     		adds	r2, r2, #1
 9657 3156 1149     		ldr	r1, .L687
 9658 3158 8A5C     		ldrb	r2, [r1, r2]
 9659 315a D2B2     		uxtb	r2, r2
 9660 315c 3032     		adds	r2, r2, #48
 9661 315e D1B2     		uxtb	r1, r2
 9662 3160 104A     		ldr	r2, .L687+8
 9663 3162 1344     		add	r3, r3, r2
 9664 3164 0A46     		mov	r2, r1
 9665 3166 83F86420 		strb	r2, [r3, #100]
2050:.\main.c      **** 								rventa2.password[x]=Buffer_LCD1[(count_teclas1-x)+1]+48;
 9666              		.loc 1 2050 0 discriminator 3
 9667 316a 97F82F30 		ldrb	r3, [r7, #47]	@ zero_extendqisi2
 9668 316e 013B     		subs	r3, r3, #1
 9669 3170 87F82F30 		strb	r3, [r7, #47]
 9670              	.L486:
2050:.\main.c      **** 								rventa2.password[x]=Buffer_LCD1[(count_teclas1-x)+1]+48;
 9671              		.loc 1 2050 0 is_stmt 0 discriminator 1
 9672 3174 97F82F30 		ldrb	r3, [r7, #47]	@ zero_extendqisi2
 9673 3178 002B     		cmp	r3, #0
 9674 317a E2D1     		bne	.L487
2052:.\main.c      **** 							}
2053:.\main.c      ****                         	flujo_LCD1=102;	
 9675              		.loc 1 2053 0 is_stmt 1
 9676 317c 0B4B     		ldr	r3, .L687+16
 9677 317e 6622     		movs	r2, #102
 9678 3180 1A70     		strb	r2, [r3]
2054:.\main.c      ****                         	set_imagen(1,57);
 9679              		.loc 1 2054 0
 9680 3182 0120     		movs	r0, #1
 9681 3184 3921     		movs	r1, #57
 9682 3186 FFF7FEFF 		bl	set_imagen
2055:.\main.c      **** 							lado2.estado=16;
 9683              		.loc 1 2055 0
 9684 318a 094B     		ldr	r3, .L687+20
 9685 318c 1022     		movs	r2, #16
 9686 318e 5A70     		strb	r2, [r3, #1]
2056:.\main.c      **** 						break;	
 9687              		.loc 1 2056 0
 9688 3190 30E2     		b	.L436
 9689              	.L458:
2057:.\main.c      ****                         case 5:
2058:.\main.c      **** 							for(x=count_teclas1;x>=1;x--){
 9690              		.loc 1 2058 0
 9691 3192 034B     		ldr	r3, .L687+4
 9692 3194 1B78     		ldrb	r3, [r3]
 9693 3196 87F82F30 		strb	r3, [r7, #47]
 9694 319a 30E0     		b	.L488
 9695              	.L688:
ARM GAS  C:\Users\RECEPC~1\AppData\Local\Temp\cc2OimPl.s 			page 212


 9696              		.align	2
 9697              	.L687:
 9698 319c 00000000 		.word	Buffer_LCD1
 9699 31a0 00000000 		.word	count_teclas1
 9700 31a4 00000000 		.word	rventa2
 9701 31a8 00001440 		.word	1075052544
 9702 31ac 00000000 		.word	flujo_LCD1
 9703 31b0 00000000 		.word	lado2
 9704 31b4 00000000 		.word	seleccion_pos
 9705 31b8 00000000 		.word	id_teclado1
 9706 31bc 00000000 		.word	teclas1
 9707 31c0 00000000 		.word	posx1
 9708 31c4 00000000 		.word	posy1
 9709 31c8 00000000 		.word	sizeletra1
 9710              	.L489:
2059:.\main.c      **** 								rventa1.password_local[x]=Buffer_LCD1[(count_teclas1-x)+1]+48;
 9711              		.loc 1 2059 0 discriminator 3
 9712 31cc 97F82F30 		ldrb	r3, [r7, #47]	@ zero_extendqisi2
 9713 31d0 AF4A     		ldr	r2, .L689
 9714 31d2 1278     		ldrb	r2, [r2]
 9715 31d4 D2B2     		uxtb	r2, r2
 9716 31d6 1146     		mov	r1, r2
 9717 31d8 97F82F20 		ldrb	r2, [r7, #47]	@ zero_extendqisi2
 9718 31dc 8A1A     		subs	r2, r1, r2
 9719 31de 0132     		adds	r2, r2, #1
 9720 31e0 AC49     		ldr	r1, .L689+4
 9721 31e2 8A5C     		ldrb	r2, [r1, r2]
 9722 31e4 D2B2     		uxtb	r2, r2
 9723 31e6 3032     		adds	r2, r2, #48
 9724 31e8 D1B2     		uxtb	r1, r2
 9725 31ea AB4A     		ldr	r2, .L689+8
 9726 31ec 1344     		add	r3, r3, r2
 9727 31ee 0A46     		mov	r2, r1
 9728 31f0 83F87120 		strb	r2, [r3, #113]
2058:.\main.c      **** 								rventa1.password_local[x]=Buffer_LCD1[(count_teclas1-x)+1]+48;
 9729              		.loc 1 2058 0 discriminator 3
 9730 31f4 97F82F30 		ldrb	r3, [r7, #47]	@ zero_extendqisi2
 9731 31f8 013B     		subs	r3, r3, #1
 9732 31fa 87F82F30 		strb	r3, [r7, #47]
 9733              	.L488:
2058:.\main.c      **** 								rventa1.password_local[x]=Buffer_LCD1[(count_teclas1-x)+1]+48;
 9734              		.loc 1 2058 0 is_stmt 0 discriminator 1
 9735 31fe 97F82F30 		ldrb	r3, [r7, #47]	@ zero_extendqisi2
 9736 3202 002B     		cmp	r3, #0
 9737 3204 E2D1     		bne	.L489
2060:.\main.c      **** 							}
2061:.\main.c      ****                             if(clave_local[0]==rventa1.password_local[4] && clave_local[1]==rventa1
 9738              		.loc 1 2061 0 is_stmt 1
 9739 3206 A54B     		ldr	r3, .L689+12
 9740 3208 1A78     		ldrb	r2, [r3]	@ zero_extendqisi2
 9741 320a A34B     		ldr	r3, .L689+8
 9742 320c 93F87530 		ldrb	r3, [r3, #117]	@ zero_extendqisi2
 9743 3210 9A42     		cmp	r2, r3
 9744 3212 23D1     		bne	.L490
 9745              		.loc 1 2061 0 is_stmt 0 discriminator 1
 9746 3214 A14B     		ldr	r3, .L689+12
 9747 3216 5A78     		ldrb	r2, [r3, #1]	@ zero_extendqisi2
ARM GAS  C:\Users\RECEPC~1\AppData\Local\Temp\cc2OimPl.s 			page 213


 9748 3218 9F4B     		ldr	r3, .L689+8
 9749 321a 93F87430 		ldrb	r3, [r3, #116]	@ zero_extendqisi2
 9750 321e 9A42     		cmp	r2, r3
 9751 3220 1CD1     		bne	.L490
 9752              		.loc 1 2061 0 discriminator 2
 9753 3222 9E4B     		ldr	r3, .L689+12
 9754 3224 9A78     		ldrb	r2, [r3, #2]	@ zero_extendqisi2
 9755 3226 9C4B     		ldr	r3, .L689+8
 9756 3228 93F87330 		ldrb	r3, [r3, #115]	@ zero_extendqisi2
 9757 322c 9A42     		cmp	r2, r3
 9758 322e 15D1     		bne	.L490
 9759              		.loc 1 2061 0 discriminator 3
 9760 3230 9A4B     		ldr	r3, .L689+12
 9761 3232 DA78     		ldrb	r2, [r3, #3]	@ zero_extendqisi2
 9762 3234 984B     		ldr	r3, .L689+8
 9763 3236 93F87230 		ldrb	r3, [r3, #114]	@ zero_extendqisi2
 9764 323a 9A42     		cmp	r2, r3
 9765 323c 0ED1     		bne	.L490
2062:.\main.c      ****                         	    set_imagen(1,38); 
 9766              		.loc 1 2062 0 is_stmt 1
 9767 323e 0120     		movs	r0, #1
 9768 3240 2621     		movs	r1, #38
 9769 3242 FFF7FEFF 		bl	set_imagen
2063:.\main.c      ****                                 CyDelay(200);
 9770              		.loc 1 2063 0
 9771 3246 C820     		movs	r0, #200
 9772 3248 FFF7FEFF 		bl	CyDelay
2064:.\main.c      **** 							    set_imagen(1,70);  
 9773              		.loc 1 2064 0
 9774 324c 0120     		movs	r0, #1
 9775 324e 4621     		movs	r1, #70
 9776 3250 FFF7FEFF 		bl	set_imagen
2065:.\main.c      ****                                 flujo_LCD1 = 16;
 9777              		.loc 1 2065 0
 9778 3254 924B     		ldr	r3, .L689+16
 9779 3256 1022     		movs	r2, #16
 9780 3258 1A70     		strb	r2, [r3]
2066:.\main.c      ****                             }else{
2067:.\main.c      ****                         	    flujo_LCD1=0;	
2068:.\main.c      ****                         	    set_imagen(1,39); 
2069:.\main.c      **** 							    lado2.estado=libre;                                 
2070:.\main.c      ****                                 CyDelay(200);
2071:.\main.c      **** 							    set_imagen(1,0);                                 
2072:.\main.c      ****                             }
2073:.\main.c      ****                         break; 
 9781              		.loc 1 2073 0
 9782 325a CBE1     		b	.L436
 9783              	.L490:
2067:.\main.c      ****                         	    set_imagen(1,39); 
 9784              		.loc 1 2067 0
 9785 325c 904B     		ldr	r3, .L689+16
 9786 325e 0022     		movs	r2, #0
 9787 3260 1A70     		strb	r2, [r3]
2068:.\main.c      **** 							    lado2.estado=libre;                                 
 9788              		.loc 1 2068 0
 9789 3262 0120     		movs	r0, #1
 9790 3264 2721     		movs	r1, #39
ARM GAS  C:\Users\RECEPC~1\AppData\Local\Temp\cc2OimPl.s 			page 214


 9791 3266 FFF7FEFF 		bl	set_imagen
2069:.\main.c      ****                                 CyDelay(200);
 9792              		.loc 1 2069 0
 9793 326a 8E4B     		ldr	r3, .L689+20
 9794 326c 0122     		movs	r2, #1
 9795 326e 5A70     		strb	r2, [r3, #1]
2070:.\main.c      **** 							    set_imagen(1,0);                                 
 9796              		.loc 1 2070 0
 9797 3270 C820     		movs	r0, #200
 9798 3272 FFF7FEFF 		bl	CyDelay
2071:.\main.c      ****                             }
 9799              		.loc 1 2071 0
 9800 3276 0120     		movs	r0, #1
 9801 3278 0021     		movs	r1, #0
 9802 327a FFF7FEFF 		bl	set_imagen
 9803              		.loc 1 2073 0
 9804 327e B9E1     		b	.L436
 9805              	.L459:
2074:.\main.c      ****                         case 6:                        
2075:.\main.c      **** 						    EEPROM_WriteByte(Buffer_LCD1[count_teclas1],30);
 9806              		.loc 1 2075 0
 9807 3280 834B     		ldr	r3, .L689
 9808 3282 1B78     		ldrb	r3, [r3]
 9809 3284 DBB2     		uxtb	r3, r3
 9810 3286 1A46     		mov	r2, r3
 9811 3288 824B     		ldr	r3, .L689+4
 9812 328a 9B5C     		ldrb	r3, [r3, r2]
 9813 328c DBB2     		uxtb	r3, r3
 9814 328e 1846     		mov	r0, r3
 9815 3290 1E21     		movs	r1, #30
 9816 3292 FFF7FEFF 		bl	EEPROM_WriteByte
2076:.\main.c      ****                         	flujo_LCD1 = 0;	
 9817              		.loc 1 2076 0
 9818 3296 824B     		ldr	r3, .L689+16
 9819 3298 0022     		movs	r2, #0
 9820 329a 1A70     		strb	r2, [r3]
2077:.\main.c      ****                         	set_imagen(1,60);
 9821              		.loc 1 2077 0
 9822 329c 0120     		movs	r0, #1
 9823 329e 3C21     		movs	r1, #60
 9824 32a0 FFF7FEFF 		bl	set_imagen
2078:.\main.c      ****                             CyDelay(200);
 9825              		.loc 1 2078 0
 9826 32a4 C820     		movs	r0, #200
 9827 32a6 FFF7FEFF 		bl	CyDelay
2079:.\main.c      **** 							lado2.estado=libre;                                                     
 9828              		.loc 1 2079 0
 9829 32aa 7E4B     		ldr	r3, .L689+20
 9830 32ac 0122     		movs	r2, #1
 9831 32ae 5A70     		strb	r2, [r3, #1]
2080:.\main.c      ****                         break;   
 9832              		.loc 1 2080 0
 9833 32b0 A0E1     		b	.L436
 9834              	.L460:
2081:.\main.c      ****                         case 7:
2082:.\main.c      ****                             flujo_LCD1=18;
 9835              		.loc 1 2082 0
ARM GAS  C:\Users\RECEPC~1\AppData\Local\Temp\cc2OimPl.s 			page 215


 9836 32b2 7B4B     		ldr	r3, .L689+16
 9837 32b4 1222     		movs	r2, #18
 9838 32b6 1A70     		strb	r2, [r3]
2083:.\main.c      ****                             set_imagen(1,88);
 9839              		.loc 1 2083 0
 9840 32b8 0120     		movs	r0, #1
 9841 32ba 5821     		movs	r1, #88
 9842 32bc FFF7FEFF 		bl	set_imagen
2084:.\main.c      ****                             switch(Producto){
 9843              		.loc 1 2084 0
 9844 32c0 794B     		ldr	r3, .L689+24
 9845 32c2 1B78     		ldrb	r3, [r3]	@ zero_extendqisi2
 9846 32c4 013B     		subs	r3, r3, #1
 9847 32c6 032B     		cmp	r3, #3
 9848 32c8 00F29880 		bhi	.L492
 9849 32cc 01A2     		adr	r2, .L494
 9850 32ce 52F823F0 		ldr	pc, [r2, r3, lsl #2]
 9851 32d2 00BF     		.p2align 2
 9852              	.L494:
 9853 32d4 E5320000 		.word	.L493+1
 9854 32d8 2B330000 		.word	.L495+1
 9855 32dc 71330000 		.word	.L496+1
 9856 32e0 B7330000 		.word	.L497+1
 9857              		.p2align 1
 9858              	.L493:
2085:.\main.c      ****                                 case 1:// 1=diesel, siempre para Autogas, 
2086:.\main.c      ****                                     Productos[0]=Buffer_LCD1[1]+48;//para la estacion seria el digi
 9859              		.loc 1 2086 0
 9860 32e4 6B4B     		ldr	r3, .L689+4
 9861 32e6 5B78     		ldrb	r3, [r3, #1]
 9862 32e8 DBB2     		uxtb	r3, r3
 9863 32ea 3033     		adds	r3, r3, #48
 9864 32ec DAB2     		uxtb	r2, r3
 9865 32ee 6F4B     		ldr	r3, .L689+28
 9866 32f0 1A70     		strb	r2, [r3]
2087:.\main.c      ****                                     switch(Productos[0]){
 9867              		.loc 1 2087 0
 9868 32f2 6E4B     		ldr	r3, .L689+28
 9869 32f4 1B78     		ldrb	r3, [r3]	@ zero_extendqisi2
 9870 32f6 322B     		cmp	r3, #50
 9871 32f8 08D0     		beq	.L499
 9872 32fa 332B     		cmp	r3, #51
 9873 32fc 0BD0     		beq	.L500
 9874 32fe 312B     		cmp	r3, #49
 9875 3300 0ED1     		bne	.L646
2088:.\main.c      ****                                         case '1':
2089:.\main.c      ****                                         lado2.grado[0][0]=1;                                       
 9876              		.loc 1 2089 0
 9877 3302 684B     		ldr	r3, .L689+20
 9878 3304 0122     		movs	r2, #1
 9879 3306 83F85920 		strb	r2, [r3, #89]
2090:.\main.c      ****                                         break;
 9880              		.loc 1 2090 0
 9881 330a 0DE0     		b	.L502
 9882              	.L499:
2091:.\main.c      ****                                         case '2':
2092:.\main.c      ****                                         lado2.grado[1][0]=1;                                       
ARM GAS  C:\Users\RECEPC~1\AppData\Local\Temp\cc2OimPl.s 			page 216


 9883              		.loc 1 2092 0
 9884 330c 654B     		ldr	r3, .L689+20
 9885 330e 0122     		movs	r2, #1
 9886 3310 83F85A20 		strb	r2, [r3, #90]
2093:.\main.c      ****                                         break;
 9887              		.loc 1 2093 0
 9888 3314 08E0     		b	.L502
 9889              	.L500:
2094:.\main.c      ****                                         case '3':
2095:.\main.c      ****                                         lado2.grado[2][0]=1;                                       
 9890              		.loc 1 2095 0
 9891 3316 634B     		ldr	r3, .L689+20
 9892 3318 0122     		movs	r2, #1
 9893 331a 83F85B20 		strb	r2, [r3, #91]
2096:.\main.c      ****                                         break;                    
 9894              		.loc 1 2096 0
 9895 331e 03E0     		b	.L502
 9896              	.L646:
2097:.\main.c      ****                                         default:
2098:.\main.c      ****                                         producto1 = 0;
 9897              		.loc 1 2098 0
 9898 3320 634B     		ldr	r3, .L689+32
 9899 3322 0022     		movs	r2, #0
 9900 3324 1A70     		strb	r2, [r3]
2099:.\main.c      ****                                         break;
 9901              		.loc 1 2099 0
 9902 3326 00BF     		nop
 9903              	.L502:
2100:.\main.c      ****                                     }                                   
2101:.\main.c      ****                                 break;
 9904              		.loc 1 2101 0
 9905 3328 68E0     		b	.L492
 9906              	.L495:
2102:.\main.c      ****                                 case 2:// 2=corriente, siempre para Autogas,
2103:.\main.c      ****                                     Productos[1]=Buffer_LCD1[1]+48;
 9907              		.loc 1 2103 0
 9908 332a 5A4B     		ldr	r3, .L689+4
 9909 332c 5B78     		ldrb	r3, [r3, #1]
 9910 332e DBB2     		uxtb	r3, r3
 9911 3330 3033     		adds	r3, r3, #48
 9912 3332 DAB2     		uxtb	r2, r3
 9913 3334 5D4B     		ldr	r3, .L689+28
 9914 3336 5A70     		strb	r2, [r3, #1]
2104:.\main.c      ****                                     switch(Productos[1]){
 9915              		.loc 1 2104 0
 9916 3338 5C4B     		ldr	r3, .L689+28
 9917 333a 5B78     		ldrb	r3, [r3, #1]	@ zero_extendqisi2
 9918 333c 322B     		cmp	r3, #50
 9919 333e 08D0     		beq	.L504
 9920 3340 332B     		cmp	r3, #51
 9921 3342 0BD0     		beq	.L505
 9922 3344 312B     		cmp	r3, #49
 9923 3346 0ED1     		bne	.L647
2105:.\main.c      ****                                         case '1':
2106:.\main.c      ****                                         lado2.grado[0][0]=2;                                       
 9924              		.loc 1 2106 0
 9925 3348 564B     		ldr	r3, .L689+20
ARM GAS  C:\Users\RECEPC~1\AppData\Local\Temp\cc2OimPl.s 			page 217


 9926 334a 0222     		movs	r2, #2
 9927 334c 83F85920 		strb	r2, [r3, #89]
2107:.\main.c      ****                                         break;
 9928              		.loc 1 2107 0
 9929 3350 0DE0     		b	.L507
 9930              	.L504:
2108:.\main.c      ****                                         case '2':
2109:.\main.c      ****                                         lado2.grado[1][0]=2;                                       
 9931              		.loc 1 2109 0
 9932 3352 544B     		ldr	r3, .L689+20
 9933 3354 0222     		movs	r2, #2
 9934 3356 83F85A20 		strb	r2, [r3, #90]
2110:.\main.c      ****                                         break;
 9935              		.loc 1 2110 0
 9936 335a 08E0     		b	.L507
 9937              	.L505:
2111:.\main.c      ****                                         case '3':
2112:.\main.c      ****                                         lado2.grado[2][0]=2;                                       
 9938              		.loc 1 2112 0
 9939 335c 514B     		ldr	r3, .L689+20
 9940 335e 0222     		movs	r2, #2
 9941 3360 83F85B20 		strb	r2, [r3, #91]
2113:.\main.c      ****                                         break; 
 9942              		.loc 1 2113 0
 9943 3364 03E0     		b	.L507
 9944              	.L647:
2114:.\main.c      ****                                         default:
2115:.\main.c      ****                                         producto2=0;
 9945              		.loc 1 2115 0
 9946 3366 534B     		ldr	r3, .L689+36
 9947 3368 0022     		movs	r2, #0
 9948 336a 1A70     		strb	r2, [r3]
2116:.\main.c      ****                                         break;                                        
 9949              		.loc 1 2116 0
 9950 336c 00BF     		nop
 9951              	.L507:
2117:.\main.c      ****                                     }                                      
2118:.\main.c      ****                                 break;
 9952              		.loc 1 2118 0
 9953 336e 45E0     		b	.L492
 9954              	.L496:
2119:.\main.c      ****                                 case 3:// 3=extra, siempre para Autogas,
2120:.\main.c      ****                                     Productos[2]=Buffer_LCD1[1]+48;
 9955              		.loc 1 2120 0
 9956 3370 484B     		ldr	r3, .L689+4
 9957 3372 5B78     		ldrb	r3, [r3, #1]
 9958 3374 DBB2     		uxtb	r3, r3
 9959 3376 3033     		adds	r3, r3, #48
 9960 3378 DAB2     		uxtb	r2, r3
 9961 337a 4C4B     		ldr	r3, .L689+28
 9962 337c 9A70     		strb	r2, [r3, #2]
2121:.\main.c      ****                                     switch(Productos[2]){
 9963              		.loc 1 2121 0
 9964 337e 4B4B     		ldr	r3, .L689+28
 9965 3380 9B78     		ldrb	r3, [r3, #2]	@ zero_extendqisi2
 9966 3382 322B     		cmp	r3, #50
 9967 3384 08D0     		beq	.L509
ARM GAS  C:\Users\RECEPC~1\AppData\Local\Temp\cc2OimPl.s 			page 218


 9968 3386 332B     		cmp	r3, #51
 9969 3388 0BD0     		beq	.L510
 9970 338a 312B     		cmp	r3, #49
 9971 338c 0ED1     		bne	.L648
2122:.\main.c      ****                                         case '1':
2123:.\main.c      ****                                         lado2.grado[0][0]=3;                                       
 9972              		.loc 1 2123 0
 9973 338e 454B     		ldr	r3, .L689+20
 9974 3390 0322     		movs	r2, #3
 9975 3392 83F85920 		strb	r2, [r3, #89]
2124:.\main.c      ****                                         break;
 9976              		.loc 1 2124 0
 9977 3396 0DE0     		b	.L512
 9978              	.L509:
2125:.\main.c      ****                                         case '2':
2126:.\main.c      ****                                         lado2.grado[1][0]=3;                                       
 9979              		.loc 1 2126 0
 9980 3398 424B     		ldr	r3, .L689+20
 9981 339a 0322     		movs	r2, #3
 9982 339c 83F85A20 		strb	r2, [r3, #90]
2127:.\main.c      ****                                         break;
 9983              		.loc 1 2127 0
 9984 33a0 08E0     		b	.L512
 9985              	.L510:
2128:.\main.c      ****                                         case '3':
2129:.\main.c      ****                                         lado2.grado[2][0]=3;                                       
 9986              		.loc 1 2129 0
 9987 33a2 404B     		ldr	r3, .L689+20
 9988 33a4 0322     		movs	r2, #3
 9989 33a6 83F85B20 		strb	r2, [r3, #91]
2130:.\main.c      ****                                         break; 
 9990              		.loc 1 2130 0
 9991 33aa 03E0     		b	.L512
 9992              	.L648:
2131:.\main.c      ****                                         default:
2132:.\main.c      ****                                         producto3=0;
 9993              		.loc 1 2132 0
 9994 33ac 424B     		ldr	r3, .L689+40
 9995 33ae 0022     		movs	r2, #0
 9996 33b0 1A70     		strb	r2, [r3]
2133:.\main.c      ****                                         break;                                        
 9997              		.loc 1 2133 0
 9998 33b2 00BF     		nop
 9999              	.L512:
2134:.\main.c      ****                                     }                                      
2135:.\main.c      ****                                 break;
 10000              		.loc 1 2135 0
 10001 33b4 22E0     		b	.L492
 10002              	.L497:
2136:.\main.c      ****                                 case 4:// 4=supreme diesel, siempre para Autogas,
2137:.\main.c      ****                                     Productos[3]=Buffer_LCD1[1]+48;
 10003              		.loc 1 2137 0
 10004 33b6 374B     		ldr	r3, .L689+4
 10005 33b8 5B78     		ldrb	r3, [r3, #1]
 10006 33ba DBB2     		uxtb	r3, r3
 10007 33bc 3033     		adds	r3, r3, #48
 10008 33be DAB2     		uxtb	r2, r3
ARM GAS  C:\Users\RECEPC~1\AppData\Local\Temp\cc2OimPl.s 			page 219


 10009 33c0 3A4B     		ldr	r3, .L689+28
 10010 33c2 DA70     		strb	r2, [r3, #3]
2138:.\main.c      ****                                     switch(Productos[3]){
 10011              		.loc 1 2138 0
 10012 33c4 394B     		ldr	r3, .L689+28
 10013 33c6 DB78     		ldrb	r3, [r3, #3]	@ zero_extendqisi2
 10014 33c8 322B     		cmp	r3, #50
 10015 33ca 08D0     		beq	.L514
 10016 33cc 332B     		cmp	r3, #51
 10017 33ce 0BD0     		beq	.L515
 10018 33d0 312B     		cmp	r3, #49
 10019 33d2 0ED1     		bne	.L649
2139:.\main.c      ****                                         case '1':
2140:.\main.c      ****                                         lado2.grado[0][0]=4;                                       
 10020              		.loc 1 2140 0
 10021 33d4 334B     		ldr	r3, .L689+20
 10022 33d6 0422     		movs	r2, #4
 10023 33d8 83F85920 		strb	r2, [r3, #89]
2141:.\main.c      ****                                         break;
 10024              		.loc 1 2141 0
 10025 33dc 0DE0     		b	.L517
 10026              	.L514:
2142:.\main.c      ****                                         case '2':
2143:.\main.c      ****                                         lado2.grado[1][0]=4;                                       
 10027              		.loc 1 2143 0
 10028 33de 314B     		ldr	r3, .L689+20
 10029 33e0 0422     		movs	r2, #4
 10030 33e2 83F85A20 		strb	r2, [r3, #90]
2144:.\main.c      ****                                         break;
 10031              		.loc 1 2144 0
 10032 33e6 08E0     		b	.L517
 10033              	.L515:
2145:.\main.c      ****                                         case '3':
2146:.\main.c      ****                                         lado2.grado[2][0]=4;                                       
 10034              		.loc 1 2146 0
 10035 33e8 2E4B     		ldr	r3, .L689+20
 10036 33ea 0422     		movs	r2, #4
 10037 33ec 83F85B20 		strb	r2, [r3, #91]
2147:.\main.c      ****                                         break;
 10038              		.loc 1 2147 0
 10039 33f0 03E0     		b	.L517
 10040              	.L649:
2148:.\main.c      ****                                         default:
2149:.\main.c      ****                                         producto4=0;
 10041              		.loc 1 2149 0
 10042 33f2 324B     		ldr	r3, .L689+44
 10043 33f4 0022     		movs	r2, #0
 10044 33f6 1A70     		strb	r2, [r3]
2150:.\main.c      ****                                         break;                                      
 10045              		.loc 1 2150 0
 10046 33f8 00BF     		nop
 10047              	.L517:
2151:.\main.c      ****                                     }                                      
2152:.\main.c      ****                                 break;                                    
 10048              		.loc 1 2152 0
 10049 33fa 00BF     		nop
 10050              	.L492:
ARM GAS  C:\Users\RECEPC~1\AppData\Local\Temp\cc2OimPl.s 			page 220


2153:.\main.c      ****                             }
2154:.\main.c      ****                             write_LCD(1,Productos[0], 7, 44, 1);
 10051              		.loc 1 2154 0
 10052 33fc 2B4B     		ldr	r3, .L689+28
 10053 33fe 1A78     		ldrb	r2, [r3]	@ zero_extendqisi2
 10054 3400 0123     		movs	r3, #1
 10055 3402 0093     		str	r3, [sp]
 10056 3404 0120     		movs	r0, #1
 10057 3406 1146     		mov	r1, r2
 10058 3408 0722     		movs	r2, #7
 10059 340a 2C23     		movs	r3, #44
 10060 340c FFF7FEFF 		bl	write_LCD
2155:.\main.c      ****                             write_LCD(1,Productos[1], 14, 44, 1); 
 10061              		.loc 1 2155 0
 10062 3410 264B     		ldr	r3, .L689+28
 10063 3412 5A78     		ldrb	r2, [r3, #1]	@ zero_extendqisi2
 10064 3414 0123     		movs	r3, #1
 10065 3416 0093     		str	r3, [sp]
 10066 3418 0120     		movs	r0, #1
 10067 341a 1146     		mov	r1, r2
 10068 341c 0E22     		movs	r2, #14
 10069 341e 2C23     		movs	r3, #44
 10070 3420 FFF7FEFF 		bl	write_LCD
2156:.\main.c      ****                             write_LCD(1,Productos[2], 19, 44, 1);
 10071              		.loc 1 2156 0
 10072 3424 214B     		ldr	r3, .L689+28
 10073 3426 9A78     		ldrb	r2, [r3, #2]	@ zero_extendqisi2
 10074 3428 0123     		movs	r3, #1
 10075 342a 0093     		str	r3, [sp]
 10076 342c 0120     		movs	r0, #1
 10077 342e 1146     		mov	r1, r2
 10078 3430 1322     		movs	r2, #19
 10079 3432 2C23     		movs	r3, #44
 10080 3434 FFF7FEFF 		bl	write_LCD
2157:.\main.c      ****                             write_LCD(1,Productos[3], 25, 44, 1); 
 10081              		.loc 1 2157 0
 10082 3438 1C4B     		ldr	r3, .L689+28
 10083 343a DA78     		ldrb	r2, [r3, #3]	@ zero_extendqisi2
 10084 343c 0123     		movs	r3, #1
 10085 343e 0093     		str	r3, [sp]
 10086 3440 0120     		movs	r0, #1
 10087 3442 1146     		mov	r1, r2
 10088 3444 1922     		movs	r2, #25
 10089 3446 2C23     		movs	r3, #44
 10090 3448 FFF7FEFF 		bl	write_LCD
2158:.\main.c      **** 							lado1.estado=libre;                                 
 10091              		.loc 1 2158 0
 10092 344c 1C4B     		ldr	r3, .L689+48
 10093 344e 0122     		movs	r2, #1
 10094 3450 5A70     		strb	r2, [r3, #1]
2159:.\main.c      ****                             CyDelay(200);                             
 10095              		.loc 1 2159 0
 10096 3452 C820     		movs	r0, #200
 10097 3454 FFF7FEFF 		bl	CyDelay
2160:.\main.c      ****                         break;          
 10098              		.loc 1 2160 0
 10099 3458 CCE0     		b	.L436
ARM GAS  C:\Users\RECEPC~1\AppData\Local\Temp\cc2OimPl.s 			page 221


 10100              	.L461:
2161:.\main.c      ****                         case 8:
2162:.\main.c      ****                             for(x=1;x<=4;x++){
 10101              		.loc 1 2162 0
 10102 345a 0123     		movs	r3, #1
 10103 345c 87F82F30 		strb	r3, [r7, #47]
 10104 3460 09E0     		b	.L518
 10105              	.L519:
2163:.\main.c      ****                               id_estacion[x]=0;
 10106              		.loc 1 2163 0 discriminator 3
 10107 3462 97F82F30 		ldrb	r3, [r7, #47]	@ zero_extendqisi2
 10108 3466 174A     		ldr	r2, .L689+52
 10109 3468 0021     		movs	r1, #0
 10110 346a D154     		strb	r1, [r2, r3]
2162:.\main.c      ****                               id_estacion[x]=0;
 10111              		.loc 1 2162 0 discriminator 3
 10112 346c 97F82F30 		ldrb	r3, [r7, #47]	@ zero_extendqisi2
 10113 3470 0133     		adds	r3, r3, #1
 10114 3472 87F82F30 		strb	r3, [r7, #47]
 10115              	.L518:
2162:.\main.c      ****                               id_estacion[x]=0;
 10116              		.loc 1 2162 0 is_stmt 0 discriminator 1
 10117 3476 97F82F30 		ldrb	r3, [r7, #47]	@ zero_extendqisi2
 10118 347a 042B     		cmp	r3, #4
 10119 347c F1D9     		bls	.L519
2164:.\main.c      ****                             }
2165:.\main.c      ****                             id_estacion[0]=4;
 10120              		.loc 1 2165 0 is_stmt 1
 10121 347e 114B     		ldr	r3, .L689+52
 10122 3480 0422     		movs	r2, #4
 10123 3482 1A70     		strb	r2, [r3]
2166:.\main.c      **** 							for(x=count_teclas1;x>=1;x--){
 10124              		.loc 1 2166 0
 10125 3484 024B     		ldr	r3, .L689
 10126 3486 1B78     		ldrb	r3, [r3]
 10127 3488 87F82F30 		strb	r3, [r7, #47]
 10128 348c 32E0     		b	.L520
 10129              	.L690:
 10130 348e 00BF     		.align	2
 10131              	.L689:
 10132 3490 00000000 		.word	count_teclas1
 10133 3494 00000000 		.word	Buffer_LCD1
 10134 3498 00000000 		.word	rventa1
 10135 349c 00000000 		.word	clave_local
 10136 34a0 00000000 		.word	flujo_LCD1
 10137 34a4 00000000 		.word	lado2
 10138 34a8 00000000 		.word	Producto
 10139 34ac 00000000 		.word	Productos
 10140 34b0 00000000 		.word	producto1
 10141 34b4 00000000 		.word	producto2
 10142 34b8 00000000 		.word	producto3
 10143 34bc 00000000 		.word	producto4
 10144 34c0 00000000 		.word	lado1
 10145 34c4 00000000 		.word	id_estacion
 10146              	.L521:
2167:.\main.c      **** 								id_estacion[x]=Buffer_LCD1[(count_teclas1-x)+1]+0X30;
 10147              		.loc 1 2167 0 discriminator 3
ARM GAS  C:\Users\RECEPC~1\AppData\Local\Temp\cc2OimPl.s 			page 222


 10148 34c8 97F82F30 		ldrb	r3, [r7, #47]	@ zero_extendqisi2
 10149 34cc 884A     		ldr	r2, .L691
 10150 34ce 1278     		ldrb	r2, [r2]
 10151 34d0 D2B2     		uxtb	r2, r2
 10152 34d2 1146     		mov	r1, r2
 10153 34d4 97F82F20 		ldrb	r2, [r7, #47]	@ zero_extendqisi2
 10154 34d8 8A1A     		subs	r2, r1, r2
 10155 34da 0132     		adds	r2, r2, #1
 10156 34dc 8549     		ldr	r1, .L691+4
 10157 34de 8A5C     		ldrb	r2, [r1, r2]
 10158 34e0 D2B2     		uxtb	r2, r2
 10159 34e2 3032     		adds	r2, r2, #48
 10160 34e4 D1B2     		uxtb	r1, r2
 10161 34e6 844A     		ldr	r2, .L691+8
 10162 34e8 D154     		strb	r1, [r2, r3]
2166:.\main.c      **** 							for(x=count_teclas1;x>=1;x--){
 10163              		.loc 1 2166 0 discriminator 3
 10164 34ea 97F82F30 		ldrb	r3, [r7, #47]	@ zero_extendqisi2
 10165 34ee 013B     		subs	r3, r3, #1
 10166 34f0 87F82F30 		strb	r3, [r7, #47]
 10167              	.L520:
2166:.\main.c      **** 							for(x=count_teclas1;x>=1;x--){
 10168              		.loc 1 2166 0 is_stmt 0 discriminator 1
 10169 34f4 97F82F30 		ldrb	r3, [r7, #47]	@ zero_extendqisi2
 10170 34f8 002B     		cmp	r3, #0
 10171 34fa E5D1     		bne	.L521
2168:.\main.c      **** 							}                            
2169:.\main.c      ****                             if(id_estacion[1]>=0x30 && id_estacion[2]<0x30 && id_estacion[3]<0x30 &
 10172              		.loc 1 2169 0 is_stmt 1
 10173 34fc 7E4B     		ldr	r3, .L691+8
 10174 34fe 5B78     		ldrb	r3, [r3, #1]
 10175 3500 DBB2     		uxtb	r3, r3
 10176 3502 2F2B     		cmp	r3, #47
 10177 3504 17D9     		bls	.L522
 10178              		.loc 1 2169 0 is_stmt 0 discriminator 1
 10179 3506 7C4B     		ldr	r3, .L691+8
 10180 3508 9B78     		ldrb	r3, [r3, #2]
 10181 350a DBB2     		uxtb	r3, r3
 10182 350c 2F2B     		cmp	r3, #47
 10183 350e 12D8     		bhi	.L522
 10184              		.loc 1 2169 0 discriminator 2
 10185 3510 794B     		ldr	r3, .L691+8
 10186 3512 DB78     		ldrb	r3, [r3, #3]
 10187 3514 DBB2     		uxtb	r3, r3
 10188 3516 2F2B     		cmp	r3, #47
 10189 3518 0DD8     		bhi	.L522
 10190              		.loc 1 2169 0 discriminator 3
 10191 351a 774B     		ldr	r3, .L691+8
 10192 351c 1B79     		ldrb	r3, [r3, #4]
 10193 351e DBB2     		uxtb	r3, r3
 10194 3520 2F2B     		cmp	r3, #47
 10195 3522 08D8     		bhi	.L522
2170:.\main.c      ****                                 id_estacion[2]='0';
 10196              		.loc 1 2170 0 is_stmt 1
 10197 3524 744B     		ldr	r3, .L691+8
 10198 3526 3022     		movs	r2, #48
 10199 3528 9A70     		strb	r2, [r3, #2]
ARM GAS  C:\Users\RECEPC~1\AppData\Local\Temp\cc2OimPl.s 			page 223


2171:.\main.c      ****                                 id_estacion[3]='0';
 10200              		.loc 1 2171 0
 10201 352a 734B     		ldr	r3, .L691+8
 10202 352c 3022     		movs	r2, #48
 10203 352e DA70     		strb	r2, [r3, #3]
2172:.\main.c      ****                                 id_estacion[4]='0';                                
 10204              		.loc 1 2172 0
 10205 3530 714B     		ldr	r3, .L691+8
 10206 3532 3022     		movs	r2, #48
 10207 3534 1A71     		strb	r2, [r3, #4]
 10208              	.L522:
2173:.\main.c      ****                             }
2174:.\main.c      ****                             if(id_estacion[1]>=0x30 && id_estacion[2]>=0x30 && id_estacion[3]<0x30 
 10209              		.loc 1 2174 0
 10210 3536 704B     		ldr	r3, .L691+8
 10211 3538 5B78     		ldrb	r3, [r3, #1]
 10212 353a DBB2     		uxtb	r3, r3
 10213 353c 2F2B     		cmp	r3, #47
 10214 353e 14D9     		bls	.L523
 10215              		.loc 1 2174 0 is_stmt 0 discriminator 1
 10216 3540 6D4B     		ldr	r3, .L691+8
 10217 3542 9B78     		ldrb	r3, [r3, #2]
 10218 3544 DBB2     		uxtb	r3, r3
 10219 3546 2F2B     		cmp	r3, #47
 10220 3548 0FD9     		bls	.L523
 10221              		.loc 1 2174 0 discriminator 2
 10222 354a 6B4B     		ldr	r3, .L691+8
 10223 354c DB78     		ldrb	r3, [r3, #3]
 10224 354e DBB2     		uxtb	r3, r3
 10225 3550 2F2B     		cmp	r3, #47
 10226 3552 0AD8     		bhi	.L523
 10227              		.loc 1 2174 0 discriminator 3
 10228 3554 684B     		ldr	r3, .L691+8
 10229 3556 1B79     		ldrb	r3, [r3, #4]
 10230 3558 DBB2     		uxtb	r3, r3
 10231 355a 2F2B     		cmp	r3, #47
 10232 355c 05D8     		bhi	.L523
2175:.\main.c      ****                                 id_estacion[3]='0';
 10233              		.loc 1 2175 0 is_stmt 1
 10234 355e 664B     		ldr	r3, .L691+8
 10235 3560 3022     		movs	r2, #48
 10236 3562 DA70     		strb	r2, [r3, #3]
2176:.\main.c      ****                                 id_estacion[4]='0';                             
 10237              		.loc 1 2176 0
 10238 3564 644B     		ldr	r3, .L691+8
 10239 3566 3022     		movs	r2, #48
 10240 3568 1A71     		strb	r2, [r3, #4]
 10241              	.L523:
2177:.\main.c      ****                             }  
2178:.\main.c      ****                             if(id_estacion[1]>=0x30 && id_estacion[2]>=0x30 && id_estacion[3]>=0x30
 10242              		.loc 1 2178 0
 10243 356a 634B     		ldr	r3, .L691+8
 10244 356c 5B78     		ldrb	r3, [r3, #1]
 10245 356e DBB2     		uxtb	r3, r3
 10246 3570 2F2B     		cmp	r3, #47
 10247 3572 11D9     		bls	.L524
 10248              		.loc 1 2178 0 is_stmt 0 discriminator 1
ARM GAS  C:\Users\RECEPC~1\AppData\Local\Temp\cc2OimPl.s 			page 224


 10249 3574 604B     		ldr	r3, .L691+8
 10250 3576 9B78     		ldrb	r3, [r3, #2]
 10251 3578 DBB2     		uxtb	r3, r3
 10252 357a 2F2B     		cmp	r3, #47
 10253 357c 0CD9     		bls	.L524
 10254              		.loc 1 2178 0 discriminator 2
 10255 357e 5E4B     		ldr	r3, .L691+8
 10256 3580 DB78     		ldrb	r3, [r3, #3]
 10257 3582 DBB2     		uxtb	r3, r3
 10258 3584 2F2B     		cmp	r3, #47
 10259 3586 07D9     		bls	.L524
 10260              		.loc 1 2178 0 discriminator 3
 10261 3588 5B4B     		ldr	r3, .L691+8
 10262 358a 1B79     		ldrb	r3, [r3, #4]
 10263 358c DBB2     		uxtb	r3, r3
 10264 358e 2F2B     		cmp	r3, #47
 10265 3590 02D8     		bhi	.L524
2179:.\main.c      ****                                 id_estacion[4]='0';                              
 10266              		.loc 1 2179 0 is_stmt 1
 10267 3592 594B     		ldr	r3, .L691+8
 10268 3594 3022     		movs	r2, #48
 10269 3596 1A71     		strb	r2, [r3, #4]
 10270              	.L524:
2180:.\main.c      ****                             }
2181:.\main.c      ****                     		for(x=8;x<=12;x++){	
 10271              		.loc 1 2181 0
 10272 3598 0823     		movs	r3, #8
 10273 359a 87F82F30 		strb	r3, [r7, #47]
 10274 359e 11E0     		b	.L525
 10275              	.L526:
2182:.\main.c      ****                     			EEPROM_WriteByte(id_estacion[x-8], x);
 10276              		.loc 1 2182 0 discriminator 3
 10277 35a0 97F82F30 		ldrb	r3, [r7, #47]	@ zero_extendqisi2
 10278 35a4 083B     		subs	r3, r3, #8
 10279 35a6 544A     		ldr	r2, .L691+8
 10280 35a8 D35C     		ldrb	r3, [r2, r3]
 10281 35aa DAB2     		uxtb	r2, r3
 10282 35ac 97F82F30 		ldrb	r3, [r7, #47]	@ zero_extendqisi2
 10283 35b0 9BB2     		uxth	r3, r3
 10284 35b2 1046     		mov	r0, r2
 10285 35b4 1946     		mov	r1, r3
 10286 35b6 FFF7FEFF 		bl	EEPROM_WriteByte
2181:.\main.c      ****                     			EEPROM_WriteByte(id_estacion[x-8], x);
 10287              		.loc 1 2181 0 discriminator 3
 10288 35ba 97F82F30 		ldrb	r3, [r7, #47]	@ zero_extendqisi2
 10289 35be 0133     		adds	r3, r3, #1
 10290 35c0 87F82F30 		strb	r3, [r7, #47]
 10291              	.L525:
2181:.\main.c      ****                     			EEPROM_WriteByte(id_estacion[x-8], x);
 10292              		.loc 1 2181 0 is_stmt 0 discriminator 1
 10293 35c4 97F82F30 		ldrb	r3, [r7, #47]	@ zero_extendqisi2
 10294 35c8 0C2B     		cmp	r3, #12
 10295 35ca E9D9     		bls	.L526
2183:.\main.c      ****                     		}   
2184:.\main.c      ****                         	flujo_LCD1 = 12;	//viejo: 0
 10296              		.loc 1 2184 0 is_stmt 1
 10297 35cc 4B4B     		ldr	r3, .L691+12
ARM GAS  C:\Users\RECEPC~1\AppData\Local\Temp\cc2OimPl.s 			page 225


 10298 35ce 0C22     		movs	r2, #12
 10299 35d0 1A70     		strb	r2, [r3]
2185:.\main.c      ****                             id_teclado1 = 2;
 10300              		.loc 1 2185 0
 10301 35d2 4B4B     		ldr	r3, .L691+16
 10302 35d4 0222     		movs	r2, #2
 10303 35d6 1A70     		strb	r2, [r3]
2186:.\main.c      ****                         	set_imagen(1,14); //viejo: 60
 10304              		.loc 1 2186 0
 10305 35d8 0120     		movs	r0, #1
 10306 35da 0E21     		movs	r1, #14
 10307 35dc FFF7FEFF 		bl	set_imagen
2187:.\main.c      ****                             CyDelay(200);
 10308              		.loc 1 2187 0
 10309 35e0 C820     		movs	r0, #200
 10310 35e2 FFF7FEFF 		bl	CyDelay
2188:.\main.c      ****                             count_teclas1 = 0;
 10311              		.loc 1 2188 0
 10312 35e6 424B     		ldr	r3, .L691
 10313 35e8 0022     		movs	r2, #0
 10314 35ea 1A70     		strb	r2, [r3]
2189:.\main.c      **** 							lado2.estado=libre;                                     
 10315              		.loc 1 2189 0
 10316 35ec 454B     		ldr	r3, .L691+20
 10317 35ee 0122     		movs	r2, #1
 10318 35f0 5A70     		strb	r2, [r3, #1]
2190:.\main.c      ****                         break;
 10319              		.loc 1 2190 0
 10320 35f2 00BF     		nop
 10321              	.L436:
2191:.\main.c      **** 					}					
2192:.\main.c      ****                 }
2193:.\main.c      ****             }                      
2194:.\main.c      ****             LCD_1_ClearRxBuffer();
 10322              		.loc 1 2194 0
 10323 35f4 FFF7FEFF 		bl	LCD_1_ClearRxBuffer
2195:.\main.c      ****          }
2196:.\main.c      ****         }
2197:.\main.c      ****         
2198:.\main.c      **** break; 
 10324              		.loc 1 2198 0
 10325 35f8 01F0F8B9 		b	.L115
 10326              	.L435:
 10327              		.loc 1 2198 0 is_stmt 0 discriminator 14
 10328 35fc 01F0F6B9 		b	.L115
 10329              	.L129:
2199:.\main.c      ****             
2200:.\main.c      ****                 case 13:  
2201:.\main.c      ****         if(seleccion_pos == 1){
 10330              		.loc 1 2201 0 is_stmt 1
 10331 3600 414B     		ldr	r3, .L691+24
 10332 3602 1B78     		ldrb	r3, [r3]
 10333 3604 DBB2     		uxtb	r3, r3
 10334 3606 012B     		cmp	r3, #1
 10335 3608 40F0D182 		bne	.L527
2202:.\main.c      **** 			rf_mod[0]='M';
 10336              		.loc 1 2202 0
ARM GAS  C:\Users\RECEPC~1\AppData\Local\Temp\cc2OimPl.s 			page 226


 10337 360c 3F4B     		ldr	r3, .L691+28
 10338 360e 4D22     		movs	r2, #77
 10339 3610 1A70     		strb	r2, [r3]
2203:.\main.c      **** 			rf_mod[1]='U';
 10340              		.loc 1 2203 0
 10341 3612 3E4B     		ldr	r3, .L691+28
 10342 3614 5522     		movs	r2, #85
 10343 3616 5A70     		strb	r2, [r3, #1]
2204:.\main.c      **** 			rf_mod[2]='X';
 10344              		.loc 1 2204 0
 10345 3618 3C4B     		ldr	r3, .L691+28
 10346 361a 5822     		movs	r2, #88
 10347 361c 9A70     		strb	r2, [r3, #2]
2205:.\main.c      **** 			rf_mod[3]='1';
 10348              		.loc 1 2205 0
 10349 361e 3B4B     		ldr	r3, .L691+28
 10350 3620 3122     		movs	r2, #49
 10351 3622 DA70     		strb	r2, [r3, #3]
2206:.\main.c      **** 			rf_mod[4]=1 + 48;								//Cara
 10352              		.loc 1 2206 0
 10353 3624 394B     		ldr	r3, .L691+28
 10354 3626 3122     		movs	r2, #49
 10355 3628 1A71     		strb	r2, [r3, #4]
2207:.\main.c      **** 			rf_mod[5]=(lado1.grado[rventa1.producto-1][0] + 48);	//Id Producto	
 10356              		.loc 1 2207 0
 10357 362a 394B     		ldr	r3, .L691+32
 10358 362c 5B7E     		ldrb	r3, [r3, #25]	@ zero_extendqisi2
 10359 362e 013B     		subs	r3, r3, #1
 10360 3630 384A     		ldr	r2, .L691+36
 10361 3632 1344     		add	r3, r3, r2
 10362 3634 93F85930 		ldrb	r3, [r3, #89]
 10363 3638 DBB2     		uxtb	r3, r3
 10364 363a 3033     		adds	r3, r3, #48
 10365 363c DAB2     		uxtb	r2, r3
 10366 363e 334B     		ldr	r3, .L691+28
 10367 3640 5A71     		strb	r2, [r3, #5]
2208:.\main.c      **** 			rf_mod[6]=rventa1.volumen[5] + 48;						//Volumen
 10368              		.loc 1 2208 0
 10369 3642 334B     		ldr	r3, .L691+32
 10370 3644 5B7D     		ldrb	r3, [r3, #21]	@ zero_extendqisi2
 10371 3646 3033     		adds	r3, r3, #48
 10372 3648 DAB2     		uxtb	r2, r3
 10373 364a 304B     		ldr	r3, .L691+28
 10374 364c 9A71     		strb	r2, [r3, #6]
2209:.\main.c      **** 			rf_mod[7]=rventa1.volumen[4] + 48;
 10375              		.loc 1 2209 0
 10376 364e 304B     		ldr	r3, .L691+32
 10377 3650 1B7D     		ldrb	r3, [r3, #20]	@ zero_extendqisi2
 10378 3652 3033     		adds	r3, r3, #48
 10379 3654 DAB2     		uxtb	r2, r3
 10380 3656 2D4B     		ldr	r3, .L691+28
 10381 3658 DA71     		strb	r2, [r3, #7]
2210:.\main.c      **** 			rf_mod[8]=rventa1.volumen[3] + 48;
 10382              		.loc 1 2210 0
 10383 365a 2D4B     		ldr	r3, .L691+32
 10384 365c DB7C     		ldrb	r3, [r3, #19]	@ zero_extendqisi2
 10385 365e 3033     		adds	r3, r3, #48
ARM GAS  C:\Users\RECEPC~1\AppData\Local\Temp\cc2OimPl.s 			page 227


 10386 3660 DAB2     		uxtb	r2, r3
 10387 3662 2A4B     		ldr	r3, .L691+28
 10388 3664 1A72     		strb	r2, [r3, #8]
2211:.\main.c      **** 			rf_mod[9]=',';
 10389              		.loc 1 2211 0
 10390 3666 294B     		ldr	r3, .L691+28
 10391 3668 2C22     		movs	r2, #44
 10392 366a 5A72     		strb	r2, [r3, #9]
2212:.\main.c      **** 			rf_mod[10]=rventa1.volumen[2] + 48;
 10393              		.loc 1 2212 0
 10394 366c 284B     		ldr	r3, .L691+32
 10395 366e 9B7C     		ldrb	r3, [r3, #18]	@ zero_extendqisi2
 10396 3670 3033     		adds	r3, r3, #48
 10397 3672 DAB2     		uxtb	r2, r3
 10398 3674 254B     		ldr	r3, .L691+28
 10399 3676 9A72     		strb	r2, [r3, #10]
2213:.\main.c      **** 			rf_mod[11]=rventa1.volumen[1] + 48;
 10400              		.loc 1 2213 0
 10401 3678 254B     		ldr	r3, .L691+32
 10402 367a 5B7C     		ldrb	r3, [r3, #17]	@ zero_extendqisi2
 10403 367c 3033     		adds	r3, r3, #48
 10404 367e DAB2     		uxtb	r2, r3
 10405 3680 224B     		ldr	r3, .L691+28
 10406 3682 DA72     		strb	r2, [r3, #11]
2214:.\main.c      **** 			rf_mod[12]=rventa1.volumen[0] + 48;
 10407              		.loc 1 2214 0
 10408 3684 224B     		ldr	r3, .L691+32
 10409 3686 1B7C     		ldrb	r3, [r3, #16]	@ zero_extendqisi2
 10410 3688 3033     		adds	r3, r3, #48
 10411 368a DAB2     		uxtb	r2, r3
 10412 368c 1F4B     		ldr	r3, .L691+28
 10413 368e 1A73     		strb	r2, [r3, #12]
2215:.\main.c      **** 			if(version[1]==7){
 10414              		.loc 1 2215 0
 10415 3690 214B     		ldr	r3, .L691+40
 10416 3692 5B78     		ldrb	r3, [r3, #1]
 10417 3694 DBB2     		uxtb	r3, r3
 10418 3696 072B     		cmp	r3, #7
 10419 3698 40D1     		bne	.L528
2216:.\main.c      **** 				rf_mod[13]=rventa1.dinero[7] + 48;	//Dinero 7 digitos
 10420              		.loc 1 2216 0
 10421 369a 1D4B     		ldr	r3, .L691+32
 10422 369c 9B7B     		ldrb	r3, [r3, #14]	@ zero_extendqisi2
 10423 369e 3033     		adds	r3, r3, #48
 10424 36a0 DAB2     		uxtb	r2, r3
 10425 36a2 1A4B     		ldr	r3, .L691+28
 10426 36a4 5A73     		strb	r2, [r3, #13]
2217:.\main.c      **** 				rf_mod[14]=rventa1.dinero[6] + 48;
 10427              		.loc 1 2217 0
 10428 36a6 1A4B     		ldr	r3, .L691+32
 10429 36a8 5B7B     		ldrb	r3, [r3, #13]	@ zero_extendqisi2
 10430 36aa 3033     		adds	r3, r3, #48
 10431 36ac DAB2     		uxtb	r2, r3
 10432 36ae 174B     		ldr	r3, .L691+28
 10433 36b0 9A73     		strb	r2, [r3, #14]
2218:.\main.c      **** 				rf_mod[15]=rventa1.dinero[5] + 48;
 10434              		.loc 1 2218 0
ARM GAS  C:\Users\RECEPC~1\AppData\Local\Temp\cc2OimPl.s 			page 228


 10435 36b2 174B     		ldr	r3, .L691+32
 10436 36b4 1B7B     		ldrb	r3, [r3, #12]	@ zero_extendqisi2
 10437 36b6 3033     		adds	r3, r3, #48
 10438 36b8 DAB2     		uxtb	r2, r3
 10439 36ba 144B     		ldr	r3, .L691+28
 10440 36bc DA73     		strb	r2, [r3, #15]
2219:.\main.c      **** 				rf_mod[16]=rventa1.dinero[4] + 48;
 10441              		.loc 1 2219 0
 10442 36be 144B     		ldr	r3, .L691+32
 10443 36c0 DB7A     		ldrb	r3, [r3, #11]	@ zero_extendqisi2
 10444 36c2 3033     		adds	r3, r3, #48
 10445 36c4 DAB2     		uxtb	r2, r3
 10446 36c6 114B     		ldr	r3, .L691+28
 10447 36c8 1A74     		strb	r2, [r3, #16]
2220:.\main.c      **** 				rf_mod[17]=rventa1.dinero[3] + 48;
 10448              		.loc 1 2220 0
 10449 36ca 114B     		ldr	r3, .L691+32
 10450 36cc 9B7A     		ldrb	r3, [r3, #10]	@ zero_extendqisi2
 10451 36ce 3033     		adds	r3, r3, #48
 10452 36d0 DAB2     		uxtb	r2, r3
 10453 36d2 0E4B     		ldr	r3, .L691+28
 10454 36d4 5A74     		strb	r2, [r3, #17]
2221:.\main.c      **** 				rf_mod[18]=rventa1.dinero[2] + 48;
 10455              		.loc 1 2221 0
 10456 36d6 0E4B     		ldr	r3, .L691+32
 10457 36d8 5B7A     		ldrb	r3, [r3, #9]	@ zero_extendqisi2
 10458 36da 3033     		adds	r3, r3, #48
 10459 36dc DAB2     		uxtb	r2, r3
 10460 36de 0B4B     		ldr	r3, .L691+28
 10461 36e0 9A74     		strb	r2, [r3, #18]
2222:.\main.c      **** 				rf_mod[19]=rventa1.dinero[1] + 48;					
 10462              		.loc 1 2222 0
 10463 36e2 0B4B     		ldr	r3, .L691+32
 10464 36e4 1B7A     		ldrb	r3, [r3, #8]	@ zero_extendqisi2
 10465 36e6 3033     		adds	r3, r3, #48
 10466 36e8 DAB2     		uxtb	r2, r3
 10467 36ea 084B     		ldr	r3, .L691+28
 10468 36ec DA74     		strb	r2, [r3, #19]
 10469 36ee 3FE0     		b	.L529
 10470              	.L692:
 10471              		.align	2
 10472              	.L691:
 10473 36f0 00000000 		.word	count_teclas1
 10474 36f4 00000000 		.word	Buffer_LCD1
 10475 36f8 00000000 		.word	id_estacion
 10476 36fc 00000000 		.word	flujo_LCD1
 10477 3700 00000000 		.word	id_teclado1
 10478 3704 00000000 		.word	lado2
 10479 3708 00000000 		.word	seleccion_pos
 10480 370c 00000000 		.word	rf_mod
 10481 3710 00000000 		.word	rventa1
 10482 3714 00000000 		.word	lado1
 10483 3718 00000000 		.word	version
 10484              	.L528:
2223:.\main.c      **** 			}
2224:.\main.c      **** 			else{
2225:.\main.c      **** 				rf_mod[13]=rventa1.dinero[6] + 48;	//Dinero 6 digitos 
ARM GAS  C:\Users\RECEPC~1\AppData\Local\Temp\cc2OimPl.s 			page 229


 10485              		.loc 1 2225 0
 10486 371c 664B     		ldr	r3, .L693
 10487 371e 5B7B     		ldrb	r3, [r3, #13]	@ zero_extendqisi2
 10488 3720 3033     		adds	r3, r3, #48
 10489 3722 DAB2     		uxtb	r2, r3
 10490 3724 654B     		ldr	r3, .L693+4
 10491 3726 5A73     		strb	r2, [r3, #13]
2226:.\main.c      **** 				rf_mod[14]=rventa1.dinero[5] + 48;
 10492              		.loc 1 2226 0
 10493 3728 634B     		ldr	r3, .L693
 10494 372a 1B7B     		ldrb	r3, [r3, #12]	@ zero_extendqisi2
 10495 372c 3033     		adds	r3, r3, #48
 10496 372e DAB2     		uxtb	r2, r3
 10497 3730 624B     		ldr	r3, .L693+4
 10498 3732 9A73     		strb	r2, [r3, #14]
2227:.\main.c      **** 				rf_mod[15]=rventa1.dinero[4] + 48;
 10499              		.loc 1 2227 0
 10500 3734 604B     		ldr	r3, .L693
 10501 3736 DB7A     		ldrb	r3, [r3, #11]	@ zero_extendqisi2
 10502 3738 3033     		adds	r3, r3, #48
 10503 373a DAB2     		uxtb	r2, r3
 10504 373c 5F4B     		ldr	r3, .L693+4
 10505 373e DA73     		strb	r2, [r3, #15]
2228:.\main.c      **** 				rf_mod[16]=rventa1.dinero[3] + 48;
 10506              		.loc 1 2228 0
 10507 3740 5D4B     		ldr	r3, .L693
 10508 3742 9B7A     		ldrb	r3, [r3, #10]	@ zero_extendqisi2
 10509 3744 3033     		adds	r3, r3, #48
 10510 3746 DAB2     		uxtb	r2, r3
 10511 3748 5C4B     		ldr	r3, .L693+4
 10512 374a 1A74     		strb	r2, [r3, #16]
2229:.\main.c      **** 				rf_mod[17]=rventa1.dinero[2] + 48;
 10513              		.loc 1 2229 0
 10514 374c 5A4B     		ldr	r3, .L693
 10515 374e 5B7A     		ldrb	r3, [r3, #9]	@ zero_extendqisi2
 10516 3750 3033     		adds	r3, r3, #48
 10517 3752 DAB2     		uxtb	r2, r3
 10518 3754 594B     		ldr	r3, .L693+4
 10519 3756 5A74     		strb	r2, [r3, #17]
2230:.\main.c      **** 				rf_mod[18]=rventa1.dinero[1] + 48;					
 10520              		.loc 1 2230 0
 10521 3758 574B     		ldr	r3, .L693
 10522 375a 1B7A     		ldrb	r3, [r3, #8]	@ zero_extendqisi2
 10523 375c 3033     		adds	r3, r3, #48
 10524 375e DAB2     		uxtb	r2, r3
 10525 3760 564B     		ldr	r3, .L693+4
 10526 3762 9A74     		strb	r2, [r3, #18]
2231:.\main.c      **** 				rf_mod[19]=rventa1.dinero[0] + 48;
 10527              		.loc 1 2231 0
 10528 3764 544B     		ldr	r3, .L693
 10529 3766 DB79     		ldrb	r3, [r3, #7]	@ zero_extendqisi2
 10530 3768 3033     		adds	r3, r3, #48
 10531 376a DAB2     		uxtb	r2, r3
 10532 376c 534B     		ldr	r3, .L693+4
 10533 376e DA74     		strb	r2, [r3, #19]
 10534              	.L529:
2232:.\main.c      **** 			}
ARM GAS  C:\Users\RECEPC~1\AppData\Local\Temp\cc2OimPl.s 			page 230


2233:.\main.c      ****             if(ppux10==0){
 10535              		.loc 1 2233 0
 10536 3770 534B     		ldr	r3, .L693+8
 10537 3772 1B78     		ldrb	r3, [r3]
 10538 3774 DBB2     		uxtb	r3, r3
 10539 3776 002B     		cmp	r3, #0
 10540 3778 1DD1     		bne	.L530
2234:.\main.c      ****     			rf_mod[20]=rventa1.ppu[4] + 48;			//PPU
 10541              		.loc 1 2234 0
 10542 377a 4F4B     		ldr	r3, .L693
 10543 377c 9B79     		ldrb	r3, [r3, #6]	@ zero_extendqisi2
 10544 377e 3033     		adds	r3, r3, #48
 10545 3780 DAB2     		uxtb	r2, r3
 10546 3782 4E4B     		ldr	r3, .L693+4
 10547 3784 1A75     		strb	r2, [r3, #20]
2235:.\main.c      ****     			rf_mod[21]=rventa1.ppu[3] + 48;
 10548              		.loc 1 2235 0
 10549 3786 4C4B     		ldr	r3, .L693
 10550 3788 5B79     		ldrb	r3, [r3, #5]	@ zero_extendqisi2
 10551 378a 3033     		adds	r3, r3, #48
 10552 378c DAB2     		uxtb	r2, r3
 10553 378e 4B4B     		ldr	r3, .L693+4
 10554 3790 5A75     		strb	r2, [r3, #21]
2236:.\main.c      ****     			rf_mod[22]=rventa1.ppu[2] + 48;
 10555              		.loc 1 2236 0
 10556 3792 494B     		ldr	r3, .L693
 10557 3794 1B79     		ldrb	r3, [r3, #4]	@ zero_extendqisi2
 10558 3796 3033     		adds	r3, r3, #48
 10559 3798 DAB2     		uxtb	r2, r3
 10560 379a 484B     		ldr	r3, .L693+4
 10561 379c 9A75     		strb	r2, [r3, #22]
2237:.\main.c      ****     			rf_mod[23]=rventa1.ppu[1] + 48;
 10562              		.loc 1 2237 0
 10563 379e 464B     		ldr	r3, .L693
 10564 37a0 DB78     		ldrb	r3, [r3, #3]	@ zero_extendqisi2
 10565 37a2 3033     		adds	r3, r3, #48
 10566 37a4 DAB2     		uxtb	r2, r3
 10567 37a6 454B     		ldr	r3, .L693+4
 10568 37a8 DA75     		strb	r2, [r3, #23]
2238:.\main.c      ****     			rf_mod[24]=rventa1.ppu[0] + 48;
 10569              		.loc 1 2238 0
 10570 37aa 434B     		ldr	r3, .L693
 10571 37ac 9B78     		ldrb	r3, [r3, #2]	@ zero_extendqisi2
 10572 37ae 3033     		adds	r3, r3, #48
 10573 37b0 DAB2     		uxtb	r2, r3
 10574 37b2 424B     		ldr	r3, .L693+4
 10575 37b4 1A76     		strb	r2, [r3, #24]
 10576              	.L530:
2239:.\main.c      ****             }
2240:.\main.c      ****             if(ppux10==1){
 10577              		.loc 1 2240 0
 10578 37b6 424B     		ldr	r3, .L693+8
 10579 37b8 1B78     		ldrb	r3, [r3]
 10580 37ba DBB2     		uxtb	r3, r3
 10581 37bc 012B     		cmp	r3, #1
 10582 37be 1AD1     		bne	.L531
2241:.\main.c      ****     			rf_mod[20]=rventa1.ppu[3] + 48;			//PPU x10
ARM GAS  C:\Users\RECEPC~1\AppData\Local\Temp\cc2OimPl.s 			page 231


 10583              		.loc 1 2241 0
 10584 37c0 3D4B     		ldr	r3, .L693
 10585 37c2 5B79     		ldrb	r3, [r3, #5]	@ zero_extendqisi2
 10586 37c4 3033     		adds	r3, r3, #48
 10587 37c6 DAB2     		uxtb	r2, r3
 10588 37c8 3C4B     		ldr	r3, .L693+4
 10589 37ca 1A75     		strb	r2, [r3, #20]
2242:.\main.c      ****     			rf_mod[21]=rventa1.ppu[2] + 48;
 10590              		.loc 1 2242 0
 10591 37cc 3A4B     		ldr	r3, .L693
 10592 37ce 1B79     		ldrb	r3, [r3, #4]	@ zero_extendqisi2
 10593 37d0 3033     		adds	r3, r3, #48
 10594 37d2 DAB2     		uxtb	r2, r3
 10595 37d4 394B     		ldr	r3, .L693+4
 10596 37d6 5A75     		strb	r2, [r3, #21]
2243:.\main.c      ****     			rf_mod[22]=rventa1.ppu[1] + 48;
 10597              		.loc 1 2243 0
 10598 37d8 374B     		ldr	r3, .L693
 10599 37da DB78     		ldrb	r3, [r3, #3]	@ zero_extendqisi2
 10600 37dc 3033     		adds	r3, r3, #48
 10601 37de DAB2     		uxtb	r2, r3
 10602 37e0 364B     		ldr	r3, .L693+4
 10603 37e2 9A75     		strb	r2, [r3, #22]
2244:.\main.c      ****     			rf_mod[23]=rventa1.ppu[0] + 48;
 10604              		.loc 1 2244 0
 10605 37e4 344B     		ldr	r3, .L693
 10606 37e6 9B78     		ldrb	r3, [r3, #2]	@ zero_extendqisi2
 10607 37e8 3033     		adds	r3, r3, #48
 10608 37ea DAB2     		uxtb	r2, r3
 10609 37ec 334B     		ldr	r3, .L693+4
 10610 37ee DA75     		strb	r2, [r3, #23]
2245:.\main.c      ****     			rf_mod[24]=48;
 10611              		.loc 1 2245 0
 10612 37f0 324B     		ldr	r3, .L693+4
 10613 37f2 3022     		movs	r2, #48
 10614 37f4 1A76     		strb	r2, [r3, #24]
 10615              	.L531:
2246:.\main.c      ****             }
2247:.\main.c      **** 			rf_mod[25]=id_estacion[4];				//Id Estacion	
 10616              		.loc 1 2247 0
 10617 37f6 334B     		ldr	r3, .L693+12
 10618 37f8 1B79     		ldrb	r3, [r3, #4]
 10619 37fa DAB2     		uxtb	r2, r3
 10620 37fc 2F4B     		ldr	r3, .L693+4
 10621 37fe 5A76     		strb	r2, [r3, #25]
2248:.\main.c      **** 			rf_mod[26]=id_estacion[3];
 10622              		.loc 1 2248 0
 10623 3800 304B     		ldr	r3, .L693+12
 10624 3802 DB78     		ldrb	r3, [r3, #3]
 10625 3804 DAB2     		uxtb	r2, r3
 10626 3806 2D4B     		ldr	r3, .L693+4
 10627 3808 9A76     		strb	r2, [r3, #26]
2249:.\main.c      **** 			rf_mod[27]=id_estacion[2];
 10628              		.loc 1 2249 0
 10629 380a 2E4B     		ldr	r3, .L693+12
 10630 380c 9B78     		ldrb	r3, [r3, #2]
 10631 380e DAB2     		uxtb	r2, r3
ARM GAS  C:\Users\RECEPC~1\AppData\Local\Temp\cc2OimPl.s 			page 232


 10632 3810 2A4B     		ldr	r3, .L693+4
 10633 3812 DA76     		strb	r2, [r3, #27]
2250:.\main.c      **** 			rf_mod[28]=id_estacion[1];
 10634              		.loc 1 2250 0
 10635 3814 2B4B     		ldr	r3, .L693+12
 10636 3816 5B78     		ldrb	r3, [r3, #1]
 10637 3818 DAB2     		uxtb	r2, r3
 10638 381a 284B     		ldr	r3, .L693+4
 10639 381c 1A77     		strb	r2, [r3, #28]
2251:.\main.c      **** 			
2252:.\main.c      ****             if(tipo_venta == 1){
 10640              		.loc 1 2252 0
 10641 381e 2A4B     		ldr	r3, .L693+16
 10642 3820 1B78     		ldrb	r3, [r3]	@ zero_extendqisi2
 10643 3822 012B     		cmp	r3, #1
 10644 3824 43D1     		bne	.L532
2253:.\main.c      ****                 for(x=0;x<=15;x++){						//Serial				
 10645              		.loc 1 2253 0
 10646 3826 0023     		movs	r3, #0
 10647 3828 87F82F30 		strb	r3, [r7, #47]
 10648 382c 3AE0     		b	.L533
 10649              	.L536:
2254:.\main.c      **** 				    y=(rventa1.id[x/2]>>4)&0x0F;
 10650              		.loc 1 2254 0
 10651 382e 97F82F30 		ldrb	r3, [r7, #47]	@ zero_extendqisi2
 10652 3832 5B08     		lsrs	r3, r3, #1
 10653 3834 DBB2     		uxtb	r3, r3
 10654 3836 1A46     		mov	r2, r3
 10655 3838 1F4B     		ldr	r3, .L693
 10656 383a 1344     		add	r3, r3, r2
 10657 383c 93F82330 		ldrb	r3, [r3, #35]	@ zero_extendqisi2
 10658 3840 1B09     		lsrs	r3, r3, #4
 10659 3842 87F82E30 		strb	r3, [r7, #46]
2255:.\main.c      **** 				    if((x%2)==0){
 10660              		.loc 1 2255 0
 10661 3846 97F82F30 		ldrb	r3, [r7, #47]
 10662 384a 03F00103 		and	r3, r3, #1
 10663 384e DBB2     		uxtb	r3, r3
 10664 3850 002B     		cmp	r3, #0
 10665 3852 0CD1     		bne	.L534
2256:.\main.c      **** 					    y=rventa1.id[x/2]&0x0F;
 10666              		.loc 1 2256 0
 10667 3854 97F82F30 		ldrb	r3, [r7, #47]	@ zero_extendqisi2
 10668 3858 5B08     		lsrs	r3, r3, #1
 10669 385a DBB2     		uxtb	r3, r3
 10670 385c 1A46     		mov	r2, r3
 10671 385e 164B     		ldr	r3, .L693
 10672 3860 1344     		add	r3, r3, r2
 10673 3862 93F82330 		ldrb	r3, [r3, #35]	@ zero_extendqisi2
 10674 3866 03F00F03 		and	r3, r3, #15
 10675 386a 87F82E30 		strb	r3, [r7, #46]
 10676              	.L534:
2257:.\main.c      **** 				    }
2258:.\main.c      **** 				    rf_mod[x+29] = y+48;
 10677              		.loc 1 2258 0
 10678 386e 97F82F30 		ldrb	r3, [r7, #47]	@ zero_extendqisi2
 10679 3872 1D33     		adds	r3, r3, #29
ARM GAS  C:\Users\RECEPC~1\AppData\Local\Temp\cc2OimPl.s 			page 233


 10680 3874 97F82E20 		ldrb	r2, [r7, #46]
 10681 3878 3032     		adds	r2, r2, #48
 10682 387a D1B2     		uxtb	r1, r2
 10683 387c 0F4A     		ldr	r2, .L693+4
 10684 387e D154     		strb	r1, [r2, r3]
2259:.\main.c      **** 				    if(y>9){
 10685              		.loc 1 2259 0
 10686 3880 97F82E30 		ldrb	r3, [r7, #46]	@ zero_extendqisi2
 10687 3884 092B     		cmp	r3, #9
 10688 3886 08D9     		bls	.L535
2260:.\main.c      **** 					    rf_mod[x+29] = y+55;
 10689              		.loc 1 2260 0
 10690 3888 97F82F30 		ldrb	r3, [r7, #47]	@ zero_extendqisi2
 10691 388c 1D33     		adds	r3, r3, #29
 10692 388e 97F82E20 		ldrb	r2, [r7, #46]
 10693 3892 3732     		adds	r2, r2, #55
 10694 3894 D1B2     		uxtb	r1, r2
 10695 3896 094A     		ldr	r2, .L693+4
 10696 3898 D154     		strb	r1, [r2, r3]
 10697              	.L535:
2253:.\main.c      **** 				    y=(rventa1.id[x/2]>>4)&0x0F;
 10698              		.loc 1 2253 0 discriminator 2
 10699 389a 97F82F30 		ldrb	r3, [r7, #47]	@ zero_extendqisi2
 10700 389e 0133     		adds	r3, r3, #1
 10701 38a0 87F82F30 		strb	r3, [r7, #47]
 10702              	.L533:
2253:.\main.c      **** 				    y=(rventa1.id[x/2]>>4)&0x0F;
 10703              		.loc 1 2253 0 is_stmt 0 discriminator 1
 10704 38a4 97F82F30 		ldrb	r3, [r7, #47]	@ zero_extendqisi2
 10705 38a8 0F2B     		cmp	r3, #15
 10706 38aa C0D9     		bls	.L536
 10707 38ac 4DE0     		b	.L537
 10708              	.L532:
2261:.\main.c      **** 				    }
2262:.\main.c      **** 			    }
2263:.\main.c      ****             }else{
2264:.\main.c      ****                 for(x=0;x<=15;x++){						//Serial				
 10709              		.loc 1 2264 0 is_stmt 1
 10710 38ae 0023     		movs	r3, #0
 10711 38b0 87F82F30 		strb	r3, [r7, #47]
 10712 38b4 45E0     		b	.L538
 10713              	.L694:
 10714 38b6 00BF     		.align	2
 10715              	.L693:
 10716 38b8 00000000 		.word	rventa1
 10717 38bc 00000000 		.word	rf_mod
 10718 38c0 00000000 		.word	ppux10
 10719 38c4 00000000 		.word	id_estacion
 10720 38c8 00000000 		.word	tipo_venta
 10721              	.L541:
2265:.\main.c      **** 				    y=(rventa1.id[x/2]>>4)&0x0F;
 10722              		.loc 1 2265 0
 10723 38cc 97F82F30 		ldrb	r3, [r7, #47]	@ zero_extendqisi2
 10724 38d0 5B08     		lsrs	r3, r3, #1
 10725 38d2 DBB2     		uxtb	r3, r3
 10726 38d4 1A46     		mov	r2, r3
 10727 38d6 7D4B     		ldr	r3, .L695
ARM GAS  C:\Users\RECEPC~1\AppData\Local\Temp\cc2OimPl.s 			page 234


 10728 38d8 1344     		add	r3, r3, r2
 10729 38da 93F82330 		ldrb	r3, [r3, #35]	@ zero_extendqisi2
 10730 38de 1B09     		lsrs	r3, r3, #4
 10731 38e0 87F82E30 		strb	r3, [r7, #46]
2266:.\main.c      **** 				    if((x%2)==0){
 10732              		.loc 1 2266 0
 10733 38e4 97F82F30 		ldrb	r3, [r7, #47]
 10734 38e8 03F00103 		and	r3, r3, #1
 10735 38ec DBB2     		uxtb	r3, r3
 10736 38ee 002B     		cmp	r3, #0
 10737 38f0 0CD1     		bne	.L539
2267:.\main.c      **** 					    y=rventa1.id[x/2]&0x0F;
 10738              		.loc 1 2267 0
 10739 38f2 97F82F30 		ldrb	r3, [r7, #47]	@ zero_extendqisi2
 10740 38f6 5B08     		lsrs	r3, r3, #1
 10741 38f8 DBB2     		uxtb	r3, r3
 10742 38fa 1A46     		mov	r2, r3
 10743 38fc 734B     		ldr	r3, .L695
 10744 38fe 1344     		add	r3, r3, r2
 10745 3900 93F82330 		ldrb	r3, [r3, #35]	@ zero_extendqisi2
 10746 3904 03F00F03 		and	r3, r3, #15
 10747 3908 87F82E30 		strb	r3, [r7, #46]
 10748              	.L539:
2268:.\main.c      **** 				    }
2269:.\main.c      **** 				    rf_mod[x+29] = y+48;
 10749              		.loc 1 2269 0
 10750 390c 97F82F30 		ldrb	r3, [r7, #47]	@ zero_extendqisi2
 10751 3910 1D33     		adds	r3, r3, #29
 10752 3912 97F82E20 		ldrb	r2, [r7, #46]
 10753 3916 3032     		adds	r2, r2, #48
 10754 3918 D1B2     		uxtb	r1, r2
 10755 391a 6D4A     		ldr	r2, .L695+4
 10756 391c D154     		strb	r1, [r2, r3]
2270:.\main.c      **** 				    if(y>9){
 10757              		.loc 1 2270 0
 10758 391e 97F82E30 		ldrb	r3, [r7, #46]	@ zero_extendqisi2
 10759 3922 092B     		cmp	r3, #9
 10760 3924 08D9     		bls	.L540
2271:.\main.c      **** 					    rf_mod[x+29] = y+55;
 10761              		.loc 1 2271 0
 10762 3926 97F82F30 		ldrb	r3, [r7, #47]	@ zero_extendqisi2
 10763 392a 1D33     		adds	r3, r3, #29
 10764 392c 97F82E20 		ldrb	r2, [r7, #46]
 10765 3930 3732     		adds	r2, r2, #55
 10766 3932 D1B2     		uxtb	r1, r2
 10767 3934 664A     		ldr	r2, .L695+4
 10768 3936 D154     		strb	r1, [r2, r3]
 10769              	.L540:
2264:.\main.c      **** 				    y=(rventa1.id[x/2]>>4)&0x0F;
 10770              		.loc 1 2264 0 discriminator 2
 10771 3938 97F82F30 		ldrb	r3, [r7, #47]	@ zero_extendqisi2
 10772 393c 0133     		adds	r3, r3, #1
 10773 393e 87F82F30 		strb	r3, [r7, #47]
 10774              	.L538:
2264:.\main.c      **** 				    y=(rventa1.id[x/2]>>4)&0x0F;
 10775              		.loc 1 2264 0 is_stmt 0 discriminator 1
 10776 3942 97F82F30 		ldrb	r3, [r7, #47]	@ zero_extendqisi2
ARM GAS  C:\Users\RECEPC~1\AppData\Local\Temp\cc2OimPl.s 			page 235


 10777 3946 0F2B     		cmp	r3, #15
 10778 3948 C0D9     		bls	.L541
 10779              	.L537:
2272:.\main.c      **** 				    }
2273:.\main.c      **** 			    }               
2274:.\main.c      ****             }
2275:.\main.c      **** 			num_decimal2++;
 10780              		.loc 1 2275 0 is_stmt 1
 10781 394a 624B     		ldr	r3, .L695+8
 10782 394c 1B88     		ldrh	r3, [r3]
 10783 394e 0133     		adds	r3, r3, #1
 10784 3950 9AB2     		uxth	r2, r3
 10785 3952 604B     		ldr	r3, .L695+8
 10786 3954 1A80     		strh	r2, [r3]	@ movhi
2276:.\main.c      **** 			id_venta[4]=(num_decimal2/1000)+48;
 10787              		.loc 1 2276 0
 10788 3956 5F4B     		ldr	r3, .L695+8
 10789 3958 1B88     		ldrh	r3, [r3]
 10790 395a 5F4A     		ldr	r2, .L695+12
 10791 395c A2FB0323 		umull	r2, r3, r2, r3
 10792 3960 9B09     		lsrs	r3, r3, #6
 10793 3962 9BB2     		uxth	r3, r3
 10794 3964 DBB2     		uxtb	r3, r3
 10795 3966 3033     		adds	r3, r3, #48
 10796 3968 DAB2     		uxtb	r2, r3
 10797 396a 5C4B     		ldr	r3, .L695+16
 10798 396c 1A71     		strb	r2, [r3, #4]
2277:.\main.c      **** 			id_venta[3]=((num_decimal2%1000)/100)+48;
 10799              		.loc 1 2277 0
 10800 396e 594B     		ldr	r3, .L695+8
 10801 3970 1B88     		ldrh	r3, [r3]
 10802 3972 594A     		ldr	r2, .L695+12
 10803 3974 A2FB0312 		umull	r1, r2, r2, r3
 10804 3978 9209     		lsrs	r2, r2, #6
 10805 397a 4FF47A71 		mov	r1, #1000
 10806 397e 01FB02F2 		mul	r2, r1, r2
 10807 3982 9B1A     		subs	r3, r3, r2
 10808 3984 9BB2     		uxth	r3, r3
 10809 3986 564A     		ldr	r2, .L695+20
 10810 3988 A2FB0323 		umull	r2, r3, r2, r3
 10811 398c 5B09     		lsrs	r3, r3, #5
 10812 398e 9BB2     		uxth	r3, r3
 10813 3990 DBB2     		uxtb	r3, r3
 10814 3992 3033     		adds	r3, r3, #48
 10815 3994 DAB2     		uxtb	r2, r3
 10816 3996 514B     		ldr	r3, .L695+16
 10817 3998 DA70     		strb	r2, [r3, #3]
2278:.\main.c      **** 			id_venta[2]=(((num_decimal2%1000)%100)/10)+48;
 10818              		.loc 1 2278 0
 10819 399a 4E4B     		ldr	r3, .L695+8
 10820 399c 1B88     		ldrh	r3, [r3]
 10821 399e 4E4A     		ldr	r2, .L695+12
 10822 39a0 A2FB0312 		umull	r1, r2, r2, r3
 10823 39a4 9209     		lsrs	r2, r2, #6
 10824 39a6 4FF47A71 		mov	r1, #1000
 10825 39aa 01FB02F2 		mul	r2, r1, r2
 10826 39ae 9B1A     		subs	r3, r3, r2
ARM GAS  C:\Users\RECEPC~1\AppData\Local\Temp\cc2OimPl.s 			page 236


 10827 39b0 9BB2     		uxth	r3, r3
 10828 39b2 4B4A     		ldr	r2, .L695+20
 10829 39b4 A2FB0312 		umull	r1, r2, r2, r3
 10830 39b8 5209     		lsrs	r2, r2, #5
 10831 39ba 6421     		movs	r1, #100
 10832 39bc 01FB02F2 		mul	r2, r1, r2
 10833 39c0 9B1A     		subs	r3, r3, r2
 10834 39c2 9BB2     		uxth	r3, r3
 10835 39c4 474A     		ldr	r2, .L695+24
 10836 39c6 A2FB0323 		umull	r2, r3, r2, r3
 10837 39ca DB08     		lsrs	r3, r3, #3
 10838 39cc 9BB2     		uxth	r3, r3
 10839 39ce DBB2     		uxtb	r3, r3
 10840 39d0 3033     		adds	r3, r3, #48
 10841 39d2 DAB2     		uxtb	r2, r3
 10842 39d4 414B     		ldr	r3, .L695+16
 10843 39d6 9A70     		strb	r2, [r3, #2]
2279:.\main.c      **** 			id_venta[1]=(((num_decimal2%1000)%100)%10)+48; 
 10844              		.loc 1 2279 0
 10845 39d8 3E4B     		ldr	r3, .L695+8
 10846 39da 1B88     		ldrh	r3, [r3]
 10847 39dc 3E4A     		ldr	r2, .L695+12
 10848 39de A2FB0312 		umull	r1, r2, r2, r3
 10849 39e2 9209     		lsrs	r2, r2, #6
 10850 39e4 4FF47A71 		mov	r1, #1000
 10851 39e8 01FB02F2 		mul	r2, r1, r2
 10852 39ec 9B1A     		subs	r3, r3, r2
 10853 39ee 9BB2     		uxth	r3, r3
 10854 39f0 3B4A     		ldr	r2, .L695+20
 10855 39f2 A2FB0312 		umull	r1, r2, r2, r3
 10856 39f6 5209     		lsrs	r2, r2, #5
 10857 39f8 6421     		movs	r1, #100
 10858 39fa 01FB02F2 		mul	r2, r1, r2
 10859 39fe 9B1A     		subs	r3, r3, r2
 10860 3a00 9AB2     		uxth	r2, r3
 10861 3a02 384B     		ldr	r3, .L695+24
 10862 3a04 A3FB0213 		umull	r1, r3, r3, r2
 10863 3a08 D908     		lsrs	r1, r3, #3
 10864 3a0a 0B46     		mov	r3, r1
 10865 3a0c 9B00     		lsls	r3, r3, #2
 10866 3a0e 0B44     		add	r3, r3, r1
 10867 3a10 5B00     		lsls	r3, r3, #1
 10868 3a12 D31A     		subs	r3, r2, r3
 10869 3a14 9BB2     		uxth	r3, r3
 10870 3a16 DBB2     		uxtb	r3, r3
 10871 3a18 3033     		adds	r3, r3, #48
 10872 3a1a DAB2     		uxtb	r2, r3
 10873 3a1c 2F4B     		ldr	r3, .L695+16
 10874 3a1e 5A70     		strb	r2, [r3, #1]
2280:.\main.c      **** 			for(x=1;x<=7;x++){						//Id de Venta
 10875              		.loc 1 2280 0
 10876 3a20 0123     		movs	r3, #1
 10877 3a22 87F82F30 		strb	r3, [r7, #47]
 10878 3a26 0EE0     		b	.L542
 10879              	.L543:
2281:.\main.c      **** 				rf_mod[44+x]=id_venta[x];
 10880              		.loc 1 2281 0 discriminator 3
ARM GAS  C:\Users\RECEPC~1\AppData\Local\Temp\cc2OimPl.s 			page 237


 10881 3a28 97F82F30 		ldrb	r3, [r7, #47]	@ zero_extendqisi2
 10882 3a2c 2C33     		adds	r3, r3, #44
 10883 3a2e 97F82F20 		ldrb	r2, [r7, #47]	@ zero_extendqisi2
 10884 3a32 2A49     		ldr	r1, .L695+16
 10885 3a34 8A5C     		ldrb	r2, [r1, r2]
 10886 3a36 D1B2     		uxtb	r1, r2
 10887 3a38 254A     		ldr	r2, .L695+4
 10888 3a3a D154     		strb	r1, [r2, r3]
2280:.\main.c      **** 			for(x=1;x<=7;x++){						//Id de Venta
 10889              		.loc 1 2280 0 discriminator 3
 10890 3a3c 97F82F30 		ldrb	r3, [r7, #47]	@ zero_extendqisi2
 10891 3a40 0133     		adds	r3, r3, #1
 10892 3a42 87F82F30 		strb	r3, [r7, #47]
 10893              	.L542:
2280:.\main.c      **** 			for(x=1;x<=7;x++){						//Id de Venta
 10894              		.loc 1 2280 0 is_stmt 0 discriminator 1
 10895 3a46 97F82F30 		ldrb	r3, [r7, #47]	@ zero_extendqisi2
 10896 3a4a 072B     		cmp	r3, #7
 10897 3a4c ECD9     		bls	.L543
2282:.\main.c      **** 			}
2283:.\main.c      **** 			for(x=1;x<=4;x++){						//Guarda Id venta
 10898              		.loc 1 2283 0 is_stmt 1
 10899 3a4e 0123     		movs	r3, #1
 10900 3a50 87F82F30 		strb	r3, [r7, #47]
 10901 3a54 10E0     		b	.L544
 10902              	.L545:
2284:.\main.c      **** 				EEPROM_WriteByte(id_venta[x],x);
 10903              		.loc 1 2284 0 discriminator 3
 10904 3a56 97F82F30 		ldrb	r3, [r7, #47]	@ zero_extendqisi2
 10905 3a5a 204A     		ldr	r2, .L695+16
 10906 3a5c D35C     		ldrb	r3, [r2, r3]
 10907 3a5e DAB2     		uxtb	r2, r3
 10908 3a60 97F82F30 		ldrb	r3, [r7, #47]	@ zero_extendqisi2
 10909 3a64 9BB2     		uxth	r3, r3
 10910 3a66 1046     		mov	r0, r2
 10911 3a68 1946     		mov	r1, r3
 10912 3a6a FFF7FEFF 		bl	EEPROM_WriteByte
2283:.\main.c      **** 				EEPROM_WriteByte(id_venta[x],x);
 10913              		.loc 1 2283 0 discriminator 3
 10914 3a6e 97F82F30 		ldrb	r3, [r7, #47]	@ zero_extendqisi2
 10915 3a72 0133     		adds	r3, r3, #1
 10916 3a74 87F82F30 		strb	r3, [r7, #47]
 10917              	.L544:
2283:.\main.c      **** 				EEPROM_WriteByte(id_venta[x],x);
 10918              		.loc 1 2283 0 is_stmt 0 discriminator 1
 10919 3a78 97F82F30 		ldrb	r3, [r7, #47]	@ zero_extendqisi2
 10920 3a7c 042B     		cmp	r3, #4
 10921 3a7e EAD9     		bls	.L545
2285:.\main.c      **** 			}
2286:.\main.c      **** 			for(x=0;x<=6;x++){						//Km
 10922              		.loc 1 2286 0 is_stmt 1
 10923 3a80 0023     		movs	r3, #0
 10924 3a82 87F82F30 		strb	r3, [r7, #47]
 10925 3a86 12E0     		b	.L546
 10926              	.L547:
2287:.\main.c      **** 				rf_mod[52+x]=rventa1.km[x+1] + 48;
 10927              		.loc 1 2287 0 discriminator 3
ARM GAS  C:\Users\RECEPC~1\AppData\Local\Temp\cc2OimPl.s 			page 238


 10928 3a88 97F82F30 		ldrb	r3, [r7, #47]	@ zero_extendqisi2
 10929 3a8c 3433     		adds	r3, r3, #52
 10930 3a8e 97F82F20 		ldrb	r2, [r7, #47]	@ zero_extendqisi2
 10931 3a92 0132     		adds	r2, r2, #1
 10932 3a94 0D49     		ldr	r1, .L695
 10933 3a96 0A44     		add	r2, r2, r1
 10934 3a98 92F84320 		ldrb	r2, [r2, #67]	@ zero_extendqisi2
 10935 3a9c 3032     		adds	r2, r2, #48
 10936 3a9e D1B2     		uxtb	r1, r2
 10937 3aa0 0B4A     		ldr	r2, .L695+4
 10938 3aa2 D154     		strb	r1, [r2, r3]
2286:.\main.c      **** 				rf_mod[52+x]=rventa1.km[x+1] + 48;
 10939              		.loc 1 2286 0 discriminator 3
 10940 3aa4 97F82F30 		ldrb	r3, [r7, #47]	@ zero_extendqisi2
 10941 3aa8 0133     		adds	r3, r3, #1
 10942 3aaa 87F82F30 		strb	r3, [r7, #47]
 10943              	.L546:
2286:.\main.c      **** 				rf_mod[52+x]=rventa1.km[x+1] + 48;
 10944              		.loc 1 2286 0 is_stmt 0 discriminator 1
 10945 3aae 97F82F30 		ldrb	r3, [r7, #47]	@ zero_extendqisi2
 10946 3ab2 062B     		cmp	r3, #6
 10947 3ab4 E8D9     		bls	.L547
2288:.\main.c      **** 			}				
2289:.\main.c      **** 			rf_mod[59]='*';
 10948              		.loc 1 2289 0 is_stmt 1
 10949 3ab6 064B     		ldr	r3, .L695+4
 10950 3ab8 2A22     		movs	r2, #42
 10951 3aba 83F83B20 		strb	r2, [r3, #59]
2290:.\main.c      **** 			PC_ClearRxBuffer();				
 10952              		.loc 1 2290 0
 10953 3abe FFF7FEFF 		bl	PC_ClearRxBuffer
2291:.\main.c      **** 		    for(x=0;x<=59;x++){
 10954              		.loc 1 2291 0
 10955 3ac2 0023     		movs	r3, #0
 10956 3ac4 87F82F30 		strb	r3, [r7, #47]
 10957 3ac8 1AE0     		b	.L548
 10958              	.L696:
 10959 3aca 00BF     		.align	2
 10960              	.L695:
 10961 3acc 00000000 		.word	rventa1
 10962 3ad0 00000000 		.word	rf_mod
 10963 3ad4 00000000 		.word	num_decimal2
 10964 3ad8 D34D6210 		.word	274877907
 10965 3adc 00000000 		.word	id_venta
 10966 3ae0 1F85EB51 		.word	1374389535
 10967 3ae4 CDCCCCCC 		.word	-858993459
 10968              	.L549:
2292:.\main.c      **** 			   PC_PutChar(rf_mod[x]);
 10969              		.loc 1 2292 0 discriminator 3
 10970 3ae8 97F82F30 		ldrb	r3, [r7, #47]	@ zero_extendqisi2
 10971 3aec 6C4A     		ldr	r2, .L697
 10972 3aee D35C     		ldrb	r3, [r2, r3]	@ zero_extendqisi2
 10973 3af0 1846     		mov	r0, r3
 10974 3af2 FFF7FEFF 		bl	PC_PutChar
2291:.\main.c      **** 		    for(x=0;x<=59;x++){
 10975              		.loc 1 2291 0 discriminator 3
 10976 3af6 97F82F30 		ldrb	r3, [r7, #47]	@ zero_extendqisi2
ARM GAS  C:\Users\RECEPC~1\AppData\Local\Temp\cc2OimPl.s 			page 239


 10977 3afa 0133     		adds	r3, r3, #1
 10978 3afc 87F82F30 		strb	r3, [r7, #47]
 10979              	.L548:
2291:.\main.c      **** 		    for(x=0;x<=59;x++){
 10980              		.loc 1 2291 0 is_stmt 0 discriminator 1
 10981 3b00 97F82F30 		ldrb	r3, [r7, #47]	@ zero_extendqisi2
 10982 3b04 3B2B     		cmp	r3, #59
 10983 3b06 EFD9     		bls	.L549
2293:.\main.c      **** 		    }            
2294:.\main.c      ****             PC_ClearRxBuffer();
 10984              		.loc 1 2294 0 is_stmt 1
 10985 3b08 FFF7FEFF 		bl	PC_ClearRxBuffer
2295:.\main.c      **** 			CyDelay(300);
 10986              		.loc 1 2295 0
 10987 3b0c 4FF49670 		mov	r0, #300
 10988 3b10 FFF7FEFF 		bl	CyDelay
2296:.\main.c      ****             PC_ClearTxBuffer();				
 10989              		.loc 1 2296 0
 10990 3b14 FFF7FEFF 		bl	PC_ClearTxBuffer
2297:.\main.c      ****             estado_tanqueando=0;				
 10991              		.loc 1 2297 0
 10992 3b18 624B     		ldr	r3, .L697+4
 10993 3b1a 0022     		movs	r2, #0
 10994 3b1c 1A70     		strb	r2, [r3]
2298:.\main.c      **** 			precio[0]=lado1.ppu[rventa1.producto-1][0];
 10995              		.loc 1 2298 0
 10996 3b1e 624B     		ldr	r3, .L697+8
 10997 3b20 5B7E     		ldrb	r3, [r3, #25]	@ zero_extendqisi2
 10998 3b22 5A1E     		subs	r2, r3, #1
 10999 3b24 6149     		ldr	r1, .L697+12
 11000 3b26 1346     		mov	r3, r2
 11001 3b28 9B00     		lsls	r3, r3, #2
 11002 3b2a 1344     		add	r3, r3, r2
 11003 3b2c 0B44     		add	r3, r3, r1
 11004 3b2e 4833     		adds	r3, r3, #72
 11005 3b30 9B78     		ldrb	r3, [r3, #2]
 11006 3b32 DBB2     		uxtb	r3, r3
 11007 3b34 3B73     		strb	r3, [r7, #12]
2299:.\main.c      **** 			precio[1]=lado1.ppu[rventa1.producto-1][1];
 11008              		.loc 1 2299 0
 11009 3b36 5C4B     		ldr	r3, .L697+8
 11010 3b38 5B7E     		ldrb	r3, [r3, #25]	@ zero_extendqisi2
 11011 3b3a 5A1E     		subs	r2, r3, #1
 11012 3b3c 5B49     		ldr	r1, .L697+12
 11013 3b3e 1346     		mov	r3, r2
 11014 3b40 9B00     		lsls	r3, r3, #2
 11015 3b42 1344     		add	r3, r3, r2
 11016 3b44 0B44     		add	r3, r3, r1
 11017 3b46 4933     		adds	r3, r3, #73
 11018 3b48 9B78     		ldrb	r3, [r3, #2]
 11019 3b4a DBB2     		uxtb	r3, r3
 11020 3b4c 7B73     		strb	r3, [r7, #13]
2300:.\main.c      **** 			precio[2]=lado1.ppu[rventa1.producto-1][2];
 11021              		.loc 1 2300 0
 11022 3b4e 564B     		ldr	r3, .L697+8
 11023 3b50 5B7E     		ldrb	r3, [r3, #25]	@ zero_extendqisi2
 11024 3b52 5A1E     		subs	r2, r3, #1
ARM GAS  C:\Users\RECEPC~1\AppData\Local\Temp\cc2OimPl.s 			page 240


 11025 3b54 5549     		ldr	r1, .L697+12
 11026 3b56 1346     		mov	r3, r2
 11027 3b58 9B00     		lsls	r3, r3, #2
 11028 3b5a 1344     		add	r3, r3, r2
 11029 3b5c 0B44     		add	r3, r3, r1
 11030 3b5e 4A33     		adds	r3, r3, #74
 11031 3b60 9B78     		ldrb	r3, [r3, #2]
 11032 3b62 DBB2     		uxtb	r3, r3
 11033 3b64 BB73     		strb	r3, [r7, #14]
2301:.\main.c      **** 			precio[3]=lado1.ppu[rventa1.producto-1][3];
 11034              		.loc 1 2301 0
 11035 3b66 504B     		ldr	r3, .L697+8
 11036 3b68 5B7E     		ldrb	r3, [r3, #25]	@ zero_extendqisi2
 11037 3b6a 5A1E     		subs	r2, r3, #1
 11038 3b6c 4F49     		ldr	r1, .L697+12
 11039 3b6e 1346     		mov	r3, r2
 11040 3b70 9B00     		lsls	r3, r3, #2
 11041 3b72 1344     		add	r3, r3, r2
 11042 3b74 0B44     		add	r3, r3, r1
 11043 3b76 4B33     		adds	r3, r3, #75
 11044 3b78 9B78     		ldrb	r3, [r3, #2]
 11045 3b7a DBB2     		uxtb	r3, r3
 11046 3b7c FB73     		strb	r3, [r7, #15]
2302:.\main.c      **** 			precio[4]=lado1.ppu[rventa1.producto-1][4];
 11047              		.loc 1 2302 0
 11048 3b7e 4A4B     		ldr	r3, .L697+8
 11049 3b80 5B7E     		ldrb	r3, [r3, #25]	@ zero_extendqisi2
 11050 3b82 5A1E     		subs	r2, r3, #1
 11051 3b84 4949     		ldr	r1, .L697+12
 11052 3b86 1346     		mov	r3, r2
 11053 3b88 9B00     		lsls	r3, r3, #2
 11054 3b8a 1344     		add	r3, r3, r2
 11055 3b8c 0B44     		add	r3, r3, r1
 11056 3b8e 4C33     		adds	r3, r3, #76
 11057 3b90 9B78     		ldrb	r3, [r3, #2]
 11058 3b92 DBB2     		uxtb	r3, r3
 11059 3b94 3B74     		strb	r3, [r7, #16]
2303:.\main.c      **** 			cambiar_precio(lado1.dir,precio,rventa1.producto);
 11060              		.loc 1 2303 0
 11061 3b96 454B     		ldr	r3, .L697+12
 11062 3b98 1B78     		ldrb	r3, [r3]
 11063 3b9a D9B2     		uxtb	r1, r3
 11064 3b9c 424B     		ldr	r3, .L697+8
 11065 3b9e 5B7E     		ldrb	r3, [r3, #25]	@ zero_extendqisi2
 11066 3ba0 07F10C02 		add	r2, r7, #12
 11067 3ba4 0846     		mov	r0, r1
 11068 3ba6 1146     		mov	r1, r2
 11069 3ba8 1A46     		mov	r2, r3
 11070 3baa FFF7FEFF 		bl	cambiar_precio
 11071              	.L527:
2304:.\main.c      ****         }
2305:.\main.c      ****         if(seleccion_pos == 2){
 11072              		.loc 1 2305 0
 11073 3bae 404B     		ldr	r3, .L697+16
 11074 3bb0 1B78     		ldrb	r3, [r3]
 11075 3bb2 DBB2     		uxtb	r3, r3
 11076 3bb4 022B     		cmp	r3, #2
ARM GAS  C:\Users\RECEPC~1\AppData\Local\Temp\cc2OimPl.s 			page 241


 11077 3bb6 40F0BF82 		bne	.L550
2306:.\main.c      **** 			rf_mod[0]='M';
 11078              		.loc 1 2306 0
 11079 3bba 394B     		ldr	r3, .L697
 11080 3bbc 4D22     		movs	r2, #77
 11081 3bbe 1A70     		strb	r2, [r3]
2307:.\main.c      **** 			rf_mod[1]='U';
 11082              		.loc 1 2307 0
 11083 3bc0 374B     		ldr	r3, .L697
 11084 3bc2 5522     		movs	r2, #85
 11085 3bc4 5A70     		strb	r2, [r3, #1]
2308:.\main.c      **** 			rf_mod[2]='X';
 11086              		.loc 1 2308 0
 11087 3bc6 364B     		ldr	r3, .L697
 11088 3bc8 5822     		movs	r2, #88
 11089 3bca 9A70     		strb	r2, [r3, #2]
2309:.\main.c      **** 			rf_mod[3]='1';
 11090              		.loc 1 2309 0
 11091 3bcc 344B     		ldr	r3, .L697
 11092 3bce 3122     		movs	r2, #49
 11093 3bd0 DA70     		strb	r2, [r3, #3]
2310:.\main.c      **** 			rf_mod[4]=2 + 48;								//Cara
 11094              		.loc 1 2310 0
 11095 3bd2 334B     		ldr	r3, .L697
 11096 3bd4 3222     		movs	r2, #50
 11097 3bd6 1A71     		strb	r2, [r3, #4]
2311:.\main.c      **** 			rf_mod[5]=(lado2.grado[rventa2.producto-1][0] + 48);	//Id Producto	
 11098              		.loc 1 2311 0
 11099 3bd8 364B     		ldr	r3, .L697+20
 11100 3bda 5B7E     		ldrb	r3, [r3, #25]	@ zero_extendqisi2
 11101 3bdc 013B     		subs	r3, r3, #1
 11102 3bde 364A     		ldr	r2, .L697+24
 11103 3be0 1344     		add	r3, r3, r2
 11104 3be2 93F85930 		ldrb	r3, [r3, #89]
 11105 3be6 DBB2     		uxtb	r3, r3
 11106 3be8 3033     		adds	r3, r3, #48
 11107 3bea DAB2     		uxtb	r2, r3
 11108 3bec 2C4B     		ldr	r3, .L697
 11109 3bee 5A71     		strb	r2, [r3, #5]
2312:.\main.c      **** 			rf_mod[6]=rventa2.volumen[5] + 48;						//Volumen
 11110              		.loc 1 2312 0
 11111 3bf0 304B     		ldr	r3, .L697+20
 11112 3bf2 5B7D     		ldrb	r3, [r3, #21]	@ zero_extendqisi2
 11113 3bf4 3033     		adds	r3, r3, #48
 11114 3bf6 DAB2     		uxtb	r2, r3
 11115 3bf8 294B     		ldr	r3, .L697
 11116 3bfa 9A71     		strb	r2, [r3, #6]
2313:.\main.c      **** 			rf_mod[7]=rventa2.volumen[4] + 48;
 11117              		.loc 1 2313 0
 11118 3bfc 2D4B     		ldr	r3, .L697+20
 11119 3bfe 1B7D     		ldrb	r3, [r3, #20]	@ zero_extendqisi2
 11120 3c00 3033     		adds	r3, r3, #48
 11121 3c02 DAB2     		uxtb	r2, r3
 11122 3c04 264B     		ldr	r3, .L697
 11123 3c06 DA71     		strb	r2, [r3, #7]
2314:.\main.c      **** 			rf_mod[8]=rventa2.volumen[3] + 48;
 11124              		.loc 1 2314 0
ARM GAS  C:\Users\RECEPC~1\AppData\Local\Temp\cc2OimPl.s 			page 242


 11125 3c08 2A4B     		ldr	r3, .L697+20
 11126 3c0a DB7C     		ldrb	r3, [r3, #19]	@ zero_extendqisi2
 11127 3c0c 3033     		adds	r3, r3, #48
 11128 3c0e DAB2     		uxtb	r2, r3
 11129 3c10 234B     		ldr	r3, .L697
 11130 3c12 1A72     		strb	r2, [r3, #8]
2315:.\main.c      **** 			rf_mod[9]=',';
 11131              		.loc 1 2315 0
 11132 3c14 224B     		ldr	r3, .L697
 11133 3c16 2C22     		movs	r2, #44
 11134 3c18 5A72     		strb	r2, [r3, #9]
2316:.\main.c      **** 			rf_mod[10]=rventa2.volumen[2] + 48;
 11135              		.loc 1 2316 0
 11136 3c1a 264B     		ldr	r3, .L697+20
 11137 3c1c 9B7C     		ldrb	r3, [r3, #18]	@ zero_extendqisi2
 11138 3c1e 3033     		adds	r3, r3, #48
 11139 3c20 DAB2     		uxtb	r2, r3
 11140 3c22 1F4B     		ldr	r3, .L697
 11141 3c24 9A72     		strb	r2, [r3, #10]
2317:.\main.c      **** 			rf_mod[11]=rventa2.volumen[1] + 48;
 11142              		.loc 1 2317 0
 11143 3c26 234B     		ldr	r3, .L697+20
 11144 3c28 5B7C     		ldrb	r3, [r3, #17]	@ zero_extendqisi2
 11145 3c2a 3033     		adds	r3, r3, #48
 11146 3c2c DAB2     		uxtb	r2, r3
 11147 3c2e 1C4B     		ldr	r3, .L697
 11148 3c30 DA72     		strb	r2, [r3, #11]
2318:.\main.c      **** 			rf_mod[12]=rventa2.volumen[0] + 48;
 11149              		.loc 1 2318 0
 11150 3c32 204B     		ldr	r3, .L697+20
 11151 3c34 1B7C     		ldrb	r3, [r3, #16]	@ zero_extendqisi2
 11152 3c36 3033     		adds	r3, r3, #48
 11153 3c38 DAB2     		uxtb	r2, r3
 11154 3c3a 194B     		ldr	r3, .L697
 11155 3c3c 1A73     		strb	r2, [r3, #12]
2319:.\main.c      **** 			if(version[1]==7){
 11156              		.loc 1 2319 0
 11157 3c3e 1F4B     		ldr	r3, .L697+28
 11158 3c40 5B78     		ldrb	r3, [r3, #1]
 11159 3c42 DBB2     		uxtb	r3, r3
 11160 3c44 072B     		cmp	r3, #7
 11161 3c46 3BD1     		bne	.L551
2320:.\main.c      **** 				rf_mod[13]=rventa2.dinero[7] + 48;	//Dinero 7 digitos
 11162              		.loc 1 2320 0
 11163 3c48 1A4B     		ldr	r3, .L697+20
 11164 3c4a 9B7B     		ldrb	r3, [r3, #14]	@ zero_extendqisi2
 11165 3c4c 3033     		adds	r3, r3, #48
 11166 3c4e DAB2     		uxtb	r2, r3
 11167 3c50 134B     		ldr	r3, .L697
 11168 3c52 5A73     		strb	r2, [r3, #13]
2321:.\main.c      **** 				rf_mod[14]=rventa2.dinero[6] + 48;
 11169              		.loc 1 2321 0
 11170 3c54 174B     		ldr	r3, .L697+20
 11171 3c56 5B7B     		ldrb	r3, [r3, #13]	@ zero_extendqisi2
 11172 3c58 3033     		adds	r3, r3, #48
 11173 3c5a DAB2     		uxtb	r2, r3
 11174 3c5c 104B     		ldr	r3, .L697
ARM GAS  C:\Users\RECEPC~1\AppData\Local\Temp\cc2OimPl.s 			page 243


 11175 3c5e 9A73     		strb	r2, [r3, #14]
2322:.\main.c      **** 				rf_mod[15]=rventa2.dinero[5] + 48;
 11176              		.loc 1 2322 0
 11177 3c60 144B     		ldr	r3, .L697+20
 11178 3c62 1B7B     		ldrb	r3, [r3, #12]	@ zero_extendqisi2
 11179 3c64 3033     		adds	r3, r3, #48
 11180 3c66 DAB2     		uxtb	r2, r3
 11181 3c68 0D4B     		ldr	r3, .L697
 11182 3c6a DA73     		strb	r2, [r3, #15]
2323:.\main.c      **** 				rf_mod[16]=rventa2.dinero[4] + 48;
 11183              		.loc 1 2323 0
 11184 3c6c 114B     		ldr	r3, .L697+20
 11185 3c6e DB7A     		ldrb	r3, [r3, #11]	@ zero_extendqisi2
 11186 3c70 3033     		adds	r3, r3, #48
 11187 3c72 DAB2     		uxtb	r2, r3
 11188 3c74 0A4B     		ldr	r3, .L697
 11189 3c76 1A74     		strb	r2, [r3, #16]
2324:.\main.c      **** 				rf_mod[17]=rventa2.dinero[3] + 48;
 11190              		.loc 1 2324 0
 11191 3c78 0E4B     		ldr	r3, .L697+20
 11192 3c7a 9B7A     		ldrb	r3, [r3, #10]	@ zero_extendqisi2
 11193 3c7c 3033     		adds	r3, r3, #48
 11194 3c7e DAB2     		uxtb	r2, r3
 11195 3c80 074B     		ldr	r3, .L697
 11196 3c82 5A74     		strb	r2, [r3, #17]
2325:.\main.c      **** 				rf_mod[18]=rventa2.dinero[2] + 48;
 11197              		.loc 1 2325 0
 11198 3c84 0B4B     		ldr	r3, .L697+20
 11199 3c86 5B7A     		ldrb	r3, [r3, #9]	@ zero_extendqisi2
 11200 3c88 3033     		adds	r3, r3, #48
 11201 3c8a DAB2     		uxtb	r2, r3
 11202 3c8c 044B     		ldr	r3, .L697
 11203 3c8e 9A74     		strb	r2, [r3, #18]
2326:.\main.c      **** 				rf_mod[19]=rventa2.dinero[1] + 48;					
 11204              		.loc 1 2326 0
 11205 3c90 084B     		ldr	r3, .L697+20
 11206 3c92 1B7A     		ldrb	r3, [r3, #8]	@ zero_extendqisi2
 11207 3c94 3033     		adds	r3, r3, #48
 11208 3c96 DAB2     		uxtb	r2, r3
 11209 3c98 014B     		ldr	r3, .L697
 11210 3c9a DA74     		strb	r2, [r3, #19]
 11211 3c9c 3AE0     		b	.L552
 11212              	.L698:
 11213 3c9e 00BF     		.align	2
 11214              	.L697:
 11215 3ca0 00000000 		.word	rf_mod
 11216 3ca4 00000000 		.word	estado_tanqueando
 11217 3ca8 00000000 		.word	rventa1
 11218 3cac 00000000 		.word	lado1
 11219 3cb0 00000000 		.word	seleccion_pos
 11220 3cb4 00000000 		.word	rventa2
 11221 3cb8 00000000 		.word	lado2
 11222 3cbc 00000000 		.word	version
 11223              	.L551:
2327:.\main.c      **** 			}
2328:.\main.c      **** 			else{
2329:.\main.c      **** 				rf_mod[13]=rventa2.dinero[6] + 48;	//Dinero 6 digitos 
ARM GAS  C:\Users\RECEPC~1\AppData\Local\Temp\cc2OimPl.s 			page 244


 11224              		.loc 1 2329 0
 11225 3cc0 664B     		ldr	r3, .L699
 11226 3cc2 5B7B     		ldrb	r3, [r3, #13]	@ zero_extendqisi2
 11227 3cc4 3033     		adds	r3, r3, #48
 11228 3cc6 DAB2     		uxtb	r2, r3
 11229 3cc8 654B     		ldr	r3, .L699+4
 11230 3cca 5A73     		strb	r2, [r3, #13]
2330:.\main.c      **** 				rf_mod[14]=rventa2.dinero[5] + 48;
 11231              		.loc 1 2330 0
 11232 3ccc 634B     		ldr	r3, .L699
 11233 3cce 1B7B     		ldrb	r3, [r3, #12]	@ zero_extendqisi2
 11234 3cd0 3033     		adds	r3, r3, #48
 11235 3cd2 DAB2     		uxtb	r2, r3
 11236 3cd4 624B     		ldr	r3, .L699+4
 11237 3cd6 9A73     		strb	r2, [r3, #14]
2331:.\main.c      **** 				rf_mod[15]=rventa2.dinero[4] + 48;
 11238              		.loc 1 2331 0
 11239 3cd8 604B     		ldr	r3, .L699
 11240 3cda DB7A     		ldrb	r3, [r3, #11]	@ zero_extendqisi2
 11241 3cdc 3033     		adds	r3, r3, #48
 11242 3cde DAB2     		uxtb	r2, r3
 11243 3ce0 5F4B     		ldr	r3, .L699+4
 11244 3ce2 DA73     		strb	r2, [r3, #15]
2332:.\main.c      **** 				rf_mod[16]=rventa2.dinero[3] + 48;
 11245              		.loc 1 2332 0
 11246 3ce4 5D4B     		ldr	r3, .L699
 11247 3ce6 9B7A     		ldrb	r3, [r3, #10]	@ zero_extendqisi2
 11248 3ce8 3033     		adds	r3, r3, #48
 11249 3cea DAB2     		uxtb	r2, r3
 11250 3cec 5C4B     		ldr	r3, .L699+4
 11251 3cee 1A74     		strb	r2, [r3, #16]
2333:.\main.c      **** 				rf_mod[17]=rventa2.dinero[2] + 48;
 11252              		.loc 1 2333 0
 11253 3cf0 5A4B     		ldr	r3, .L699
 11254 3cf2 5B7A     		ldrb	r3, [r3, #9]	@ zero_extendqisi2
 11255 3cf4 3033     		adds	r3, r3, #48
 11256 3cf6 DAB2     		uxtb	r2, r3
 11257 3cf8 594B     		ldr	r3, .L699+4
 11258 3cfa 5A74     		strb	r2, [r3, #17]
2334:.\main.c      **** 				rf_mod[18]=rventa2.dinero[1] + 48;					
 11259              		.loc 1 2334 0
 11260 3cfc 574B     		ldr	r3, .L699
 11261 3cfe 1B7A     		ldrb	r3, [r3, #8]	@ zero_extendqisi2
 11262 3d00 3033     		adds	r3, r3, #48
 11263 3d02 DAB2     		uxtb	r2, r3
 11264 3d04 564B     		ldr	r3, .L699+4
 11265 3d06 9A74     		strb	r2, [r3, #18]
2335:.\main.c      **** 				rf_mod[19]=rventa2.dinero[0] + 48;
 11266              		.loc 1 2335 0
 11267 3d08 544B     		ldr	r3, .L699
 11268 3d0a DB79     		ldrb	r3, [r3, #7]	@ zero_extendqisi2
 11269 3d0c 3033     		adds	r3, r3, #48
 11270 3d0e DAB2     		uxtb	r2, r3
 11271 3d10 534B     		ldr	r3, .L699+4
 11272 3d12 DA74     		strb	r2, [r3, #19]
 11273              	.L552:
2336:.\main.c      **** 			}
ARM GAS  C:\Users\RECEPC~1\AppData\Local\Temp\cc2OimPl.s 			page 245


2337:.\main.c      ****             if(ppux10==0){
 11274              		.loc 1 2337 0
 11275 3d14 534B     		ldr	r3, .L699+8
 11276 3d16 1B78     		ldrb	r3, [r3]
 11277 3d18 DBB2     		uxtb	r3, r3
 11278 3d1a 002B     		cmp	r3, #0
 11279 3d1c 1DD1     		bne	.L553
2338:.\main.c      ****     			rf_mod[20]=rventa2.ppu[4] + 48;			//PPU
 11280              		.loc 1 2338 0
 11281 3d1e 4F4B     		ldr	r3, .L699
 11282 3d20 9B79     		ldrb	r3, [r3, #6]	@ zero_extendqisi2
 11283 3d22 3033     		adds	r3, r3, #48
 11284 3d24 DAB2     		uxtb	r2, r3
 11285 3d26 4E4B     		ldr	r3, .L699+4
 11286 3d28 1A75     		strb	r2, [r3, #20]
2339:.\main.c      ****     			rf_mod[21]=rventa2.ppu[3] + 48;
 11287              		.loc 1 2339 0
 11288 3d2a 4C4B     		ldr	r3, .L699
 11289 3d2c 5B79     		ldrb	r3, [r3, #5]	@ zero_extendqisi2
 11290 3d2e 3033     		adds	r3, r3, #48
 11291 3d30 DAB2     		uxtb	r2, r3
 11292 3d32 4B4B     		ldr	r3, .L699+4
 11293 3d34 5A75     		strb	r2, [r3, #21]
2340:.\main.c      ****     			rf_mod[22]=rventa2.ppu[2] + 48;
 11294              		.loc 1 2340 0
 11295 3d36 494B     		ldr	r3, .L699
 11296 3d38 1B79     		ldrb	r3, [r3, #4]	@ zero_extendqisi2
 11297 3d3a 3033     		adds	r3, r3, #48
 11298 3d3c DAB2     		uxtb	r2, r3
 11299 3d3e 484B     		ldr	r3, .L699+4
 11300 3d40 9A75     		strb	r2, [r3, #22]
2341:.\main.c      ****     			rf_mod[23]=rventa2.ppu[1] + 48;
 11301              		.loc 1 2341 0
 11302 3d42 464B     		ldr	r3, .L699
 11303 3d44 DB78     		ldrb	r3, [r3, #3]	@ zero_extendqisi2
 11304 3d46 3033     		adds	r3, r3, #48
 11305 3d48 DAB2     		uxtb	r2, r3
 11306 3d4a 454B     		ldr	r3, .L699+4
 11307 3d4c DA75     		strb	r2, [r3, #23]
2342:.\main.c      ****     			rf_mod[24]=rventa2.ppu[0] + 48;
 11308              		.loc 1 2342 0
 11309 3d4e 434B     		ldr	r3, .L699
 11310 3d50 9B78     		ldrb	r3, [r3, #2]	@ zero_extendqisi2
 11311 3d52 3033     		adds	r3, r3, #48
 11312 3d54 DAB2     		uxtb	r2, r3
 11313 3d56 424B     		ldr	r3, .L699+4
 11314 3d58 1A76     		strb	r2, [r3, #24]
 11315              	.L553:
2343:.\main.c      ****             }
2344:.\main.c      ****             if(ppux10==1){
 11316              		.loc 1 2344 0
 11317 3d5a 424B     		ldr	r3, .L699+8
 11318 3d5c 1B78     		ldrb	r3, [r3]
 11319 3d5e DBB2     		uxtb	r3, r3
 11320 3d60 012B     		cmp	r3, #1
 11321 3d62 1AD1     		bne	.L554
2345:.\main.c      ****     			rf_mod[20]=rventa2.ppu[3] + 48;			//PPU x10
ARM GAS  C:\Users\RECEPC~1\AppData\Local\Temp\cc2OimPl.s 			page 246


 11322              		.loc 1 2345 0
 11323 3d64 3D4B     		ldr	r3, .L699
 11324 3d66 5B79     		ldrb	r3, [r3, #5]	@ zero_extendqisi2
 11325 3d68 3033     		adds	r3, r3, #48
 11326 3d6a DAB2     		uxtb	r2, r3
 11327 3d6c 3C4B     		ldr	r3, .L699+4
 11328 3d6e 1A75     		strb	r2, [r3, #20]
2346:.\main.c      ****     			rf_mod[21]=rventa2.ppu[2] + 48;
 11329              		.loc 1 2346 0
 11330 3d70 3A4B     		ldr	r3, .L699
 11331 3d72 1B79     		ldrb	r3, [r3, #4]	@ zero_extendqisi2
 11332 3d74 3033     		adds	r3, r3, #48
 11333 3d76 DAB2     		uxtb	r2, r3
 11334 3d78 394B     		ldr	r3, .L699+4
 11335 3d7a 5A75     		strb	r2, [r3, #21]
2347:.\main.c      ****     			rf_mod[22]=rventa2.ppu[1] + 48;
 11336              		.loc 1 2347 0
 11337 3d7c 374B     		ldr	r3, .L699
 11338 3d7e DB78     		ldrb	r3, [r3, #3]	@ zero_extendqisi2
 11339 3d80 3033     		adds	r3, r3, #48
 11340 3d82 DAB2     		uxtb	r2, r3
 11341 3d84 364B     		ldr	r3, .L699+4
 11342 3d86 9A75     		strb	r2, [r3, #22]
2348:.\main.c      ****     			rf_mod[23]=rventa2.ppu[0] + 48;
 11343              		.loc 1 2348 0
 11344 3d88 344B     		ldr	r3, .L699
 11345 3d8a 9B78     		ldrb	r3, [r3, #2]	@ zero_extendqisi2
 11346 3d8c 3033     		adds	r3, r3, #48
 11347 3d8e DAB2     		uxtb	r2, r3
 11348 3d90 334B     		ldr	r3, .L699+4
 11349 3d92 DA75     		strb	r2, [r3, #23]
2349:.\main.c      ****     			rf_mod[24]=48;
 11350              		.loc 1 2349 0
 11351 3d94 324B     		ldr	r3, .L699+4
 11352 3d96 3022     		movs	r2, #48
 11353 3d98 1A76     		strb	r2, [r3, #24]
 11354              	.L554:
2350:.\main.c      ****             }
2351:.\main.c      **** 			rf_mod[25]=id_estacion[4];				//Id Estacion	
 11355              		.loc 1 2351 0
 11356 3d9a 334B     		ldr	r3, .L699+12
 11357 3d9c 1B79     		ldrb	r3, [r3, #4]
 11358 3d9e DAB2     		uxtb	r2, r3
 11359 3da0 2F4B     		ldr	r3, .L699+4
 11360 3da2 5A76     		strb	r2, [r3, #25]
2352:.\main.c      **** 			rf_mod[26]=id_estacion[3];
 11361              		.loc 1 2352 0
 11362 3da4 304B     		ldr	r3, .L699+12
 11363 3da6 DB78     		ldrb	r3, [r3, #3]
 11364 3da8 DAB2     		uxtb	r2, r3
 11365 3daa 2D4B     		ldr	r3, .L699+4
 11366 3dac 9A76     		strb	r2, [r3, #26]
2353:.\main.c      **** 			rf_mod[27]=id_estacion[2];
 11367              		.loc 1 2353 0
 11368 3dae 2E4B     		ldr	r3, .L699+12
 11369 3db0 9B78     		ldrb	r3, [r3, #2]
 11370 3db2 DAB2     		uxtb	r2, r3
ARM GAS  C:\Users\RECEPC~1\AppData\Local\Temp\cc2OimPl.s 			page 247


 11371 3db4 2A4B     		ldr	r3, .L699+4
 11372 3db6 DA76     		strb	r2, [r3, #27]
2354:.\main.c      **** 			rf_mod[28]=id_estacion[1];
 11373              		.loc 1 2354 0
 11374 3db8 2B4B     		ldr	r3, .L699+12
 11375 3dba 5B78     		ldrb	r3, [r3, #1]
 11376 3dbc DAB2     		uxtb	r2, r3
 11377 3dbe 284B     		ldr	r3, .L699+4
 11378 3dc0 1A77     		strb	r2, [r3, #28]
2355:.\main.c      **** 			
2356:.\main.c      ****             if(tipo_venta == 1){
 11379              		.loc 1 2356 0
 11380 3dc2 2A4B     		ldr	r3, .L699+16
 11381 3dc4 1B78     		ldrb	r3, [r3]	@ zero_extendqisi2
 11382 3dc6 012B     		cmp	r3, #1
 11383 3dc8 43D1     		bne	.L555
2357:.\main.c      ****                 for(x=0;x<=15;x++){						//Serial				
 11384              		.loc 1 2357 0
 11385 3dca 0023     		movs	r3, #0
 11386 3dcc 87F82F30 		strb	r3, [r7, #47]
 11387 3dd0 3AE0     		b	.L556
 11388              	.L559:
2358:.\main.c      **** 				    y=(rventa2.id[x/2]>>4)&0x0F;
 11389              		.loc 1 2358 0
 11390 3dd2 97F82F30 		ldrb	r3, [r7, #47]	@ zero_extendqisi2
 11391 3dd6 5B08     		lsrs	r3, r3, #1
 11392 3dd8 DBB2     		uxtb	r3, r3
 11393 3dda 1A46     		mov	r2, r3
 11394 3ddc 1F4B     		ldr	r3, .L699
 11395 3dde 1344     		add	r3, r3, r2
 11396 3de0 93F82330 		ldrb	r3, [r3, #35]	@ zero_extendqisi2
 11397 3de4 1B09     		lsrs	r3, r3, #4
 11398 3de6 87F82E30 		strb	r3, [r7, #46]
2359:.\main.c      **** 				    if((x%2)==0){
 11399              		.loc 1 2359 0
 11400 3dea 97F82F30 		ldrb	r3, [r7, #47]
 11401 3dee 03F00103 		and	r3, r3, #1
 11402 3df2 DBB2     		uxtb	r3, r3
 11403 3df4 002B     		cmp	r3, #0
 11404 3df6 0CD1     		bne	.L557
2360:.\main.c      **** 					    y=rventa2.id[x/2]&0x0F;
 11405              		.loc 1 2360 0
 11406 3df8 97F82F30 		ldrb	r3, [r7, #47]	@ zero_extendqisi2
 11407 3dfc 5B08     		lsrs	r3, r3, #1
 11408 3dfe DBB2     		uxtb	r3, r3
 11409 3e00 1A46     		mov	r2, r3
 11410 3e02 164B     		ldr	r3, .L699
 11411 3e04 1344     		add	r3, r3, r2
 11412 3e06 93F82330 		ldrb	r3, [r3, #35]	@ zero_extendqisi2
 11413 3e0a 03F00F03 		and	r3, r3, #15
 11414 3e0e 87F82E30 		strb	r3, [r7, #46]
 11415              	.L557:
2361:.\main.c      **** 				    }
2362:.\main.c      **** 				    rf_mod[x+29] = y+48;
 11416              		.loc 1 2362 0
 11417 3e12 97F82F30 		ldrb	r3, [r7, #47]	@ zero_extendqisi2
 11418 3e16 1D33     		adds	r3, r3, #29
ARM GAS  C:\Users\RECEPC~1\AppData\Local\Temp\cc2OimPl.s 			page 248


 11419 3e18 97F82E20 		ldrb	r2, [r7, #46]
 11420 3e1c 3032     		adds	r2, r2, #48
 11421 3e1e D1B2     		uxtb	r1, r2
 11422 3e20 0F4A     		ldr	r2, .L699+4
 11423 3e22 D154     		strb	r1, [r2, r3]
2363:.\main.c      **** 				    if(y>9){
 11424              		.loc 1 2363 0
 11425 3e24 97F82E30 		ldrb	r3, [r7, #46]	@ zero_extendqisi2
 11426 3e28 092B     		cmp	r3, #9
 11427 3e2a 08D9     		bls	.L558
2364:.\main.c      **** 					    rf_mod[x+29] = y+55;
 11428              		.loc 1 2364 0
 11429 3e2c 97F82F30 		ldrb	r3, [r7, #47]	@ zero_extendqisi2
 11430 3e30 1D33     		adds	r3, r3, #29
 11431 3e32 97F82E20 		ldrb	r2, [r7, #46]
 11432 3e36 3732     		adds	r2, r2, #55
 11433 3e38 D1B2     		uxtb	r1, r2
 11434 3e3a 094A     		ldr	r2, .L699+4
 11435 3e3c D154     		strb	r1, [r2, r3]
 11436              	.L558:
2357:.\main.c      **** 				    y=(rventa2.id[x/2]>>4)&0x0F;
 11437              		.loc 1 2357 0 discriminator 2
 11438 3e3e 97F82F30 		ldrb	r3, [r7, #47]	@ zero_extendqisi2
 11439 3e42 0133     		adds	r3, r3, #1
 11440 3e44 87F82F30 		strb	r3, [r7, #47]
 11441              	.L556:
2357:.\main.c      **** 				    y=(rventa2.id[x/2]>>4)&0x0F;
 11442              		.loc 1 2357 0 is_stmt 0 discriminator 1
 11443 3e48 97F82F30 		ldrb	r3, [r7, #47]	@ zero_extendqisi2
 11444 3e4c 0F2B     		cmp	r3, #15
 11445 3e4e C0D9     		bls	.L559
 11446 3e50 4DE0     		b	.L560
 11447              	.L555:
2365:.\main.c      **** 				    }
2366:.\main.c      **** 			    }
2367:.\main.c      ****             }else{
2368:.\main.c      ****                 for(x=0;x<=15;x++){						//Serial				
 11448              		.loc 1 2368 0 is_stmt 1
 11449 3e52 0023     		movs	r3, #0
 11450 3e54 87F82F30 		strb	r3, [r7, #47]
 11451 3e58 45E0     		b	.L561
 11452              	.L700:
 11453 3e5a 00BF     		.align	2
 11454              	.L699:
 11455 3e5c 00000000 		.word	rventa2
 11456 3e60 00000000 		.word	rf_mod
 11457 3e64 00000000 		.word	ppux10
 11458 3e68 00000000 		.word	id_estacion
 11459 3e6c 00000000 		.word	tipo_venta
 11460              	.L564:
2369:.\main.c      **** 				    y=(rventa2.id[x/2]>>4)&0x0F;
 11461              		.loc 1 2369 0
 11462 3e70 97F82F30 		ldrb	r3, [r7, #47]	@ zero_extendqisi2
 11463 3e74 5B08     		lsrs	r3, r3, #1
 11464 3e76 DBB2     		uxtb	r3, r3
 11465 3e78 1A46     		mov	r2, r3
 11466 3e7a B04B     		ldr	r3, .L701
ARM GAS  C:\Users\RECEPC~1\AppData\Local\Temp\cc2OimPl.s 			page 249


 11467 3e7c 1344     		add	r3, r3, r2
 11468 3e7e 93F82330 		ldrb	r3, [r3, #35]	@ zero_extendqisi2
 11469 3e82 1B09     		lsrs	r3, r3, #4
 11470 3e84 87F82E30 		strb	r3, [r7, #46]
2370:.\main.c      **** 				    if((x%2)==0){
 11471              		.loc 1 2370 0
 11472 3e88 97F82F30 		ldrb	r3, [r7, #47]
 11473 3e8c 03F00103 		and	r3, r3, #1
 11474 3e90 DBB2     		uxtb	r3, r3
 11475 3e92 002B     		cmp	r3, #0
 11476 3e94 0CD1     		bne	.L562
2371:.\main.c      **** 					    y=rventa2.id[x/2]&0x0F;
 11477              		.loc 1 2371 0
 11478 3e96 97F82F30 		ldrb	r3, [r7, #47]	@ zero_extendqisi2
 11479 3e9a 5B08     		lsrs	r3, r3, #1
 11480 3e9c DBB2     		uxtb	r3, r3
 11481 3e9e 1A46     		mov	r2, r3
 11482 3ea0 A64B     		ldr	r3, .L701
 11483 3ea2 1344     		add	r3, r3, r2
 11484 3ea4 93F82330 		ldrb	r3, [r3, #35]	@ zero_extendqisi2
 11485 3ea8 03F00F03 		and	r3, r3, #15
 11486 3eac 87F82E30 		strb	r3, [r7, #46]
 11487              	.L562:
2372:.\main.c      **** 				    }
2373:.\main.c      **** 				    rf_mod[x+29] = y+48;
 11488              		.loc 1 2373 0
 11489 3eb0 97F82F30 		ldrb	r3, [r7, #47]	@ zero_extendqisi2
 11490 3eb4 1D33     		adds	r3, r3, #29
 11491 3eb6 97F82E20 		ldrb	r2, [r7, #46]
 11492 3eba 3032     		adds	r2, r2, #48
 11493 3ebc D1B2     		uxtb	r1, r2
 11494 3ebe A04A     		ldr	r2, .L701+4
 11495 3ec0 D154     		strb	r1, [r2, r3]
2374:.\main.c      **** 				    if(y>9){
 11496              		.loc 1 2374 0
 11497 3ec2 97F82E30 		ldrb	r3, [r7, #46]	@ zero_extendqisi2
 11498 3ec6 092B     		cmp	r3, #9
 11499 3ec8 08D9     		bls	.L563
2375:.\main.c      **** 					    rf_mod[x+29] = y+55;
 11500              		.loc 1 2375 0
 11501 3eca 97F82F30 		ldrb	r3, [r7, #47]	@ zero_extendqisi2
 11502 3ece 1D33     		adds	r3, r3, #29
 11503 3ed0 97F82E20 		ldrb	r2, [r7, #46]
 11504 3ed4 3732     		adds	r2, r2, #55
 11505 3ed6 D1B2     		uxtb	r1, r2
 11506 3ed8 994A     		ldr	r2, .L701+4
 11507 3eda D154     		strb	r1, [r2, r3]
 11508              	.L563:
2368:.\main.c      **** 				    y=(rventa2.id[x/2]>>4)&0x0F;
 11509              		.loc 1 2368 0 discriminator 2
 11510 3edc 97F82F30 		ldrb	r3, [r7, #47]	@ zero_extendqisi2
 11511 3ee0 0133     		adds	r3, r3, #1
 11512 3ee2 87F82F30 		strb	r3, [r7, #47]
 11513              	.L561:
2368:.\main.c      **** 				    y=(rventa2.id[x/2]>>4)&0x0F;
 11514              		.loc 1 2368 0 is_stmt 0 discriminator 1
 11515 3ee6 97F82F30 		ldrb	r3, [r7, #47]	@ zero_extendqisi2
ARM GAS  C:\Users\RECEPC~1\AppData\Local\Temp\cc2OimPl.s 			page 250


 11516 3eea 0F2B     		cmp	r3, #15
 11517 3eec C0D9     		bls	.L564
 11518              	.L560:
2376:.\main.c      **** 				    }
2377:.\main.c      **** 			    }               
2378:.\main.c      ****             }
2379:.\main.c      **** 			num_decimal2++;
 11519              		.loc 1 2379 0 is_stmt 1
 11520 3eee 954B     		ldr	r3, .L701+8
 11521 3ef0 1B88     		ldrh	r3, [r3]
 11522 3ef2 0133     		adds	r3, r3, #1
 11523 3ef4 9AB2     		uxth	r2, r3
 11524 3ef6 934B     		ldr	r3, .L701+8
 11525 3ef8 1A80     		strh	r2, [r3]	@ movhi
2380:.\main.c      **** 			id_venta[4]=(num_decimal2/1000)+48;
 11526              		.loc 1 2380 0
 11527 3efa 924B     		ldr	r3, .L701+8
 11528 3efc 1B88     		ldrh	r3, [r3]
 11529 3efe 924A     		ldr	r2, .L701+12
 11530 3f00 A2FB0323 		umull	r2, r3, r2, r3
 11531 3f04 9B09     		lsrs	r3, r3, #6
 11532 3f06 9BB2     		uxth	r3, r3
 11533 3f08 DBB2     		uxtb	r3, r3
 11534 3f0a 3033     		adds	r3, r3, #48
 11535 3f0c DAB2     		uxtb	r2, r3
 11536 3f0e 8F4B     		ldr	r3, .L701+16
 11537 3f10 1A71     		strb	r2, [r3, #4]
2381:.\main.c      **** 			id_venta[3]=((num_decimal2%1000)/100)+48;
 11538              		.loc 1 2381 0
 11539 3f12 8C4B     		ldr	r3, .L701+8
 11540 3f14 1B88     		ldrh	r3, [r3]
 11541 3f16 8C4A     		ldr	r2, .L701+12
 11542 3f18 A2FB0312 		umull	r1, r2, r2, r3
 11543 3f1c 9209     		lsrs	r2, r2, #6
 11544 3f1e 4FF47A71 		mov	r1, #1000
 11545 3f22 01FB02F2 		mul	r2, r1, r2
 11546 3f26 9B1A     		subs	r3, r3, r2
 11547 3f28 9BB2     		uxth	r3, r3
 11548 3f2a 894A     		ldr	r2, .L701+20
 11549 3f2c A2FB0323 		umull	r2, r3, r2, r3
 11550 3f30 5B09     		lsrs	r3, r3, #5
 11551 3f32 9BB2     		uxth	r3, r3
 11552 3f34 DBB2     		uxtb	r3, r3
 11553 3f36 3033     		adds	r3, r3, #48
 11554 3f38 DAB2     		uxtb	r2, r3
 11555 3f3a 844B     		ldr	r3, .L701+16
 11556 3f3c DA70     		strb	r2, [r3, #3]
2382:.\main.c      **** 			id_venta[2]=(((num_decimal2%1000)%100)/10)+48;
 11557              		.loc 1 2382 0
 11558 3f3e 814B     		ldr	r3, .L701+8
 11559 3f40 1B88     		ldrh	r3, [r3]
 11560 3f42 814A     		ldr	r2, .L701+12
 11561 3f44 A2FB0312 		umull	r1, r2, r2, r3
 11562 3f48 9209     		lsrs	r2, r2, #6
 11563 3f4a 4FF47A71 		mov	r1, #1000
 11564 3f4e 01FB02F2 		mul	r2, r1, r2
 11565 3f52 9B1A     		subs	r3, r3, r2
ARM GAS  C:\Users\RECEPC~1\AppData\Local\Temp\cc2OimPl.s 			page 251


 11566 3f54 9BB2     		uxth	r3, r3
 11567 3f56 7E4A     		ldr	r2, .L701+20
 11568 3f58 A2FB0312 		umull	r1, r2, r2, r3
 11569 3f5c 5209     		lsrs	r2, r2, #5
 11570 3f5e 6421     		movs	r1, #100
 11571 3f60 01FB02F2 		mul	r2, r1, r2
 11572 3f64 9B1A     		subs	r3, r3, r2
 11573 3f66 9BB2     		uxth	r3, r3
 11574 3f68 7A4A     		ldr	r2, .L701+24
 11575 3f6a A2FB0323 		umull	r2, r3, r2, r3
 11576 3f6e DB08     		lsrs	r3, r3, #3
 11577 3f70 9BB2     		uxth	r3, r3
 11578 3f72 DBB2     		uxtb	r3, r3
 11579 3f74 3033     		adds	r3, r3, #48
 11580 3f76 DAB2     		uxtb	r2, r3
 11581 3f78 744B     		ldr	r3, .L701+16
 11582 3f7a 9A70     		strb	r2, [r3, #2]
2383:.\main.c      **** 			id_venta[1]=(((num_decimal2%1000)%100)%10)+48; 
 11583              		.loc 1 2383 0
 11584 3f7c 714B     		ldr	r3, .L701+8
 11585 3f7e 1B88     		ldrh	r3, [r3]
 11586 3f80 714A     		ldr	r2, .L701+12
 11587 3f82 A2FB0312 		umull	r1, r2, r2, r3
 11588 3f86 9209     		lsrs	r2, r2, #6
 11589 3f88 4FF47A71 		mov	r1, #1000
 11590 3f8c 01FB02F2 		mul	r2, r1, r2
 11591 3f90 9B1A     		subs	r3, r3, r2
 11592 3f92 9BB2     		uxth	r3, r3
 11593 3f94 6E4A     		ldr	r2, .L701+20
 11594 3f96 A2FB0312 		umull	r1, r2, r2, r3
 11595 3f9a 5209     		lsrs	r2, r2, #5
 11596 3f9c 6421     		movs	r1, #100
 11597 3f9e 01FB02F2 		mul	r2, r1, r2
 11598 3fa2 9B1A     		subs	r3, r3, r2
 11599 3fa4 9AB2     		uxth	r2, r3
 11600 3fa6 6B4B     		ldr	r3, .L701+24
 11601 3fa8 A3FB0213 		umull	r1, r3, r3, r2
 11602 3fac D908     		lsrs	r1, r3, #3
 11603 3fae 0B46     		mov	r3, r1
 11604 3fb0 9B00     		lsls	r3, r3, #2
 11605 3fb2 0B44     		add	r3, r3, r1
 11606 3fb4 5B00     		lsls	r3, r3, #1
 11607 3fb6 D31A     		subs	r3, r2, r3
 11608 3fb8 9BB2     		uxth	r3, r3
 11609 3fba DBB2     		uxtb	r3, r3
 11610 3fbc 3033     		adds	r3, r3, #48
 11611 3fbe DAB2     		uxtb	r2, r3
 11612 3fc0 624B     		ldr	r3, .L701+16
 11613 3fc2 5A70     		strb	r2, [r3, #1]
2384:.\main.c      **** 			for(x=1;x<=7;x++){						//Id de Venta
 11614              		.loc 1 2384 0
 11615 3fc4 0123     		movs	r3, #1
 11616 3fc6 87F82F30 		strb	r3, [r7, #47]
 11617 3fca 0EE0     		b	.L565
 11618              	.L566:
2385:.\main.c      **** 				rf_mod[44+x]=id_venta[x];
 11619              		.loc 1 2385 0 discriminator 3
ARM GAS  C:\Users\RECEPC~1\AppData\Local\Temp\cc2OimPl.s 			page 252


 11620 3fcc 97F82F30 		ldrb	r3, [r7, #47]	@ zero_extendqisi2
 11621 3fd0 2C33     		adds	r3, r3, #44
 11622 3fd2 97F82F20 		ldrb	r2, [r7, #47]	@ zero_extendqisi2
 11623 3fd6 5D49     		ldr	r1, .L701+16
 11624 3fd8 8A5C     		ldrb	r2, [r1, r2]
 11625 3fda D1B2     		uxtb	r1, r2
 11626 3fdc 584A     		ldr	r2, .L701+4
 11627 3fde D154     		strb	r1, [r2, r3]
2384:.\main.c      **** 			for(x=1;x<=7;x++){						//Id de Venta
 11628              		.loc 1 2384 0 discriminator 3
 11629 3fe0 97F82F30 		ldrb	r3, [r7, #47]	@ zero_extendqisi2
 11630 3fe4 0133     		adds	r3, r3, #1
 11631 3fe6 87F82F30 		strb	r3, [r7, #47]
 11632              	.L565:
2384:.\main.c      **** 			for(x=1;x<=7;x++){						//Id de Venta
 11633              		.loc 1 2384 0 is_stmt 0 discriminator 1
 11634 3fea 97F82F30 		ldrb	r3, [r7, #47]	@ zero_extendqisi2
 11635 3fee 072B     		cmp	r3, #7
 11636 3ff0 ECD9     		bls	.L566
2386:.\main.c      **** 			}
2387:.\main.c      **** 			for(x=1;x<=4;x++){						//Guarda Id venta
 11637              		.loc 1 2387 0 is_stmt 1
 11638 3ff2 0123     		movs	r3, #1
 11639 3ff4 87F82F30 		strb	r3, [r7, #47]
 11640 3ff8 10E0     		b	.L567
 11641              	.L568:
2388:.\main.c      **** 				EEPROM_WriteByte(id_venta[x],x);
 11642              		.loc 1 2388 0 discriminator 3
 11643 3ffa 97F82F30 		ldrb	r3, [r7, #47]	@ zero_extendqisi2
 11644 3ffe 534A     		ldr	r2, .L701+16
 11645 4000 D35C     		ldrb	r3, [r2, r3]
 11646 4002 DAB2     		uxtb	r2, r3
 11647 4004 97F82F30 		ldrb	r3, [r7, #47]	@ zero_extendqisi2
 11648 4008 9BB2     		uxth	r3, r3
 11649 400a 1046     		mov	r0, r2
 11650 400c 1946     		mov	r1, r3
 11651 400e FFF7FEFF 		bl	EEPROM_WriteByte
2387:.\main.c      **** 				EEPROM_WriteByte(id_venta[x],x);
 11652              		.loc 1 2387 0 discriminator 3
 11653 4012 97F82F30 		ldrb	r3, [r7, #47]	@ zero_extendqisi2
 11654 4016 0133     		adds	r3, r3, #1
 11655 4018 87F82F30 		strb	r3, [r7, #47]
 11656              	.L567:
2387:.\main.c      **** 				EEPROM_WriteByte(id_venta[x],x);
 11657              		.loc 1 2387 0 is_stmt 0 discriminator 1
 11658 401c 97F82F30 		ldrb	r3, [r7, #47]	@ zero_extendqisi2
 11659 4020 042B     		cmp	r3, #4
 11660 4022 EAD9     		bls	.L568
2389:.\main.c      **** 			}
2390:.\main.c      **** 			for(x=0;x<=6;x++){						//Km
 11661              		.loc 1 2390 0 is_stmt 1
 11662 4024 0023     		movs	r3, #0
 11663 4026 87F82F30 		strb	r3, [r7, #47]
 11664 402a 12E0     		b	.L569
 11665              	.L570:
2391:.\main.c      **** 				rf_mod[52+x]=rventa2.km[x+1] + 48;
 11666              		.loc 1 2391 0 discriminator 3
ARM GAS  C:\Users\RECEPC~1\AppData\Local\Temp\cc2OimPl.s 			page 253


 11667 402c 97F82F30 		ldrb	r3, [r7, #47]	@ zero_extendqisi2
 11668 4030 3433     		adds	r3, r3, #52
 11669 4032 97F82F20 		ldrb	r2, [r7, #47]	@ zero_extendqisi2
 11670 4036 0132     		adds	r2, r2, #1
 11671 4038 4049     		ldr	r1, .L701
 11672 403a 0A44     		add	r2, r2, r1
 11673 403c 92F84320 		ldrb	r2, [r2, #67]	@ zero_extendqisi2
 11674 4040 3032     		adds	r2, r2, #48
 11675 4042 D1B2     		uxtb	r1, r2
 11676 4044 3E4A     		ldr	r2, .L701+4
 11677 4046 D154     		strb	r1, [r2, r3]
2390:.\main.c      **** 				rf_mod[52+x]=rventa2.km[x+1] + 48;
 11678              		.loc 1 2390 0 discriminator 3
 11679 4048 97F82F30 		ldrb	r3, [r7, #47]	@ zero_extendqisi2
 11680 404c 0133     		adds	r3, r3, #1
 11681 404e 87F82F30 		strb	r3, [r7, #47]
 11682              	.L569:
2390:.\main.c      **** 				rf_mod[52+x]=rventa2.km[x+1] + 48;
 11683              		.loc 1 2390 0 is_stmt 0 discriminator 1
 11684 4052 97F82F30 		ldrb	r3, [r7, #47]	@ zero_extendqisi2
 11685 4056 062B     		cmp	r3, #6
 11686 4058 E8D9     		bls	.L570
2392:.\main.c      **** 			}				
2393:.\main.c      **** 			rf_mod[59]='*';
 11687              		.loc 1 2393 0 is_stmt 1
 11688 405a 394B     		ldr	r3, .L701+4
 11689 405c 2A22     		movs	r2, #42
 11690 405e 83F83B20 		strb	r2, [r3, #59]
2394:.\main.c      **** 			PC_ClearRxBuffer();				
 11691              		.loc 1 2394 0
 11692 4062 FFF7FEFF 		bl	PC_ClearRxBuffer
2395:.\main.c      **** 		    for(x=0;x<=59;x++){
 11693              		.loc 1 2395 0
 11694 4066 0023     		movs	r3, #0
 11695 4068 87F82F30 		strb	r3, [r7, #47]
 11696 406c 0BE0     		b	.L571
 11697              	.L572:
2396:.\main.c      **** 			   PC_PutChar(rf_mod[x]);
 11698              		.loc 1 2396 0 discriminator 3
 11699 406e 97F82F30 		ldrb	r3, [r7, #47]	@ zero_extendqisi2
 11700 4072 334A     		ldr	r2, .L701+4
 11701 4074 D35C     		ldrb	r3, [r2, r3]	@ zero_extendqisi2
 11702 4076 1846     		mov	r0, r3
 11703 4078 FFF7FEFF 		bl	PC_PutChar
2395:.\main.c      **** 		    for(x=0;x<=59;x++){
 11704              		.loc 1 2395 0 discriminator 3
 11705 407c 97F82F30 		ldrb	r3, [r7, #47]	@ zero_extendqisi2
 11706 4080 0133     		adds	r3, r3, #1
 11707 4082 87F82F30 		strb	r3, [r7, #47]
 11708              	.L571:
2395:.\main.c      **** 		    for(x=0;x<=59;x++){
 11709              		.loc 1 2395 0 is_stmt 0 discriminator 1
 11710 4086 97F82F30 		ldrb	r3, [r7, #47]	@ zero_extendqisi2
 11711 408a 3B2B     		cmp	r3, #59
 11712 408c EFD9     		bls	.L572
2397:.\main.c      **** 		    }            
2398:.\main.c      ****             PC_ClearRxBuffer();
ARM GAS  C:\Users\RECEPC~1\AppData\Local\Temp\cc2OimPl.s 			page 254


 11713              		.loc 1 2398 0 is_stmt 1
 11714 408e FFF7FEFF 		bl	PC_ClearRxBuffer
2399:.\main.c      **** 			CyDelay(300);
 11715              		.loc 1 2399 0
 11716 4092 4FF49670 		mov	r0, #300
 11717 4096 FFF7FEFF 		bl	CyDelay
2400:.\main.c      ****             PC_ClearTxBuffer();				
 11718              		.loc 1 2400 0
 11719 409a FFF7FEFF 		bl	PC_ClearTxBuffer
2401:.\main.c      ****             estado_tanqueando=0;				
 11720              		.loc 1 2401 0
 11721 409e 2E4B     		ldr	r3, .L701+28
 11722 40a0 0022     		movs	r2, #0
 11723 40a2 1A70     		strb	r2, [r3]
2402:.\main.c      **** 			precio[0]=lado1.ppu[rventa2.producto-1][0];
 11724              		.loc 1 2402 0
 11725 40a4 254B     		ldr	r3, .L701
 11726 40a6 5B7E     		ldrb	r3, [r3, #25]	@ zero_extendqisi2
 11727 40a8 5A1E     		subs	r2, r3, #1
 11728 40aa 2C49     		ldr	r1, .L701+32
 11729 40ac 1346     		mov	r3, r2
 11730 40ae 9B00     		lsls	r3, r3, #2
 11731 40b0 1344     		add	r3, r3, r2
 11732 40b2 0B44     		add	r3, r3, r1
 11733 40b4 4833     		adds	r3, r3, #72
 11734 40b6 9B78     		ldrb	r3, [r3, #2]
 11735 40b8 DBB2     		uxtb	r3, r3
 11736 40ba 3B73     		strb	r3, [r7, #12]
2403:.\main.c      **** 			precio[1]=lado1.ppu[rventa2.producto-1][1];
 11737              		.loc 1 2403 0
 11738 40bc 1F4B     		ldr	r3, .L701
 11739 40be 5B7E     		ldrb	r3, [r3, #25]	@ zero_extendqisi2
 11740 40c0 5A1E     		subs	r2, r3, #1
 11741 40c2 2649     		ldr	r1, .L701+32
 11742 40c4 1346     		mov	r3, r2
 11743 40c6 9B00     		lsls	r3, r3, #2
 11744 40c8 1344     		add	r3, r3, r2
 11745 40ca 0B44     		add	r3, r3, r1
 11746 40cc 4933     		adds	r3, r3, #73
 11747 40ce 9B78     		ldrb	r3, [r3, #2]
 11748 40d0 DBB2     		uxtb	r3, r3
 11749 40d2 7B73     		strb	r3, [r7, #13]
2404:.\main.c      **** 			precio[2]=lado1.ppu[rventa2.producto-1][2];
 11750              		.loc 1 2404 0
 11751 40d4 194B     		ldr	r3, .L701
 11752 40d6 5B7E     		ldrb	r3, [r3, #25]	@ zero_extendqisi2
 11753 40d8 5A1E     		subs	r2, r3, #1
 11754 40da 2049     		ldr	r1, .L701+32
 11755 40dc 1346     		mov	r3, r2
 11756 40de 9B00     		lsls	r3, r3, #2
 11757 40e0 1344     		add	r3, r3, r2
 11758 40e2 0B44     		add	r3, r3, r1
 11759 40e4 4A33     		adds	r3, r3, #74
 11760 40e6 9B78     		ldrb	r3, [r3, #2]
 11761 40e8 DBB2     		uxtb	r3, r3
 11762 40ea BB73     		strb	r3, [r7, #14]
2405:.\main.c      **** 			precio[3]=lado1.ppu[rventa2.producto-1][3];
ARM GAS  C:\Users\RECEPC~1\AppData\Local\Temp\cc2OimPl.s 			page 255


 11763              		.loc 1 2405 0
 11764 40ec 134B     		ldr	r3, .L701
 11765 40ee 5B7E     		ldrb	r3, [r3, #25]	@ zero_extendqisi2
 11766 40f0 5A1E     		subs	r2, r3, #1
 11767 40f2 1A49     		ldr	r1, .L701+32
 11768 40f4 1346     		mov	r3, r2
 11769 40f6 9B00     		lsls	r3, r3, #2
 11770 40f8 1344     		add	r3, r3, r2
 11771 40fa 0B44     		add	r3, r3, r1
 11772 40fc 4B33     		adds	r3, r3, #75
 11773 40fe 9B78     		ldrb	r3, [r3, #2]
 11774 4100 DBB2     		uxtb	r3, r3
 11775 4102 FB73     		strb	r3, [r7, #15]
2406:.\main.c      **** 			precio[4]=lado1.ppu[rventa2.producto-1][4];
 11776              		.loc 1 2406 0
 11777 4104 0D4B     		ldr	r3, .L701
 11778 4106 5B7E     		ldrb	r3, [r3, #25]	@ zero_extendqisi2
 11779 4108 5A1E     		subs	r2, r3, #1
 11780 410a 1449     		ldr	r1, .L701+32
 11781 410c 1346     		mov	r3, r2
 11782 410e 9B00     		lsls	r3, r3, #2
 11783 4110 1344     		add	r3, r3, r2
 11784 4112 0B44     		add	r3, r3, r1
 11785 4114 4C33     		adds	r3, r3, #76
 11786 4116 9B78     		ldrb	r3, [r3, #2]
 11787 4118 DBB2     		uxtb	r3, r3
 11788 411a 3B74     		strb	r3, [r7, #16]
2407:.\main.c      **** 			cambiar_precio(lado2.dir,precio,rventa2.producto);
 11789              		.loc 1 2407 0
 11790 411c 104B     		ldr	r3, .L701+36
 11791 411e 1B78     		ldrb	r3, [r3]
 11792 4120 D9B2     		uxtb	r1, r3
 11793 4122 064B     		ldr	r3, .L701
 11794 4124 5B7E     		ldrb	r3, [r3, #25]	@ zero_extendqisi2
 11795 4126 07F10C02 		add	r2, r7, #12
 11796 412a 0846     		mov	r0, r1
 11797 412c 1146     		mov	r1, r2
 11798 412e 1A46     		mov	r2, r3
 11799 4130 FFF7FEFF 		bl	cambiar_precio
2408:.\main.c      ****         }
2409:.\main.c      ****   
2410:.\main.c      ****         break;
 11800              		.loc 1 2410 0
 11801 4134 00F05ABC 		b	.L115
 11802              	.L550:
 11803              		.loc 1 2410 0 is_stmt 0 discriminator 15
 11804 4138 00F058BC 		b	.L115
 11805              	.L702:
 11806              		.align	2
 11807              	.L701:
 11808 413c 00000000 		.word	rventa2
 11809 4140 00000000 		.word	rf_mod
 11810 4144 00000000 		.word	num_decimal2
 11811 4148 D34D6210 		.word	274877907
 11812 414c 00000000 		.word	id_venta
 11813 4150 1F85EB51 		.word	1374389535
 11814 4154 CDCCCCCC 		.word	-858993459
ARM GAS  C:\Users\RECEPC~1\AppData\Local\Temp\cc2OimPl.s 			page 256


 11815 4158 00000000 		.word	estado_tanqueando
 11816 415c 00000000 		.word	lado1
 11817 4160 00000000 		.word	lado2
 11818              	.L130:
2411:.\main.c      ****          
2412:.\main.c      ****         case 14:
2413:.\main.c      **** 	        if(LCD_1_GetRxBufferSize()==8){
 11819              		.loc 1 2413 0 is_stmt 1
 11820 4164 FFF7FEFF 		bl	LCD_1_GetRxBufferSize
 11821 4168 0346     		mov	r3, r0
 11822 416a 082B     		cmp	r3, #8
 11823 416c 40F00A81 		bne	.L573
2414:.\main.c      **** 	            if((LCD_1_rxBuffer[0]==0xAA) && (LCD_1_rxBuffer[6]==0xC3) && (LCD_1_rxBuffer[7]==0x3C)
 11824              		.loc 1 2414 0
 11825 4170 A04B     		ldr	r3, .L703
 11826 4172 1B78     		ldrb	r3, [r3]
 11827 4174 DBB2     		uxtb	r3, r3
 11828 4176 AA2B     		cmp	r3, #170
 11829 4178 40F0FE80 		bne	.L574
 11830              		.loc 1 2414 0 is_stmt 0 discriminator 1
 11831 417c 9D4B     		ldr	r3, .L703
 11832 417e 9B79     		ldrb	r3, [r3, #6]
 11833 4180 DBB2     		uxtb	r3, r3
 11834 4182 C32B     		cmp	r3, #195
 11835 4184 40F0F880 		bne	.L574
 11836              		.loc 1 2414 0 discriminator 2
 11837 4188 9A4B     		ldr	r3, .L703
 11838 418a DB79     		ldrb	r3, [r3, #7]
 11839 418c DBB2     		uxtb	r3, r3
 11840 418e 3C2B     		cmp	r3, #60
 11841 4190 40F0F280 		bne	.L574
2415:.\main.c      **** 	                if(count_teclas1<teclas1){
 11842              		.loc 1 2415 0 is_stmt 1
 11843 4194 984B     		ldr	r3, .L703+4
 11844 4196 1B78     		ldrb	r3, [r3]
 11845 4198 DAB2     		uxtb	r2, r3
 11846 419a 984B     		ldr	r3, .L703+8
 11847 419c 1B78     		ldrb	r3, [r3]
 11848 419e DBB2     		uxtb	r3, r3
 11849 41a0 9A42     		cmp	r2, r3
 11850 41a2 6CD2     		bcs	.L575
2416:.\main.c      **** 	                    if(LCD_1_rxBuffer[3]<=9){
 11851              		.loc 1 2416 0
 11852 41a4 934B     		ldr	r3, .L703
 11853 41a6 DB78     		ldrb	r3, [r3, #3]
 11854 41a8 DBB2     		uxtb	r3, r3
 11855 41aa 092B     		cmp	r3, #9
 11856 41ac 33D8     		bhi	.L576
2417:.\main.c      **** 	                        rventa1.password[count_teclas1+1]=LCD_1_rxBuffer[3]+0x30;
 11857              		.loc 1 2417 0
 11858 41ae 924B     		ldr	r3, .L703+4
 11859 41b0 1B78     		ldrb	r3, [r3]
 11860 41b2 DBB2     		uxtb	r3, r3
 11861 41b4 0133     		adds	r3, r3, #1
 11862 41b6 8F4A     		ldr	r2, .L703
 11863 41b8 D278     		ldrb	r2, [r2, #3]
 11864 41ba D2B2     		uxtb	r2, r2
ARM GAS  C:\Users\RECEPC~1\AppData\Local\Temp\cc2OimPl.s 			page 257


 11865 41bc 3032     		adds	r2, r2, #48
 11866 41be D1B2     		uxtb	r1, r2
 11867 41c0 8F4A     		ldr	r2, .L703+12
 11868 41c2 1344     		add	r3, r3, r2
 11869 41c4 0A46     		mov	r2, r1
 11870 41c6 83F86420 		strb	r2, [r3, #100]
2418:.\main.c      **** 	                        write_LCD(1,'*', posy1, ((count_teclas1*(sizeletra1+1))+posx1), sizeletra1
 11871              		.loc 1 2418 0
 11872 41ca 8E4B     		ldr	r3, .L703+16
 11873 41cc 1B88     		ldrh	r3, [r3]	@ movhi
 11874 41ce 9DB2     		uxth	r5, r3
 11875 41d0 894B     		ldr	r3, .L703+4
 11876 41d2 1B78     		ldrb	r3, [r3]
 11877 41d4 DBB2     		uxtb	r3, r3
 11878 41d6 9BB2     		uxth	r3, r3
 11879 41d8 8B4A     		ldr	r2, .L703+20
 11880 41da 1288     		ldrh	r2, [r2]	@ movhi
 11881 41dc 92B2     		uxth	r2, r2
 11882 41de 0132     		adds	r2, r2, #1
 11883 41e0 92B2     		uxth	r2, r2
 11884 41e2 02FB03F3 		mul	r3, r2, r3
 11885 41e6 9AB2     		uxth	r2, r3
 11886 41e8 884B     		ldr	r3, .L703+24
 11887 41ea 1B88     		ldrh	r3, [r3]	@ movhi
 11888 41ec 9BB2     		uxth	r3, r3
 11889 41ee 1344     		add	r3, r3, r2
 11890 41f0 9CB2     		uxth	r4, r3
 11891 41f2 854B     		ldr	r3, .L703+20
 11892 41f4 1B88     		ldrh	r3, [r3]	@ movhi
 11893 41f6 9BB2     		uxth	r3, r3
 11894 41f8 DBB2     		uxtb	r3, r3
 11895 41fa 0093     		str	r3, [sp]
 11896 41fc 0120     		movs	r0, #1
 11897 41fe 2A21     		movs	r1, #42
 11898 4200 2A46     		mov	r2, r5
 11899 4202 2346     		mov	r3, r4
 11900 4204 FFF7FEFF 		bl	write_LCD
2419:.\main.c      **** 	                        count_teclas1++;                        
 11901              		.loc 1 2419 0
 11902 4208 7B4B     		ldr	r3, .L703+4
 11903 420a 1B78     		ldrb	r3, [r3]
 11904 420c DBB2     		uxtb	r3, r3
 11905 420e 0133     		adds	r3, r3, #1
 11906 4210 DAB2     		uxtb	r2, r3
 11907 4212 794B     		ldr	r3, .L703+4
 11908 4214 1A70     		strb	r2, [r3]
 11909              	.L576:
2420:.\main.c      **** 	                    }
2421:.\main.c      **** 	                    if(LCD_1_rxBuffer[3]==0x0A){            //Comando de 0
 11910              		.loc 1 2421 0
 11911 4216 774B     		ldr	r3, .L703
 11912 4218 DB78     		ldrb	r3, [r3, #3]
 11913 421a DBB2     		uxtb	r3, r3
 11914 421c 0A2B     		cmp	r3, #10
 11915 421e 2ED1     		bne	.L575
2422:.\main.c      **** 	                        rventa1.password[count_teclas1+1]=0x30;
 11916              		.loc 1 2422 0
ARM GAS  C:\Users\RECEPC~1\AppData\Local\Temp\cc2OimPl.s 			page 258


 11917 4220 754B     		ldr	r3, .L703+4
 11918 4222 1B78     		ldrb	r3, [r3]
 11919 4224 DBB2     		uxtb	r3, r3
 11920 4226 0133     		adds	r3, r3, #1
 11921 4228 754A     		ldr	r2, .L703+12
 11922 422a 1344     		add	r3, r3, r2
 11923 422c 3022     		movs	r2, #48
 11924 422e 83F86420 		strb	r2, [r3, #100]
2423:.\main.c      **** 	                        write_LCD(1,'*', posy1, ((count_teclas1*(sizeletra1+1))+posx1), sizeletra1
 11925              		.loc 1 2423 0
 11926 4232 744B     		ldr	r3, .L703+16
 11927 4234 1B88     		ldrh	r3, [r3]	@ movhi
 11928 4236 9DB2     		uxth	r5, r3
 11929 4238 6F4B     		ldr	r3, .L703+4
 11930 423a 1B78     		ldrb	r3, [r3]
 11931 423c DBB2     		uxtb	r3, r3
 11932 423e 9BB2     		uxth	r3, r3
 11933 4240 714A     		ldr	r2, .L703+20
 11934 4242 1288     		ldrh	r2, [r2]	@ movhi
 11935 4244 92B2     		uxth	r2, r2
 11936 4246 0132     		adds	r2, r2, #1
 11937 4248 92B2     		uxth	r2, r2
 11938 424a 02FB03F3 		mul	r3, r2, r3
 11939 424e 9AB2     		uxth	r2, r3
 11940 4250 6E4B     		ldr	r3, .L703+24
 11941 4252 1B88     		ldrh	r3, [r3]	@ movhi
 11942 4254 9BB2     		uxth	r3, r3
 11943 4256 1344     		add	r3, r3, r2
 11944 4258 9CB2     		uxth	r4, r3
 11945 425a 6B4B     		ldr	r3, .L703+20
 11946 425c 1B88     		ldrh	r3, [r3]	@ movhi
 11947 425e 9BB2     		uxth	r3, r3
 11948 4260 DBB2     		uxtb	r3, r3
 11949 4262 0093     		str	r3, [sp]
 11950 4264 0120     		movs	r0, #1
 11951 4266 2A21     		movs	r1, #42
 11952 4268 2A46     		mov	r2, r5
 11953 426a 2346     		mov	r3, r4
 11954 426c FFF7FEFF 		bl	write_LCD
2424:.\main.c      **** 	                        count_teclas1++;                        
 11955              		.loc 1 2424 0
 11956 4270 614B     		ldr	r3, .L703+4
 11957 4272 1B78     		ldrb	r3, [r3]
 11958 4274 DBB2     		uxtb	r3, r3
 11959 4276 0133     		adds	r3, r3, #1
 11960 4278 DAB2     		uxtb	r2, r3
 11961 427a 5F4B     		ldr	r3, .L703+4
 11962 427c 1A70     		strb	r2, [r3]
 11963              	.L575:
2425:.\main.c      **** 	                    }                    
2426:.\main.c      **** 	                }
2427:.\main.c      **** 	                if(LCD_1_rxBuffer[3]==0x0B){                //Cancelar      
 11964              		.loc 1 2427 0
 11965 427e 5D4B     		ldr	r3, .L703
 11966 4280 DB78     		ldrb	r3, [r3, #3]
 11967 4282 DBB2     		uxtb	r3, r3
 11968 4284 0B2B     		cmp	r3, #11
ARM GAS  C:\Users\RECEPC~1\AppData\Local\Temp\cc2OimPl.s 			page 259


 11969 4286 2ED1     		bne	.L577
2428:.\main.c      **** 	                    if(teclas1==0){
 11970              		.loc 1 2428 0
 11971 4288 5C4B     		ldr	r3, .L703+8
 11972 428a 1B78     		ldrb	r3, [r3]
 11973 428c DBB2     		uxtb	r3, r3
 11974 428e 002B     		cmp	r3, #0
 11975 4290 03D1     		bne	.L578
2429:.\main.c      **** 	                        flujo_LCD1=0;
 11976              		.loc 1 2429 0
 11977 4292 5F4B     		ldr	r3, .L703+28
 11978 4294 0022     		movs	r2, #0
 11979 4296 1A70     		strb	r2, [r3]
 11980 4298 25E0     		b	.L577
 11981              	.L578:
2430:.\main.c      **** 	                    }
2431:.\main.c      **** 	                    else{
2432:.\main.c      **** 	                        count_teclas1--;                                        
 11982              		.loc 1 2432 0
 11983 429a 574B     		ldr	r3, .L703+4
 11984 429c 1B78     		ldrb	r3, [r3]
 11985 429e DBB2     		uxtb	r3, r3
 11986 42a0 013B     		subs	r3, r3, #1
 11987 42a2 DAB2     		uxtb	r2, r3
 11988 42a4 544B     		ldr	r3, .L703+4
 11989 42a6 1A70     		strb	r2, [r3]
2433:.\main.c      **** 	                        write_LCD(1,0x20, posy1, ((count_teclas1*(sizeletra1+1))+posx1), sizeletra
 11990              		.loc 1 2433 0
 11991 42a8 564B     		ldr	r3, .L703+16
 11992 42aa 1B88     		ldrh	r3, [r3]	@ movhi
 11993 42ac 9DB2     		uxth	r5, r3
 11994 42ae 524B     		ldr	r3, .L703+4
 11995 42b0 1B78     		ldrb	r3, [r3]
 11996 42b2 DBB2     		uxtb	r3, r3
 11997 42b4 9BB2     		uxth	r3, r3
 11998 42b6 544A     		ldr	r2, .L703+20
 11999 42b8 1288     		ldrh	r2, [r2]	@ movhi
 12000 42ba 92B2     		uxth	r2, r2
 12001 42bc 0132     		adds	r2, r2, #1
 12002 42be 92B2     		uxth	r2, r2
 12003 42c0 02FB03F3 		mul	r3, r2, r3
 12004 42c4 9AB2     		uxth	r2, r3
 12005 42c6 514B     		ldr	r3, .L703+24
 12006 42c8 1B88     		ldrh	r3, [r3]	@ movhi
 12007 42ca 9BB2     		uxth	r3, r3
 12008 42cc 1344     		add	r3, r3, r2
 12009 42ce 9CB2     		uxth	r4, r3
 12010 42d0 4D4B     		ldr	r3, .L703+20
 12011 42d2 1B88     		ldrh	r3, [r3]	@ movhi
 12012 42d4 9BB2     		uxth	r3, r3
 12013 42d6 DBB2     		uxtb	r3, r3
 12014 42d8 0093     		str	r3, [sp]
 12015 42da 0120     		movs	r0, #1
 12016 42dc 2021     		movs	r1, #32
 12017 42de 2A46     		mov	r2, r5
 12018 42e0 2346     		mov	r3, r4
 12019 42e2 FFF7FEFF 		bl	write_LCD
ARM GAS  C:\Users\RECEPC~1\AppData\Local\Temp\cc2OimPl.s 			page 260


 12020              	.L577:
2434:.\main.c      **** 	                    }
2435:.\main.c      **** 	                }
2436:.\main.c      **** 	                if(LCD_1_rxBuffer[3]==0x0C){                //Enter
 12021              		.loc 1 2436 0
 12022 42e6 434B     		ldr	r3, .L703
 12023 42e8 DB78     		ldrb	r3, [r3, #3]
 12024 42ea DBB2     		uxtb	r3, r3
 12025 42ec 0C2B     		cmp	r3, #12
 12026 42ee 43D1     		bne	.L574
2437:.\main.c      **** 	                    if(count_teclas1>=1){
 12027              		.loc 1 2437 0
 12028 42f0 414B     		ldr	r3, .L703+4
 12029 42f2 1B78     		ldrb	r3, [r3]
 12030 42f4 DBB2     		uxtb	r3, r3
 12031 42f6 002B     		cmp	r3, #0
 12032 42f8 3ED0     		beq	.L574
2438:.\main.c      **** 	                        rventa1.password[0]=count_teclas1;
 12033              		.loc 1 2438 0
 12034 42fa 3F4B     		ldr	r3, .L703+4
 12035 42fc 1B78     		ldrb	r3, [r3]
 12036 42fe DAB2     		uxtb	r2, r3
 12037 4300 3F4B     		ldr	r3, .L703+12
 12038 4302 83F86420 		strb	r2, [r3, #100]
2439:.\main.c      **** 							y=0;
 12039              		.loc 1 2439 0
 12040 4306 0023     		movs	r3, #0
 12041 4308 87F82E30 		strb	r3, [r7, #46]
2440:.\main.c      **** 							if(rventa1.password[0]==4){
 12042              		.loc 1 2440 0
 12043 430c 3C4B     		ldr	r3, .L703+12
 12044 430e 93F86430 		ldrb	r3, [r3, #100]	@ zero_extendqisi2
 12045 4312 042B     		cmp	r3, #4
 12046 4314 2DD1     		bne	.L579
2441:.\main.c      **** 								for(x=1;x<=4;x++){
 12047              		.loc 1 2441 0
 12048 4316 0123     		movs	r3, #1
 12049 4318 87F82F30 		strb	r3, [r7, #47]
 12050 431c 15E0     		b	.L580
 12051              	.L582:
2442:.\main.c      **** 									if(rventa1.password[x]==clave_config[x]){
 12052              		.loc 1 2442 0
 12053 431e 97F82F30 		ldrb	r3, [r7, #47]	@ zero_extendqisi2
 12054 4322 374A     		ldr	r2, .L703+12
 12055 4324 1344     		add	r3, r3, r2
 12056 4326 93F86420 		ldrb	r2, [r3, #100]	@ zero_extendqisi2
 12057 432a 97F82F30 		ldrb	r3, [r7, #47]	@ zero_extendqisi2
 12058 432e 3949     		ldr	r1, .L703+32
 12059 4330 CB5C     		ldrb	r3, [r1, r3]	@ zero_extendqisi2
 12060 4332 9A42     		cmp	r2, r3
 12061 4334 04D1     		bne	.L581
2443:.\main.c      **** 										y++;
 12062              		.loc 1 2443 0
 12063 4336 97F82E30 		ldrb	r3, [r7, #46]	@ zero_extendqisi2
 12064 433a 0133     		adds	r3, r3, #1
 12065 433c 87F82E30 		strb	r3, [r7, #46]
 12066              	.L581:
ARM GAS  C:\Users\RECEPC~1\AppData\Local\Temp\cc2OimPl.s 			page 261


2441:.\main.c      **** 								for(x=1;x<=4;x++){
 12067              		.loc 1 2441 0 discriminator 2
 12068 4340 97F82F30 		ldrb	r3, [r7, #47]	@ zero_extendqisi2
 12069 4344 0133     		adds	r3, r3, #1
 12070 4346 87F82F30 		strb	r3, [r7, #47]
 12071              	.L580:
2441:.\main.c      **** 								for(x=1;x<=4;x++){
 12072              		.loc 1 2441 0 is_stmt 0 discriminator 1
 12073 434a 97F82F30 		ldrb	r3, [r7, #47]	@ zero_extendqisi2
 12074 434e 042B     		cmp	r3, #4
 12075 4350 E5D9     		bls	.L582
2444:.\main.c      **** 									}
2445:.\main.c      **** 								}
2446:.\main.c      **** 								if(y==4){
 12076              		.loc 1 2446 0 is_stmt 1
 12077 4352 97F82E30 		ldrb	r3, [r7, #46]	@ zero_extendqisi2
 12078 4356 042B     		cmp	r3, #4
 12079 4358 07D1     		bne	.L583
2447:.\main.c      **** 			                        flujo_LCD1=15;
 12080              		.loc 1 2447 0
 12081 435a 2D4B     		ldr	r3, .L703+28
 12082 435c 0F22     		movs	r2, #15
 12083 435e 1A70     		strb	r2, [r3]
2448:.\main.c      **** 			                        set_imagen(1,93);								
 12084              		.loc 1 2448 0
 12085 4360 0120     		movs	r0, #1
 12086 4362 5D21     		movs	r1, #93
 12087 4364 FFF7FEFF 		bl	set_imagen
 12088 4368 06E0     		b	.L574
 12089              	.L583:
2449:.\main.c      **** 								}
2450:.\main.c      **** 								else{
2451:.\main.c      **** 			                        flujo_LCD1=0;							
 12090              		.loc 1 2451 0
 12091 436a 294B     		ldr	r3, .L703+28
 12092 436c 0022     		movs	r2, #0
 12093 436e 1A70     		strb	r2, [r3]
 12094 4370 02E0     		b	.L574
 12095              	.L579:
2452:.\main.c      **** 								}
2453:.\main.c      **** 							}
2454:.\main.c      **** 							else{
2455:.\main.c      **** 		                        flujo_LCD1=0;						
 12096              		.loc 1 2455 0
 12097 4372 274B     		ldr	r3, .L703+28
 12098 4374 0022     		movs	r2, #0
 12099 4376 1A70     		strb	r2, [r3]
 12100              	.L574:
2456:.\main.c      **** 							}
2457:.\main.c      **** 	                    }
2458:.\main.c      **** 	                }
2459:.\main.c      **** 	            }
2460:.\main.c      **** 	            CyDelay(100);            //Caso 14 sin segunda posición
 12101              		.loc 1 2460 0
 12102 4378 6420     		movs	r0, #100
 12103 437a FFF7FEFF 		bl	CyDelay
2461:.\main.c      **** 	            LCD_1_ClearRxBuffer();
ARM GAS  C:\Users\RECEPC~1\AppData\Local\Temp\cc2OimPl.s 			page 262


 12104              		.loc 1 2461 0
 12105 437e FFF7FEFF 		bl	LCD_1_ClearRxBuffer
2462:.\main.c      **** 	        }         			
2463:.\main.c      **** 		break;
 12106              		.loc 1 2463 0
 12107 4382 33E3     		b	.L115
 12108              	.L573:
 12109              		.loc 1 2463 0 is_stmt 0 discriminator 16
 12110 4384 32E3     		b	.L115
 12111              	.L131:
2464:.\main.c      ****             
2465:.\main.c      ****         case 15:
2466:.\main.c      **** 	        if(LCD_1_GetRxBufferSize()==8){
 12112              		.loc 1 2466 0 is_stmt 1
 12113 4386 FFF7FEFF 		bl	LCD_1_GetRxBufferSize
 12114 438a 0346     		mov	r3, r0
 12115 438c 082B     		cmp	r3, #8
 12116 438e 40F09680 		bne	.L585
2467:.\main.c      **** 	            if((LCD_1_rxBuffer[0]==0xAA) && (LCD_1_rxBuffer[6]==0xC3) && (LCD_1_rxBuffer[7]==0x3C)
 12117              		.loc 1 2467 0
 12118 4392 184B     		ldr	r3, .L703
 12119 4394 1B78     		ldrb	r3, [r3]
 12120 4396 DBB2     		uxtb	r3, r3
 12121 4398 AA2B     		cmp	r3, #170
 12122 439a 40F09080 		bne	.L585
 12123              		.loc 1 2467 0 is_stmt 0 discriminator 1
 12124 439e 154B     		ldr	r3, .L703
 12125 43a0 9B79     		ldrb	r3, [r3, #6]
 12126 43a2 DBB2     		uxtb	r3, r3
 12127 43a4 C32B     		cmp	r3, #195
 12128 43a6 40F08A80 		bne	.L585
 12129              		.loc 1 2467 0 discriminator 2
 12130 43aa 124B     		ldr	r3, .L703
 12131 43ac DB79     		ldrb	r3, [r3, #7]
 12132 43ae DBB2     		uxtb	r3, r3
 12133 43b0 3C2B     		cmp	r3, #60
 12134 43b2 40F08480 		bne	.L585
2468:.\main.c      **** 	                switch(LCD_1_rxBuffer[3]){
 12135              		.loc 1 2468 0 is_stmt 1
 12136 43b6 0F4B     		ldr	r3, .L703
 12137 43b8 DB78     		ldrb	r3, [r3, #3]
 12138 43ba DBB2     		uxtb	r3, r3
 12139 43bc B92B     		cmp	r3, #185
 12140 43be 04D0     		beq	.L586
 12141 43c0 BA2B     		cmp	r3, #186
 12142 43c2 57D0     		beq	.L587
 12143 43c4 7E2B     		cmp	r3, #126
 12144 43c6 72D0     		beq	.L588
2469:.\main.c      ****                         case 0xB9: //Reimpresion
2470:.\main.c      ****                         	rf_mod[0]='M';
2471:.\main.c      **** 			                rf_mod[1]='U';
2472:.\main.c      **** 			                rf_mod[2]='X';
2473:.\main.c      **** 			                rf_mod[3]='3';
2474:.\main.c      ****                             rf_mod[4]='*';
2475:.\main.c      **** 							PC_ClearRxBuffer();				
2476:.\main.c      **** 						    for(x=0;x<=4;x++){
2477:.\main.c      **** 							   PC_PutChar(rf_mod[x]);
ARM GAS  C:\Users\RECEPC~1\AppData\Local\Temp\cc2OimPl.s 			page 263


2478:.\main.c      **** 						    }
2479:.\main.c      ****                             CyDelay(150);  
2480:.\main.c      **** 							set_imagen(1,0);
2481:.\main.c      **** 							flujo_LCD1=0;
2482:.\main.c      ****                             if(seleccion_pos == 1){
2483:.\main.c      **** 							    lado1.estado=libre;     //Fin de reimpresion  
2484:.\main.c      ****                             }
2485:.\main.c      ****                             if(seleccion_pos == 2){
2486:.\main.c      **** 							    lado2.estado=libre;     //Fin de reimpresion  
2487:.\main.c      ****                             }
2488:.\main.c      ****                         break;
2489:.\main.c      ****                             
2490:.\main.c      ****                         case 0xBA:                                       //Configuracion inicial   
2491:.\main.c      ****                             set_imagen(1,47);
2492:.\main.c      ****                             id_teclado1=5;
2493:.\main.c      **** 					        count_teclas1=0;							 //Inicia el contador de teclas	
2494:.\main.c      **** 					        id_coma1=',';	
2495:.\main.c      ****                             teclas1=4;              						//cantidad de teclas q puede digitar     
2496:.\main.c      **** 					        posx1=4;
2497:.\main.c      **** 					        posy1=3;
2498:.\main.c      **** 					        sizeletra1 = 1;	    
2499:.\main.c      ****                             flujo_LCD1 = 12;
2500:.\main.c      ****                         break;    
2501:.\main.c      ****                             
2502:.\main.c      **** 	                    case 0x7E:					//ir a menu
2503:.\main.c      **** 						  set_imagen(1,74);	
2504:.\main.c      **** 	                      flujo_LCD1=0;     
2505:.\main.c      **** 	                    break;		                            
2506:.\main.c      ****                     }
2507:.\main.c      ****                 }
2508:.\main.c      ****             }
2509:.\main.c      ****         break;
 12145              		.loc 1 2509 0
 12146 43c8 10E3     		b	.L115
 12147              	.L586:
2470:.\main.c      **** 			                rf_mod[1]='U';
 12148              		.loc 1 2470 0
 12149 43ca 134B     		ldr	r3, .L703+36
 12150 43cc 4D22     		movs	r2, #77
 12151 43ce 1A70     		strb	r2, [r3]
2471:.\main.c      **** 			                rf_mod[2]='X';
 12152              		.loc 1 2471 0
 12153 43d0 114B     		ldr	r3, .L703+36
 12154 43d2 5522     		movs	r2, #85
 12155 43d4 5A70     		strb	r2, [r3, #1]
2472:.\main.c      **** 			                rf_mod[3]='3';
 12156              		.loc 1 2472 0
 12157 43d6 104B     		ldr	r3, .L703+36
 12158 43d8 5822     		movs	r2, #88
 12159 43da 9A70     		strb	r2, [r3, #2]
2473:.\main.c      ****                             rf_mod[4]='*';
 12160              		.loc 1 2473 0
 12161 43dc 0E4B     		ldr	r3, .L703+36
 12162 43de 3322     		movs	r2, #51
 12163 43e0 DA70     		strb	r2, [r3, #3]
2474:.\main.c      **** 							PC_ClearRxBuffer();				
 12164              		.loc 1 2474 0
ARM GAS  C:\Users\RECEPC~1\AppData\Local\Temp\cc2OimPl.s 			page 264


 12165 43e2 0D4B     		ldr	r3, .L703+36
 12166 43e4 2A22     		movs	r2, #42
 12167 43e6 1A71     		strb	r2, [r3, #4]
2475:.\main.c      **** 						    for(x=0;x<=4;x++){
 12168              		.loc 1 2475 0
 12169 43e8 FFF7FEFF 		bl	PC_ClearRxBuffer
2476:.\main.c      **** 							   PC_PutChar(rf_mod[x]);
 12170              		.loc 1 2476 0
 12171 43ec 0023     		movs	r3, #0
 12172 43ee 87F82F30 		strb	r3, [r7, #47]
 12173 43f2 1FE0     		b	.L589
 12174              	.L704:
 12175              		.align	2
 12176              	.L703:
 12177 43f4 00000000 		.word	LCD_1_rxBuffer
 12178 43f8 00000000 		.word	count_teclas1
 12179 43fc 00000000 		.word	teclas1
 12180 4400 00000000 		.word	rventa1
 12181 4404 00000000 		.word	posy1
 12182 4408 00000000 		.word	sizeletra1
 12183 440c 00000000 		.word	posx1
 12184 4410 00000000 		.word	flujo_LCD1
 12185 4414 00000000 		.word	clave_config
 12186 4418 00000000 		.word	rf_mod
 12187              	.L590:
2477:.\main.c      **** 						    }
 12188              		.loc 1 2477 0 discriminator 3
 12189 441c 97F82F30 		ldrb	r3, [r7, #47]	@ zero_extendqisi2
 12190 4420 BA4A     		ldr	r2, .L705
 12191 4422 D35C     		ldrb	r3, [r2, r3]	@ zero_extendqisi2
 12192 4424 1846     		mov	r0, r3
 12193 4426 FFF7FEFF 		bl	PC_PutChar
2476:.\main.c      **** 							   PC_PutChar(rf_mod[x]);
 12194              		.loc 1 2476 0 discriminator 3
 12195 442a 97F82F30 		ldrb	r3, [r7, #47]	@ zero_extendqisi2
 12196 442e 0133     		adds	r3, r3, #1
 12197 4430 87F82F30 		strb	r3, [r7, #47]
 12198              	.L589:
2476:.\main.c      **** 							   PC_PutChar(rf_mod[x]);
 12199              		.loc 1 2476 0 is_stmt 0 discriminator 1
 12200 4434 97F82F30 		ldrb	r3, [r7, #47]	@ zero_extendqisi2
 12201 4438 042B     		cmp	r3, #4
 12202 443a EFD9     		bls	.L590
2479:.\main.c      **** 							set_imagen(1,0);
 12203              		.loc 1 2479 0 is_stmt 1
 12204 443c 9620     		movs	r0, #150
 12205 443e FFF7FEFF 		bl	CyDelay
2480:.\main.c      **** 							flujo_LCD1=0;
 12206              		.loc 1 2480 0
 12207 4442 0120     		movs	r0, #1
 12208 4444 0021     		movs	r1, #0
 12209 4446 FFF7FEFF 		bl	set_imagen
2481:.\main.c      ****                             if(seleccion_pos == 1){
 12210              		.loc 1 2481 0
 12211 444a B14B     		ldr	r3, .L705+4
 12212 444c 0022     		movs	r2, #0
 12213 444e 1A70     		strb	r2, [r3]
ARM GAS  C:\Users\RECEPC~1\AppData\Local\Temp\cc2OimPl.s 			page 265


2482:.\main.c      **** 							    lado1.estado=libre;     //Fin de reimpresion  
 12214              		.loc 1 2482 0
 12215 4450 B04B     		ldr	r3, .L705+8
 12216 4452 1B78     		ldrb	r3, [r3]
 12217 4454 DBB2     		uxtb	r3, r3
 12218 4456 012B     		cmp	r3, #1
 12219 4458 02D1     		bne	.L591
2483:.\main.c      ****                             }
 12220              		.loc 1 2483 0
 12221 445a AF4B     		ldr	r3, .L705+12
 12222 445c 0122     		movs	r2, #1
 12223 445e 5A70     		strb	r2, [r3, #1]
 12224              	.L591:
2485:.\main.c      **** 							    lado2.estado=libre;     //Fin de reimpresion  
 12225              		.loc 1 2485 0
 12226 4460 AC4B     		ldr	r3, .L705+8
 12227 4462 1B78     		ldrb	r3, [r3]
 12228 4464 DBB2     		uxtb	r3, r3
 12229 4466 022B     		cmp	r3, #2
 12230 4468 03D1     		bne	.L592
2486:.\main.c      ****                             }
 12231              		.loc 1 2486 0
 12232 446a AC4B     		ldr	r3, .L705+16
 12233 446c 0122     		movs	r2, #1
 12234 446e 5A70     		strb	r2, [r3, #1]
2488:.\main.c      ****                             
 12235              		.loc 1 2488 0
 12236 4470 25E0     		b	.L585
 12237              	.L592:
 12238 4472 24E0     		b	.L585
 12239              	.L587:
2491:.\main.c      ****                             id_teclado1=5;
 12240              		.loc 1 2491 0
 12241 4474 0120     		movs	r0, #1
 12242 4476 2F21     		movs	r1, #47
 12243 4478 FFF7FEFF 		bl	set_imagen
2492:.\main.c      **** 					        count_teclas1=0;							 //Inicia el contador de teclas	
 12244              		.loc 1 2492 0
 12245 447c A84B     		ldr	r3, .L705+20
 12246 447e 0522     		movs	r2, #5
 12247 4480 1A70     		strb	r2, [r3]
2493:.\main.c      **** 					        id_coma1=',';	
 12248              		.loc 1 2493 0
 12249 4482 A84B     		ldr	r3, .L705+24
 12250 4484 0022     		movs	r2, #0
 12251 4486 1A70     		strb	r2, [r3]
2494:.\main.c      ****                             teclas1=4;              						//cantidad de teclas q puede digitar     
 12252              		.loc 1 2494 0
 12253 4488 A74B     		ldr	r3, .L705+28
 12254 448a 2C22     		movs	r2, #44
 12255 448c 1A70     		strb	r2, [r3]
2495:.\main.c      **** 					        posx1=4;
 12256              		.loc 1 2495 0
 12257 448e A74B     		ldr	r3, .L705+32
 12258 4490 0422     		movs	r2, #4
 12259 4492 1A70     		strb	r2, [r3]
2496:.\main.c      **** 					        posy1=3;
ARM GAS  C:\Users\RECEPC~1\AppData\Local\Temp\cc2OimPl.s 			page 266


 12260              		.loc 1 2496 0
 12261 4494 A64B     		ldr	r3, .L705+36
 12262 4496 0422     		movs	r2, #4
 12263 4498 1A80     		strh	r2, [r3]	@ movhi
2497:.\main.c      **** 					        sizeletra1 = 1;	    
 12264              		.loc 1 2497 0
 12265 449a A64B     		ldr	r3, .L705+40
 12266 449c 0322     		movs	r2, #3
 12267 449e 1A80     		strh	r2, [r3]	@ movhi
2498:.\main.c      ****                             flujo_LCD1 = 12;
 12268              		.loc 1 2498 0
 12269 44a0 A54B     		ldr	r3, .L705+44
 12270 44a2 0122     		movs	r2, #1
 12271 44a4 1A80     		strh	r2, [r3]	@ movhi
2499:.\main.c      ****                         break;    
 12272              		.loc 1 2499 0
 12273 44a6 9A4B     		ldr	r3, .L705+4
 12274 44a8 0C22     		movs	r2, #12
 12275 44aa 1A70     		strb	r2, [r3]
2500:.\main.c      ****                             
 12276              		.loc 1 2500 0
 12277 44ac 07E0     		b	.L585
 12278              	.L588:
2503:.\main.c      **** 	                      flujo_LCD1=0;     
 12279              		.loc 1 2503 0
 12280 44ae 0120     		movs	r0, #1
 12281 44b0 4A21     		movs	r1, #74
 12282 44b2 FFF7FEFF 		bl	set_imagen
2504:.\main.c      **** 	                    break;		                            
 12283              		.loc 1 2504 0
 12284 44b6 964B     		ldr	r3, .L705+4
 12285 44b8 0022     		movs	r2, #0
 12286 44ba 1A70     		strb	r2, [r3]
2505:.\main.c      ****                     }
 12287              		.loc 1 2505 0
 12288 44bc 00BF     		nop
 12289              	.L585:
 12290              		.loc 1 2509 0 discriminator 17
 12291 44be 95E2     		b	.L115
 12292              	.L132:
2510:.\main.c      ****               
2511:.\main.c      ****         case 16:
2512:.\main.c      **** 	        if(LCD_1_GetRxBufferSize()==8){
 12293              		.loc 1 2512 0
 12294 44c0 FFF7FEFF 		bl	LCD_1_GetRxBufferSize
 12295 44c4 0346     		mov	r3, r0
 12296 44c6 082B     		cmp	r3, #8
 12297 44c8 40F04A81 		bne	.L593
2513:.\main.c      **** 	            if((LCD_1_rxBuffer[0]==0xAA) && (LCD_1_rxBuffer[6]==0xC3) && (LCD_1_rxBuffer[7]==0x3C)
 12298              		.loc 1 2513 0
 12299 44cc 9B4B     		ldr	r3, .L705+48
 12300 44ce 1B78     		ldrb	r3, [r3]
 12301 44d0 DBB2     		uxtb	r3, r3
 12302 44d2 AA2B     		cmp	r3, #170
 12303 44d4 40F03E81 		bne	.L594
 12304              		.loc 1 2513 0 is_stmt 0 discriminator 1
 12305 44d8 984B     		ldr	r3, .L705+48
ARM GAS  C:\Users\RECEPC~1\AppData\Local\Temp\cc2OimPl.s 			page 267


 12306 44da 9B79     		ldrb	r3, [r3, #6]
 12307 44dc DBB2     		uxtb	r3, r3
 12308 44de C32B     		cmp	r3, #195
 12309 44e0 40F03881 		bne	.L594
 12310              		.loc 1 2513 0 discriminator 2
 12311 44e4 954B     		ldr	r3, .L705+48
 12312 44e6 DB79     		ldrb	r3, [r3, #7]
 12313 44e8 DBB2     		uxtb	r3, r3
 12314 44ea 3C2B     		cmp	r3, #60
 12315 44ec 40F03281 		bne	.L594
2514:.\main.c      **** 	                switch(LCD_1_rxBuffer[3]){
 12316              		.loc 1 2514 0 is_stmt 1
 12317 44f0 924B     		ldr	r3, .L705+48
 12318 44f2 DB78     		ldrb	r3, [r3, #3]
 12319 44f4 DBB2     		uxtb	r3, r3
 12320 44f6 802B     		cmp	r3, #128
 12321 44f8 5ED0     		beq	.L595
 12322 44fa 802B     		cmp	r3, #128
 12323 44fc 05DC     		bgt	.L596
 12324 44fe 7E2B     		cmp	r3, #126
 12325 4500 00F02081 		beq	.L597
 12326 4504 7F2B     		cmp	r3, #127
 12327 4506 07D0     		beq	.L598
 12328 4508 24E1     		b	.L594
 12329              	.L596:
 12330 450a 812B     		cmp	r3, #129
 12331 450c 00F09F80 		beq	.L599
 12332 4510 C22B     		cmp	r3, #194
 12333 4512 00F0E780 		beq	.L600
 12334 4516 1DE1     		b	.L594
 12335              	.L598:
2515:.\main.c      ****                         case 0x7F:      //configurar productos                            
2516:.\main.c      **** //                            set_imagen(1,88);                            
2517:.\main.c      **** //                            flujo_LCD1 = 18;
2518:.\main.c      ****                             rf_mod[0]='M';
 12336              		.loc 1 2518 0
 12337 4518 7C4B     		ldr	r3, .L705
 12338 451a 4D22     		movs	r2, #77
 12339 451c 1A70     		strb	r2, [r3]
2519:.\main.c      ****     		                rf_mod[1]='U';
 12340              		.loc 1 2519 0
 12341 451e 7B4B     		ldr	r3, .L705
 12342 4520 5522     		movs	r2, #85
 12343 4522 5A70     		strb	r2, [r3, #1]
2520:.\main.c      ****     		                rf_mod[2]='X';
 12344              		.loc 1 2520 0
 12345 4524 794B     		ldr	r3, .L705
 12346 4526 5822     		movs	r2, #88
 12347 4528 9A70     		strb	r2, [r3, #2]
2521:.\main.c      ****     		                rf_mod[3]='6';
 12348              		.loc 1 2521 0
 12349 452a 784B     		ldr	r3, .L705
 12350 452c 3622     		movs	r2, #54
 12351 452e DA70     		strb	r2, [r3, #3]
2522:.\main.c      ****                             rf_mod[4]='*';
 12352              		.loc 1 2522 0
 12353 4530 764B     		ldr	r3, .L705
ARM GAS  C:\Users\RECEPC~1\AppData\Local\Temp\cc2OimPl.s 			page 268


 12354 4532 2A22     		movs	r2, #42
 12355 4534 1A71     		strb	r2, [r3, #4]
2523:.\main.c      ****     						PC_ClearRxBuffer();				
 12356              		.loc 1 2523 0
 12357 4536 FFF7FEFF 		bl	PC_ClearRxBuffer
2524:.\main.c      ****     					    for(x=0;x<=4;x++){
 12358              		.loc 1 2524 0
 12359 453a 0023     		movs	r3, #0
 12360 453c 87F82F30 		strb	r3, [r7, #47]
 12361 4540 0BE0     		b	.L601
 12362              	.L602:
2525:.\main.c      ****     						   PC_PutChar(rf_mod[x]);
 12363              		.loc 1 2525 0 discriminator 3
 12364 4542 97F82F30 		ldrb	r3, [r7, #47]	@ zero_extendqisi2
 12365 4546 714A     		ldr	r2, .L705
 12366 4548 D35C     		ldrb	r3, [r2, r3]	@ zero_extendqisi2
 12367 454a 1846     		mov	r0, r3
 12368 454c FFF7FEFF 		bl	PC_PutChar
2524:.\main.c      ****     					    for(x=0;x<=4;x++){
 12369              		.loc 1 2524 0 discriminator 3
 12370 4550 97F82F30 		ldrb	r3, [r7, #47]	@ zero_extendqisi2
 12371 4554 0133     		adds	r3, r3, #1
 12372 4556 87F82F30 		strb	r3, [r7, #47]
 12373              	.L601:
2524:.\main.c      ****     					    for(x=0;x<=4;x++){
 12374              		.loc 1 2524 0 is_stmt 0 discriminator 1
 12375 455a 97F82F30 		ldrb	r3, [r7, #47]	@ zero_extendqisi2
 12376 455e 042B     		cmp	r3, #4
 12377 4560 EFD9     		bls	.L602
2526:.\main.c      ****     					    }
2527:.\main.c      ****                             CyDelay(150);
 12378              		.loc 1 2527 0 is_stmt 1
 12379 4562 9620     		movs	r0, #150
 12380 4564 FFF7FEFF 		bl	CyDelay
2528:.\main.c      ****                             if(pantallas == 1 || pantallas == 4){
 12381              		.loc 1 2528 0
 12382 4568 754B     		ldr	r3, .L705+52
 12383 456a 1B78     		ldrb	r3, [r3]
 12384 456c DBB2     		uxtb	r3, r3
 12385 456e 012B     		cmp	r3, #1
 12386 4570 04D0     		beq	.L603
 12387              		.loc 1 2528 0 is_stmt 0 discriminator 1
 12388 4572 734B     		ldr	r3, .L705+52
 12389 4574 1B78     		ldrb	r3, [r3]
 12390 4576 DBB2     		uxtb	r3, r3
 12391 4578 042B     		cmp	r3, #4
 12392 457a 04D1     		bne	.L604
 12393              	.L603:
2529:.\main.c      ****                                 set_imagen(1,46);
 12394              		.loc 1 2529 0 is_stmt 1
 12395 457c 0120     		movs	r0, #1
 12396 457e 2E21     		movs	r1, #46
 12397 4580 FFF7FEFF 		bl	set_imagen
 12398 4584 03E0     		b	.L605
 12399              	.L604:
2530:.\main.c      ****                             }else{
2531:.\main.c      ****                                 set_imagen(1,21);
ARM GAS  C:\Users\RECEPC~1\AppData\Local\Temp\cc2OimPl.s 			page 269


 12400              		.loc 1 2531 0
 12401 4586 0120     		movs	r0, #1
 12402 4588 1521     		movs	r1, #21
 12403 458a FFF7FEFF 		bl	set_imagen
 12404              	.L605:
2532:.\main.c      ****                             }
2533:.\main.c      ****     						flujo_LCD1=0;
 12405              		.loc 1 2533 0
 12406 458e 604B     		ldr	r3, .L705+4
 12407 4590 0022     		movs	r2, #0
 12408 4592 1A70     		strb	r2, [r3]
2534:.\main.c      ****                             if(seleccion_pos == 1){
 12409              		.loc 1 2534 0
 12410 4594 5F4B     		ldr	r3, .L705+8
 12411 4596 1B78     		ldrb	r3, [r3]
 12412 4598 DBB2     		uxtb	r3, r3
 12413 459a 012B     		cmp	r3, #1
 12414 459c 02D1     		bne	.L606
2535:.\main.c      ****     						    lado1.estado=libre;     //Fin de reimpresion  
 12415              		.loc 1 2535 0
 12416 459e 5E4B     		ldr	r3, .L705+12
 12417 45a0 0122     		movs	r2, #1
 12418 45a2 5A70     		strb	r2, [r3, #1]
 12419              	.L606:
2536:.\main.c      ****                             }
2537:.\main.c      ****                             if(seleccion_pos == 2){
 12420              		.loc 1 2537 0
 12421 45a4 5B4B     		ldr	r3, .L705+8
 12422 45a6 1B78     		ldrb	r3, [r3]
 12423 45a8 DBB2     		uxtb	r3, r3
 12424 45aa 022B     		cmp	r3, #2
 12425 45ac 03D1     		bne	.L607
2538:.\main.c      ****     						    lado2.estado=libre;     //Fin de reimpresion  
 12426              		.loc 1 2538 0
 12427 45ae 5B4B     		ldr	r3, .L705+16
 12428 45b0 0122     		movs	r2, #1
 12429 45b2 5A70     		strb	r2, [r3, #1]
2539:.\main.c      ****                             }
2540:.\main.c      ****                         break;
 12430              		.loc 1 2540 0
 12431 45b4 CEE0     		b	.L594
 12432              	.L607:
 12433 45b6 CDE0     		b	.L594
 12434              	.L595:
2541:.\main.c      ****                         case 0x80:      //configurar version de digitos                            
2542:.\main.c      **** //                            set_imagen(1,100);
2543:.\main.c      **** //                            id_teclado1 = 6;
2544:.\main.c      **** //					        count_teclas1 = 0;							    //Inicia el contador de teclas	
2545:.\main.c      **** //					        id_coma1=',';	
2546:.\main.c      **** //                            teclas1=1;              						//cantidad de teclas q puede digitar   
2547:.\main.c      **** //					        posx1=4;
2548:.\main.c      **** //					        posy1=3;
2549:.\main.c      **** //					        sizeletra1=1;  
2550:.\main.c      **** //                            flujo_LCD1 = 12;
2551:.\main.c      ****                             rf_mod[0]='M';
 12435              		.loc 1 2551 0
 12436 45b8 544B     		ldr	r3, .L705
ARM GAS  C:\Users\RECEPC~1\AppData\Local\Temp\cc2OimPl.s 			page 270


 12437 45ba 4D22     		movs	r2, #77
 12438 45bc 1A70     		strb	r2, [r3]
2552:.\main.c      ****     		                rf_mod[1]='U';
 12439              		.loc 1 2552 0
 12440 45be 534B     		ldr	r3, .L705
 12441 45c0 5522     		movs	r2, #85
 12442 45c2 5A70     		strb	r2, [r3, #1]
2553:.\main.c      ****     		                rf_mod[2]='X';
 12443              		.loc 1 2553 0
 12444 45c4 514B     		ldr	r3, .L705
 12445 45c6 5822     		movs	r2, #88
 12446 45c8 9A70     		strb	r2, [r3, #2]
2554:.\main.c      ****     		                rf_mod[3]='6';
 12447              		.loc 1 2554 0
 12448 45ca 504B     		ldr	r3, .L705
 12449 45cc 3622     		movs	r2, #54
 12450 45ce DA70     		strb	r2, [r3, #3]
2555:.\main.c      ****                             rf_mod[4]='*';
 12451              		.loc 1 2555 0
 12452 45d0 4E4B     		ldr	r3, .L705
 12453 45d2 2A22     		movs	r2, #42
 12454 45d4 1A71     		strb	r2, [r3, #4]
2556:.\main.c      ****     						PC_ClearRxBuffer();				
 12455              		.loc 1 2556 0
 12456 45d6 FFF7FEFF 		bl	PC_ClearRxBuffer
2557:.\main.c      ****     					    for(x=0;x<=4;x++){
 12457              		.loc 1 2557 0
 12458 45da 0023     		movs	r3, #0
 12459 45dc 87F82F30 		strb	r3, [r7, #47]
 12460 45e0 0BE0     		b	.L608
 12461              	.L609:
2558:.\main.c      ****     						   PC_PutChar(rf_mod[x]);
 12462              		.loc 1 2558 0 discriminator 3
 12463 45e2 97F82F30 		ldrb	r3, [r7, #47]	@ zero_extendqisi2
 12464 45e6 494A     		ldr	r2, .L705
 12465 45e8 D35C     		ldrb	r3, [r2, r3]	@ zero_extendqisi2
 12466 45ea 1846     		mov	r0, r3
 12467 45ec FFF7FEFF 		bl	PC_PutChar
2557:.\main.c      ****     					    for(x=0;x<=4;x++){
 12468              		.loc 1 2557 0 discriminator 3
 12469 45f0 97F82F30 		ldrb	r3, [r7, #47]	@ zero_extendqisi2
 12470 45f4 0133     		adds	r3, r3, #1
 12471 45f6 87F82F30 		strb	r3, [r7, #47]
 12472              	.L608:
2557:.\main.c      ****     					    for(x=0;x<=4;x++){
 12473              		.loc 1 2557 0 is_stmt 0 discriminator 1
 12474 45fa 97F82F30 		ldrb	r3, [r7, #47]	@ zero_extendqisi2
 12475 45fe 042B     		cmp	r3, #4
 12476 4600 EFD9     		bls	.L609
2559:.\main.c      ****     					    }
2560:.\main.c      ****                             CyDelay(150);
 12477              		.loc 1 2560 0 is_stmt 1
 12478 4602 9620     		movs	r0, #150
 12479 4604 FFF7FEFF 		bl	CyDelay
2561:.\main.c      ****                             if(pantallas == 1){
 12480              		.loc 1 2561 0
 12481 4608 4D4B     		ldr	r3, .L705+52
ARM GAS  C:\Users\RECEPC~1\AppData\Local\Temp\cc2OimPl.s 			page 271


 12482 460a 1B78     		ldrb	r3, [r3]
 12483 460c DBB2     		uxtb	r3, r3
 12484 460e 012B     		cmp	r3, #1
 12485 4610 04D1     		bne	.L610
2562:.\main.c      ****                                 set_imagen(1,46);
 12486              		.loc 1 2562 0
 12487 4612 0120     		movs	r0, #1
 12488 4614 2E21     		movs	r1, #46
 12489 4616 FFF7FEFF 		bl	set_imagen
 12490 461a 03E0     		b	.L611
 12491              	.L610:
2563:.\main.c      ****                             }else{
2564:.\main.c      ****                                 set_imagen(1,21);
 12492              		.loc 1 2564 0
 12493 461c 0120     		movs	r0, #1
 12494 461e 1521     		movs	r1, #21
 12495 4620 FFF7FEFF 		bl	set_imagen
 12496              	.L611:
2565:.\main.c      ****                             }
2566:.\main.c      ****     						flujo_LCD1=0;
 12497              		.loc 1 2566 0
 12498 4624 3A4B     		ldr	r3, .L705+4
 12499 4626 0022     		movs	r2, #0
 12500 4628 1A70     		strb	r2, [r3]
2567:.\main.c      ****                             if(seleccion_pos == 1){
 12501              		.loc 1 2567 0
 12502 462a 3A4B     		ldr	r3, .L705+8
 12503 462c 1B78     		ldrb	r3, [r3]
 12504 462e DBB2     		uxtb	r3, r3
 12505 4630 012B     		cmp	r3, #1
 12506 4632 02D1     		bne	.L612
2568:.\main.c      ****     						    lado1.estado=libre;     //Fin de reimpresion  
 12507              		.loc 1 2568 0
 12508 4634 384B     		ldr	r3, .L705+12
 12509 4636 0122     		movs	r2, #1
 12510 4638 5A70     		strb	r2, [r3, #1]
 12511              	.L612:
2569:.\main.c      ****                             }
2570:.\main.c      ****                             if(seleccion_pos == 2){
 12512              		.loc 1 2570 0
 12513 463a 364B     		ldr	r3, .L705+8
 12514 463c 1B78     		ldrb	r3, [r3]
 12515 463e DBB2     		uxtb	r3, r3
 12516 4640 022B     		cmp	r3, #2
 12517 4642 03D1     		bne	.L613
2571:.\main.c      ****     						    lado2.estado=libre;     //Fin de reimpresion  
 12518              		.loc 1 2571 0
 12519 4644 354B     		ldr	r3, .L705+16
 12520 4646 0122     		movs	r2, #1
 12521 4648 5A70     		strb	r2, [r3, #1]
2572:.\main.c      ****                             }
2573:.\main.c      ****                         break;
 12522              		.loc 1 2573 0
 12523 464a 83E0     		b	.L594
 12524              	.L613:
 12525 464c 82E0     		b	.L594
 12526              	.L599:
ARM GAS  C:\Users\RECEPC~1\AppData\Local\Temp\cc2OimPl.s 			page 272


2574:.\main.c      ****                         case 0x81:      //configurar ppux10,ppux1
2575:.\main.c      **** //                            flujo_LCD1 = 17;
2576:.\main.c      **** //                            set_imagen(1,109); 
2577:.\main.c      ****                             rf_mod[0]='M';
 12527              		.loc 1 2577 0
 12528 464e 2F4B     		ldr	r3, .L705
 12529 4650 4D22     		movs	r2, #77
 12530 4652 1A70     		strb	r2, [r3]
2578:.\main.c      ****     		                rf_mod[1]='U';
 12531              		.loc 1 2578 0
 12532 4654 2D4B     		ldr	r3, .L705
 12533 4656 5522     		movs	r2, #85
 12534 4658 5A70     		strb	r2, [r3, #1]
2579:.\main.c      ****     		                rf_mod[2]='X';
 12535              		.loc 1 2579 0
 12536 465a 2C4B     		ldr	r3, .L705
 12537 465c 5822     		movs	r2, #88
 12538 465e 9A70     		strb	r2, [r3, #2]
2580:.\main.c      ****     		                rf_mod[3]='6';
 12539              		.loc 1 2580 0
 12540 4660 2A4B     		ldr	r3, .L705
 12541 4662 3622     		movs	r2, #54
 12542 4664 DA70     		strb	r2, [r3, #3]
2581:.\main.c      ****                             rf_mod[4]='*';
 12543              		.loc 1 2581 0
 12544 4666 294B     		ldr	r3, .L705
 12545 4668 2A22     		movs	r2, #42
 12546 466a 1A71     		strb	r2, [r3, #4]
2582:.\main.c      ****     						PC_ClearRxBuffer();				
 12547              		.loc 1 2582 0
 12548 466c FFF7FEFF 		bl	PC_ClearRxBuffer
2583:.\main.c      ****     					    for(x=0;x<=4;x++){
 12549              		.loc 1 2583 0
 12550 4670 0023     		movs	r3, #0
 12551 4672 87F82F30 		strb	r3, [r7, #47]
 12552 4676 0BE0     		b	.L614
 12553              	.L615:
2584:.\main.c      ****     						   PC_PutChar(rf_mod[x]);
 12554              		.loc 1 2584 0 discriminator 3
 12555 4678 97F82F30 		ldrb	r3, [r7, #47]	@ zero_extendqisi2
 12556 467c 234A     		ldr	r2, .L705
 12557 467e D35C     		ldrb	r3, [r2, r3]	@ zero_extendqisi2
 12558 4680 1846     		mov	r0, r3
 12559 4682 FFF7FEFF 		bl	PC_PutChar
2583:.\main.c      ****     					    for(x=0;x<=4;x++){
 12560              		.loc 1 2583 0 discriminator 3
 12561 4686 97F82F30 		ldrb	r3, [r7, #47]	@ zero_extendqisi2
 12562 468a 0133     		adds	r3, r3, #1
 12563 468c 87F82F30 		strb	r3, [r7, #47]
 12564              	.L614:
2583:.\main.c      ****     					    for(x=0;x<=4;x++){
 12565              		.loc 1 2583 0 is_stmt 0 discriminator 1
 12566 4690 97F82F30 		ldrb	r3, [r7, #47]	@ zero_extendqisi2
 12567 4694 042B     		cmp	r3, #4
 12568 4696 EFD9     		bls	.L615
2585:.\main.c      ****     					    }
2586:.\main.c      ****                             CyDelay(150);
ARM GAS  C:\Users\RECEPC~1\AppData\Local\Temp\cc2OimPl.s 			page 273


 12569              		.loc 1 2586 0 is_stmt 1
 12570 4698 9620     		movs	r0, #150
 12571 469a FFF7FEFF 		bl	CyDelay
2587:.\main.c      ****                             if(pantallas == 1){
 12572              		.loc 1 2587 0
 12573 469e 284B     		ldr	r3, .L705+52
 12574 46a0 1B78     		ldrb	r3, [r3]
 12575 46a2 DBB2     		uxtb	r3, r3
 12576 46a4 012B     		cmp	r3, #1
 12577 46a6 04D1     		bne	.L616
2588:.\main.c      ****                                 set_imagen(1,46);
 12578              		.loc 1 2588 0
 12579 46a8 0120     		movs	r0, #1
 12580 46aa 2E21     		movs	r1, #46
 12581 46ac FFF7FEFF 		bl	set_imagen
 12582 46b0 03E0     		b	.L617
 12583              	.L616:
2589:.\main.c      ****                             }else{
2590:.\main.c      ****                                 set_imagen(1,21);
 12584              		.loc 1 2590 0
 12585 46b2 0120     		movs	r0, #1
 12586 46b4 1521     		movs	r1, #21
 12587 46b6 FFF7FEFF 		bl	set_imagen
 12588              	.L617:
2591:.\main.c      ****                             }
2592:.\main.c      ****     						flujo_LCD1=0;
 12589              		.loc 1 2592 0
 12590 46ba 154B     		ldr	r3, .L705+4
 12591 46bc 0022     		movs	r2, #0
 12592 46be 1A70     		strb	r2, [r3]
2593:.\main.c      ****                             if(seleccion_pos == 1){
 12593              		.loc 1 2593 0
 12594 46c0 144B     		ldr	r3, .L705+8
 12595 46c2 1B78     		ldrb	r3, [r3]
 12596 46c4 DBB2     		uxtb	r3, r3
 12597 46c6 012B     		cmp	r3, #1
 12598 46c8 02D1     		bne	.L618
2594:.\main.c      ****     						    lado1.estado=libre;     //Fin de reimpresion  
 12599              		.loc 1 2594 0
 12600 46ca 134B     		ldr	r3, .L705+12
 12601 46cc 0122     		movs	r2, #1
 12602 46ce 5A70     		strb	r2, [r3, #1]
 12603              	.L618:
2595:.\main.c      ****                             }
2596:.\main.c      ****                             if(seleccion_pos == 2){
 12604              		.loc 1 2596 0
 12605 46d0 104B     		ldr	r3, .L705+8
 12606 46d2 1B78     		ldrb	r3, [r3]
 12607 46d4 DBB2     		uxtb	r3, r3
 12608 46d6 022B     		cmp	r3, #2
 12609 46d8 03D1     		bne	.L619
2597:.\main.c      ****     						    lado2.estado=libre;     //Fin de reimpresion  
 12610              		.loc 1 2597 0
 12611 46da 104B     		ldr	r3, .L705+16
 12612 46dc 0122     		movs	r2, #1
 12613 46de 5A70     		strb	r2, [r3, #1]
2598:.\main.c      ****                             }
ARM GAS  C:\Users\RECEPC~1\AppData\Local\Temp\cc2OimPl.s 			page 274


2599:.\main.c      ****                         break;
 12614              		.loc 1 2599 0
 12615 46e0 38E0     		b	.L594
 12616              	.L619:
 12617 46e2 37E0     		b	.L594
 12618              	.L600:
2600:.\main.c      ****                         case 0xC2:      //id estacion   ahora datos ibutton                        
2601:.\main.c      ****                             set_imagen(1,110);                                
 12619              		.loc 1 2601 0
 12620 46e4 0120     		movs	r0, #1
 12621 46e6 6E21     		movs	r1, #110
 12622 46e8 FFF7FEFF 		bl	set_imagen
2602:.\main.c      **** 					        posx1=4;
 12623              		.loc 1 2602 0
 12624 46ec 104B     		ldr	r3, .L705+36
 12625 46ee 0422     		movs	r2, #4
 12626 46f0 1A80     		strh	r2, [r3]	@ movhi
2603:.\main.c      **** 					        posy1=3;
 12627              		.loc 1 2603 0
 12628 46f2 104B     		ldr	r3, .L705+40
 12629 46f4 0322     		movs	r2, #3
 12630 46f6 1A80     		strh	r2, [r3]	@ movhi
2604:.\main.c      **** 					        sizeletra1=1;            
 12631              		.loc 1 2604 0
 12632 46f8 0F4B     		ldr	r3, .L705+44
 12633 46fa 0122     		movs	r2, #1
 12634 46fc 1A80     		strh	r2, [r3]	@ movhi
2605:.\main.c      ****                             flujo_LCD1 = 11;
 12635              		.loc 1 2605 0
 12636 46fe 044B     		ldr	r3, .L705+4
 12637 4700 0B22     		movs	r2, #11
 12638 4702 1A70     		strb	r2, [r3]
2606:.\main.c      ****                             id_teclado1 = 10;
 12639              		.loc 1 2606 0
 12640 4704 064B     		ldr	r3, .L705+20
 12641 4706 0A22     		movs	r2, #10
 12642 4708 1A70     		strb	r2, [r3]
2607:.\main.c      ****                         break;                             
 12643              		.loc 1 2607 0
 12644 470a 23E0     		b	.L594
 12645              	.L706:
 12646              		.align	2
 12647              	.L705:
 12648 470c 00000000 		.word	rf_mod
 12649 4710 00000000 		.word	flujo_LCD1
 12650 4714 00000000 		.word	seleccion_pos
 12651 4718 00000000 		.word	lado1
 12652 471c 00000000 		.word	lado2
 12653 4720 00000000 		.word	id_teclado1
 12654 4724 00000000 		.word	count_teclas1
 12655 4728 00000000 		.word	id_coma1
 12656 472c 00000000 		.word	teclas1
 12657 4730 00000000 		.word	posx1
 12658 4734 00000000 		.word	posy1
 12659 4738 00000000 		.word	sizeletra1
 12660 473c 00000000 		.word	LCD_1_rxBuffer
 12661 4740 00000000 		.word	pantallas
ARM GAS  C:\Users\RECEPC~1\AppData\Local\Temp\cc2OimPl.s 			page 275


 12662              	.L597:
2608:.\main.c      **** 	                    case 0x7E:		//ir a menu
2609:.\main.c      **** 						  set_imagen(1,74);	
 12663              		.loc 1 2609 0
 12664 4744 0120     		movs	r0, #1
 12665 4746 4A21     		movs	r1, #74
 12666 4748 FFF7FEFF 		bl	set_imagen
2610:.\main.c      **** 	                      flujo_LCD1=0;     
 12667              		.loc 1 2610 0
 12668 474c A94B     		ldr	r3, .L707
 12669 474e 0022     		movs	r2, #0
 12670 4750 1A70     		strb	r2, [r3]
2611:.\main.c      **** 	                    break;                                   
 12671              		.loc 1 2611 0
 12672 4752 00BF     		nop
 12673              	.L594:
2612:.\main.c      ****                     }
2613:.\main.c      ****                 }
2614:.\main.c      ****                 CyDelay(100);            
 12674              		.loc 1 2614 0
 12675 4754 6420     		movs	r0, #100
 12676 4756 FFF7FEFF 		bl	CyDelay
2615:.\main.c      **** 	            LCD_1_ClearRxBuffer();
 12677              		.loc 1 2615 0
 12678 475a FFF7FEFF 		bl	LCD_1_ClearRxBuffer
2616:.\main.c      ****             }            
2617:.\main.c      ****         break;    
 12679              		.loc 1 2617 0
 12680 475e 45E1     		b	.L115
 12681              	.L593:
 12682              		.loc 1 2617 0 is_stmt 0 discriminator 19
 12683 4760 44E1     		b	.L115
 12684              	.L133:
2618:.\main.c      ****             
2619:.\main.c      ****         case 17:
2620:.\main.c      **** 	        if(LCD_1_GetRxBufferSize()==8){
 12685              		.loc 1 2620 0 is_stmt 1
 12686 4762 FFF7FEFF 		bl	LCD_1_GetRxBufferSize
 12687 4766 0346     		mov	r3, r0
 12688 4768 082B     		cmp	r3, #8
 12689 476a 4AD1     		bne	.L620
2621:.\main.c      **** 	            if((LCD_1_rxBuffer[0]==0xAA) && (LCD_1_rxBuffer[6]==0xC3) && (LCD_1_rxBuffer[7]==0x3C)
 12690              		.loc 1 2621 0
 12691 476c A24B     		ldr	r3, .L707+4
 12692 476e 1B78     		ldrb	r3, [r3]
 12693 4770 DBB2     		uxtb	r3, r3
 12694 4772 AA2B     		cmp	r3, #170
 12695 4774 3FD1     		bne	.L621
 12696              		.loc 1 2621 0 is_stmt 0 discriminator 1
 12697 4776 A04B     		ldr	r3, .L707+4
 12698 4778 9B79     		ldrb	r3, [r3, #6]
 12699 477a DBB2     		uxtb	r3, r3
 12700 477c C32B     		cmp	r3, #195
 12701 477e 3AD1     		bne	.L621
 12702              		.loc 1 2621 0 discriminator 2
 12703 4780 9D4B     		ldr	r3, .L707+4
 12704 4782 DB79     		ldrb	r3, [r3, #7]
ARM GAS  C:\Users\RECEPC~1\AppData\Local\Temp\cc2OimPl.s 			page 276


 12705 4784 DBB2     		uxtb	r3, r3
 12706 4786 3C2B     		cmp	r3, #60
 12707 4788 35D1     		bne	.L621
2622:.\main.c      **** 	                switch(LCD_1_rxBuffer[3]){
 12708              		.loc 1 2622 0 is_stmt 1
 12709 478a 9B4B     		ldr	r3, .L707+4
 12710 478c DB78     		ldrb	r3, [r3, #3]
 12711 478e DBB2     		uxtb	r3, r3
 12712 4790 8F2B     		cmp	r3, #143
 12713 4792 04D0     		beq	.L622
 12714 4794 902B     		cmp	r3, #144
 12715 4796 14D0     		beq	.L623
 12716 4798 7E2B     		cmp	r3, #126
 12717 479a 24D0     		beq	.L624
 12718 479c 2BE0     		b	.L621
 12719              	.L622:
2623:.\main.c      ****                         case 0x8f:  //X1
2624:.\main.c      **** 						    EEPROM_WriteByte(0x00,23);
 12720              		.loc 1 2624 0
 12721 479e 0020     		movs	r0, #0
 12722 47a0 1721     		movs	r1, #23
 12723 47a2 FFF7FEFF 		bl	EEPROM_WriteByte
2625:.\main.c      ****                         	flujo_LCD1 = 0;	
 12724              		.loc 1 2625 0
 12725 47a6 934B     		ldr	r3, .L707
 12726 47a8 0022     		movs	r2, #0
 12727 47aa 1A70     		strb	r2, [r3]
2626:.\main.c      ****                         	set_imagen(1,60);
 12728              		.loc 1 2626 0
 12729 47ac 0120     		movs	r0, #1
 12730 47ae 3C21     		movs	r1, #60
 12731 47b0 FFF7FEFF 		bl	set_imagen
2627:.\main.c      ****                             CyDelay(200);
 12732              		.loc 1 2627 0
 12733 47b4 C820     		movs	r0, #200
 12734 47b6 FFF7FEFF 		bl	CyDelay
2628:.\main.c      **** 							lado1.estado=libre;                          
 12735              		.loc 1 2628 0
 12736 47ba 904B     		ldr	r3, .L707+8
 12737 47bc 0122     		movs	r2, #1
 12738 47be 5A70     		strb	r2, [r3, #1]
2629:.\main.c      ****                         break;
 12739              		.loc 1 2629 0
 12740 47c0 19E0     		b	.L621
 12741              	.L623:
2630:.\main.c      ****                         case 0x90:  //X10
2631:.\main.c      **** 						    EEPROM_WriteByte(0x01,23);
 12742              		.loc 1 2631 0
 12743 47c2 0120     		movs	r0, #1
 12744 47c4 1721     		movs	r1, #23
 12745 47c6 FFF7FEFF 		bl	EEPROM_WriteByte
2632:.\main.c      ****                         	flujo_LCD1=0;	
 12746              		.loc 1 2632 0
 12747 47ca 8A4B     		ldr	r3, .L707
 12748 47cc 0022     		movs	r2, #0
 12749 47ce 1A70     		strb	r2, [r3]
2633:.\main.c      ****                         	set_imagen(1,60);
ARM GAS  C:\Users\RECEPC~1\AppData\Local\Temp\cc2OimPl.s 			page 277


 12750              		.loc 1 2633 0
 12751 47d0 0120     		movs	r0, #1
 12752 47d2 3C21     		movs	r1, #60
 12753 47d4 FFF7FEFF 		bl	set_imagen
2634:.\main.c      ****                             CyDelay(200);
 12754              		.loc 1 2634 0
 12755 47d8 C820     		movs	r0, #200
 12756 47da FFF7FEFF 		bl	CyDelay
2635:.\main.c      **** 							lado1.estado=libre;                           
 12757              		.loc 1 2635 0
 12758 47de 874B     		ldr	r3, .L707+8
 12759 47e0 0122     		movs	r2, #1
 12760 47e2 5A70     		strb	r2, [r3, #1]
2636:.\main.c      ****                         break;
 12761              		.loc 1 2636 0
 12762 47e4 07E0     		b	.L621
 12763              	.L624:
2637:.\main.c      **** 	                    case 0x7E:	//ir a menu
2638:.\main.c      **** 						  set_imagen(1,74);	
 12764              		.loc 1 2638 0
 12765 47e6 0120     		movs	r0, #1
 12766 47e8 4A21     		movs	r1, #74
 12767 47ea FFF7FEFF 		bl	set_imagen
2639:.\main.c      **** 	                      flujo_LCD1=0;     
 12768              		.loc 1 2639 0
 12769 47ee 814B     		ldr	r3, .L707
 12770 47f0 0022     		movs	r2, #0
 12771 47f2 1A70     		strb	r2, [r3]
2640:.\main.c      **** 	                    break;                         
 12772              		.loc 1 2640 0
 12773 47f4 00BF     		nop
 12774              	.L621:
2641:.\main.c      ****                     }
2642:.\main.c      ****                 }
2643:.\main.c      ****                 CyDelay(100);            
 12775              		.loc 1 2643 0
 12776 47f6 6420     		movs	r0, #100
 12777 47f8 FFF7FEFF 		bl	CyDelay
2644:.\main.c      **** 	            LCD_1_ClearRxBuffer();
 12778              		.loc 1 2644 0
 12779 47fc FFF7FEFF 		bl	LCD_1_ClearRxBuffer
2645:.\main.c      ****             }              
2646:.\main.c      ****         break;    
 12780              		.loc 1 2646 0
 12781 4800 F4E0     		b	.L115
 12782              	.L620:
 12783              		.loc 1 2646 0 is_stmt 0 discriminator 20
 12784 4802 F3E0     		b	.L115
 12785              	.L134:
2647:.\main.c      ****                   
2648:.\main.c      ****             
2649:.\main.c      ****         case 19:
2650:.\main.c      **** 			rf_mod[0]='M';
 12786              		.loc 1 2650 0 is_stmt 1
 12787 4804 7E4B     		ldr	r3, .L707+12
 12788 4806 4D22     		movs	r2, #77
 12789 4808 1A70     		strb	r2, [r3]
ARM GAS  C:\Users\RECEPC~1\AppData\Local\Temp\cc2OimPl.s 			page 278


2651:.\main.c      **** 			rf_mod[1]='U';
 12790              		.loc 1 2651 0
 12791 480a 7D4B     		ldr	r3, .L707+12
 12792 480c 5522     		movs	r2, #85
 12793 480e 5A70     		strb	r2, [r3, #1]
2652:.\main.c      **** 			rf_mod[2]='X';
 12794              		.loc 1 2652 0
 12795 4810 7B4B     		ldr	r3, .L707+12
 12796 4812 5822     		movs	r2, #88
 12797 4814 9A70     		strb	r2, [r3, #2]
2653:.\main.c      **** 			rf_mod[3]='5';  
 12798              		.loc 1 2653 0
 12799 4816 7A4B     		ldr	r3, .L707+12
 12800 4818 3522     		movs	r2, #53
 12801 481a DA70     		strb	r2, [r3, #3]
2654:.\main.c      ****             if(seleccion_pos == 1){
 12802              		.loc 1 2654 0
 12803 481c 794B     		ldr	r3, .L707+16
 12804 481e 1B78     		ldrb	r3, [r3]
 12805 4820 DBB2     		uxtb	r3, r3
 12806 4822 012B     		cmp	r3, #1
 12807 4824 65D1     		bne	.L625
2655:.\main.c      **** 			    for(x=0;x<=15;x++){						//Serial				
 12808              		.loc 1 2655 0
 12809 4826 0023     		movs	r3, #0
 12810 4828 87F82F30 		strb	r3, [r7, #47]
 12811 482c 3AE0     		b	.L626
 12812              	.L629:
2656:.\main.c      **** 				    y=(rventa1.id[x/2]>>4)&0x0F;
 12813              		.loc 1 2656 0
 12814 482e 97F82F30 		ldrb	r3, [r7, #47]	@ zero_extendqisi2
 12815 4832 5B08     		lsrs	r3, r3, #1
 12816 4834 DBB2     		uxtb	r3, r3
 12817 4836 1A46     		mov	r2, r3
 12818 4838 734B     		ldr	r3, .L707+20
 12819 483a 1344     		add	r3, r3, r2
 12820 483c 93F82330 		ldrb	r3, [r3, #35]	@ zero_extendqisi2
 12821 4840 1B09     		lsrs	r3, r3, #4
 12822 4842 87F82E30 		strb	r3, [r7, #46]
2657:.\main.c      **** 				    if((x%2)==0){
 12823              		.loc 1 2657 0
 12824 4846 97F82F30 		ldrb	r3, [r7, #47]
 12825 484a 03F00103 		and	r3, r3, #1
 12826 484e DBB2     		uxtb	r3, r3
 12827 4850 002B     		cmp	r3, #0
 12828 4852 0CD1     		bne	.L627
2658:.\main.c      **** 					    y=rventa1.id[x/2]&0x0F;
 12829              		.loc 1 2658 0
 12830 4854 97F82F30 		ldrb	r3, [r7, #47]	@ zero_extendqisi2
 12831 4858 5B08     		lsrs	r3, r3, #1
 12832 485a DBB2     		uxtb	r3, r3
 12833 485c 1A46     		mov	r2, r3
 12834 485e 6A4B     		ldr	r3, .L707+20
 12835 4860 1344     		add	r3, r3, r2
 12836 4862 93F82330 		ldrb	r3, [r3, #35]	@ zero_extendqisi2
 12837 4866 03F00F03 		and	r3, r3, #15
 12838 486a 87F82E30 		strb	r3, [r7, #46]
ARM GAS  C:\Users\RECEPC~1\AppData\Local\Temp\cc2OimPl.s 			page 279


 12839              	.L627:
2659:.\main.c      **** 				    }
2660:.\main.c      **** 				    rf_mod[x+4] = y+48;
 12840              		.loc 1 2660 0
 12841 486e 97F82F30 		ldrb	r3, [r7, #47]	@ zero_extendqisi2
 12842 4872 0433     		adds	r3, r3, #4
 12843 4874 97F82E20 		ldrb	r2, [r7, #46]
 12844 4878 3032     		adds	r2, r2, #48
 12845 487a D1B2     		uxtb	r1, r2
 12846 487c 604A     		ldr	r2, .L707+12
 12847 487e D154     		strb	r1, [r2, r3]
2661:.\main.c      **** 				    if(y>9){
 12848              		.loc 1 2661 0
 12849 4880 97F82E30 		ldrb	r3, [r7, #46]	@ zero_extendqisi2
 12850 4884 092B     		cmp	r3, #9
 12851 4886 08D9     		bls	.L628
2662:.\main.c      **** 					    rf_mod[x+4] = y+55;
 12852              		.loc 1 2662 0
 12853 4888 97F82F30 		ldrb	r3, [r7, #47]	@ zero_extendqisi2
 12854 488c 0433     		adds	r3, r3, #4
 12855 488e 97F82E20 		ldrb	r2, [r7, #46]
 12856 4892 3732     		adds	r2, r2, #55
 12857 4894 D1B2     		uxtb	r1, r2
 12858 4896 5A4A     		ldr	r2, .L707+12
 12859 4898 D154     		strb	r1, [r2, r3]
 12860              	.L628:
2655:.\main.c      **** 				    y=(rventa1.id[x/2]>>4)&0x0F;
 12861              		.loc 1 2655 0 discriminator 2
 12862 489a 97F82F30 		ldrb	r3, [r7, #47]	@ zero_extendqisi2
 12863 489e 0133     		adds	r3, r3, #1
 12864 48a0 87F82F30 		strb	r3, [r7, #47]
 12865              	.L626:
2655:.\main.c      **** 				    y=(rventa1.id[x/2]>>4)&0x0F;
 12866              		.loc 1 2655 0 is_stmt 0 discriminator 1
 12867 48a4 97F82F30 		ldrb	r3, [r7, #47]	@ zero_extendqisi2
 12868 48a8 0F2B     		cmp	r3, #15
 12869 48aa C0D9     		bls	.L629
2663:.\main.c      **** 				    }
2664:.\main.c      **** 			    }            
2665:.\main.c      ****     			rf_mod[20]='*';					
 12870              		.loc 1 2665 0 is_stmt 1
 12871 48ac 544B     		ldr	r3, .L707+12
 12872 48ae 2A22     		movs	r2, #42
 12873 48b0 1A75     		strb	r2, [r3, #20]
2666:.\main.c      ****     			PC_ClearRxBuffer();
 12874              		.loc 1 2666 0
 12875 48b2 FFF7FEFF 		bl	PC_ClearRxBuffer
2667:.\main.c      ****                 for(x=0;x<=20;x++){
 12876              		.loc 1 2667 0
 12877 48b6 0023     		movs	r3, #0
 12878 48b8 87F82F30 		strb	r3, [r7, #47]
 12879 48bc 0BE0     		b	.L630
 12880              	.L631:
2668:.\main.c      ****     			    PC_PutChar(rf_mod[x]);
 12881              		.loc 1 2668 0 discriminator 3
 12882 48be 97F82F30 		ldrb	r3, [r7, #47]	@ zero_extendqisi2
 12883 48c2 4F4A     		ldr	r2, .L707+12
ARM GAS  C:\Users\RECEPC~1\AppData\Local\Temp\cc2OimPl.s 			page 280


 12884 48c4 D35C     		ldrb	r3, [r2, r3]	@ zero_extendqisi2
 12885 48c6 1846     		mov	r0, r3
 12886 48c8 FFF7FEFF 		bl	PC_PutChar
2667:.\main.c      ****                 for(x=0;x<=20;x++){
 12887              		.loc 1 2667 0 discriminator 3
 12888 48cc 97F82F30 		ldrb	r3, [r7, #47]	@ zero_extendqisi2
 12889 48d0 0133     		adds	r3, r3, #1
 12890 48d2 87F82F30 		strb	r3, [r7, #47]
 12891              	.L630:
2667:.\main.c      ****                 for(x=0;x<=20;x++){
 12892              		.loc 1 2667 0 is_stmt 0 discriminator 1
 12893 48d6 97F82F30 		ldrb	r3, [r7, #47]	@ zero_extendqisi2
 12894 48da 142B     		cmp	r3, #20
 12895 48dc EFD9     		bls	.L631
2669:.\main.c      ****     			}
2670:.\main.c      ****                 set_imagen(1,0);	
 12896              		.loc 1 2670 0 is_stmt 1
 12897 48de 0120     		movs	r0, #1
 12898 48e0 0021     		movs	r1, #0
 12899 48e2 FFF7FEFF 		bl	set_imagen
2671:.\main.c      ****     	        flujo_LCD1 = 0;    
 12900              		.loc 1 2671 0
 12901 48e6 434B     		ldr	r3, .L707
 12902 48e8 0022     		movs	r2, #0
 12903 48ea 1A70     		strb	r2, [r3]
2672:.\main.c      ****     			lado1.estado=libre;            
 12904              		.loc 1 2672 0
 12905 48ec 434B     		ldr	r3, .L707+8
 12906 48ee 0122     		movs	r2, #1
 12907 48f0 5A70     		strb	r2, [r3, #1]
 12908              	.L625:
2673:.\main.c      ****             }
2674:.\main.c      ****             if(seleccion_pos == 2){
 12909              		.loc 1 2674 0
 12910 48f2 444B     		ldr	r3, .L707+16
 12911 48f4 1B78     		ldrb	r3, [r3]
 12912 48f6 DBB2     		uxtb	r3, r3
 12913 48f8 022B     		cmp	r3, #2
 12914 48fa 66D1     		bne	.L632
2675:.\main.c      **** 			    for(x=0;x<=15;x++){						//Serial				
 12915              		.loc 1 2675 0
 12916 48fc 0023     		movs	r3, #0
 12917 48fe 87F82F30 		strb	r3, [r7, #47]
 12918 4902 3AE0     		b	.L633
 12919              	.L636:
2676:.\main.c      **** 				    y=(rventa2.id[x/2]>>4)&0x0F;
 12920              		.loc 1 2676 0
 12921 4904 97F82F30 		ldrb	r3, [r7, #47]	@ zero_extendqisi2
 12922 4908 5B08     		lsrs	r3, r3, #1
 12923 490a DBB2     		uxtb	r3, r3
 12924 490c 1A46     		mov	r2, r3
 12925 490e 3F4B     		ldr	r3, .L707+24
 12926 4910 1344     		add	r3, r3, r2
 12927 4912 93F82330 		ldrb	r3, [r3, #35]	@ zero_extendqisi2
 12928 4916 1B09     		lsrs	r3, r3, #4
 12929 4918 87F82E30 		strb	r3, [r7, #46]
2677:.\main.c      **** 				    if((x%2)==0){
ARM GAS  C:\Users\RECEPC~1\AppData\Local\Temp\cc2OimPl.s 			page 281


 12930              		.loc 1 2677 0
 12931 491c 97F82F30 		ldrb	r3, [r7, #47]
 12932 4920 03F00103 		and	r3, r3, #1
 12933 4924 DBB2     		uxtb	r3, r3
 12934 4926 002B     		cmp	r3, #0
 12935 4928 0CD1     		bne	.L634
2678:.\main.c      **** 					    y=rventa2.id[x/2]&0x0F;
 12936              		.loc 1 2678 0
 12937 492a 97F82F30 		ldrb	r3, [r7, #47]	@ zero_extendqisi2
 12938 492e 5B08     		lsrs	r3, r3, #1
 12939 4930 DBB2     		uxtb	r3, r3
 12940 4932 1A46     		mov	r2, r3
 12941 4934 354B     		ldr	r3, .L707+24
 12942 4936 1344     		add	r3, r3, r2
 12943 4938 93F82330 		ldrb	r3, [r3, #35]	@ zero_extendqisi2
 12944 493c 03F00F03 		and	r3, r3, #15
 12945 4940 87F82E30 		strb	r3, [r7, #46]
 12946              	.L634:
2679:.\main.c      **** 				    }
2680:.\main.c      **** 				    rf_mod[x+4] = y+48;
 12947              		.loc 1 2680 0
 12948 4944 97F82F30 		ldrb	r3, [r7, #47]	@ zero_extendqisi2
 12949 4948 0433     		adds	r3, r3, #4
 12950 494a 97F82E20 		ldrb	r2, [r7, #46]
 12951 494e 3032     		adds	r2, r2, #48
 12952 4950 D1B2     		uxtb	r1, r2
 12953 4952 2B4A     		ldr	r2, .L707+12
 12954 4954 D154     		strb	r1, [r2, r3]
2681:.\main.c      **** 				    if(y>9){
 12955              		.loc 1 2681 0
 12956 4956 97F82E30 		ldrb	r3, [r7, #46]	@ zero_extendqisi2
 12957 495a 092B     		cmp	r3, #9
 12958 495c 08D9     		bls	.L635
2682:.\main.c      **** 					    rf_mod[x+4] = y+55;
 12959              		.loc 1 2682 0
 12960 495e 97F82F30 		ldrb	r3, [r7, #47]	@ zero_extendqisi2
 12961 4962 0433     		adds	r3, r3, #4
 12962 4964 97F82E20 		ldrb	r2, [r7, #46]
 12963 4968 3732     		adds	r2, r2, #55
 12964 496a D1B2     		uxtb	r1, r2
 12965 496c 244A     		ldr	r2, .L707+12
 12966 496e D154     		strb	r1, [r2, r3]
 12967              	.L635:
2675:.\main.c      **** 				    y=(rventa2.id[x/2]>>4)&0x0F;
 12968              		.loc 1 2675 0 discriminator 2
 12969 4970 97F82F30 		ldrb	r3, [r7, #47]	@ zero_extendqisi2
 12970 4974 0133     		adds	r3, r3, #1
 12971 4976 87F82F30 		strb	r3, [r7, #47]
 12972              	.L633:
2675:.\main.c      **** 				    y=(rventa2.id[x/2]>>4)&0x0F;
 12973              		.loc 1 2675 0 is_stmt 0 discriminator 1
 12974 497a 97F82F30 		ldrb	r3, [r7, #47]	@ zero_extendqisi2
 12975 497e 0F2B     		cmp	r3, #15
 12976 4980 C0D9     		bls	.L636
2683:.\main.c      **** 				    }
2684:.\main.c      **** 			    }            
2685:.\main.c      ****     			rf_mod[20]='*';					
ARM GAS  C:\Users\RECEPC~1\AppData\Local\Temp\cc2OimPl.s 			page 282


 12977              		.loc 1 2685 0 is_stmt 1
 12978 4982 1F4B     		ldr	r3, .L707+12
 12979 4984 2A22     		movs	r2, #42
 12980 4986 1A75     		strb	r2, [r3, #20]
2686:.\main.c      ****     			PC_ClearRxBuffer();
 12981              		.loc 1 2686 0
 12982 4988 FFF7FEFF 		bl	PC_ClearRxBuffer
2687:.\main.c      ****                 for(x=0;x<=20;x++){
 12983              		.loc 1 2687 0
 12984 498c 0023     		movs	r3, #0
 12985 498e 87F82F30 		strb	r3, [r7, #47]
 12986 4992 0BE0     		b	.L637
 12987              	.L638:
2688:.\main.c      ****     			    PC_PutChar(rf_mod[x]);
 12988              		.loc 1 2688 0 discriminator 3
 12989 4994 97F82F30 		ldrb	r3, [r7, #47]	@ zero_extendqisi2
 12990 4998 194A     		ldr	r2, .L707+12
 12991 499a D35C     		ldrb	r3, [r2, r3]	@ zero_extendqisi2
 12992 499c 1846     		mov	r0, r3
 12993 499e FFF7FEFF 		bl	PC_PutChar
2687:.\main.c      ****                 for(x=0;x<=20;x++){
 12994              		.loc 1 2687 0 discriminator 3
 12995 49a2 97F82F30 		ldrb	r3, [r7, #47]	@ zero_extendqisi2
 12996 49a6 0133     		adds	r3, r3, #1
 12997 49a8 87F82F30 		strb	r3, [r7, #47]
 12998              	.L637:
2687:.\main.c      ****                 for(x=0;x<=20;x++){
 12999              		.loc 1 2687 0 is_stmt 0 discriminator 1
 13000 49ac 97F82F30 		ldrb	r3, [r7, #47]	@ zero_extendqisi2
 13001 49b0 142B     		cmp	r3, #20
 13002 49b2 EFD9     		bls	.L638
2689:.\main.c      ****     			}
2690:.\main.c      ****                 set_imagen(1,0);	
 13003              		.loc 1 2690 0 is_stmt 1
 13004 49b4 0120     		movs	r0, #1
 13005 49b6 0021     		movs	r1, #0
 13006 49b8 FFF7FEFF 		bl	set_imagen
2691:.\main.c      ****     	        flujo_LCD1 = 0;    
 13007              		.loc 1 2691 0
 13008 49bc 0D4B     		ldr	r3, .L707
 13009 49be 0022     		movs	r2, #0
 13010 49c0 1A70     		strb	r2, [r3]
2692:.\main.c      ****     			lado2.estado=libre;            
 13011              		.loc 1 2692 0
 13012 49c2 134B     		ldr	r3, .L707+28
 13013 49c4 0122     		movs	r2, #1
 13014 49c6 5A70     		strb	r2, [r3, #1]
2693:.\main.c      ****             }
2694:.\main.c      **** 		break;    
 13015              		.loc 1 2694 0
 13016 49c8 10E0     		b	.L115
 13017              	.L632:
 13018              		.loc 1 2694 0 is_stmt 0 discriminator 21
 13019 49ca 0FE0     		b	.L115
 13020              	.L137:
2695:.\main.c      ****         
2696:.\main.c      ****             
ARM GAS  C:\Users\RECEPC~1\AppData\Local\Temp\cc2OimPl.s 			page 283


2697:.\main.c      ****         case 102:
2698:.\main.c      ****             
2699:.\main.c      ****             
2700:.\main.c      ****         break;
2701:.\main.c      ****             
2702:.\main.c      ****         case 100:  
2703:.\main.c      ****          if(count_protector>=4){
 13021              		.loc 1 2703 0 is_stmt 1
 13022 49cc 114B     		ldr	r3, .L707+32
 13023 49ce 1B78     		ldrb	r3, [r3]
 13024 49d0 DBB2     		uxtb	r3, r3
 13025 49d2 032B     		cmp	r3, #3
 13026 49d4 09D9     		bls	.L639
2704:.\main.c      ****             flujo_LCD1=0;
 13027              		.loc 1 2704 0
 13028 49d6 074B     		ldr	r3, .L707
 13029 49d8 0022     		movs	r2, #0
 13030 49da 1A70     		strb	r2, [r3]
2705:.\main.c      ****             isr_3_Stop(); 
 13031              		.loc 1 2705 0
 13032 49dc FFF7FEFF 		bl	isr_3_Stop
2706:.\main.c      ****             Timer_Animacion_Stop(); 
 13033              		.loc 1 2706 0
 13034 49e0 FFF7FEFF 		bl	Timer_Animacion_Stop
2707:.\main.c      ****             count_protector=0;
 13035              		.loc 1 2707 0
 13036 49e4 0B4B     		ldr	r3, .L707+32
 13037 49e6 0022     		movs	r2, #0
 13038 49e8 1A70     		strb	r2, [r3]
 13039              	.L639:
2708:.\main.c      ****          }            
2709:.\main.c      ****         break;
 13040              		.loc 1 2709 0 discriminator 23
 13041 49ea 00BF     		nop
 13042              	.L115:
2710:.\main.c      ****             
2711:.\main.c      ****             
2712:.\main.c      ****             
2713:.\main.c      ****     }
2714:.\main.c      **** }
 13043              		.loc 1 2714 0
 13044 49ec 3037     		adds	r7, r7, #48
 13045              		.cfi_def_cfa_offset 16
 13046 49ee BD46     		mov	sp, r7
 13047              		.cfi_def_cfa_register 13
 13048              		@ sp needed
 13049 49f0 B0BD     		pop	{r4, r5, r7, pc}
 13050              	.L708:
 13051 49f2 00BF     		.align	2
 13052              	.L707:
 13053 49f4 00000000 		.word	flujo_LCD1
 13054 49f8 00000000 		.word	LCD_1_rxBuffer
 13055 49fc 00000000 		.word	lado1
 13056 4a00 00000000 		.word	rf_mod
 13057 4a04 00000000 		.word	seleccion_pos
 13058 4a08 00000000 		.word	rventa1
 13059 4a0c 00000000 		.word	rventa2
ARM GAS  C:\Users\RECEPC~1\AppData\Local\Temp\cc2OimPl.s 			page 284


 13060 4a10 00000000 		.word	lado2
 13061 4a14 00000000 		.word	count_protector
 13062              		.cfi_endproc
 13063              	.LFE69:
 13064              		.size	polling_LCD1, .-polling_LCD1
 13065              		.section	.text.polling_LCD2,"ax",%progbits
 13066              		.align	2
 13067              		.global	polling_LCD2
 13068              		.thumb
 13069              		.thumb_func
 13070              		.type	polling_LCD2, %function
 13071              	polling_LCD2:
 13072              	.LFB70:
2715:.\main.c      **** 
2716:.\main.c      **** 
2717:.\main.c      **** /*
2718:.\main.c      **** ***************************************************************************************************
2719:.\main.c      **** *                                         void polling_LCD2(void)
2720:.\main.c      **** *
2721:.\main.c      **** * Description : 
2722:.\main.c      **** *               
2723:.\main.c      **** *
2724:.\main.c      **** * Argument(s) : none
2725:.\main.c      **** *
2726:.\main.c      **** * Return(s)   : none
2727:.\main.c      **** *
2728:.\main.c      **** * Caller(s)   : 
2729:.\main.c      **** *
2730:.\main.c      **** * Note(s)     : none.
2731:.\main.c      **** ***************************************************************************************************
2732:.\main.c      **** */
2733:.\main.c      **** 
2734:.\main.c      **** void polling_LCD2(void){ 
 13073              		.loc 1 2734 0
 13074              		.cfi_startproc
 13075              		@ args = 0, pretend = 0, frame = 0
 13076              		@ frame_needed = 1, uses_anonymous_args = 0
 13077              		@ link register save eliminated.
 13078 0000 80B4     		push	{r7}
 13079              		.cfi_def_cfa_offset 4
 13080              		.cfi_offset 7, -4
 13081 0002 00AF     		add	r7, sp, #0
 13082              		.cfi_def_cfa_register 7
2735:.\main.c      ****     
2736:.\main.c      ****     
2737:.\main.c      **** }
 13083              		.loc 1 2737 0
 13084 0004 BD46     		mov	sp, r7
 13085              		.cfi_def_cfa_register 13
 13086              		@ sp needed
 13087 0006 5DF8047B 		ldr	r7, [sp], #4
 13088              		.cfi_restore 7
 13089              		.cfi_def_cfa_offset 0
 13090 000a 7047     		bx	lr
 13091              		.cfi_endproc
 13092              	.LFE70:
 13093              		.size	polling_LCD2, .-polling_LCD2
ARM GAS  C:\Users\RECEPC~1\AppData\Local\Temp\cc2OimPl.s 			page 285


 13094              		.section	.text.polling_wd,"ax",%progbits
 13095              		.align	2
 13096              		.global	polling_wd
 13097              		.thumb
 13098              		.thumb_func
 13099              		.type	polling_wd, %function
 13100              	polling_wd:
 13101              	.LFB71:
2738:.\main.c      **** 
2739:.\main.c      **** /*
2740:.\main.c      **** ***************************************************************************************************
2741:.\main.c      **** *                                        void polling_wd(void)
2742:.\main.c      **** *
2743:.\main.c      **** * Description : 
2744:.\main.c      **** *               
2745:.\main.c      **** *
2746:.\main.c      **** * Argument(s) : none
2747:.\main.c      **** *
2748:.\main.c      **** * Return(s)   : none
2749:.\main.c      **** *
2750:.\main.c      **** * Caller(s)   : 
2751:.\main.c      **** *
2752:.\main.c      **** * Note(s)     : none.
2753:.\main.c      **** ***************************************************************************************************
2754:.\main.c      **** */
2755:.\main.c      **** void polling_wd(void){
 13102              		.loc 1 2755 0
 13103              		.cfi_startproc
 13104              		@ args = 0, pretend = 0, frame = 0
 13105              		@ frame_needed = 1, uses_anonymous_args = 0
 13106              		@ link register save eliminated.
 13107 0000 80B4     		push	{r7}
 13108              		.cfi_def_cfa_offset 4
 13109              		.cfi_offset 7, -4
 13110 0002 00AF     		add	r7, sp, #0
 13111              		.cfi_def_cfa_register 7
2756:.\main.c      **** 
2757:.\main.c      **** }
 13112              		.loc 1 2757 0
 13113 0004 BD46     		mov	sp, r7
 13114              		.cfi_def_cfa_register 13
 13115              		@ sp needed
 13116 0006 5DF8047B 		ldr	r7, [sp], #4
 13117              		.cfi_restore 7
 13118              		.cfi_def_cfa_offset 0
 13119 000a 7047     		bx	lr
 13120              		.cfi_endproc
 13121              	.LFE71:
 13122              		.size	polling_wd, .-polling_wd
 13123              		.section	.text.animacion,"ax",%progbits
 13124              		.align	2
 13125              		.global	animacion
 13126              		.thumb
 13127              		.thumb_func
 13128              		.type	animacion, %function
 13129              	animacion:
 13130              	.LFB72:
ARM GAS  C:\Users\RECEPC~1\AppData\Local\Temp\cc2OimPl.s 			page 286


2758:.\main.c      **** 
2759:.\main.c      **** /*
2760:.\main.c      **** ***************************************************************************************************
2761:.\main.c      **** *                                         CY_ISR(animacion)
2762:.\main.c      **** *
2763:.\main.c      **** * Description : 
2764:.\main.c      **** *               
2765:.\main.c      **** *
2766:.\main.c      **** * Argument(s) : none
2767:.\main.c      **** *
2768:.\main.c      **** * Return(s)   : none
2769:.\main.c      **** *
2770:.\main.c      **** * Caller(s)   : 
2771:.\main.c      **** *
2772:.\main.c      **** * Note(s)     : none.
2773:.\main.c      **** ***************************************************************************************************
2774:.\main.c      **** */
2775:.\main.c      **** CY_ISR(animacion){
 13131              		.loc 1 2775 0
 13132              		.cfi_startproc
 13133              		@ args = 0, pretend = 0, frame = 0
 13134              		@ frame_needed = 1, uses_anonymous_args = 0
 13135 0000 80B5     		push	{r7, lr}
 13136              		.cfi_def_cfa_offset 8
 13137              		.cfi_offset 7, -8
 13138              		.cfi_offset 14, -4
 13139 0002 00AF     		add	r7, sp, #0
 13140              		.cfi_def_cfa_register 7
2776:.\main.c      ****     Timer_Animacion_ReadStatusRegister();
 13141              		.loc 1 2776 0
 13142 0004 FFF7FEFF 		bl	Timer_Animacion_ReadStatusRegister
2777:.\main.c      ****     if(flujo_LCD1==1){
 13143              		.loc 1 2777 0
 13144 0008 184B     		ldr	r3, .L716
 13145 000a 1B78     		ldrb	r3, [r3]
 13146 000c DBB2     		uxtb	r3, r3
 13147 000e 012B     		cmp	r3, #1
 13148 0010 24D1     		bne	.L712
2778:.\main.c      ****         if(count_protector<=6){
 13149              		.loc 1 2778 0
 13150 0012 174B     		ldr	r3, .L716+4
 13151 0014 1B78     		ldrb	r3, [r3]
 13152 0016 DBB2     		uxtb	r3, r3
 13153 0018 062B     		cmp	r3, #6
 13154 001a 11D8     		bhi	.L713
2779:.\main.c      ****             count_protector++;
 13155              		.loc 1 2779 0
 13156 001c 144B     		ldr	r3, .L716+4
 13157 001e 1B78     		ldrb	r3, [r3]
 13158 0020 DBB2     		uxtb	r3, r3
 13159 0022 0133     		adds	r3, r3, #1
 13160 0024 DAB2     		uxtb	r2, r3
 13161 0026 124B     		ldr	r3, .L716+4
 13162 0028 1A70     		strb	r2, [r3]
2780:.\main.c      ****             set_imagen(1,(iprotector5+count_protector));  
 13163              		.loc 1 2780 0
 13164 002a 114B     		ldr	r3, .L716+4
ARM GAS  C:\Users\RECEPC~1\AppData\Local\Temp\cc2OimPl.s 			page 287


 13165 002c 1B78     		ldrb	r3, [r3]
 13166 002e DBB2     		uxtb	r3, r3
 13167 0030 9BB2     		uxth	r3, r3
 13168 0032 1433     		adds	r3, r3, #20
 13169 0034 9BB2     		uxth	r3, r3
 13170 0036 0120     		movs	r0, #1
 13171 0038 1946     		mov	r1, r3
 13172 003a FFF7FEFF 		bl	set_imagen
 13173 003e 14E0     		b	.L711
 13174              	.L713:
2781:.\main.c      ****         }
2782:.\main.c      ****         else{
2783:.\main.c      ****            count_protector=0; 
 13175              		.loc 1 2783 0
 13176 0040 0B4B     		ldr	r3, .L716+4
 13177 0042 0022     		movs	r2, #0
 13178 0044 1A70     		strb	r2, [r3]
2784:.\main.c      ****            set_imagen(1,(iprotector5+count_protector));  
 13179              		.loc 1 2784 0
 13180 0046 0A4B     		ldr	r3, .L716+4
 13181 0048 1B78     		ldrb	r3, [r3]
 13182 004a DBB2     		uxtb	r3, r3
 13183 004c 9BB2     		uxth	r3, r3
 13184 004e 1433     		adds	r3, r3, #20
 13185 0050 9BB2     		uxth	r3, r3
 13186 0052 0120     		movs	r0, #1
 13187 0054 1946     		mov	r1, r3
 13188 0056 FFF7FEFF 		bl	set_imagen
 13189 005a 06E0     		b	.L711
 13190              	.L712:
2785:.\main.c      ****         }
2786:.\main.c      ****     }
2787:.\main.c      ****     else{
2788:.\main.c      ****         count_protector++;
 13191              		.loc 1 2788 0
 13192 005c 044B     		ldr	r3, .L716+4
 13193 005e 1B78     		ldrb	r3, [r3]
 13194 0060 DBB2     		uxtb	r3, r3
 13195 0062 0133     		adds	r3, r3, #1
 13196 0064 DAB2     		uxtb	r2, r3
 13197 0066 024B     		ldr	r3, .L716+4
 13198 0068 1A70     		strb	r2, [r3]
 13199              	.L711:
2789:.\main.c      ****     }
2790:.\main.c      **** }
 13200              		.loc 1 2790 0
 13201 006a 80BD     		pop	{r7, pc}
 13202              	.L717:
 13203              		.align	2
 13204              	.L716:
 13205 006c 00000000 		.word	flujo_LCD1
 13206 0070 00000000 		.word	count_protector
 13207              		.cfi_endproc
 13208              	.LFE72:
 13209              		.size	animacion, .-animacion
 13210              		.section	.text.animacion2,"ax",%progbits
 13211              		.align	2
ARM GAS  C:\Users\RECEPC~1\AppData\Local\Temp\cc2OimPl.s 			page 288


 13212              		.global	animacion2
 13213              		.thumb
 13214              		.thumb_func
 13215              		.type	animacion2, %function
 13216              	animacion2:
 13217              	.LFB73:
2791:.\main.c      **** 
2792:.\main.c      **** /*
2793:.\main.c      **** ***************************************************************************************************
2794:.\main.c      **** *                                         CY_ISR(animacion)
2795:.\main.c      **** *
2796:.\main.c      **** * Description : 
2797:.\main.c      **** *               
2798:.\main.c      **** *
2799:.\main.c      **** * Argument(s) : none
2800:.\main.c      **** *
2801:.\main.c      **** * Return(s)   : none
2802:.\main.c      **** *
2803:.\main.c      **** * Caller(s)   : 
2804:.\main.c      **** *
2805:.\main.c      **** * Note(s)     : none.
2806:.\main.c      **** ***************************************************************************************************
2807:.\main.c      **** */
2808:.\main.c      **** CY_ISR(animacion2){
 13218              		.loc 1 2808 0
 13219              		.cfi_startproc
 13220              		@ args = 0, pretend = 0, frame = 0
 13221              		@ frame_needed = 1, uses_anonymous_args = 0
 13222 0000 80B5     		push	{r7, lr}
 13223              		.cfi_def_cfa_offset 8
 13224              		.cfi_offset 7, -8
 13225              		.cfi_offset 14, -4
 13226 0002 00AF     		add	r7, sp, #0
 13227              		.cfi_def_cfa_register 7
2809:.\main.c      ****     Timer_Animacion2_ReadStatusRegister();
 13228              		.loc 1 2809 0
 13229 0004 FFF7FEFF 		bl	Timer_Animacion2_ReadStatusRegister
2810:.\main.c      ****     if(flujo_LCD2==1){
 13230              		.loc 1 2810 0
 13231 0008 184B     		ldr	r3, .L723
 13232 000a 1B78     		ldrb	r3, [r3]
 13233 000c DBB2     		uxtb	r3, r3
 13234 000e 012B     		cmp	r3, #1
 13235 0010 24D1     		bne	.L719
2811:.\main.c      ****         if(count_protector2<=6){
 13236              		.loc 1 2811 0
 13237 0012 174B     		ldr	r3, .L723+4
 13238 0014 1B78     		ldrb	r3, [r3]
 13239 0016 DBB2     		uxtb	r3, r3
 13240 0018 062B     		cmp	r3, #6
 13241 001a 11D8     		bhi	.L720
2812:.\main.c      ****             count_protector2++;
 13242              		.loc 1 2812 0
 13243 001c 144B     		ldr	r3, .L723+4
 13244 001e 1B78     		ldrb	r3, [r3]
 13245 0020 DBB2     		uxtb	r3, r3
 13246 0022 0133     		adds	r3, r3, #1
ARM GAS  C:\Users\RECEPC~1\AppData\Local\Temp\cc2OimPl.s 			page 289


 13247 0024 DAB2     		uxtb	r2, r3
 13248 0026 124B     		ldr	r3, .L723+4
 13249 0028 1A70     		strb	r2, [r3]
2813:.\main.c      ****             set_imagen(2,(iprotector5+count_protector2));  
 13250              		.loc 1 2813 0
 13251 002a 114B     		ldr	r3, .L723+4
 13252 002c 1B78     		ldrb	r3, [r3]
 13253 002e DBB2     		uxtb	r3, r3
 13254 0030 9BB2     		uxth	r3, r3
 13255 0032 1433     		adds	r3, r3, #20
 13256 0034 9BB2     		uxth	r3, r3
 13257 0036 0220     		movs	r0, #2
 13258 0038 1946     		mov	r1, r3
 13259 003a FFF7FEFF 		bl	set_imagen
 13260 003e 14E0     		b	.L718
 13261              	.L720:
2814:.\main.c      ****         }
2815:.\main.c      ****         else{
2816:.\main.c      ****            count_protector2=0; 
 13262              		.loc 1 2816 0
 13263 0040 0B4B     		ldr	r3, .L723+4
 13264 0042 0022     		movs	r2, #0
 13265 0044 1A70     		strb	r2, [r3]
2817:.\main.c      ****            set_imagen(2,(iprotector5+count_protector2));  
 13266              		.loc 1 2817 0
 13267 0046 0A4B     		ldr	r3, .L723+4
 13268 0048 1B78     		ldrb	r3, [r3]
 13269 004a DBB2     		uxtb	r3, r3
 13270 004c 9BB2     		uxth	r3, r3
 13271 004e 1433     		adds	r3, r3, #20
 13272 0050 9BB2     		uxth	r3, r3
 13273 0052 0220     		movs	r0, #2
 13274 0054 1946     		mov	r1, r3
 13275 0056 FFF7FEFF 		bl	set_imagen
 13276 005a 06E0     		b	.L718
 13277              	.L719:
2818:.\main.c      ****         }
2819:.\main.c      ****     }
2820:.\main.c      ****     else{
2821:.\main.c      ****         count_protector2++;
 13278              		.loc 1 2821 0
 13279 005c 044B     		ldr	r3, .L723+4
 13280 005e 1B78     		ldrb	r3, [r3]
 13281 0060 DBB2     		uxtb	r3, r3
 13282 0062 0133     		adds	r3, r3, #1
 13283 0064 DAB2     		uxtb	r2, r3
 13284 0066 024B     		ldr	r3, .L723+4
 13285 0068 1A70     		strb	r2, [r3]
 13286              	.L718:
2822:.\main.c      ****     }
2823:.\main.c      **** }
 13287              		.loc 1 2823 0
 13288 006a 80BD     		pop	{r7, pc}
 13289              	.L724:
 13290              		.align	2
 13291              	.L723:
 13292 006c 00000000 		.word	flujo_LCD2
ARM GAS  C:\Users\RECEPC~1\AppData\Local\Temp\cc2OimPl.s 			page 290


 13293 0070 00000000 		.word	count_protector2
 13294              		.cfi_endproc
 13295              	.LFE73:
 13296              		.size	animacion2, .-animacion2
 13297              		.section	.text.modo_mux,"ax",%progbits
 13298              		.align	2
 13299              		.global	modo_mux
 13300              		.thumb
 13301              		.thumb_func
 13302              		.type	modo_mux, %function
 13303              	modo_mux:
 13304              	.LFB74:
2824:.\main.c      **** 
2825:.\main.c      **** /*
2826:.\main.c      **** ***************************************************************************************************
2827:.\main.c      **** *                                        CY_ISR(modo_mux)
2828:.\main.c      **** *
2829:.\main.c      **** * Description : 
2830:.\main.c      **** *               
2831:.\main.c      **** *
2832:.\main.c      **** * Argument(s) : none
2833:.\main.c      **** *
2834:.\main.c      **** * Return(s)   : none
2835:.\main.c      **** *
2836:.\main.c      **** * Caller(s)   : 
2837:.\main.c      **** *
2838:.\main.c      **** * Note(s)     : none.
2839:.\main.c      **** ***************************************************************************************************
2840:.\main.c      **** */
2841:.\main.c      **** CY_ISR(modo_mux){
 13305              		.loc 1 2841 0
 13306              		.cfi_startproc
 13307              		@ args = 0, pretend = 0, frame = 0
 13308              		@ frame_needed = 1, uses_anonymous_args = 0
 13309 0000 80B5     		push	{r7, lr}
 13310              		.cfi_def_cfa_offset 8
 13311              		.cfi_offset 7, -8
 13312              		.cfi_offset 14, -4
 13313 0002 00AF     		add	r7, sp, #0
 13314              		.cfi_def_cfa_register 7
2842:.\main.c      **** 	Timer_Modo_ReadStatusRegister();
 13315              		.loc 1 2842 0
 13316 0004 FFF7FEFF 		bl	Timer_Modo_ReadStatusRegister
2843:.\main.c      **** 	state_rf++;
 13317              		.loc 1 2843 0
 13318 0008 0F4B     		ldr	r3, .L728
 13319 000a 1B78     		ldrb	r3, [r3]	@ zero_extendqisi2
 13320 000c 0133     		adds	r3, r3, #1
 13321 000e DAB2     		uxtb	r2, r3
 13322 0010 0D4B     		ldr	r3, .L728
 13323 0012 1A70     		strb	r2, [r3]
2844:.\main.c      **** 	if(state_rf==15){
 13324              		.loc 1 2844 0
 13325 0014 0C4B     		ldr	r3, .L728
 13326 0016 1B78     		ldrb	r3, [r3]	@ zero_extendqisi2
 13327 0018 0F2B     		cmp	r3, #15
 13328 001a 14D1     		bne	.L725
ARM GAS  C:\Users\RECEPC~1\AppData\Local\Temp\cc2OimPl.s 			page 291


2845:.\main.c      **** 		if((rventa1.autorizado!=100)&&(rventa2.autorizado!=100)){
 13329              		.loc 1 2845 0
 13330 001c 0B4B     		ldr	r3, .L728+4
 13331 001e 93F87030 		ldrb	r3, [r3, #112]	@ zero_extendqisi2
 13332 0022 642B     		cmp	r3, #100
 13333 0024 0CD0     		beq	.L727
 13334              		.loc 1 2845 0 is_stmt 0 discriminator 1
 13335 0026 0A4B     		ldr	r3, .L728+8
 13336 0028 93F87030 		ldrb	r3, [r3, #112]	@ zero_extendqisi2
 13337 002c 642B     		cmp	r3, #100
 13338 002e 07D0     		beq	.L727
2846:.\main.c      **** 			rventa1.autorizado=0;
 13339              		.loc 1 2846 0 is_stmt 1
 13340 0030 064B     		ldr	r3, .L728+4
 13341 0032 0022     		movs	r2, #0
 13342 0034 83F87020 		strb	r2, [r3, #112]
2847:.\main.c      **** 			rventa2.autorizado=0;
 13343              		.loc 1 2847 0
 13344 0038 054B     		ldr	r3, .L728+8
 13345 003a 0022     		movs	r2, #0
 13346 003c 83F87020 		strb	r2, [r3, #112]
 13347              	.L727:
2848:.\main.c      **** 		}	
2849:.\main.c      **** 		state_rf=0;
 13348              		.loc 1 2849 0
 13349 0040 014B     		ldr	r3, .L728
 13350 0042 0022     		movs	r2, #0
 13351 0044 1A70     		strb	r2, [r3]
 13352              	.L725:
2850:.\main.c      **** 	}
2851:.\main.c      **** }
 13353              		.loc 1 2851 0
 13354 0046 80BD     		pop	{r7, pc}
 13355              	.L729:
 13356              		.align	2
 13357              	.L728:
 13358 0048 00000000 		.word	state_rf
 13359 004c 00000000 		.word	rventa1
 13360 0050 00000000 		.word	rventa2
 13361              		.cfi_endproc
 13362              	.LFE74:
 13363              		.size	modo_mux, .-modo_mux
 13364              		.section	.text.insert_ppuInit,"ax",%progbits
 13365              		.align	2
 13366              		.global	insert_ppuInit
 13367              		.thumb
 13368              		.thumb_func
 13369              		.type	insert_ppuInit, %function
 13370              	insert_ppuInit:
 13371              	.LFB75:
2852:.\main.c      **** 
2853:.\main.c      **** /*
2854:.\main.c      **** ***************************************************************************************************
2855:.\main.c      **** *                                        insert_ppuInit(modo_init)
2856:.\main.c      **** *
2857:.\main.c      **** * Description : 
2858:.\main.c      **** *               
ARM GAS  C:\Users\RECEPC~1\AppData\Local\Temp\cc2OimPl.s 			page 292


2859:.\main.c      **** *
2860:.\main.c      **** * Argument(s) : none
2861:.\main.c      **** *
2862:.\main.c      **** * Return(s)   : none
2863:.\main.c      **** *
2864:.\main.c      **** * Caller(s)   : 
2865:.\main.c      **** *
2866:.\main.c      **** * Note(s)     : none.
2867:.\main.c      **** ***************************************************************************************************
2868:.\main.c      **** */
2869:.\main.c      **** void insert_ppuInit(void){
 13372              		.loc 1 2869 0
 13373              		.cfi_startproc
 13374              		@ args = 0, pretend = 0, frame = 8
 13375              		@ frame_needed = 1, uses_anonymous_args = 0
 13376 0000 80B5     		push	{r7, lr}
 13377              		.cfi_def_cfa_offset 8
 13378              		.cfi_offset 7, -8
 13379              		.cfi_offset 14, -4
 13380 0002 82B0     		sub	sp, sp, #8
 13381              		.cfi_def_cfa_offset 16
 13382 0004 00AF     		add	r7, sp, #0
 13383              		.cfi_def_cfa_register 7
2870:.\main.c      ****     
2871:.\main.c      ****     //uint8 precio_mod[5];    
2872:.\main.c      ****     //int x;    
2873:.\main.c      ****     
2874:.\main.c      ****   uint8 precio_mod[5];    
2875:.\main.c      **** 	precio_mod[0]=0;	
 13384              		.loc 1 2875 0
 13385 0006 0023     		movs	r3, #0
 13386 0008 3B70     		strb	r3, [r7]
2876:.\main.c      **** 	precio_mod[1]=0;
 13387              		.loc 1 2876 0
 13388 000a 0023     		movs	r3, #0
 13389 000c 7B70     		strb	r3, [r7, #1]
2877:.\main.c      **** 	precio_mod[2]=0;
 13390              		.loc 1 2877 0
 13391 000e 0023     		movs	r3, #0
 13392 0010 BB70     		strb	r3, [r7, #2]
2878:.\main.c      **** 	precio_mod[3]=2;
 13393              		.loc 1 2878 0
 13394 0012 0223     		movs	r3, #2
 13395 0014 FB70     		strb	r3, [r7, #3]
2879:.\main.c      ****     precio_mod[4]=0;
 13396              		.loc 1 2879 0
 13397 0016 0023     		movs	r3, #0
 13398 0018 3B71     		strb	r3, [r7, #4]
2880:.\main.c      ****     cambiar_precio(lado1.dir,precio_mod,1);                   
 13399              		.loc 1 2880 0
 13400 001a 064B     		ldr	r3, .L731
 13401 001c 1B78     		ldrb	r3, [r3]
 13402 001e DAB2     		uxtb	r2, r3
 13403 0020 3B46     		mov	r3, r7
 13404 0022 1046     		mov	r0, r2
 13405 0024 1946     		mov	r1, r3
 13406 0026 0122     		movs	r2, #1
ARM GAS  C:\Users\RECEPC~1\AppData\Local\Temp\cc2OimPl.s 			page 293


 13407 0028 FFF7FEFF 		bl	cambiar_precio
2881:.\main.c      **** }
 13408              		.loc 1 2881 0
 13409 002c 0837     		adds	r7, r7, #8
 13410              		.cfi_def_cfa_offset 8
 13411 002e BD46     		mov	sp, r7
 13412              		.cfi_def_cfa_register 13
 13413              		@ sp needed
 13414 0030 80BD     		pop	{r7, pc}
 13415              	.L732:
 13416 0032 00BF     		.align	2
 13417              	.L731:
 13418 0034 00000000 		.word	lado1
 13419              		.cfi_endproc
 13420              	.LFE75:
 13421              		.size	insert_ppuInit, .-insert_ppuInit
 13422              		.section	.text.main,"ax",%progbits
 13423              		.align	2
 13424              		.global	main
 13425              		.thumb
 13426              		.thumb_func
 13427              		.type	main, %function
 13428              	main:
 13429              	.LFB76:
2882:.\main.c      **** 
2883:.\main.c      **** /*
2884:.\main.c      **** ***************************************************************************************************
2885:.\main.c      **** *                                         main( void )
2886:.\main.c      **** *
2887:.\main.c      **** * Description : 
2888:.\main.c      **** *               
2889:.\main.c      **** *
2890:.\main.c      **** * Argument(s) : none
2891:.\main.c      **** *
2892:.\main.c      **** * Return(s)   : none
2893:.\main.c      **** *
2894:.\main.c      **** * Caller(s)   : 
2895:.\main.c      **** *
2896:.\main.c      **** * Note(s)     : none.
2897:.\main.c      **** ***************************************************************************************************
2898:.\main.c      **** */
2899:.\main.c      **** int main(){ 
 13430              		.loc 1 2899 0
 13431              		.cfi_startproc
 13432              		@ args = 0, pretend = 0, frame = 0
 13433              		@ frame_needed = 1, uses_anonymous_args = 0
 13434 0000 80B5     		push	{r7, lr}
 13435              		.cfi_def_cfa_offset 8
 13436              		.cfi_offset 7, -8
 13437              		.cfi_offset 14, -4
 13438 0002 00AF     		add	r7, sp, #0
 13439              		.cfi_def_cfa_register 7
2900:.\main.c      ****     
2901:.\main.c      ****     init();
 13440              		.loc 1 2901 0
 13441 0004 FFF7FEFF 		bl	init
2902:.\main.c      ****     init_surt();    
ARM GAS  C:\Users\RECEPC~1\AppData\Local\Temp\cc2OimPl.s 			page 294


 13442              		.loc 1 2902 0
 13443 0008 FFF7FEFF 		bl	init_surt
2903:.\main.c      ****     CyWdtStart(CYWDT_1024_TICKS,CYWDT_LPMODE_NOCHANGE);    
 13444              		.loc 1 2903 0
 13445 000c 0320     		movs	r0, #3
 13446 000e 0021     		movs	r1, #0
 13447 0010 FFF7FEFF 		bl	CyWdtStart
 13448              	.L734:
2904:.\main.c      ****     //insert_ppuInit();// 
2905:.\main.c      ****     for(;;){
2906:.\main.c      ****          //sin el sistema Mux Advance              		
2907:.\main.c      ****     		CyWdtClear();        
 13449              		.loc 1 2907 0 discriminator 1
 13450 0014 FFF7FEFF 		bl	CyWdtClear
2908:.\main.c      ****            	polling_LCD1();
 13451              		.loc 1 2908 0 discriminator 1
 13452 0018 FFF7FEFF 		bl	polling_LCD1
2909:.\main.c      ****     		CyWdtClear();              
 13453              		.loc 1 2909 0 discriminator 1
 13454 001c FFF7FEFF 		bl	CyWdtClear
2910:.\main.c      ****             polling_rf();                                 
 13455              		.loc 1 2910 0 discriminator 1
 13456 0020 FFF7FEFF 		bl	polling_rf
2911:.\main.c      ****     }
 13457              		.loc 1 2911 0 discriminator 1
 13458 0024 F6E7     		b	.L734
 13459              		.cfi_endproc
 13460              	.LFE76:
 13461              		.size	main, .-main
 13462 0026 00BF     		.text
 13463              	.Letext0:
 13464              		.file 2 "c:\\program files (x86)\\cypress\\psoc creator\\3.3\\psoc creator\\import\\gnu\\arm\\4.9.
 13465              		.file 3 "c:\\program files (x86)\\cypress\\psoc creator\\3.3\\psoc creator\\import\\gnu\\arm\\4.9.
 13466              		.file 4 "Generated_Source\\PSoC5/cytypes.h"
 13467              		.file 5 ".\\VariablesG.h"
 13468              		.file 6 "Generated_Source\\PSoC5/LCD_1.h"
 13469              		.file 7 "Generated_Source\\PSoC5/PC.h"
 13470              		.file 8 "Generated_Source\\PSoC5/core_cm3.h"
 13471              		.section	.debug_info,"",%progbits
 13472              	.Ldebug_info0:
 13473 0000 C60C0000 		.4byte	0xcc6
 13474 0004 0400     		.2byte	0x4
 13475 0006 00000000 		.4byte	.Ldebug_abbrev0
 13476 000a 04       		.byte	0x4
 13477 000b 01       		.uleb128 0x1
 13478 000c 6C030000 		.4byte	.LASF152
 13479 0010 01       		.byte	0x1
 13480 0011 B2060000 		.4byte	.LASF153
 13481 0015 63000000 		.4byte	.LASF154
 13482 0019 00000000 		.4byte	.Ldebug_ranges0+0
 13483 001d 00000000 		.4byte	0
 13484 0021 00000000 		.4byte	.Ldebug_line0
 13485 0025 02       		.uleb128 0x2
 13486 0026 01       		.byte	0x1
 13487 0027 06       		.byte	0x6
 13488 0028 02060000 		.4byte	.LASF0
 13489 002c 02       		.uleb128 0x2
ARM GAS  C:\Users\RECEPC~1\AppData\Local\Temp\cc2OimPl.s 			page 295


 13490 002d 01       		.byte	0x1
 13491 002e 08       		.byte	0x8
 13492 002f B4050000 		.4byte	.LASF1
 13493 0033 02       		.uleb128 0x2
 13494 0034 02       		.byte	0x2
 13495 0035 05       		.byte	0x5
 13496 0036 96040000 		.4byte	.LASF2
 13497 003a 02       		.uleb128 0x2
 13498 003b 02       		.byte	0x2
 13499 003c 07       		.byte	0x7
 13500 003d 17060000 		.4byte	.LASF3
 13501 0041 03       		.uleb128 0x3
 13502 0042 D8000000 		.4byte	.LASF9
 13503 0046 02       		.byte	0x2
 13504 0047 3F       		.byte	0x3f
 13505 0048 4C000000 		.4byte	0x4c
 13506 004c 02       		.uleb128 0x2
 13507 004d 04       		.byte	0x4
 13508 004e 05       		.byte	0x5
 13509 004f AC040000 		.4byte	.LASF4
 13510 0053 02       		.uleb128 0x2
 13511 0054 04       		.byte	0x4
 13512 0055 07       		.byte	0x7
 13513 0056 5F050000 		.4byte	.LASF5
 13514 005a 02       		.uleb128 0x2
 13515 005b 08       		.byte	0x8
 13516 005c 05       		.byte	0x5
 13517 005d 2E030000 		.4byte	.LASF6
 13518 0061 02       		.uleb128 0x2
 13519 0062 08       		.byte	0x8
 13520 0063 07       		.byte	0x7
 13521 0064 B3010000 		.4byte	.LASF7
 13522 0068 04       		.uleb128 0x4
 13523 0069 04       		.byte	0x4
 13524 006a 05       		.byte	0x5
 13525 006b 696E7400 		.ascii	"int\000"
 13526 006f 02       		.uleb128 0x2
 13527 0070 04       		.byte	0x4
 13528 0071 07       		.byte	0x7
 13529 0072 C3000000 		.4byte	.LASF8
 13530 0076 03       		.uleb128 0x3
 13531 0077 78050000 		.4byte	.LASF10
 13532 007b 03       		.byte	0x3
 13533 007c 2C       		.byte	0x2c
 13534 007d 41000000 		.4byte	0x41
 13535 0081 03       		.uleb128 0x3
 13536 0082 3E060000 		.4byte	.LASF11
 13537 0086 04       		.byte	0x4
 13538 0087 B4       		.byte	0xb4
 13539 0088 2C000000 		.4byte	0x2c
 13540 008c 03       		.uleb128 0x3
 13541 008d AD020000 		.4byte	.LASF12
 13542 0091 04       		.byte	0x4
 13543 0092 B5       		.byte	0xb5
 13544 0093 3A000000 		.4byte	0x3a
 13545 0097 02       		.uleb128 0x2
 13546 0098 04       		.byte	0x4
ARM GAS  C:\Users\RECEPC~1\AppData\Local\Temp\cc2OimPl.s 			page 296


 13547 0099 04       		.byte	0x4
 13548 009a 66010000 		.4byte	.LASF13
 13549 009e 02       		.uleb128 0x2
 13550 009f 08       		.byte	0x8
 13551 00a0 04       		.byte	0x4
 13552 00a1 44060000 		.4byte	.LASF14
 13553 00a5 02       		.uleb128 0x2
 13554 00a6 01       		.byte	0x1
 13555 00a7 08       		.byte	0x8
 13556 00a8 8C020000 		.4byte	.LASF15
 13557 00ac 05       		.uleb128 0x5
 13558 00ad 81000000 		.4byte	0x81
 13559 00b1 05       		.uleb128 0x5
 13560 00b2 8C000000 		.4byte	0x8c
 13561 00b6 02       		.uleb128 0x2
 13562 00b7 04       		.byte	0x4
 13563 00b8 07       		.byte	0x7
 13564 00b9 56050000 		.4byte	.LASF16
 13565 00bd 06       		.uleb128 0x6
 13566 00be A5000000 		.4byte	0xa5
 13567 00c2 CD000000 		.4byte	0xcd
 13568 00c6 07       		.uleb128 0x7
 13569 00c7 B6000000 		.4byte	0xb6
 13570 00cb 07       		.byte	0x7
 13571 00cc 00       		.byte	0
 13572 00cd 06       		.uleb128 0x6
 13573 00ce 81000000 		.4byte	0x81
 13574 00d2 DD000000 		.4byte	0xdd
 13575 00d6 07       		.uleb128 0x7
 13576 00d7 B6000000 		.4byte	0xb6
 13577 00db 03       		.byte	0x3
 13578 00dc 00       		.byte	0
 13579 00dd 02       		.uleb128 0x2
 13580 00de 08       		.byte	0x8
 13581 00df 04       		.byte	0x4
 13582 00e0 50040000 		.4byte	.LASF17
 13583 00e4 08       		.uleb128 0x8
 13584 00e5 C2040000 		.4byte	.LASF22
 13585 00e9 5D       		.byte	0x5d
 13586 00ea 05       		.byte	0x5
 13587 00eb 5D       		.byte	0x5d
 13588 00ec 39010000 		.4byte	0x139
 13589 00f0 09       		.uleb128 0x9
 13590 00f1 64697200 		.ascii	"dir\000"
 13591 00f5 05       		.byte	0x5
 13592 00f6 5E       		.byte	0x5e
 13593 00f7 AC000000 		.4byte	0xac
 13594 00fb 00       		.byte	0
 13595 00fc 0A       		.uleb128 0xa
 13596 00fd 2F040000 		.4byte	.LASF18
 13597 0101 05       		.byte	0x5
 13598 0102 5F       		.byte	0x5f
 13599 0103 AC000000 		.4byte	0xac
 13600 0107 01       		.byte	0x1
 13601 0108 0A       		.uleb128 0xa
 13602 0109 E7020000 		.4byte	.LASF19
 13603 010d 05       		.byte	0x5
ARM GAS  C:\Users\RECEPC~1\AppData\Local\Temp\cc2OimPl.s 			page 297


 13604 010e 60       		.byte	0x60
 13605 010f 4F010000 		.4byte	0x14f
 13606 0113 02       		.byte	0x2
 13607 0114 09       		.uleb128 0x9
 13608 0115 70707500 		.ascii	"ppu\000"
 13609 0119 05       		.byte	0x5
 13610 011a 61       		.byte	0x61
 13611 011b 6A010000 		.4byte	0x16a
 13612 011f 4A       		.byte	0x4a
 13613 0120 0A       		.uleb128 0xa
 13614 0121 7B060000 		.4byte	.LASF20
 13615 0125 05       		.byte	0x5
 13616 0126 62       		.byte	0x62
 13617 0127 85010000 		.4byte	0x185
 13618 012b 59       		.byte	0x59
 13619 012c 0A       		.uleb128 0xa
 13620 012d A3020000 		.4byte	.LASF21
 13621 0131 05       		.byte	0x5
 13622 0132 63       		.byte	0x63
 13623 0133 AC000000 		.4byte	0xac
 13624 0137 5C       		.byte	0x5c
 13625 0138 00       		.byte	0
 13626 0139 06       		.uleb128 0x6
 13627 013a 81000000 		.4byte	0x81
 13628 013e 4F010000 		.4byte	0x14f
 13629 0142 07       		.uleb128 0x7
 13630 0143 B6000000 		.4byte	0xb6
 13631 0147 02       		.byte	0x2
 13632 0148 07       		.uleb128 0x7
 13633 0149 B6000000 		.4byte	0xb6
 13634 014d 17       		.byte	0x17
 13635 014e 00       		.byte	0
 13636 014f 05       		.uleb128 0x5
 13637 0150 39010000 		.4byte	0x139
 13638 0154 06       		.uleb128 0x6
 13639 0155 81000000 		.4byte	0x81
 13640 0159 6A010000 		.4byte	0x16a
 13641 015d 07       		.uleb128 0x7
 13642 015e B6000000 		.4byte	0xb6
 13643 0162 02       		.byte	0x2
 13644 0163 07       		.uleb128 0x7
 13645 0164 B6000000 		.4byte	0xb6
 13646 0168 04       		.byte	0x4
 13647 0169 00       		.byte	0
 13648 016a 05       		.uleb128 0x5
 13649 016b 54010000 		.4byte	0x154
 13650 016f 06       		.uleb128 0x6
 13651 0170 81000000 		.4byte	0x81
 13652 0174 85010000 		.4byte	0x185
 13653 0178 07       		.uleb128 0x7
 13654 0179 B6000000 		.4byte	0xb6
 13655 017d 02       		.byte	0x2
 13656 017e 07       		.uleb128 0x7
 13657 017f B6000000 		.4byte	0xb6
 13658 0183 00       		.byte	0
 13659 0184 00       		.byte	0
 13660 0185 05       		.uleb128 0x5
ARM GAS  C:\Users\RECEPC~1\AppData\Local\Temp\cc2OimPl.s 			page 298


 13661 0186 6F010000 		.4byte	0x16f
 13662 018a 08       		.uleb128 0x8
 13663 018b 15040000 		.4byte	.LASF23
 13664 018f 76       		.byte	0x76
 13665 0190 05       		.byte	0x5
 13666 0191 74       		.byte	0x74
 13667 0192 79020000 		.4byte	0x279
 13668 0196 0A       		.uleb128 0xa
 13669 0197 26010000 		.4byte	.LASF24
 13670 019b 05       		.byte	0x5
 13671 019c 75       		.byte	0x75
 13672 019d 81000000 		.4byte	0x81
 13673 01a1 00       		.byte	0
 13674 01a2 0A       		.uleb128 0xa
 13675 01a3 7B060000 		.4byte	.LASF20
 13676 01a7 05       		.byte	0x5
 13677 01a8 76       		.byte	0x76
 13678 01a9 81000000 		.4byte	0x81
 13679 01ad 01       		.byte	0x1
 13680 01ae 09       		.uleb128 0x9
 13681 01af 70707500 		.ascii	"ppu\000"
 13682 01b3 05       		.byte	0x5
 13683 01b4 77       		.byte	0x77
 13684 01b5 79020000 		.4byte	0x279
 13685 01b9 02       		.byte	0x2
 13686 01ba 0A       		.uleb128 0xa
 13687 01bb 1C040000 		.4byte	.LASF25
 13688 01bf 05       		.byte	0x5
 13689 01c0 78       		.byte	0x78
 13690 01c1 89020000 		.4byte	0x289
 13691 01c5 07       		.byte	0x7
 13692 01c6 0A       		.uleb128 0xa
 13693 01c7 3C020000 		.4byte	.LASF26
 13694 01cb 05       		.byte	0x5
 13695 01cc 79       		.byte	0x79
 13696 01cd 89020000 		.4byte	0x289
 13697 01d1 10       		.byte	0x10
 13698 01d2 0A       		.uleb128 0xa
 13699 01d3 42030000 		.4byte	.LASF27
 13700 01d7 05       		.byte	0x5
 13701 01d8 7A       		.byte	0x7a
 13702 01d9 81000000 		.4byte	0x81
 13703 01dd 19       		.byte	0x19
 13704 01de 0A       		.uleb128 0xa
 13705 01df 65060000 		.4byte	.LASF28
 13706 01e3 05       		.byte	0x5
 13707 01e4 7B       		.byte	0x7b
 13708 01e5 81000000 		.4byte	0x81
 13709 01e9 1A       		.byte	0x1a
 13710 01ea 0A       		.uleb128 0xa
 13711 01eb 5F010000 		.4byte	.LASF29
 13712 01ef 05       		.byte	0x5
 13713 01f0 7C       		.byte	0x7c
 13714 01f1 99020000 		.4byte	0x299
 13715 01f5 1B       		.byte	0x1b
 13716 01f6 09       		.uleb128 0x9
 13717 01f7 696400   		.ascii	"id\000"
ARM GAS  C:\Users\RECEPC~1\AppData\Local\Temp\cc2OimPl.s 			page 299


 13718 01fa 05       		.byte	0x5
 13719 01fb 7D       		.byte	0x7d
 13720 01fc A9020000 		.4byte	0x2a9
 13721 0200 23       		.byte	0x23
 13722 0201 0A       		.uleb128 0xa
 13723 0202 D5020000 		.4byte	.LASF30
 13724 0206 05       		.byte	0x5
 13725 0207 7E       		.byte	0x7e
 13726 0208 A9020000 		.4byte	0x2a9
 13727 020c 33       		.byte	0x33
 13728 020d 09       		.uleb128 0x9
 13729 020e 6B6D00   		.ascii	"km\000"
 13730 0211 05       		.byte	0x5
 13731 0212 7F       		.byte	0x7f
 13732 0213 B9020000 		.4byte	0x2b9
 13733 0217 43       		.byte	0x43
 13734 0218 0A       		.uleb128 0xa
 13735 0219 FB010000 		.4byte	.LASF31
 13736 021d 05       		.byte	0x5
 13737 021e 80       		.byte	0x80
 13738 021f 89020000 		.4byte	0x289
 13739 0223 4E       		.byte	0x4e
 13740 0224 0A       		.uleb128 0xa
 13741 0225 AA010000 		.4byte	.LASF32
 13742 0229 05       		.byte	0x5
 13743 022a 81       		.byte	0x81
 13744 022b 81000000 		.4byte	0x81
 13745 022f 57       		.byte	0x57
 13746 0230 0A       		.uleb128 0xa
 13747 0231 CA020000 		.4byte	.LASF33
 13748 0235 05       		.byte	0x5
 13749 0236 82       		.byte	0x82
 13750 0237 81000000 		.4byte	0x81
 13751 023b 58       		.byte	0x58
 13752 023c 0A       		.uleb128 0xa
 13753 023d 65030000 		.4byte	.LASF34
 13754 0241 05       		.byte	0x5
 13755 0242 83       		.byte	0x83
 13756 0243 B9020000 		.4byte	0x2b9
 13757 0247 59       		.byte	0x59
 13758 0248 0A       		.uleb128 0xa
 13759 0249 00000000 		.4byte	.LASF35
 13760 024d 05       		.byte	0x5
 13761 024e 84       		.byte	0x84
 13762 024f B9020000 		.4byte	0x2b9
 13763 0253 64       		.byte	0x64
 13764 0254 0A       		.uleb128 0xa
 13765 0255 DB020000 		.4byte	.LASF36
 13766 0259 05       		.byte	0x5
 13767 025a 85       		.byte	0x85
 13768 025b 81000000 		.4byte	0x81
 13769 025f 6F       		.byte	0x6f
 13770 0260 0A       		.uleb128 0xa
 13771 0261 A9050000 		.4byte	.LASF37
 13772 0265 05       		.byte	0x5
 13773 0266 86       		.byte	0x86
 13774 0267 81000000 		.4byte	0x81
ARM GAS  C:\Users\RECEPC~1\AppData\Local\Temp\cc2OimPl.s 			page 300


 13775 026b 70       		.byte	0x70
 13776 026c 0A       		.uleb128 0xa
 13777 026d 5C040000 		.4byte	.LASF38
 13778 0271 05       		.byte	0x5
 13779 0272 87       		.byte	0x87
 13780 0273 79020000 		.4byte	0x279
 13781 0277 71       		.byte	0x71
 13782 0278 00       		.byte	0
 13783 0279 06       		.uleb128 0x6
 13784 027a 81000000 		.4byte	0x81
 13785 027e 89020000 		.4byte	0x289
 13786 0282 07       		.uleb128 0x7
 13787 0283 B6000000 		.4byte	0xb6
 13788 0287 04       		.byte	0x4
 13789 0288 00       		.byte	0
 13790 0289 06       		.uleb128 0x6
 13791 028a 81000000 		.4byte	0x81
 13792 028e 99020000 		.4byte	0x299
 13793 0292 07       		.uleb128 0x7
 13794 0293 B6000000 		.4byte	0xb6
 13795 0297 08       		.byte	0x8
 13796 0298 00       		.byte	0
 13797 0299 06       		.uleb128 0x6
 13798 029a 81000000 		.4byte	0x81
 13799 029e A9020000 		.4byte	0x2a9
 13800 02a2 07       		.uleb128 0x7
 13801 02a3 B6000000 		.4byte	0xb6
 13802 02a7 07       		.byte	0x7
 13803 02a8 00       		.byte	0
 13804 02a9 06       		.uleb128 0x6
 13805 02aa 81000000 		.4byte	0x81
 13806 02ae B9020000 		.4byte	0x2b9
 13807 02b2 07       		.uleb128 0x7
 13808 02b3 B6000000 		.4byte	0xb6
 13809 02b7 0F       		.byte	0xf
 13810 02b8 00       		.byte	0
 13811 02b9 06       		.uleb128 0x6
 13812 02ba 81000000 		.4byte	0x81
 13813 02be C9020000 		.4byte	0x2c9
 13814 02c2 07       		.uleb128 0x7
 13815 02c3 B6000000 		.4byte	0xb6
 13816 02c7 0A       		.byte	0xa
 13817 02c8 00       		.byte	0
 13818 02c9 0B       		.uleb128 0xb
 13819 02ca 51050000 		.4byte	.LASF44
 13820 02ce 01       		.byte	0x1
 13821 02cf 5A       		.byte	0x5a
 13822 02d0 00000000 		.4byte	.LFB63
 13823 02d4 04020000 		.4byte	.LFE63-.LFB63
 13824 02d8 01       		.uleb128 0x1
 13825 02d9 9C       		.byte	0x9c
 13826 02da EB020000 		.4byte	0x2eb
 13827 02de 0C       		.uleb128 0xc
 13828 02df 7800     		.ascii	"x\000"
 13829 02e1 01       		.byte	0x1
 13830 02e2 5C       		.byte	0x5c
 13831 02e3 81000000 		.4byte	0x81
ARM GAS  C:\Users\RECEPC~1\AppData\Local\Temp\cc2OimPl.s 			page 301


 13832 02e7 02       		.uleb128 0x2
 13833 02e8 91       		.byte	0x91
 13834 02e9 6F       		.sleb128 -17
 13835 02ea 00       		.byte	0
 13836 02eb 0D       		.uleb128 0xd
 13837 02ec 1E030000 		.4byte	.LASF155
 13838 02f0 01       		.byte	0x1
 13839 02f1 A1       		.byte	0xa1
 13840 02f2 81000000 		.4byte	0x81
 13841 02f6 00000000 		.4byte	.LFB64
 13842 02fa 84000000 		.4byte	.LFE64-.LFB64
 13843 02fe 01       		.uleb128 0x1
 13844 02ff 9C       		.byte	0x9c
 13845 0300 5A030000 		.4byte	0x35a
 13846 0304 0E       		.uleb128 0xe
 13847 0305 E1020000 		.4byte	.LASF39
 13848 0309 01       		.byte	0x1
 13849 030a A1       		.byte	0xa1
 13850 030b 5A030000 		.4byte	0x35a
 13851 030f 03       		.uleb128 0x3
 13852 0310 91       		.byte	0x91
 13853 0311 EC7D     		.sleb128 -276
 13854 0313 0E       		.uleb128 0xe
 13855 0314 06040000 		.4byte	.LASF40
 13856 0318 01       		.byte	0x1
 13857 0319 A1       		.byte	0xa1
 13858 031a 8C000000 		.4byte	0x8c
 13859 031e 03       		.uleb128 0x3
 13860 031f 91       		.byte	0x91
 13861 0320 EA7D     		.sleb128 -278
 13862 0322 0F       		.uleb128 0xf
 13863 0323 87010000 		.4byte	.LASF41
 13864 0327 01       		.byte	0x1
 13865 0328 A2       		.byte	0xa2
 13866 0329 81000000 		.4byte	0x81
 13867 032d 02       		.uleb128 0x2
 13868 032e 91       		.byte	0x91
 13869 032f 77       		.sleb128 -9
 13870 0330 0F       		.uleb128 0xf
 13871 0331 90010000 		.4byte	.LASF42
 13872 0335 01       		.byte	0x1
 13873 0336 A2       		.byte	0xa2
 13874 0337 81000000 		.4byte	0x81
 13875 033b 02       		.uleb128 0x2
 13876 033c 91       		.byte	0x91
 13877 033d 73       		.sleb128 -13
 13878 033e 0C       		.uleb128 0xc
 13879 033f 6900     		.ascii	"i\000"
 13880 0341 01       		.byte	0x1
 13881 0342 A3       		.byte	0xa3
 13882 0343 8C000000 		.4byte	0x8c
 13883 0347 02       		.uleb128 0x2
 13884 0348 91       		.byte	0x91
 13885 0349 74       		.sleb128 -12
 13886 034a 0F       		.uleb128 0xf
 13887 034b 9D020000 		.4byte	.LASF43
 13888 034f 01       		.byte	0x1
ARM GAS  C:\Users\RECEPC~1\AppData\Local\Temp\cc2OimPl.s 			page 302


 13889 0350 A4       		.byte	0xa4
 13890 0351 60030000 		.4byte	0x360
 13891 0355 03       		.uleb128 0x3
 13892 0356 91       		.byte	0x91
 13893 0357 F07D     		.sleb128 -272
 13894 0359 00       		.byte	0
 13895 035a 10       		.uleb128 0x10
 13896 035b 04       		.byte	0x4
 13897 035c 81000000 		.4byte	0x81
 13898 0360 06       		.uleb128 0x6
 13899 0361 81000000 		.4byte	0x81
 13900 0365 70030000 		.4byte	0x370
 13901 0369 07       		.uleb128 0x7
 13902 036a B6000000 		.4byte	0xb6
 13903 036e FF       		.byte	0xff
 13904 036f 00       		.byte	0
 13905 0370 0B       		.uleb128 0xb
 13906 0371 0E060000 		.4byte	.LASF45
 13907 0375 01       		.byte	0x1
 13908 0376 CD       		.byte	0xcd
 13909 0377 00000000 		.4byte	.LFB65
 13910 037b 80000000 		.4byte	.LFE65-.LFB65
 13911 037f 01       		.uleb128 0x1
 13912 0380 9C       		.byte	0x9c
 13913 0381 A2030000 		.4byte	0x3a2
 13914 0385 11       		.uleb128 0x11
 13915 0386 6C636400 		.ascii	"lcd\000"
 13916 038a 01       		.byte	0x1
 13917 038b CD       		.byte	0xcd
 13918 038c 81000000 		.4byte	0x81
 13919 0390 02       		.uleb128 0x2
 13920 0391 91       		.byte	0x91
 13921 0392 77       		.sleb128 -9
 13922 0393 0E       		.uleb128 0xe
 13923 0394 49040000 		.4byte	.LASF46
 13924 0398 01       		.byte	0x1
 13925 0399 CD       		.byte	0xcd
 13926 039a 8C000000 		.4byte	0x8c
 13927 039e 02       		.uleb128 0x2
 13928 039f 91       		.byte	0x91
 13929 03a0 74       		.sleb128 -12
 13930 03a1 00       		.byte	0
 13931 03a2 0B       		.uleb128 0xb
 13932 03a3 B9000000 		.4byte	.LASF47
 13933 03a7 01       		.byte	0x1
 13934 03a8 EF       		.byte	0xef
 13935 03a9 00000000 		.4byte	.LFB66
 13936 03ad 30030000 		.4byte	.LFE66-.LFB66
 13937 03b1 01       		.uleb128 0x1
 13938 03b2 9C       		.byte	0x9c
 13939 03b3 D3030000 		.4byte	0x3d3
 13940 03b7 0F       		.uleb128 0xf
 13941 03b8 2F040000 		.4byte	.LASF18
 13942 03bc 01       		.byte	0x1
 13943 03bd F0       		.byte	0xf0
 13944 03be 81000000 		.4byte	0x81
 13945 03c2 02       		.uleb128 0x2
ARM GAS  C:\Users\RECEPC~1\AppData\Local\Temp\cc2OimPl.s 			page 303


 13946 03c3 91       		.byte	0x91
 13947 03c4 76       		.sleb128 -10
 13948 03c5 0C       		.uleb128 0xc
 13949 03c6 6F6B00   		.ascii	"ok\000"
 13950 03c9 01       		.byte	0x1
 13951 03ca F0       		.byte	0xf0
 13952 03cb 81000000 		.4byte	0x81
 13953 03cf 02       		.uleb128 0x2
 13954 03d0 91       		.byte	0x91
 13955 03d1 77       		.sleb128 -9
 13956 03d2 00       		.byte	0
 13957 03d3 12       		.uleb128 0x12
 13958 03d4 09000000 		.4byte	.LASF48
 13959 03d8 01       		.byte	0x1
 13960 03d9 8301     		.2byte	0x183
 13961 03db 00000000 		.4byte	.LFB67
 13962 03df 5C0B0000 		.4byte	.LFE67-.LFB67
 13963 03e3 01       		.uleb128 0x1
 13964 03e4 9C       		.byte	0x9c
 13965 03e5 51040000 		.4byte	0x451
 13966 03e9 13       		.uleb128 0x13
 13967 03ea B4020000 		.4byte	.LASF49
 13968 03ee 01       		.byte	0x1
 13969 03ef 8401     		.2byte	0x184
 13970 03f1 8C000000 		.4byte	0x8c
 13971 03f5 02       		.uleb128 0x2
 13972 03f6 91       		.byte	0x91
 13973 03f7 70       		.sleb128 -16
 13974 03f8 13       		.uleb128 0x13
 13975 03f9 14000000 		.4byte	.LASF50
 13976 03fd 01       		.byte	0x1
 13977 03fe 8401     		.2byte	0x184
 13978 0400 8C000000 		.4byte	0x8c
 13979 0404 02       		.uleb128 0x2
 13980 0405 91       		.byte	0x91
 13981 0406 6E       		.sleb128 -18
 13982 0407 13       		.uleb128 0x13
 13983 0408 06040000 		.4byte	.LASF40
 13984 040c 01       		.byte	0x1
 13985 040d 8401     		.2byte	0x184
 13986 040f 8C000000 		.4byte	0x8c
 13987 0413 02       		.uleb128 0x2
 13988 0414 91       		.byte	0x91
 13989 0415 76       		.sleb128 -10
 13990 0416 14       		.uleb128 0x14
 13991 0417 7800     		.ascii	"x\000"
 13992 0419 01       		.byte	0x1
 13993 041a 8401     		.2byte	0x184
 13994 041c 8C000000 		.4byte	0x8c
 13995 0420 02       		.uleb128 0x2
 13996 0421 91       		.byte	0x91
 13997 0422 74       		.sleb128 -12
 13998 0423 13       		.uleb128 0x13
 13999 0424 EB010000 		.4byte	.LASF51
 14000 0428 01       		.byte	0x1
 14001 0429 8401     		.2byte	0x184
 14002 042b 8C000000 		.4byte	0x8c
ARM GAS  C:\Users\RECEPC~1\AppData\Local\Temp\cc2OimPl.s 			page 304


 14003 042f 02       		.uleb128 0x2
 14004 0430 91       		.byte	0x91
 14005 0431 72       		.sleb128 -14
 14006 0432 13       		.uleb128 0x13
 14007 0433 E7000000 		.4byte	.LASF52
 14008 0437 01       		.byte	0x1
 14009 0438 8501     		.2byte	0x185
 14010 043a 79020000 		.4byte	0x279
 14011 043e 02       		.uleb128 0x2
 14012 043f 91       		.byte	0x91
 14013 0440 68       		.sleb128 -24
 14014 0441 13       		.uleb128 0x13
 14015 0442 5F010000 		.4byte	.LASF29
 14016 0446 01       		.byte	0x1
 14017 0447 8501     		.2byte	0x185
 14018 0449 99020000 		.4byte	0x299
 14019 044d 02       		.uleb128 0x2
 14020 044e 91       		.byte	0x91
 14021 044f 60       		.sleb128 -32
 14022 0450 00       		.byte	0
 14023 0451 15       		.uleb128 0x15
 14024 0452 0A020000 		.4byte	.LASF56
 14025 0456 01       		.byte	0x1
 14026 0457 F602     		.2byte	0x2f6
 14027 0459 00000000 		.4byte	.LFB68
 14028 045d 0C000000 		.4byte	.LFE68-.LFB68
 14029 0461 01       		.uleb128 0x1
 14030 0462 9C       		.byte	0x9c
 14031 0463 12       		.uleb128 0x12
 14032 0464 4B030000 		.4byte	.LASF53
 14033 0468 01       		.byte	0x1
 14034 0469 0E03     		.2byte	0x30e
 14035 046b 00000000 		.4byte	.LFB69
 14036 046f 184A0000 		.4byte	.LFE69-.LFB69
 14037 0473 01       		.uleb128 0x1
 14038 0474 9C       		.byte	0x9c
 14039 0475 DF040000 		.4byte	0x4df
 14040 0479 14       		.uleb128 0x14
 14041 047a 7800     		.ascii	"x\000"
 14042 047c 01       		.byte	0x1
 14043 047d 0F03     		.2byte	0x30f
 14044 047f 81000000 		.4byte	0x81
 14045 0483 02       		.uleb128 0x2
 14046 0484 91       		.byte	0x91
 14047 0485 6F       		.sleb128 -17
 14048 0486 14       		.uleb128 0x14
 14049 0487 7900     		.ascii	"y\000"
 14050 0489 01       		.byte	0x1
 14051 048a 0F03     		.2byte	0x30f
 14052 048c 81000000 		.4byte	0x81
 14053 0490 02       		.uleb128 0x2
 14054 0491 91       		.byte	0x91
 14055 0492 6E       		.sleb128 -18
 14056 0493 14       		.uleb128 0x14
 14057 0494 61757800 		.ascii	"aux\000"
 14058 0498 01       		.byte	0x1
 14059 0499 0F03     		.2byte	0x30f
ARM GAS  C:\Users\RECEPC~1\AppData\Local\Temp\cc2OimPl.s 			page 305


 14060 049b DF040000 		.4byte	0x4df
 14061 049f 02       		.uleb128 0x2
 14062 04a0 91       		.byte	0x91
 14063 04a1 54       		.sleb128 -44
 14064 04a2 13       		.uleb128 0x13
 14065 04a3 E7000000 		.4byte	.LASF52
 14066 04a7 01       		.byte	0x1
 14067 04a8 0F03     		.2byte	0x30f
 14068 04aa 79020000 		.4byte	0x279
 14069 04ae 02       		.uleb128 0x2
 14070 04af 91       		.byte	0x91
 14071 04b0 4C       		.sleb128 -52
 14072 04b1 14       		.uleb128 0x14
 14073 04b2 785F3100 		.ascii	"x_1\000"
 14074 04b6 01       		.byte	0x1
 14075 04b7 0F03     		.2byte	0x30f
 14076 04b9 81000000 		.4byte	0x81
 14077 04bd 02       		.uleb128 0x2
 14078 04be 91       		.byte	0x91
 14079 04bf 6D       		.sleb128 -19
 14080 04c0 13       		.uleb128 0x13
 14081 04c1 71050000 		.4byte	.LASF54
 14082 04c5 01       		.byte	0x1
 14083 04c6 1003     		.2byte	0x310
 14084 04c8 BD000000 		.4byte	0xbd
 14085 04cc 02       		.uleb128 0x2
 14086 04cd 91       		.byte	0x91
 14087 04ce 44       		.sleb128 -60
 14088 04cf 13       		.uleb128 0x13
 14089 04d0 1C000000 		.4byte	.LASF55
 14090 04d4 01       		.byte	0x1
 14091 04d5 1103     		.2byte	0x311
 14092 04d7 9E000000 		.4byte	0x9e
 14093 04db 02       		.uleb128 0x2
 14094 04dc 91       		.byte	0x91
 14095 04dd 60       		.sleb128 -32
 14096 04de 00       		.byte	0
 14097 04df 06       		.uleb128 0x6
 14098 04e0 81000000 		.4byte	0x81
 14099 04e4 EF040000 		.4byte	0x4ef
 14100 04e8 07       		.uleb128 0x7
 14101 04e9 B6000000 		.4byte	0xb6
 14102 04ed 09       		.byte	0x9
 14103 04ee 00       		.byte	0
 14104 04ef 15       		.uleb128 0x15
 14105 04f0 58030000 		.4byte	.LASF57
 14106 04f4 01       		.byte	0x1
 14107 04f5 AE0A     		.2byte	0xaae
 14108 04f7 00000000 		.4byte	.LFB70
 14109 04fb 0C000000 		.4byte	.LFE70-.LFB70
 14110 04ff 01       		.uleb128 0x1
 14111 0500 9C       		.byte	0x9c
 14112 0501 15       		.uleb128 0x15
 14113 0502 65020000 		.4byte	.LASF58
 14114 0506 01       		.byte	0x1
 14115 0507 C30A     		.2byte	0xac3
 14116 0509 00000000 		.4byte	.LFB71
ARM GAS  C:\Users\RECEPC~1\AppData\Local\Temp\cc2OimPl.s 			page 306


 14117 050d 0C000000 		.4byte	.LFE71-.LFB71
 14118 0511 01       		.uleb128 0x1
 14119 0512 9C       		.byte	0x9c
 14120 0513 16       		.uleb128 0x16
 14121 0514 01050000 		.4byte	.LASF59
 14122 0518 01       		.byte	0x1
 14123 0519 D70A     		.2byte	0xad7
 14124 051b 00000000 		.4byte	.LFB72
 14125 051f 74000000 		.4byte	.LFE72-.LFB72
 14126 0523 01       		.uleb128 0x1
 14127 0524 9C       		.byte	0x9c
 14128 0525 16       		.uleb128 0x16
 14129 0526 32050000 		.4byte	.LASF60
 14130 052a 01       		.byte	0x1
 14131 052b F80A     		.2byte	0xaf8
 14132 052d 00000000 		.4byte	.LFB73
 14133 0531 74000000 		.4byte	.LFE73-.LFB73
 14134 0535 01       		.uleb128 0x1
 14135 0536 9C       		.byte	0x9c
 14136 0537 16       		.uleb128 0x16
 14137 0538 40040000 		.4byte	.LASF61
 14138 053c 01       		.byte	0x1
 14139 053d 190B     		.2byte	0xb19
 14140 053f 00000000 		.4byte	.LFB74
 14141 0543 54000000 		.4byte	.LFE74-.LFB74
 14142 0547 01       		.uleb128 0x1
 14143 0548 9C       		.byte	0x9c
 14144 0549 12       		.uleb128 0x12
 14145 054a 23050000 		.4byte	.LASF62
 14146 054e 01       		.byte	0x1
 14147 054f 350B     		.2byte	0xb35
 14148 0551 00000000 		.4byte	.LFB75
 14149 0555 38000000 		.4byte	.LFE75-.LFB75
 14150 0559 01       		.uleb128 0x1
 14151 055a 9C       		.byte	0x9c
 14152 055b 6F050000 		.4byte	0x56f
 14153 055f 13       		.uleb128 0x13
 14154 0560 8B040000 		.4byte	.LASF63
 14155 0564 01       		.byte	0x1
 14156 0565 3A0B     		.2byte	0xb3a
 14157 0567 79020000 		.4byte	0x279
 14158 056b 02       		.uleb128 0x2
 14159 056c 91       		.byte	0x91
 14160 056d 70       		.sleb128 -16
 14161 056e 00       		.byte	0
 14162 056f 17       		.uleb128 0x17
 14163 0570 33060000 		.4byte	.LASF64
 14164 0574 01       		.byte	0x1
 14165 0575 530B     		.2byte	0xb53
 14166 0577 68000000 		.4byte	0x68
 14167 057b 00000000 		.4byte	.LFB76
 14168 057f 26000000 		.4byte	.LFE76-.LFB76
 14169 0583 01       		.uleb128 0x1
 14170 0584 9C       		.byte	0x9c
 14171 0585 18       		.uleb128 0x18
 14172 0586 42000000 		.4byte	.LASF65
 14173 058a 06       		.byte	0x6
ARM GAS  C:\Users\RECEPC~1\AppData\Local\Temp\cc2OimPl.s 			page 307


 14174 058b 3E01     		.2byte	0x13e
 14175 058d 91050000 		.4byte	0x591
 14176 0591 05       		.uleb128 0x5
 14177 0592 99020000 		.4byte	0x299
 14178 0596 06       		.uleb128 0x6
 14179 0597 81000000 		.4byte	0x81
 14180 059b A7050000 		.4byte	0x5a7
 14181 059f 19       		.uleb128 0x19
 14182 05a0 B6000000 		.4byte	0xb6
 14183 05a4 DB05     		.2byte	0x5db
 14184 05a6 00       		.byte	0
 14185 05a7 18       		.uleb128 0x18
 14186 05a8 A0040000 		.4byte	.LASF66
 14187 05ac 07       		.byte	0x7
 14188 05ad 3E01     		.2byte	0x13e
 14189 05af B3050000 		.4byte	0x5b3
 14190 05b3 05       		.uleb128 0x5
 14191 05b4 96050000 		.4byte	0x596
 14192 05b8 18       		.uleb128 0x18
 14193 05b9 B5040000 		.4byte	.LASF67
 14194 05bd 08       		.byte	0x8
 14195 05be 2A06     		.2byte	0x62a
 14196 05c0 C4050000 		.4byte	0x5c4
 14197 05c4 05       		.uleb128 0x5
 14198 05c5 76000000 		.4byte	0x76
 14199 05c9 1A       		.uleb128 0x1a
 14200 05ca FC020000 		.4byte	.LASF68
 14201 05ce 05       		.byte	0x5
 14202 05cf 43       		.byte	0x43
 14203 05d0 AC000000 		.4byte	0xac
 14204 05d4 05       		.uleb128 0x5
 14205 05d5 03       		.byte	0x3
 14206 05d6 00000000 		.4byte	count_teclas1
 14207 05da 1A       		.uleb128 0x1a
 14208 05db CB040000 		.4byte	.LASF69
 14209 05df 05       		.byte	0x5
 14210 05e0 43       		.byte	0x43
 14211 05e1 AC000000 		.4byte	0xac
 14212 05e5 05       		.uleb128 0x5
 14213 05e6 03       		.byte	0x3
 14214 05e7 00000000 		.4byte	comas1
 14215 05eb 1A       		.uleb128 0x1a
 14216 05ec D2040000 		.4byte	.LASF70
 14217 05f0 05       		.byte	0x5
 14218 05f1 43       		.byte	0x43
 14219 05f2 AC000000 		.4byte	0xac
 14220 05f6 05       		.uleb128 0x5
 14221 05f7 03       		.byte	0x3
 14222 05f8 00000000 		.4byte	comas2
 14223 05fc 1A       		.uleb128 0x1a
 14224 05fd 9A000000 		.4byte	.LASF71
 14225 0601 05       		.byte	0x5
 14226 0602 43       		.byte	0x43
 14227 0603 AC000000 		.4byte	0xac
 14228 0607 05       		.uleb128 0x5
 14229 0608 03       		.byte	0x3
 14230 0609 00000000 		.4byte	id_coma1
ARM GAS  C:\Users\RECEPC~1\AppData\Local\Temp\cc2OimPl.s 			page 308


 14231 060d 1A       		.uleb128 0x1a
 14232 060e 4D020000 		.4byte	.LASF72
 14233 0612 05       		.byte	0x5
 14234 0613 43       		.byte	0x43
 14235 0614 AC000000 		.4byte	0xac
 14236 0618 05       		.uleb128 0x5
 14237 0619 03       		.byte	0x3
 14238 061a 00000000 		.4byte	id_teclado1
 14239 061e 1A       		.uleb128 0x1a
 14240 061f 0A030000 		.4byte	.LASF73
 14241 0623 05       		.byte	0x5
 14242 0624 43       		.byte	0x43
 14243 0625 AC000000 		.4byte	0xac
 14244 0629 05       		.uleb128 0x5
 14245 062a 03       		.byte	0x3
 14246 062b 00000000 		.4byte	count_teclas2
 14247 062f 1A       		.uleb128 0x1a
 14248 0630 A3000000 		.4byte	.LASF74
 14249 0634 05       		.byte	0x5
 14250 0635 43       		.byte	0x43
 14251 0636 AC000000 		.4byte	0xac
 14252 063a 05       		.uleb128 0x5
 14253 063b 03       		.byte	0x3
 14254 063c 00000000 		.4byte	id_coma2
 14255 0640 1A       		.uleb128 0x1a
 14256 0641 59020000 		.4byte	.LASF75
 14257 0645 05       		.byte	0x5
 14258 0646 43       		.byte	0x43
 14259 0647 AC000000 		.4byte	0xac
 14260 064b 05       		.uleb128 0x5
 14261 064c 03       		.byte	0x3
 14262 064d 00000000 		.4byte	id_teclado2
 14263 0651 1A       		.uleb128 0x1a
 14264 0652 18030000 		.4byte	.LASF76
 14265 0656 05       		.byte	0x5
 14266 0657 44       		.byte	0x44
 14267 0658 B1000000 		.4byte	0xb1
 14268 065c 05       		.uleb128 0x5
 14269 065d 03       		.byte	0x3
 14270 065e 00000000 		.4byte	posx1
 14271 0662 1A       		.uleb128 0x1a
 14272 0663 FA030000 		.4byte	.LASF77
 14273 0667 05       		.byte	0x5
 14274 0668 44       		.byte	0x44
 14275 0669 B1000000 		.4byte	0xb1
 14276 066d 05       		.uleb128 0x5
 14277 066e 03       		.byte	0x3
 14278 066f 00000000 		.4byte	posy1
 14279 0673 1A       		.uleb128 0x1a
 14280 0674 9C060000 		.4byte	.LASF78
 14281 0678 05       		.byte	0x5
 14282 0679 44       		.byte	0x44
 14283 067a B1000000 		.4byte	0xb1
 14284 067e 05       		.uleb128 0x5
 14285 067f 03       		.byte	0x3
 14286 0680 00000000 		.4byte	sizeletra1
 14287 0684 1A       		.uleb128 0x1a
ARM GAS  C:\Users\RECEPC~1\AppData\Local\Temp\cc2OimPl.s 			page 309


 14288 0685 3C030000 		.4byte	.LASF79
 14289 0689 05       		.byte	0x5
 14290 068a 44       		.byte	0x44
 14291 068b B1000000 		.4byte	0xb1
 14292 068f 05       		.uleb128 0x5
 14293 0690 03       		.byte	0x3
 14294 0691 00000000 		.4byte	posx2
 14295 0695 1A       		.uleb128 0x1a
 14296 0696 00040000 		.4byte	.LASF80
 14297 069a 05       		.byte	0x5
 14298 069b 44       		.byte	0x44
 14299 069c B1000000 		.4byte	0xb1
 14300 06a0 05       		.uleb128 0x5
 14301 06a1 03       		.byte	0x3
 14302 06a2 00000000 		.4byte	posy2
 14303 06a6 1A       		.uleb128 0x1a
 14304 06a7 A7060000 		.4byte	.LASF81
 14305 06ab 05       		.byte	0x5
 14306 06ac 44       		.byte	0x44
 14307 06ad B1000000 		.4byte	0xb1
 14308 06b1 05       		.uleb128 0x5
 14309 06b2 03       		.byte	0x3
 14310 06b3 00000000 		.4byte	sizeletra2
 14311 06b7 1A       		.uleb128 0x1a
 14312 06b8 04010000 		.4byte	.LASF82
 14313 06bc 05       		.byte	0x5
 14314 06bd 45       		.byte	0x45
 14315 06be AC000000 		.4byte	0xac
 14316 06c2 05       		.uleb128 0x5
 14317 06c3 03       		.byte	0x3
 14318 06c4 00000000 		.4byte	teclas1
 14319 06c8 1A       		.uleb128 0x1a
 14320 06c9 0C010000 		.4byte	.LASF83
 14321 06cd 05       		.byte	0x5
 14322 06ce 45       		.byte	0x45
 14323 06cf AC000000 		.4byte	0xac
 14324 06d3 05       		.uleb128 0x5
 14325 06d4 03       		.byte	0x3
 14326 06d5 00000000 		.4byte	teclas2
 14327 06d9 1A       		.uleb128 0x1a
 14328 06da 49010000 		.4byte	.LASF84
 14329 06de 05       		.byte	0x5
 14330 06df 46       		.byte	0x46
 14331 06e0 AC000000 		.4byte	0xac
 14332 06e4 05       		.uleb128 0x5
 14333 06e5 03       		.byte	0x3
 14334 06e6 00000000 		.4byte	flujo_LCD1
 14335 06ea 1A       		.uleb128 0x1a
 14336 06eb 54010000 		.4byte	.LASF85
 14337 06ef 05       		.byte	0x5
 14338 06f0 46       		.byte	0x46
 14339 06f1 AC000000 		.4byte	0xac
 14340 06f5 05       		.uleb128 0x5
 14341 06f6 03       		.byte	0x3
 14342 06f7 00000000 		.4byte	flujo_LCD2
 14343 06fb 1A       		.uleb128 0x1a
 14344 06fc 17020000 		.4byte	.LASF86
ARM GAS  C:\Users\RECEPC~1\AppData\Local\Temp\cc2OimPl.s 			page 310


 14345 0700 05       		.byte	0x5
 14346 0701 47       		.byte	0x47
 14347 0702 AC000000 		.4byte	0xac
 14348 0706 05       		.uleb128 0x5
 14349 0707 03       		.byte	0x3
 14350 0708 00000000 		.4byte	flujo_pos1
 14351 070c 1A       		.uleb128 0x1a
 14352 070d 22020000 		.4byte	.LASF87
 14353 0711 05       		.byte	0x5
 14354 0712 47       		.byte	0x47
 14355 0713 AC000000 		.4byte	0xac
 14356 0717 05       		.uleb128 0x5
 14357 0718 03       		.byte	0x3
 14358 0719 00000000 		.4byte	flujo_pos2
 14359 071d 1A       		.uleb128 0x1a
 14360 071e DD010000 		.4byte	.LASF88
 14361 0722 05       		.byte	0x5
 14362 0723 48       		.byte	0x48
 14363 0724 AC000000 		.4byte	0xac
 14364 0728 05       		.uleb128 0x5
 14365 0729 03       		.byte	0x3
 14366 072a 00000000 		.4byte	seleccion_pos
 14367 072e 1A       		.uleb128 0x1a
 14368 072f C2050000 		.4byte	.LASF89
 14369 0733 05       		.byte	0x5
 14370 0734 49       		.byte	0x49
 14371 0735 AC000000 		.4byte	0xac
 14372 0739 05       		.uleb128 0x5
 14373 073a 03       		.byte	0x3
 14374 073b 00000000 		.4byte	flujo_pos
 14375 073f 1A       		.uleb128 0x1a
 14376 0740 D0010000 		.4byte	.LASF90
 14377 0744 05       		.byte	0x5
 14378 0745 4A       		.byte	0x4a
 14379 0746 AC000000 		.4byte	0xac
 14380 074a 05       		.uleb128 0x5
 14381 074b 03       		.byte	0x3
 14382 074c 00000000 		.4byte	venta_activa
 14383 0750 1A       		.uleb128 0x1a
 14384 0751 9C010000 		.4byte	.LASF91
 14385 0755 05       		.byte	0x5
 14386 0756 4A       		.byte	0x4a
 14387 0757 AC000000 		.4byte	0xac
 14388 075b 05       		.uleb128 0x5
 14389 075c 03       		.byte	0x3
 14390 075d 00000000 		.4byte	venta_activa2
 14391 0761 06       		.uleb128 0x6
 14392 0762 81000000 		.4byte	0x81
 14393 0766 71070000 		.4byte	0x771
 14394 076a 07       		.uleb128 0x7
 14395 076b B6000000 		.4byte	0xb6
 14396 076f 1D       		.byte	0x1d
 14397 0770 00       		.byte	0
 14398 0771 1A       		.uleb128 0x1a
 14399 0772 23040000 		.4byte	.LASF92
 14400 0776 05       		.byte	0x5
 14401 0777 4B       		.byte	0x4b
ARM GAS  C:\Users\RECEPC~1\AppData\Local\Temp\cc2OimPl.s 			page 311


 14402 0778 82070000 		.4byte	0x782
 14403 077c 05       		.uleb128 0x5
 14404 077d 03       		.byte	0x3
 14405 077e 00000000 		.4byte	Buffer_LCD1
 14406 0782 05       		.uleb128 0x5
 14407 0783 61070000 		.4byte	0x761
 14408 0787 1A       		.uleb128 0x1a
 14409 0788 80020000 		.4byte	.LASF93
 14410 078c 05       		.byte	0x5
 14411 078d 4C       		.byte	0x4c
 14412 078e 98070000 		.4byte	0x798
 14413 0792 05       		.uleb128 0x5
 14414 0793 03       		.byte	0x3
 14415 0794 00000000 		.4byte	Buffer_LCD2
 14416 0798 05       		.uleb128 0x5
 14417 0799 61070000 		.4byte	0x761
 14418 079d 1A       		.uleb128 0x1a
 14419 079e 6C010000 		.4byte	.LASF94
 14420 07a2 05       		.byte	0x5
 14421 07a3 4D       		.byte	0x4d
 14422 07a4 AC000000 		.4byte	0xac
 14423 07a8 05       		.uleb128 0x5
 14424 07a9 03       		.byte	0x3
 14425 07aa 00000000 		.4byte	count_protector
 14426 07ae 1A       		.uleb128 0x1a
 14427 07af 28000000 		.4byte	.LASF95
 14428 07b3 05       		.byte	0x5
 14429 07b4 4D       		.byte	0x4d
 14430 07b5 AC000000 		.4byte	0xac
 14431 07b9 05       		.uleb128 0x5
 14432 07ba 03       		.byte	0x3
 14433 07bb 00000000 		.4byte	count_protector2
 14434 07bf 1A       		.uleb128 0x1a
 14435 07c0 EF020000 		.4byte	.LASF96
 14436 07c4 05       		.byte	0x5
 14437 07c5 4E       		.byte	0x4e
 14438 07c6 D0070000 		.4byte	0x7d0
 14439 07ca 05       		.uleb128 0x5
 14440 07cb 03       		.byte	0x3
 14441 07cc 00000000 		.4byte	password_lcd
 14442 07d0 05       		.uleb128 0x5
 14443 07d1 89020000 		.4byte	0x289
 14444 07d5 1A       		.uleb128 0x1a
 14445 07d6 6E060000 		.4byte	.LASF97
 14446 07da 05       		.byte	0x5
 14447 07db 4F       		.byte	0x4f
 14448 07dc B1000000 		.4byte	0xb1
 14449 07e0 05       		.uleb128 0x5
 14450 07e1 03       		.byte	0x3
 14451 07e2 00000000 		.4byte	imagen_grado
 14452 07e6 06       		.uleb128 0x6
 14453 07e7 8C000000 		.4byte	0x8c
 14454 07eb FC070000 		.4byte	0x7fc
 14455 07ef 07       		.uleb128 0x7
 14456 07f0 B6000000 		.4byte	0xb6
 14457 07f4 01       		.byte	0x1
 14458 07f5 07       		.uleb128 0x7
ARM GAS  C:\Users\RECEPC~1\AppData\Local\Temp\cc2OimPl.s 			page 312


 14459 07f6 B6000000 		.4byte	0xb6
 14460 07fa 01       		.byte	0x1
 14461 07fb 00       		.byte	0
 14462 07fc 1A       		.uleb128 0x1a
 14463 07fd 80050000 		.4byte	.LASF98
 14464 0801 05       		.byte	0x5
 14465 0802 50       		.byte	0x50
 14466 0803 0D080000 		.4byte	0x80d
 14467 0807 05       		.uleb128 0x5
 14468 0808 03       		.byte	0x3
 14469 0809 00000000 		.4byte	prox_caso
 14470 080d 05       		.uleb128 0x5
 14471 080e E6070000 		.4byte	0x7e6
 14472 0812 06       		.uleb128 0x6
 14473 0813 81000000 		.4byte	0x81
 14474 0817 22080000 		.4byte	0x822
 14475 081b 07       		.uleb128 0x7
 14476 081c B6000000 		.4byte	0xb6
 14477 0820 02       		.byte	0x2
 14478 0821 00       		.byte	0
 14479 0822 1A       		.uleb128 0x1a
 14480 0823 91020000 		.4byte	.LASF99
 14481 0827 05       		.byte	0x5
 14482 0828 51       		.byte	0x51
 14483 0829 33080000 		.4byte	0x833
 14484 082d 05       		.uleb128 0x5
 14485 082e 03       		.byte	0x3
 14486 082f 00000000 		.4byte	bloqueo_LCD
 14487 0833 05       		.uleb128 0x5
 14488 0834 12080000 		.4byte	0x812
 14489 0838 1A       		.uleb128 0x1a
 14490 0839 59060000 		.4byte	.LASF100
 14491 083d 05       		.byte	0x5
 14492 083e 52       		.byte	0x52
 14493 083f 49080000 		.4byte	0x849
 14494 0843 05       		.uleb128 0x5
 14495 0844 03       		.byte	0x3
 14496 0845 00000000 		.4byte	id_estacion
 14497 0849 05       		.uleb128 0x5
 14498 084a 79020000 		.4byte	0x279
 14499 084e 1A       		.uleb128 0x1a
 14500 084f 70020000 		.4byte	.LASF101
 14501 0853 05       		.byte	0x5
 14502 0854 53       		.byte	0x53
 14503 0855 5F080000 		.4byte	0x85f
 14504 0859 05       		.uleb128 0x5
 14505 085a 03       		.byte	0x3
 14506 085b 00000000 		.4byte	id_venta
 14507 085f 05       		.uleb128 0x5
 14508 0860 99020000 		.4byte	0x299
 14509 0864 06       		.uleb128 0x6
 14510 0865 81000000 		.4byte	0x81
 14511 0869 74080000 		.4byte	0x874
 14512 086d 07       		.uleb128 0x7
 14513 086e B6000000 		.4byte	0xb6
 14514 0872 C7       		.byte	0xc7
 14515 0873 00       		.byte	0
ARM GAS  C:\Users\RECEPC~1\AppData\Local\Temp\cc2OimPl.s 			page 313


 14516 0874 1A       		.uleb128 0x1a
 14517 0875 4B060000 		.4byte	.LASF102
 14518 0879 05       		.byte	0x5
 14519 087a 54       		.byte	0x54
 14520 087b 85080000 		.4byte	0x885
 14521 087f 05       		.uleb128 0x5
 14522 0880 03       		.byte	0x3
 14523 0881 00000000 		.4byte	trama_totales
 14524 0885 05       		.uleb128 0x5
 14525 0886 64080000 		.4byte	0x864
 14526 088a 1A       		.uleb128 0x1a
 14527 088b 6B040000 		.4byte	.LASF103
 14528 088f 05       		.byte	0x5
 14529 0890 58       		.byte	0x58
 14530 0891 AC000000 		.4byte	0xac
 14531 0895 05       		.uleb128 0x5
 14532 0896 03       		.byte	0x3
 14533 0897 00000000 		.4byte	ppux10
 14534 089b 06       		.uleb128 0x6
 14535 089c 81000000 		.4byte	0x81
 14536 08a0 AB080000 		.4byte	0x8ab
 14537 08a4 07       		.uleb128 0x7
 14538 08a5 B6000000 		.4byte	0xb6
 14539 08a9 10       		.byte	0x10
 14540 08aa 00       		.byte	0
 14541 08ab 1A       		.uleb128 0x1a
 14542 08ac 0B050000 		.4byte	.LASF104
 14543 08b0 05       		.byte	0x5
 14544 08b1 59       		.byte	0x59
 14545 08b2 BC080000 		.4byte	0x8bc
 14546 08b6 05       		.uleb128 0x5
 14547 08b7 03       		.byte	0x3
 14548 08b8 00000000 		.4byte	nombre_pro1
 14549 08bc 05       		.uleb128 0x5
 14550 08bd 9B080000 		.4byte	0x89b
 14551 08c1 1A       		.uleb128 0x1a
 14552 08c2 F6050000 		.4byte	.LASF105
 14553 08c6 05       		.byte	0x5
 14554 08c7 59       		.byte	0x59
 14555 08c8 D2080000 		.4byte	0x8d2
 14556 08cc 05       		.uleb128 0x5
 14557 08cd 03       		.byte	0x3
 14558 08ce 00000000 		.4byte	nombre_pro2
 14559 08d2 05       		.uleb128 0x5
 14560 08d3 9B080000 		.4byte	0x89b
 14561 08d7 1A       		.uleb128 0x1a
 14562 08d8 17050000 		.4byte	.LASF106
 14563 08dc 05       		.byte	0x5
 14564 08dd 59       		.byte	0x59
 14565 08de E8080000 		.4byte	0x8e8
 14566 08e2 05       		.uleb128 0x5
 14567 08e3 03       		.byte	0x3
 14568 08e4 00000000 		.4byte	nombre_pro3
 14569 08e8 05       		.uleb128 0x5
 14570 08e9 9B080000 		.4byte	0x89b
 14571 08ed 1A       		.uleb128 0x1a
 14572 08ee D0000000 		.4byte	.LASF107
ARM GAS  C:\Users\RECEPC~1\AppData\Local\Temp\cc2OimPl.s 			page 314


 14573 08f2 05       		.byte	0x5
 14574 08f3 5A       		.byte	0x5a
 14575 08f4 FE080000 		.4byte	0x8fe
 14576 08f8 05       		.uleb128 0x5
 14577 08f9 03       		.byte	0x3
 14578 08fa 00000000 		.4byte	version
 14579 08fe 05       		.uleb128 0x5
 14580 08ff CD000000 		.4byte	0xcd
 14581 0903 1A       		.uleb128 0x1a
 14582 0904 01020000 		.4byte	.LASF108
 14583 0908 05       		.byte	0x5
 14584 0909 5B       		.byte	0x5b
 14585 090a AC000000 		.4byte	0xac
 14586 090e 05       		.uleb128 0x5
 14587 090f 03       		.byte	0x3
 14588 0910 00000000 		.4byte	kmscreen
 14589 0914 1A       		.uleb128 0x1a
 14590 0915 9F050000 		.4byte	.LASF109
 14591 0919 05       		.byte	0x5
 14592 091a 5B       		.byte	0x5b
 14593 091b AC000000 		.4byte	0xac
 14594 091f 05       		.uleb128 0x5
 14595 0920 03       		.byte	0x3
 14596 0921 00000000 		.4byte	pantallas
 14597 0925 1A       		.uleb128 0x1a
 14598 0926 39000000 		.4byte	.LASF110
 14599 092a 05       		.byte	0x5
 14600 092b 5B       		.byte	0x5b
 14601 092c AC000000 		.4byte	0xac
 14602 0930 05       		.uleb128 0x5
 14603 0931 03       		.byte	0x3
 14604 0932 00000000 		.4byte	efectivo
 14605 0936 1A       		.uleb128 0x1a
 14606 0937 CA010000 		.4byte	.LASF111
 14607 093b 05       		.byte	0x5
 14608 093c 65       		.byte	0x65
 14609 093d E4000000 		.4byte	0xe4
 14610 0941 05       		.uleb128 0x5
 14611 0942 03       		.byte	0x3
 14612 0943 00000000 		.4byte	lado1
 14613 0947 1A       		.uleb128 0x1a
 14614 0948 CC050000 		.4byte	.LASF112
 14615 094c 05       		.byte	0x5
 14616 094d 66       		.byte	0x66
 14617 094e E4000000 		.4byte	0xe4
 14618 0952 05       		.uleb128 0x5
 14619 0953 03       		.byte	0x3
 14620 0954 00000000 		.4byte	lado2
 14621 0958 06       		.uleb128 0x6
 14622 0959 81000000 		.4byte	0x81
 14623 095d 68090000 		.4byte	0x968
 14624 0961 07       		.uleb128 0x7
 14625 0962 B6000000 		.4byte	0xb6
 14626 0966 20       		.byte	0x20
 14627 0967 00       		.byte	0
 14628 0968 1A       		.uleb128 0x1a
 14629 0969 72040000 		.4byte	.LASF113
ARM GAS  C:\Users\RECEPC~1\AppData\Local\Temp\cc2OimPl.s 			page 315


 14630 096d 05       		.byte	0x5
 14631 096e 6A       		.byte	0x6a
 14632 096f 79090000 		.4byte	0x979
 14633 0973 05       		.uleb128 0x5
 14634 0974 03       		.byte	0x3
 14635 0975 00000000 		.4byte	nombre
 14636 0979 05       		.uleb128 0x5
 14637 097a 58090000 		.4byte	0x958
 14638 097e 06       		.uleb128 0x6
 14639 097f 81000000 		.4byte	0x81
 14640 0983 8E090000 		.4byte	0x98e
 14641 0987 07       		.uleb128 0x7
 14642 0988 B6000000 		.4byte	0xb6
 14643 098c 0E       		.byte	0xe
 14644 098d 00       		.byte	0
 14645 098e 1B       		.uleb128 0x1b
 14646 098f 6E697400 		.ascii	"nit\000"
 14647 0993 05       		.byte	0x5
 14648 0994 6B       		.byte	0x6b
 14649 0995 9F090000 		.4byte	0x99f
 14650 0999 05       		.uleb128 0x5
 14651 099a 03       		.byte	0x3
 14652 099b 00000000 		.4byte	nit
 14653 099f 05       		.uleb128 0x5
 14654 09a0 7E090000 		.4byte	0x97e
 14655 09a4 06       		.uleb128 0x6
 14656 09a5 81000000 		.4byte	0x81
 14657 09a9 B4090000 		.4byte	0x9b4
 14658 09ad 07       		.uleb128 0x7
 14659 09ae B6000000 		.4byte	0xb6
 14660 09b2 13       		.byte	0x13
 14661 09b3 00       		.byte	0
 14662 09b4 1A       		.uleb128 0x1a
 14663 09b5 44020000 		.4byte	.LASF114
 14664 09b9 05       		.byte	0x5
 14665 09ba 6C       		.byte	0x6c
 14666 09bb C5090000 		.4byte	0x9c5
 14667 09bf 05       		.uleb128 0x5
 14668 09c0 03       		.byte	0x3
 14669 09c1 00000000 		.4byte	telefono
 14670 09c5 05       		.uleb128 0x5
 14671 09c6 A4090000 		.4byte	0x9a4
 14672 09ca 1A       		.uleb128 0x1a
 14673 09cb 3F010000 		.4byte	.LASF115
 14674 09cf 05       		.byte	0x5
 14675 09d0 6D       		.byte	0x6d
 14676 09d1 DB090000 		.4byte	0x9db
 14677 09d5 05       		.uleb128 0x5
 14678 09d6 03       		.byte	0x3
 14679 09d7 00000000 		.4byte	direccion
 14680 09db 05       		.uleb128 0x5
 14681 09dc 58090000 		.4byte	0x958
 14682 09e0 06       		.uleb128 0x6
 14683 09e1 81000000 		.4byte	0x81
 14684 09e5 F0090000 		.4byte	0x9f0
 14685 09e9 07       		.uleb128 0x7
 14686 09ea B6000000 		.4byte	0xb6
ARM GAS  C:\Users\RECEPC~1\AppData\Local\Temp\cc2OimPl.s 			page 316


 14687 09ee 1F       		.byte	0x1f
 14688 09ef 00       		.byte	0
 14689 09f0 1A       		.uleb128 0x1a
 14690 09f1 14010000 		.4byte	.LASF116
 14691 09f5 05       		.byte	0x5
 14692 09f6 6E       		.byte	0x6e
 14693 09f7 010A0000 		.4byte	0xa01
 14694 09fb 05       		.uleb128 0x5
 14695 09fc 03       		.byte	0x3
 14696 09fd 00000000 		.4byte	lema1
 14697 0a01 05       		.uleb128 0x5
 14698 0a02 E0090000 		.4byte	0x9e0
 14699 0a06 1A       		.uleb128 0x1a
 14700 0a07 96010000 		.4byte	.LASF117
 14701 0a0b 05       		.byte	0x5
 14702 0a0c 6F       		.byte	0x6f
 14703 0a0d 170A0000 		.4byte	0xa17
 14704 0a11 05       		.uleb128 0x5
 14705 0a12 03       		.byte	0x3
 14706 0a13 00000000 		.4byte	lema2
 14707 0a17 05       		.uleb128 0x5
 14708 0a18 E0090000 		.4byte	0x9e0
 14709 0a1c 06       		.uleb128 0x6
 14710 0a1d 81000000 		.4byte	0x81
 14711 0a21 2C0A0000 		.4byte	0xa2c
 14712 0a25 07       		.uleb128 0x7
 14713 0a26 B6000000 		.4byte	0xb6
 14714 0a2a 01       		.byte	0x1
 14715 0a2b 00       		.byte	0
 14716 0a2c 1A       		.uleb128 0x1a
 14717 0a2d 83040000 		.4byte	.LASF118
 14718 0a31 05       		.byte	0x5
 14719 0a32 70       		.byte	0x70
 14720 0a33 3D0A0000 		.4byte	0xa3d
 14721 0a37 05       		.uleb128 0x5
 14722 0a38 03       		.byte	0x3
 14723 0a39 00000000 		.4byte	id_logo
 14724 0a3d 05       		.uleb128 0x5
 14725 0a3e 1C0A0000 		.4byte	0xa1c
 14726 0a42 1B       		.uleb128 0x1b
 14727 0a43 6B6D00   		.ascii	"km\000"
 14728 0a46 05       		.byte	0x5
 14729 0a47 71       		.byte	0x71
 14730 0a48 520A0000 		.4byte	0xa52
 14731 0a4c 05       		.uleb128 0x5
 14732 0a4d 03       		.byte	0x3
 14733 0a4e 00000000 		.4byte	km
 14734 0a52 05       		.uleb128 0x5
 14735 0a53 1C0A0000 		.4byte	0xa1c
 14736 0a57 1A       		.uleb128 0x1a
 14737 0a58 38060000 		.4byte	.LASF119
 14738 0a5c 05       		.byte	0x5
 14739 0a5d 72       		.byte	0x72
 14740 0a5e 12080000 		.4byte	0x812
 14741 0a62 05       		.uleb128 0x5
 14742 0a63 03       		.byte	0x3
 14743 0a64 00000000 		.4byte	fecha
ARM GAS  C:\Users\RECEPC~1\AppData\Local\Temp\cc2OimPl.s 			page 317


 14744 0a68 1A       		.uleb128 0x1a
 14745 0a69 FF000000 		.4byte	.LASF120
 14746 0a6d 05       		.byte	0x5
 14747 0a6e 73       		.byte	0x73
 14748 0a6f 1C0A0000 		.4byte	0xa1c
 14749 0a73 05       		.uleb128 0x5
 14750 0a74 03       		.byte	0x3
 14751 0a75 00000000 		.4byte	hora
 14752 0a79 1A       		.uleb128 0x1a
 14753 0a7a 2F010000 		.4byte	.LASF121
 14754 0a7e 05       		.byte	0x5
 14755 0a7f 89       		.byte	0x89
 14756 0a80 8A010000 		.4byte	0x18a
 14757 0a84 05       		.uleb128 0x5
 14758 0a85 03       		.byte	0x3
 14759 0a86 00000000 		.4byte	rventa1
 14760 0a8a 1A       		.uleb128 0x1a
 14761 0a8b 37010000 		.4byte	.LASF122
 14762 0a8f 05       		.byte	0x5
 14763 0a90 8A       		.byte	0x8a
 14764 0a91 8A010000 		.4byte	0x18a
 14765 0a95 05       		.uleb128 0x5
 14766 0a96 03       		.byte	0x3
 14767 0a97 00000000 		.4byte	rventa2
 14768 0a9b 1A       		.uleb128 0x1a
 14769 0a9c EE000000 		.4byte	.LASF123
 14770 0aa0 05       		.byte	0x5
 14771 0aa1 8F       		.byte	0x8f
 14772 0aa2 81000000 		.4byte	0x81
 14773 0aa6 05       		.uleb128 0x5
 14774 0aa7 03       		.byte	0x3
 14775 0aa8 00000000 		.4byte	ok_RF
 14776 0aac 1A       		.uleb128 0x1a
 14777 0aad D2050000 		.4byte	.LASF124
 14778 0ab1 05       		.byte	0x5
 14779 0ab2 90       		.byte	0x90
 14780 0ab3 81000000 		.4byte	0x81
 14781 0ab7 05       		.uleb128 0x5
 14782 0ab8 03       		.byte	0x3
 14783 0ab9 00000000 		.4byte	ok_datosRF
 14784 0abd 1A       		.uleb128 0x1a
 14785 0abe 79020000 		.4byte	.LASF125
 14786 0ac2 05       		.byte	0x5
 14787 0ac3 91       		.byte	0x91
 14788 0ac4 64080000 		.4byte	0x864
 14789 0ac8 05       		.uleb128 0x5
 14790 0ac9 03       		.byte	0x3
 14791 0aca 00000000 		.4byte	rf_mod
 14792 0ace 06       		.uleb128 0x6
 14793 0acf 81000000 		.4byte	0x81
 14794 0ad3 DE0A0000 		.4byte	0xade
 14795 0ad7 07       		.uleb128 0x7
 14796 0ad8 B6000000 		.4byte	0xb6
 14797 0adc 3F       		.byte	0x3f
 14798 0add 00       		.byte	0
 14799 0ade 1A       		.uleb128 0x1a
 14800 0adf 7C010000 		.4byte	.LASF126
ARM GAS  C:\Users\RECEPC~1\AppData\Local\Temp\cc2OimPl.s 			page 318


 14801 0ae3 05       		.byte	0x5
 14802 0ae4 96       		.byte	0x96
 14803 0ae5 CE0A0000 		.4byte	0xace
 14804 0ae9 05       		.uleb128 0x5
 14805 0aea 03       		.byte	0x3
 14806 0aeb 00000000 		.4byte	buffer_i2c
 14807 0aef 1A       		.uleb128 0x1a
 14808 0af0 79040000 		.4byte	.LASF127
 14809 0af4 05       		.byte	0x5
 14810 0af5 9B       		.byte	0x9b
 14811 0af6 81000000 		.4byte	0x81
 14812 0afa 05       		.uleb128 0x5
 14813 0afb 03       		.byte	0x3
 14814 0afc 00000000 		.4byte	crc_total
 14815 0b00 1A       		.uleb128 0x1a
 14816 0b01 BC020000 		.4byte	.LASF128
 14817 0b05 05       		.byte	0x5
 14818 0b06 9F       		.byte	0x9f
 14819 0b07 1C0A0000 		.4byte	0xa1c
 14820 0b0b 05       		.uleb128 0x5
 14821 0b0c 03       		.byte	0x3
 14822 0b0d 00000000 		.4byte	print1
 14823 0b11 1A       		.uleb128 0x1a
 14824 0b12 C3020000 		.4byte	.LASF129
 14825 0b16 05       		.byte	0x5
 14826 0b17 A0       		.byte	0xa0
 14827 0b18 1C0A0000 		.4byte	0xa1c
 14828 0b1c 05       		.uleb128 0x5
 14829 0b1d 03       		.byte	0x3
 14830 0b1e 00000000 		.4byte	print2
 14831 0b22 1A       		.uleb128 0x1a
 14832 0b23 CA020000 		.4byte	.LASF33
 14833 0b27 05       		.byte	0x5
 14834 0b28 A5       		.byte	0xa5
 14835 0b29 81000000 		.4byte	0x81
 14836 0b2d 05       		.uleb128 0x5
 14837 0b2e 03       		.byte	0x3
 14838 0b2f 00000000 		.4byte	tipo_venta
 14839 0b33 06       		.uleb128 0x6
 14840 0b34 81000000 		.4byte	0x81
 14841 0b38 430B0000 		.4byte	0xb43
 14842 0b3c 07       		.uleb128 0x7
 14843 0b3d B6000000 		.4byte	0xb6
 14844 0b41 19       		.byte	0x19
 14845 0b42 00       		.byte	0
 14846 0b43 1A       		.uleb128 0x1a
 14847 0b44 F4010000 		.4byte	.LASF130
 14848 0b48 01       		.byte	0x1
 14849 0b49 35       		.byte	0x35
 14850 0b4a 330B0000 		.4byte	0xb33
 14851 0b4e 05       		.uleb128 0x5
 14852 0b4f 03       		.byte	0x3
 14853 0b50 00000000 		.4byte	letras
 14854 0b54 1A       		.uleb128 0x1a
 14855 0b55 E9050000 		.4byte	.LASF131
 14856 0b59 01       		.byte	0x1
 14857 0b5a 36       		.byte	0x36
ARM GAS  C:\Users\RECEPC~1\AppData\Local\Temp\cc2OimPl.s 			page 319


 14858 0b5b 79020000 		.4byte	0x279
 14859 0b5f 05       		.uleb128 0x5
 14860 0b60 03       		.byte	0x3
 14861 0b61 00000000 		.4byte	clave_config
 14862 0b65 06       		.uleb128 0x6
 14863 0b66 81000000 		.4byte	0x81
 14864 0b6a 750B0000 		.4byte	0xb75
 14865 0b6e 07       		.uleb128 0x7
 14866 0b6f B6000000 		.4byte	0xb6
 14867 0b73 11       		.byte	0x11
 14868 0b74 00       		.byte	0
 14869 0b75 1A       		.uleb128 0x1a
 14870 0b76 E2000000 		.4byte	.LASF132
 14871 0b7a 01       		.byte	0x1
 14872 0b7b 37       		.byte	0x37
 14873 0b7c 650B0000 		.4byte	0xb65
 14874 0b80 05       		.uleb128 0x5
 14875 0b81 03       		.byte	0x3
 14876 0b82 00000000 		.4byte	test
 14877 0b86 1A       		.uleb128 0x1a
 14878 0b87 AC000000 		.4byte	.LASF133
 14879 0b8b 01       		.byte	0x1
 14880 0b8c 38       		.byte	0x38
 14881 0b8d 8C000000 		.4byte	0x8c
 14882 0b91 05       		.uleb128 0x5
 14883 0b92 03       		.byte	0x3
 14884 0b93 00000000 		.4byte	num_decimal2
 14885 0b97 1A       		.uleb128 0x1a
 14886 0b98 36020000 		.4byte	.LASF134
 14887 0b9c 01       		.byte	0x1
 14888 0b9d 3C       		.byte	0x3c
 14889 0b9e 99020000 		.4byte	0x299
 14890 0ba2 05       		.uleb128 0x5
 14891 0ba3 03       		.byte	0x3
 14892 0ba4 00000000 		.4byte	idaux
 14893 0ba8 1A       		.uleb128 0x1a
 14894 0ba9 2D020000 		.4byte	.LASF135
 14895 0bad 01       		.byte	0x1
 14896 0bae 3D       		.byte	0x3d
 14897 0baf 81000000 		.4byte	0x81
 14898 0bb3 05       		.uleb128 0x5
 14899 0bb4 03       		.byte	0x3
 14900 0bb5 00000000 		.4byte	state_rf
 14901 0bb9 1A       		.uleb128 0x1a
 14902 0bba 8A050000 		.4byte	.LASF136
 14903 0bbe 01       		.byte	0x1
 14904 0bbf 3E       		.byte	0x3e
 14905 0bc0 8C000000 		.4byte	0x8c
 14906 0bc4 05       		.uleb128 0x5
 14907 0bc5 03       		.byte	0x3
 14908 0bc6 00000000 		.4byte	timeout_autorizacion
 14909 0bca 1A       		.uleb128 0x1a
 14910 0bcb 51000000 		.4byte	.LASF137
 14911 0bcf 01       		.byte	0x1
 14912 0bd0 3F       		.byte	0x3f
 14913 0bd1 81000000 		.4byte	0x81
 14914 0bd5 05       		.uleb128 0x5
ARM GAS  C:\Users\RECEPC~1\AppData\Local\Temp\cc2OimPl.s 			page 320


 14915 0bd6 03       		.byte	0x3
 14916 0bd7 00000000 		.4byte	estado_tanqueando
 14917 0bdb 1A       		.uleb128 0x1a
 14918 0bdc 8B060000 		.4byte	.LASF138
 14919 0be0 01       		.byte	0x1
 14920 0be1 40       		.byte	0x40
 14921 0be2 81000000 		.4byte	0x81
 14922 0be6 05       		.uleb128 0x5
 14923 0be7 03       		.byte	0x3
 14924 0be8 00000000 		.4byte	consulta_sistema
 14925 0bec 1A       		.uleb128 0x1a
 14926 0bed DD050000 		.4byte	.LASF139
 14927 0bf1 01       		.byte	0x1
 14928 0bf2 41       		.byte	0x41
 14929 0bf3 CD000000 		.4byte	0xcd
 14930 0bf7 05       		.uleb128 0x5
 14931 0bf8 03       		.byte	0x3
 14932 0bf9 00000000 		.4byte	clave_local
 14933 0bfd 1A       		.uleb128 0x1a
 14934 0bfe 1A010000 		.4byte	.LASF140
 14935 0c02 01       		.byte	0x1
 14936 0c03 42       		.byte	0x42
 14937 0c04 81000000 		.4byte	0x81
 14938 0c08 05       		.uleb128 0x5
 14939 0c09 03       		.byte	0x3
 14940 0c0a 00000000 		.4byte	v_digitos_1
 14941 0c0e 1A       		.uleb128 0x1a
 14942 0c0f F4000000 		.4byte	.LASF141
 14943 0c13 01       		.byte	0x1
 14944 0c14 43       		.byte	0x43
 14945 0c15 81000000 		.4byte	0x81
 14946 0c19 05       		.uleb128 0x5
 14947 0c1a 03       		.byte	0x3
 14948 0c1b 00000000 		.4byte	ppuinicial
 14949 0c1f 1A       		.uleb128 0x1a
 14950 0c20 2A060000 		.4byte	.LASF142
 14951 0c24 01       		.byte	0x1
 14952 0c25 44       		.byte	0x44
 14953 0c26 81000000 		.4byte	0x81
 14954 0c2a 05       		.uleb128 0x5
 14955 0c2b 03       		.byte	0x3
 14956 0c2c 00000000 		.4byte	Producto
 14957 0c30 1A       		.uleb128 0x1a
 14958 0c31 36040000 		.4byte	.LASF143
 14959 0c35 01       		.byte	0x1
 14960 0c36 45       		.byte	0x45
 14961 0c37 CD000000 		.4byte	0xcd
 14962 0c3b 05       		.uleb128 0x5
 14963 0c3c 03       		.byte	0x3
 14964 0c3d 00000000 		.4byte	Productos
 14965 0c41 1A       		.uleb128 0x1a
 14966 0c42 D9040000 		.4byte	.LASF144
 14967 0c46 01       		.byte	0x1
 14968 0c47 46       		.byte	0x46
 14969 0c48 81000000 		.4byte	0x81
 14970 0c4c 05       		.uleb128 0x5
 14971 0c4d 03       		.byte	0x3
ARM GAS  C:\Users\RECEPC~1\AppData\Local\Temp\cc2OimPl.s 			page 321


 14972 0c4e 00000000 		.4byte	producto1
 14973 0c52 1A       		.uleb128 0x1a
 14974 0c53 E3040000 		.4byte	.LASF145
 14975 0c57 01       		.byte	0x1
 14976 0c58 46       		.byte	0x46
 14977 0c59 81000000 		.4byte	0x81
 14978 0c5d 05       		.uleb128 0x5
 14979 0c5e 03       		.byte	0x3
 14980 0c5f 00000000 		.4byte	producto2
 14981 0c63 1A       		.uleb128 0x1a
 14982 0c64 ED040000 		.4byte	.LASF146
 14983 0c68 01       		.byte	0x1
 14984 0c69 46       		.byte	0x46
 14985 0c6a 81000000 		.4byte	0x81
 14986 0c6e 05       		.uleb128 0x5
 14987 0c6f 03       		.byte	0x3
 14988 0c70 00000000 		.4byte	producto3
 14989 0c74 1A       		.uleb128 0x1a
 14990 0c75 F7040000 		.4byte	.LASF147
 14991 0c79 01       		.byte	0x1
 14992 0c7a 46       		.byte	0x46
 14993 0c7b 81000000 		.4byte	0x81
 14994 0c7f 05       		.uleb128 0x5
 14995 0c80 03       		.byte	0x3
 14996 0c81 00000000 		.4byte	producto4
 14997 0c85 1A       		.uleb128 0x1a
 14998 0c86 47050000 		.4byte	.LASF148
 14999 0c8a 01       		.byte	0x1
 15000 0c8b 47       		.byte	0x47
 15001 0c8c 81000000 		.4byte	0x81
 15002 0c90 05       		.uleb128 0x5
 15003 0c91 03       		.byte	0x3
 15004 0c92 00000000 		.4byte	status1LP
 15005 0c96 1A       		.uleb128 0x1a
 15006 0c97 0B040000 		.4byte	.LASF149
 15007 0c9b 01       		.byte	0x1
 15008 0c9c 47       		.byte	0x47
 15009 0c9d 81000000 		.4byte	0x81
 15010 0ca1 05       		.uleb128 0x5
 15011 0ca2 03       		.byte	0x3
 15012 0ca3 00000000 		.4byte	status2LP
 15013 0ca7 1A       		.uleb128 0x1a
 15014 0ca8 81060000 		.4byte	.LASF150
 15015 0cac 01       		.byte	0x1
 15016 0cad 47       		.byte	0x47
 15017 0cae 81000000 		.4byte	0x81
 15018 0cb2 05       		.uleb128 0x5
 15019 0cb3 03       		.byte	0x3
 15020 0cb4 00000000 		.4byte	status1st
 15021 0cb8 1A       		.uleb128 0x1a
 15022 0cb9 3D050000 		.4byte	.LASF151
 15023 0cbd 01       		.byte	0x1
 15024 0cbe 47       		.byte	0x47
 15025 0cbf 81000000 		.4byte	0x81
 15026 0cc3 05       		.uleb128 0x5
 15027 0cc4 03       		.byte	0x3
 15028 0cc5 00000000 		.4byte	status2st
ARM GAS  C:\Users\RECEPC~1\AppData\Local\Temp\cc2OimPl.s 			page 322


 15029 0cc9 00       		.byte	0
 15030              		.section	.debug_abbrev,"",%progbits
 15031              	.Ldebug_abbrev0:
 15032 0000 01       		.uleb128 0x1
 15033 0001 11       		.uleb128 0x11
 15034 0002 01       		.byte	0x1
 15035 0003 25       		.uleb128 0x25
 15036 0004 0E       		.uleb128 0xe
 15037 0005 13       		.uleb128 0x13
 15038 0006 0B       		.uleb128 0xb
 15039 0007 03       		.uleb128 0x3
 15040 0008 0E       		.uleb128 0xe
 15041 0009 1B       		.uleb128 0x1b
 15042 000a 0E       		.uleb128 0xe
 15043 000b 55       		.uleb128 0x55
 15044 000c 17       		.uleb128 0x17
 15045 000d 11       		.uleb128 0x11
 15046 000e 01       		.uleb128 0x1
 15047 000f 10       		.uleb128 0x10
 15048 0010 17       		.uleb128 0x17
 15049 0011 00       		.byte	0
 15050 0012 00       		.byte	0
 15051 0013 02       		.uleb128 0x2
 15052 0014 24       		.uleb128 0x24
 15053 0015 00       		.byte	0
 15054 0016 0B       		.uleb128 0xb
 15055 0017 0B       		.uleb128 0xb
 15056 0018 3E       		.uleb128 0x3e
 15057 0019 0B       		.uleb128 0xb
 15058 001a 03       		.uleb128 0x3
 15059 001b 0E       		.uleb128 0xe
 15060 001c 00       		.byte	0
 15061 001d 00       		.byte	0
 15062 001e 03       		.uleb128 0x3
 15063 001f 16       		.uleb128 0x16
 15064 0020 00       		.byte	0
 15065 0021 03       		.uleb128 0x3
 15066 0022 0E       		.uleb128 0xe
 15067 0023 3A       		.uleb128 0x3a
 15068 0024 0B       		.uleb128 0xb
 15069 0025 3B       		.uleb128 0x3b
 15070 0026 0B       		.uleb128 0xb
 15071 0027 49       		.uleb128 0x49
 15072 0028 13       		.uleb128 0x13
 15073 0029 00       		.byte	0
 15074 002a 00       		.byte	0
 15075 002b 04       		.uleb128 0x4
 15076 002c 24       		.uleb128 0x24
 15077 002d 00       		.byte	0
 15078 002e 0B       		.uleb128 0xb
 15079 002f 0B       		.uleb128 0xb
 15080 0030 3E       		.uleb128 0x3e
 15081 0031 0B       		.uleb128 0xb
 15082 0032 03       		.uleb128 0x3
 15083 0033 08       		.uleb128 0x8
 15084 0034 00       		.byte	0
 15085 0035 00       		.byte	0
ARM GAS  C:\Users\RECEPC~1\AppData\Local\Temp\cc2OimPl.s 			page 323


 15086 0036 05       		.uleb128 0x5
 15087 0037 35       		.uleb128 0x35
 15088 0038 00       		.byte	0
 15089 0039 49       		.uleb128 0x49
 15090 003a 13       		.uleb128 0x13
 15091 003b 00       		.byte	0
 15092 003c 00       		.byte	0
 15093 003d 06       		.uleb128 0x6
 15094 003e 01       		.uleb128 0x1
 15095 003f 01       		.byte	0x1
 15096 0040 49       		.uleb128 0x49
 15097 0041 13       		.uleb128 0x13
 15098 0042 01       		.uleb128 0x1
 15099 0043 13       		.uleb128 0x13
 15100 0044 00       		.byte	0
 15101 0045 00       		.byte	0
 15102 0046 07       		.uleb128 0x7
 15103 0047 21       		.uleb128 0x21
 15104 0048 00       		.byte	0
 15105 0049 49       		.uleb128 0x49
 15106 004a 13       		.uleb128 0x13
 15107 004b 2F       		.uleb128 0x2f
 15108 004c 0B       		.uleb128 0xb
 15109 004d 00       		.byte	0
 15110 004e 00       		.byte	0
 15111 004f 08       		.uleb128 0x8
 15112 0050 13       		.uleb128 0x13
 15113 0051 01       		.byte	0x1
 15114 0052 03       		.uleb128 0x3
 15115 0053 0E       		.uleb128 0xe
 15116 0054 0B       		.uleb128 0xb
 15117 0055 0B       		.uleb128 0xb
 15118 0056 3A       		.uleb128 0x3a
 15119 0057 0B       		.uleb128 0xb
 15120 0058 3B       		.uleb128 0x3b
 15121 0059 0B       		.uleb128 0xb
 15122 005a 01       		.uleb128 0x1
 15123 005b 13       		.uleb128 0x13
 15124 005c 00       		.byte	0
 15125 005d 00       		.byte	0
 15126 005e 09       		.uleb128 0x9
 15127 005f 0D       		.uleb128 0xd
 15128 0060 00       		.byte	0
 15129 0061 03       		.uleb128 0x3
 15130 0062 08       		.uleb128 0x8
 15131 0063 3A       		.uleb128 0x3a
 15132 0064 0B       		.uleb128 0xb
 15133 0065 3B       		.uleb128 0x3b
 15134 0066 0B       		.uleb128 0xb
 15135 0067 49       		.uleb128 0x49
 15136 0068 13       		.uleb128 0x13
 15137 0069 38       		.uleb128 0x38
 15138 006a 0B       		.uleb128 0xb
 15139 006b 00       		.byte	0
 15140 006c 00       		.byte	0
 15141 006d 0A       		.uleb128 0xa
 15142 006e 0D       		.uleb128 0xd
ARM GAS  C:\Users\RECEPC~1\AppData\Local\Temp\cc2OimPl.s 			page 324


 15143 006f 00       		.byte	0
 15144 0070 03       		.uleb128 0x3
 15145 0071 0E       		.uleb128 0xe
 15146 0072 3A       		.uleb128 0x3a
 15147 0073 0B       		.uleb128 0xb
 15148 0074 3B       		.uleb128 0x3b
 15149 0075 0B       		.uleb128 0xb
 15150 0076 49       		.uleb128 0x49
 15151 0077 13       		.uleb128 0x13
 15152 0078 38       		.uleb128 0x38
 15153 0079 0B       		.uleb128 0xb
 15154 007a 00       		.byte	0
 15155 007b 00       		.byte	0
 15156 007c 0B       		.uleb128 0xb
 15157 007d 2E       		.uleb128 0x2e
 15158 007e 01       		.byte	0x1
 15159 007f 3F       		.uleb128 0x3f
 15160 0080 19       		.uleb128 0x19
 15161 0081 03       		.uleb128 0x3
 15162 0082 0E       		.uleb128 0xe
 15163 0083 3A       		.uleb128 0x3a
 15164 0084 0B       		.uleb128 0xb
 15165 0085 3B       		.uleb128 0x3b
 15166 0086 0B       		.uleb128 0xb
 15167 0087 27       		.uleb128 0x27
 15168 0088 19       		.uleb128 0x19
 15169 0089 11       		.uleb128 0x11
 15170 008a 01       		.uleb128 0x1
 15171 008b 12       		.uleb128 0x12
 15172 008c 06       		.uleb128 0x6
 15173 008d 40       		.uleb128 0x40
 15174 008e 18       		.uleb128 0x18
 15175 008f 9642     		.uleb128 0x2116
 15176 0091 19       		.uleb128 0x19
 15177 0092 01       		.uleb128 0x1
 15178 0093 13       		.uleb128 0x13
 15179 0094 00       		.byte	0
 15180 0095 00       		.byte	0
 15181 0096 0C       		.uleb128 0xc
 15182 0097 34       		.uleb128 0x34
 15183 0098 00       		.byte	0
 15184 0099 03       		.uleb128 0x3
 15185 009a 08       		.uleb128 0x8
 15186 009b 3A       		.uleb128 0x3a
 15187 009c 0B       		.uleb128 0xb
 15188 009d 3B       		.uleb128 0x3b
 15189 009e 0B       		.uleb128 0xb
 15190 009f 49       		.uleb128 0x49
 15191 00a0 13       		.uleb128 0x13
 15192 00a1 02       		.uleb128 0x2
 15193 00a2 18       		.uleb128 0x18
 15194 00a3 00       		.byte	0
 15195 00a4 00       		.byte	0
 15196 00a5 0D       		.uleb128 0xd
 15197 00a6 2E       		.uleb128 0x2e
 15198 00a7 01       		.byte	0x1
 15199 00a8 3F       		.uleb128 0x3f
ARM GAS  C:\Users\RECEPC~1\AppData\Local\Temp\cc2OimPl.s 			page 325


 15200 00a9 19       		.uleb128 0x19
 15201 00aa 03       		.uleb128 0x3
 15202 00ab 0E       		.uleb128 0xe
 15203 00ac 3A       		.uleb128 0x3a
 15204 00ad 0B       		.uleb128 0xb
 15205 00ae 3B       		.uleb128 0x3b
 15206 00af 0B       		.uleb128 0xb
 15207 00b0 27       		.uleb128 0x27
 15208 00b1 19       		.uleb128 0x19
 15209 00b2 49       		.uleb128 0x49
 15210 00b3 13       		.uleb128 0x13
 15211 00b4 11       		.uleb128 0x11
 15212 00b5 01       		.uleb128 0x1
 15213 00b6 12       		.uleb128 0x12
 15214 00b7 06       		.uleb128 0x6
 15215 00b8 40       		.uleb128 0x40
 15216 00b9 18       		.uleb128 0x18
 15217 00ba 9642     		.uleb128 0x2116
 15218 00bc 19       		.uleb128 0x19
 15219 00bd 01       		.uleb128 0x1
 15220 00be 13       		.uleb128 0x13
 15221 00bf 00       		.byte	0
 15222 00c0 00       		.byte	0
 15223 00c1 0E       		.uleb128 0xe
 15224 00c2 05       		.uleb128 0x5
 15225 00c3 00       		.byte	0
 15226 00c4 03       		.uleb128 0x3
 15227 00c5 0E       		.uleb128 0xe
 15228 00c6 3A       		.uleb128 0x3a
 15229 00c7 0B       		.uleb128 0xb
 15230 00c8 3B       		.uleb128 0x3b
 15231 00c9 0B       		.uleb128 0xb
 15232 00ca 49       		.uleb128 0x49
 15233 00cb 13       		.uleb128 0x13
 15234 00cc 02       		.uleb128 0x2
 15235 00cd 18       		.uleb128 0x18
 15236 00ce 00       		.byte	0
 15237 00cf 00       		.byte	0
 15238 00d0 0F       		.uleb128 0xf
 15239 00d1 34       		.uleb128 0x34
 15240 00d2 00       		.byte	0
 15241 00d3 03       		.uleb128 0x3
 15242 00d4 0E       		.uleb128 0xe
 15243 00d5 3A       		.uleb128 0x3a
 15244 00d6 0B       		.uleb128 0xb
 15245 00d7 3B       		.uleb128 0x3b
 15246 00d8 0B       		.uleb128 0xb
 15247 00d9 49       		.uleb128 0x49
 15248 00da 13       		.uleb128 0x13
 15249 00db 02       		.uleb128 0x2
 15250 00dc 18       		.uleb128 0x18
 15251 00dd 00       		.byte	0
 15252 00de 00       		.byte	0
 15253 00df 10       		.uleb128 0x10
 15254 00e0 0F       		.uleb128 0xf
 15255 00e1 00       		.byte	0
 15256 00e2 0B       		.uleb128 0xb
ARM GAS  C:\Users\RECEPC~1\AppData\Local\Temp\cc2OimPl.s 			page 326


 15257 00e3 0B       		.uleb128 0xb
 15258 00e4 49       		.uleb128 0x49
 15259 00e5 13       		.uleb128 0x13
 15260 00e6 00       		.byte	0
 15261 00e7 00       		.byte	0
 15262 00e8 11       		.uleb128 0x11
 15263 00e9 05       		.uleb128 0x5
 15264 00ea 00       		.byte	0
 15265 00eb 03       		.uleb128 0x3
 15266 00ec 08       		.uleb128 0x8
 15267 00ed 3A       		.uleb128 0x3a
 15268 00ee 0B       		.uleb128 0xb
 15269 00ef 3B       		.uleb128 0x3b
 15270 00f0 0B       		.uleb128 0xb
 15271 00f1 49       		.uleb128 0x49
 15272 00f2 13       		.uleb128 0x13
 15273 00f3 02       		.uleb128 0x2
 15274 00f4 18       		.uleb128 0x18
 15275 00f5 00       		.byte	0
 15276 00f6 00       		.byte	0
 15277 00f7 12       		.uleb128 0x12
 15278 00f8 2E       		.uleb128 0x2e
 15279 00f9 01       		.byte	0x1
 15280 00fa 3F       		.uleb128 0x3f
 15281 00fb 19       		.uleb128 0x19
 15282 00fc 03       		.uleb128 0x3
 15283 00fd 0E       		.uleb128 0xe
 15284 00fe 3A       		.uleb128 0x3a
 15285 00ff 0B       		.uleb128 0xb
 15286 0100 3B       		.uleb128 0x3b
 15287 0101 05       		.uleb128 0x5
 15288 0102 27       		.uleb128 0x27
 15289 0103 19       		.uleb128 0x19
 15290 0104 11       		.uleb128 0x11
 15291 0105 01       		.uleb128 0x1
 15292 0106 12       		.uleb128 0x12
 15293 0107 06       		.uleb128 0x6
 15294 0108 40       		.uleb128 0x40
 15295 0109 18       		.uleb128 0x18
 15296 010a 9642     		.uleb128 0x2116
 15297 010c 19       		.uleb128 0x19
 15298 010d 01       		.uleb128 0x1
 15299 010e 13       		.uleb128 0x13
 15300 010f 00       		.byte	0
 15301 0110 00       		.byte	0
 15302 0111 13       		.uleb128 0x13
 15303 0112 34       		.uleb128 0x34
 15304 0113 00       		.byte	0
 15305 0114 03       		.uleb128 0x3
 15306 0115 0E       		.uleb128 0xe
 15307 0116 3A       		.uleb128 0x3a
 15308 0117 0B       		.uleb128 0xb
 15309 0118 3B       		.uleb128 0x3b
 15310 0119 05       		.uleb128 0x5
 15311 011a 49       		.uleb128 0x49
 15312 011b 13       		.uleb128 0x13
 15313 011c 02       		.uleb128 0x2
ARM GAS  C:\Users\RECEPC~1\AppData\Local\Temp\cc2OimPl.s 			page 327


 15314 011d 18       		.uleb128 0x18
 15315 011e 00       		.byte	0
 15316 011f 00       		.byte	0
 15317 0120 14       		.uleb128 0x14
 15318 0121 34       		.uleb128 0x34
 15319 0122 00       		.byte	0
 15320 0123 03       		.uleb128 0x3
 15321 0124 08       		.uleb128 0x8
 15322 0125 3A       		.uleb128 0x3a
 15323 0126 0B       		.uleb128 0xb
 15324 0127 3B       		.uleb128 0x3b
 15325 0128 05       		.uleb128 0x5
 15326 0129 49       		.uleb128 0x49
 15327 012a 13       		.uleb128 0x13
 15328 012b 02       		.uleb128 0x2
 15329 012c 18       		.uleb128 0x18
 15330 012d 00       		.byte	0
 15331 012e 00       		.byte	0
 15332 012f 15       		.uleb128 0x15
 15333 0130 2E       		.uleb128 0x2e
 15334 0131 00       		.byte	0
 15335 0132 3F       		.uleb128 0x3f
 15336 0133 19       		.uleb128 0x19
 15337 0134 03       		.uleb128 0x3
 15338 0135 0E       		.uleb128 0xe
 15339 0136 3A       		.uleb128 0x3a
 15340 0137 0B       		.uleb128 0xb
 15341 0138 3B       		.uleb128 0x3b
 15342 0139 05       		.uleb128 0x5
 15343 013a 27       		.uleb128 0x27
 15344 013b 19       		.uleb128 0x19
 15345 013c 11       		.uleb128 0x11
 15346 013d 01       		.uleb128 0x1
 15347 013e 12       		.uleb128 0x12
 15348 013f 06       		.uleb128 0x6
 15349 0140 40       		.uleb128 0x40
 15350 0141 18       		.uleb128 0x18
 15351 0142 9742     		.uleb128 0x2117
 15352 0144 19       		.uleb128 0x19
 15353 0145 00       		.byte	0
 15354 0146 00       		.byte	0
 15355 0147 16       		.uleb128 0x16
 15356 0148 2E       		.uleb128 0x2e
 15357 0149 00       		.byte	0
 15358 014a 3F       		.uleb128 0x3f
 15359 014b 19       		.uleb128 0x19
 15360 014c 03       		.uleb128 0x3
 15361 014d 0E       		.uleb128 0xe
 15362 014e 3A       		.uleb128 0x3a
 15363 014f 0B       		.uleb128 0xb
 15364 0150 3B       		.uleb128 0x3b
 15365 0151 05       		.uleb128 0x5
 15366 0152 27       		.uleb128 0x27
 15367 0153 19       		.uleb128 0x19
 15368 0154 11       		.uleb128 0x11
 15369 0155 01       		.uleb128 0x1
 15370 0156 12       		.uleb128 0x12
ARM GAS  C:\Users\RECEPC~1\AppData\Local\Temp\cc2OimPl.s 			page 328


 15371 0157 06       		.uleb128 0x6
 15372 0158 40       		.uleb128 0x40
 15373 0159 18       		.uleb128 0x18
 15374 015a 9642     		.uleb128 0x2116
 15375 015c 19       		.uleb128 0x19
 15376 015d 00       		.byte	0
 15377 015e 00       		.byte	0
 15378 015f 17       		.uleb128 0x17
 15379 0160 2E       		.uleb128 0x2e
 15380 0161 00       		.byte	0
 15381 0162 3F       		.uleb128 0x3f
 15382 0163 19       		.uleb128 0x19
 15383 0164 03       		.uleb128 0x3
 15384 0165 0E       		.uleb128 0xe
 15385 0166 3A       		.uleb128 0x3a
 15386 0167 0B       		.uleb128 0xb
 15387 0168 3B       		.uleb128 0x3b
 15388 0169 05       		.uleb128 0x5
 15389 016a 49       		.uleb128 0x49
 15390 016b 13       		.uleb128 0x13
 15391 016c 11       		.uleb128 0x11
 15392 016d 01       		.uleb128 0x1
 15393 016e 12       		.uleb128 0x12
 15394 016f 06       		.uleb128 0x6
 15395 0170 40       		.uleb128 0x40
 15396 0171 18       		.uleb128 0x18
 15397 0172 9642     		.uleb128 0x2116
 15398 0174 19       		.uleb128 0x19
 15399 0175 00       		.byte	0
 15400 0176 00       		.byte	0
 15401 0177 18       		.uleb128 0x18
 15402 0178 34       		.uleb128 0x34
 15403 0179 00       		.byte	0
 15404 017a 03       		.uleb128 0x3
 15405 017b 0E       		.uleb128 0xe
 15406 017c 3A       		.uleb128 0x3a
 15407 017d 0B       		.uleb128 0xb
 15408 017e 3B       		.uleb128 0x3b
 15409 017f 05       		.uleb128 0x5
 15410 0180 49       		.uleb128 0x49
 15411 0181 13       		.uleb128 0x13
 15412 0182 3F       		.uleb128 0x3f
 15413 0183 19       		.uleb128 0x19
 15414 0184 3C       		.uleb128 0x3c
 15415 0185 19       		.uleb128 0x19
 15416 0186 00       		.byte	0
 15417 0187 00       		.byte	0
 15418 0188 19       		.uleb128 0x19
 15419 0189 21       		.uleb128 0x21
 15420 018a 00       		.byte	0
 15421 018b 49       		.uleb128 0x49
 15422 018c 13       		.uleb128 0x13
 15423 018d 2F       		.uleb128 0x2f
 15424 018e 05       		.uleb128 0x5
 15425 018f 00       		.byte	0
 15426 0190 00       		.byte	0
 15427 0191 1A       		.uleb128 0x1a
ARM GAS  C:\Users\RECEPC~1\AppData\Local\Temp\cc2OimPl.s 			page 329


 15428 0192 34       		.uleb128 0x34
 15429 0193 00       		.byte	0
 15430 0194 03       		.uleb128 0x3
 15431 0195 0E       		.uleb128 0xe
 15432 0196 3A       		.uleb128 0x3a
 15433 0197 0B       		.uleb128 0xb
 15434 0198 3B       		.uleb128 0x3b
 15435 0199 0B       		.uleb128 0xb
 15436 019a 49       		.uleb128 0x49
 15437 019b 13       		.uleb128 0x13
 15438 019c 3F       		.uleb128 0x3f
 15439 019d 19       		.uleb128 0x19
 15440 019e 02       		.uleb128 0x2
 15441 019f 18       		.uleb128 0x18
 15442 01a0 00       		.byte	0
 15443 01a1 00       		.byte	0
 15444 01a2 1B       		.uleb128 0x1b
 15445 01a3 34       		.uleb128 0x34
 15446 01a4 00       		.byte	0
 15447 01a5 03       		.uleb128 0x3
 15448 01a6 08       		.uleb128 0x8
 15449 01a7 3A       		.uleb128 0x3a
 15450 01a8 0B       		.uleb128 0xb
 15451 01a9 3B       		.uleb128 0x3b
 15452 01aa 0B       		.uleb128 0xb
 15453 01ab 49       		.uleb128 0x49
 15454 01ac 13       		.uleb128 0x13
 15455 01ad 3F       		.uleb128 0x3f
 15456 01ae 19       		.uleb128 0x19
 15457 01af 02       		.uleb128 0x2
 15458 01b0 18       		.uleb128 0x18
 15459 01b1 00       		.byte	0
 15460 01b2 00       		.byte	0
 15461 01b3 00       		.byte	0
 15462              		.section	.debug_aranges,"",%progbits
 15463 0000 84000000 		.4byte	0x84
 15464 0004 0200     		.2byte	0x2
 15465 0006 00000000 		.4byte	.Ldebug_info0
 15466 000a 04       		.byte	0x4
 15467 000b 00       		.byte	0
 15468 000c 0000     		.2byte	0
 15469 000e 0000     		.2byte	0
 15470 0010 00000000 		.4byte	.LFB63
 15471 0014 04020000 		.4byte	.LFE63-.LFB63
 15472 0018 00000000 		.4byte	.LFB64
 15473 001c 84000000 		.4byte	.LFE64-.LFB64
 15474 0020 00000000 		.4byte	.LFB65
 15475 0024 80000000 		.4byte	.LFE65-.LFB65
 15476 0028 00000000 		.4byte	.LFB66
 15477 002c 30030000 		.4byte	.LFE66-.LFB66
 15478 0030 00000000 		.4byte	.LFB67
 15479 0034 5C0B0000 		.4byte	.LFE67-.LFB67
 15480 0038 00000000 		.4byte	.LFB68
 15481 003c 0C000000 		.4byte	.LFE68-.LFB68
 15482 0040 00000000 		.4byte	.LFB69
 15483 0044 184A0000 		.4byte	.LFE69-.LFB69
 15484 0048 00000000 		.4byte	.LFB70
ARM GAS  C:\Users\RECEPC~1\AppData\Local\Temp\cc2OimPl.s 			page 330


 15485 004c 0C000000 		.4byte	.LFE70-.LFB70
 15486 0050 00000000 		.4byte	.LFB71
 15487 0054 0C000000 		.4byte	.LFE71-.LFB71
 15488 0058 00000000 		.4byte	.LFB72
 15489 005c 74000000 		.4byte	.LFE72-.LFB72
 15490 0060 00000000 		.4byte	.LFB73
 15491 0064 74000000 		.4byte	.LFE73-.LFB73
 15492 0068 00000000 		.4byte	.LFB74
 15493 006c 54000000 		.4byte	.LFE74-.LFB74
 15494 0070 00000000 		.4byte	.LFB75
 15495 0074 38000000 		.4byte	.LFE75-.LFB75
 15496 0078 00000000 		.4byte	.LFB76
 15497 007c 26000000 		.4byte	.LFE76-.LFB76
 15498 0080 00000000 		.4byte	0
 15499 0084 00000000 		.4byte	0
 15500              		.section	.debug_ranges,"",%progbits
 15501              	.Ldebug_ranges0:
 15502 0000 00000000 		.4byte	.LFB63
 15503 0004 04020000 		.4byte	.LFE63
 15504 0008 00000000 		.4byte	.LFB64
 15505 000c 84000000 		.4byte	.LFE64
 15506 0010 00000000 		.4byte	.LFB65
 15507 0014 80000000 		.4byte	.LFE65
 15508 0018 00000000 		.4byte	.LFB66
 15509 001c 30030000 		.4byte	.LFE66
 15510 0020 00000000 		.4byte	.LFB67
 15511 0024 5C0B0000 		.4byte	.LFE67
 15512 0028 00000000 		.4byte	.LFB68
 15513 002c 0C000000 		.4byte	.LFE68
 15514 0030 00000000 		.4byte	.LFB69
 15515 0034 184A0000 		.4byte	.LFE69
 15516 0038 00000000 		.4byte	.LFB70
 15517 003c 0C000000 		.4byte	.LFE70
 15518 0040 00000000 		.4byte	.LFB71
 15519 0044 0C000000 		.4byte	.LFE71
 15520 0048 00000000 		.4byte	.LFB72
 15521 004c 74000000 		.4byte	.LFE72
 15522 0050 00000000 		.4byte	.LFB73
 15523 0054 74000000 		.4byte	.LFE73
 15524 0058 00000000 		.4byte	.LFB74
 15525 005c 54000000 		.4byte	.LFE74
 15526 0060 00000000 		.4byte	.LFB75
 15527 0064 38000000 		.4byte	.LFE75
 15528 0068 00000000 		.4byte	.LFB76
 15529 006c 26000000 		.4byte	.LFE76
 15530 0070 00000000 		.4byte	0
 15531 0074 00000000 		.4byte	0
 15532              		.section	.debug_line,"",%progbits
 15533              	.Ldebug_line0:
 15534 0000 B0120000 		.section	.debug_str,"MS",%progbits,1
 15534      02006E01 
 15534      00000201 
 15534      FB0E0D00 
 15534      01010101 
 15535              	.LASF35:
 15536 0000 70617373 		.ascii	"password\000"
 15536      776F7264 
ARM GAS  C:\Users\RECEPC~1\AppData\Local\Temp\cc2OimPl.s 			page 331


 15536      00
 15537              	.LASF48:
 15538 0009 706F6C6C 		.ascii	"polling_rf\000"
 15538      696E675F 
 15538      726600
 15539              	.LASF50:
 15540 0014 73746174 		.ascii	"status2\000"
 15540      75733200 
 15541              	.LASF55:
 15542 001c 6E756D5F 		.ascii	"num_decimal\000"
 15542      64656369 
 15542      6D616C00 
 15543              	.LASF95:
 15544 0028 636F756E 		.ascii	"count_protector2\000"
 15544      745F7072 
 15544      6F746563 
 15544      746F7232 
 15544      00
 15545              	.LASF110:
 15546 0039 65666563 		.ascii	"efectivo\000"
 15546      7469766F 
 15546      00
 15547              	.LASF65:
 15548 0042 4C43445F 		.ascii	"LCD_1_rxBuffer\000"
 15548      315F7278 
 15548      42756666 
 15548      657200
 15549              	.LASF137:
 15550 0051 65737461 		.ascii	"estado_tanqueando\000"
 15550      646F5F74 
 15550      616E7175 
 15550      65616E64 
 15550      6F00
 15551              	.LASF154:
 15552 0063 433A5C55 		.ascii	"C:\\Users\\Recepcion\\Documents\\Prueba_GRPFleet\\B"
 15552      73657273 
 15552      5C526563 
 15552      65706369 
 15552      6F6E5C44 
 15553 0091 42422E63 		.ascii	"BB.cydsn\000"
 15553      7964736E 
 15553      00
 15554              	.LASF71:
 15555 009a 69645F63 		.ascii	"id_coma1\000"
 15555      6F6D6131 
 15555      00
 15556              	.LASF74:
 15557 00a3 69645F63 		.ascii	"id_coma2\000"
 15557      6F6D6132 
 15557      00
 15558              	.LASF133:
 15559 00ac 6E756D5F 		.ascii	"num_decimal2\000"
 15559      64656369 
 15559      6D616C32 
 15559      00
 15560              	.LASF47:
 15561 00b9 696E6974 		.ascii	"init_surt\000"
ARM GAS  C:\Users\RECEPC~1\AppData\Local\Temp\cc2OimPl.s 			page 332


 15561      5F737572 
 15561      7400
 15562              	.LASF8:
 15563 00c3 756E7369 		.ascii	"unsigned int\000"
 15563      676E6564 
 15563      20696E74 
 15563      00
 15564              	.LASF107:
 15565 00d0 76657273 		.ascii	"version\000"
 15565      696F6E00 
 15566              	.LASF9:
 15567 00d8 5F5F696E 		.ascii	"__int32_t\000"
 15567      7433325F 
 15567      7400
 15568              	.LASF132:
 15569 00e2 74657374 		.ascii	"test\000"
 15569      00
 15570              	.LASF52:
 15571 00e7 70726563 		.ascii	"precio\000"
 15571      696F00
 15572              	.LASF123:
 15573 00ee 6F6B5F52 		.ascii	"ok_RF\000"
 15573      4600
 15574              	.LASF141:
 15575 00f4 70707569 		.ascii	"ppuinicial\000"
 15575      6E696369 
 15575      616C00
 15576              	.LASF120:
 15577 00ff 686F7261 		.ascii	"hora\000"
 15577      00
 15578              	.LASF82:
 15579 0104 7465636C 		.ascii	"teclas1\000"
 15579      61733100 
 15580              	.LASF83:
 15581 010c 7465636C 		.ascii	"teclas2\000"
 15581      61733200 
 15582              	.LASF116:
 15583 0114 6C656D61 		.ascii	"lema1\000"
 15583      3100
 15584              	.LASF140:
 15585 011a 765F6469 		.ascii	"v_digitos_1\000"
 15585      6769746F 
 15585      735F3100 
 15586              	.LASF24:
 15587 0126 706F7369 		.ascii	"posicion\000"
 15587      63696F6E 
 15587      00
 15588              	.LASF121:
 15589 012f 7276656E 		.ascii	"rventa1\000"
 15589      74613100 
 15590              	.LASF122:
 15591 0137 7276656E 		.ascii	"rventa2\000"
 15591      74613200 
 15592              	.LASF115:
 15593 013f 64697265 		.ascii	"direccion\000"
 15593      6363696F 
 15593      6E00
ARM GAS  C:\Users\RECEPC~1\AppData\Local\Temp\cc2OimPl.s 			page 333


 15594              	.LASF84:
 15595 0149 666C756A 		.ascii	"flujo_LCD1\000"
 15595      6F5F4C43 
 15595      443100
 15596              	.LASF85:
 15597 0154 666C756A 		.ascii	"flujo_LCD2\000"
 15597      6F5F4C43 
 15597      443200
 15598              	.LASF29:
 15599 015f 70726573 		.ascii	"preset\000"
 15599      657400
 15600              	.LASF13:
 15601 0166 666C6F61 		.ascii	"float\000"
 15601      7400
 15602              	.LASF94:
 15603 016c 636F756E 		.ascii	"count_protector\000"
 15603      745F7072 
 15603      6F746563 
 15603      746F7200 
 15604              	.LASF126:
 15605 017c 62756666 		.ascii	"buffer_i2c\000"
 15605      65725F69 
 15605      326300
 15606              	.LASF41:
 15607 0187 63686563 		.ascii	"checksum\000"
 15607      6B73756D 
 15607      00
 15608              	.LASF42:
 15609 0190 696E6465 		.ascii	"index\000"
 15609      7800
 15610              	.LASF117:
 15611 0196 6C656D61 		.ascii	"lema2\000"
 15611      3200
 15612              	.LASF91:
 15613 019c 76656E74 		.ascii	"venta_activa2\000"
 15613      615F6163 
 15613      74697661 
 15613      3200
 15614              	.LASF32:
 15615 01aa 696D7072 		.ascii	"imprimir\000"
 15615      696D6972 
 15615      00
 15616              	.LASF7:
 15617 01b3 6C6F6E67 		.ascii	"long long unsigned int\000"
 15617      206C6F6E 
 15617      6720756E 
 15617      7369676E 
 15617      65642069 
 15618              	.LASF111:
 15619 01ca 6C61646F 		.ascii	"lado1\000"
 15619      3100
 15620              	.LASF90:
 15621 01d0 76656E74 		.ascii	"venta_activa\000"
 15621      615F6163 
 15621      74697661 
 15621      00
 15622              	.LASF88:
ARM GAS  C:\Users\RECEPC~1\AppData\Local\Temp\cc2OimPl.s 			page 334


 15623 01dd 73656C65 		.ascii	"seleccion_pos\000"
 15623      6363696F 
 15623      6E5F706F 
 15623      7300
 15624              	.LASF51:
 15625 01eb 745F7072 		.ascii	"t_preset\000"
 15625      65736574 
 15625      00
 15626              	.LASF130:
 15627 01f4 6C657472 		.ascii	"letras\000"
 15627      617300
 15628              	.LASF31:
 15629 01fb 706C6163 		.ascii	"placa\000"
 15629      6100
 15630              	.LASF108:
 15631 0201 6B6D7363 		.ascii	"kmscreen\000"
 15631      7265656E 
 15631      00
 15632              	.LASF56:
 15633 020a 706F6C6C 		.ascii	"polling_surt\000"
 15633      696E675F 
 15633      73757274 
 15633      00
 15634              	.LASF86:
 15635 0217 666C756A 		.ascii	"flujo_pos1\000"
 15635      6F5F706F 
 15635      733100
 15636              	.LASF87:
 15637 0222 666C756A 		.ascii	"flujo_pos2\000"
 15637      6F5F706F 
 15637      733200
 15638              	.LASF135:
 15639 022d 73746174 		.ascii	"state_rf\000"
 15639      655F7266 
 15639      00
 15640              	.LASF134:
 15641 0236 69646175 		.ascii	"idaux\000"
 15641      7800
 15642              	.LASF26:
 15643 023c 766F6C75 		.ascii	"volumen\000"
 15643      6D656E00 
 15644              	.LASF114:
 15645 0244 74656C65 		.ascii	"telefono\000"
 15645      666F6E6F 
 15645      00
 15646              	.LASF72:
 15647 024d 69645F74 		.ascii	"id_teclado1\000"
 15647      65636C61 
 15647      646F3100 
 15648              	.LASF75:
 15649 0259 69645F74 		.ascii	"id_teclado2\000"
 15649      65636C61 
 15649      646F3200 
 15650              	.LASF58:
 15651 0265 706F6C6C 		.ascii	"polling_wd\000"
 15651      696E675F 
 15651      776400
ARM GAS  C:\Users\RECEPC~1\AppData\Local\Temp\cc2OimPl.s 			page 335


 15652              	.LASF101:
 15653 0270 69645F76 		.ascii	"id_venta\000"
 15653      656E7461 
 15653      00
 15654              	.LASF125:
 15655 0279 72665F6D 		.ascii	"rf_mod\000"
 15655      6F6400
 15656              	.LASF93:
 15657 0280 42756666 		.ascii	"Buffer_LCD2\000"
 15657      65725F4C 
 15657      43443200 
 15658              	.LASF15:
 15659 028c 63686172 		.ascii	"char\000"
 15659      00
 15660              	.LASF99:
 15661 0291 626C6F71 		.ascii	"bloqueo_LCD\000"
 15661      75656F5F 
 15661      4C434400 
 15662              	.LASF43:
 15663 029d 7461626C 		.ascii	"table\000"
 15663      6500
 15664              	.LASF21:
 15665 02a3 6D616E67 		.ascii	"mangueras\000"
 15665      75657261 
 15665      7300
 15666              	.LASF12:
 15667 02ad 75696E74 		.ascii	"uint16\000"
 15667      313600
 15668              	.LASF49:
 15669 02b4 73746174 		.ascii	"status1\000"
 15669      75733100 
 15670              	.LASF128:
 15671 02bc 7072696E 		.ascii	"print1\000"
 15671      743100
 15672              	.LASF129:
 15673 02c3 7072696E 		.ascii	"print2\000"
 15673      743200
 15674              	.LASF33:
 15675 02ca 7469706F 		.ascii	"tipo_venta\000"
 15675      5F76656E 
 15675      746100
 15676              	.LASF30:
 15677 02d5 69645F65 		.ascii	"id_ef\000"
 15677      6600
 15678              	.LASF36:
 15679 02db 7475726E 		.ascii	"turno\000"
 15679      6F00
 15680              	.LASF39:
 15681 02e1 6461746F 		.ascii	"datos\000"
 15681      7300
 15682              	.LASF19:
 15683 02e7 746F7461 		.ascii	"totales\000"
 15683      6C657300 
 15684              	.LASF96:
 15685 02ef 70617373 		.ascii	"password_lcd\000"
 15685      776F7264 
 15685      5F6C6364 
ARM GAS  C:\Users\RECEPC~1\AppData\Local\Temp\cc2OimPl.s 			page 336


 15685      00
 15686              	.LASF68:
 15687 02fc 636F756E 		.ascii	"count_teclas1\000"
 15687      745F7465 
 15687      636C6173 
 15687      3100
 15688              	.LASF73:
 15689 030a 636F756E 		.ascii	"count_teclas2\000"
 15689      745F7465 
 15689      636C6173 
 15689      3200
 15690              	.LASF76:
 15691 0318 706F7378 		.ascii	"posx1\000"
 15691      3100
 15692              	.LASF155:
 15693 031e 76657269 		.ascii	"verificar_check\000"
 15693      66696361 
 15693      725F6368 
 15693      65636B00 
 15694              	.LASF6:
 15695 032e 6C6F6E67 		.ascii	"long long int\000"
 15695      206C6F6E 
 15695      6720696E 
 15695      7400
 15696              	.LASF79:
 15697 033c 706F7378 		.ascii	"posx2\000"
 15697      3200
 15698              	.LASF27:
 15699 0342 70726F64 		.ascii	"producto\000"
 15699      7563746F 
 15699      00
 15700              	.LASF53:
 15701 034b 706F6C6C 		.ascii	"polling_LCD1\000"
 15701      696E675F 
 15701      4C434431 
 15701      00
 15702              	.LASF57:
 15703 0358 706F6C6C 		.ascii	"polling_LCD2\000"
 15703      696E675F 
 15703      4C434432 
 15703      00
 15704              	.LASF34:
 15705 0365 63656475 		.ascii	"cedula\000"
 15705      6C6100
 15706              	.LASF152:
 15707 036c 474E5520 		.ascii	"GNU C 4.9.3 20150303 (release) [ARM/embedded-4_9-br"
 15707      4320342E 
 15707      392E3320 
 15707      32303135 
 15707      30333033 
 15708 039f 616E6368 		.ascii	"anch revision 221220] -mcpu=cortex-m3 -mthumb -g -O"
 15708      20726576 
 15708      6973696F 
 15708      6E203232 
 15708      31323230 
 15709 03d2 30202D66 		.ascii	"0 -ffunction-sections -ffat-lto-objects\000"
 15709      66756E63 
ARM GAS  C:\Users\RECEPC~1\AppData\Local\Temp\cc2OimPl.s 			page 337


 15709      74696F6E 
 15709      2D736563 
 15709      74696F6E 
 15710              	.LASF77:
 15711 03fa 706F7379 		.ascii	"posy1\000"
 15711      3100
 15712              	.LASF80:
 15713 0400 706F7379 		.ascii	"posy2\000"
 15713      3200
 15714              	.LASF40:
 15715 0406 73697A65 		.ascii	"size\000"
 15715      00
 15716              	.LASF149:
 15717 040b 73746174 		.ascii	"status2LP\000"
 15717      7573324C 
 15717      5000
 15718              	.LASF23:
 15719 0415 72656369 		.ascii	"recibo\000"
 15719      626F00
 15720              	.LASF25:
 15721 041c 64696E65 		.ascii	"dinero\000"
 15721      726F00
 15722              	.LASF92:
 15723 0423 42756666 		.ascii	"Buffer_LCD1\000"
 15723      65725F4C 
 15723      43443100 
 15724              	.LASF18:
 15725 042f 65737461 		.ascii	"estado\000"
 15725      646F00
 15726              	.LASF143:
 15727 0436 50726F64 		.ascii	"Productos\000"
 15727      7563746F 
 15727      7300
 15728              	.LASF61:
 15729 0440 6D6F646F 		.ascii	"modo_mux\000"
 15729      5F6D7578 
 15729      00
 15730              	.LASF46:
 15731 0449 696D6167 		.ascii	"imagen\000"
 15731      656E00
 15732              	.LASF17:
 15733 0450 6C6F6E67 		.ascii	"long double\000"
 15733      20646F75 
 15733      626C6500 
 15734              	.LASF38:
 15735 045c 70617373 		.ascii	"password_local\000"
 15735      776F7264 
 15735      5F6C6F63 
 15735      616C00
 15736              	.LASF103:
 15737 046b 70707578 		.ascii	"ppux10\000"
 15737      313000
 15738              	.LASF113:
 15739 0472 6E6F6D62 		.ascii	"nombre\000"
 15739      726500
 15740              	.LASF127:
 15741 0479 6372635F 		.ascii	"crc_total\000"
ARM GAS  C:\Users\RECEPC~1\AppData\Local\Temp\cc2OimPl.s 			page 338


 15741      746F7461 
 15741      6C00
 15742              	.LASF118:
 15743 0483 69645F6C 		.ascii	"id_logo\000"
 15743      6F676F00 
 15744              	.LASF63:
 15745 048b 70726563 		.ascii	"precio_mod\000"
 15745      696F5F6D 
 15745      6F6400
 15746              	.LASF2:
 15747 0496 73686F72 		.ascii	"short int\000"
 15747      7420696E 
 15747      7400
 15748              	.LASF66:
 15749 04a0 50435F72 		.ascii	"PC_rxBuffer\000"
 15749      78427566 
 15749      66657200 
 15750              	.LASF4:
 15751 04ac 6C6F6E67 		.ascii	"long int\000"
 15751      20696E74 
 15751      00
 15752              	.LASF67:
 15753 04b5 49544D5F 		.ascii	"ITM_RxBuffer\000"
 15753      52784275 
 15753      66666572 
 15753      00
 15754              	.LASF22:
 15755 04c2 73757274 		.ascii	"surtidor\000"
 15755      69646F72 
 15755      00
 15756              	.LASF69:
 15757 04cb 636F6D61 		.ascii	"comas1\000"
 15757      733100
 15758              	.LASF70:
 15759 04d2 636F6D61 		.ascii	"comas2\000"
 15759      733200
 15760              	.LASF144:
 15761 04d9 70726F64 		.ascii	"producto1\000"
 15761      7563746F 
 15761      3100
 15762              	.LASF145:
 15763 04e3 70726F64 		.ascii	"producto2\000"
 15763      7563746F 
 15763      3200
 15764              	.LASF146:
 15765 04ed 70726F64 		.ascii	"producto3\000"
 15765      7563746F 
 15765      3300
 15766              	.LASF147:
 15767 04f7 70726F64 		.ascii	"producto4\000"
 15767      7563746F 
 15767      3400
 15768              	.LASF59:
 15769 0501 616E696D 		.ascii	"animacion\000"
 15769      6163696F 
 15769      6E00
 15770              	.LASF104:
ARM GAS  C:\Users\RECEPC~1\AppData\Local\Temp\cc2OimPl.s 			page 339


 15771 050b 6E6F6D62 		.ascii	"nombre_pro1\000"
 15771      72655F70 
 15771      726F3100 
 15772              	.LASF106:
 15773 0517 6E6F6D62 		.ascii	"nombre_pro3\000"
 15773      72655F70 
 15773      726F3300 
 15774              	.LASF62:
 15775 0523 696E7365 		.ascii	"insert_ppuInit\000"
 15775      72745F70 
 15775      7075496E 
 15775      697400
 15776              	.LASF60:
 15777 0532 616E696D 		.ascii	"animacion2\000"
 15777      6163696F 
 15777      6E3200
 15778              	.LASF151:
 15779 053d 73746174 		.ascii	"status2st\000"
 15779      75733273 
 15779      7400
 15780              	.LASF148:
 15781 0547 73746174 		.ascii	"status1LP\000"
 15781      7573314C 
 15781      5000
 15782              	.LASF44:
 15783 0551 696E6974 		.ascii	"init\000"
 15783      00
 15784              	.LASF16:
 15785 0556 73697A65 		.ascii	"sizetype\000"
 15785      74797065 
 15785      00
 15786              	.LASF5:
 15787 055f 6C6F6E67 		.ascii	"long unsigned int\000"
 15787      20756E73 
 15787      69676E65 
 15787      6420696E 
 15787      7400
 15788              	.LASF54:
 15789 0571 6E756D65 		.ascii	"numero\000"
 15789      726F00
 15790              	.LASF10:
 15791 0578 696E7433 		.ascii	"int32_t\000"
 15791      325F7400 
 15792              	.LASF98:
 15793 0580 70726F78 		.ascii	"prox_caso\000"
 15793      5F636173 
 15793      6F00
 15794              	.LASF136:
 15795 058a 74696D65 		.ascii	"timeout_autorizacion\000"
 15795      6F75745F 
 15795      6175746F 
 15795      72697A61 
 15795      63696F6E 
 15796              	.LASF109:
 15797 059f 70616E74 		.ascii	"pantallas\000"
 15797      616C6C61 
 15797      7300
ARM GAS  C:\Users\RECEPC~1\AppData\Local\Temp\cc2OimPl.s 			page 340


 15798              	.LASF37:
 15799 05a9 6175746F 		.ascii	"autorizado\000"
 15799      72697A61 
 15799      646F00
 15800              	.LASF1:
 15801 05b4 756E7369 		.ascii	"unsigned char\000"
 15801      676E6564 
 15801      20636861 
 15801      7200
 15802              	.LASF89:
 15803 05c2 666C756A 		.ascii	"flujo_pos\000"
 15803      6F5F706F 
 15803      7300
 15804              	.LASF112:
 15805 05cc 6C61646F 		.ascii	"lado2\000"
 15805      3200
 15806              	.LASF124:
 15807 05d2 6F6B5F64 		.ascii	"ok_datosRF\000"
 15807      61746F73 
 15807      524600
 15808              	.LASF139:
 15809 05dd 636C6176 		.ascii	"clave_local\000"
 15809      655F6C6F 
 15809      63616C00 
 15810              	.LASF131:
 15811 05e9 636C6176 		.ascii	"clave_config\000"
 15811      655F636F 
 15811      6E666967 
 15811      00
 15812              	.LASF105:
 15813 05f6 6E6F6D62 		.ascii	"nombre_pro2\000"
 15813      72655F70 
 15813      726F3200 
 15814              	.LASF0:
 15815 0602 7369676E 		.ascii	"signed char\000"
 15815      65642063 
 15815      68617200 
 15816              	.LASF45:
 15817 060e 6572726F 		.ascii	"error_op\000"
 15817      725F6F70 
 15817      00
 15818              	.LASF3:
 15819 0617 73686F72 		.ascii	"short unsigned int\000"
 15819      7420756E 
 15819      7369676E 
 15819      65642069 
 15819      6E7400
 15820              	.LASF142:
 15821 062a 50726F64 		.ascii	"Producto\000"
 15821      7563746F 
 15821      00
 15822              	.LASF64:
 15823 0633 6D61696E 		.ascii	"main\000"
 15823      00
 15824              	.LASF119:
 15825 0638 66656368 		.ascii	"fecha\000"
 15825      6100
ARM GAS  C:\Users\RECEPC~1\AppData\Local\Temp\cc2OimPl.s 			page 341


 15826              	.LASF11:
 15827 063e 75696E74 		.ascii	"uint8\000"
 15827      3800
 15828              	.LASF14:
 15829 0644 646F7562 		.ascii	"double\000"
 15829      6C6500
 15830              	.LASF102:
 15831 064b 7472616D 		.ascii	"trama_totales\000"
 15831      615F746F 
 15831      74616C65 
 15831      7300
 15832              	.LASF100:
 15833 0659 69645F65 		.ascii	"id_estacion\000"
 15833      73746163 
 15833      696F6E00 
 15834              	.LASF28:
 15835 0665 6D616E67 		.ascii	"manguera\000"
 15835      75657261 
 15835      00
 15836              	.LASF97:
 15837 066e 696D6167 		.ascii	"imagen_grado\000"
 15837      656E5F67 
 15837      7261646F 
 15837      00
 15838              	.LASF20:
 15839 067b 67726164 		.ascii	"grado\000"
 15839      6F00
 15840              	.LASF150:
 15841 0681 73746174 		.ascii	"status1st\000"
 15841      75733173 
 15841      7400
 15842              	.LASF138:
 15843 068b 636F6E73 		.ascii	"consulta_sistema\000"
 15843      756C7461 
 15843      5F736973 
 15843      74656D61 
 15843      00
 15844              	.LASF78:
 15845 069c 73697A65 		.ascii	"sizeletra1\000"
 15845      6C657472 
 15845      613100
 15846              	.LASF81:
 15847 06a7 73697A65 		.ascii	"sizeletra2\000"
 15847      6C657472 
 15847      613200
 15848              	.LASF153:
 15849 06b2 2E5C6D61 		.ascii	".\\main.c\000"
 15849      696E2E63 
 15849      00
 15850              		.ident	"GCC: (GNU Tools for ARM Embedded Processors) 4.9.3 20150303 (release) [ARM/embedded-4_9-br
